; Listing generated by Microsoft (R) Optimizing Compiler Version 16.00.40219.01 

	TITLE	C:\muserver_dev\development\MU-S8EP2-Repack\GameServer\Source\ArcaBattle.cpp
	.686P
	.XMM
	include listing.inc
	.model	flat

INCLUDELIB LIBCMT
INCLUDELIB OLDNAMES

PUBLIC	?g_bIsArcaBattleServer@@3_NA			; g_bIsArcaBattleServer
PUBLIC	?BLOCKSIZE@?$FixedBlockSize@$07@CryptoPP@@2HB	; CryptoPP::FixedBlockSize<8>::BLOCKSIZE
PUBLIC	?KEYLENGTH@?$FixedKeyLength@$07$03$0A@@CryptoPP@@2HB ; CryptoPP::FixedKeyLength<8,4,0>::KEYLENGTH
PUBLIC	?MIN_KEYLENGTH@?$FixedKeyLength@$07$03$0A@@CryptoPP@@2HB ; CryptoPP::FixedKeyLength<8,4,0>::MIN_KEYLENGTH
PUBLIC	?MAX_KEYLENGTH@?$FixedKeyLength@$07$03$0A@@CryptoPP@@2HB ; CryptoPP::FixedKeyLength<8,4,0>::MAX_KEYLENGTH
PUBLIC	?DEFAULT_KEYLENGTH@?$FixedKeyLength@$07$03$0A@@CryptoPP@@2HB ; CryptoPP::FixedKeyLength<8,4,0>::DEFAULT_KEYLENGTH
PUBLIC	?IV_REQUIREMENT@?$FixedKeyLength@$07$03$0A@@CryptoPP@@2HB ; CryptoPP::FixedKeyLength<8,4,0>::IV_REQUIREMENT
PUBLIC	?IV_LENGTH@?$FixedKeyLength@$07$03$0A@@CryptoPP@@2HB ; CryptoPP::FixedKeyLength<8,4,0>::IV_LENGTH
PUBLIC	?KEYLENGTH@?$FixedKeyLength@$0BA@$03$0A@@CryptoPP@@2HB ; CryptoPP::FixedKeyLength<16,4,0>::KEYLENGTH
PUBLIC	?MIN_KEYLENGTH@?$FixedKeyLength@$0BA@$03$0A@@CryptoPP@@2HB ; CryptoPP::FixedKeyLength<16,4,0>::MIN_KEYLENGTH
PUBLIC	?MAX_KEYLENGTH@?$FixedKeyLength@$0BA@$03$0A@@CryptoPP@@2HB ; CryptoPP::FixedKeyLength<16,4,0>::MAX_KEYLENGTH
PUBLIC	?DEFAULT_KEYLENGTH@?$FixedKeyLength@$0BA@$03$0A@@CryptoPP@@2HB ; CryptoPP::FixedKeyLength<16,4,0>::DEFAULT_KEYLENGTH
PUBLIC	?IV_REQUIREMENT@?$FixedKeyLength@$0BA@$03$0A@@CryptoPP@@2HB ; CryptoPP::FixedKeyLength<16,4,0>::IV_REQUIREMENT
PUBLIC	?IV_LENGTH@?$FixedKeyLength@$0BA@$03$0A@@CryptoPP@@2HB ; CryptoPP::FixedKeyLength<16,4,0>::IV_LENGTH
PUBLIC	?KEYLENGTH@?$FixedKeyLength@$0BI@$03$0A@@CryptoPP@@2HB ; CryptoPP::FixedKeyLength<24,4,0>::KEYLENGTH
PUBLIC	?MIN_KEYLENGTH@?$FixedKeyLength@$0BI@$03$0A@@CryptoPP@@2HB ; CryptoPP::FixedKeyLength<24,4,0>::MIN_KEYLENGTH
PUBLIC	?MAX_KEYLENGTH@?$FixedKeyLength@$0BI@$03$0A@@CryptoPP@@2HB ; CryptoPP::FixedKeyLength<24,4,0>::MAX_KEYLENGTH
PUBLIC	?DEFAULT_KEYLENGTH@?$FixedKeyLength@$0BI@$03$0A@@CryptoPP@@2HB ; CryptoPP::FixedKeyLength<24,4,0>::DEFAULT_KEYLENGTH
PUBLIC	?IV_REQUIREMENT@?$FixedKeyLength@$0BI@$03$0A@@CryptoPP@@2HB ; CryptoPP::FixedKeyLength<24,4,0>::IV_REQUIREMENT
PUBLIC	?IV_LENGTH@?$FixedKeyLength@$0BI@$03$0A@@CryptoPP@@2HB ; CryptoPP::FixedKeyLength<24,4,0>::IV_LENGTH
_BSS	SEGMENT
?g_bIsArcaBattleServer@@3_NA DB 01H DUP (?)		; g_bIsArcaBattleServer
_BSS	ENDS
;	COMDAT ?IV_LENGTH@?$FixedKeyLength@$0BI@$03$0A@@CryptoPP@@2HB
CONST	SEGMENT
?IV_LENGTH@?$FixedKeyLength@$0BI@$03$0A@@CryptoPP@@2HB DD 00H ; CryptoPP::FixedKeyLength<24,4,0>::IV_LENGTH
CONST	ENDS
;	COMDAT ?IV_REQUIREMENT@?$FixedKeyLength@$0BI@$03$0A@@CryptoPP@@2HB
CONST	SEGMENT
?IV_REQUIREMENT@?$FixedKeyLength@$0BI@$03$0A@@CryptoPP@@2HB DD 04H ; CryptoPP::FixedKeyLength<24,4,0>::IV_REQUIREMENT
CONST	ENDS
;	COMDAT ?DEFAULT_KEYLENGTH@?$FixedKeyLength@$0BI@$03$0A@@CryptoPP@@2HB
CONST	SEGMENT
?DEFAULT_KEYLENGTH@?$FixedKeyLength@$0BI@$03$0A@@CryptoPP@@2HB DD 018H ; CryptoPP::FixedKeyLength<24,4,0>::DEFAULT_KEYLENGTH
CONST	ENDS
;	COMDAT ?MAX_KEYLENGTH@?$FixedKeyLength@$0BI@$03$0A@@CryptoPP@@2HB
CONST	SEGMENT
?MAX_KEYLENGTH@?$FixedKeyLength@$0BI@$03$0A@@CryptoPP@@2HB DD 018H ; CryptoPP::FixedKeyLength<24,4,0>::MAX_KEYLENGTH
CONST	ENDS
;	COMDAT ?MIN_KEYLENGTH@?$FixedKeyLength@$0BI@$03$0A@@CryptoPP@@2HB
CONST	SEGMENT
?MIN_KEYLENGTH@?$FixedKeyLength@$0BI@$03$0A@@CryptoPP@@2HB DD 018H ; CryptoPP::FixedKeyLength<24,4,0>::MIN_KEYLENGTH
CONST	ENDS
;	COMDAT ?KEYLENGTH@?$FixedKeyLength@$0BI@$03$0A@@CryptoPP@@2HB
CONST	SEGMENT
?KEYLENGTH@?$FixedKeyLength@$0BI@$03$0A@@CryptoPP@@2HB DD 018H ; CryptoPP::FixedKeyLength<24,4,0>::KEYLENGTH
CONST	ENDS
;	COMDAT ?IV_LENGTH@?$FixedKeyLength@$0BA@$03$0A@@CryptoPP@@2HB
CONST	SEGMENT
?IV_LENGTH@?$FixedKeyLength@$0BA@$03$0A@@CryptoPP@@2HB DD 00H ; CryptoPP::FixedKeyLength<16,4,0>::IV_LENGTH
CONST	ENDS
;	COMDAT ?IV_REQUIREMENT@?$FixedKeyLength@$0BA@$03$0A@@CryptoPP@@2HB
CONST	SEGMENT
?IV_REQUIREMENT@?$FixedKeyLength@$0BA@$03$0A@@CryptoPP@@2HB DD 04H ; CryptoPP::FixedKeyLength<16,4,0>::IV_REQUIREMENT
CONST	ENDS
;	COMDAT ?DEFAULT_KEYLENGTH@?$FixedKeyLength@$0BA@$03$0A@@CryptoPP@@2HB
CONST	SEGMENT
?DEFAULT_KEYLENGTH@?$FixedKeyLength@$0BA@$03$0A@@CryptoPP@@2HB DD 010H ; CryptoPP::FixedKeyLength<16,4,0>::DEFAULT_KEYLENGTH
CONST	ENDS
;	COMDAT ?MAX_KEYLENGTH@?$FixedKeyLength@$0BA@$03$0A@@CryptoPP@@2HB
CONST	SEGMENT
?MAX_KEYLENGTH@?$FixedKeyLength@$0BA@$03$0A@@CryptoPP@@2HB DD 010H ; CryptoPP::FixedKeyLength<16,4,0>::MAX_KEYLENGTH
CONST	ENDS
;	COMDAT ?MIN_KEYLENGTH@?$FixedKeyLength@$0BA@$03$0A@@CryptoPP@@2HB
CONST	SEGMENT
?MIN_KEYLENGTH@?$FixedKeyLength@$0BA@$03$0A@@CryptoPP@@2HB DD 010H ; CryptoPP::FixedKeyLength<16,4,0>::MIN_KEYLENGTH
CONST	ENDS
;	COMDAT ?KEYLENGTH@?$FixedKeyLength@$0BA@$03$0A@@CryptoPP@@2HB
CONST	SEGMENT
?KEYLENGTH@?$FixedKeyLength@$0BA@$03$0A@@CryptoPP@@2HB DD 010H ; CryptoPP::FixedKeyLength<16,4,0>::KEYLENGTH
CONST	ENDS
;	COMDAT ?IV_LENGTH@?$FixedKeyLength@$07$03$0A@@CryptoPP@@2HB
CONST	SEGMENT
?IV_LENGTH@?$FixedKeyLength@$07$03$0A@@CryptoPP@@2HB DD 00H ; CryptoPP::FixedKeyLength<8,4,0>::IV_LENGTH
CONST	ENDS
;	COMDAT ?IV_REQUIREMENT@?$FixedKeyLength@$07$03$0A@@CryptoPP@@2HB
CONST	SEGMENT
?IV_REQUIREMENT@?$FixedKeyLength@$07$03$0A@@CryptoPP@@2HB DD 04H ; CryptoPP::FixedKeyLength<8,4,0>::IV_REQUIREMENT
CONST	ENDS
;	COMDAT ?DEFAULT_KEYLENGTH@?$FixedKeyLength@$07$03$0A@@CryptoPP@@2HB
CONST	SEGMENT
?DEFAULT_KEYLENGTH@?$FixedKeyLength@$07$03$0A@@CryptoPP@@2HB DD 08H ; CryptoPP::FixedKeyLength<8,4,0>::DEFAULT_KEYLENGTH
CONST	ENDS
;	COMDAT ?MAX_KEYLENGTH@?$FixedKeyLength@$07$03$0A@@CryptoPP@@2HB
CONST	SEGMENT
?MAX_KEYLENGTH@?$FixedKeyLength@$07$03$0A@@CryptoPP@@2HB DD 08H ; CryptoPP::FixedKeyLength<8,4,0>::MAX_KEYLENGTH
CONST	ENDS
;	COMDAT ?MIN_KEYLENGTH@?$FixedKeyLength@$07$03$0A@@CryptoPP@@2HB
CONST	SEGMENT
?MIN_KEYLENGTH@?$FixedKeyLength@$07$03$0A@@CryptoPP@@2HB DD 08H ; CryptoPP::FixedKeyLength<8,4,0>::MIN_KEYLENGTH
CONST	ENDS
;	COMDAT ?KEYLENGTH@?$FixedKeyLength@$07$03$0A@@CryptoPP@@2HB
CONST	SEGMENT
?KEYLENGTH@?$FixedKeyLength@$07$03$0A@@CryptoPP@@2HB DD 08H ; CryptoPP::FixedKeyLength<8,4,0>::KEYLENGTH
CONST	ENDS
;	COMDAT ?BLOCKSIZE@?$FixedBlockSize@$07@CryptoPP@@2HB
CONST	SEGMENT
?BLOCKSIZE@?$FixedBlockSize@$07@CryptoPP@@2HB DD 08H	; CryptoPP::FixedBlockSize<8>::BLOCKSIZE
CONST	ENDS
PUBLIC	??1OBJECTSTRUCT@@QAE@XZ				; OBJECTSTRUCT::~OBJECTSTRUCT
EXTRN	??1CSkillDelay@@UAE@XZ:PROC			; CSkillDelay::~CSkillDelay
EXTRN	??1TMonsterAIAgro@@UAE@XZ:PROC			; TMonsterAIAgro::~TMonsterAIAgro
EXTRN	___security_cookie:DWORD
EXTRN	___CxxFrameHandler3:PROC
EXTRN	@__security_check_cookie@4:PROC
;	COMDAT xdata$x
xdata$x	SEGMENT
__unwindtable$??1OBJECTSTRUCT@@QAE@XZ DD 0ffffffffH
	DD	FLAT:__unwindfunclet$??1OBJECTSTRUCT@@QAE@XZ$0
__ehfuncinfo$??1OBJECTSTRUCT@@QAE@XZ DD 019930522H
	DD	01H
	DD	FLAT:__unwindtable$??1OBJECTSTRUCT@@QAE@XZ
	DD	2 DUP(00H)
	DD	2 DUP(00H)
	DD	00H
	DD	01H
; Function compile flags: /Ogtp
xdata$x	ENDS
;	COMDAT ??1OBJECTSTRUCT@@QAE@XZ
_TEXT	SEGMENT
_this$ = -16						; size = 4
__$EHRec$ = -12						; size = 12
??1OBJECTSTRUCT@@QAE@XZ PROC				; OBJECTSTRUCT::~OBJECTSTRUCT, COMDAT
; _this$ = ecx
  00000	55		 push	 ebp
  00001	8b ec		 mov	 ebp, esp
  00003	6a ff		 push	 -1
  00005	68 00 00 00 00	 push	 __ehhandler$??1OBJECTSTRUCT@@QAE@XZ
  0000a	64 a1 00 00 00
	00		 mov	 eax, DWORD PTR fs:0
  00010	50		 push	 eax
  00011	51		 push	 ecx
  00012	56		 push	 esi
  00013	a1 00 00 00 00	 mov	 eax, DWORD PTR ___security_cookie
  00018	33 c5		 xor	 eax, ebp
  0001a	50		 push	 eax
  0001b	8d 45 f4	 lea	 eax, DWORD PTR __$EHRec$[ebp]
  0001e	64 a3 00 00 00
	00		 mov	 DWORD PTR fs:0, eax
  00024	8b f1		 mov	 esi, ecx
  00026	89 75 f0	 mov	 DWORD PTR _this$[ebp], esi
  00029	8d 8e ec 20 00
	00		 lea	 ecx, DWORD PTR [esi+8428]
  0002f	c7 45 fc 00 00
	00 00		 mov	 DWORD PTR __$EHRec$[ebp+8], 0
  00036	e8 00 00 00 00	 call	 ??1TMonsterAIAgro@@UAE@XZ ; TMonsterAIAgro::~TMonsterAIAgro
  0003b	8d 8e 0c 16 00
	00		 lea	 ecx, DWORD PTR [esi+5644]
  00041	c7 45 fc ff ff
	ff ff		 mov	 DWORD PTR __$EHRec$[ebp+8], -1
  00048	e8 00 00 00 00	 call	 ??1CSkillDelay@@UAE@XZ	; CSkillDelay::~CSkillDelay
  0004d	8b 4d f4	 mov	 ecx, DWORD PTR __$EHRec$[ebp]
  00050	64 89 0d 00 00
	00 00		 mov	 DWORD PTR fs:0, ecx
  00057	59		 pop	 ecx
  00058	5e		 pop	 esi
  00059	8b e5		 mov	 esp, ebp
  0005b	5d		 pop	 ebp
  0005c	c3		 ret	 0
_TEXT	ENDS
;	COMDAT text$x
text$x	SEGMENT
__unwindfunclet$??1OBJECTSTRUCT@@QAE@XZ$0:
  00000	8b 4d f0	 mov	 ecx, DWORD PTR _this$[ebp]
  00003	81 c1 0c 16 00
	00		 add	 ecx, 5644		; 0000160cH
  00009	e9 00 00 00 00	 jmp	 ??1CSkillDelay@@UAE@XZ	; CSkillDelay::~CSkillDelay
__ehhandler$??1OBJECTSTRUCT@@QAE@XZ:
  0000e	8b 54 24 08	 mov	 edx, DWORD PTR [esp+8]
  00012	8d 42 0c	 lea	 eax, DWORD PTR [edx+12]
  00015	8b 4a f4	 mov	 ecx, DWORD PTR [edx-12]
  00018	33 c8		 xor	 ecx, eax
  0001a	e8 00 00 00 00	 call	 @__security_check_cookie@4
  0001f	b8 00 00 00 00	 mov	 eax, OFFSET __ehfuncinfo$??1OBJECTSTRUCT@@QAE@XZ
  00024	e9 00 00 00 00	 jmp	 ___CxxFrameHandler3
text$x	ENDS
??1OBJECTSTRUCT@@QAE@XZ ENDP				; OBJECTSTRUCT::~OBJECTSTRUCT
PUBLIC	??0_tagPMSG_ARCA_BATTLE_OBELISK_INFO@@QAE@XZ	; _tagPMSG_ARCA_BATTLE_OBELISK_INFO::_tagPMSG_ARCA_BATTLE_OBELISK_INFO
; Function compile flags: /Ogtp
; File c:\muserver_dev\development\mu-s8ep2-repack\gameserver\source\arcabattleprotocol.h
;	COMDAT ??0_tagPMSG_ARCA_BATTLE_OBELISK_INFO@@QAE@XZ
_TEXT	SEGMENT
??0_tagPMSG_ARCA_BATTLE_OBELISK_INFO@@QAE@XZ PROC	; _tagPMSG_ARCA_BATTLE_OBELISK_INFO::_tagPMSG_ARCA_BATTLE_OBELISK_INFO, COMDAT
; _this$ = ecx

; 38   : 	{

  00000	8b c1		 mov	 eax, ecx

; 39   : 		this->m_btObeliskAttribute = 0;

  00002	33 c9		 xor	 ecx, ecx
  00004	88 48 04	 mov	 BYTE PTR [eax+4], cl

; 40   : 		// ----
; 41   : 		for( int i = 0; i < 3; i++ )
; 42   : 		{
; 43   : 			this->m_btAuraState[i] = 0;

  00007	66 89 48 05	 mov	 WORD PTR [eax+5], cx
  0000b	88 48 07	 mov	 BYTE PTR [eax+7], cl

; 44   : 		}
; 45   : 	};

  0000e	c3		 ret	 0
??0_tagPMSG_ARCA_BATTLE_OBELISK_INFO@@QAE@XZ ENDP	; _tagPMSG_ARCA_BATTLE_OBELISK_INFO::_tagPMSG_ARCA_BATTLE_OBELISK_INFO
_TEXT	ENDS
PUBLIC	??0_tagPMSG_ARCA_BATTLE_STATE@@QAE@XZ		; _tagPMSG_ARCA_BATTLE_STATE::_tagPMSG_ARCA_BATTLE_STATE
; Function compile flags: /Ogtp
;	COMDAT ??0_tagPMSG_ARCA_BATTLE_STATE@@QAE@XZ
_TEXT	SEGMENT
??0_tagPMSG_ARCA_BATTLE_STATE@@QAE@XZ PROC		; _tagPMSG_ARCA_BATTLE_STATE::_tagPMSG_ARCA_BATTLE_STATE, COMDAT
; _this$ = ecx

; 55   : 	{

  00000	8b c1		 mov	 eax, ecx

; 56   : 		this->m_btArcaBattleState = 0;

  00002	c6 40 04 00	 mov	 BYTE PTR [eax+4], 0

; 57   : 	};

  00006	c3		 ret	 0
??0_tagPMSG_ARCA_BATTLE_STATE@@QAE@XZ ENDP		; _tagPMSG_ARCA_BATTLE_STATE::_tagPMSG_ARCA_BATTLE_STATE
_TEXT	ENDS
PUBLIC	??0_stAuraInfo@@QAE@XZ				; _stAuraInfo::_stAuraInfo
; Function compile flags: /Ogtp
;	COMDAT ??0_stAuraInfo@@QAE@XZ
_TEXT	SEGMENT
??0_stAuraInfo@@QAE@XZ PROC				; _stAuraInfo::_stAuraInfo, COMDAT
; _this$ = ecx

; 67   : 	{

  00000	8b c1		 mov	 eax, ecx

; 68   : 		this->m_iAuraPosX = -1;

  00002	c7 00 ff ff ff
	ff		 mov	 DWORD PTR [eax], -1

; 69   : 		this->m_iAuraPosY = -1;

  00008	c7 40 04 ff ff
	ff ff		 mov	 DWORD PTR [eax+4], -1

; 70   : 	};

  0000f	c3		 ret	 0
??0_stAuraInfo@@QAE@XZ ENDP				; _stAuraInfo::_stAuraInfo
_TEXT	ENDS
PUBLIC	??_H@YGXPAXIHP6EPAX0@Z@Z			; `vector constructor iterator'
; Function compile flags: /Ogtp
;	COMDAT ??_H@YGXPAXIHP6EPAX0@Z@Z
_TEXT	SEGMENT
___t$ = 8						; size = 4
___s$ = 12						; size = 4
___n$ = 16						; size = 4
___f$ = 20						; size = 4
??_H@YGXPAXIHP6EPAX0@Z@Z PROC				; `vector constructor iterator', COMDAT
  00000	55		 push	 ebp
  00001	8b ec		 mov	 ebp, esp
  00003	57		 push	 edi
  00004	8b 7d 10	 mov	 edi, DWORD PTR ___n$[ebp]
  00007	4f		 dec	 edi
  00008	78 14		 js	 SHORT $LN1@vector
  0000a	53		 push	 ebx
  0000b	8b 5d 14	 mov	 ebx, DWORD PTR ___f$[ebp]
  0000e	56		 push	 esi
  0000f	8b 75 08	 mov	 esi, DWORD PTR ___t$[ebp]
$LL2@vector:
  00012	8b ce		 mov	 ecx, esi
  00014	ff d3		 call	 ebx
  00016	03 75 0c	 add	 esi, DWORD PTR ___s$[ebp]
  00019	4f		 dec	 edi
  0001a	79 f6		 jns	 SHORT $LL2@vector
  0001c	5e		 pop	 esi
  0001d	5b		 pop	 ebx
$LN1@vector:
  0001e	5f		 pop	 edi
  0001f	5d		 pop	 ebp
  00020	c2 10 00	 ret	 16			; 00000010H
??_H@YGXPAXIHP6EPAX0@Z@Z ENDP				; `vector constructor iterator'
_TEXT	ENDS
PUBLIC	??0_stABObeliskOccupy@@QAE@XZ			; _stABObeliskOccupy::_stABObeliskOccupy
; Function compile flags: /Ogtp
;	COMDAT ??0_stABObeliskOccupy@@QAE@XZ
_TEXT	SEGMENT
??0_stABObeliskOccupy@@QAE@XZ PROC			; _stABObeliskOccupy::_stABObeliskOccupy, COMDAT
; _this$ = ecx

; 113  : 	{

  00000	8b c1		 mov	 eax, ecx

; 114  : 		this->wObeliskKind = 0;

  00002	33 c9		 xor	 ecx, ecx
  00004	66 89 08	 mov	 WORD PTR [eax], cx

; 115  : 		memset(this->szGuildName, 0, 9);

  00007	89 48 02	 mov	 DWORD PTR [eax+2], ecx
  0000a	89 48 06	 mov	 DWORD PTR [eax+6], ecx
  0000d	88 48 0a	 mov	 BYTE PTR [eax+10], cl

; 116  : 	};

  00010	c3		 ret	 0
??0_stABObeliskOccupy@@QAE@XZ ENDP			; _stABObeliskOccupy::_stABObeliskOccupy
_TEXT	ENDS
PUBLIC	??0_stObeliskLife@@QAE@XZ			; _stObeliskLife::_stObeliskLife
; Function compile flags: /Ogtp
;	COMDAT ??0_stObeliskLife@@QAE@XZ
_TEXT	SEGMENT
??0_stObeliskLife@@QAE@XZ PROC				; _stObeliskLife::_stObeliskLife, COMDAT
; _this$ = ecx

; 126  : 	{

  00000	8b c1		 mov	 eax, ecx

; 127  : 		this->btLife		= 0;

  00002	66 c7 00 00 00	 mov	 WORD PTR [eax], 0

; 128  : 		this->btAttribute	= 0;
; 129  : 	};

  00007	c3		 ret	 0
??0_stObeliskLife@@QAE@XZ ENDP				; _stObeliskLife::_stObeliskLife
_TEXT	ENDS
PUBLIC	??0_stABWinGuildInfoDS@@QAE@XZ			; _stABWinGuildInfoDS::_stABWinGuildInfoDS
; Function compile flags: /Ogtp
;	COMDAT ??0_stABWinGuildInfoDS@@QAE@XZ
_TEXT	SEGMENT
??0_stABWinGuildInfoDS@@QAE@XZ PROC			; _stABWinGuildInfoDS::_stABWinGuildInfoDS, COMDAT
; _this$ = ecx

; 207  : 	{

  00000	8b c1		 mov	 eax, ecx

; 208  : 		memset(this->szGuildName, 0, 9);

  00002	33 c9		 xor	 ecx, ecx
  00004	89 08		 mov	 DWORD PTR [eax], ecx
  00006	89 48 04	 mov	 DWORD PTR [eax+4], ecx
  00009	88 48 08	 mov	 BYTE PTR [eax+8], cl

; 209  : 		this->dwGuild			= 0;

  0000c	89 48 0c	 mov	 DWORD PTR [eax+12], ecx

; 210  : 		this->wOccupyObelisk	= 0;

  0000f	89 48 10	 mov	 DWORD PTR [eax+16], ecx

; 211  : 		this->wObeliskGroup		= 0;
; 212  : 	};

  00012	c3		 ret	 0
??0_stABWinGuildInfoDS@@QAE@XZ ENDP			; _stABWinGuildInfoDS::_stABWinGuildInfoDS
_TEXT	ENDS
PUBLIC	??0_tagPMSG_REQ_AB_WIN_GUILD_INFO_INSERT_DS@@QAE@XZ ; _tagPMSG_REQ_AB_WIN_GUILD_INFO_INSERT_DS::_tagPMSG_REQ_AB_WIN_GUILD_INFO_INSERT_DS
; Function compile flags: /Ogtp
;	COMDAT ??0_tagPMSG_REQ_AB_WIN_GUILD_INFO_INSERT_DS@@QAE@XZ
_TEXT	SEGMENT
??0_tagPMSG_REQ_AB_WIN_GUILD_INFO_INSERT_DS@@QAE@XZ PROC ; _tagPMSG_REQ_AB_WIN_GUILD_INFO_INSERT_DS::_tagPMSG_REQ_AB_WIN_GUILD_INFO_INSERT_DS, COMDAT
; _this$ = ecx

; 224  : 	{

  00000	53		 push	 ebx
  00001	8b c1		 mov	 eax, ecx
  00003	56		 push	 esi
  00004	8d 50 08	 lea	 edx, DWORD PTR [eax+8]
  00007	be 04 00 00 00	 mov	 esi, 4
  0000c	33 db		 xor	 ebx, ebx
  0000e	8b ff		 npad	 2
$LL4@tagPMSG_RE:
  00010	89 1a		 mov	 DWORD PTR [edx], ebx
  00012	89 5a 04	 mov	 DWORD PTR [edx+4], ebx
  00015	88 5a 08	 mov	 BYTE PTR [edx+8], bl
  00018	33 c9		 xor	 ecx, ecx
  0001a	89 5a 0c	 mov	 DWORD PTR [edx+12], ebx
  0001d	66 89 4a 10	 mov	 WORD PTR [edx+16], cx
  00021	66 89 4a 12	 mov	 WORD PTR [edx+18], cx
  00025	83 c2 14	 add	 edx, 20			; 00000014H
  00028	4e		 dec	 esi
  00029	79 e5		 jns	 SHORT $LL4@tagPMSG_RE

; 225  : 		this->btGuildCnt = 0;
; 226  : 		this->wMapSvrNum = 0;

  0002b	33 d2		 xor	 edx, edx
  0002d	5e		 pop	 esi
  0002e	88 58 04	 mov	 BYTE PTR [eax+4], bl
  00031	66 89 50 06	 mov	 WORD PTR [eax+6], dx
  00035	5b		 pop	 ebx

; 227  : 	};

  00036	c3		 ret	 0
??0_tagPMSG_REQ_AB_WIN_GUILD_INFO_INSERT_DS@@QAE@XZ ENDP ; _tagPMSG_REQ_AB_WIN_GUILD_INFO_INSERT_DS::_tagPMSG_REQ_AB_WIN_GUILD_INFO_INSERT_DS
_TEXT	ENDS
PUBLIC	??0_tagPMSG_REQ_AB_WIN_GUILD_INFO_DS@@QAE@XZ	; _tagPMSG_REQ_AB_WIN_GUILD_INFO_DS::_tagPMSG_REQ_AB_WIN_GUILD_INFO_DS
; Function compile flags: /Ogtp
;	COMDAT ??0_tagPMSG_REQ_AB_WIN_GUILD_INFO_DS@@QAE@XZ
_TEXT	SEGMENT
??0_tagPMSG_REQ_AB_WIN_GUILD_INFO_DS@@QAE@XZ PROC	; _tagPMSG_REQ_AB_WIN_GUILD_INFO_DS::_tagPMSG_REQ_AB_WIN_GUILD_INFO_DS, COMDAT
; _this$ = ecx

; 237  : 	{

  00000	8b c1		 mov	 eax, ecx

; 238  : 		this->wNumber = 0;

  00002	33 c9		 xor	 ecx, ecx
  00004	66 89 48 04	 mov	 WORD PTR [eax+4], cx

; 239  : 	};

  00008	c3		 ret	 0
??0_tagPMSG_REQ_AB_WIN_GUILD_INFO_DS@@QAE@XZ ENDP	; _tagPMSG_REQ_AB_WIN_GUILD_INFO_DS::_tagPMSG_REQ_AB_WIN_GUILD_INFO_DS
_TEXT	ENDS
PUBLIC	?Clear@_stABAcquiredPoints@@QAEXXZ		; _stABAcquiredPoints::Clear
; Function compile flags: /Ogtp
; File c:\muserver_dev\development\mu-s8ep2-repack\gameserver\source\arcabattle.h
;	COMDAT ?Clear@_stABAcquiredPoints@@QAEXXZ
_TEXT	SEGMENT
?Clear@_stABAcquiredPoints@@QAEXXZ PROC			; _stABAcquiredPoints::Clear, COMDAT
; _this$ = ecx

; 90   : 		this->dwBootyCnt			= 0;

  00000	33 c0		 xor	 eax, eax
  00002	89 01		 mov	 DWORD PTR [ecx], eax

; 91   : 		this->dwContributePoints	= 0;

  00004	89 41 04	 mov	 DWORD PTR [ecx+4], eax

; 92   : 		this->dwKillPoints			= 0;

  00007	89 41 08	 mov	 DWORD PTR [ecx+8], eax

; 93   : 	};

  0000a	c3		 ret	 0
?Clear@_stABAcquiredPoints@@QAEXXZ ENDP			; _stABAcquiredPoints::Clear
_TEXT	ENDS
PUBLIC	?Clear@_tagArcaBattleUserInfo@@QAEXXZ		; _tagArcaBattleUserInfo::Clear
; Function compile flags: /Ogtp
;	COMDAT ?Clear@_tagArcaBattleUserInfo@@QAEXXZ
_TEXT	SEGMENT
?Clear@_tagArcaBattleUserInfo@@QAEXXZ PROC		; _tagArcaBattleUserInfo::Clear, COMDAT
; _this$ = ecx

; 111  : 		memset(this->szCharName, 0, 11);

  00000	33 c0		 xor	 eax, eax
  00002	89 01		 mov	 DWORD PTR [ecx], eax
  00004	89 41 04	 mov	 DWORD PTR [ecx+4], eax
  00007	66 89 41 08	 mov	 WORD PTR [ecx+8], ax
  0000b	66 89 41 0a	 mov	 WORD PTR [ecx+10], ax

; 112  : 		this->bBootyDrop = 0;
; 113  : 		this->m_stAcquiredPoints.Clear();

  0000f	89 41 0c	 mov	 DWORD PTR [ecx+12], eax
  00012	89 41 10	 mov	 DWORD PTR [ecx+16], eax
  00015	89 41 14	 mov	 DWORD PTR [ecx+20], eax

; 114  : 	};

  00018	c3		 ret	 0
?Clear@_tagArcaBattleUserInfo@@QAEXXZ ENDP		; _tagArcaBattleUserInfo::Clear
_TEXT	ENDS
PUBLIC	??0_stABWinGuildInfo@@QAE@XZ			; _stABWinGuildInfo::_stABWinGuildInfo
; Function compile flags: /Ogtp
;	COMDAT ??0_stABWinGuildInfo@@QAE@XZ
_TEXT	SEGMENT
??0_stABWinGuildInfo@@QAE@XZ PROC			; _stABWinGuildInfo::_stABWinGuildInfo, COMDAT
; _this$ = ecx

; 126  : 	{

  00000	8b c1		 mov	 eax, ecx

; 127  : 		memset(this->szGuildName, 0, 9);

  00002	33 c9		 xor	 ecx, ecx
  00004	89 08		 mov	 DWORD PTR [eax], ecx
  00006	89 48 04	 mov	 DWORD PTR [eax+4], ecx
  00009	88 48 08	 mov	 BYTE PTR [eax+8], cl

; 128  : 		this->dwGuild			= 0;

  0000c	89 48 0c	 mov	 DWORD PTR [eax+12], ecx

; 129  : 		this->wOccupyObelisk	= 0;

  0000f	89 48 10	 mov	 DWORD PTR [eax+16], ecx

; 130  : 		this->wObeliskGroup		= 0;
; 131  : 	};

  00012	c3		 ret	 0
??0_stABWinGuildInfo@@QAE@XZ ENDP			; _stABWinGuildInfo::_stABWinGuildInfo
_TEXT	ENDS
PUBLIC	?Clear@_stABWinGuildInfo@@QAEXXZ		; _stABWinGuildInfo::Clear
; Function compile flags: /Ogtp
;	COMDAT ?Clear@_stABWinGuildInfo@@QAEXXZ
_TEXT	SEGMENT
?Clear@_stABWinGuildInfo@@QAEXXZ PROC			; _stABWinGuildInfo::Clear, COMDAT
; _this$ = ecx

; 135  : 		memset(this->szGuildName, 0, 9);

  00000	33 c0		 xor	 eax, eax
  00002	89 01		 mov	 DWORD PTR [ecx], eax
  00004	89 41 04	 mov	 DWORD PTR [ecx+4], eax
  00007	88 41 08	 mov	 BYTE PTR [ecx+8], al

; 136  : 		this->dwGuild			= 0;

  0000a	89 41 0c	 mov	 DWORD PTR [ecx+12], eax

; 137  : 		this->wOccupyObelisk	= 0;

  0000d	89 41 10	 mov	 DWORD PTR [ecx+16], eax

; 138  : 		this->wObeliskGroup		= 0;
; 139  : 	};

  00010	c3		 ret	 0
?Clear@_stABWinGuildInfo@@QAEXXZ ENDP			; _stABWinGuildInfo::Clear
_TEXT	ENDS
PUBLIC	??0_tagARCA_BATTLE_BOOTY_REWARD@@QAE@XZ		; _tagARCA_BATTLE_BOOTY_REWARD::_tagARCA_BATTLE_BOOTY_REWARD
; Function compile flags: /Ogtp
;	COMDAT ??0_tagARCA_BATTLE_BOOTY_REWARD@@QAE@XZ
_TEXT	SEGMENT
??0_tagARCA_BATTLE_BOOTY_REWARD@@QAE@XZ PROC		; _tagARCA_BATTLE_BOOTY_REWARD::_tagARCA_BATTLE_BOOTY_REWARD, COMDAT
; _this$ = ecx

; 153  : 	{

  00000	8b c1		 mov	 eax, ecx

; 154  : 		this->iItemLink		= 0;

  00002	33 c9		 xor	 ecx, ecx
  00004	89 08		 mov	 DWORD PTR [eax], ecx

; 155  : 		this->iItemType		= 0;

  00006	89 48 04	 mov	 DWORD PTR [eax+4], ecx

; 156  : 		this->iItemIndex	= 0;

  00009	89 48 08	 mov	 DWORD PTR [eax+8], ecx

; 157  : 		this->iItemLevel	= 0;

  0000c	89 48 0c	 mov	 DWORD PTR [eax+12], ecx

; 158  : 		this->iDurab		= 0;

  0000f	89 48 10	 mov	 DWORD PTR [eax+16], ecx

; 159  : 		this->iRate			= 0;

  00012	89 48 14	 mov	 DWORD PTR [eax+20], ecx

; 160  : 	};

  00015	c3		 ret	 0
??0_tagARCA_BATTLE_BOOTY_REWARD@@QAE@XZ ENDP		; _tagARCA_BATTLE_BOOTY_REWARD::_tagARCA_BATTLE_BOOTY_REWARD
_TEXT	ENDS
PUBLIC	??0_tagARCA_BATTLE_BOOTY_MIX@@QAE@XZ		; _tagARCA_BATTLE_BOOTY_MIX::_tagARCA_BATTLE_BOOTY_MIX
; Function compile flags: /Ogtp
;	COMDAT ??0_tagARCA_BATTLE_BOOTY_MIX@@QAE@XZ
_TEXT	SEGMENT
??0_tagARCA_BATTLE_BOOTY_MIX@@QAE@XZ PROC		; _tagARCA_BATTLE_BOOTY_MIX::_tagARCA_BATTLE_BOOTY_MIX, COMDAT
; _this$ = ecx

; 175  : 	{

  00000	8b c1		 mov	 eax, ecx
  00002	56		 push	 esi
  00003	8d 50 18	 lea	 edx, DWORD PTR [eax+24]
  00006	b9 13 00 00 00	 mov	 ecx, 19			; 00000013H
  0000b	33 f6		 xor	 esi, esi
  0000d	8d 49 00	 npad	 3
$LL4@tagARCA_BA:
  00010	89 32		 mov	 DWORD PTR [edx], esi
  00012	89 72 04	 mov	 DWORD PTR [edx+4], esi
  00015	89 72 08	 mov	 DWORD PTR [edx+8], esi
  00018	89 72 0c	 mov	 DWORD PTR [edx+12], esi
  0001b	89 72 10	 mov	 DWORD PTR [edx+16], esi
  0001e	89 72 14	 mov	 DWORD PTR [edx+20], esi
  00021	83 c2 18	 add	 edx, 24			; 00000018H
  00024	49		 dec	 ecx
  00025	79 e9		 jns	 SHORT $LL4@tagARCA_BA

; 176  : 		this->iItemLink			= 0;

  00027	89 30		 mov	 DWORD PTR [eax], esi

; 177  : 		this->iMinCnt			= 0;

  00029	89 70 04	 mov	 DWORD PTR [eax+4], esi

; 178  : 		this->iMaxCnt			= 0;

  0002c	89 70 08	 mov	 DWORD PTR [eax+8], esi

; 179  : 		this->iBaseRate			= 0;

  0002f	89 70 0c	 mov	 DWORD PTR [eax+12], esi

; 180  : 		this->iAddRate			= 0;

  00032	89 70 10	 mov	 DWORD PTR [eax+16], esi

; 181  : 		this->iBootyRewardCnt	= 0;

  00035	89 70 14	 mov	 DWORD PTR [eax+20], esi
  00038	5e		 pop	 esi

; 182  : 	};

  00039	c3		 ret	 0
??0_tagARCA_BATTLE_BOOTY_MIX@@QAE@XZ ENDP		; _tagARCA_BATTLE_BOOTY_MIX::_tagARCA_BATTLE_BOOTY_MIX
_TEXT	ENDS
PUBLIC	??0_tagAURA_INFO@@QAE@XZ			; _tagAURA_INFO::_tagAURA_INFO
; Function compile flags: /Ogtp
;	COMDAT ??0_tagAURA_INFO@@QAE@XZ
_TEXT	SEGMENT
??0_tagAURA_INFO@@QAE@XZ PROC				; _tagAURA_INFO::_tagAURA_INFO, COMDAT
; _this$ = ecx

; 209  : 	{

  00000	8b c1		 mov	 eax, ecx

; 210  : 		this->m_iMapIndex		= -1;

  00002	83 c9 ff	 or	 ecx, -1
  00005	89 48 04	 mov	 DWORD PTR [eax+4], ecx

; 211  : 		this->m_iGroupNumber	= -1;

  00008	89 08		 mov	 DWORD PTR [eax], ecx

; 212  : 		this->m_iAuraPosX		= -1;

  0000a	89 48 08	 mov	 DWORD PTR [eax+8], ecx

; 213  : 		this->m_iAuraPosY		= -1;

  0000d	89 48 0c	 mov	 DWORD PTR [eax+12], ecx

; 214  : 	};

  00010	c3		 ret	 0
??0_tagAURA_INFO@@QAE@XZ ENDP				; _tagAURA_INFO::_tagAURA_INFO
_TEXT	ENDS
PUBLIC	??0_tagOBELISK_INFO@@QAE@XZ			; _tagOBELISK_INFO::_tagOBELISK_INFO
EXTRN	_memset:PROC
; Function compile flags: /Ogtp
;	COMDAT ??0_tagOBELISK_INFO@@QAE@XZ
_TEXT	SEGMENT
??0_tagOBELISK_INFO@@QAE@XZ PROC			; _tagOBELISK_INFO::_tagOBELISK_INFO, COMDAT
; _this$ = ecx

; 233  : 	{

  00000	56		 push	 esi
  00001	8b f1		 mov	 esi, ecx
  00003	83 c9 ff	 or	 ecx, -1
  00006	8d 46 28	 lea	 eax, DWORD PTR [esi+40]
  00009	89 48 04	 mov	 DWORD PTR [eax+4], ecx
  0000c	89 08		 mov	 DWORD PTR [eax], ecx
  0000e	89 48 08	 mov	 DWORD PTR [eax+8], ecx
  00011	89 48 0c	 mov	 DWORD PTR [eax+12], ecx
  00014	89 48 14	 mov	 DWORD PTR [eax+20], ecx
  00017	89 48 10	 mov	 DWORD PTR [eax+16], ecx
  0001a	89 48 18	 mov	 DWORD PTR [eax+24], ecx
  0001d	89 48 1c	 mov	 DWORD PTR [eax+28], ecx
  00020	89 48 24	 mov	 DWORD PTR [eax+36], ecx
  00023	89 48 20	 mov	 DWORD PTR [eax+32], ecx
  00026	89 48 28	 mov	 DWORD PTR [eax+40], ecx
  00029	89 48 2c	 mov	 DWORD PTR [eax+44], ecx

; 234  : 		this->m_iGroupNumber	= 0;

  0002c	33 d2		 xor	 edx, edx

; 235  : 		this->m_iAttrKind		= 0;
; 236  : 		this->m_iMapIndex		= -1;
; 237  : 		this->m_iHP				= 0;
; 238  : 		this->m_iOccupyHP		= 0;
; 239  : 		this->m_iPosX			= -1;
; 240  : 		this->m_iPosY			= -1;
; 241  : 		this->m_iMonsterNum		= 0;
; 242  : 		this->m_dwTick			= 0;
; 243  : 		this->m_dwRegenTime		= 0;
; 244  : 		memset(this->m_stAuraInfo, -1, 48);	//sizeof(m_stAuraInfo)?

  0002e	6a 30		 push	 48			; 00000030H
  00030	51		 push	 ecx
  00031	50		 push	 eax
  00032	89 16		 mov	 DWORD PTR [esi], edx
  00034	89 56 04	 mov	 DWORD PTR [esi+4], edx
  00037	89 4e 10	 mov	 DWORD PTR [esi+16], ecx
  0003a	89 56 08	 mov	 DWORD PTR [esi+8], edx
  0003d	89 56 0c	 mov	 DWORD PTR [esi+12], edx
  00040	89 4e 14	 mov	 DWORD PTR [esi+20], ecx
  00043	89 4e 18	 mov	 DWORD PTR [esi+24], ecx
  00046	89 56 1c	 mov	 DWORD PTR [esi+28], edx
  00049	89 56 20	 mov	 DWORD PTR [esi+32], edx
  0004c	89 56 24	 mov	 DWORD PTR [esi+36], edx
  0004f	e8 00 00 00 00	 call	 _memset
  00054	83 c4 0c	 add	 esp, 12			; 0000000cH

; 245  : 	};

  00057	8b c6		 mov	 eax, esi
  00059	5e		 pop	 esi
  0005a	c3		 ret	 0
??0_tagOBELISK_INFO@@QAE@XZ ENDP			; _tagOBELISK_INFO::_tagOBELISK_INFO
_TEXT	ENDS
PUBLIC	??0_tagAURA_STATE@@QAE@XZ			; _tagAURA_STATE::_tagAURA_STATE
; Function compile flags: /Ogtp
;	COMDAT ??0_tagAURA_STATE@@QAE@XZ
_TEXT	SEGMENT
??0_tagAURA_STATE@@QAE@XZ PROC				; _tagAURA_STATE::_tagAURA_STATE, COMDAT
; _this$ = ecx

; 257  : 	{

  00000	8b c1		 mov	 eax, ecx

; 258  : 		this->m_iGroupNumber	= -1;
; 259  : 		this->m_btAuraState		= 0;

  00002	33 c9		 xor	 ecx, ecx
  00004	c7 00 ff ff ff
	ff		 mov	 DWORD PTR [eax], -1
  0000a	88 48 04	 mov	 BYTE PTR [eax+4], cl

; 260  : 		this->m_iHoverUserIndex = 0;

  0000d	89 48 08	 mov	 DWORD PTR [eax+8], ecx

; 261  : 		this->m_iIndex			= -1;

  00010	c7 40 0c ff ff
	ff ff		 mov	 DWORD PTR [eax+12], -1

; 262  : 	};

  00017	c3		 ret	 0
??0_tagAURA_STATE@@QAE@XZ ENDP				; _tagAURA_STATE::_tagAURA_STATE
_TEXT	ENDS
PUBLIC	??0_tagOBELISK_STATE@@QAE@XZ			; _tagOBELISK_STATE::_tagOBELISK_STATE
; Function compile flags: /Ogtp
;	COMDAT ??0_tagOBELISK_STATE@@QAE@XZ
_TEXT	SEGMENT
??0_tagOBELISK_STATE@@QAE@XZ PROC			; _tagOBELISK_STATE::_tagOBELISK_STATE, COMDAT
; _this$ = ecx

; 278  : 	{

  00000	83 ca ff	 or	 edx, -1
  00003	56		 push	 esi
  00004	8b f1		 mov	 esi, ecx
  00006	8d 46 24	 lea	 eax, DWORD PTR [esi+36]
  00009	33 c9		 xor	 ecx, ecx
  0000b	89 10		 mov	 DWORD PTR [eax], edx
  0000d	88 48 04	 mov	 BYTE PTR [eax+4], cl
  00010	89 48 08	 mov	 DWORD PTR [eax+8], ecx
  00013	89 50 0c	 mov	 DWORD PTR [eax+12], edx
  00016	89 50 10	 mov	 DWORD PTR [eax+16], edx
  00019	88 48 14	 mov	 BYTE PTR [eax+20], cl
  0001c	89 48 18	 mov	 DWORD PTR [eax+24], ecx
  0001f	89 50 1c	 mov	 DWORD PTR [eax+28], edx
  00022	89 50 20	 mov	 DWORD PTR [eax+32], edx
  00025	88 48 24	 mov	 BYTE PTR [eax+36], cl
  00028	89 48 28	 mov	 DWORD PTR [eax+40], ecx
  0002b	89 50 2c	 mov	 DWORD PTR [eax+44], edx

; 279  : 		this->m_iGroupNumber			= -1;

  0002e	89 16		 mov	 DWORD PTR [esi], edx

; 280  : 		this->m_iMonIndex				= -1;

  00030	89 56 04	 mov	 DWORD PTR [esi+4], edx

; 281  : 		this->m_iAuraState				= 0;

  00033	89 4e 08	 mov	 DWORD PTR [esi+8], ecx

; 282  : 		this->m_iAuraReleaseGuildNum	= -1;

  00036	89 56 0c	 mov	 DWORD PTR [esi+12], edx

; 283  : 		this->m_iOccupyGuildNum			= -1;

  00039	89 56 14	 mov	 DWORD PTR [esi+20], edx

; 284  : 		this->m_iObeliskState			= 0;

  0003c	89 4e 10	 mov	 DWORD PTR [esi+16], ecx

; 285  : 		memset(this->m_szOccupyGuildName, 0, 9);
; 286  : 		memset(this->m_stAuraState, -1, 48);

  0003f	6a 30		 push	 48			; 00000030H
  00041	89 4e 18	 mov	 DWORD PTR [esi+24], ecx
  00044	52		 push	 edx
  00045	89 4e 1c	 mov	 DWORD PTR [esi+28], ecx
  00048	50		 push	 eax
  00049	88 4e 20	 mov	 BYTE PTR [esi+32], cl
  0004c	e8 00 00 00 00	 call	 _memset
  00051	83 c4 0c	 add	 esp, 12			; 0000000cH

; 287  : 	};

  00054	8b c6		 mov	 eax, esi
  00056	5e		 pop	 esi
  00057	c3		 ret	 0
??0_tagOBELISK_STATE@@QAE@XZ ENDP			; _tagOBELISK_STATE::_tagOBELISK_STATE
_TEXT	ENDS
PUBLIC	?Clear@_tagOBELISK_STATE@@QAEXXZ		; _tagOBELISK_STATE::Clear
; Function compile flags: /Ogtp
;	COMDAT ?Clear@_tagOBELISK_STATE@@QAEXXZ
_TEXT	SEGMENT
?Clear@_tagOBELISK_STATE@@QAEXXZ PROC			; _tagOBELISK_STATE::Clear, COMDAT
; _this$ = ecx

; 291  : 		this->m_iGroupNumber			= -1;

  00000	83 ca ff	 or	 edx, -1

; 292  : 		this->m_iMonIndex				= -1;
; 293  : 		this->m_iAuraState				= 0;

  00003	33 c0		 xor	 eax, eax
  00005	89 11		 mov	 DWORD PTR [ecx], edx
  00007	89 51 04	 mov	 DWORD PTR [ecx+4], edx
  0000a	89 41 08	 mov	 DWORD PTR [ecx+8], eax

; 294  : 		this->m_iAuraReleaseGuildNum	= -1;

  0000d	89 51 0c	 mov	 DWORD PTR [ecx+12], edx

; 295  : 		this->m_iOccupyGuildNum			= -1;

  00010	89 51 14	 mov	 DWORD PTR [ecx+20], edx

; 296  : 		this->m_iObeliskState			= 0;

  00013	89 41 10	 mov	 DWORD PTR [ecx+16], eax

; 297  : 		memset(this->m_szOccupyGuildName, 0, 9);

  00016	89 41 18	 mov	 DWORD PTR [ecx+24], eax
  00019	89 41 1c	 mov	 DWORD PTR [ecx+28], eax

; 298  : 		memset(this->m_stAuraState, -1, 48);

  0001c	6a 30		 push	 48			; 00000030H
  0001e	88 41 20	 mov	 BYTE PTR [ecx+32], al
  00021	52		 push	 edx
  00022	83 c1 24	 add	 ecx, 36			; 00000024H
  00025	51		 push	 ecx
  00026	e8 00 00 00 00	 call	 _memset
  0002b	83 c4 0c	 add	 esp, 12			; 0000000cH

; 299  : 	};

  0002e	c3		 ret	 0
?Clear@_tagOBELISK_STATE@@QAEXXZ ENDP			; _tagOBELISK_STATE::Clear
_TEXT	ENDS
PUBLIC	??0_tagARCA_BATTLE_RESULT_INFO@@QAE@XZ		; _tagARCA_BATTLE_RESULT_INFO::_tagARCA_BATTLE_RESULT_INFO
; Function compile flags: /Ogtp
;	COMDAT ??0_tagARCA_BATTLE_RESULT_INFO@@QAE@XZ
_TEXT	SEGMENT
??0_tagARCA_BATTLE_RESULT_INFO@@QAE@XZ PROC		; _tagARCA_BATTLE_RESULT_INFO::_tagARCA_BATTLE_RESULT_INFO, COMDAT
; _this$ = ecx

; 309  : 	{

  00000	8b c1		 mov	 eax, ecx

; 310  : 		this->iGuildNum			= 0;

  00002	c7 00 00 00 00
	00		 mov	 DWORD PTR [eax], 0

; 311  : 		this->iObeliskAttrKind	= 0;

  00008	c7 40 04 00 00
	00 00		 mov	 DWORD PTR [eax+4], 0

; 312  : 	};

  0000f	c3		 ret	 0
??0_tagARCA_BATTLE_RESULT_INFO@@QAE@XZ ENDP		; _tagARCA_BATTLE_RESULT_INFO::_tagARCA_BATTLE_RESULT_INFO
_TEXT	ENDS
PUBLIC	??0_tagOccupyGuildInfo@@QAE@XZ			; _tagOccupyGuildInfo::_tagOccupyGuildInfo
; Function compile flags: /Ogtp
;	COMDAT ??0_tagOccupyGuildInfo@@QAE@XZ
_TEXT	SEGMENT
??0_tagOccupyGuildInfo@@QAE@XZ PROC			; _tagOccupyGuildInfo::_tagOccupyGuildInfo, COMDAT
; _this$ = ecx

; 324  : 	{

  00000	8b c1		 mov	 eax, ecx

; 325  : 		//Unfilled
; 326  : 	};

  00002	c3		 ret	 0
??0_tagOccupyGuildInfo@@QAE@XZ ENDP			; _tagOccupyGuildInfo::_tagOccupyGuildInfo
_TEXT	ENDS
PUBLIC	??0_stABMonAccountNumInfo@@QAE@XZ		; _stABMonAccountNumInfo::_stABMonAccountNumInfo
; Function compile flags: /Ogtp
;	COMDAT ??0_stABMonAccountNumInfo@@QAE@XZ
_TEXT	SEGMENT
??0_stABMonAccountNumInfo@@QAE@XZ PROC			; _stABMonAccountNumInfo::_stABMonAccountNumInfo, COMDAT
; _this$ = ecx

; 336  : 	{

  00000	8b c1		 mov	 eax, ecx

; 337  : 		this->bItemDrop = 0;

  00002	c6 40 04 00	 mov	 BYTE PTR [eax+4], 0

; 338  : 		this->m_nIndex	= -1;

  00006	c7 00 ff ff ff
	ff		 mov	 DWORD PTR [eax], -1

; 339  : 	};

  0000c	c3		 ret	 0
??0_stABMonAccountNumInfo@@QAE@XZ ENDP			; _stABMonAccountNumInfo::_stABMonAccountNumInfo
_TEXT	ENDS
PUBLIC	??0_stABMonGroupInfo@@QAE@XZ			; _stABMonGroupInfo::_stABMonGroupInfo
; Function compile flags: /Ogtp
;	COMDAT ??0_stABMonGroupInfo@@QAE@XZ
_TEXT	SEGMENT
??0_stABMonGroupInfo@@QAE@XZ PROC			; _stABMonGroupInfo::_stABMonGroupInfo, COMDAT
; _this$ = ecx

; 353  : 	{

  00000	8b c1		 mov	 eax, ecx
  00002	53		 push	 ebx
  00003	8d 50 14	 lea	 edx, DWORD PTR [eax+20]
  00006	b9 fe 00 00 00	 mov	 ecx, 254		; 000000feH
  0000b	33 db		 xor	 ebx, ebx
  0000d	8d 49 00	 npad	 3
$LL4@stABMonGro:
  00010	88 5a 04	 mov	 BYTE PTR [edx+4], bl
  00013	c7 02 ff ff ff
	ff		 mov	 DWORD PTR [edx], -1
  00019	83 c2 08	 add	 edx, 8
  0001c	49		 dec	 ecx
  0001d	79 f1		 jns	 SHORT $LL4@stABMonGro

; 354  : 		this->m_nGroupNumber	= -1;
; 355  : 		this->m_nMapNumber		= -1;
; 356  : 		this->m_nCnt			= 0;

  0001f	89 58 08	 mov	 DWORD PTR [eax+8], ebx

; 357  : 		this->m_nRegenTimeMin	= 0;

  00022	89 58 0c	 mov	 DWORD PTR [eax+12], ebx

; 358  : 		this->m_dwNextRegenTime = 0;

  00025	89 58 10	 mov	 DWORD PTR [eax+16], ebx
  00028	c7 00 ff ff ff
	ff		 mov	 DWORD PTR [eax], -1
  0002e	c7 40 04 ff ff
	ff ff		 mov	 DWORD PTR [eax+4], -1
  00035	5b		 pop	 ebx

; 359  : 	};

  00036	c3		 ret	 0
??0_stABMonGroupInfo@@QAE@XZ ENDP			; _stABMonGroupInfo::_stABMonGroupInfo
_TEXT	ENDS
PUBLIC	??0_stABMonIndexInf@@QAE@XZ			; _stABMonIndexInf::_stABMonIndexInf
; Function compile flags: /Ogtp
;	COMDAT ??0_stABMonIndexInf@@QAE@XZ
_TEXT	SEGMENT
??0_stABMonIndexInf@@QAE@XZ PROC			; _stABMonIndexInf::_stABMonIndexInf, COMDAT
; _this$ = ecx

; 368  : 	{

  00000	8b c1		 mov	 eax, ecx

; 369  : 		this->m_nMonsterIndex = -1;

  00002	c7 00 ff ff ff
	ff		 mov	 DWORD PTR [eax], -1

; 370  : 	};

  00008	c3		 ret	 0
??0_stABMonIndexInf@@QAE@XZ ENDP			; _stABMonIndexInf::_stABMonIndexInf
_TEXT	ENDS
PUBLIC	??0_stABMonRegenArea@@QAE@XZ			; _stABMonRegenArea::_stABMonRegenArea
; Function compile flags: /Ogtp
;	COMDAT ??0_stABMonRegenArea@@QAE@XZ
_TEXT	SEGMENT
??0_stABMonRegenArea@@QAE@XZ PROC			; _stABMonRegenArea::_stABMonRegenArea, COMDAT
; _this$ = ecx

; 382  : 	{

  00000	8b c1		 mov	 eax, ecx

; 383  : 		this->m_nBeginX = -1;

  00002	83 c9 ff	 or	 ecx, -1
  00005	89 08		 mov	 DWORD PTR [eax], ecx

; 384  : 		this->m_nBeginY = -1;

  00007	89 48 04	 mov	 DWORD PTR [eax+4], ecx

; 385  : 		this->m_nEndX	= -1;

  0000a	89 48 08	 mov	 DWORD PTR [eax+8], ecx

; 386  : 		this->m_nEndY	= -1;

  0000d	89 48 0c	 mov	 DWORD PTR [eax+12], ecx

; 387  : 	};

  00010	c3		 ret	 0
??0_stABMonRegenArea@@QAE@XZ ENDP			; _stABMonRegenArea::_stABMonRegenArea
_TEXT	ENDS
PUBLIC	??0_stABMonPosition@@QAE@XZ			; _stABMonPosition::_stABMonPosition
; Function compile flags: /Ogtp
;	COMDAT ??0_stABMonPosition@@QAE@XZ
_TEXT	SEGMENT
??0_stABMonPosition@@QAE@XZ PROC			; _stABMonPosition::_stABMonPosition, COMDAT
; _this$ = ecx

; 400  : 	{

  00000	8b c1		 mov	 eax, ecx
  00002	56		 push	 esi
  00003	8d 50 0c	 lea	 edx, DWORD PTR [eax+12]
  00006	be 31 00 00 00	 mov	 esi, 49			; 00000031H
  0000b	83 c9 ff	 or	 ecx, -1
  0000e	8b ff		 npad	 2
$LL4@stABMonPos:
  00010	89 0a		 mov	 DWORD PTR [edx], ecx
  00012	89 4a 04	 mov	 DWORD PTR [edx+4], ecx
  00015	89 4a 08	 mov	 DWORD PTR [edx+8], ecx
  00018	89 4a 0c	 mov	 DWORD PTR [edx+12], ecx
  0001b	83 c2 10	 add	 edx, 16			; 00000010H
  0001e	4e		 dec	 esi
  0001f	79 ef		 jns	 SHORT $LL4@stABMonPos
  00021	89 88 2c 03 00
	00		 mov	 DWORD PTR [eax+812], ecx
  00027	89 88 30 03 00
	00		 mov	 DWORD PTR [eax+816], ecx
  0002d	89 88 34 03 00
	00		 mov	 DWORD PTR [eax+820], ecx
  00033	89 88 38 03 00
	00		 mov	 DWORD PTR [eax+824], ecx
  00039	89 88 3c 03 00
	00		 mov	 DWORD PTR [eax+828], ecx
  0003f	89 88 40 03 00
	00		 mov	 DWORD PTR [eax+832], ecx
  00045	89 88 44 03 00
	00		 mov	 DWORD PTR [eax+836], ecx
  0004b	89 88 48 03 00
	00		 mov	 DWORD PTR [eax+840], ecx
  00051	89 88 4c 03 00
	00		 mov	 DWORD PTR [eax+844], ecx
  00057	89 88 50 03 00
	00		 mov	 DWORD PTR [eax+848], ecx
  0005d	89 88 54 03 00
	00		 mov	 DWORD PTR [eax+852], ecx
  00063	89 88 58 03 00
	00		 mov	 DWORD PTR [eax+856], ecx
  00069	89 88 5c 03 00
	00		 mov	 DWORD PTR [eax+860], ecx
  0006f	89 88 60 03 00
	00		 mov	 DWORD PTR [eax+864], ecx
  00075	89 88 64 03 00
	00		 mov	 DWORD PTR [eax+868], ecx
  0007b	89 88 68 03 00
	00		 mov	 DWORD PTR [eax+872], ecx
  00081	89 88 6c 03 00
	00		 mov	 DWORD PTR [eax+876], ecx
  00087	89 88 70 03 00
	00		 mov	 DWORD PTR [eax+880], ecx
  0008d	89 88 74 03 00
	00		 mov	 DWORD PTR [eax+884], ecx
  00093	89 88 78 03 00
	00		 mov	 DWORD PTR [eax+888], ecx

; 401  : 		this->m_nGroupNumber	= -1;

  00099	89 08		 mov	 DWORD PTR [eax], ecx

; 402  : 		this->m_nRegenAreaCnt	= 0;

  0009b	c7 40 04 00 00
	00 00		 mov	 DWORD PTR [eax+4], 0
  000a2	5e		 pop	 esi

; 403  : 	};

  000a3	c3		 ret	 0
??0_stABMonPosition@@QAE@XZ ENDP			; _stABMonPosition::_stABMonPosition
_TEXT	ENDS
PUBLIC	??0_tagAB_USER_AREA@@QAE@XZ			; _tagAB_USER_AREA::_tagAB_USER_AREA
; Function compile flags: /Ogtp
;	COMDAT ??0_tagAB_USER_AREA@@QAE@XZ
_TEXT	SEGMENT
??0_tagAB_USER_AREA@@QAE@XZ PROC			; _tagAB_USER_AREA::_tagAB_USER_AREA, COMDAT
; _this$ = ecx

; 416  : 	{

  00000	8b c1		 mov	 eax, ecx

; 417  : 		this->map_number	= -1;

  00002	83 c9 ff	 or	 ecx, -1
  00005	89 08		 mov	 DWORD PTR [eax], ecx

; 418  : 		this->beginX		= -1;

  00007	89 48 04	 mov	 DWORD PTR [eax+4], ecx

; 419  : 		this->beginY		= -1;

  0000a	89 48 08	 mov	 DWORD PTR [eax+8], ecx

; 420  : 		this->endX			= -1;

  0000d	89 48 0c	 mov	 DWORD PTR [eax+12], ecx

; 421  : 		this->endY			= -1;

  00010	89 48 10	 mov	 DWORD PTR [eax+16], ecx

; 422  : 	};

  00013	c3		 ret	 0
??0_tagAB_USER_AREA@@QAE@XZ ENDP			; _tagAB_USER_AREA::_tagAB_USER_AREA
_TEXT	ENDS
PUBLIC	??0_stAB_USER_POSITION@@QAE@XZ			; _stAB_USER_POSITION::_stAB_USER_POSITION
; Function compile flags: /Ogtp
;	COMDAT ??0_stAB_USER_POSITION@@QAE@XZ
_TEXT	SEGMENT
??0_stAB_USER_POSITION@@QAE@XZ PROC			; _stAB_USER_POSITION::_stAB_USER_POSITION, COMDAT
; _this$ = ecx

; 433  : 	{

  00000	8b c1		 mov	 eax, ecx
  00002	83 c9 ff	 or	 ecx, -1
  00005	89 48 08	 mov	 DWORD PTR [eax+8], ecx
  00008	89 48 0c	 mov	 DWORD PTR [eax+12], ecx
  0000b	89 48 10	 mov	 DWORD PTR [eax+16], ecx
  0000e	89 48 14	 mov	 DWORD PTR [eax+20], ecx
  00011	89 48 18	 mov	 DWORD PTR [eax+24], ecx
  00014	89 48 1c	 mov	 DWORD PTR [eax+28], ecx
  00017	89 48 20	 mov	 DWORD PTR [eax+32], ecx
  0001a	89 48 24	 mov	 DWORD PTR [eax+36], ecx
  0001d	89 48 28	 mov	 DWORD PTR [eax+40], ecx
  00020	89 48 2c	 mov	 DWORD PTR [eax+44], ecx
  00023	89 48 30	 mov	 DWORD PTR [eax+48], ecx
  00026	89 48 34	 mov	 DWORD PTR [eax+52], ecx
  00029	89 48 38	 mov	 DWORD PTR [eax+56], ecx
  0002c	89 48 3c	 mov	 DWORD PTR [eax+60], ecx
  0002f	89 48 40	 mov	 DWORD PTR [eax+64], ecx
  00032	89 48 44	 mov	 DWORD PTR [eax+68], ecx
  00035	89 48 48	 mov	 DWORD PTR [eax+72], ecx
  00038	89 48 4c	 mov	 DWORD PTR [eax+76], ecx
  0003b	89 48 50	 mov	 DWORD PTR [eax+80], ecx
  0003e	89 48 54	 mov	 DWORD PTR [eax+84], ecx
  00041	89 48 58	 mov	 DWORD PTR [eax+88], ecx
  00044	89 48 5c	 mov	 DWORD PTR [eax+92], ecx
  00047	89 48 60	 mov	 DWORD PTR [eax+96], ecx
  0004a	89 48 64	 mov	 DWORD PTR [eax+100], ecx
  0004d	89 48 68	 mov	 DWORD PTR [eax+104], ecx
  00050	89 48 6c	 mov	 DWORD PTR [eax+108], ecx
  00053	89 48 70	 mov	 DWORD PTR [eax+112], ecx
  00056	89 48 74	 mov	 DWORD PTR [eax+116], ecx
  00059	89 48 78	 mov	 DWORD PTR [eax+120], ecx
  0005c	89 48 7c	 mov	 DWORD PTR [eax+124], ecx
  0005f	89 88 80 00 00
	00		 mov	 DWORD PTR [eax+128], ecx
  00065	89 88 84 00 00
	00		 mov	 DWORD PTR [eax+132], ecx
  0006b	89 88 88 00 00
	00		 mov	 DWORD PTR [eax+136], ecx
  00071	89 88 8c 00 00
	00		 mov	 DWORD PTR [eax+140], ecx
  00077	89 88 90 00 00
	00		 mov	 DWORD PTR [eax+144], ecx
  0007d	89 88 94 00 00
	00		 mov	 DWORD PTR [eax+148], ecx
  00083	89 88 98 00 00
	00		 mov	 DWORD PTR [eax+152], ecx
  00089	89 88 9c 00 00
	00		 mov	 DWORD PTR [eax+156], ecx
  0008f	89 88 a0 00 00
	00		 mov	 DWORD PTR [eax+160], ecx
  00095	89 88 a4 00 00
	00		 mov	 DWORD PTR [eax+164], ecx
  0009b	89 88 a8 00 00
	00		 mov	 DWORD PTR [eax+168], ecx
  000a1	89 88 ac 00 00
	00		 mov	 DWORD PTR [eax+172], ecx
  000a7	89 88 b0 00 00
	00		 mov	 DWORD PTR [eax+176], ecx
  000ad	89 88 b4 00 00
	00		 mov	 DWORD PTR [eax+180], ecx
  000b3	89 88 b8 00 00
	00		 mov	 DWORD PTR [eax+184], ecx
  000b9	89 88 bc 00 00
	00		 mov	 DWORD PTR [eax+188], ecx
  000bf	89 88 c0 00 00
	00		 mov	 DWORD PTR [eax+192], ecx
  000c5	89 88 c4 00 00
	00		 mov	 DWORD PTR [eax+196], ecx
  000cb	89 88 c8 00 00
	00		 mov	 DWORD PTR [eax+200], ecx
  000d1	89 88 cc 00 00
	00		 mov	 DWORD PTR [eax+204], ecx

; 434  : 		this->group_number	= -1;

  000d7	89 08		 mov	 DWORD PTR [eax], ecx

; 435  : 		this->area_cnt		= 0;

  000d9	c7 40 04 00 00
	00 00		 mov	 DWORD PTR [eax+4], 0

; 436  : 	};

  000e0	c3		 ret	 0
??0_stAB_USER_POSITION@@QAE@XZ ENDP			; _stAB_USER_POSITION::_stAB_USER_POSITION
_TEXT	ENDS
PUBLIC	??0_stAB_GUILD_MASTER_GATE_INFO@@QAE@XZ		; _stAB_GUILD_MASTER_GATE_INFO::_stAB_GUILD_MASTER_GATE_INFO
; Function compile flags: /Ogtp
;	COMDAT ??0_stAB_GUILD_MASTER_GATE_INFO@@QAE@XZ
_TEXT	SEGMENT
??0_stAB_GUILD_MASTER_GATE_INFO@@QAE@XZ PROC		; _stAB_GUILD_MASTER_GATE_INFO::_stAB_GUILD_MASTER_GATE_INFO, COMDAT
; _this$ = ecx

; 446  : 	{

  00000	8b c1		 mov	 eax, ecx

; 447  : 		this->nGuildNum = -1;

  00002	c7 00 ff ff ff
	ff		 mov	 DWORD PTR [eax], -1

; 448  : 		this->nGateNum	= -1;

  00008	c7 40 04 ff ff
	ff ff		 mov	 DWORD PTR [eax+4], -1

; 449  : 	};

  0000f	c3		 ret	 0
??0_stAB_GUILD_MASTER_GATE_INFO@@QAE@XZ ENDP		; _stAB_GUILD_MASTER_GATE_INFO::_stAB_GUILD_MASTER_GATE_INFO
_TEXT	ENDS
PUBLIC	?Clear@_stAB_GUILD_MASTER_GATE_INFO@@QAEXXZ	; _stAB_GUILD_MASTER_GATE_INFO::Clear
; Function compile flags: /Ogtp
;	COMDAT ?Clear@_stAB_GUILD_MASTER_GATE_INFO@@QAEXXZ
_TEXT	SEGMENT
?Clear@_stAB_GUILD_MASTER_GATE_INFO@@QAEXXZ PROC	; _stAB_GUILD_MASTER_GATE_INFO::Clear, COMDAT
; _this$ = ecx

; 453  : 		this->nGuildNum = -1;

  00000	c7 01 ff ff ff
	ff		 mov	 DWORD PTR [ecx], -1

; 454  : 		this->nGateNum	= -1;

  00006	c7 41 04 ff ff
	ff ff		 mov	 DWORD PTR [ecx+4], -1

; 455  : 	};

  0000d	c3		 ret	 0
?Clear@_stAB_GUILD_MASTER_GATE_INFO@@QAEXXZ ENDP	; _stAB_GUILD_MASTER_GATE_INFO::Clear
_TEXT	ENDS
PUBLIC	??0_tagAB_GUILD_MEMBER_INFO_LOG@@QAE@XZ		; _tagAB_GUILD_MEMBER_INFO_LOG::_tagAB_GUILD_MEMBER_INFO_LOG
; Function compile flags: /Ogtp
;	COMDAT ??0_tagAB_GUILD_MEMBER_INFO_LOG@@QAE@XZ
_TEXT	SEGMENT
??0_tagAB_GUILD_MEMBER_INFO_LOG@@QAE@XZ PROC		; _tagAB_GUILD_MEMBER_INFO_LOG::_tagAB_GUILD_MEMBER_INFO_LOG, COMDAT
; _this$ = ecx

; 465  : 	{

  00000	8b c1		 mov	 eax, ecx

; 466  : 		this->nGuildNum = -1;

  00002	c7 00 ff ff ff
	ff		 mov	 DWORD PTR [eax], -1

; 467  : 		this->bLogPrint = 0;

  00008	c6 40 04 00	 mov	 BYTE PTR [eax+4], 0

; 468  : 	};

  0000c	c3		 ret	 0
??0_tagAB_GUILD_MEMBER_INFO_LOG@@QAE@XZ ENDP		; _tagAB_GUILD_MEMBER_INFO_LOG::_tagAB_GUILD_MEMBER_INFO_LOG
_TEXT	ENDS
PUBLIC	?Clear@_tagAB_GUILD_MEMBER_INFO_LOG@@QAEXXZ	; _tagAB_GUILD_MEMBER_INFO_LOG::Clear
; Function compile flags: /Ogtp
;	COMDAT ?Clear@_tagAB_GUILD_MEMBER_INFO_LOG@@QAEXXZ
_TEXT	SEGMENT
?Clear@_tagAB_GUILD_MEMBER_INFO_LOG@@QAEXXZ PROC	; _tagAB_GUILD_MEMBER_INFO_LOG::Clear, COMDAT
; _this$ = ecx

; 472  : 		this->nGuildNum = -1;

  00000	c7 01 ff ff ff
	ff		 mov	 DWORD PTR [ecx], -1

; 473  : 		this->bLogPrint = 0;

  00006	c6 41 04 00	 mov	 BYTE PTR [ecx+4], 0

; 474  : 	};

  0000a	c3		 ret	 0
?Clear@_tagAB_GUILD_MEMBER_INFO_LOG@@QAEXXZ ENDP	; _tagAB_GUILD_MEMBER_INFO_LOG::Clear
_TEXT	ENDS
PUBLIC	??0_tagPMSG_SEND_OBELISK_LIFE@@QAE@XZ		; _tagPMSG_SEND_OBELISK_LIFE::_tagPMSG_SEND_OBELISK_LIFE
; Function compile flags: /Ogtp
;	COMDAT ??0_tagPMSG_SEND_OBELISK_LIFE@@QAE@XZ
_TEXT	SEGMENT
??0_tagPMSG_SEND_OBELISK_LIFE@@QAE@XZ PROC		; _tagPMSG_SEND_OBELISK_LIFE::_tagPMSG_SEND_OBELISK_LIFE, COMDAT
; _this$ = ecx

; 484  : 	{

  00000	8b c1		 mov	 eax, ecx
  00002	c7 40 04 00 00
	00 00		 mov	 DWORD PTR [eax+4], 0
  00009	c7 40 08 00 00
	00 00		 mov	 DWORD PTR [eax+8], 0
  00010	66 c7 40 0c 00
	00		 mov	 WORD PTR [eax+12], 0

; 485  : 		//_vector_constructor_iterator_
; 486  : 	};

  00016	c3		 ret	 0
??0_tagPMSG_SEND_OBELISK_LIFE@@QAE@XZ ENDP		; _tagPMSG_SEND_OBELISK_LIFE::_tagPMSG_SEND_OBELISK_LIFE
_TEXT	ENDS
PUBLIC	??0_tagPMSG_AB_RESULT@@QAE@XZ			; _tagPMSG_AB_RESULT::_tagPMSG_AB_RESULT
; Function compile flags: /Ogtp
;	COMDAT ??0_tagPMSG_AB_RESULT@@QAE@XZ
_TEXT	SEGMENT
??0_tagPMSG_AB_RESULT@@QAE@XZ PROC			; _tagPMSG_AB_RESULT::_tagPMSG_AB_RESULT, COMDAT
; _this$ = ecx

; 510  : 	{

  00000	53		 push	 ebx
  00001	8b c1		 mov	 eax, ecx
  00003	56		 push	 esi
  00004	8d 50 16	 lea	 edx, DWORD PTR [eax+22]
  00007	be 04 00 00 00	 mov	 esi, 4
  0000c	8d 64 24 00	 npad	 4
$LL4@tagPMSG_AB:
  00010	33 db		 xor	 ebx, ebx
  00012	33 c9		 xor	 ecx, ecx
  00014	66 89 0a	 mov	 WORD PTR [edx], cx
  00017	89 5a 02	 mov	 DWORD PTR [edx+2], ebx
  0001a	89 5a 06	 mov	 DWORD PTR [edx+6], ebx
  0001d	88 5a 0a	 mov	 BYTE PTR [edx+10], bl
  00020	83 c2 0c	 add	 edx, 12			; 0000000cH
  00023	4e		 dec	 esi
  00024	79 ea		 jns	 SHORT $LL4@tagPMSG_AB

; 511  : 		//_vector_constructor_iterator_
; 512  : 	}

  00026	5e		 pop	 esi
  00027	5b		 pop	 ebx
  00028	c3		 ret	 0
??0_tagPMSG_AB_RESULT@@QAE@XZ ENDP			; _tagPMSG_AB_RESULT::_tagPMSG_AB_RESULT
_TEXT	ENDS
PUBLIC	?SetDataLoadProcState@CArcaBattle@@QAEXH@Z	; CArcaBattle::SetDataLoadProcState
; Function compile flags: /Ogtp
;	COMDAT ?SetDataLoadProcState@CArcaBattle@@QAEXH@Z
_TEXT	SEGMENT
_bReqABProcState$ = 8					; size = 4
?SetDataLoadProcState@CArcaBattle@@QAEXH@Z PROC		; CArcaBattle::SetDataLoadProcState, COMDAT
; _this$ = ecx

; 538  : 	void	SetDataLoadProcState(BOOL bReqABProcState) { this->m_bReqABProcState = bReqABProcState; };

  00000	55		 push	 ebp
  00001	8b ec		 mov	 ebp, esp
  00003	8b 45 08	 mov	 eax, DWORD PTR _bReqABProcState$[ebp]
  00006	89 81 24 34 00
	00		 mov	 DWORD PTR [ecx+13348], eax
  0000c	5d		 pop	 ebp
  0000d	c2 04 00	 ret	 4
?SetDataLoadProcState@CArcaBattle@@QAEXH@Z ENDP		; CArcaBattle::SetDataLoadProcState
_TEXT	ENDS
PUBLIC	?GetArcaBattleMapIndex@CArcaBattle@@QAEHXZ	; CArcaBattle::GetArcaBattleMapIndex
; Function compile flags: /Ogtp
;	COMDAT ?GetArcaBattleMapIndex@CArcaBattle@@QAEHXZ
_TEXT	SEGMENT
?GetArcaBattleMapIndex@CArcaBattle@@QAEHXZ PROC		; CArcaBattle::GetArcaBattleMapIndex, COMDAT
; _this$ = ecx

; 585  : 	int		GetArcaBattleMapIndex() {  return this->m_iArcaBattleMapIndex; };

  00000	8b 81 b4 34 00
	00		 mov	 eax, DWORD PTR [ecx+13492]
  00006	c3		 ret	 0
?GetArcaBattleMapIndex@CArcaBattle@@QAEHXZ ENDP		; CArcaBattle::GetArcaBattleMapIndex
_TEXT	ENDS
PUBLIC	__$ArrayPad$
EXTRN	_isalnum:PROC
EXTRN	_isalpha:PROC
EXTRN	_atof:PROC
EXTRN	_isdigit:PROC
EXTRN	_getc:PROC
EXTRN	_ungetc:PROC
EXTRN	_isspace:PROC
EXTRN	_fgetc:PROC
EXTRN	__fltused:DWORD
_BSS	SEGMENT
	ALIGN	4

_CurrentToken DD 01H DUP (?)
_TokenNumber DD	01H DUP (?)
_SMDFile DD	01H DUP (?)
_TokenString DB	064H DUP (?)
; Function compile flags: /Ogtp
; File c:\muserver_dev\development\mu-s8ep2-repack\gameserver\include\readscript.h
_BSS	ENDS
;	COMDAT ?GetToken@@YA?AW4SMDToken@@XZ
_TEXT	SEGMENT
_TempString$ = -104					; size = 100
__$ArrayPad$ = -4					; size = 4
?GetToken@@YA?AW4SMDToken@@XZ PROC			; GetToken, COMDAT

; 24   : {

  00000	55		 push	 ebp
  00001	8b ec		 mov	 ebp, esp
  00003	83 ec 68	 sub	 esp, 104		; 00000068H
  00006	a1 00 00 00 00	 mov	 eax, DWORD PTR ___security_cookie
  0000b	33 c5		 xor	 eax, ebp
  0000d	89 45 fc	 mov	 DWORD PTR __$ArrayPad$[ebp], eax

; 25   : 	int ch;
; 26   : 	char* p;
; 27   : 	char TempString[100];
; 28   : 
; 29   : 	TokenString[0]=0;

  00010	c6 05 00 00 00
	00 00		 mov	 BYTE PTR _TokenString, 0
  00017	53		 push	 ebx
  00018	eb 06 8d 9b 00
	00 00 00	 npad	 8
$LL31@GetToken:

; 30   : 
; 31   : 	do
; 32   : 	{
; 33   : 		if ((ch=fgetc(SMDFile)) == -1)

  00020	a1 00 00 00 00	 mov	 eax, DWORD PTR _SMDFile
  00025	50		 push	 eax
  00026	e8 00 00 00 00	 call	 _fgetc
  0002b	8b d8		 mov	 ebx, eax
  0002d	83 c4 04	 add	 esp, 4
  00030	83 fb ff	 cmp	 ebx, -1
  00033	74 5e		 je	 SHORT $LN39@GetToken

; 36   : 		}
; 37   : 		else
; 38   : 		{	
; 39   : 			if (ch=='/')		// this is /

  00035	83 fb 2f	 cmp	 ebx, 47			; 0000002fH
  00038	75 31		 jne	 SHORT $LN30@GetToken

; 40   : 			{
; 41   : 				if((ch=fgetc(SMDFile)) == '/')

  0003a	8b 0d 00 00 00
	00		 mov	 ecx, DWORD PTR _SMDFile
  00040	51		 push	 ecx
  00041	e8 00 00 00 00	 call	 _fgetc
  00046	8b d8		 mov	 ebx, eax
  00048	83 c4 04	 add	 esp, 4
  0004b	83 fb 2f	 cmp	 ebx, 47			; 0000002fH
  0004e	75 1b		 jne	 SHORT $LN30@GetToken
$LL24@GetToken:

; 42   : 				{
; 43   : 					while ((ch != '\n') && (ch != -1))	// End of Line (EOL)

  00050	83 fb ff	 cmp	 ebx, -1
  00053	74 3e		 je	 SHORT $LN39@GetToken

; 44   : 					{
; 45   : 						ch=fgetc(SMDFile);

  00055	8b 15 00 00 00
	00		 mov	 edx, DWORD PTR _SMDFile
  0005b	52		 push	 edx
  0005c	e8 00 00 00 00	 call	 _fgetc
  00061	8b d8		 mov	 ebx, eax
  00063	83 c4 04	 add	 esp, 4
  00066	83 fb 0a	 cmp	 ebx, 10			; 0000000aH
  00069	75 e5		 jne	 SHORT $LL24@GetToken
$LN30@GetToken:

; 46   : 					}
; 47   : 	
; 48   : 					if (ch == -1)
; 49   : 					{
; 50   : 						return END;	// End of FILE
; 51   : 					}
; 52   : 				}
; 53   : 			}
; 54   : 		}
; 55   : 	}
; 56   : 	while (isspace(ch) != 0);

  0006b	53		 push	 ebx
  0006c	e8 00 00 00 00	 call	 _isspace
  00071	83 c4 04	 add	 esp, 4
  00074	85 c0		 test	 eax, eax
  00076	75 a8		 jne	 SHORT $LL31@GetToken

; 57   : 
; 58   : 	
; 59   : 	switch(ch)

  00078	8d 43 de	 lea	 eax, DWORD PTR [ebx-34]
  0007b	56		 push	 esi
  0007c	83 f8 5b	 cmp	 eax, 91			; 0000005bH
  0007f	0f 87 29 01 00
	00		 ja	 $LN6@GetToken
  00085	0f b6 80 00 00
	00 00		 movzx	 eax, BYTE PTR $LN46@GetToken[eax]
  0008c	ff 24 85 00 00
	00 00		 jmp	 DWORD PTR $LN50@GetToken[eax*4]
$LN39@GetToken:

; 34   : 		{
; 35   : 			return END;	// End of FILE (EOF)

  00093	b8 02 00 00 00	 mov	 eax, 2
  00098	5b		 pop	 ebx

; 147  : 		}
; 148  : 		break;
; 149  : 
; 150  : 	}
; 151  : 
; 152  : 	return NAME;
; 153  : }

  00099	8b 4d fc	 mov	 ecx, DWORD PTR __$ArrayPad$[ebp]
  0009c	33 cd		 xor	 ecx, ebp
  0009e	e8 00 00 00 00	 call	 @__security_check_cookie@4
  000a3	8b e5		 mov	 esp, ebp
  000a5	5d		 pop	 ebp
  000a6	c3		 ret	 0
$LN19@GetToken:

; 60   : 	{
; 61   : 
; 62   : 	case 0x23:	// #
; 63   : 		return CurrentToken=COMMAND;

  000a7	b8 23 00 00 00	 mov	 eax, 35			; 00000023H
  000ac	e9 92 01 00 00	 jmp	 $LN48@GetToken
$LN18@GetToken:

; 64   : 		break;
; 65   : 	
; 66   : 	case 0x3B:	// ;
; 67   : 		return CurrentToken=SEMICOLON;

  000b1	b8 3b 00 00 00	 mov	 eax, 59			; 0000003bH
  000b6	e9 88 01 00 00	 jmp	 $LN48@GetToken
$LN17@GetToken:

; 68   : 		break;
; 69   : 	
; 70   : 	case 0x2C:	// ,
; 71   : 
; 72   : 		return CurrentToken=COMMA;

  000bb	b8 2c 00 00 00	 mov	 eax, 44			; 0000002cH
  000c0	e9 7e 01 00 00	 jmp	 $LN48@GetToken
$LN16@GetToken:

; 73   : 		break;
; 74   : 	
; 75   : 	case 0x7B:	// {
; 76   : 		return CurrentToken = LP;

  000c5	b8 7b 00 00 00	 mov	 eax, 123		; 0000007bH
  000ca	e9 74 01 00 00	 jmp	 $LN48@GetToken
$LN15@GetToken:

; 77   : 		break;
; 78   : 
; 79   : 	case 0x7D:	// }
; 80   : 		return CurrentToken = RP;

  000cf	b8 7d 00 00 00	 mov	 eax, 125		; 0000007dH
  000d4	e9 6a 01 00 00	 jmp	 $LN48@GetToken
$LN14@GetToken:

; 81   : 		break;
; 82   : 	// Nice Index Table :)	by Deathway
; 83   : 	// Numbers Case
; 84   : 	case 0x2D:	//-
; 85   : 	case 0x2E:	//.
; 86   : 	case '0':	//0
; 87   : 	case '1':	//1
; 88   : 	case '2':	//2
; 89   : 	case '3':	//3
; 90   : 	case '4':	//4		
; 91   : 	case '5':	//5
; 92   : 	case '6':	//6
; 93   : 	case '7':	//7
; 94   : 	case '8':	//8
; 95   : 	case '9':	//9
; 96   : 		ungetc(ch, SMDFile);

  000d9	8b 0d 00 00 00
	00		 mov	 ecx, DWORD PTR _SMDFile
  000df	51		 push	 ecx
  000e0	53		 push	 ebx
  000e1	e8 00 00 00 00	 call	 _ungetc

; 97   : 		p = TempString;
; 98   : 		
; 99   : 		while (((ch=getc(SMDFile)) != -1) && ((ch == 0x2E) || (isdigit(ch) != 0) || (ch == 0x2D)))  // 2e '.'  2D '-'

  000e6	8b 15 00 00 00
	00		 mov	 edx, DWORD PTR _SMDFile
  000ec	52		 push	 edx
  000ed	8d 75 98	 lea	 esi, DWORD PTR _TempString$[ebp]
  000f0	e8 00 00 00 00	 call	 _getc
  000f5	8b d8		 mov	 ebx, eax
  000f7	83 c4 0c	 add	 esp, 12			; 0000000cH
  000fa	83 fb ff	 cmp	 ebx, -1
  000fd	74 30		 je	 SHORT $LN12@GetToken
  000ff	90		 npad	 1
$LL13@GetToken:
  00100	83 fb 2e	 cmp	 ebx, 46			; 0000002eH
  00103	74 12		 je	 SHORT $LN11@GetToken
  00105	53		 push	 ebx
  00106	e8 00 00 00 00	 call	 _isdigit
  0010b	83 c4 04	 add	 esp, 4
  0010e	85 c0		 test	 eax, eax
  00110	75 05		 jne	 SHORT $LN11@GetToken
  00112	83 fb 2d	 cmp	 ebx, 45			; 0000002dH
  00115	75 18		 jne	 SHORT $LN12@GetToken
$LN11@GetToken:
  00117	a1 00 00 00 00	 mov	 eax, DWORD PTR _SMDFile

; 100  : 		{
; 101  : 			*p = ch;	// Construct a String

  0011c	88 1e		 mov	 BYTE PTR [esi], bl
  0011e	50		 push	 eax

; 102  : 			p++;

  0011f	46		 inc	 esi
  00120	e8 00 00 00 00	 call	 _getc
  00125	8b d8		 mov	 ebx, eax
  00127	83 c4 04	 add	 esp, 4
  0012a	83 fb ff	 cmp	 ebx, -1
  0012d	75 d1		 jne	 SHORT $LL13@GetToken
$LN12@GetToken:

; 103  : 		}		
; 104  : 		*p = 0;
; 105  : 		TokenNumber = (float)atof( TempString);	// Select the first Byte as Main ID

  0012f	8d 4d 98	 lea	 ecx, DWORD PTR _TempString$[ebp]
  00132	51		 push	 ecx
  00133	c6 06 00	 mov	 BYTE PTR [esi], 0
  00136	e8 00 00 00 00	 call	 _atof
  0013b	d9 1d 00 00 00
	00		 fstp	 DWORD PTR _TokenNumber
  00141	83 c4 04	 add	 esp, 4
  00144	5e		 pop	 esi

; 106  : 		return CurrentToken  = NUMBER ;

  00145	c7 05 00 00 00
	00 01 00 00 00	 mov	 DWORD PTR _CurrentToken, 1
  0014f	b8 01 00 00 00	 mov	 eax, 1
  00154	5b		 pop	 ebx

; 147  : 		}
; 148  : 		break;
; 149  : 
; 150  : 	}
; 151  : 
; 152  : 	return NAME;
; 153  : }

  00155	8b 4d fc	 mov	 ecx, DWORD PTR __$ArrayPad$[ebp]
  00158	33 cd		 xor	 ecx, ebp
  0015a	e8 00 00 00 00	 call	 @__security_check_cookie@4
  0015f	8b e5		 mov	 esp, ebp
  00161	5d		 pop	 ebp
  00162	c3		 ret	 0
$LN10@GetToken:

; 107  : 		break;
; 108  : 
; 109  : 	case '\"':	// "	String Case
; 110  : 		p=&TokenString[0];
; 111  : 		
; 112  : 		while (((ch=getc(SMDFile)) != -1 ) && (ch != 0x22))	// nice

  00163	8b 15 00 00 00
	00		 mov	 edx, DWORD PTR _SMDFile
  00169	52		 push	 edx
  0016a	be 00 00 00 00	 mov	 esi, OFFSET _TokenString
  0016f	e8 00 00 00 00	 call	 _getc
  00174	83 c4 04	 add	 esp, 4
  00177	83 f8 ff	 cmp	 eax, -1
  0017a	74 23		 je	 SHORT $LN8@GetToken
  0017c	8d 64 24 00	 npad	 4
$LL9@GetToken:
  00180	83 f8 22	 cmp	 eax, 34			; 00000022H
  00183	0f 84 96 00 00
	00		 je	 $LN7@GetToken

; 113  : 		{
; 114  : 			*p = ch;

  00189	88 06		 mov	 BYTE PTR [esi], al
  0018b	a1 00 00 00 00	 mov	 eax, DWORD PTR _SMDFile
  00190	50		 push	 eax

; 115  : 			p++;

  00191	46		 inc	 esi
  00192	e8 00 00 00 00	 call	 _getc
  00197	83 c4 04	 add	 esp, 4
  0019a	83 f8 ff	 cmp	 eax, -1
  0019d	75 e1		 jne	 SHORT $LL9@GetToken
$LN8@GetToken:

; 116  : 		}
; 117  : 		if (ch != 0x22 )

  0019f	83 f8 22	 cmp	 eax, 34			; 00000022H
  001a2	74 7b		 je	 SHORT $LN7@GetToken

; 118  : 		{
; 119  : 			ungetc(ch, SMDFile);

  001a4	8b 0d 00 00 00
	00		 mov	 ecx, DWORD PTR _SMDFile
  001aa	51		 push	 ecx
  001ab	50		 push	 eax

; 120  : 		}
; 121  : 		*p = 0;
; 122  : 		return CurrentToken = NAME;

  001ac	eb 69		 jmp	 SHORT $LN49@GetToken
$LN6@GetToken:

; 123  : 		break;
; 124  : 
; 125  : 	default:	// Others
; 126  : 		if (isalpha(ch))

  001ae	53		 push	 ebx
  001af	e8 00 00 00 00	 call	 _isalpha
  001b4	83 c4 04	 add	 esp, 4
  001b7	85 c0		 test	 eax, eax
  001b9	0f 84 7f 00 00
	00		 je	 $LN5@GetToken

; 127  : 		{
; 128  : 			p=&TokenString[0];
; 129  : 			*p=ch;
; 130  : 			p++;
; 131  : 
; 132  : 			while ( ((ch=getc(SMDFile)) != -1) && ( (ch == 0x2E) || (ch == 0x5F) || (isalnum(ch) != 0) ) )

  001bf	8b 15 00 00 00
	00		 mov	 edx, DWORD PTR _SMDFile
  001c5	52		 push	 edx
  001c6	88 1d 00 00 00
	00		 mov	 BYTE PTR _TokenString, bl
  001cc	be 01 00 00 00	 mov	 esi, OFFSET _TokenString+1
  001d1	e8 00 00 00 00	 call	 _getc
  001d6	8b d8		 mov	 ebx, eax
  001d8	83 c4 04	 add	 esp, 4
  001db	83 fb ff	 cmp	 ebx, -1
  001de	74 2f		 je	 SHORT $LN3@GetToken
$LL4@GetToken:
  001e0	83 fb 2e	 cmp	 ebx, 46			; 0000002eH
  001e3	74 12		 je	 SHORT $LN2@GetToken
  001e5	83 fb 5f	 cmp	 ebx, 95			; 0000005fH
  001e8	74 0d		 je	 SHORT $LN2@GetToken
  001ea	53		 push	 ebx
  001eb	e8 00 00 00 00	 call	 _isalnum
  001f0	83 c4 04	 add	 esp, 4
  001f3	85 c0		 test	 eax, eax
  001f5	74 18		 je	 SHORT $LN3@GetToken
$LN2@GetToken:
  001f7	a1 00 00 00 00	 mov	 eax, DWORD PTR _SMDFile

; 133  : 			{
; 134  : 				*p=ch;

  001fc	88 1e		 mov	 BYTE PTR [esi], bl
  001fe	50		 push	 eax

; 135  : 				p++;

  001ff	46		 inc	 esi
  00200	e8 00 00 00 00	 call	 _getc
  00205	8b d8		 mov	 ebx, eax
  00207	83 c4 04	 add	 esp, 4
  0020a	83 fb ff	 cmp	 ebx, -1
  0020d	75 d1		 jne	 SHORT $LL4@GetToken
$LN3@GetToken:

; 136  : 				
; 137  : 			}
; 138  : 
; 139  : 			ungetc(ch, SMDFile);

  0020f	8b 0d 00 00 00
	00		 mov	 ecx, DWORD PTR _SMDFile
  00215	51		 push	 ecx
  00216	53		 push	 ebx
$LN49@GetToken:
  00217	e8 00 00 00 00	 call	 _ungetc
  0021c	83 c4 08	 add	 esp, 8
$LN7@GetToken:

; 140  : 			*p=0;

  0021f	c6 06 00	 mov	 BYTE PTR [esi], 0
  00222	5e		 pop	 esi

; 141  : 			CurrentToken=NAME;

  00223	c7 05 00 00 00
	00 00 00 00 00	 mov	 DWORD PTR _CurrentToken, 0

; 142  : 			return CurrentToken;

  0022d	33 c0		 xor	 eax, eax
  0022f	5b		 pop	 ebx

; 147  : 		}
; 148  : 		break;
; 149  : 
; 150  : 	}
; 151  : 
; 152  : 	return NAME;
; 153  : }

  00230	8b 4d fc	 mov	 ecx, DWORD PTR __$ArrayPad$[ebp]
  00233	33 cd		 xor	 ecx, ebp
  00235	e8 00 00 00 00	 call	 @__security_check_cookie@4
  0023a	8b e5		 mov	 esp, ebp
  0023c	5d		 pop	 ebp
  0023d	c3		 ret	 0
$LN5@GetToken:

; 143  : 		}
; 144  : 		else
; 145  : 		{
; 146  : 			return CurrentToken = SMD_ERROR; // '<'

  0023e	b8 3c 00 00 00	 mov	 eax, 60			; 0000003cH
$LN48@GetToken:

; 147  : 		}
; 148  : 		break;
; 149  : 
; 150  : 	}
; 151  : 
; 152  : 	return NAME;
; 153  : }

  00243	8b 4d fc	 mov	 ecx, DWORD PTR __$ArrayPad$[ebp]
  00246	5e		 pop	 esi
  00247	33 cd		 xor	 ecx, ebp
  00249	a3 00 00 00 00	 mov	 DWORD PTR _CurrentToken, eax
  0024e	5b		 pop	 ebx
  0024f	e8 00 00 00 00	 call	 @__security_check_cookie@4
  00254	8b e5		 mov	 esp, ebp
  00256	5d		 pop	 ebp
  00257	c3		 ret	 0
$LN50@GetToken:
  00258	00 00 00 00	 DD	 $LN10@GetToken
  0025c	00 00 00 00	 DD	 $LN19@GetToken
  00260	00 00 00 00	 DD	 $LN17@GetToken
  00264	00 00 00 00	 DD	 $LN14@GetToken
  00268	00 00 00 00	 DD	 $LN18@GetToken
  0026c	00 00 00 00	 DD	 $LN16@GetToken
  00270	00 00 00 00	 DD	 $LN15@GetToken
  00274	00 00 00 00	 DD	 $LN6@GetToken
$LN46@GetToken:
  00278	00		 DB	 0
  00279	01		 DB	 1
  0027a	07		 DB	 7
  0027b	07		 DB	 7
  0027c	07		 DB	 7
  0027d	07		 DB	 7
  0027e	07		 DB	 7
  0027f	07		 DB	 7
  00280	07		 DB	 7
  00281	07		 DB	 7
  00282	02		 DB	 2
  00283	03		 DB	 3
  00284	03		 DB	 3
  00285	07		 DB	 7
  00286	03		 DB	 3
  00287	03		 DB	 3
  00288	03		 DB	 3
  00289	03		 DB	 3
  0028a	03		 DB	 3
  0028b	03		 DB	 3
  0028c	03		 DB	 3
  0028d	03		 DB	 3
  0028e	03		 DB	 3
  0028f	03		 DB	 3
  00290	07		 DB	 7
  00291	04		 DB	 4
  00292	07		 DB	 7
  00293	07		 DB	 7
  00294	07		 DB	 7
  00295	07		 DB	 7
  00296	07		 DB	 7
  00297	07		 DB	 7
  00298	07		 DB	 7
  00299	07		 DB	 7
  0029a	07		 DB	 7
  0029b	07		 DB	 7
  0029c	07		 DB	 7
  0029d	07		 DB	 7
  0029e	07		 DB	 7
  0029f	07		 DB	 7
  002a0	07		 DB	 7
  002a1	07		 DB	 7
  002a2	07		 DB	 7
  002a3	07		 DB	 7
  002a4	07		 DB	 7
  002a5	07		 DB	 7
  002a6	07		 DB	 7
  002a7	07		 DB	 7
  002a8	07		 DB	 7
  002a9	07		 DB	 7
  002aa	07		 DB	 7
  002ab	07		 DB	 7
  002ac	07		 DB	 7
  002ad	07		 DB	 7
  002ae	07		 DB	 7
  002af	07		 DB	 7
  002b0	07		 DB	 7
  002b1	07		 DB	 7
  002b2	07		 DB	 7
  002b3	07		 DB	 7
  002b4	07		 DB	 7
  002b5	07		 DB	 7
  002b6	07		 DB	 7
  002b7	07		 DB	 7
  002b8	07		 DB	 7
  002b9	07		 DB	 7
  002ba	07		 DB	 7
  002bb	07		 DB	 7
  002bc	07		 DB	 7
  002bd	07		 DB	 7
  002be	07		 DB	 7
  002bf	07		 DB	 7
  002c0	07		 DB	 7
  002c1	07		 DB	 7
  002c2	07		 DB	 7
  002c3	07		 DB	 7
  002c4	07		 DB	 7
  002c5	07		 DB	 7
  002c6	07		 DB	 7
  002c7	07		 DB	 7
  002c8	07		 DB	 7
  002c9	07		 DB	 7
  002ca	07		 DB	 7
  002cb	07		 DB	 7
  002cc	07		 DB	 7
  002cd	07		 DB	 7
  002ce	07		 DB	 7
  002cf	07		 DB	 7
  002d0	07		 DB	 7
  002d1	05		 DB	 5
  002d2	07		 DB	 7
  002d3	06		 DB	 6
?GetToken@@YA?AW4SMDToken@@XZ ENDP			; GetToken
_TEXT	ENDS
PUBLIC	?_ARGB@@YAKEEEE@Z				; _ARGB
; Function compile flags: /Ogtp
; File c:\muserver_dev\development\mu-s8ep2-repack\gameserver\source\tnotice.h
;	COMDAT ?_ARGB@@YAKEEEE@Z
_TEXT	SEGMENT
_a$ = 8							; size = 1
_r$ = 12						; size = 1
_g$ = 16						; size = 1
_b$ = 20						; size = 1
?_ARGB@@YAKEEEE@Z PROC					; _ARGB, COMDAT

; 9    : __inline DWORD _ARGB(BYTE a, BYTE r, BYTE g, BYTE b){ return a*16777216 + b*65536 + g*256 + r;}; // in tnotice.h : line 8

  00000	55		 push	 ebp
  00001	8b ec		 mov	 ebp, esp
  00003	0f b6 45 08	 movzx	 eax, BYTE PTR _a$[ebp]
  00007	0f b6 4d 14	 movzx	 ecx, BYTE PTR _b$[ebp]
  0000b	0f b6 55 10	 movzx	 edx, BYTE PTR _g$[ebp]
  0000f	c1 e0 08	 shl	 eax, 8
  00012	03 c1		 add	 eax, ecx
  00014	0f b6 4d 0c	 movzx	 ecx, BYTE PTR _r$[ebp]
  00018	c1 e0 08	 shl	 eax, 8
  0001b	03 c2		 add	 eax, edx
  0001d	c1 e0 08	 shl	 eax, 8
  00020	03 c1		 add	 eax, ecx
  00022	5d		 pop	 ebp
  00023	c3		 ret	 0
?_ARGB@@YAKEEEE@Z ENDP					; _ARGB
_TEXT	ENDS
PUBLIC	?GetMapSvrGroup@CMapServerManager@@QAEHXZ	; CMapServerManager::GetMapSvrGroup
; Function compile flags: /Ogtp
; File c:\muserver_dev\development\mu-s8ep2-repack\gameserver\source\mapservermanager.h
;	COMDAT ?GetMapSvrGroup@CMapServerManager@@QAEHXZ
_TEXT	SEGMENT
?GetMapSvrGroup@CMapServerManager@@QAEHXZ PROC		; CMapServerManager::GetMapSvrGroup, COMDAT
; _this$ = ecx

; 55   : 		if ( this->m_lpThisMapSvrData != NULL )

  00000	8b 81 00 6b 01
	00		 mov	 eax, DWORD PTR [ecx+92928]
  00006	85 c0		 test	 eax, eax
  00008	74 05		 je	 SHORT $LN1@GetMapSvrG

; 56   : 		{
; 57   : 			return m_lpThisMapSvrData->m_btMAPSVR_GROUP;

  0000a	0f b6 40 08	 movzx	 eax, BYTE PTR [eax+8]

; 60   : 	}

  0000e	c3		 ret	 0
$LN1@GetMapSvrG:

; 58   : 		}
; 59   : 		return -1;

  0000f	83 c8 ff	 or	 eax, -1

; 60   : 	}

  00012	c3		 ret	 0
?GetMapSvrGroup@CMapServerManager@@QAEHXZ ENDP		; CMapServerManager::GetMapSvrGroup
_TEXT	ENDS
PUBLIC	??_C@_0DM@MHCDLNKM@?$FLArcaBattle?$FN?5BootyMix?5?$CFs?5File?5Lo@ ; `string'
PUBLIC	??_C@_03JBJLGPFL@end?$AA@			; `string'
PUBLIC	??_C@_0CP@OFJFMFJN@?$FLArcaBattle?$FN?$FLBootyExchange?$FN?5?$CFs?5F@ ; `string'
PUBLIC	??_C@_01KDCPPGHE@r?$AA@				; `string'
PUBLIC	?LoadScriptBootyMix@CArcaBattle@@QAEHPAD@Z	; CArcaBattle::LoadScriptBootyMix
EXTRN	_fclose:PROC
EXTRN	?MsgBox@@YAXPADZZ:PROC				; MsgBox
EXTRN	_fopen:PROC
EXTRN	__ftol2_sse:PROC
;	COMDAT ??_C@_0DM@MHCDLNKM@?$FLArcaBattle?$FN?5BootyMix?5?$CFs?5File?5Lo@
; File c:\muserver_dev\development\mu-s8ep2-repack\gameserver\source\arcabattle.cpp
CONST	SEGMENT
??_C@_0DM@MHCDLNKM@?$FLArcaBattle?$FN?5BootyMix?5?$CFs?5File?5Lo@ DB '[Ar'
	DB	'caBattle] BootyMix %s File Load Error - BootyMixCnt Over', 00H ; `string'
CONST	ENDS
;	COMDAT ??_C@_03JBJLGPFL@end?$AA@
CONST	SEGMENT
??_C@_03JBJLGPFL@end?$AA@ DB 'end', 00H			; `string'
CONST	ENDS
;	COMDAT ??_C@_0CP@OFJFMFJN@?$FLArcaBattle?$FN?$FLBootyExchange?$FN?5?$CFs?5F@
CONST	SEGMENT
??_C@_0CP@OFJFMFJN@?$FLArcaBattle?$FN?$FLBootyExchange?$FN?5?$CFs?5F@ DB '['
	DB	'ArcaBattle][BootyExchange] %s File Load Error', 00H ; `string'
CONST	ENDS
;	COMDAT ??_C@_01KDCPPGHE@r?$AA@
CONST	SEGMENT
??_C@_01KDCPPGHE@r?$AA@ DB 'r', 00H			; `string'
; Function compile flags: /Ogtp
CONST	ENDS
;	COMDAT ?LoadScriptBootyMix@CArcaBattle@@QAEHPAD@Z
_TEXT	SEGMENT
tv323 = -4						; size = 4
_lpszFileName$ = 8					; size = 4
?LoadScriptBootyMix@CArcaBattle@@QAEHPAD@Z PROC		; CArcaBattle::LoadScriptBootyMix, COMDAT
; _this$ = ecx

; 91   : {

  00000	55		 push	 ebp
  00001	8b ec		 mov	 ebp, esp
  00003	51		 push	 ecx
  00004	56		 push	 esi

; 92   : 	SMDFile = fopen(lpszFileName, "r");

  00005	8b 75 08	 mov	 esi, DWORD PTR _lpszFileName$[ebp]
  00008	57		 push	 edi
  00009	68 00 00 00 00	 push	 OFFSET ??_C@_01KDCPPGHE@r?$AA@
  0000e	56		 push	 esi
  0000f	8b f9		 mov	 edi, ecx
  00011	e8 00 00 00 00	 call	 _fopen
  00016	83 c4 08	 add	 esp, 8
  00019	a3 00 00 00 00	 mov	 DWORD PTR _SMDFile, eax

; 93   : 	// ----
; 94   : 	if( !SMDFile )

  0001e	85 c0		 test	 eax, eax
  00020	75 18		 jne	 SHORT $LN17@LoadScript

; 95   : 	{
; 96   : 		MsgBox("[ArcaBattle][BootyExchange] %s File Load Error", lpszFileName);

  00022	56		 push	 esi
  00023	68 00 00 00 00	 push	 OFFSET ??_C@_0CP@OFJFMFJN@?$FLArcaBattle?$FN?$FLBootyExchange?$FN?5?$CFs?5F@
  00028	e8 00 00 00 00	 call	 ?MsgBox@@YAXPADZZ	; MsgBox
  0002d	83 c4 08	 add	 esp, 8
  00030	5f		 pop	 edi

; 97   : 		return false;

  00031	33 c0		 xor	 eax, eax
  00033	5e		 pop	 esi

; 185  : }

  00034	8b e5		 mov	 esp, ebp
  00036	5d		 pop	 ebp
  00037	c2 04 00	 ret	 4
$LN17@LoadScript:
  0003a	53		 push	 ebx

; 98   : 	}
; 99   : 	// ----
; 100  : 	int i = 0;
; 101  : 	SMDToken Token;
; 102  : 	int iCount = 0;
; 103  : 	int Type;
; 104  : 	// ----
; 105  : 	while(true)
; 106  : 	{
; 107  : 		Token = GetToken();

  0003b	e8 00 00 00 00	 call	 ?GetToken@@YA?AW4SMDToken@@XZ ; GetToken
  00040	8b d8		 mov	 ebx, eax

; 108  : 		// ----
; 109  : 		if( Token == END )

  00042	83 fb 02	 cmp	 ebx, 2
  00045	0f 84 19 02 00
	00		 je	 $LN36@LoadScript
  0004b	eb 03 8d 49 00	 npad	 5
$LL16@LoadScript:

; 112  : 		}
; 113  : 		// ----
; 114  : 		if( Token == NUMBER )

  00050	83 fb 01	 cmp	 ebx, 1
  00053	0f 85 e8 01 00
	00		 jne	 $LN37@LoadScript

; 115  : 		{
; 116  : 			Type = (int)TokenNumber;

  00059	d9 05 00 00 00
	00		 fld	 DWORD PTR _TokenNumber
  0005f	e8 00 00 00 00	 call	 __ftol2_sse
  00064	8b f0		 mov	 esi, eax
  00066	89 75 fc	 mov	 DWORD PTR tv323[ebp], esi

; 117  : 			// ----
; 118  : 			if( Type == 0 )

  00069	85 f6		 test	 esi, esi
  0006b	0f 85 dc 00 00
	00		 jne	 $LN38@LoadScript
$LL11@LoadScript:

; 119  : 			{
; 120  : 				while(true)
; 121  : 				{
; 122  : 					if( Token == END )

  00071	83 fb 02	 cmp	 ebx, 2
  00074	75 37		 jne	 SHORT $LN8@LoadScript

; 123  : 					{
; 124  : 						if( !strcmp("end", TokenString) == 0 )

  00076	b9 00 00 00 00	 mov	 ecx, OFFSET _TokenString
  0007b	b8 00 00 00 00	 mov	 eax, OFFSET ??_C@_03JBJLGPFL@end?$AA@
$LL28@LoadScript:
  00080	8a 10		 mov	 dl, BYTE PTR [eax]
  00082	3a 11		 cmp	 dl, BYTE PTR [ecx]
  00084	75 1a		 jne	 SHORT $LN29@LoadScript
  00086	84 d2		 test	 dl, dl
  00088	74 12		 je	 SHORT $LN30@LoadScript
  0008a	8a 50 01	 mov	 dl, BYTE PTR [eax+1]
  0008d	3a 51 01	 cmp	 dl, BYTE PTR [ecx+1]
  00090	75 0e		 jne	 SHORT $LN29@LoadScript
  00092	83 c0 02	 add	 eax, 2
  00095	83 c1 02	 add	 ecx, 2
  00098	84 d2		 test	 dl, dl
  0009a	75 e4		 jne	 SHORT $LL28@LoadScript
$LN30@LoadScript:
  0009c	33 c0		 xor	 eax, eax
  0009e	eb 05		 jmp	 SHORT $LN31@LoadScript
$LN29@LoadScript:
  000a0	1b c0		 sbb	 eax, eax
  000a2	83 d8 ff	 sbb	 eax, -1
$LN31@LoadScript:
  000a5	85 c0		 test	 eax, eax
  000a7	0f 85 94 01 00
	00		 jne	 $LN37@LoadScript
$LN8@LoadScript:

; 125  : 						{
; 126  : 							break;
; 127  : 						}
; 128  : 					}
; 129  : 					// ----
; 130  : 					this->m_stBootyMix[this->m_iBootyMixCnt].iItemLink	= (int)TokenNumber;

  000ad	8b 87 b4 13 00
	00		 mov	 eax, DWORD PTR [edi+5044]
  000b3	69 c0 f8 01 00
	00		 imul	 eax, 504		; 000001f8H
  000b9	89 74 38 04	 mov	 DWORD PTR [eax+edi+4], esi

; 131  : 					Token = GetToken();

  000bd	e8 00 00 00 00	 call	 ?GetToken@@YA?AW4SMDToken@@XZ ; GetToken

; 132  : 					this->m_stBootyMix[this->m_iBootyMixCnt].iMinCnt	= (int)TokenNumber;

  000c2	d9 05 00 00 00
	00		 fld	 DWORD PTR _TokenNumber
  000c8	e8 00 00 00 00	 call	 __ftol2_sse
  000cd	8b 8f b4 13 00
	00		 mov	 ecx, DWORD PTR [edi+5044]
  000d3	69 c9 f8 01 00
	00		 imul	 ecx, 504		; 000001f8H
  000d9	89 44 39 08	 mov	 DWORD PTR [ecx+edi+8], eax

; 133  : 					Token = GetToken();

  000dd	e8 00 00 00 00	 call	 ?GetToken@@YA?AW4SMDToken@@XZ ; GetToken

; 134  : 					this->m_stBootyMix[this->m_iBootyMixCnt].iMaxCnt	= (int)TokenNumber;

  000e2	d9 05 00 00 00
	00		 fld	 DWORD PTR _TokenNumber
  000e8	e8 00 00 00 00	 call	 __ftol2_sse
  000ed	8b 97 b4 13 00
	00		 mov	 edx, DWORD PTR [edi+5044]
  000f3	69 d2 f8 01 00
	00		 imul	 edx, 504		; 000001f8H
  000f9	89 44 3a 0c	 mov	 DWORD PTR [edx+edi+12], eax

; 135  : 					Token = GetToken();

  000fd	e8 00 00 00 00	 call	 ?GetToken@@YA?AW4SMDToken@@XZ ; GetToken

; 136  : 					this->m_stBootyMix[this->m_iBootyMixCnt].iBaseRate	= (int)TokenNumber;

  00102	d9 05 00 00 00
	00		 fld	 DWORD PTR _TokenNumber
  00108	e8 00 00 00 00	 call	 __ftol2_sse
  0010d	8b 8f b4 13 00
	00		 mov	 ecx, DWORD PTR [edi+5044]
  00113	69 c9 f8 01 00
	00		 imul	 ecx, 504		; 000001f8H
  00119	89 44 39 10	 mov	 DWORD PTR [ecx+edi+16], eax

; 137  : 					Token = GetToken();

  0011d	e8 00 00 00 00	 call	 ?GetToken@@YA?AW4SMDToken@@XZ ; GetToken
  00122	8b d8		 mov	 ebx, eax

; 138  : 					this->m_stBootyMix[this->m_iBootyMixCnt++].iAddRate = (int)TokenNumber;

  00124	d9 05 00 00 00
	00		 fld	 DWORD PTR _TokenNumber
  0012a	e8 00 00 00 00	 call	 __ftol2_sse
  0012f	8b 97 b4 13 00
	00		 mov	 edx, DWORD PTR [edi+5044]
  00135	69 d2 f8 01 00
	00		 imul	 edx, 504		; 000001f8H
  0013b	89 44 3a 14	 mov	 DWORD PTR [edx+edi+20], eax

; 139  : 					// ----
; 140  : 					this->m_iBootyMixCnt++;

  0013f	83 87 b4 13 00
	00 02		 add	 DWORD PTR [edi+5044], 2

; 141  : 				}

  00146	8b f0		 mov	 esi, eax
  00148	e9 24 ff ff ff	 jmp	 $LL11@LoadScript
$LN38@LoadScript:

; 142  : 			}
; 143  : 			else if( Type > 0 )

  0014d	0f 8e ee 00 00
	00		 jle	 $LN37@LoadScript

; 144  : 			{
; 145  : 				iCount = 0;

  00153	33 db		 xor	 ebx, ebx

; 146  : 				// ----
; 147  : 				if( this->m_iBootyMixCnt < Type )

  00155	39 b7 b4 13 00
	00		 cmp	 DWORD PTR [edi+5044], esi
  0015b	0f 8c f2 00 00
	00		 jl	 $LN27@LoadScript
$LL4@LoadScript:

; 150  : 					break;
; 151  : 				}
; 152  : 				// ----
; 153  : 				while(true)
; 154  : 				{
; 155  : 					Token = GetToken();

  00161	e8 00 00 00 00	 call	 ?GetToken@@YA?AW4SMDToken@@XZ ; GetToken

; 156  : 					// ----
; 157  : 					if( Token == END )

  00166	83 f8 02	 cmp	 eax, 2
  00169	75 37		 jne	 SHORT $LN1@LoadScript

; 158  : 					{
; 159  : 						if( !strcmp("end", TokenString) == 0 )

  0016b	b9 00 00 00 00	 mov	 ecx, OFFSET _TokenString
  00170	b8 00 00 00 00	 mov	 eax, OFFSET ??_C@_03JBJLGPFL@end?$AA@
$LL32@LoadScript:
  00175	8a 10		 mov	 dl, BYTE PTR [eax]
  00177	3a 11		 cmp	 dl, BYTE PTR [ecx]
  00179	75 1a		 jne	 SHORT $LN33@LoadScript
  0017b	84 d2		 test	 dl, dl
  0017d	74 12		 je	 SHORT $LN34@LoadScript
  0017f	8a 50 01	 mov	 dl, BYTE PTR [eax+1]
  00182	3a 51 01	 cmp	 dl, BYTE PTR [ecx+1]
  00185	75 0e		 jne	 SHORT $LN33@LoadScript
  00187	83 c0 02	 add	 eax, 2
  0018a	83 c1 02	 add	 ecx, 2
  0018d	84 d2		 test	 dl, dl
  0018f	75 e4		 jne	 SHORT $LL32@LoadScript
$LN34@LoadScript:
  00191	33 c0		 xor	 eax, eax
  00193	eb 05		 jmp	 SHORT $LN35@LoadScript
$LN33@LoadScript:
  00195	1b c0		 sbb	 eax, eax
  00197	83 d8 ff	 sbb	 eax, -1
$LN35@LoadScript:
  0019a	85 c0		 test	 eax, eax
  0019c	0f 85 9f 00 00
	00		 jne	 $LN37@LoadScript
$LN1@LoadScript:

; 160  : 						{
; 161  : 							break;
; 162  : 						}
; 163  : 					}
; 164  : 					// ----
; 165  : 					this->m_stBootyMix[Type - 1].stBootyReward[iCount].iRate		= (int)TokenNumber;

  001a2	d9 05 00 00 00
	00		 fld	 DWORD PTR _TokenNumber
  001a8	6b f6 15	 imul	 esi, 21			; 00000015H
  001ab	e8 00 00 00 00	 call	 __ftol2_sse
  001b0	8d 4c 1e ed	 lea	 ecx, DWORD PTR [esi+ebx-19]
  001b4	8d 0c 49	 lea	 ecx, DWORD PTR [ecx+ecx*2]
  001b7	89 04 cf	 mov	 DWORD PTR [edi+ecx*8], eax

; 166  : 					Token = GetToken();

  001ba	e8 00 00 00 00	 call	 ?GetToken@@YA?AW4SMDToken@@XZ ; GetToken

; 167  : 					this->m_stBootyMix[Type - 1].stBootyReward[iCount].iDurab		= (int)TokenNumber;

  001bf	d9 05 00 00 00
	00		 fld	 DWORD PTR _TokenNumber
  001c5	8d 04 1e	 lea	 eax, DWORD PTR [esi+ebx]
  001c8	8d 14 40	 lea	 edx, DWORD PTR [eax+eax*2]
  001cb	8d 34 d7	 lea	 esi, DWORD PTR [edi+edx*8]
  001ce	e8 00 00 00 00	 call	 __ftol2_sse
  001d3	89 86 34 fe ff
	ff		 mov	 DWORD PTR [esi-460], eax

; 168  : 					Token = GetToken();

  001d9	e8 00 00 00 00	 call	 ?GetToken@@YA?AW4SMDToken@@XZ ; GetToken

; 169  : 					this->m_stBootyMix[Type - 1].stBootyReward[iCount].iItemLevel	= (int)TokenNumber;

  001de	d9 05 00 00 00
	00		 fld	 DWORD PTR _TokenNumber
  001e4	e8 00 00 00 00	 call	 __ftol2_sse
  001e9	89 86 30 fe ff
	ff		 mov	 DWORD PTR [esi-464], eax

; 170  : 					Token = GetToken();

  001ef	e8 00 00 00 00	 call	 ?GetToken@@YA?AW4SMDToken@@XZ ; GetToken

; 171  : 					this->m_stBootyMix[Type - 1].stBootyReward[iCount].iItemIndex	= (int)TokenNumber;

  001f4	d9 05 00 00 00
	00		 fld	 DWORD PTR _TokenNumber
  001fa	e8 00 00 00 00	 call	 __ftol2_sse
  001ff	89 86 2c fe ff
	ff		 mov	 DWORD PTR [esi-468], eax

; 172  : 					Token = GetToken();

  00205	e8 00 00 00 00	 call	 ?GetToken@@YA?AW4SMDToken@@XZ ; GetToken

; 173  : 					this->m_stBootyMix[Type - 1].stBootyReward[iCount].iItemType	= (int)TokenNumber;

  0020a	d9 05 00 00 00
	00		 fld	 DWORD PTR _TokenNumber
  00210	e8 00 00 00 00	 call	 __ftol2_sse
  00215	89 86 28 fe ff
	ff		 mov	 DWORD PTR [esi-472], eax

; 174  : 					// ----
; 175  : 					this->m_stBootyMix[Type - 1].stBootyReward[iCount].iItemLink	= Type;

  0021b	8b 45 fc	 mov	 eax, DWORD PTR tv323[ebp]
  0021e	89 86 24 fe ff
	ff		 mov	 DWORD PTR [esi-476], eax

; 176  : 					this->m_stBootyMix[Type - 1].iBootyRewardCnt++;

  00224	69 c0 f8 01 00
	00		 imul	 eax, 504		; 000001f8H
  0022a	ff 84 38 20 fe
	ff ff		 inc	 DWORD PTR [eax+edi-480]

; 177  : 					iCount++;
; 178  : 				}

  00231	8b 75 fc	 mov	 esi, DWORD PTR tv323[ebp]
  00234	8d 84 38 20 fe
	ff ff		 lea	 eax, DWORD PTR [eax+edi-480]
  0023b	43		 inc	 ebx
  0023c	e9 20 ff ff ff	 jmp	 $LL4@LoadScript
$LN37@LoadScript:

; 98   : 	}
; 99   : 	// ----
; 100  : 	int i = 0;
; 101  : 	SMDToken Token;
; 102  : 	int iCount = 0;
; 103  : 	int Type;
; 104  : 	// ----
; 105  : 	while(true)
; 106  : 	{
; 107  : 		Token = GetToken();

  00241	e8 00 00 00 00	 call	 ?GetToken@@YA?AW4SMDToken@@XZ ; GetToken
  00246	8b d8		 mov	 ebx, eax

; 108  : 		// ----
; 109  : 		if( Token == END )

  00248	83 fb 02	 cmp	 ebx, 2
  0024b	0f 85 ff fd ff
	ff		 jne	 $LL16@LoadScript

; 110  : 		{
; 111  : 			break;

  00251	eb 11		 jmp	 SHORT $LN36@LoadScript
$LN27@LoadScript:

; 148  : 				{
; 149  : 					MsgBox("[ArcaBattle] BootyMix %s File Load Error - BootyMixCnt Over", lpszFileName);

  00253	8b 45 08	 mov	 eax, DWORD PTR _lpszFileName$[ebp]
  00256	50		 push	 eax
  00257	68 00 00 00 00	 push	 OFFSET ??_C@_0DM@MHCDLNKM@?$FLArcaBattle?$FN?5BootyMix?5?$CFs?5File?5Lo@
  0025c	e8 00 00 00 00	 call	 ?MsgBox@@YAXPADZZ	; MsgBox
  00261	83 c4 08	 add	 esp, 8
$LN36@LoadScript:

; 179  : 			}
; 180  : 		}
; 181  : 	}
; 182  : 	// ----
; 183  : 	fclose(SMDFile);

  00264	8b 0d 00 00 00
	00		 mov	 ecx, DWORD PTR _SMDFile
  0026a	51		 push	 ecx
  0026b	e8 00 00 00 00	 call	 _fclose
  00270	83 c4 04	 add	 esp, 4
  00273	5b		 pop	 ebx
  00274	5f		 pop	 edi

; 184  : 	return true;

  00275	b8 01 00 00 00	 mov	 eax, 1
  0027a	5e		 pop	 esi

; 185  : }

  0027b	8b e5		 mov	 esp, ebp
  0027d	5d		 pop	 ebp
  0027e	c2 04 00	 ret	 4
?LoadScriptBootyMix@CArcaBattle@@QAEHPAD@Z ENDP		; CArcaBattle::LoadScriptBootyMix
_TEXT	ENDS
PUBLIC	?BootyExchange@CArcaBattle@@QAEXPAUOBJECTSTRUCT@@@Z ; CArcaBattle::BootyExchange
; Function compile flags: /Ogtp
;	COMDAT ?BootyExchange@CArcaBattle@@QAEXPAUOBJECTSTRUCT@@@Z
_TEXT	SEGMENT
_lpObj$ = 8						; size = 4
?BootyExchange@CArcaBattle@@QAEXPAUOBJECTSTRUCT@@@Z PROC ; CArcaBattle::BootyExchange, COMDAT
; _this$ = ecx

; 191  : 	return;
; 192  : }

  00000	c2 04 00	 ret	 4
?BootyExchange@CArcaBattle@@QAEXPAUOBJECTSTRUCT@@@Z ENDP ; CArcaBattle::BootyExchange
_TEXT	ENDS
PUBLIC	??_C@_0DH@CABOAONH@?$FLArcaBattle?$FN?$FLBootyExchange?$FN?5Erro@ ; `string'
PUBLIC	??_C@_0DM@IMNBJCCJ@?$FLArcaBattle?$FN?$FLBootyExchange?$FN?5Erro@ ; `string'
PUBLIC	?GetBootyRewardItem@CArcaBattle@@QAEHHPAU_tagARCA_BATTLE_BOOTY_REWARD@@@Z ; CArcaBattle::GetBootyRewardItem
EXTRN	?GetLargeRand@@YAKXZ:PROC			; GetLargeRand
EXTRN	?LogAddTD@@3P6AXPADZZA:DWORD			; LogAddTD
;	COMDAT ??_C@_0DH@CABOAONH@?$FLArcaBattle?$FN?$FLBootyExchange?$FN?5Erro@
CONST	SEGMENT
??_C@_0DH@CABOAONH@?$FLArcaBattle?$FN?$FLBootyExchange?$FN?5Erro@ DB '[Ar'
	DB	'caBattle][BootyExchange] Error Overflow iRewardItem', 00H ; `string'
CONST	ENDS
;	COMDAT ??_C@_0DM@IMNBJCCJ@?$FLArcaBattle?$FN?$FLBootyExchange?$FN?5Erro@
CONST	SEGMENT
??_C@_0DM@IMNBJCCJ@?$FLArcaBattle?$FN?$FLBootyExchange?$FN?5Erro@ DB '[Ar'
	DB	'caBattle][BootyExchange] Error GetBootyRewardItem() NULL', 00H ; `string'
; Function compile flags: /Ogtp
CONST	ENDS
;	COMDAT ?GetBootyRewardItem@CArcaBattle@@QAEHHPAU_tagARCA_BATTLE_BOOTY_REWARD@@@Z
_TEXT	SEGMENT
_iRewardRand$182932 = 8					; size = 4
_iBootyCnt$ = 8						; size = 4
_pBootyRewardItem$ = 12					; size = 4
?GetBootyRewardItem@CArcaBattle@@QAEHHPAU_tagARCA_BATTLE_BOOTY_REWARD@@@Z PROC ; CArcaBattle::GetBootyRewardItem, COMDAT
; _this$ = ecx

; 197  : {

  00000	55		 push	 ebp
  00001	8b ec		 mov	 ebp, esp
  00003	53		 push	 ebx
  00004	56		 push	 esi
  00005	57		 push	 edi
  00006	8b b9 b4 13 00
	00		 mov	 edi, DWORD PTR [ecx+5044]

; 198  : 	int iTotRate, iBaseRate, iAddRate;
; 199  : 	int iRewardCnt;
; 200  : 	int i;
; 201  : 	int iLinkNum;
; 202  : 	int iRand;
; 203  : 	int iRewardItem;
; 204  : 	int iBootyRateCnt;
; 205  : 	// ----
; 206  : 	iLinkNum	= 0;
; 207  : 	i			= 0;
; 208  : 	iRewardCnt	= 0;
; 209  : 	iRewardItem = 0;

  0000c	33 db		 xor	 ebx, ebx

; 210  : 	_tagARCA_BATTLE_BOOTY_MIX * pBootMix = NULL;
; 211  : 	// ----
; 212  : 	for( i = 0; i < this->m_iBootyMixCnt; i++ )

  0000e	33 c0		 xor	 eax, eax
  00010	85 ff		 test	 edi, edi
  00012	7e 30		 jle	 SHORT $LN21@GetBootyRe

; 198  : 	int iTotRate, iBaseRate, iAddRate;
; 199  : 	int iRewardCnt;
; 200  : 	int i;
; 201  : 	int iLinkNum;
; 202  : 	int iRand;
; 203  : 	int iRewardItem;
; 204  : 	int iBootyRateCnt;
; 205  : 	// ----
; 206  : 	iLinkNum	= 0;
; 207  : 	i			= 0;
; 208  : 	iRewardCnt	= 0;
; 209  : 	iRewardItem = 0;

  00014	8b 55 08	 mov	 edx, DWORD PTR _iBootyCnt$[ebp]
  00017	8d 71 0c	 lea	 esi, DWORD PTR [ecx+12]
  0001a	8d 9b 00 00 00
	00		 npad	 6
$LL12@GetBootyRe:

; 213  : 	{
; 214  : 		if( this->m_stBootyMix[i].iMinCnt <= iBootyCnt && this->m_stBootyMix[i].iMaxCnt >= iBootyCnt )

  00020	39 56 fc	 cmp	 DWORD PTR [esi-4], edx
  00023	7f 04		 jg	 SHORT $LN11@GetBootyRe
  00025	39 16		 cmp	 DWORD PTR [esi], edx
  00027	7d 0d		 jge	 SHORT $LN17@GetBootyRe
$LN11@GetBootyRe:

; 210  : 	_tagARCA_BATTLE_BOOTY_MIX * pBootMix = NULL;
; 211  : 	// ----
; 212  : 	for( i = 0; i < this->m_iBootyMixCnt; i++ )

  00029	40		 inc	 eax
  0002a	81 c6 f8 01 00
	00		 add	 esi, 504		; 000001f8H
  00030	3b c7		 cmp	 eax, edi
  00032	7c ec		 jl	 SHORT $LL12@GetBootyRe

; 246  : 			// ----
; 247  : 			if( iRewardRand <= iSumRate )

  00034	eb 0e		 jmp	 SHORT $LN21@GetBootyRe
$LN17@GetBootyRe:

; 215  : 		{
; 216  : 			pBootMix = &this->m_stBootyMix[i];

  00036	69 c0 f8 01 00
	00		 imul	 eax, 504		; 000001f8H
  0003c	8d 74 08 04	 lea	 esi, DWORD PTR [eax+ecx+4]

; 217  : 			break;
; 218  : 		}
; 219  : 	}
; 220  : 	// ----
; 221  : 	if( pBootMix == NULL )

  00040	85 f6		 test	 esi, esi
  00042	75 17		 jne	 SHORT $LN8@GetBootyRe
$LN21@GetBootyRe:

; 222  : 	{
; 223  : 		LogAddTD("[ArcaBattle][BootyExchange] Error GetBootyRewardItem() NULL");

  00044	68 00 00 00 00	 push	 OFFSET ??_C@_0DM@IMNBJCCJ@?$FLArcaBattle?$FN?$FLBootyExchange?$FN?5Erro@
  00049	ff 15 00 00 00
	00		 call	 DWORD PTR ?LogAddTD@@3P6AXPADZZA ; LogAddTD
  0004f	83 c4 04	 add	 esp, 4
  00052	5f		 pop	 edi
  00053	5e		 pop	 esi

; 224  : 		return 0;

  00054	33 c0		 xor	 eax, eax
  00056	5b		 pop	 ebx

; 273  : }

  00057	5d		 pop	 ebp
  00058	c2 08 00	 ret	 8
$LN8@GetBootyRe:

; 225  : 	}
; 226  : 	// ----
; 227  : 	iBaseRate		= pBootMix->iBaseRate;
; 228  : 	iAddRate		= pBootMix->iAddRate;
; 229  : 	iBootyRateCnt	= iBootyCnt - pBootMix->iMinCnt;

  0005b	2b 56 04	 sub	 edx, DWORD PTR [esi+4]

; 230  : 	iTotRate		= iAddRate * iBootyRateCnt + iBaseRate;

  0005e	0f af 56 10	 imul	 edx, DWORD PTR [esi+16]
  00062	03 56 0c	 add	 edx, DWORD PTR [esi+12]
  00065	8b fa		 mov	 edi, edx

; 231  : 	iRand			= GetLargeRand() % 100;

  00067	e8 00 00 00 00	 call	 ?GetLargeRand@@YAKXZ	; GetLargeRand
  0006c	33 d2		 xor	 edx, edx
  0006e	b9 64 00 00 00	 mov	 ecx, 100		; 00000064H
  00073	f7 f1		 div	 ecx

; 232  : 	// ----
; 233  : 	if( iRand <= iTotRate )

  00075	3b d7		 cmp	 edx, edi
  00077	0f 8f 88 00 00
	00		 jg	 $LN7@GetBootyRe

; 234  :     {
; 235  : 		int iSumRate;
; 236  : 		int iRewardCnt;
; 237  : 		int iRewardRand;
; 238  : 		// ----
; 239  : 		iRewardRand		= GetLargeRand() % 1000000;

  0007d	e8 00 00 00 00	 call	 ?GetLargeRand@@YAKXZ	; GetLargeRand
  00082	33 d2		 xor	 edx, edx
  00084	b9 40 42 0f 00	 mov	 ecx, 1000000		; 000f4240H
  00089	f7 f1		 div	 ecx

; 240  : 		iRewardCnt		= pBootMix->iBootyRewardCnt;
; 241  : 		iSumRate		= 0;

  0008b	33 ff		 xor	 edi, edi

; 242  : 		// ----
; 243  : 		for( int RateCnt = 0; RateCnt < iRewardCnt; RateCnt++ )

  0008d	33 c0		 xor	 eax, eax
  0008f	89 55 08	 mov	 DWORD PTR _iRewardRand$182932[ebp], edx
  00092	8b 56 14	 mov	 edx, DWORD PTR [esi+20]
  00095	85 d2		 test	 edx, edx
  00097	7e 16		 jle	 SHORT $LN22@GetBootyRe

; 234  :     {
; 235  : 		int iSumRate;
; 236  : 		int iRewardCnt;
; 237  : 		int iRewardRand;
; 238  : 		// ----
; 239  : 		iRewardRand		= GetLargeRand() % 1000000;

  00099	8d 4e 2c	 lea	 ecx, DWORD PTR [esi+44]
  0009c	8d 64 24 00	 npad	 4
$LL6@GetBootyRe:

; 244  : 		{
; 245  : 			iSumRate += pBootMix->stBootyReward[RateCnt].iRate; //Need check

  000a0	03 39		 add	 edi, DWORD PTR [ecx]

; 246  : 			// ----
; 247  : 			if( iRewardRand <= iSumRate )

  000a2	39 7d 08	 cmp	 DWORD PTR _iRewardRand$182932[ebp], edi
  000a5	7e 40		 jle	 SHORT $LN18@GetBootyRe

; 242  : 		// ----
; 243  : 		for( int RateCnt = 0; RateCnt < iRewardCnt; RateCnt++ )

  000a7	40		 inc	 eax
  000a8	83 c1 18	 add	 ecx, 24			; 00000018H
  000ab	3b c2		 cmp	 eax, edx
  000ad	7c f1		 jl	 SHORT $LL6@GetBootyRe
$LN22@GetBootyRe:

; 263  : 	}
; 264  : 	// -----
; 265  : 	pBootyRewardItem->iItemLink		= pBootMix->stBootyReward[iRewardItem].iItemLink;

  000af	8b 4d 0c	 mov	 ecx, DWORD PTR _pBootyRewardItem$[ebp]
  000b2	8d 14 5b	 lea	 edx, DWORD PTR [ebx+ebx*2]
  000b5	8d 04 d6	 lea	 eax, DWORD PTR [esi+edx*8]
  000b8	8b 50 18	 mov	 edx, DWORD PTR [eax+24]
  000bb	89 11		 mov	 DWORD PTR [ecx], edx

; 266  : 	pBootyRewardItem->iItemType		= pBootMix->stBootyReward[iRewardItem].iItemType;

  000bd	8b 50 1c	 mov	 edx, DWORD PTR [eax+28]
  000c0	89 51 04	 mov	 DWORD PTR [ecx+4], edx

; 267  : 	pBootyRewardItem->iItemIndex	= pBootMix->stBootyReward[iRewardItem].iItemIndex;

  000c3	8b 50 20	 mov	 edx, DWORD PTR [eax+32]
  000c6	89 51 08	 mov	 DWORD PTR [ecx+8], edx

; 268  : 	pBootyRewardItem->iItemLevel	= pBootMix->stBootyReward[iRewardItem].iItemLevel;

  000c9	8b 50 24	 mov	 edx, DWORD PTR [eax+36]
  000cc	89 51 0c	 mov	 DWORD PTR [ecx+12], edx

; 269  : 	pBootyRewardItem->iDurab		= pBootMix->stBootyReward[iRewardItem].iDurab;

  000cf	8b 50 28	 mov	 edx, DWORD PTR [eax+40]
  000d2	5f		 pop	 edi
  000d3	89 51 10	 mov	 DWORD PTR [ecx+16], edx

; 270  : 	pBootyRewardItem->iRate			= pBootMix->stBootyReward[iRewardItem].iRate;

  000d6	8b 40 2c	 mov	 eax, DWORD PTR [eax+44]
  000d9	5e		 pop	 esi
  000da	89 41 14	 mov	 DWORD PTR [ecx+20], eax

; 271  : 	// ----
; 272  : 	return 1;

  000dd	b8 01 00 00 00	 mov	 eax, 1
  000e2	5b		 pop	 ebx

; 273  : }

  000e3	5d		 pop	 ebp
  000e4	c2 08 00	 ret	 8
$LN18@GetBootyRe:

; 248  : 			{
; 249  : 				iRewardItem = RateCnt;

  000e7	8b d8		 mov	 ebx, eax

; 257  : 	}
; 258  : 	// ----
; 259  : 	if( iRewardItem >= 20 )

  000e9	83 f8 14	 cmp	 eax, 20			; 00000014H
  000ec	7c c1		 jl	 SHORT $LN22@GetBootyRe

; 260  :     {
; 261  : 		LogAddTD("[ArcaBattle][BootyExchange] Error Overflow iRewardItem");

  000ee	68 00 00 00 00	 push	 OFFSET ??_C@_0DH@CABOAONH@?$FLArcaBattle?$FN?$FLBootyExchange?$FN?5Erro@
  000f3	ff 15 00 00 00
	00		 call	 DWORD PTR ?LogAddTD@@3P6AXPADZZA ; LogAddTD
  000f9	83 c4 04	 add	 esp, 4
  000fc	5f		 pop	 edi
  000fd	5e		 pop	 esi

; 262  : 		return 0;

  000fe	33 c0		 xor	 eax, eax
  00100	5b		 pop	 ebx

; 273  : }

  00101	5d		 pop	 ebp
  00102	c2 08 00	 ret	 8
$LN7@GetBootyRe:
  00105	5f		 pop	 edi
  00106	5e		 pop	 esi

; 250  : 				break;
; 251  : 			}
; 252  : 		}
; 253  : 	}
; 254  : 	else
; 255  : 	{
; 256  : 		return 2;

  00107	b8 02 00 00 00	 mov	 eax, 2
  0010c	5b		 pop	 ebx

; 273  : }

  0010d	5d		 pop	 ebp
  0010e	c2 08 00	 ret	 8
?GetBootyRewardItem@CArcaBattle@@QAEHHPAU_tagARCA_BATTLE_BOOTY_REWARD@@@Z ENDP ; CArcaBattle::GetBootyRewardItem
_TEXT	ENDS
PUBLIC	?LoadScriptArcaBattle@CArcaBattle@@QAEHPAD@Z	; CArcaBattle::LoadScriptArcaBattle
; Function compile flags: /Ogtp
;	COMDAT ?LoadScriptArcaBattle@CArcaBattle@@QAEHPAD@Z
_TEXT	SEGMENT
_lpszFileName$ = 8					; size = 4
?LoadScriptArcaBattle@CArcaBattle@@QAEHPAD@Z PROC	; CArcaBattle::LoadScriptArcaBattle, COMDAT
; _this$ = ecx

; 279  : 	return 0;

  00000	33 c0		 xor	 eax, eax

; 280  : }

  00002	c2 04 00	 ret	 4
?LoadScriptArcaBattle@CArcaBattle@@QAEHPAD@Z ENDP	; CArcaBattle::LoadScriptArcaBattle
_TEXT	ENDS
PUBLIC	??_C@_0DM@GNFLODJA@?$FLArcaBAttle?$FN?5Request?5MultiCast?5R@ ; `string'
PUBLIC	??_C@_0DH@PIJJJHJH@?$FLArcaBAttle?$FN?5Request?5ExDB?5Delete@ ; `string'
PUBLIC	?ReqRemoveRewardBuffWinningGuild@CArcaBattle@@QAEXXZ ; CArcaBattle::ReqRemoveRewardBuffWinningGuild
EXTRN	?Send@DBSockMng@@QAEHPADH@Z:PROC		; DBSockMng::Send
EXTRN	?cDBSMng@@3VDBSockMng@@A:BYTE			; cDBSMng
EXTRN	?g_MapServerManager@@3VCMapServerManager@@A:BYTE ; g_MapServerManager
;	COMDAT ??_C@_0DM@GNFLODJA@?$FLArcaBAttle?$FN?5Request?5MultiCast?5R@
; File c:\muserver_dev\development\mu-s8ep2-repack\gameserver\source\mapservermanager.h
CONST	SEGMENT
??_C@_0DM@GNFLODJA@?$FLArcaBAttle?$FN?5Request?5MultiCast?5R@ DB '[ArcaBA'
	DB	'ttle] Request MultiCast Remove All Reward Guild Buff', 00H ; `string'
CONST	ENDS
;	COMDAT ??_C@_0DH@PIJJJHJH@?$FLArcaBAttle?$FN?5Request?5ExDB?5Delete@
CONST	SEGMENT
??_C@_0DH@PIJJJHJH@?$FLArcaBAttle?$FN?5Request?5ExDB?5Delete@ DB '[ArcaBA'
	DB	'ttle] Request ExDB Delete All Reward Guild Buff', 00H ; `string'
; Function compile flags: /Ogtp
; File c:\muserver_dev\development\mu-s8ep2-repack\gameserver\source\arcabattle.cpp
CONST	ENDS
;	COMDAT ?ReqRemoveRewardBuffWinningGuild@CArcaBattle@@QAEXXZ
_TEXT	SEGMENT
_pMsg$ = -8						; size = 6
?ReqRemoveRewardBuffWinningGuild@CArcaBattle@@QAEXXZ PROC ; CArcaBattle::ReqRemoveRewardBuffWinningGuild, COMDAT
; _this$ = ecx

; 407  : {

  00000	55		 push	 ebp
  00001	8b ec		 mov	 ebp, esp
  00003	83 ec 08	 sub	 esp, 8

; 408  : 	WORD wBuffIndex[AB_MAX_BATTLEPOS] = { 179, 180, 181, 182, 183 };
; 409  : //	g_BuffEffect.RequestGuildPeriodBuffDelete(wBuffIndex, AB_MAX_BATTLEPOS);
; 410  : 	LogAddTD("[ArcaBAttle] Request ExDB Delete All Reward Guild Buff");

  00006	68 00 00 00 00	 push	 OFFSET ??_C@_0DH@PIJJJHJH@?$FLArcaBAttle?$FN?5Request?5ExDB?5Delete@
  0000b	ff 15 00 00 00
	00		 call	 DWORD PTR ?LogAddTD@@3P6AXPADZZA ; LogAddTD

; 411  : 	// ----
; 412  : 	_tagPMSG_REQ_REMOVE_ALL_GUILD_BUFF_DS pMsg;
; 413  : 	// ----
; 414  : 	pMsg.h.c		= 0xC1;
; 415  : 	pMsg.h.size		= sizeof(_tagPMSG_REQ_REMOVE_ALL_GUILD_BUFF_DS);
; 416  : 	pMsg.h.headcode = 0xF8;
; 417  : 	pMsg.h.subcode	= 0x47;
; 418  : 	pMsg.wMapSvrNum = g_MapServerManager.GetMapSvrGroup();

  00011	a1 00 6b 01 00	 mov	 eax, DWORD PTR ?g_MapServerManager@@3VCMapServerManager@@A+92928
  00016	83 c4 04	 add	 esp, 4
  00019	c7 45 f8 c1 06
	f8 47		 mov	 DWORD PTR _pMsg$[ebp], 1207436993 ; 47f806c1H
  00020	85 c0		 test	 eax, eax
  00022	74 06		 je	 SHORT $LN3@ReqRemoveR
  00024	0f b6 40 08	 movzx	 eax, BYTE PTR [eax+8]
  00028	eb 03		 jmp	 SHORT $LN4@ReqRemoveR
$LN3@ReqRemoveR:
  0002a	83 c8 ff	 or	 eax, -1
$LN4@ReqRemoveR:
  0002d	66 89 45 fc	 mov	 WORD PTR _pMsg$[ebp+4], ax

; 419  : 	// ----
; 420  : 	cDBSMng.Send((PCHAR)&pMsg, sizeof(_tagPMSG_REQ_REMOVE_ALL_GUILD_BUFF_DS));

  00031	6a 06		 push	 6
  00033	8d 45 f8	 lea	 eax, DWORD PTR _pMsg$[ebp]
  00036	50		 push	 eax
  00037	b9 00 00 00 00	 mov	 ecx, OFFSET ?cDBSMng@@3VDBSockMng@@A ; cDBSMng
  0003c	e8 00 00 00 00	 call	 ?Send@DBSockMng@@QAEHPADH@Z ; DBSockMng::Send

; 421  : 	LogAddTD("[ArcaBAttle] Request MultiCast Remove All Reward Guild Buff");

  00041	68 00 00 00 00	 push	 OFFSET ??_C@_0DM@GNFLODJA@?$FLArcaBAttle?$FN?5Request?5MultiCast?5R@
  00046	ff 15 00 00 00
	00		 call	 DWORD PTR ?LogAddTD@@3P6AXPADZZA ; LogAddTD
  0004c	83 c4 04	 add	 esp, 4

; 422  : }

  0004f	8b e5		 mov	 esp, ebp
  00051	5d		 pop	 ebp
  00052	c3		 ret	 0
?ReqRemoveRewardBuffWinningGuild@CArcaBattle@@QAEXXZ ENDP ; CArcaBattle::ReqRemoveRewardBuffWinningGuild
_TEXT	ENDS
PUBLIC	??_C@_0EE@HABGEPCF@?$FLArcaBattle?$FN?5Remove?5Buff?5?$FL?$CFs?$FN?$FL?$CFs@ ; `string'
PUBLIC	??_C@_0FE@CNKNKAAD@?$FLArcaBattle?$FN?5Error?5Can?5Not?5Find?5@ ; `string'
PUBLIC	?RemoveGuildBuff@CArcaBattle@@QAEXPADG@Z	; CArcaBattle::RemoveGuildBuff
EXTRN	?gObjCalCharacter@@YAXH@Z:PROC			; gObjCalCharacter
EXTRN	?gObjRemoveBuffEffect@@YA_NPAUOBJECTSTRUCT@@H@Z:PROC ; gObjRemoveBuffEffect
EXTRN	?gObjCheckUsedBuffEffect@@YA_NPAUOBJECTSTRUCT@@H@Z:PROC ; gObjCheckUsedBuffEffect
EXTRN	?gObj@@3PAUOBJECTSTRUCT@@A:DWORD		; gObj
EXTRN	?gObjIsConnected@@YAHH@Z:PROC			; gObjIsConnected
EXTRN	?SearchGuild@CGuildClass@@QAEPAU_GUILD_INFO_STRUCT@@PAD@Z:PROC ; CGuildClass::SearchGuild
EXTRN	?Guild@@3VCGuildClass@@A:BYTE			; Guild
;	COMDAT ??_C@_0EE@HABGEPCF@?$FLArcaBattle?$FN?5Remove?5Buff?5?$FL?$CFs?$FN?$FL?$CFs@
CONST	SEGMENT
??_C@_0EE@HABGEPCF@?$FLArcaBattle?$FN?5Remove?5Buff?5?$FL?$CFs?$FN?$FL?$CFs@ DB '['
	DB	'ArcaBattle] Remove Buff [%s][%s][%s] GuildName [%s] BuffIndex'
	DB	' [%d]', 00H					; `string'
CONST	ENDS
;	COMDAT ??_C@_0FE@CNKNKAAD@?$FLArcaBattle?$FN?5Error?5Can?5Not?5Find?5@
CONST	SEGMENT
??_C@_0FE@CNKNKAAD@?$FLArcaBattle?$FN?5Error?5Can?5Not?5Find?5@ DB '[Arca'
	DB	'Battle] Error Can Not Find Guild RemoveGuildBuff() lpGuild NU'
	DB	'LL GuildName : %s', 00H			; `string'
; Function compile flags: /Ogtp
CONST	ENDS
;	COMDAT ?RemoveGuildBuff@CArcaBattle@@QAEXPADG@Z
_TEXT	SEGMENT
_nGuildCnt$183047 = -12					; size = 4
_lpGuild$ = -8						; size = 4
tv217 = -4						; size = 4
_szGuildName$ = 8					; size = 4
_wBuffIndex$ = 12					; size = 2
?RemoveGuildBuff@CArcaBattle@@QAEXPADG@Z PROC		; CArcaBattle::RemoveGuildBuff, COMDAT
; _this$ = ecx

; 476  : {

  00000	55		 push	 ebp
  00001	8b ec		 mov	 ebp, esp
  00003	83 ec 0c	 sub	 esp, 12			; 0000000cH
  00006	56		 push	 esi
  00007	57		 push	 edi

; 477  : 	_GUILD_INFO_STRUCT * lpGuild = Guild.SearchGuild(szGuildName);

  00008	8b 7d 08	 mov	 edi, DWORD PTR _szGuildName$[ebp]
  0000b	57		 push	 edi
  0000c	b9 00 00 00 00	 mov	 ecx, OFFSET ?Guild@@3VCGuildClass@@A ; Guild
  00011	e8 00 00 00 00	 call	 ?SearchGuild@CGuildClass@@QAEPAU_GUILD_INFO_STRUCT@@PAD@Z ; CGuildClass::SearchGuild
  00016	8b f0		 mov	 esi, eax
  00018	89 75 f8	 mov	 DWORD PTR _lpGuild$[ebp], esi

; 478  : 	// ----
; 479  : 	if( lpGuild == NULL )

  0001b	85 f6		 test	 esi, esi
  0001d	75 17		 jne	 SHORT $LN5@RemoveGuil

; 480  : 	{
; 481  : 		LogAddTD("[ArcaBattle] Error Can Not Find Guild RemoveGuildBuff() lpGuild NULL GuildName : %s", szGuildName);

  0001f	57		 push	 edi
  00020	68 00 00 00 00	 push	 OFFSET ??_C@_0FE@CNKNKAAD@?$FLArcaBattle?$FN?5Error?5Can?5Not?5Find?5@
  00025	ff 15 00 00 00
	00		 call	 DWORD PTR ?LogAddTD@@3P6AXPADZZA ; LogAddTD
  0002b	83 c4 08	 add	 esp, 8
  0002e	5f		 pop	 edi
  0002f	5e		 pop	 esi

; 495  : 		}
; 496  : 	}
; 497  : }

  00030	8b e5		 mov	 esp, ebp
  00032	5d		 pop	 ebp
  00033	c2 08 00	 ret	 8
$LN5@RemoveGuil:

; 482  : 		return;
; 483  : 	}
; 484  : 	// ----
; 485  : 	for( int nGuildCnt = 0; nGuildCnt < lpGuild->Count; nGuildCnt++ )

  00036	80 7e 2d 00	 cmp	 BYTE PTR [esi+45], 0
  0003a	c7 45 f4 00 00
	00 00		 mov	 DWORD PTR _nGuildCnt$183047[ebp], 0
  00041	0f 86 9c 00 00
	00		 jbe	 $LN2@RemoveGuil
  00047	8d 86 a0 03 00
	00		 lea	 eax, DWORD PTR [esi+928]
  0004d	89 45 fc	 mov	 DWORD PTR tv217[ebp], eax
  00050	53		 push	 ebx
$LL4@RemoveGuil:

; 486  :     {
; 487  : 		int iIndex = lpGuild->Index[nGuildCnt];

  00051	8b 4d fc	 mov	 ecx, DWORD PTR tv217[ebp]
  00054	0f bf 19	 movsx	 ebx, WORD PTR [ecx]

; 488  : 		// ----
; 489  : 		if( gObjIsConnected(iIndex) == 1 && gObjCheckUsedBuffEffect(&gObj[iIndex], wBuffIndex) == true )

  00057	53		 push	 ebx
  00058	e8 00 00 00 00	 call	 ?gObjIsConnected@@YAHH@Z ; gObjIsConnected
  0005d	83 c4 04	 add	 esp, 4
  00060	83 f8 01	 cmp	 eax, 1
  00063	75 66		 jne	 SHORT $LN3@RemoveGuil
  00065	0f b7 7d 0c	 movzx	 edi, WORD PTR _wBuffIndex$[ebp]
  00069	8b 15 00 00 00
	00		 mov	 edx, DWORD PTR ?gObj@@3PAUOBJECTSTRUCT@@A ; gObj
  0006f	8b f3		 mov	 esi, ebx
  00071	69 f6 40 27 00
	00		 imul	 esi, 10048		; 00002740H
  00077	8d 04 16	 lea	 eax, DWORD PTR [esi+edx]
  0007a	57		 push	 edi
  0007b	50		 push	 eax
  0007c	e8 00 00 00 00	 call	 ?gObjCheckUsedBuffEffect@@YA_NPAUOBJECTSTRUCT@@H@Z ; gObjCheckUsedBuffEffect
  00081	83 c4 08	 add	 esp, 8
  00084	3c 01		 cmp	 al, 1
  00086	75 40		 jne	 SHORT $LN10@RemoveGuil

; 490  : 		{
; 491  : 			gObjRemoveBuffEffect(&gObj[iIndex], wBuffIndex);

  00088	8b 0d 00 00 00
	00		 mov	 ecx, DWORD PTR ?gObj@@3PAUOBJECTSTRUCT@@A ; gObj
  0008e	8d 14 0e	 lea	 edx, DWORD PTR [esi+ecx]
  00091	57		 push	 edi
  00092	52		 push	 edx
  00093	e8 00 00 00 00	 call	 ?gObjRemoveBuffEffect@@YA_NPAUOBJECTSTRUCT@@H@Z ; gObjRemoveBuffEffect

; 492  : 			gObjCalCharacter(iIndex);

  00098	53		 push	 ebx
  00099	e8 00 00 00 00	 call	 ?gObjCalCharacter@@YAXH@Z ; gObjCalCharacter

; 493  : 			LogAddTD("[ArcaBattle] Remove Buff [%s][%s][%s] GuildName [%s] BuffIndex [%d]",
; 494  : 				gObj[iIndex].AccountID, gObj[iIndex].Name, gObj[iIndex].GuildName, szGuildName, wBuffIndex);

  0009e	a1 00 00 00 00	 mov	 eax, DWORD PTR ?gObj@@3PAUOBJECTSTRUCT@@A ; gObj
  000a3	8b 4d 08	 mov	 ecx, DWORD PTR _szGuildName$[ebp]
  000a6	57		 push	 edi
  000a7	51		 push	 ecx
  000a8	8d 94 06 1c 06
	00 00		 lea	 edx, DWORD PTR [esi+eax+1564]
  000af	52		 push	 edx
  000b0	8d 4c 06 5d	 lea	 ecx, DWORD PTR [esi+eax+93]
  000b4	51		 push	 ecx
  000b5	8d 54 06 52	 lea	 edx, DWORD PTR [esi+eax+82]
  000b9	52		 push	 edx
  000ba	68 00 00 00 00	 push	 OFFSET ??_C@_0EE@HABGEPCF@?$FLArcaBattle?$FN?5Remove?5Buff?5?$FL?$CFs?$FN?$FL?$CFs@
  000bf	ff 15 00 00 00
	00		 call	 DWORD PTR ?LogAddTD@@3P6AXPADZZA ; LogAddTD
  000c5	83 c4 24	 add	 esp, 36			; 00000024H
$LN10@RemoveGuil:
  000c8	8b 75 f8	 mov	 esi, DWORD PTR _lpGuild$[ebp]
$LN3@RemoveGuil:

; 482  : 		return;
; 483  : 	}
; 484  : 	// ----
; 485  : 	for( int nGuildCnt = 0; nGuildCnt < lpGuild->Count; nGuildCnt++ )

  000cb	8b 45 f4	 mov	 eax, DWORD PTR _nGuildCnt$183047[ebp]
  000ce	0f b6 4e 2d	 movzx	 ecx, BYTE PTR [esi+45]
  000d2	83 45 fc 02	 add	 DWORD PTR tv217[ebp], 2
  000d6	40		 inc	 eax
  000d7	89 45 f4	 mov	 DWORD PTR _nGuildCnt$183047[ebp], eax
  000da	3b c1		 cmp	 eax, ecx
  000dc	0f 8c 6f ff ff
	ff		 jl	 $LL4@RemoveGuil
  000e2	5b		 pop	 ebx
$LN2@RemoveGuil:
  000e3	5f		 pop	 edi
  000e4	5e		 pop	 esi

; 495  : 		}
; 496  : 	}
; 497  : }

  000e5	8b e5		 mov	 esp, ebp
  000e7	5d		 pop	 ebp
  000e8	c2 08 00	 ret	 8
?RemoveGuildBuff@CArcaBattle@@QAEXPADG@Z ENDP		; CArcaBattle::RemoveGuildBuff
_TEXT	ENDS
PUBLIC	?GetObeliskAttrToRewardBuffIndex@CArcaBattle@@QAEGH@Z ; CArcaBattle::GetObeliskAttrToRewardBuffIndex
; Function compile flags: /Ogtp
;	COMDAT ?GetObeliskAttrToRewardBuffIndex@CArcaBattle@@QAEGH@Z
_TEXT	SEGMENT
_iObeliskAttr$ = 8					; size = 4
?GetObeliskAttrToRewardBuffIndex@CArcaBattle@@QAEGH@Z PROC ; CArcaBattle::GetObeliskAttrToRewardBuffIndex, COMDAT
; _this$ = ecx

; 522  : {

  00000	55		 push	 ebp
  00001	8b ec		 mov	 ebp, esp

; 523  : 	WORD wBuffIndex = 0;
; 524  : 	// ----
; 525  : 	switch(iObeliskAttr)

  00003	8b 4d 08	 mov	 ecx, DWORD PTR _iObeliskAttr$[ebp]
  00006	49		 dec	 ecx
  00007	33 c0		 xor	 eax, eax
  00009	83 f9 04	 cmp	 ecx, 4
  0000c	77 30		 ja	 SHORT $LN6@GetObelisk
  0000e	ff 24 8d 00 00
	00 00		 jmp	 DWORD PTR $LN10@GetObelisk[ecx*4]
$LN5@GetObelisk:

; 526  : 	{
; 527  : 	case AB_OBELISK_FIRE:
; 528  : 		wBuffIndex = 179;

  00015	b8 b3 00 00 00	 mov	 eax, 179		; 000000b3H

; 541  : 		break;
; 542  : 	}
; 543  : 	// ----
; 544  : 	return wBuffIndex;
; 545  : }

  0001a	5d		 pop	 ebp
  0001b	c2 04 00	 ret	 4
$LN4@GetObelisk:

; 529  : 		break;
; 530  : 	case AB_OBELISK_WATER:
; 531  : 		wBuffIndex = 180;

  0001e	b8 b4 00 00 00	 mov	 eax, 180		; 000000b4H

; 541  : 		break;
; 542  : 	}
; 543  : 	// ----
; 544  : 	return wBuffIndex;
; 545  : }

  00023	5d		 pop	 ebp
  00024	c2 04 00	 ret	 4
$LN3@GetObelisk:

; 532  : 		break;
; 533  : 	case AB_OBELISK_WIND:
; 534  : 		wBuffIndex = 181;

  00027	b8 b5 00 00 00	 mov	 eax, 181		; 000000b5H

; 541  : 		break;
; 542  : 	}
; 543  : 	// ----
; 544  : 	return wBuffIndex;
; 545  : }

  0002c	5d		 pop	 ebp
  0002d	c2 04 00	 ret	 4
$LN2@GetObelisk:

; 535  : 		break;
; 536  : 	case AB_OBELISK_EARTH:
; 537  : 		wBuffIndex = 182;

  00030	b8 b6 00 00 00	 mov	 eax, 182		; 000000b6H

; 541  : 		break;
; 542  : 	}
; 543  : 	// ----
; 544  : 	return wBuffIndex;
; 545  : }

  00035	5d		 pop	 ebp
  00036	c2 04 00	 ret	 4
$LN1@GetObelisk:

; 538  : 		break;
; 539  : 	case AB_OBELISK_DARKNESS:
; 540  : 		wBuffIndex = 183;

  00039	b8 b7 00 00 00	 mov	 eax, 183		; 000000b7H
$LN6@GetObelisk:

; 541  : 		break;
; 542  : 	}
; 543  : 	// ----
; 544  : 	return wBuffIndex;
; 545  : }

  0003e	5d		 pop	 ebp
  0003f	c2 04 00	 ret	 4
  00042	8b ff		 npad	 2
$LN10@GetObelisk:
  00044	00 00 00 00	 DD	 $LN5@GetObelisk
  00048	00 00 00 00	 DD	 $LN4@GetObelisk
  0004c	00 00 00 00	 DD	 $LN3@GetObelisk
  00050	00 00 00 00	 DD	 $LN2@GetObelisk
  00054	00 00 00 00	 DD	 $LN1@GetObelisk
?GetObeliskAttrToRewardBuffIndex@CArcaBattle@@QAEGH@Z ENDP ; CArcaBattle::GetObeliskAttrToRewardBuffIndex
_TEXT	ENDS
PUBLIC	?IsArcaBattleWinGuild@CArcaBattle@@QAEHAAUOBJECTSTRUCT@@@Z ; CArcaBattle::IsArcaBattleWinGuild
; Function compile flags: /Ogtp
;	COMDAT ?IsArcaBattleWinGuild@CArcaBattle@@QAEHAAUOBJECTSTRUCT@@@Z
_TEXT	SEGMENT
tv130 = 8						; size = 4
_obj$ = 8						; size = 4
?IsArcaBattleWinGuild@CArcaBattle@@QAEHAAUOBJECTSTRUCT@@@Z PROC ; CArcaBattle::IsArcaBattleWinGuild, COMDAT
; _this$ = ecx

; 580  : {

  00000	55		 push	 ebp
  00001	8b ec		 mov	 ebp, esp

; 581  : 	if( obj.lpGuild == NULL )

  00003	8b 45 08	 mov	 eax, DWORD PTR _obj$[ebp]
  00006	53		 push	 ebx
  00007	8b 98 18 06 00
	00		 mov	 ebx, DWORD PTR [eax+1560]
  0000d	85 db		 test	 ebx, ebx
  0000f	75 07		 jne	 SHORT $LN6@IsArcaBatt

; 582  : 	{
; 583  : 		return false;

  00011	33 c0		 xor	 eax, eax
  00013	5b		 pop	 ebx

; 598  : }

  00014	5d		 pop	 ebp
  00015	c2 04 00	 ret	 4
$LN6@IsArcaBatt:
  00018	56		 push	 esi
  00019	57		 push	 edi

; 584  : 	}
; 585  : 	// ----
; 586  : 	for( int i = 0; i < AB_MAX_BATTLEPOS; i++ )

  0001a	33 ff		 xor	 edi, edi
  0001c	8d b1 b8 33 00
	00		 lea	 esi, DWORD PTR [ecx+13240]
$LL5@IsArcaBatt:

; 587  : 	{
; 588  : 		if( !strcmp(obj.lpGuild->Name, this->m_stABWinGuildInfo[i].szGuildName) )

  00022	8d 4e f4	 lea	 ecx, DWORD PTR [esi-12]
  00025	8d 43 04	 lea	 eax, DWORD PTR [ebx+4]
$LL12@IsArcaBatt:
  00028	8a 10		 mov	 dl, BYTE PTR [eax]
  0002a	3a 11		 cmp	 dl, BYTE PTR [ecx]
  0002c	75 1a		 jne	 SHORT $LN13@IsArcaBatt
  0002e	84 d2		 test	 dl, dl
  00030	74 12		 je	 SHORT $LN14@IsArcaBatt
  00032	8a 50 01	 mov	 dl, BYTE PTR [eax+1]
  00035	3a 51 01	 cmp	 dl, BYTE PTR [ecx+1]
  00038	75 0e		 jne	 SHORT $LN13@IsArcaBatt
  0003a	83 c0 02	 add	 eax, 2
  0003d	83 c1 02	 add	 ecx, 2
  00040	84 d2		 test	 dl, dl
  00042	75 e4		 jne	 SHORT $LL12@IsArcaBatt
$LN14@IsArcaBatt:
  00044	33 c0		 xor	 eax, eax
  00046	eb 05		 jmp	 SHORT $LN15@IsArcaBatt
$LN13@IsArcaBatt:
  00048	1b c0		 sbb	 eax, eax
  0004a	83 d8 ff	 sbb	 eax, -1
$LN15@IsArcaBatt:
  0004d	85 c0		 test	 eax, eax
  0004f	75 08		 jne	 SHORT $LN4@IsArcaBatt

; 589  : 		{
; 590  : 			if( obj.lpGuild->Number == this->m_stABWinGuildInfo[i].dwGuild )

  00051	8b cb		 mov	 ecx, ebx
  00053	8b 11		 mov	 edx, DWORD PTR [ecx]
  00055	3b 16		 cmp	 edx, DWORD PTR [esi]
  00057	74 12		 je	 SHORT $LN10@IsArcaBatt
$LN4@IsArcaBatt:

; 584  : 	}
; 585  : 	// ----
; 586  : 	for( int i = 0; i < AB_MAX_BATTLEPOS; i++ )

  00059	47		 inc	 edi
  0005a	83 c6 14	 add	 esi, 20			; 00000014H
  0005d	83 ff 05	 cmp	 edi, 5
  00060	7c c0		 jl	 SHORT $LL5@IsArcaBatt

; 593  : 			}
; 594  : 		}
; 595  : 	}
; 596  : 	// ----
; 597  : 	return false;

  00062	5f		 pop	 edi
  00063	5e		 pop	 esi
  00064	33 c0		 xor	 eax, eax
  00066	5b		 pop	 ebx

; 598  : }

  00067	5d		 pop	 ebp
  00068	c2 04 00	 ret	 4
$LN10@IsArcaBatt:
  0006b	5f		 pop	 edi
  0006c	5e		 pop	 esi

; 591  : 			{
; 592  : 				return true;

  0006d	b8 01 00 00 00	 mov	 eax, 1
  00072	5b		 pop	 ebx

; 598  : }

  00073	5d		 pop	 ebp
  00074	c2 04 00	 ret	 4
?IsArcaBattleWinGuild@CArcaBattle@@QAEHAAUOBJECTSTRUCT@@@Z ENDP ; CArcaBattle::IsArcaBattleWinGuild
_TEXT	ENDS
PUBLIC	?IsArcaBattleOccupyZone@CArcaBattle@@QAEHAAUOBJECTSTRUCT@@H@Z ; CArcaBattle::IsArcaBattleOccupyZone
; Function compile flags: /Ogtp
;	COMDAT ?IsArcaBattleOccupyZone@CArcaBattle@@QAEHAAUOBJECTSTRUCT@@H@Z
_TEXT	SEGMENT
_obj$ = 8						; size = 4
_gt$ = 12						; size = 4
?IsArcaBattleOccupyZone@CArcaBattle@@QAEHAAUOBJECTSTRUCT@@H@Z PROC ; CArcaBattle::IsArcaBattleOccupyZone, COMDAT
; _this$ = ecx

; 603  : {

  00000	55		 push	 ebp
  00001	8b ec		 mov	 ebp, esp

; 604  : 	if( obj.lpGuild == NULL )

  00003	8b 45 08	 mov	 eax, DWORD PTR _obj$[ebp]
  00006	8b 80 18 06 00
	00		 mov	 eax, DWORD PTR [eax+1560]
  0000c	85 c0		 test	 eax, eax
  0000e	75 06		 jne	 SHORT $LN9@IsArcaBatt@2
$LN24@IsArcaBatt@2:

; 605  : 	{
; 606  : 		return false;

  00010	33 c0		 xor	 eax, eax

; 627  : }

  00012	5d		 pop	 ebp
  00013	c2 08 00	 ret	 8
$LN9@IsArcaBatt@2:

; 607  : 	}
; 608  : 	// ---
; 609  : 	if( gt != 418 && gt != 422 )

  00016	8b 55 0c	 mov	 edx, DWORD PTR _gt$[ebp]
  00019	81 fa a2 01 00
	00		 cmp	 edx, 418		; 000001a2H
  0001f	74 08		 je	 SHORT $LN8@IsArcaBatt@2
  00021	81 fa a6 01 00
	00		 cmp	 edx, 422		; 000001a6H

; 610  :     {
; 611  : 		return false;

  00027	75 e7		 jne	 SHORT $LN24@IsArcaBatt@2
$LN8@IsArcaBatt@2:
  00029	53		 push	 ebx
  0002a	56		 push	 esi
  0002b	57		 push	 edi

; 612  : 	}
; 613  : 	// ----
; 614  : 	for( int i = 0; i < AB_MAX_BATTLEPOS; i++ )

  0002c	33 ff		 xor	 edi, edi
  0002e	8d 58 04	 lea	 ebx, DWORD PTR [eax+4]
  00031	8d b1 be 33 00
	00		 lea	 esi, DWORD PTR [ecx+13246]
$LL7@IsArcaBatt@2:

; 615  : 	{
; 616  : 		if( !strcmp(obj.lpGuild->Name, this->m_stABWinGuildInfo[i].szGuildName) )

  00037	8d 4e ee	 lea	 ecx, DWORD PTR [esi-18]
  0003a	8b c3		 mov	 eax, ebx
  0003c	8d 64 24 00	 npad	 4
$LL14@IsArcaBatt@2:
  00040	8a 10		 mov	 dl, BYTE PTR [eax]
  00042	3a 11		 cmp	 dl, BYTE PTR [ecx]
  00044	75 1a		 jne	 SHORT $LN15@IsArcaBatt@2
  00046	84 d2		 test	 dl, dl
  00048	74 12		 je	 SHORT $LN16@IsArcaBatt@2
  0004a	8a 50 01	 mov	 dl, BYTE PTR [eax+1]
  0004d	3a 51 01	 cmp	 dl, BYTE PTR [ecx+1]
  00050	75 0e		 jne	 SHORT $LN15@IsArcaBatt@2
  00052	83 c0 02	 add	 eax, 2
  00055	83 c1 02	 add	 ecx, 2
  00058	84 d2		 test	 dl, dl
  0005a	75 e4		 jne	 SHORT $LL14@IsArcaBatt@2
$LN16@IsArcaBatt@2:
  0005c	33 c0		 xor	 eax, eax
  0005e	eb 05		 jmp	 SHORT $LN17@IsArcaBatt@2
$LN15@IsArcaBatt@2:
  00060	1b c0		 sbb	 eax, eax
  00062	83 d8 ff	 sbb	 eax, -1
$LN17@IsArcaBatt@2:
  00065	85 c0		 test	 eax, eax
  00067	75 1d		 jne	 SHORT $LN6@IsArcaBatt@2

; 617  : 		{
; 618  : 			if(		gt == 418 && this->m_stABWinGuildInfo[i].wObeliskGroup == 1 
; 619  : 				||	gt == 422 && this->m_stABWinGuildInfo[i].wObeliskGroup == 2 )	//Maybe it obelist attr (dark, earth...)

  00069	8b 45 0c	 mov	 eax, DWORD PTR _gt$[ebp]
  0006c	3d a2 01 00 00	 cmp	 eax, 418		; 000001a2H
  00071	75 06		 jne	 SHORT $LN1@IsArcaBatt@2
  00073	66 83 3e 01	 cmp	 WORD PTR [esi], 1
  00077	eb 0b		 jmp	 SHORT $LN23@IsArcaBatt@2
$LN1@IsArcaBatt@2:
  00079	3d a6 01 00 00	 cmp	 eax, 422		; 000001a6H
  0007e	75 06		 jne	 SHORT $LN6@IsArcaBatt@2
  00080	66 83 3e 02	 cmp	 WORD PTR [esi], 2
$LN23@IsArcaBatt@2:
  00084	74 12		 je	 SHORT $LN19@IsArcaBatt@2
$LN6@IsArcaBatt@2:

; 612  : 	}
; 613  : 	// ----
; 614  : 	for( int i = 0; i < AB_MAX_BATTLEPOS; i++ )

  00086	47		 inc	 edi
  00087	83 c6 14	 add	 esi, 20			; 00000014H
  0008a	83 ff 05	 cmp	 edi, 5
  0008d	7c a8		 jl	 SHORT $LL7@IsArcaBatt@2

; 622  : 			}
; 623  : 		}
; 624  : 	}
; 625  : 	// ----
; 626  : 	return false;

  0008f	5f		 pop	 edi
  00090	5e		 pop	 esi
  00091	33 c0		 xor	 eax, eax
  00093	5b		 pop	 ebx

; 627  : }

  00094	5d		 pop	 ebp
  00095	c2 08 00	 ret	 8
$LN19@IsArcaBatt@2:
  00098	5f		 pop	 edi
  00099	5e		 pop	 esi

; 620  : 			{
; 621  : 				return true;

  0009a	b8 01 00 00 00	 mov	 eax, 1
  0009f	5b		 pop	 ebx

; 627  : }

  000a0	5d		 pop	 ebp
  000a1	c2 08 00	 ret	 8
?IsArcaBattleOccupyZone@CArcaBattle@@QAEHAAUOBJECTSTRUCT@@H@Z ENDP ; CArcaBattle::IsArcaBattleOccupyZone
_TEXT	ENDS
PUBLIC	__$ArrayPad$
PUBLIC	?SendArcaBattleOccupyZone@CArcaBattle@@QAEXAAUOBJECTSTRUCT@@H@Z ; CArcaBattle::SendArcaBattleOccupyZone
EXTRN	?DataSend@@YAHHPAEK@Z:PROC			; DataSend
; Function compile flags: /Ogtp
;	COMDAT ?SendArcaBattleOccupyZone@CArcaBattle@@QAEXAAUOBJECTSTRUCT@@H@Z
_TEXT	SEGMENT
_pMsg$ = -20						; size = 13
__$ArrayPad$ = -4					; size = 4
_obj$ = 8						; size = 4
_gt$ = 12						; size = 4
?SendArcaBattleOccupyZone@CArcaBattle@@QAEXAAUOBJECTSTRUCT@@H@Z PROC ; CArcaBattle::SendArcaBattleOccupyZone, COMDAT
; _this$ = ecx

; 632  : {

  00000	55		 push	 ebp
  00001	8b ec		 mov	 ebp, esp
  00003	83 ec 14	 sub	 esp, 20			; 00000014H
  00006	a1 00 00 00 00	 mov	 eax, DWORD PTR ___security_cookie
  0000b	33 c5		 xor	 eax, ebp
  0000d	89 45 fc	 mov	 DWORD PTR __$ArrayPad$[ebp], eax

; 633  : 	_tagPMSG_SEND_AB_WIN_GUILD_INFO pMsg;
; 634  : 	bool bSend = false;
; 635  : 	// ----
; 636  : 	pMsg.h.c		= 0xC1;
; 637  : 	pMsg.h.size		= sizeof(_tagPMSG_SEND_AB_WIN_GUILD_INFO);
; 638  : 	pMsg.h.headcode	= 0xF8;
; 639  : 	pMsg.h.subcode	= 0x3D;
; 640  : 	// ----
; 641  : 	if( gt == 418 || gt == 422 )

  00010	8b 55 0c	 mov	 edx, DWORD PTR _gt$[ebp]
  00013	56		 push	 esi
  00014	57		 push	 edi
  00015	8b 7d 08	 mov	 edi, DWORD PTR _obj$[ebp]
  00018	8b f1		 mov	 esi, ecx
  0001a	c7 45 ec c1 0d
	f8 3d		 mov	 DWORD PTR _pMsg$[ebp], 1039666625 ; 3df80dc1H
  00021	81 fa a2 01 00
	00		 cmp	 edx, 418		; 000001a2H
  00027	74 08		 je	 SHORT $LN7@SendArcaBa
  00029	81 fa a6 01 00
	00		 cmp	 edx, 422		; 000001a6H
  0002f	75 7b		 jne	 SHORT $LN4@SendArcaBa
$LN7@SendArcaBa:

; 642  : 	{
; 643  : 		for( int i = 0; i < AB_MAX_BATTLEPOS; i++ )

  00031	33 c0		 xor	 eax, eax
  00033	8d 8e be 33 00
	00		 lea	 ecx, DWORD PTR [esi+13246]
  00039	8d a4 24 00 00
	00 00		 npad	 7
$LL6@SendArcaBa:

; 644  : 		{
; 645  : 			if(		gt == 418 && this->m_stABWinGuildInfo[i].wObeliskGroup == 1 
; 646  : 				||	gt == 422 && this->m_stABWinGuildInfo[i].wObeliskGroup == 2 )	//Maybe it obelist attr (dark, earth...)

  00040	81 fa a2 01 00
	00		 cmp	 edx, 418		; 000001a2H
  00046	75 06		 jne	 SHORT $LN1@SendArcaBa
  00048	66 83 39 01	 cmp	 WORD PTR [ecx], 1
  0004c	eb 0c		 jmp	 SHORT $LN13@SendArcaBa
$LN1@SendArcaBa:
  0004e	81 fa a6 01 00
	00		 cmp	 edx, 422		; 000001a6H
  00054	75 06		 jne	 SHORT $LN5@SendArcaBa
  00056	66 83 39 02	 cmp	 WORD PTR [ecx], 2
$LN13@SendArcaBa:
  0005a	74 1b		 je	 SHORT $LN2@SendArcaBa
$LN5@SendArcaBa:

; 642  : 	{
; 643  : 		for( int i = 0; i < AB_MAX_BATTLEPOS; i++ )

  0005c	40		 inc	 eax
  0005d	83 c1 14	 add	 ecx, 20			; 00000014H
  00060	83 f8 05	 cmp	 eax, 5
  00063	7c db		 jl	 SHORT $LL6@SendArcaBa
  00065	5f		 pop	 edi
  00066	5e		 pop	 esi

; 650  : 				break;
; 651  : 			}
; 652  : 		}
; 653  : 	}
; 654  : }

  00067	8b 4d fc	 mov	 ecx, DWORD PTR __$ArrayPad$[ebp]
  0006a	33 cd		 xor	 ecx, ebp
  0006c	e8 00 00 00 00	 call	 @__security_check_cookie@4
  00071	8b e5		 mov	 esp, ebp
  00073	5d		 pop	 ebp
  00074	c2 08 00	 ret	 8
$LN2@SendArcaBa:

; 647  : 			{
; 648  : 				memcpy(pMsg.szGuildName, this->m_stABWinGuildInfo[i].szGuildName, 9); //MAX_GUILD_NAME define

  00077	8d 04 80	 lea	 eax, DWORD PTR [eax+eax*4]
  0007a	8b 8c 86 ac 33
	00 00		 mov	 ecx, DWORD PTR [esi+eax*4+13228]
  00081	8b 94 86 b0 33
	00 00		 mov	 edx, DWORD PTR [esi+eax*4+13232]
  00088	8d 84 86 ac 33
	00 00		 lea	 eax, DWORD PTR [esi+eax*4+13228]
  0008f	8a 40 08	 mov	 al, BYTE PTR [eax+8]
  00092	89 4d f0	 mov	 DWORD PTR _pMsg$[ebp+4], ecx

; 649  : 				DataSend(obj.m_Index, (LPBYTE)&pMsg, sizeof(_tagPMSG_SEND_AB_WIN_GUILD_INFO));

  00095	6a 0d		 push	 13			; 0000000dH
  00097	8d 4d ec	 lea	 ecx, DWORD PTR _pMsg$[ebp]
  0009a	89 55 f4	 mov	 DWORD PTR _pMsg$[ebp+8], edx
  0009d	8b 17		 mov	 edx, DWORD PTR [edi]
  0009f	51		 push	 ecx
  000a0	52		 push	 edx
  000a1	88 45 f8	 mov	 BYTE PTR _pMsg$[ebp+12], al
  000a4	e8 00 00 00 00	 call	 ?DataSend@@YAHHPAEK@Z	; DataSend
  000a9	83 c4 0c	 add	 esp, 12			; 0000000cH
$LN4@SendArcaBa:

; 650  : 				break;
; 651  : 			}
; 652  : 		}
; 653  : 	}
; 654  : }

  000ac	8b 4d fc	 mov	 ecx, DWORD PTR __$ArrayPad$[ebp]
  000af	5f		 pop	 edi
  000b0	33 cd		 xor	 ecx, ebp
  000b2	5e		 pop	 esi
  000b3	e8 00 00 00 00	 call	 @__security_check_cookie@4
  000b8	8b e5		 mov	 esp, ebp
  000ba	5d		 pop	 ebp
  000bb	c2 08 00	 ret	 8
?SendArcaBattleOccupyZone@CArcaBattle@@QAEXAAUOBJECTSTRUCT@@H@Z ENDP ; CArcaBattle::SendArcaBattleOccupyZone
_TEXT	ENDS
PUBLIC	?CheckSync@CArcaBattle@@QAEHXZ			; CArcaBattle::CheckSync
; Function compile flags: /Ogtp
;	COMDAT ?CheckSync@CArcaBattle@@QAEHXZ
_TEXT	SEGMENT
?CheckSync@CArcaBattle@@QAEHXZ PROC			; CArcaBattle::CheckSync, COMDAT
; _this$ = ecx

; 679  : 	return 0;

  00000	33 c0		 xor	 eax, eax

; 680  : }

  00002	c3		 ret	 0
?CheckSync@CArcaBattle@@QAEHXZ ENDP			; CArcaBattle::CheckSync
_TEXT	ENDS
PUBLIC	?SetStateClosed@CArcaBattle@@QAEXXZ		; CArcaBattle::SetStateClosed
; Function compile flags: /Ogtp
;	COMDAT ?SetStateClosed@CArcaBattle@@QAEXXZ
_TEXT	SEGMENT
?SetStateClosed@CArcaBattle@@QAEXXZ PROC		; CArcaBattle::SetStateClosed, COMDAT
; _this$ = ecx

; 720  : 	//Unfilled
; 721  : }

  00000	c3		 ret	 0
?SetStateClosed@CArcaBattle@@QAEXXZ ENDP		; CArcaBattle::SetStateClosed
_TEXT	ENDS
PUBLIC	?GetState@CArcaBattle@@QAEHXZ			; CArcaBattle::GetState
; Function compile flags: /Ogtp
;	COMDAT ?GetState@CArcaBattle@@QAEHXZ
_TEXT	SEGMENT
?GetState@CArcaBattle@@QAEHXZ PROC			; CArcaBattle::GetState, COMDAT
; _this$ = ecx

; 742  : 	return this->m_iAB_State;

  00000	8b 81 28 34 00
	00		 mov	 eax, DWORD PTR [ecx+13352]

; 743  : }

  00006	c3		 ret	 0
?GetState@CArcaBattle@@QAEHXZ ENDP			; CArcaBattle::GetState
_TEXT	ENDS
PUBLIC	?GetDataLoadState@CArcaBattle@@QAEHXZ		; CArcaBattle::GetDataLoadState
; Function compile flags: /Ogtp
;	COMDAT ?GetDataLoadState@CArcaBattle@@QAEHXZ
_TEXT	SEGMENT
?GetDataLoadState@CArcaBattle@@QAEHXZ PROC		; CArcaBattle::GetDataLoadState, COMDAT
; _this$ = ecx

; 749  : 	return this->m_iArcaBattleLoadState;

  00000	8b 81 1c 34 00
	00		 mov	 eax, DWORD PTR [ecx+13340]

; 750  : }

  00006	c3		 ret	 0
?GetDataLoadState@CArcaBattle@@QAEHXZ ENDP		; CArcaBattle::GetDataLoadState
_TEXT	ENDS
PUBLIC	?SetDataLoadState@CArcaBattle@@QAEXH@Z		; CArcaBattle::SetDataLoadState
; Function compile flags: /Ogtp
;	COMDAT ?SetDataLoadState@CArcaBattle@@QAEXH@Z
_TEXT	SEGMENT
_iDataLoadState$ = 8					; size = 4
?SetDataLoadState@CArcaBattle@@QAEXH@Z PROC		; CArcaBattle::SetDataLoadState, COMDAT
; _this$ = ecx

; 755  : {

  00000	55		 push	 ebp
  00001	8b ec		 mov	 ebp, esp

; 756  : 	this->m_iArcaBattleLoadState = iDataLoadState;

  00003	8b 45 08	 mov	 eax, DWORD PTR _iDataLoadState$[ebp]
  00006	89 81 1c 34 00
	00		 mov	 DWORD PTR [ecx+13340], eax

; 757  : }

  0000c	5d		 pop	 ebp
  0000d	c2 04 00	 ret	 4
?SetDataLoadState@CArcaBattle@@QAEXH@Z ENDP		; CArcaBattle::SetDataLoadState
_TEXT	ENDS
PUBLIC	??_C@_0DP@FOHPCHEJ@?$FLArcaBattle?$FN?5CArcaBattle?3?3DBData@ ; `string'
PUBLIC	??_C@_0DP@BPHKINJM@?$FLArcaBattle?$FN?5CArcaBattle?3?3DBData@ ; `string'
PUBLIC	?DBDataRequest@CArcaBattle@@QAEHXZ		; CArcaBattle::DBDataRequest
EXTRN	?LogAddC@@3P6AXEPADZZA:DWORD			; LogAddC
EXTRN	__imp__GetTickCount@0:PROC
;	COMDAT ??_C@_0DP@FOHPCHEJ@?$FLArcaBattle?$FN?5CArcaBattle?3?3DBData@
CONST	SEGMENT
??_C@_0DP@FOHPCHEJ@?$FLArcaBattle?$FN?5CArcaBattle?3?3DBData@ DB '[ArcaBa'
	DB	'ttle] CArcaBattle::DBDataRequest() - REQUEST DATA AGAIN', 00H ; `string'
CONST	ENDS
;	COMDAT ??_C@_0DP@BPHKINJM@?$FLArcaBattle?$FN?5CArcaBattle?3?3DBData@
CONST	SEGMENT
??_C@_0DP@BPHKINJM@?$FLArcaBattle?$FN?5CArcaBattle?3?3DBData@ DB '[ArcaBa'
	DB	'ttle] CArcaBattle::DBDataRequest() - REQUEST DATA FIRST', 00H ; `string'
; Function compile flags: /Ogtp
CONST	ENDS
;	COMDAT ?DBDataRequest@CArcaBattle@@QAEHXZ
_TEXT	SEGMENT
?DBDataRequest@CArcaBattle@@QAEHXZ PROC			; CArcaBattle::DBDataRequest, COMDAT
; _this$ = ecx

; 762  : {

  00000	56		 push	 esi
  00001	8b f1		 mov	 esi, ecx

; 763  : 	BOOL bDbRequestData = false;
; 764  : 	// ----
; 765  : 	if( !this->m_dwDbDataLoadTickCount )

  00003	83 be 44 34 00
	00 00		 cmp	 DWORD PTR [esi+13380], 0
  0000a	75 23		 jne	 SHORT $LN3@DBDataRequ

; 766  : 	{
; 767  : 		bDbRequestData = true;
; 768  : 		this->m_dwDbDataLoadTickCount = GetTickCount();

  0000c	ff 15 00 00 00
	00		 call	 DWORD PTR __imp__GetTickCount@0

; 769  : 		LogAddC(3, "[ArcaBattle] CArcaBattle::DBDataRequest() - REQUEST DATA FIRST");

  00012	68 00 00 00 00	 push	 OFFSET ??_C@_0DP@BPHKINJM@?$FLArcaBattle?$FN?5CArcaBattle?3?3DBData@
  00017	6a 03		 push	 3
  00019	89 86 44 34 00
	00		 mov	 DWORD PTR [esi+13380], eax
  0001f	ff 15 00 00 00
	00		 call	 DWORD PTR ?LogAddC@@3P6AXEPADZZA ; LogAddC
  00025	83 c4 08	 add	 esp, 8

; 776  : 	}
; 777  : 	// ----
; 778  : 	return true;

  00028	b8 01 00 00 00	 mov	 eax, 1
  0002d	5e		 pop	 esi

; 779  : }

  0002e	c3		 ret	 0
$LN3@DBDataRequ:
  0002f	57		 push	 edi

; 770  : 	}
; 771  : 	else if( GetTickCount() - this->m_dwDbDataLoadTickCount > 3000 )

  00030	8b 3d 00 00 00
	00		 mov	 edi, DWORD PTR __imp__GetTickCount@0
  00036	ff d7		 call	 edi
  00038	2b 86 44 34 00
	00		 sub	 eax, DWORD PTR [esi+13380]
  0003e	3d b8 0b 00 00	 cmp	 eax, 3000		; 00000bb8H
  00043	76 18		 jbe	 SHORT $LN6@DBDataRequ

; 772  : 	{
; 773  : 		bDbRequestData = true;
; 774  : 		this->m_dwDbDataLoadTickCount = GetTickCount();

  00045	ff d7		 call	 edi

; 775  : 		LogAddC(2, "[ArcaBattle] CArcaBattle::DBDataRequest() - REQUEST DATA AGAIN");

  00047	68 00 00 00 00	 push	 OFFSET ??_C@_0DP@FOHPCHEJ@?$FLArcaBattle?$FN?5CArcaBattle?3?3DBData@
  0004c	6a 02		 push	 2
  0004e	89 86 44 34 00
	00		 mov	 DWORD PTR [esi+13380], eax
  00054	ff 15 00 00 00
	00		 call	 DWORD PTR ?LogAddC@@3P6AXEPADZZA ; LogAddC
  0005a	83 c4 08	 add	 esp, 8
$LN6@DBDataRequ:

; 776  : 	}
; 777  : 	// ----
; 778  : 	return true;

  0005d	5f		 pop	 edi
  0005e	b8 01 00 00 00	 mov	 eax, 1
  00063	5e		 pop	 esi

; 779  : }

  00064	c3		 ret	 0
?DBDataRequest@CArcaBattle@@QAEHXZ ENDP			; CArcaBattle::DBDataRequest
_TEXT	ENDS
PUBLIC	??_C@_0DF@FMIEONML@?$FLArcaBattle?$FN?$FLMonsterGroupRegen?$FN?5@ ; `string'
PUBLIC	?DeleteArcaBattleAllMonster@CArcaBattle@@QAEXXZ	; CArcaBattle::DeleteArcaBattleAllMonster
EXTRN	?LogAdd@@3P6AXPADZZA:DWORD			; LogAdd
EXTRN	?gObjDel@@YAFH@Z:PROC				; gObjDel
;	COMDAT ??_C@_0DF@FMIEONML@?$FLArcaBattle?$FN?$FLMonsterGroupRegen?$FN?5@
CONST	SEGMENT
??_C@_0DF@FMIEONML@?$FLArcaBattle?$FN?$FLMonsterGroupRegen?$FN?5@ DB '[Ar'
	DB	'caBattle][MonsterGroupRegen] Delete Monster - %d ', 00H ; `string'
; Function compile flags: /Ogtp
CONST	ENDS
;	COMDAT ?DeleteArcaBattleAllMonster@CArcaBattle@@QAEXXZ
_TEXT	SEGMENT
_this$ = -16						; size = 4
tv378 = -12						; size = 4
_nGroupNumber$183335 = -8				; size = 4
tv72 = -4						; size = 4
?DeleteArcaBattleAllMonster@CArcaBattle@@QAEXXZ PROC	; CArcaBattle::DeleteArcaBattleAllMonster, COMDAT
; _this$ = ecx

; 1221 : {

  00000	55		 push	 ebp
  00001	8b ec		 mov	 ebp, esp
  00003	83 ec 10	 sub	 esp, 16			; 00000010H
  00006	53		 push	 ebx
  00007	8b d9		 mov	 ebx, ecx
  00009	56		 push	 esi

; 1222 : 	for( int nGroupNumber = 0; nGroupNumber < AB_MAX_MONGROUP; nGroupNumber++ )

  0000a	33 c9		 xor	 ecx, ecx
  0000c	8d b3 04 e3 00
	00		 lea	 esi, DWORD PTR [ebx+58116]
  00012	57		 push	 edi
  00013	89 5d f0	 mov	 DWORD PTR _this$[ebp], ebx
  00016	89 4d f8	 mov	 DWORD PTR _nGroupNumber$183335[ebp], ecx
  00019	89 75 f4	 mov	 DWORD PTR tv378[ebp], esi
  0001c	8d 64 24 00	 npad	 4
$LL20@DeleteArca:

; 1223 : 	{
; 1224 : 		if( this->m_stMonsterGroupInfo[nGroupNumber].m_nGroupNumber < 0 )

  00020	83 7e ec 00	 cmp	 DWORD PTR [esi-20], 0
  00024	7c 62		 jl	 SHORT $LN8@DeleteArca

; 1225 : 		{
; 1226 : 			continue;
; 1227 : 		}
; 1228 : 		// ----
; 1229 : 		if( !AB_CHECKMONGROUP(nGroupNumber) ) //ahah, paranoid wz

  00026	85 c9		 test	 ecx, ecx
  00028	78 70		 js	 SHORT $LN19@DeleteArca
  0002a	33 c0		 xor	 eax, eax
  0002c	83 f9 31	 cmp	 ecx, 49			; 00000031H
  0002f	0f 9e c0	 setle	 al
  00032	85 c0		 test	 eax, eax
  00034	74 64		 je	 SHORT $LN19@DeleteArca

; 1230 : 		{
; 1231 : 			return;
; 1232 : 		}
; 1233 : 		// ----
; 1234 : 		for( int i = 0; i < AB_MAX_MONCOUNT; i++ )

  00036	81 c3 00 e3 00
	00		 add	 ebx, 58112		; 0000e300H
  0003c	c7 45 fc ff 00
	00 00		 mov	 DWORD PTR tv72[ebp], 255 ; 000000ffH
$LL4@DeleteArca:

; 1235 : 		{
; 1236 : 			if( this->m_stMonsterGroupInfo[nGroupNumber].m_stMonsterAccountNumInfo[i].m_nIndex > -1 )

  00043	8b 3e		 mov	 edi, DWORD PTR [esi]
  00045	83 ff ff	 cmp	 edi, -1
  00048	7e 2a		 jle	 SHORT $LN3@DeleteArca

; 1237 : 			{
; 1238 : 				int nIndex = this->m_stMonsterGroupInfo[nGroupNumber].m_stMonsterAccountNumInfo[i].m_nIndex;
; 1239 : 				gObjDel(nIndex);

  0004a	57		 push	 edi
  0004b	e8 00 00 00 00	 call	 ?gObjDel@@YAFH@Z	; gObjDel

; 1240 : 				LogAdd("[ArcaBattle][MonsterGroupRegen] Delete Monster - %d ", nIndex);

  00050	57		 push	 edi
  00051	68 00 00 00 00	 push	 OFFSET ??_C@_0DF@FMIEONML@?$FLArcaBattle?$FN?$FLMonsterGroupRegen?$FN?5@
  00056	ff 15 00 00 00
	00		 call	 DWORD PTR ?LogAdd@@3P6AXPADZZA ; LogAdd
  0005c	83 c4 0c	 add	 esp, 12			; 0000000cH

; 1241 : 				this->m_stMonsterGroupInfo[nGroupNumber].m_stMonsterAccountNumInfo[i].m_nIndex	= -1;

  0005f	c7 06 ff ff ff
	ff		 mov	 DWORD PTR [esi], -1

; 1242 : 				this->m_stMonsterGroupInfo[nGroupNumber].m_stMonsterAccountNumInfo[i].bItemDrop	= 0;

  00065	c6 46 04 00	 mov	 BYTE PTR [esi+4], 0

; 1243 : 				this->m_stMonsterGroupInfo[i].m_dwNextRegenTime = GetTickCount();

  00069	ff 15 00 00 00
	00		 call	 DWORD PTR __imp__GetTickCount@0
  0006f	8b 4d f8	 mov	 ecx, DWORD PTR _nGroupNumber$183335[ebp]
  00072	89 03		 mov	 DWORD PTR [ebx], eax
$LN3@DeleteArca:

; 1230 : 		{
; 1231 : 			return;
; 1232 : 		}
; 1233 : 		// ----
; 1234 : 		for( int i = 0; i < AB_MAX_MONCOUNT; i++ )

  00074	83 c6 08	 add	 esi, 8
  00077	81 c3 0c 08 00
	00		 add	 ebx, 2060		; 0000080cH
  0007d	ff 4d fc	 dec	 DWORD PTR tv72[ebp]
  00080	75 c1		 jne	 SHORT $LL4@DeleteArca
  00082	8b 5d f0	 mov	 ebx, DWORD PTR _this$[ebp]
  00085	8b 75 f4	 mov	 esi, DWORD PTR tv378[ebp]
$LN8@DeleteArca:

; 1222 : 	for( int nGroupNumber = 0; nGroupNumber < AB_MAX_MONGROUP; nGroupNumber++ )

  00088	41		 inc	 ecx
  00089	81 c6 0c 08 00
	00		 add	 esi, 2060		; 0000080cH
  0008f	89 4d f8	 mov	 DWORD PTR _nGroupNumber$183335[ebp], ecx
  00092	89 75 f4	 mov	 DWORD PTR tv378[ebp], esi
  00095	83 f9 32	 cmp	 ecx, 50			; 00000032H
  00098	7c 86		 jl	 SHORT $LL20@DeleteArca
$LN19@DeleteArca:
  0009a	5f		 pop	 edi
  0009b	5e		 pop	 esi
  0009c	5b		 pop	 ebx

; 1244 : 			}
; 1245 : 		}
; 1246 : 	}
; 1247 : }

  0009d	8b e5		 mov	 esp, ebp
  0009f	5d		 pop	 ebp
  000a0	c3		 ret	 0
?DeleteArcaBattleAllMonster@CArcaBattle@@QAEXXZ ENDP	; CArcaBattle::DeleteArcaBattleAllMonster
_TEXT	ENDS
PUBLIC	?SendMapServerGroupMsg@CArcaBattle@@QAEXPAD@Z	; CArcaBattle::SendMapServerGroupMsg
; Function compile flags: /Ogtp
;	COMDAT ?SendMapServerGroupMsg@CArcaBattle@@QAEXPAD@Z
_TEXT	SEGMENT
_lpszMsg$ = 8						; size = 4
?SendMapServerGroupMsg@CArcaBattle@@QAEXPAD@Z PROC	; CArcaBattle::SendMapServerGroupMsg, COMDAT
; _this$ = ecx

; 1297 : //	GS_GDReqMapSvrMsgMultiCast(g_MapServerManager.GetMapSvrGroup(), lpszMsg);
; 1298 : }

  00000	c2 04 00	 ret	 4
?SendMapServerGroupMsg@CArcaBattle@@QAEXPAD@Z ENDP	; CArcaBattle::SendMapServerGroupMsg
_TEXT	ENDS
PUBLIC	?GetJoinMemberCnt@CArcaBattle@@QAEHXZ		; CArcaBattle::GetJoinMemberCnt
; Function compile flags: /Ogtp
;	COMDAT ?GetJoinMemberCnt@CArcaBattle@@QAEHXZ
_TEXT	SEGMENT
?GetJoinMemberCnt@CArcaBattle@@QAEHXZ PROC		; CArcaBattle::GetJoinMemberCnt, COMDAT
; _this$ = ecx

; 1304 : 	return this->m_iJoinGuildMemberCnt;

  00000	8b 81 74 34 00
	00		 mov	 eax, DWORD PTR [ecx+13428]

; 1305 : }

  00006	c3		 ret	 0
?GetJoinMemberCnt@CArcaBattle@@QAEHXZ ENDP		; CArcaBattle::GetJoinMemberCnt
_TEXT	ENDS
PUBLIC	??_C@_0DH@GJDPCHLF@?$FLArcaBattle?$FN?5Entered?5ArcaBattle?5@ ; `string'
PUBLIC	??_C@_0DF@PFKNNEC@?$FLArcaBattle?$FN?5Enter?5ArcaBattle?5?$FL?$CF@ ; `string'
PUBLIC	??_C@_0CO@FIDHFJOD@?$FLArcaBattle?$FN?5Entered?5User?5Over?5U@ ; `string'
PUBLIC	?EnterArcaBattleEvent@CArcaBattle@@QAEHH@Z	; CArcaBattle::EnterArcaBattleEvent
;	COMDAT ??_C@_0DH@GJDPCHLF@?$FLArcaBattle?$FN?5Entered?5ArcaBattle?5@
CONST	SEGMENT
??_C@_0DH@GJDPCHLF@?$FLArcaBattle?$FN?5Entered?5ArcaBattle?5@ DB '[ArcaBa'
	DB	'ttle] Entered ArcaBattle [%s] [%s] UserCnt [%d]', 00H ; `string'
CONST	ENDS
;	COMDAT ??_C@_0DF@PFKNNEC@?$FLArcaBattle?$FN?5Enter?5ArcaBattle?5?$FL?$CF@
CONST	SEGMENT
??_C@_0DF@PFKNNEC@?$FLArcaBattle?$FN?5Enter?5ArcaBattle?5?$FL?$CF@ DB '[A'
	DB	'rcaBattle] Enter ArcaBattle [%s] [%s] UserCnt [%d]', 00H ; `string'
CONST	ENDS
;	COMDAT ??_C@_0CO@FIDHFJOD@?$FLArcaBattle?$FN?5Entered?5User?5Over?5U@
CONST	SEGMENT
??_C@_0CO@FIDHFJOD@?$FLArcaBattle?$FN?5Entered?5User?5Over?5U@ DB '[ArcaB'
	DB	'attle] Entered User Over UserCount [%d]', 00H ; `string'
; Function compile flags: /Ogtp
CONST	ENDS
;	COMDAT ?EnterArcaBattleEvent@CArcaBattle@@QAEHH@Z
_TEXT	SEGMENT
_i$183379 = -8						; size = 4
tv200 = -4						; size = 4
_aIndex$ = 8						; size = 4
?EnterArcaBattleEvent@CArcaBattle@@QAEHH@Z PROC		; CArcaBattle::EnterArcaBattleEvent, COMDAT
; _this$ = ecx

; 1310 : {

  00000	55		 push	 ebp
  00001	8b ec		 mov	 ebp, esp
  00003	83 ec 08	 sub	 esp, 8
  00006	57		 push	 edi

; 1311 : 	if( !AB_CHECKSLOT(this->m_iCurUserCount) )

  00007	8b b9 ac 34 00
	00		 mov	 edi, DWORD PTR [ecx+13484]
  0000d	85 ff		 test	 edi, edi
  0000f	78 0f		 js	 SHORT $LN13@EnterArcaB
  00011	33 c0		 xor	 eax, eax
  00013	81 ff 2b 01 00
	00		 cmp	 edi, 299		; 0000012bH
  00019	0f 9e c0	 setle	 al
  0001c	85 c0		 test	 eax, eax
  0001e	75 18		 jne	 SHORT $LN5@EnterArcaB
$LN13@EnterArcaB:

; 1312 : 	{
; 1313 : 		LogAddTD("[ArcaBattle] Entered User Over UserCount [%d]", this->m_iCurUserCount);

  00020	57		 push	 edi
  00021	68 00 00 00 00	 push	 OFFSET ??_C@_0CO@FIDHFJOD@?$FLArcaBattle?$FN?5Entered?5User?5Over?5U@
  00026	ff 15 00 00 00
	00		 call	 DWORD PTR ?LogAddTD@@3P6AXPADZZA ; LogAddTD
  0002c	83 c4 08	 add	 esp, 8

; 1314 : 		return false;

  0002f	33 c0		 xor	 eax, eax
  00031	5f		 pop	 edi

; 1332 : }

  00032	8b e5		 mov	 esp, ebp
  00034	5d		 pop	 ebp
  00035	c2 04 00	 ret	 4
$LN5@EnterArcaB:
  00038	53		 push	 ebx
  00039	56		 push	 esi

; 1315 : 	}
; 1316 : 	// ----
; 1317 : 	for( int i = 0; i < this->m_iCurUserCount; i++ )

  0003a	c7 45 f8 00 00
	00 00		 mov	 DWORD PTR _i$183379[ebp], 0
  00041	85 ff		 test	 edi, edi
  00043	7e 5e		 jle	 SHORT $LN2@EnterArcaB
  00045	8b 45 08	 mov	 eax, DWORD PTR _aIndex$[ebp]
  00048	69 c0 40 27 00
	00		 imul	 eax, 10048		; 00002740H

; 1318 : 	{
; 1319 : 		if( !strcmp(this->m_UserData[i].szCharName, gObj[aIndex].Name) )

  0004e	03 05 00 00 00
	00		 add	 eax, DWORD PTR ?gObj@@3PAUOBJECTSTRUCT@@A ; gObj
  00054	89 45 fc	 mov	 DWORD PTR tv200[ebp], eax
  00057	8d 81 b8 13 00
	00		 lea	 eax, DWORD PTR [ecx+5048]
  0005d	8d 49 00	 npad	 3
$LL18@EnterArcaB:
  00060	8b 75 fc	 mov	 esi, DWORD PTR tv200[ebp]
  00063	83 c6 5d	 add	 esi, 93			; 0000005dH
  00066	8b d0		 mov	 edx, eax
$LL14@EnterArcaB:
  00068	8a 1a		 mov	 bl, BYTE PTR [edx]
  0006a	3a 1e		 cmp	 bl, BYTE PTR [esi]
  0006c	75 1a		 jne	 SHORT $LN15@EnterArcaB
  0006e	84 db		 test	 bl, bl
  00070	74 12		 je	 SHORT $LN16@EnterArcaB
  00072	8a 5a 01	 mov	 bl, BYTE PTR [edx+1]
  00075	3a 5e 01	 cmp	 bl, BYTE PTR [esi+1]
  00078	75 0e		 jne	 SHORT $LN15@EnterArcaB
  0007a	83 c2 02	 add	 edx, 2
  0007d	83 c6 02	 add	 esi, 2
  00080	84 db		 test	 bl, bl
  00082	75 e4		 jne	 SHORT $LL14@EnterArcaB
$LN16@EnterArcaB:
  00084	33 d2		 xor	 edx, edx
  00086	eb 05		 jmp	 SHORT $LN17@EnterArcaB
$LN15@EnterArcaB:
  00088	1b d2		 sbb	 edx, edx
  0008a	83 da ff	 sbb	 edx, -1
$LN17@EnterArcaB:
  0008d	85 d2		 test	 edx, edx
  0008f	0f 84 81 00 00
	00		 je	 $LN11@EnterArcaB

; 1315 : 	}
; 1316 : 	// ----
; 1317 : 	for( int i = 0; i < this->m_iCurUserCount; i++ )

  00095	8b 55 f8	 mov	 edx, DWORD PTR _i$183379[ebp]
  00098	42		 inc	 edx
  00099	83 c0 18	 add	 eax, 24			; 00000018H
  0009c	89 55 f8	 mov	 DWORD PTR _i$183379[ebp], edx
  0009f	3b d7		 cmp	 edx, edi
  000a1	7c bd		 jl	 SHORT $LL18@EnterArcaB
$LN2@EnterArcaB:

; 1324 : 		}
; 1325 : 	}
; 1326 : 	// ----
; 1327 : 	memcpy(this->m_UserData[this->m_iCurUserCount].szCharName, gObj[aIndex].Name, 11);

  000a3	8b 45 08	 mov	 eax, DWORD PTR _aIndex$[ebp]
  000a6	8b 15 00 00 00
	00		 mov	 edx, DWORD PTR ?gObj@@3PAUOBJECTSTRUCT@@A ; gObj
  000ac	69 c0 40 27 00
	00		 imul	 eax, 10048		; 00002740H
  000b2	8d 54 10 5d	 lea	 edx, DWORD PTR [eax+edx+93]
  000b6	8d 34 7f	 lea	 esi, DWORD PTR [edi+edi*2]
  000b9	8b 3a		 mov	 edi, DWORD PTR [edx]
  000bb	89 bc f1 b8 13
	00 00		 mov	 DWORD PTR [ecx+esi*8+5048], edi
  000c2	8b 7a 04	 mov	 edi, DWORD PTR [edx+4]
  000c5	8d b4 f1 b8 13
	00 00		 lea	 esi, DWORD PTR [ecx+esi*8+5048]
  000cc	89 7e 04	 mov	 DWORD PTR [esi+4], edi
  000cf	66 8b 7a 08	 mov	 di, WORD PTR [edx+8]
  000d3	66 89 7e 08	 mov	 WORD PTR [esi+8], di
  000d7	8a 52 0a	 mov	 dl, BYTE PTR [edx+10]
  000da	88 56 0a	 mov	 BYTE PTR [esi+10], dl

; 1328 : 	this->m_iCurUserCount++;

  000dd	ff 81 ac 34 00
	00		 inc	 DWORD PTR [ecx+13484]
  000e3	8b 89 ac 34 00
	00		 mov	 ecx, DWORD PTR [ecx+13484]

; 1329 :     LogAddTD("[ArcaBattle] Enter ArcaBattle [%s] [%s] UserCnt [%d]", 
; 1330 : 		gObj[aIndex].AccountID, gObj[aIndex].Name, this->m_iCurUserCount);

  000e9	8b 15 00 00 00
	00		 mov	 edx, DWORD PTR ?gObj@@3PAUOBJECTSTRUCT@@A ; gObj
  000ef	51		 push	 ecx
  000f0	8d 4c 10 5d	 lea	 ecx, DWORD PTR [eax+edx+93]
  000f4	51		 push	 ecx
  000f5	8d 54 10 52	 lea	 edx, DWORD PTR [eax+edx+82]
  000f9	52		 push	 edx
  000fa	68 00 00 00 00	 push	 OFFSET ??_C@_0DF@PFKNNEC@?$FLArcaBattle?$FN?5Enter?5ArcaBattle?5?$FL?$CF@
  000ff	ff 15 00 00 00
	00		 call	 DWORD PTR ?LogAddTD@@3P6AXPADZZA ; LogAddTD
  00105	83 c4 10	 add	 esp, 16			; 00000010H
  00108	5e		 pop	 esi
  00109	5b		 pop	 ebx

; 1331 : 	return true;

  0010a	b8 01 00 00 00	 mov	 eax, 1
  0010f	5f		 pop	 edi

; 1332 : }

  00110	8b e5		 mov	 esp, ebp
  00112	5d		 pop	 ebp
  00113	c2 04 00	 ret	 4
$LN11@EnterArcaB:

; 1320 : 		{
; 1321 : 			LogAddTD("[ArcaBattle] Entered ArcaBattle [%s] [%s] UserCnt [%d]",
; 1322 : 				gObj[aIndex].AccountID, gObj[aIndex].Name, this->m_iCurUserCount);

  00116	8b 45 fc	 mov	 eax, DWORD PTR tv200[ebp]
  00119	83 c0 5d	 add	 eax, 93			; 0000005dH
  0011c	57		 push	 edi
  0011d	50		 push	 eax
  0011e	8b 45 fc	 mov	 eax, DWORD PTR tv200[ebp]
  00121	83 c0 52	 add	 eax, 82			; 00000052H
  00124	50		 push	 eax
  00125	68 00 00 00 00	 push	 OFFSET ??_C@_0DH@GJDPCHLF@?$FLArcaBattle?$FN?5Entered?5ArcaBattle?5@
  0012a	ff 15 00 00 00
	00		 call	 DWORD PTR ?LogAddTD@@3P6AXPADZZA ; LogAddTD
  00130	83 c4 10	 add	 esp, 16			; 00000010H
  00133	5e		 pop	 esi
  00134	5b		 pop	 ebx

; 1323 : 			return false;

  00135	33 c0		 xor	 eax, eax
  00137	5f		 pop	 edi

; 1332 : }

  00138	8b e5		 mov	 esp, ebp
  0013a	5d		 pop	 ebp
  0013b	c2 04 00	 ret	 4
?EnterArcaBattleEvent@CArcaBattle@@QAEHH@Z ENDP		; CArcaBattle::EnterArcaBattleEvent
_TEXT	ENDS
PUBLIC	?GetUserInfo@CArcaBattle@@QAEPAU_tagArcaBattleUserInfo@@PAD@Z ; CArcaBattle::GetUserInfo
; Function compile flags: /Ogtp
;	COMDAT ?GetUserInfo@CArcaBattle@@QAEPAU_tagArcaBattleUserInfo@@PAD@Z
_TEXT	SEGMENT
_this$ = -4						; size = 4
_szName$ = 8						; size = 4
?GetUserInfo@CArcaBattle@@QAEPAU_tagArcaBattleUserInfo@@PAD@Z PROC ; CArcaBattle::GetUserInfo, COMDAT
; _this$ = ecx

; 1337 : {

  00000	55		 push	 ebp
  00001	8b ec		 mov	 ebp, esp
  00003	51		 push	 ecx
  00004	53		 push	 ebx
  00005	56		 push	 esi
  00006	57		 push	 edi
  00007	8b f9		 mov	 edi, ecx
  00009	8b 8f ac 34 00
	00		 mov	 ecx, DWORD PTR [edi+13484]

; 1338 : 	for( int i = 0; i < this->m_iCurUserCount; i++ )

  0000f	33 f6		 xor	 esi, esi
  00011	89 7d fc	 mov	 DWORD PTR _this$[ebp], edi
  00014	85 c9		 test	 ecx, ecx
  00016	7e 3e		 jle	 SHORT $LN2@GetUserInf
  00018	81 c7 b8 13 00
	00		 add	 edi, 5048		; 000013b8H
  0001e	8b ff		 npad	 2
$LL4@GetUserInf:

; 1339 : 	{
; 1340 : 		if( !strcmp(this->m_UserData[i].szCharName, szName) )

  00020	8b 55 08	 mov	 edx, DWORD PTR _szName$[ebp]
  00023	8b c7		 mov	 eax, edi
$LL10@GetUserInf:
  00025	8a 18		 mov	 bl, BYTE PTR [eax]
  00027	3a 1a		 cmp	 bl, BYTE PTR [edx]
  00029	75 1a		 jne	 SHORT $LN11@GetUserInf
  0002b	84 db		 test	 bl, bl
  0002d	74 12		 je	 SHORT $LN12@GetUserInf
  0002f	8a 58 01	 mov	 bl, BYTE PTR [eax+1]
  00032	3a 5a 01	 cmp	 bl, BYTE PTR [edx+1]
  00035	75 0e		 jne	 SHORT $LN11@GetUserInf
  00037	83 c0 02	 add	 eax, 2
  0003a	83 c2 02	 add	 edx, 2
  0003d	84 db		 test	 bl, bl
  0003f	75 e4		 jne	 SHORT $LL10@GetUserInf
$LN12@GetUserInf:
  00041	33 c0		 xor	 eax, eax
  00043	eb 05		 jmp	 SHORT $LN13@GetUserInf
$LN11@GetUserInf:
  00045	1b c0		 sbb	 eax, eax
  00047	83 d8 ff	 sbb	 eax, -1
$LN13@GetUserInf:
  0004a	85 c0		 test	 eax, eax
  0004c	74 13		 je	 SHORT $LN8@GetUserInf

; 1338 : 	for( int i = 0; i < this->m_iCurUserCount; i++ )

  0004e	46		 inc	 esi
  0004f	83 c7 18	 add	 edi, 24			; 00000018H
  00052	3b f1		 cmp	 esi, ecx
  00054	7c ca		 jl	 SHORT $LL4@GetUserInf
$LN2@GetUserInf:
  00056	5f		 pop	 edi
  00057	5e		 pop	 esi

; 1343 : 		}
; 1344 : 	}
; 1345 : 	// ----
; 1346 : 	return 0;

  00058	33 c0		 xor	 eax, eax
  0005a	5b		 pop	 ebx

; 1347 : }

  0005b	8b e5		 mov	 esp, ebp
  0005d	5d		 pop	 ebp
  0005e	c2 04 00	 ret	 4
$LN8@GetUserInf:

; 1341 : 		{
; 1342 : 			return &this->m_UserData[i];

  00061	8b 4d fc	 mov	 ecx, DWORD PTR _this$[ebp]
  00064	5f		 pop	 edi
  00065	8d 04 76	 lea	 eax, DWORD PTR [esi+esi*2]
  00068	5e		 pop	 esi
  00069	8d 84 c1 b8 13
	00 00		 lea	 eax, DWORD PTR [ecx+eax*8+5048]
  00070	5b		 pop	 ebx

; 1347 : }

  00071	8b e5		 mov	 esp, ebp
  00073	5d		 pop	 ebp
  00074	c2 04 00	 ret	 4
?GetUserInfo@CArcaBattle@@QAEPAU_tagArcaBattleUserInfo@@PAD@Z ENDP ; CArcaBattle::GetUserInfo
_TEXT	ENDS
PUBLIC	__real@4024000000000000
PUBLIC	__$ArrayPad$
PUBLIC	?SendObeliskLife@CArcaBattle@@QAEXXZ		; CArcaBattle::SendObeliskLife
EXTRN	_ceil:PROC
;	COMDAT __real@4024000000000000
; File c:\muserver_dev\development\mu-s8ep2-repack\gameserver\source\arcabattleprotocol.h
CONST	SEGMENT
__real@4024000000000000 DQ 04024000000000000r	; 10
; Function compile flags: /Ogtp
; File c:\muserver_dev\development\mu-s8ep2-repack\gameserver\source\arcabattle.cpp
CONST	ENDS
;	COMDAT ?SendObeliskLife@CArcaBattle@@QAEXXZ
_TEXT	SEGMENT
tv515 = -32						; size = 4
tv546 = -28						; size = 4
tv543 = -28						; size = 4
tv549 = -22						; size = 2
_pMsg$ = -20						; size = 14
__$ArrayPad$ = -4					; size = 4
?SendObeliskLife@CArcaBattle@@QAEXXZ PROC		; CArcaBattle::SendObeliskLife, COMDAT
; _this$ = ecx

; 1352 : {

  00000	55		 push	 ebp
  00001	8b ec		 mov	 ebp, esp
  00003	83 ec 20	 sub	 esp, 32			; 00000020H
  00006	a1 00 00 00 00	 mov	 eax, DWORD PTR ___security_cookie
  0000b	33 c5		 xor	 eax, ebp
  0000d	89 45 fc	 mov	 DWORD PTR __$ArrayPad$[ebp], eax
  00010	53		 push	 ebx
  00011	56		 push	 esi
  00012	8b c1		 mov	 eax, ecx

; 1353 : 	_tagPMSG_SEND_OBELISK_LIFE pMsg;

  00014	33 db		 xor	 ebx, ebx
  00016	57		 push	 edi

; 1354 : 	// ----
; 1355 : 	for( int i = 0; i < AB_MAX_BATTLEPOS; i++ )

  00017	33 f6		 xor	 esi, esi

; 1356 : 	{
; 1357 : 		int iObeliskIndex = this->m_stObeliskState[i].m_iMonIndex;

  00019	8d b8 dc 2f 00
	00		 lea	 edi, DWORD PTR [eax+12252]
  0001f	05 94 31 00 00	 add	 eax, 12692		; 00003194H
  00024	89 5d f0	 mov	 DWORD PTR _pMsg$[ebp+4], ebx
  00027	89 5d f4	 mov	 DWORD PTR _pMsg$[ebp+8], ebx
  0002a	66 89 5d f8	 mov	 WORD PTR _pMsg$[ebp+12], bx
  0002e	89 45 e0	 mov	 DWORD PTR tv515[ebp], eax
$LL11@SendObelis:
  00031	8b 00		 mov	 eax, DWORD PTR [eax]

; 1358 : 		// ----
; 1359 : 		if( this->m_stObeliskState[i].m_iMonIndex < 0 )

  00033	3b c3		 cmp	 eax, ebx
  00035	7c 7b		 jl	 SHORT $LN10@SendObelis

; 1360 : 		{
; 1361 : 			continue;
; 1362 : 		}
; 1363 : 		// ----
; 1364 : 		if( !OBJMAX_RANGE(iObeliskIndex) )

  00037	33 c9		 xor	 ecx, ecx
  00039	3d eb 2c 00 00	 cmp	 eax, 11499		; 00002cebH
  0003e	0f 9e c1	 setle	 cl
  00041	3b cb		 cmp	 ecx, ebx
  00043	0f 84 d6 00 00
	00		 je	 $LN2@SendObelis

; 1365 : 		{
; 1366 : 			return;
; 1367 : 		}
; 1368 : 
; 1369 : 		if( !gObj[iObeliskIndex].Live )

  00049	8b 0d 00 00 00
	00		 mov	 ecx, DWORD PTR ?gObj@@3PAUOBJECTSTRUCT@@A ; gObj
  0004f	69 c0 40 27 00
	00		 imul	 eax, 10048		; 00002740H
  00055	38 5c 08 51	 cmp	 BYTE PTR [eax+ecx+81], bl
  00059	75 0c		 jne	 SHORT $LN6@SendObelis

; 1370 : 		{
; 1371 : 			pMsg.m_stObeliskLife[i].btLife		= 0;
; 1372 : 			pMsg.m_stObeliskLife[i].btAttribute = (BYTE)this->m_stObeliskInfo[i].m_iAttrKind;

  0005b	8a 17		 mov	 dl, BYTE PTR [edi]
  0005d	88 5c 75 f0	 mov	 BYTE PTR _pMsg$[ebp+esi*2+4], bl
  00061	88 54 75 f1	 mov	 BYTE PTR _pMsg$[ebp+esi*2+5], dl

; 1373 : 		}
; 1374 : 		else

  00065	eb 4b		 jmp	 SHORT $LN10@SendObelis
$LN6@SendObelis:

; 1375 : 		{
; 1376 : 			pMsg.m_stObeliskLife[i].btLife		= (int)ceil(gObj[iObeliskIndex].Life / (gObj[iObeliskIndex].MaxLife / 10.0)) & 0xF;	//Need check

  00067	d9 84 08 d8 00
	00 00		 fld	 DWORD PTR [eax+ecx+216]
  0006e	83 ec 08	 sub	 esp, 8
  00071	d9 84 08 dc 00
	00 00		 fld	 DWORD PTR [eax+ecx+220]
  00078	dc 35 00 00 00
	00		 fdiv	 QWORD PTR __real@4024000000000000
  0007e	de f9		 fdivp	 ST(1), ST(0)
  00080	dd 1c 24	 fstp	 QWORD PTR [esp]
  00083	e8 00 00 00 00	 call	 _ceil
  00088	d9 7d ea	 fnstcw	 WORD PTR tv549[ebp]

; 1377 : 			pMsg.m_stObeliskLife[i].btAttribute = (BYTE)this->m_stObeliskInfo[i].m_iAttrKind;

  0008b	8a 0f		 mov	 cl, BYTE PTR [edi]
  0008d	0f b7 45 ea	 movzx	 eax, WORD PTR tv549[ebp]
  00091	0d 00 0c 00 00	 or	 eax, 3072		; 00000c00H
  00096	89 45 e4	 mov	 DWORD PTR tv546[ebp], eax
  00099	83 c4 08	 add	 esp, 8
  0009c	88 4c 75 f1	 mov	 BYTE PTR _pMsg$[ebp+esi*2+5], cl
  000a0	d9 6d e4	 fldcw	 WORD PTR tv546[ebp]
  000a3	db 5d e4	 fistp	 DWORD PTR tv543[ebp]
  000a6	8a 45 e4	 mov	 al, BYTE PTR tv543[ebp]
  000a9	24 0f		 and	 al, 15			; 0000000fH
  000ab	88 44 75 f0	 mov	 BYTE PTR _pMsg$[ebp+esi*2+4], al
  000af	d9 6d ea	 fldcw	 WORD PTR tv549[ebp]
$LN10@SendObelis:

; 1354 : 	// ----
; 1355 : 	for( int i = 0; i < AB_MAX_BATTLEPOS; i++ )

  000b2	8b 45 e0	 mov	 eax, DWORD PTR tv515[ebp]
  000b5	46		 inc	 esi
  000b6	83 c0 54	 add	 eax, 84			; 00000054H
  000b9	83 c7 58	 add	 edi, 88			; 00000058H
  000bc	89 45 e0	 mov	 DWORD PTR tv515[ebp], eax
  000bf	83 fe 05	 cmp	 esi, 5
  000c2	0f 8c 69 ff ff
	ff		 jl	 $LL11@SendObelis

; 1378 : 		}
; 1379 : 	}
; 1380 : 	// ----
; 1381 : 	pMsg.h.c		= 0xC1;

  000c8	c7 45 ec c1 0e
	f8 3f		 mov	 DWORD PTR _pMsg$[ebp], 1073221313 ; 3ff80ec1H

; 1382 : 	pMsg.h.size		= sizeof(_tagPMSG_SEND_OBELISK_LIFE);
; 1383 : 	pMsg.h.headcode = 0xF8;
; 1384 : 	pMsg.h.subcode	= 0x3F;
; 1385 : 	// ----
; 1386 : 	for( int n = OBJ_STARTUSERINDEX; n < OBJMAX; n++ )

  000cf	bf 04 29 00 00	 mov	 edi, 10500		; 00002904H
  000d4	be 00 dd 49 06	 mov	 esi, 105504000		; 0649dd00H
  000d9	8d a4 24 00 00
	00 00		 npad	 7
$LL39@SendObelis:

; 1387 : 	{
; 1388 : 		LPOBJ lpObj = &gObj[n];

  000e0	8b 15 00 00 00
	00		 mov	 edx, DWORD PTR ?gObj@@3PAUOBJECTSTRUCT@@A ; gObj

; 1389 : 		// ----
; 1390 : 		if( gObjIsConnected(n) == 1 && lpObj->Type == OBJ_USER )

  000e6	57		 push	 edi
  000e7	8d 1c 16	 lea	 ebx, DWORD PTR [esi+edx]
  000ea	e8 00 00 00 00	 call	 ?gObjIsConnected@@YAHH@Z ; gObjIsConnected
  000ef	83 c4 04	 add	 esp, 4
  000f2	83 f8 01	 cmp	 eax, 1
  000f5	75 19		 jne	 SHORT $LN3@SendObelis
  000f7	38 43 50	 cmp	 BYTE PTR [ebx+80], al
  000fa	75 14		 jne	 SHORT $LN3@SendObelis

; 1391 : 		{
; 1392 : 			DataSend(lpObj->m_Index, (LPBYTE)&pMsg, pMsg.h.size);

  000fc	0f b6 45 ed	 movzx	 eax, BYTE PTR _pMsg$[ebp+1]
  00100	8b 13		 mov	 edx, DWORD PTR [ebx]
  00102	50		 push	 eax
  00103	8d 4d ec	 lea	 ecx, DWORD PTR _pMsg$[ebp]
  00106	51		 push	 ecx
  00107	52		 push	 edx
  00108	e8 00 00 00 00	 call	 ?DataSend@@YAHHPAEK@Z	; DataSend
  0010d	83 c4 0c	 add	 esp, 12			; 0000000cH
$LN3@SendObelis:

; 1382 : 	pMsg.h.size		= sizeof(_tagPMSG_SEND_OBELISK_LIFE);
; 1383 : 	pMsg.h.headcode = 0xF8;
; 1384 : 	pMsg.h.subcode	= 0x3F;
; 1385 : 	// ----
; 1386 : 	for( int n = OBJ_STARTUSERINDEX; n < OBJMAX; n++ )

  00110	81 c6 40 27 00
	00		 add	 esi, 10048		; 00002740H
  00116	47		 inc	 edi
  00117	81 fe 00 2f e3
	06		 cmp	 esi, 115552000		; 06e32f00H
  0011d	7c c1		 jl	 SHORT $LL39@SendObelis
$LN2@SendObelis:

; 1393 : 		}
; 1394 : 	}
; 1395 : }

  0011f	8b 4d fc	 mov	 ecx, DWORD PTR __$ArrayPad$[ebp]
  00122	5f		 pop	 edi
  00123	5e		 pop	 esi
  00124	33 cd		 xor	 ecx, ebp
  00126	5b		 pop	 ebx
  00127	e8 00 00 00 00	 call	 @__security_check_cookie@4
  0012c	8b e5		 mov	 esp, ebp
  0012e	5d		 pop	 ebp
  0012f	c3		 ret	 0
?SendObeliskLife@CArcaBattle@@QAEXXZ ENDP		; CArcaBattle::SendObeliskLife
_TEXT	ENDS
PUBLIC	__real@00000000
PUBLIC	?SendObeliskState@CArcaBattle@@QAEXXZ		; CArcaBattle::SendObeliskState
;	COMDAT __real@00000000
CONST	SEGMENT
__real@00000000 DD 000000000r			; 0
; Function compile flags: /Ogtp
CONST	ENDS
;	COMDAT ?SendObeliskState@CArcaBattle@@QAEXXZ
_TEXT	SEGMENT
_pMsg$ = -16						; size = 7
tv549 = -8						; size = 4
tv514 = -4						; size = 4
?SendObeliskState@CArcaBattle@@QAEXXZ PROC		; CArcaBattle::SendObeliskState, COMDAT
; _this$ = ecx

; 1400 : {

  00000	55		 push	 ebp
  00001	8b ec		 mov	 ebp, esp
  00003	83 ec 10	 sub	 esp, 16			; 00000010H
  00006	53		 push	 ebx
  00007	56		 push	 esi

; 1401 : 	_tagPMSG_SEND_OBELISK_STATE pMsg;
; 1402 : 	// ----
; 1403 : 	pMsg.h.c		= 0xC1;

  00008	8d 81 dc 2f 00
	00		 lea	 eax, DWORD PTR [ecx+12252]
  0000e	57		 push	 edi
  0000f	c7 45 f0 c1 07
	f8 3a		 mov	 DWORD PTR _pMsg$[ebp], 989333441 ; 3af807c1H
  00016	89 45 fc	 mov	 DWORD PTR tv514[ebp], eax
  00019	8d 99 94 31 00
	00		 lea	 ebx, DWORD PTR [ecx+12692]
  0001f	c7 45 f8 05 00
	00 00		 mov	 DWORD PTR tv549[ebp], 5
$LL12@SendObelis@2:

; 1409 : 	{
; 1410 : 		int n;
; 1411 : 		BYTE AuraRelease;
; 1412 : 		LPOBJ obj;
; 1413 : 		int iObeliskIndex = this->m_stObeliskState[i].m_iMonIndex;

  00026	8b 03		 mov	 eax, DWORD PTR [ebx]

; 1414 : 		// ----
; 1415 : 		if ( this->m_stObeliskState[i].m_iMonIndex >= 0 )

  00028	85 c0		 test	 eax, eax
  0002a	0f 88 88 00 00
	00		 js	 $LN11@SendObelis@2

; 1416 : 		{
; 1417 : 			obj = &gObj[iObeliskIndex];

  00030	8b 0d 00 00 00
	00		 mov	 ecx, DWORD PTR ?gObj@@3PAUOBJECTSTRUCT@@A ; gObj

; 1418 : 			pMsg.btObeliskState		= gObj[iObeliskIndex].Life > 0.0;

  00036	d9 ee		 fldz
  00038	69 c0 40 27 00
	00		 imul	 eax, 10048		; 00002740H
  0003e	d8 9c 08 d8 00
	00 00		 fcomp	 DWORD PTR [eax+ecx+216]
  00045	8d 34 08	 lea	 esi, DWORD PTR [eax+ecx]
  00048	c6 45 f5 01	 mov	 BYTE PTR _pMsg$[ebp+5], 1
  0004c	df e0		 fnstsw	 ax
  0004e	f6 c4 05	 test	 ah, 5
  00051	7b 04		 jnp	 SHORT $LN16@SendObelis@2
  00053	c6 45 f5 00	 mov	 BYTE PTR _pMsg$[ebp+5], 0
$LN16@SendObelis@2:

; 1419 : 			pMsg.btObeliskAttribute = (BYTE)this->m_stObeliskInfo[i].m_iAttrKind;

  00057	8b 55 fc	 mov	 edx, DWORD PTR tv514[ebp]
  0005a	8a 02		 mov	 al, BYTE PTR [edx]
  0005c	88 45 f4	 mov	 BYTE PTR _pMsg$[ebp+4], al

; 1420 : 			AuraRelease				= 2;	//#DEFINE

  0005f	b2 02		 mov	 dl, 2

; 1421 : 			// ----
; 1422 : 			for( int j = 0; j < AB_MAX_AURAPOS; j++ )

  00061	33 c0		 xor	 eax, eax
  00063	8d 4b 24	 lea	 ecx, DWORD PTR [ebx+36]
$LL8@SendObelis@2:

; 1423 : 			{
; 1424 : 				if( this->m_stObeliskState[i].m_stAuraState[j].m_btAuraState != 2 ) //#DEFINE

  00066	80 39 02	 cmp	 BYTE PTR [ecx], 2
  00069	75 0b		 jne	 SHORT $LN20@SendObelis@2

; 1421 : 			// ----
; 1422 : 			for( int j = 0; j < AB_MAX_AURAPOS; j++ )

  0006b	40		 inc	 eax
  0006c	83 c1 10	 add	 ecx, 16			; 00000010H
  0006f	83 f8 03	 cmp	 eax, 3
  00072	7c f2		 jl	 SHORT $LL8@SendObelis@2

; 1423 : 			{
; 1424 : 				if( this->m_stObeliskState[i].m_stAuraState[j].m_btAuraState != 2 ) //#DEFINE

  00074	eb 02		 jmp	 SHORT $LN6@SendObelis@2
$LN20@SendObelis@2:

; 1425 : 				{
; 1426 : 					AuraRelease = 0;

  00076	32 d2		 xor	 dl, dl
$LN6@SendObelis@2:

; 1427 : 					break;
; 1428 : 				}
; 1429 : 			}
; 1430 : 			// ----
; 1431 : 			pMsg.btAuraState = AuraRelease;

  00078	88 55 f6	 mov	 BYTE PTR _pMsg$[ebp+6], dl
  0007b	81 c6 48 0c 00
	00		 add	 esi, 3144		; 00000c48H
  00081	bf 4b 00 00 00	 mov	 edi, 75			; 0000004bH
$LL4@SendObelis@2:

; 1434 : 			{
; 1435 : 				if( obj->VpPlayer2[n].type == OBJ_USER && obj->VpPlayer2[n].state != 0 )

  00086	80 7e 04 01	 cmp	 BYTE PTR [esi+4], 1
  0008a	75 26		 jne	 SHORT $LN3@SendObelis@2
  0008c	80 3e 00	 cmp	 BYTE PTR [esi], 0
  0008f	74 21		 je	 SHORT $LN3@SendObelis@2

; 1436 : 				{
; 1437 : 					int iTarObjIndex = gObj[obj->VpPlayer2[n].number].m_Index;
; 1438 : 					DataSend(iTarObjIndex, (LPBYTE)&pMsg, sizeof(_tagPMSG_SEND_OBELISK_STATE));

  00091	0f bf 56 02	 movsx	 edx, WORD PTR [esi+2]
  00095	a1 00 00 00 00	 mov	 eax, DWORD PTR ?gObj@@3PAUOBJECTSTRUCT@@A ; gObj
  0009a	69 d2 40 27 00
	00		 imul	 edx, 10048		; 00002740H
  000a0	6a 07		 push	 7
  000a2	8d 4d f0	 lea	 ecx, DWORD PTR _pMsg$[ebp]
  000a5	51		 push	 ecx
  000a6	8b 0c 02	 mov	 ecx, DWORD PTR [edx+eax]
  000a9	51		 push	 ecx
  000aa	e8 00 00 00 00	 call	 ?DataSend@@YAHHPAEK@Z	; DataSend
  000af	83 c4 0c	 add	 esp, 12			; 0000000cH
$LN3@SendObelis@2:

; 1432 : 			// ----
; 1433 : 			for( n = 0; n < MAX_VIEWPORT; n++ )

  000b2	83 c6 0c	 add	 esi, 12			; 0000000cH
  000b5	4f		 dec	 edi
  000b6	75 ce		 jne	 SHORT $LL4@SendObelis@2
$LN11@SendObelis@2:

; 1404 : 	pMsg.h.size		= sizeof(_tagPMSG_SEND_OBELISK_STATE);
; 1405 : 	pMsg.h.headcode	= 0xF8;
; 1406 : 	pMsg.h.subcode	= 0x3A;
; 1407 : 	// ----
; 1408 : 	for( int i = 0; i < AB_MAX_BATTLEPOS; i++ )

  000b8	83 45 fc 58	 add	 DWORD PTR tv514[ebp], 88 ; 00000058H
  000bc	83 c3 54	 add	 ebx, 84			; 00000054H
  000bf	ff 4d f8	 dec	 DWORD PTR tv549[ebp]
  000c2	0f 85 5e ff ff
	ff		 jne	 $LL12@SendObelis@2
  000c8	5f		 pop	 edi
  000c9	5e		 pop	 esi
  000ca	5b		 pop	 ebx

; 1439 : 				}
; 1440 : 			}
; 1441 : 		}
; 1442 : 	}
; 1443 : }

  000cb	8b e5		 mov	 esp, ebp
  000cd	5d		 pop	 ebp
  000ce	c3		 ret	 0
?SendObeliskState@CArcaBattle@@QAEXXZ ENDP		; CArcaBattle::SendObeliskState
_TEXT	ENDS
PUBLIC	??_C@_0CE@LIFLCJPD@?$FLArcaBattle?$FN?5?$CI?$CFd?$CJ?5Obelisk?5be?5Reg@ ; `string'
PUBLIC	?RegenObelisk@CArcaBattle@@QAEHXZ		; CArcaBattle::RegenObelisk
EXTRN	?gObjSetMonster@@YAHHH@Z:PROC			; gObjSetMonster
EXTRN	?gObjAddMonster@@YAFH@Z:PROC			; gObjAddMonster
;	COMDAT ??_C@_0CE@LIFLCJPD@?$FLArcaBattle?$FN?5?$CI?$CFd?$CJ?5Obelisk?5be?5Reg@
CONST	SEGMENT
??_C@_0CE@LIFLCJPD@?$FLArcaBattle?$FN?5?$CI?$CFd?$CJ?5Obelisk?5be?5Reg@ DB '['
	DB	'ArcaBattle] (%d) Obelisk be Regen.', 00H	; `string'
; Function compile flags: /Ogtp
CONST	ENDS
;	COMDAT ?RegenObelisk@CArcaBattle@@QAEHXZ
_TEXT	SEGMENT
_i$183449 = -8						; size = 4
_this$ = -4						; size = 4
?RegenObelisk@CArcaBattle@@QAEHXZ PROC			; CArcaBattle::RegenObelisk, COMDAT
; _this$ = ecx

; 1448 : {

  00000	55		 push	 ebp
  00001	8b ec		 mov	 ebp, esp
  00003	83 ec 08	 sub	 esp, 8
  00006	53		 push	 ebx
  00007	56		 push	 esi
  00008	57		 push	 edi
  00009	8b f9		 mov	 edi, ecx

; 1449 : 	for( int i = 0; i < this->m_iObeliskCnt; i++ )

  0000b	83 bf b0 34 00
	00 00		 cmp	 DWORD PTR [edi+13488], 0
  00012	89 7d fc	 mov	 DWORD PTR _this$[ebp], edi
  00015	c7 45 f8 00 00
	00 00		 mov	 DWORD PTR _i$183449[ebp], 0
  0001c	0f 8e b4 01 00
	00		 jle	 $LN19@RegenObeli
  00022	8d 9f 94 31 00
	00		 lea	 ebx, DWORD PTR [edi+12692]
  00028	8d b7 f8 2f 00
	00		 lea	 esi, DWORD PTR [edi+12280]
  0002e	8b ff		 npad	 2
$LL8@RegenObeli:

; 1450 : 	{
; 1451 : 		int iObeliskIndex = this->m_stObeliskState[i].m_iMonIndex;

  00030	8b 03		 mov	 eax, DWORD PTR [ebx]

; 1452 : 		// ----
; 1453 : 		if( !OBJMAX_RANGE(iObeliskIndex) )

  00032	85 c0		 test	 eax, eax
  00034	0f 88 a8 01 00
	00		 js	 $LN14@RegenObeli
  0003a	33 c9		 xor	 ecx, ecx
  0003c	3d eb 2c 00 00	 cmp	 eax, 11499		; 00002cebH
  00041	0f 9e c1	 setle	 cl
  00044	85 c9		 test	 ecx, ecx
  00046	0f 84 96 01 00
	00		 je	 $LN14@RegenObeli

; 1456 : 		}
; 1457 : 		// ----
; 1458 : 		if( gObj[iObeliskIndex].Live == 1 )

  0004c	8b 0d 00 00 00
	00		 mov	 ecx, DWORD PTR ?gObj@@3PAUOBJECTSTRUCT@@A ; gObj
  00052	69 c0 40 27 00
	00		 imul	 eax, 10048		; 00002740H
  00058	80 7c 08 51 01	 cmp	 BYTE PTR [eax+ecx+81], 1
  0005d	75 0d		 jne	 SHORT $LN4@RegenObeli

; 1459 : 		{
; 1460 : 			this->m_stObeliskInfo[i].m_dwTick = GetTickCount();

  0005f	ff 15 00 00 00
	00		 call	 DWORD PTR __imp__GetTickCount@0
  00065	89 06		 mov	 DWORD PTR [esi], eax

; 1461 : 		}
; 1462 : 		else

  00067	e9 51 01 00 00	 jmp	 $LN7@RegenObeli
$LN4@RegenObeli:

; 1463 : 		{
; 1464 : 			if( GetTickCount() - this->m_stObeliskInfo[i].m_dwTick >= this->m_stObeliskInfo[i].m_dwRegenTime )

  0006c	ff 15 00 00 00
	00		 call	 DWORD PTR __imp__GetTickCount@0
  00072	2b 06		 sub	 eax, DWORD PTR [esi]
  00074	3b 46 04	 cmp	 eax, DWORD PTR [esi+4]
  00077	0f 82 40 01 00
	00		 jb	 $LN7@RegenObeli

; 1465 : 			{
; 1466 : 				int result = gObjAddMonster(this->m_stObeliskInfo[i].m_iMapIndex);

  0007d	8b 56 f0	 mov	 edx, DWORD PTR [esi-16]
  00080	52		 push	 edx
  00081	e8 00 00 00 00	 call	 ?gObjAddMonster@@YAFH@Z	; gObjAddMonster
  00086	0f bf f8	 movsx	 edi, ax
  00089	83 c4 04	 add	 esp, 4

; 1467 : 				// ----
; 1468 : 				if( result >= 0 )

  0008c	85 ff		 test	 edi, edi
  0008e	0f 88 26 01 00
	00		 js	 $LN18@RegenObeli

; 1469 : 				{
; 1470 : 					gObjSetMonster(result, this->m_stObeliskInfo[i].m_iMonsterNum);

  00094	8b 46 fc	 mov	 eax, DWORD PTR [esi-4]
  00097	50		 push	 eax
  00098	57		 push	 edi
  00099	e8 00 00 00 00	 call	 ?gObjSetMonster@@YAHHH@Z ; gObjSetMonster

; 1471 : 					// ----
; 1472 : 					gObj[result].Class			= (WORD)this->m_stObeliskInfo[i].m_iMonsterNum;

  0009e	66 8b 4e fc	 mov	 cx, WORD PTR [esi-4]
  000a2	8b 15 00 00 00
	00		 mov	 edx, DWORD PTR ?gObj@@3PAUOBJECTSTRUCT@@A ; gObj
  000a8	8b c7		 mov	 eax, edi
  000aa	69 c0 40 27 00
	00		 imul	 eax, 10048		; 00002740H
  000b0	66 89 8c 10 90
	00 00 00	 mov	 WORD PTR [eax+edx+144], cx

; 1473 : 					gObj[result].MapNumber		= (BYTE)this->m_stObeliskInfo[i].m_iMapIndex;

  000b8	0f b6 4e f0	 movzx	 ecx, BYTE PTR [esi-16]
  000bc	8b 15 00 00 00
	00		 mov	 edx, DWORD PTR ?gObj@@3PAUOBJECTSTRUCT@@A ; gObj
  000c2	88 8c 10 23 01
	00 00		 mov	 BYTE PTR [eax+edx+291], cl

; 1474 : 					gObj[result].X				= (WORD)this->m_stObeliskInfo[i].m_iPosX;

  000c9	0f b6 4e f4	 movzx	 ecx, BYTE PTR [esi-12]
  000cd	8b 15 00 00 00
	00		 mov	 edx, DWORD PTR ?gObj@@3PAUOBJECTSTRUCT@@A ; gObj
  000d3	88 8c 10 20 01
	00 00		 mov	 BYTE PTR [eax+edx+288], cl

; 1475 : 					gObj[result].Y				= (WORD)this->m_stObeliskInfo[i].m_iPosY;

  000da	0f b6 4e f8	 movzx	 ecx, BYTE PTR [esi-8]
  000de	8b 15 00 00 00
	00		 mov	 edx, DWORD PTR ?gObj@@3PAUOBJECTSTRUCT@@A ; gObj
  000e4	88 8c 10 21 01
	00 00		 mov	 BYTE PTR [eax+edx+289], cl

; 1476 : 					gObj[result].TX				= (WORD)this->m_stObeliskInfo[i].m_iPosX;

  000eb	0f b6 4e f4	 movzx	 ecx, BYTE PTR [esi-12]
  000ef	8b 15 00 00 00
	00		 mov	 edx, DWORD PTR ?gObj@@3PAUOBJECTSTRUCT@@A ; gObj
  000f5	88 8c 10 52 01
	00 00		 mov	 BYTE PTR [eax+edx+338], cl

; 1477 : 					gObj[result].TY				= (WORD)this->m_stObeliskInfo[i].m_iPosY;

  000fc	0f b6 4e f8	 movzx	 ecx, BYTE PTR [esi-8]
  00100	8b 15 00 00 00
	00		 mov	 edx, DWORD PTR ?gObj@@3PAUOBJECTSTRUCT@@A ; gObj
  00106	88 8c 10 53 01
	00 00		 mov	 BYTE PTR [eax+edx+339], cl

; 1478 : 					gObj[result].m_OldX			= (WORD)this->m_stObeliskInfo[i].m_iPosX;

  0010d	0f b6 4e f4	 movzx	 ecx, BYTE PTR [esi-12]
  00111	8b 15 00 00 00
	00		 mov	 edx, DWORD PTR ?gObj@@3PAUOBJECTSTRUCT@@A ; gObj
  00117	88 8c 10 50 01
	00 00		 mov	 BYTE PTR [eax+edx+336], cl

; 1479 : 					gObj[result].m_OldY			= (WORD)this->m_stObeliskInfo[i].m_iPosY;

  0011e	0f b6 4e f8	 movzx	 ecx, BYTE PTR [esi-8]
  00122	8b 15 00 00 00
	00		 mov	 edx, DWORD PTR ?gObj@@3PAUOBJECTSTRUCT@@A ; gObj
  00128	88 8c 10 51 01
	00 00		 mov	 BYTE PTR [eax+edx+337], cl

; 1480 : 					gObj[result].StartX			= (BYTE)this->m_stObeliskInfo[i].m_iPosX;

  0012f	0f b6 4e f4	 movzx	 ecx, BYTE PTR [esi-12]
  00133	8b 15 00 00 00
	00		 mov	 edx, DWORD PTR ?gObj@@3PAUOBJECTSTRUCT@@A ; gObj
  00139	88 8c 10 4e 01
	00 00		 mov	 BYTE PTR [eax+edx+334], cl

; 1481 : 					gObj[result].StartY			= (BYTE)this->m_stObeliskInfo[i].m_iPosY;

  00140	0f b6 4e f8	 movzx	 ecx, BYTE PTR [esi-8]
  00144	8b 15 00 00 00
	00		 mov	 edx, DWORD PTR ?gObj@@3PAUOBJECTSTRUCT@@A ; gObj
  0014a	88 8c 10 4f 01
	00 00		 mov	 BYTE PTR [eax+edx+335], cl

; 1482 : 					gObj[result].Dir			= 1;

  00151	8b 0d 00 00 00
	00		 mov	 ecx, DWORD PTR ?gObj@@3PAUOBJECTSTRUCT@@A ; gObj
  00157	c6 84 08 22 01
	00 00 01	 mov	 BYTE PTR [eax+ecx+290], 1

; 1483 : 					gObj[result].Live			= true;

  0015f	8b 15 00 00 00
	00		 mov	 edx, DWORD PTR ?gObj@@3PAUOBJECTSTRUCT@@A ; gObj
  00165	c6 44 10 51 01	 mov	 BYTE PTR [eax+edx+81], 1

; 1484 : 					gObj[result].DieRegen		= 0;

  0016a	8b 0d 00 00 00
	00		 mov	 ecx, DWORD PTR ?gObj@@3PAUOBJECTSTRUCT@@A ; gObj
  00170	c6 84 08 8a 05
	00 00 00	 mov	 BYTE PTR [eax+ecx+1418], 0

; 1485 : 					gObj[result].MaxRegenTime	= 0;

  00178	8b 15 00 00 00
	00		 mov	 edx, DWORD PTR ?gObj@@3PAUOBJECTSTRUCT@@A ; gObj
  0017e	c7 84 10 94 05
	00 00 00 00 00
	00		 mov	 DWORD PTR [eax+edx+1428], 0

; 1486 : 					gObj[result].MaxLife		= (double)this->m_stObeliskInfo[i].m_iOccupyHP;

  00189	8b 0d 00 00 00
	00		 mov	 ecx, DWORD PTR ?gObj@@3PAUOBJECTSTRUCT@@A ; gObj
  0018f	db 46 ec	 fild	 DWORD PTR [esi-20]

; 1487 : 					gObj[result].Life			= (double)this->m_stObeliskInfo[i].m_iOccupyHP;
; 1488 : 					// ----
; 1489 : 					this->m_stObeliskState[i].m_iMonIndex = result;
; 1490 : 					LogAddTD("[ArcaBattle] (%d) Obelisk be Regen.", result);

  00192	57		 push	 edi
  00193	68 00 00 00 00	 push	 OFFSET ??_C@_0CE@LIFLCJPD@?$FLArcaBattle?$FN?5?$CI?$CFd?$CJ?5Obelisk?5be?5Reg@
  00198	d9 9c 08 dc 00
	00 00		 fstp	 DWORD PTR [eax+ecx+220]
  0019f	8b 15 00 00 00
	00		 mov	 edx, DWORD PTR ?gObj@@3PAUOBJECTSTRUCT@@A ; gObj
  001a5	db 46 ec	 fild	 DWORD PTR [esi-20]
  001a8	d9 9c 10 d8 00
	00 00		 fstp	 DWORD PTR [eax+edx+216]
  001af	89 3b		 mov	 DWORD PTR [ebx], edi
  001b1	ff 15 00 00 00
	00		 call	 DWORD PTR ?LogAddTD@@3P6AXPADZZA ; LogAddTD
  001b7	83 c4 10	 add	 esp, 16			; 00000010H
$LN18@RegenObeli:
  001ba	8b 7d fc	 mov	 edi, DWORD PTR _this$[ebp]
$LN7@RegenObeli:

; 1449 : 	for( int i = 0; i < this->m_iObeliskCnt; i++ )

  001bd	8b 45 f8	 mov	 eax, DWORD PTR _i$183449[ebp]
  001c0	40		 inc	 eax
  001c1	83 c6 58	 add	 esi, 88			; 00000058H
  001c4	83 c3 54	 add	 ebx, 84			; 00000054H
  001c7	89 45 f8	 mov	 DWORD PTR _i$183449[ebp], eax
  001ca	3b 87 b0 34 00
	00		 cmp	 eax, DWORD PTR [edi+13488]
  001d0	0f 8c 5a fe ff
	ff		 jl	 $LL8@RegenObeli
$LN19@RegenObeli:
  001d6	5f		 pop	 edi
  001d7	5e		 pop	 esi

; 1491 : 				}
; 1492 : 			}
; 1493 : 		}
; 1494 : 	}
; 1495 : 	// ----
; 1496 : 	return true;

  001d8	b8 01 00 00 00	 mov	 eax, 1
  001dd	5b		 pop	 ebx

; 1497 : }

  001de	8b e5		 mov	 esp, ebp
  001e0	5d		 pop	 ebp
  001e1	c3		 ret	 0
$LN14@RegenObeli:
  001e2	5f		 pop	 edi
  001e3	5e		 pop	 esi

; 1454 : 		{
; 1455 : 			return false;

  001e4	33 c0		 xor	 eax, eax
  001e6	5b		 pop	 ebx

; 1497 : }

  001e7	8b e5		 mov	 esp, ebp
  001e9	5d		 pop	 ebp
  001ea	c3		 ret	 0
?RegenObelisk@CArcaBattle@@QAEHXZ ENDP			; CArcaBattle::RegenObelisk
_TEXT	ENDS
PUBLIC	__$ArrayPad$
PUBLIC	?SetRandomObeliskAttr@CArcaBattle@@QAEXXZ	; CArcaBattle::SetRandomObeliskAttr
EXTRN	_rand:PROC
; Function compile flags: /Ogtp
;	COMDAT ?SetRandomObeliskAttr@CArcaBattle@@QAEXXZ
_TEXT	SEGMENT
_iArrMonsterIndex$ = -44				; size = 20
_iArrObeliskAttr$ = -24					; size = 20
__$ArrayPad$ = -4					; size = 4
?SetRandomObeliskAttr@CArcaBattle@@QAEXXZ PROC		; CArcaBattle::SetRandomObeliskAttr, COMDAT
; _this$ = ecx

; 1502 : {

  00000	55		 push	 ebp
  00001	8b ec		 mov	 ebp, esp
  00003	83 ec 2c	 sub	 esp, 44			; 0000002cH
  00006	a1 00 00 00 00	 mov	 eax, DWORD PTR ___security_cookie
  0000b	33 c5		 xor	 eax, ebp
  0000d	89 45 fc	 mov	 DWORD PTR __$ArrayPad$[ebp], eax
  00010	53		 push	 ebx
  00011	56		 push	 esi
  00012	57		 push	 edi

; 1503 : 	int iObeliskAttrCnt;
; 1504 : 	int iArrObeliskAttr[AB_MAX_BATTLEPOS];
; 1505 : 	int iArrMonsterIndex[AB_MAX_BATTLEPOS];
; 1506 : 	bool bflag;
; 1507 : 	int iRand;
; 1508 : 	int iObeliskAttr;
; 1509 : 	// ----
; 1510 : 	iArrObeliskAttr[0]	= 0;

  00013	33 ff		 xor	 edi, edi
  00015	33 db		 xor	 ebx, ebx
  00017	8b f1		 mov	 esi, ecx
  00019	89 5d e8	 mov	 DWORD PTR _iArrObeliskAttr$[ebp], ebx

; 1511 : 	iArrObeliskAttr[1]	= 0;

  0001c	89 7d ec	 mov	 DWORD PTR _iArrObeliskAttr$[ebp+4], edi

; 1512 : 	iArrObeliskAttr[2]	= 0;

  0001f	89 7d f0	 mov	 DWORD PTR _iArrObeliskAttr$[ebp+8], edi

; 1513 : 	iArrObeliskAttr[3]	= 0;

  00022	89 7d f4	 mov	 DWORD PTR _iArrObeliskAttr$[ebp+12], edi

; 1514 : 	iArrObeliskAttr[4]	= 0;

  00025	89 7d f8	 mov	 DWORD PTR _iArrObeliskAttr$[ebp+16], edi

; 1515 : 	iArrMonsterIndex[0] = 598;

  00028	c7 45 d4 56 02
	00 00		 mov	 DWORD PTR _iArrMonsterIndex$[ebp], 598 ; 00000256H

; 1516 : 	iArrMonsterIndex[1] = 599;

  0002f	c7 45 d8 57 02
	00 00		 mov	 DWORD PTR _iArrMonsterIndex$[ebp+4], 599 ; 00000257H

; 1517 : 	iArrMonsterIndex[2] = 600;

  00036	c7 45 dc 58 02
	00 00		 mov	 DWORD PTR _iArrMonsterIndex$[ebp+8], 600 ; 00000258H

; 1518 : 	iArrMonsterIndex[3] = 601;

  0003d	c7 45 e0 59 02
	00 00		 mov	 DWORD PTR _iArrMonsterIndex$[ebp+12], 601 ; 00000259H

; 1519 : 	iArrMonsterIndex[4] = 602;

  00044	c7 45 e4 5a 02
	00 00		 mov	 DWORD PTR _iArrMonsterIndex$[ebp+16], 602 ; 0000025aH
  0004b	eb 03 8d 49 00	 npad	 5
$LL11@SetRandomO:

; 1520 : 	iObeliskAttrCnt		= 0;
; 1521 : 	// ----
; 1522 : 	do	//need check
; 1523 : 	{
; 1524 : 		iRand = rand() % AB_MAX_BATTLEPOS + 1;

  00050	e8 00 00 00 00	 call	 _rand
  00055	99		 cdq
  00056	b9 05 00 00 00	 mov	 ecx, 5
  0005b	f7 f9		 idiv	 ecx

; 1525 : 		bflag = false;

  0005d	32 c0		 xor	 al, al
  0005f	42		 inc	 edx

; 1526 : 		// ----
; 1527 : 		for( int i = 0; i < AB_MAX_BATTLEPOS; i++ )
; 1528 : 		{
; 1529 : 			if( iArrObeliskAttr[i] == iRand )

  00060	3b da		 cmp	 ebx, edx
  00062	75 02		 jne	 SHORT $LN7@SetRandomO

; 1530 : 			{
; 1531 : 				bflag = true;

  00064	b0 01		 mov	 al, 1
$LN7@SetRandomO:

; 1526 : 		// ----
; 1527 : 		for( int i = 0; i < AB_MAX_BATTLEPOS; i++ )
; 1528 : 		{
; 1529 : 			if( iArrObeliskAttr[i] == iRand )

  00066	39 55 ec	 cmp	 DWORD PTR _iArrObeliskAttr$[ebp+4], edx
  00069	75 02		 jne	 SHORT $LN23@SetRandomO

; 1530 : 			{
; 1531 : 				bflag = true;

  0006b	b0 01		 mov	 al, 1
$LN23@SetRandomO:

; 1526 : 		// ----
; 1527 : 		for( int i = 0; i < AB_MAX_BATTLEPOS; i++ )
; 1528 : 		{
; 1529 : 			if( iArrObeliskAttr[i] == iRand )

  0006d	39 55 f0	 cmp	 DWORD PTR _iArrObeliskAttr$[ebp+8], edx
  00070	75 02		 jne	 SHORT $LN25@SetRandomO

; 1530 : 			{
; 1531 : 				bflag = true;

  00072	b0 01		 mov	 al, 1
$LN25@SetRandomO:

; 1526 : 		// ----
; 1527 : 		for( int i = 0; i < AB_MAX_BATTLEPOS; i++ )
; 1528 : 		{
; 1529 : 			if( iArrObeliskAttr[i] == iRand )

  00074	39 55 f4	 cmp	 DWORD PTR _iArrObeliskAttr$[ebp+12], edx
  00077	75 02		 jne	 SHORT $LN27@SetRandomO

; 1530 : 			{
; 1531 : 				bflag = true;

  00079	b0 01		 mov	 al, 1
$LN27@SetRandomO:

; 1526 : 		// ----
; 1527 : 		for( int i = 0; i < AB_MAX_BATTLEPOS; i++ )
; 1528 : 		{
; 1529 : 			if( iArrObeliskAttr[i] == iRand )

  0007b	39 55 f8	 cmp	 DWORD PTR _iArrObeliskAttr$[ebp+16], edx

; 1532 : 			}
; 1533 : 		}
; 1534 : 		// ----
; 1535 : 		if( !bflag )

  0007e	74 0c		 je	 SHORT $LN10@SetRandomO
  00080	84 c0		 test	 al, al
  00082	75 08		 jne	 SHORT $LN10@SetRandomO

; 1536 : 		{
; 1537 : 			iArrObeliskAttr[iObeliskAttrCnt] = iRand;

  00084	89 54 bd e8	 mov	 DWORD PTR _iArrObeliskAttr$[ebp+edi*4], edx

; 1538 : 			iObeliskAttrCnt++;

  00088	8b 5d e8	 mov	 ebx, DWORD PTR _iArrObeliskAttr$[ebp]
  0008b	47		 inc	 edi
$LN10@SetRandomO:

; 1539 : 		}
; 1540 : 
; 1541 : 	} while( iObeliskAttrCnt != AB_MAX_BATTLEPOS );

  0008c	3b f9		 cmp	 edi, ecx
  0008e	75 c0		 jne	 SHORT $LL11@SetRandomO

; 1542 : 	// ----
; 1543 : 	for( int j = 0; j < AB_MAX_BATTLEPOS; j++ )
; 1544 : 	{
; 1545 : 		iObeliskAttr = iArrObeliskAttr[j];
; 1546 : 		this->m_stObeliskInfo[j].m_iAttrKind	= iObeliskAttr;

  00090	8b 45 ec	 mov	 eax, DWORD PTR _iArrObeliskAttr$[ebp+4]

; 1547 : 		this->m_stObeliskInfo[j].m_iMonsterNum	= iArrMonsterIndex[iObeliskAttr];

  00093	8b 54 9d d4	 mov	 edx, DWORD PTR _iArrMonsterIndex$[ebp+ebx*4]
  00097	89 86 34 30 00
	00		 mov	 DWORD PTR [esi+12340], eax
  0009d	8b 44 85 d4	 mov	 eax, DWORD PTR _iArrMonsterIndex$[ebp+eax*4]
  000a1	89 86 4c 30 00
	00		 mov	 DWORD PTR [esi+12364], eax
  000a7	8b 45 f0	 mov	 eax, DWORD PTR _iArrObeliskAttr$[ebp+8]
  000aa	8b 4c 85 d4	 mov	 ecx, DWORD PTR _iArrMonsterIndex$[ebp+eax*4]
  000ae	89 86 8c 30 00
	00		 mov	 DWORD PTR [esi+12428], eax
  000b4	8b 45 f4	 mov	 eax, DWORD PTR _iArrObeliskAttr$[ebp+12]
  000b7	89 96 f4 2f 00
	00		 mov	 DWORD PTR [esi+12276], edx
  000bd	8b 54 85 d4	 mov	 edx, DWORD PTR _iArrMonsterIndex$[ebp+eax*4]
  000c1	89 86 e4 30 00
	00		 mov	 DWORD PTR [esi+12516], eax
  000c7	8b 45 f8	 mov	 eax, DWORD PTR _iArrObeliskAttr$[ebp+16]
  000ca	89 86 3c 31 00
	00		 mov	 DWORD PTR [esi+12604], eax
  000d0	8b 44 85 d4	 mov	 eax, DWORD PTR _iArrMonsterIndex$[ebp+eax*4]
  000d4	89 8e a4 30 00
	00		 mov	 DWORD PTR [esi+12452], ecx

; 1548 : 	}
; 1549 : }

  000da	8b 4d fc	 mov	 ecx, DWORD PTR __$ArrayPad$[ebp]
  000dd	5f		 pop	 edi
  000de	89 9e dc 2f 00
	00		 mov	 DWORD PTR [esi+12252], ebx
  000e4	89 96 fc 30 00
	00		 mov	 DWORD PTR [esi+12540], edx
  000ea	89 86 54 31 00
	00		 mov	 DWORD PTR [esi+12628], eax
  000f0	5e		 pop	 esi
  000f1	33 cd		 xor	 ecx, ebp
  000f3	5b		 pop	 ebx
  000f4	e8 00 00 00 00	 call	 @__security_check_cookie@4
  000f9	8b e5		 mov	 esp, ebp
  000fb	5d		 pop	 ebp
  000fc	c3		 ret	 0
?SetRandomObeliskAttr@CArcaBattle@@QAEXXZ ENDP		; CArcaBattle::SetRandomObeliskAttr
_TEXT	ENDS
PUBLIC	??_C@_0CD@EAAGOHK@?$FLArcaBattle?$FN?5?$CI?$CFd?$CJ?5Aura?5be?5create@ ; `string'
PUBLIC	__real@3f800000
PUBLIC	??_C@_0CG@BMIFBHBK@?$FLArcaBattle?$FN?5?$CI?$CFd?$CJ?5Obelisk?5be?5cre@ ; `string'
PUBLIC	??_C@_0CL@GGLEKHEH@?$FLArcaBattle?$FN?$FLObelisk?$FN?5Delete?5Mon@ ; `string'
PUBLIC	?SetObelisk@CArcaBattle@@QAEHXZ			; CArcaBattle::SetObelisk
;	COMDAT ??_C@_0CD@EAAGOHK@?$FLArcaBattle?$FN?5?$CI?$CFd?$CJ?5Aura?5be?5create@
; File c:\muserver_dev\development\mu-s8ep2-repack\gameserver\source\arcabattle.h
CONST	SEGMENT
??_C@_0CD@EAAGOHK@?$FLArcaBattle?$FN?5?$CI?$CFd?$CJ?5Aura?5be?5create@ DB '['
	DB	'ArcaBattle] (%d) Aura be created.', 00H	; `string'
CONST	ENDS
;	COMDAT __real@3f800000
CONST	SEGMENT
__real@3f800000 DD 03f800000r			; 1
CONST	ENDS
;	COMDAT ??_C@_0CG@BMIFBHBK@?$FLArcaBattle?$FN?5?$CI?$CFd?$CJ?5Obelisk?5be?5cre@
CONST	SEGMENT
??_C@_0CG@BMIFBHBK@?$FLArcaBattle?$FN?5?$CI?$CFd?$CJ?5Obelisk?5be?5cre@ DB '['
	DB	'ArcaBattle] (%d) Obelisk be created.', 00H	; `string'
CONST	ENDS
;	COMDAT ??_C@_0CL@GGLEKHEH@?$FLArcaBattle?$FN?$FLObelisk?$FN?5Delete?5Mon@
CONST	SEGMENT
??_C@_0CL@GGLEKHEH@?$FLArcaBattle?$FN?$FLObelisk?$FN?5Delete?5Mon@ DB '[A'
	DB	'rcaBattle][Obelisk] Delete Monster - %d ', 00H ; `string'
; Function compile flags: /Ogtp
; File c:\muserver_dev\development\mu-s8ep2-repack\gameserver\source\arcabattle.cpp
CONST	ENDS
;	COMDAT ?SetObelisk@CArcaBattle@@QAEHXZ
_TEXT	SEGMENT
_i$183505 = -16						; size = 4
tv873 = -12						; size = 4
tv177 = -12						; size = 4
_this$ = -8						; size = 4
tv1003 = -4						; size = 4
?SetObelisk@CArcaBattle@@QAEHXZ PROC			; CArcaBattle::SetObelisk, COMDAT
; _this$ = ecx

; 1554 : {

  00000	55		 push	 ebp
  00001	8b ec		 mov	 ebp, esp
  00003	83 ec 10	 sub	 esp, 16			; 00000010H
  00006	53		 push	 ebx
  00007	56		 push	 esi
  00008	8b d9		 mov	 ebx, ecx
  0000a	57		 push	 edi
  0000b	89 5d f8	 mov	 DWORD PTR _this$[ebp], ebx

; 1555 : 	for( int iCnt = 0; iCnt < AB_MAX_BATTLEPOS; iCnt++ )

  0000e	8d b3 98 31 00
	00		 lea	 esi, DWORD PTR [ebx+12696]
  00014	c7 45 f4 05 00
	00 00		 mov	 DWORD PTR tv177[ebp], 5
  0001b	83 cf ff	 or	 edi, -1
  0001e	8b ff		 npad	 2
$LL12@SetObelisk:

; 1556 : 	{
; 1557 : 		if ( this->m_stObeliskState[iCnt].m_iMonIndex >= 0 )

  00020	83 7e fc 00	 cmp	 DWORD PTR [esi-4], 0
  00024	7c 1b		 jl	 SHORT $LN9@SetObelisk

; 1558 : 		{
; 1559 : 			int iIndex = this->m_stObeliskState[iCnt].m_iMonIndex;

  00026	8b 5e fc	 mov	 ebx, DWORD PTR [esi-4]

; 1560 : 			LogAdd("[ArcaBattle][Obelisk] Delete Monster - %d ", this->m_stObeliskState[iCnt].m_iMonIndex);

  00029	53		 push	 ebx
  0002a	68 00 00 00 00	 push	 OFFSET ??_C@_0CL@GGLEKHEH@?$FLArcaBattle?$FN?$FLObelisk?$FN?5Delete?5Mon@
  0002f	ff 15 00 00 00
	00		 call	 DWORD PTR ?LogAdd@@3P6AXPADZZA ; LogAdd

; 1561 : #if( AB_DEBUG_TRACE == 1 )
; 1562 : 			TRACE_LOG("[ArcaBattle][Obelisk] Delete Monster - %d ", this->m_stObeliskState[iCnt].m_iMonIndex);
; 1563 : #endif
; 1564 : 			gObjDel(iIndex);

  00035	53		 push	 ebx
  00036	e8 00 00 00 00	 call	 ?gObjDel@@YAFH@Z	; gObjDel
  0003b	8b 5d f8	 mov	 ebx, DWORD PTR _this$[ebp]
  0003e	83 c4 0c	 add	 esp, 12			; 0000000cH
$LN9@SetObelisk:

; 1565 : 		}
; 1566 : 		// ----
; 1567 : 		this->m_stObeliskState[iCnt].Clear();

  00041	33 c0		 xor	 eax, eax
  00043	89 06		 mov	 DWORD PTR [esi], eax
  00045	89 46 08	 mov	 DWORD PTR [esi+8], eax
  00048	89 7e f8	 mov	 DWORD PTR [esi-8], edi
  0004b	89 7e fc	 mov	 DWORD PTR [esi-4], edi
  0004e	89 7e 04	 mov	 DWORD PTR [esi+4], edi
  00051	89 7e 0c	 mov	 DWORD PTR [esi+12], edi
  00054	89 46 10	 mov	 DWORD PTR [esi+16], eax
  00057	89 46 14	 mov	 DWORD PTR [esi+20], eax
  0005a	6a 30		 push	 48			; 00000030H
  0005c	88 46 18	 mov	 BYTE PTR [esi+24], al
  0005f	8d 46 1c	 lea	 eax, DWORD PTR [esi+28]
  00062	57		 push	 edi
  00063	50		 push	 eax
  00064	e8 00 00 00 00	 call	 _memset
  00069	83 c4 0c	 add	 esp, 12			; 0000000cH
  0006c	83 c6 54	 add	 esi, 84			; 00000054H
  0006f	ff 4d f4	 dec	 DWORD PTR tv177[ebp]
  00072	75 ac		 jne	 SHORT $LL12@SetObelisk

; 1568 : 	}
; 1569 : 	// ----
; 1570 : 	for( int i = 0; i < this->m_iObeliskCnt; i++ )

  00074	33 c0		 xor	 eax, eax
  00076	89 45 f0	 mov	 DWORD PTR _i$183505[ebp], eax
  00079	39 83 b0 34 00
	00		 cmp	 DWORD PTR [ebx+13488], eax
  0007f	0f 8e ee 02 00
	00		 jle	 $LN23@SetObelisk
  00085	89 45 fc	 mov	 DWORD PTR tv1003[ebp], eax
  00088	8d bb ec 2f 00
	00		 lea	 edi, DWORD PTR [ebx+12268]
  0008e	eb 02		 jmp	 SHORT $LN8@SetObelisk
$LL24@SetObelisk:
  00090	8b da		 mov	 ebx, edx
$LN8@SetObelisk:

; 1571 : 	{
; 1572 : 		int result = gObjAddMonster(this->m_stObeliskInfo[i].m_iMapIndex);

  00092	8b 4f fc	 mov	 ecx, DWORD PTR [edi-4]
  00095	51		 push	 ecx
  00096	e8 00 00 00 00	 call	 ?gObjAddMonster@@YAFH@Z	; gObjAddMonster
  0009b	0f bf f0	 movsx	 esi, ax
  0009e	83 c4 04	 add	 esp, 4

; 1573 : 		// ----
; 1574 : 		if( result >= 0 )

  000a1	85 f6		 test	 esi, esi
  000a3	0f 88 3b 01 00
	00		 js	 $LN5@SetObelisk

; 1575 : 		{
; 1576 : 			gObjSetMonster(result, this->m_stObeliskInfo[i].m_iMonsterNum);

  000a9	8b 57 08	 mov	 edx, DWORD PTR [edi+8]
  000ac	52		 push	 edx
  000ad	56		 push	 esi
  000ae	e8 00 00 00 00	 call	 ?gObjSetMonster@@YAHHH@Z ; gObjSetMonster

; 1577 : 			// ----
; 1578 : 			gObj[result].Class			= (WORD)this->m_stObeliskInfo[i].m_iMonsterNum;

  000b3	66 8b 4f 08	 mov	 cx, WORD PTR [edi+8]
  000b7	8b 15 00 00 00
	00		 mov	 edx, DWORD PTR ?gObj@@3PAUOBJECTSTRUCT@@A ; gObj
  000bd	8b c6		 mov	 eax, esi
  000bf	69 c0 40 27 00
	00		 imul	 eax, 10048		; 00002740H
  000c5	66 89 8c 10 90
	00 00 00	 mov	 WORD PTR [eax+edx+144], cx

; 1579 : 			gObj[result].MapNumber		= (BYTE)this->m_stObeliskInfo[i].m_iMapIndex;

  000cd	0f b6 4f fc	 movzx	 ecx, BYTE PTR [edi-4]
  000d1	8b 15 00 00 00
	00		 mov	 edx, DWORD PTR ?gObj@@3PAUOBJECTSTRUCT@@A ; gObj
  000d7	88 8c 10 23 01
	00 00		 mov	 BYTE PTR [eax+edx+291], cl

; 1580 : 			gObj[result].X				= (WORD)this->m_stObeliskInfo[i].m_iPosX;

  000de	0f b6 0f	 movzx	 ecx, BYTE PTR [edi]
  000e1	8b 15 00 00 00
	00		 mov	 edx, DWORD PTR ?gObj@@3PAUOBJECTSTRUCT@@A ; gObj
  000e7	88 8c 10 20 01
	00 00		 mov	 BYTE PTR [eax+edx+288], cl

; 1581 : 			gObj[result].Y				= (WORD)this->m_stObeliskInfo[i].m_iPosY;

  000ee	0f b6 4f 04	 movzx	 ecx, BYTE PTR [edi+4]
  000f2	8b 15 00 00 00
	00		 mov	 edx, DWORD PTR ?gObj@@3PAUOBJECTSTRUCT@@A ; gObj
  000f8	88 8c 10 21 01
	00 00		 mov	 BYTE PTR [eax+edx+289], cl

; 1582 : 			gObj[result].TX				= (WORD)this->m_stObeliskInfo[i].m_iPosX;

  000ff	0f b6 0f	 movzx	 ecx, BYTE PTR [edi]
  00102	8b 15 00 00 00
	00		 mov	 edx, DWORD PTR ?gObj@@3PAUOBJECTSTRUCT@@A ; gObj
  00108	88 8c 10 52 01
	00 00		 mov	 BYTE PTR [eax+edx+338], cl

; 1583 : 			gObj[result].TY				= (WORD)this->m_stObeliskInfo[i].m_iPosY;

  0010f	0f b6 4f 04	 movzx	 ecx, BYTE PTR [edi+4]
  00113	8b 15 00 00 00
	00		 mov	 edx, DWORD PTR ?gObj@@3PAUOBJECTSTRUCT@@A ; gObj
  00119	88 8c 10 53 01
	00 00		 mov	 BYTE PTR [eax+edx+339], cl

; 1584 : 			gObj[result].m_OldX			= (WORD)this->m_stObeliskInfo[i].m_iPosX;

  00120	0f b6 0f	 movzx	 ecx, BYTE PTR [edi]
  00123	8b 15 00 00 00
	00		 mov	 edx, DWORD PTR ?gObj@@3PAUOBJECTSTRUCT@@A ; gObj
  00129	88 8c 10 50 01
	00 00		 mov	 BYTE PTR [eax+edx+336], cl

; 1585 : 			gObj[result].m_OldY			= (WORD)this->m_stObeliskInfo[i].m_iPosY;

  00130	0f b6 4f 04	 movzx	 ecx, BYTE PTR [edi+4]
  00134	8b 15 00 00 00
	00		 mov	 edx, DWORD PTR ?gObj@@3PAUOBJECTSTRUCT@@A ; gObj
  0013a	88 8c 10 51 01
	00 00		 mov	 BYTE PTR [eax+edx+337], cl

; 1586 : 			gObj[result].StartX			= (BYTE)this->m_stObeliskInfo[i].m_iPosX;

  00141	0f b6 0f	 movzx	 ecx, BYTE PTR [edi]
  00144	8b 15 00 00 00
	00		 mov	 edx, DWORD PTR ?gObj@@3PAUOBJECTSTRUCT@@A ; gObj
  0014a	88 8c 10 4e 01
	00 00		 mov	 BYTE PTR [eax+edx+334], cl

; 1587 : 			gObj[result].StartY			= (BYTE)this->m_stObeliskInfo[i].m_iPosY;

  00151	0f b6 4f 04	 movzx	 ecx, BYTE PTR [edi+4]
  00155	8b 15 00 00 00
	00		 mov	 edx, DWORD PTR ?gObj@@3PAUOBJECTSTRUCT@@A ; gObj
  0015b	88 8c 10 4f 01
	00 00		 mov	 BYTE PTR [eax+edx+335], cl

; 1588 : 			gObj[result].Dir			= 1;

  00162	8b 0d 00 00 00
	00		 mov	 ecx, DWORD PTR ?gObj@@3PAUOBJECTSTRUCT@@A ; gObj
  00168	c6 84 08 22 01
	00 00 01	 mov	 BYTE PTR [eax+ecx+290], 1

; 1589 : 			gObj[result].Live			= true;

  00170	8b 15 00 00 00
	00		 mov	 edx, DWORD PTR ?gObj@@3PAUOBJECTSTRUCT@@A ; gObj
  00176	c6 44 10 51 01	 mov	 BYTE PTR [eax+edx+81], 1

; 1590 : 			gObj[result].DieRegen		= 0;

  0017b	8b 0d 00 00 00
	00		 mov	 ecx, DWORD PTR ?gObj@@3PAUOBJECTSTRUCT@@A ; gObj
  00181	c6 84 08 8a 05
	00 00 00	 mov	 BYTE PTR [eax+ecx+1418], 0

; 1591 : 			gObj[result].m_State		= 1;

  00189	8b 15 00 00 00
	00		 mov	 edx, DWORD PTR ?gObj@@3PAUOBJECTSTRUCT@@A ; gObj
  0018f	c7 84 10 d0 01
	00 00 01 00 00
	00		 mov	 DWORD PTR [eax+edx+464], 1

; 1592 : 			gObj[result].MaxRegenTime	= 0;

  0019a	8b 0d 00 00 00
	00		 mov	 ecx, DWORD PTR ?gObj@@3PAUOBJECTSTRUCT@@A ; gObj
  001a0	c7 84 08 94 05
	00 00 00 00 00
	00		 mov	 DWORD PTR [eax+ecx+1428], 0

; 1593 : 			gObj[result].MaxLife		= (double)this->m_stObeliskInfo[i].m_iHP;

  001ab	8b 15 00 00 00
	00		 mov	 edx, DWORD PTR ?gObj@@3PAUOBJECTSTRUCT@@A ; gObj
  001b1	db 47 f4	 fild	 DWORD PTR [edi-12]

; 1594 : 			gObj[result].Life			= (double)this->m_stObeliskInfo[i].m_iHP;
; 1595 : 			// ----
; 1596 : 			this->m_stObeliskState[i].m_iMonIndex = result;
; 1597 : 			LogAddTD("[ArcaBattle] (%d) Obelisk be created.", result);

  001b4	56		 push	 esi
  001b5	68 00 00 00 00	 push	 OFFSET ??_C@_0CG@BMIFBHBK@?$FLArcaBattle?$FN?5?$CI?$CFd?$CJ?5Obelisk?5be?5cre@
  001ba	d9 9c 10 dc 00
	00 00		 fstp	 DWORD PTR [eax+edx+220]
  001c1	8b 0d 00 00 00
	00		 mov	 ecx, DWORD PTR ?gObj@@3PAUOBJECTSTRUCT@@A ; gObj
  001c7	db 47 f4	 fild	 DWORD PTR [edi-12]
  001ca	8b 55 fc	 mov	 edx, DWORD PTR tv1003[ebp]
  001cd	d9 9c 08 d8 00
	00 00		 fstp	 DWORD PTR [eax+ecx+216]
  001d4	89 b4 1a 94 31
	00 00		 mov	 DWORD PTR [edx+ebx+12692], esi
  001db	ff 15 00 00 00
	00		 call	 DWORD PTR ?LogAddTD@@3P6AXPADZZA ; LogAddTD
  001e1	83 c4 10	 add	 esp, 16			; 00000010H
$LN5@SetObelisk:

; 1598 : 		}
; 1599 : 
; 1600 : 		// ----
; 1601 : 		for( int nAura = 0; nAura < AB_MAX_AURAPOS; nAura++ )

  001e4	c7 45 f4 c0 31
	00 00		 mov	 DWORD PTR tv873[ebp], 12736 ; 000031c0H
  001eb	8d 77 1c	 lea	 esi, DWORD PTR [edi+28]
  001ee	8b ff		 npad	 2
$LL4@SetObelisk:

; 1602 : 		{
; 1603 : 			int nResult = gObjAddMonster(this->m_stObeliskInfo[i].m_stAuraInfo[nAura].m_iMapIndex);

  001f0	8b 46 fc	 mov	 eax, DWORD PTR [esi-4]
  001f3	50		 push	 eax
  001f4	e8 00 00 00 00	 call	 ?gObjAddMonster@@YAFH@Z	; gObjAddMonster
  001f9	0f bf d8	 movsx	 ebx, ax
  001fc	83 c4 04	 add	 esp, 4

; 1604 : 			// ----
; 1605 : 			if( nResult >= 0 )

  001ff	85 db		 test	 ebx, ebx
  00201	0f 88 38 01 00
	00		 js	 $LN3@SetObelisk

; 1606 : 			{
; 1607 : 				gObjSetMonster(nResult, 603);

  00207	68 5b 02 00 00	 push	 603			; 0000025bH
  0020c	53		 push	 ebx
  0020d	e8 00 00 00 00	 call	 ?gObjSetMonster@@YAHHH@Z ; gObjSetMonster

; 1608 : 				// ----
; 1609 : 				gObj[nResult].Class			= 603;
; 1610 : 				gObj[nResult].MapNumber		= (BYTE)this->m_stObeliskInfo[i].m_stAuraInfo[nAura].m_iMapIndex;
; 1611 : 				gObj[nResult].X				= (WORD)this->m_stObeliskInfo[i].m_stAuraInfo[nAura].m_iAuraPosX;
; 1612 : 				gObj[nResult].Y				= (WORD)this->m_stObeliskInfo[i].m_stAuraInfo[nAura].m_iAuraPosY;
; 1613 : 				gObj[nResult].TX			= (WORD)this->m_stObeliskInfo[i].m_stAuraInfo[nAura].m_iAuraPosX;
; 1614 : 				gObj[nResult].TY			= (WORD)this->m_stObeliskInfo[i].m_stAuraInfo[nAura].m_iAuraPosX;
; 1615 : 				gObj[nResult].m_OldX		= (WORD)this->m_stObeliskInfo[i].m_stAuraInfo[nAura].m_iAuraPosX;
; 1616 : 				gObj[nResult].m_OldY		= (WORD)this->m_stObeliskInfo[i].m_stAuraInfo[nAura].m_iAuraPosX;
; 1617 : 				gObj[nResult].StartX		= (BYTE)this->m_stObeliskInfo[i].m_stAuraInfo[nAura].m_iAuraPosX;
; 1618 : 				gObj[nResult].StartY		= (BYTE)this->m_stObeliskInfo[i].m_stAuraInfo[nAura].m_iAuraPosX;
; 1619 : 				gObj[nResult].Dir			= 1;
; 1620 : 				gObj[nResult].Live			= true;
; 1621 : 				gObj[nResult].DieRegen		= 0;
; 1622 : 				gObj[nResult].m_State		= 1;
; 1623 : 				gObj[nResult].MaxRegenTime	= 0;
; 1624 : 				gObj[nResult].MaxLife		= 1.0;

  00212	d9 e8		 fld1
  00214	8b 15 00 00 00
	00		 mov	 edx, DWORD PTR ?gObj@@3PAUOBJECTSTRUCT@@A ; gObj
  0021a	8b c3		 mov	 eax, ebx
  0021c	69 c0 40 27 00
	00		 imul	 eax, 10048		; 00002740H
  00222	b9 5b 02 00 00	 mov	 ecx, 603		; 0000025bH
  00227	66 89 8c 10 90
	00 00 00	 mov	 WORD PTR [eax+edx+144], cx
  0022f	0f b6 4e fc	 movzx	 ecx, BYTE PTR [esi-4]
  00233	8b 15 00 00 00
	00		 mov	 edx, DWORD PTR ?gObj@@3PAUOBJECTSTRUCT@@A ; gObj
  00239	88 8c 10 23 01
	00 00		 mov	 BYTE PTR [eax+edx+291], cl
  00240	0f b6 0e	 movzx	 ecx, BYTE PTR [esi]
  00243	8b 15 00 00 00
	00		 mov	 edx, DWORD PTR ?gObj@@3PAUOBJECTSTRUCT@@A ; gObj
  00249	88 8c 10 20 01
	00 00		 mov	 BYTE PTR [eax+edx+288], cl
  00250	0f b6 4e 04	 movzx	 ecx, BYTE PTR [esi+4]
  00254	8b 15 00 00 00
	00		 mov	 edx, DWORD PTR ?gObj@@3PAUOBJECTSTRUCT@@A ; gObj
  0025a	88 8c 10 21 01
	00 00		 mov	 BYTE PTR [eax+edx+289], cl
  00261	0f b6 0e	 movzx	 ecx, BYTE PTR [esi]
  00264	8b 15 00 00 00
	00		 mov	 edx, DWORD PTR ?gObj@@3PAUOBJECTSTRUCT@@A ; gObj
  0026a	88 8c 10 52 01
	00 00		 mov	 BYTE PTR [eax+edx+338], cl
  00271	0f b6 0e	 movzx	 ecx, BYTE PTR [esi]
  00274	8b 15 00 00 00
	00		 mov	 edx, DWORD PTR ?gObj@@3PAUOBJECTSTRUCT@@A ; gObj
  0027a	88 8c 10 53 01
	00 00		 mov	 BYTE PTR [eax+edx+339], cl
  00281	0f b6 0e	 movzx	 ecx, BYTE PTR [esi]
  00284	8b 15 00 00 00
	00		 mov	 edx, DWORD PTR ?gObj@@3PAUOBJECTSTRUCT@@A ; gObj
  0028a	88 8c 10 50 01
	00 00		 mov	 BYTE PTR [eax+edx+336], cl
  00291	0f b6 0e	 movzx	 ecx, BYTE PTR [esi]
  00294	8b 15 00 00 00
	00		 mov	 edx, DWORD PTR ?gObj@@3PAUOBJECTSTRUCT@@A ; gObj
  0029a	88 8c 10 51 01
	00 00		 mov	 BYTE PTR [eax+edx+337], cl
  002a1	0f b6 0e	 movzx	 ecx, BYTE PTR [esi]
  002a4	8b 15 00 00 00
	00		 mov	 edx, DWORD PTR ?gObj@@3PAUOBJECTSTRUCT@@A ; gObj
  002aa	88 8c 10 4e 01
	00 00		 mov	 BYTE PTR [eax+edx+334], cl
  002b1	0f b6 0e	 movzx	 ecx, BYTE PTR [esi]
  002b4	8b 15 00 00 00
	00		 mov	 edx, DWORD PTR ?gObj@@3PAUOBJECTSTRUCT@@A ; gObj
  002ba	88 8c 10 4f 01
	00 00		 mov	 BYTE PTR [eax+edx+335], cl
  002c1	8b 0d 00 00 00
	00		 mov	 ecx, DWORD PTR ?gObj@@3PAUOBJECTSTRUCT@@A ; gObj
  002c7	c6 84 08 22 01
	00 00 01	 mov	 BYTE PTR [eax+ecx+290], 1
  002cf	8b 15 00 00 00
	00		 mov	 edx, DWORD PTR ?gObj@@3PAUOBJECTSTRUCT@@A ; gObj
  002d5	c6 44 10 51 01	 mov	 BYTE PTR [eax+edx+81], 1
  002da	8b 0d 00 00 00
	00		 mov	 ecx, DWORD PTR ?gObj@@3PAUOBJECTSTRUCT@@A ; gObj
  002e0	c6 84 08 8a 05
	00 00 00	 mov	 BYTE PTR [eax+ecx+1418], 0
  002e8	8b 15 00 00 00
	00		 mov	 edx, DWORD PTR ?gObj@@3PAUOBJECTSTRUCT@@A ; gObj
  002ee	c7 84 10 d0 01
	00 00 01 00 00
	00		 mov	 DWORD PTR [eax+edx+464], 1
  002f9	8b 0d 00 00 00
	00		 mov	 ecx, DWORD PTR ?gObj@@3PAUOBJECTSTRUCT@@A ; gObj
  002ff	c7 84 08 94 05
	00 00 00 00 00
	00		 mov	 DWORD PTR [eax+ecx+1428], 0
  0030a	8b 15 00 00 00
	00		 mov	 edx, DWORD PTR ?gObj@@3PAUOBJECTSTRUCT@@A ; gObj

; 1625 : 				gObj[nResult].Life			= 1.0;
; 1626 : 				// ----
; 1627 : 				this->m_stObeliskState[i].m_stAuraState[nAura].m_iIndex = nResult;
; 1628 : 				LogAddTD("[ArcaBattle] (%d) Aura be created.", nResult);

  00310	53		 push	 ebx
  00311	68 00 00 00 00	 push	 OFFSET ??_C@_0CD@EAAGOHK@?$FLArcaBattle?$FN?5?$CI?$CFd?$CJ?5Aura?5be?5create@
  00316	d9 94 10 dc 00
	00 00		 fst	 DWORD PTR [eax+edx+220]
  0031d	8b 0d 00 00 00
	00		 mov	 ecx, DWORD PTR ?gObj@@3PAUOBJECTSTRUCT@@A ; gObj
  00323	8b 55 fc	 mov	 edx, DWORD PTR tv1003[ebp]
  00326	03 55 f4	 add	 edx, DWORD PTR tv873[ebp]
  00329	d9 9c 08 d8 00
	00 00		 fstp	 DWORD PTR [eax+ecx+216]
  00330	8b 4d f8	 mov	 ecx, DWORD PTR _this$[ebp]
  00333	89 1c 0a	 mov	 DWORD PTR [edx+ecx], ebx
  00336	ff 15 00 00 00
	00		 call	 DWORD PTR ?LogAddTD@@3P6AXPADZZA ; LogAddTD
  0033c	83 c4 10	 add	 esp, 16			; 00000010H
$LN3@SetObelisk:

; 1598 : 		}
; 1599 : 
; 1600 : 		// ----
; 1601 : 		for( int nAura = 0; nAura < AB_MAX_AURAPOS; nAura++ )

  0033f	8b 45 f4	 mov	 eax, DWORD PTR tv873[ebp]
  00342	83 c0 10	 add	 eax, 16			; 00000010H
  00345	83 c6 10	 add	 esi, 16			; 00000010H
  00348	89 45 f4	 mov	 DWORD PTR tv873[ebp], eax
  0034b	3d f0 31 00 00	 cmp	 eax, 12784		; 000031f0H
  00350	0f 8c 9a fe ff
	ff		 jl	 $LL4@SetObelisk

; 1568 : 	}
; 1569 : 	// ----
; 1570 : 	for( int i = 0; i < this->m_iObeliskCnt; i++ )

  00356	8b 45 f0	 mov	 eax, DWORD PTR _i$183505[ebp]
  00359	8b 55 f8	 mov	 edx, DWORD PTR _this$[ebp]
  0035c	83 45 fc 54	 add	 DWORD PTR tv1003[ebp], 84 ; 00000054H
  00360	40		 inc	 eax
  00361	83 c7 58	 add	 edi, 88			; 00000058H
  00364	89 45 f0	 mov	 DWORD PTR _i$183505[ebp], eax
  00367	3b 82 b0 34 00
	00		 cmp	 eax, DWORD PTR [edx+13488]
  0036d	0f 8c 1d fd ff
	ff		 jl	 $LL24@SetObelisk
$LN23@SetObelisk:
  00373	5f		 pop	 edi
  00374	5e		 pop	 esi

; 1629 : 			}
; 1630 : 		}
; 1631 : 	}
; 1632 : 	// ----
; 1633 : 	return true;

  00375	b8 01 00 00 00	 mov	 eax, 1
  0037a	5b		 pop	 ebx

; 1634 : }

  0037b	8b e5		 mov	 esp, ebp
  0037d	5d		 pop	 ebp
  0037e	c3		 ret	 0
?SetObelisk@CArcaBattle@@QAEHXZ ENDP			; CArcaBattle::SetObelisk
_TEXT	ENDS
PUBLIC	??0CTimeSpan@ATL@@QAE@JHHH@Z			; ATL::CTimeSpan::CTimeSpan
; Function compile flags: /Ogtp
; File c:\program files (x86)\microsoft visual studio 10.0\vc\atlmfc\include\atltime.inl
;	COMDAT ??0CTimeSpan@ATL@@QAE@JHHH@Z
_TEXT	SEGMENT
_lDays$ = 8						; size = 4
_nHours$ = 12						; size = 4
_nMins$ = 16						; size = 4
_nSecs$ = 20						; size = 4
??0CTimeSpan@ATL@@QAE@JHHH@Z PROC			; ATL::CTimeSpan::CTimeSpan, COMDAT
; _this$ = ecx

; 41   : {

  00000	55		 push	 ebp
  00001	8b ec		 mov	 ebp, esp

; 42   :  	m_timeSpan = nSecs + 60* (nMins + 60* (nHours + __int64(24) * lDays));

  00003	8b 45 08	 mov	 eax, DWORD PTR _lDays$[ebp]
  00006	99		 cdq
  00007	56		 push	 esi
  00008	8b f0		 mov	 esi, eax
  0000a	57		 push	 edi
  0000b	8b fa		 mov	 edi, edx
  0000d	0f a4 c2 01	 shld	 edx, eax, 1
  00011	03 c0		 add	 eax, eax
  00013	03 f0		 add	 esi, eax
  00015	13 fa		 adc	 edi, edx
  00017	8b 45 0c	 mov	 eax, DWORD PTR _nHours$[ebp]
  0001a	0f a4 f7 03	 shld	 edi, esi, 3
  0001e	99		 cdq
  0001f	03 f6		 add	 esi, esi
  00021	03 f6		 add	 esi, esi
  00023	03 f6		 add	 esi, esi
  00025	03 f0		 add	 esi, eax
  00027	13 fa		 adc	 edi, edx
  00029	8b c6		 mov	 eax, esi
  0002b	8b d7		 mov	 edx, edi
  0002d	0f a4 c2 04	 shld	 edx, eax, 4
  00031	c1 e0 04	 shl	 eax, 4
  00034	2b c6		 sub	 eax, esi
  00036	1b d7		 sbb	 edx, edi
  00038	8b f0		 mov	 esi, eax
  0003a	8b 45 10	 mov	 eax, DWORD PTR _nMins$[ebp]
  0003d	8b fa		 mov	 edi, edx
  0003f	0f a4 f7 02	 shld	 edi, esi, 2
  00043	99		 cdq
  00044	03 f6		 add	 esi, esi
  00046	03 f6		 add	 esi, esi
  00048	03 f0		 add	 esi, eax
  0004a	13 fa		 adc	 edi, edx
  0004c	8b c6		 mov	 eax, esi
  0004e	8b d7		 mov	 edx, edi
  00050	0f a4 c2 04	 shld	 edx, eax, 4
  00054	c1 e0 04	 shl	 eax, 4
  00057	2b c6		 sub	 eax, esi
  00059	1b d7		 sbb	 edx, edi
  0005b	0f a4 c2 02	 shld	 edx, eax, 2
  0005f	03 c0		 add	 eax, eax
  00061	8d 34 00	 lea	 esi, DWORD PTR [eax+eax]
  00064	8b 45 14	 mov	 eax, DWORD PTR _nSecs$[ebp]
  00067	8b fa		 mov	 edi, edx
  00069	99		 cdq
  0006a	03 f0		 add	 esi, eax
  0006c	13 fa		 adc	 edi, edx
  0006e	89 79 04	 mov	 DWORD PTR [ecx+4], edi
  00071	5f		 pop	 edi
  00072	89 31		 mov	 DWORD PTR [ecx], esi

; 43   : }

  00074	8b c1		 mov	 eax, ecx
  00076	5e		 pop	 esi
  00077	5d		 pop	 ebp
  00078	c2 10 00	 ret	 16			; 00000010H
??0CTimeSpan@ATL@@QAE@JHHH@Z ENDP			; ATL::CTimeSpan::CTimeSpan
_TEXT	ENDS
PUBLIC	?GetTimeSpan@CTimeSpan@ATL@@QBE_JXZ		; ATL::CTimeSpan::GetTimeSpan
; Function compile flags: /Ogtp
;	COMDAT ?GetTimeSpan@CTimeSpan@ATL@@QBE_JXZ
_TEXT	SEGMENT
?GetTimeSpan@CTimeSpan@ATL@@QBE_JXZ PROC		; ATL::CTimeSpan::GetTimeSpan, COMDAT
; _this$ = ecx

; 82   : 	return( m_timeSpan );

  00000	8b 01		 mov	 eax, DWORD PTR [ecx]
  00002	8b 51 04	 mov	 edx, DWORD PTR [ecx+4]

; 83   : }

  00005	c3		 ret	 0
?GetTimeSpan@CTimeSpan@ATL@@QBE_JXZ ENDP		; ATL::CTimeSpan::GetTimeSpan
_TEXT	ENDS
PUBLIC	??_C@_0EC@EOEBKOG@?$FLArcaBattle?$FN?5Obelisk?5foot?5hold?5?$FL@ ; `string'
PUBLIC	_this$GSCopy$
PUBLIC	__$ArrayPad$
PUBLIC	?ChkAuraUserHover@CArcaBattle@@QAEXXZ		; CArcaBattle::ChkAuraUserHover
;	COMDAT ??_C@_0EC@EOEBKOG@?$FLArcaBattle?$FN?5Obelisk?5foot?5hold?5?$FL@
; File c:\muserver_dev\development\mu-s8ep2-repack\gameserver\source\arcabattleprotocol.h
CONST	SEGMENT
??_C@_0EC@EOEBKOG@?$FLArcaBattle?$FN?5Obelisk?5foot?5hold?5?$FL@ DB '[Arc'
	DB	'aBattle] Obelisk foot hold [on][%s][%s][%s] : Pos X[%d] Y[%d]'
	DB	00H						; `string'
; Function compile flags: /Ogtp
; File c:\muserver_dev\development\mu-s8ep2-repack\gameserver\source\arcabattle.cpp
CONST	ENDS
;	COMDAT ?ChkAuraUserHover@CArcaBattle@@QAEXXZ
_TEXT	SEGMENT
tv1416 = -36						; size = 4
_this$GSCopy$ = -32					; size = 4
tv2286 = -28						; size = 4
tv1428 = -28						; size = 4
tv2398 = -24						; size = 4
tv1359 = -24						; size = 4
_i$ = -20						; size = 4
tv2305 = -16						; size = 4
_n$ = -16						; size = 4
_pMsg$ = -12						; size = 8
__$ArrayPad$ = -4					; size = 4
?ChkAuraUserHover@CArcaBattle@@QAEXXZ PROC		; CArcaBattle::ChkAuraUserHover, COMDAT
; _this$ = ecx

; 1639 : {

  00000	55		 push	 ebp
  00001	8b ec		 mov	 ebp, esp
  00003	83 ec 24	 sub	 esp, 36			; 00000024H
  00006	a1 00 00 00 00	 mov	 eax, DWORD PTR ___security_cookie
  0000b	33 c5		 xor	 eax, ebp
  0000d	89 45 fc	 mov	 DWORD PTR __$ArrayPad$[ebp], eax
  00010	53		 push	 ebx
  00011	56		 push	 esi
  00012	57		 push	 edi
  00013	8b f9		 mov	 edi, ecx

; 1640 : 	int i; //ebp-4
; 1641 : 	int n; //ebp-8
; 1642 : 	LPOBJ lpObj; //ebp-0c
; 1643 : 	_tagPMSG_ARCA_BATTLE_OBELISK_INFO pMsg; //ebp-18

  00015	33 c0		 xor	 eax, eax
  00017	33 d2		 xor	 edx, edx

; 1644 : 	LPOBJ obj; //ebp-1c
; 1645 : 	int j; //ebp-20
; 1646 : 	int iHoverUserIndex_2; //ebp-24
; 1647 : 	int iAurReleaseCnt; //ebp-28
; 1648 : 	int iHoverUserIndex_1; //ebp-2c
; 1649 : 	int iUserIndex; //ebp-30
; 1650 : 	int iObeliskIndex; //ebp-34
; 1651 : 	int nAura; //ebp-38
; 1652 : 	//int iIndex; //ebp-3c
; 1653 : 	//int n; //ebp-40
; 1654 : 	//int iTarObjIndex; //ebp-44
; 1655 : 	// ----
; 1656 : 	n = 0;
; 1657 : 	i = 0;
; 1658 : 	j = 0;
; 1659 : 	lpObj = NULL;
; 1660 : 	// ----
; 1661 : 	for( i = 0; i < this->m_iObeliskCnt; i++ )

  00019	33 c9		 xor	 ecx, ecx

; 1677 : 		{
; 1678 : 			for( i = 0; i < this->m_iObeliskCnt; i++ )

  0001b	89 7d e0	 mov	 DWORD PTR _this$GSCopy$[ebp], edi
  0001e	c6 45 f8 00	 mov	 BYTE PTR _pMsg$[ebp+4], 0
  00022	66 89 45 f9	 mov	 WORD PTR _pMsg$[ebp+5], ax
  00026	88 45 fb	 mov	 BYTE PTR _pMsg$[ebp+7], al
  00029	39 97 b0 34 00
	00		 cmp	 DWORD PTR [edi+13488], edx
  0002f	7e 26		 jle	 SHORT $LN50@ChkAuraUse

; 1644 : 	LPOBJ obj; //ebp-1c
; 1645 : 	int j; //ebp-20
; 1646 : 	int iHoverUserIndex_2; //ebp-24
; 1647 : 	int iAurReleaseCnt; //ebp-28
; 1648 : 	int iHoverUserIndex_1; //ebp-2c
; 1649 : 	int iUserIndex; //ebp-30
; 1650 : 	int iObeliskIndex; //ebp-34
; 1651 : 	int nAura; //ebp-38
; 1652 : 	//int iIndex; //ebp-3c
; 1653 : 	//int n; //ebp-40
; 1654 : 	//int iTarObjIndex; //ebp-44
; 1655 : 	// ----
; 1656 : 	n = 0;
; 1657 : 	i = 0;
; 1658 : 	j = 0;
; 1659 : 	lpObj = NULL;
; 1660 : 	// ----
; 1661 : 	for( i = 0; i < this->m_iObeliskCnt; i++ )

  00031	8d 87 b8 31 00
	00		 lea	 eax, DWORD PTR [edi+12728]
$LL52@ChkAuraUse:

; 1662 : 	{
; 1663 : 		this->m_stObeliskState[i].m_iAuraState = 0;	//#DEFINE

  00037	89 50 e0	 mov	 DWORD PTR [eax-32], edx

; 1664 : 		// ----
; 1665 : 		for( j = 0; j < AB_MAX_AURAPOS; j++ )
; 1666 : 		{
; 1667 : 			this->m_stObeliskState[i].m_stAuraState[j].m_btAuraState		= 0;

  0003a	88 10		 mov	 BYTE PTR [eax], dl

; 1668 : 			this->m_stObeliskState[i].m_stAuraState[j].m_iHoverUserIndex	= 0;

  0003c	89 50 04	 mov	 DWORD PTR [eax+4], edx
  0003f	88 50 10	 mov	 BYTE PTR [eax+16], dl
  00042	89 50 14	 mov	 DWORD PTR [eax+20], edx
  00045	88 50 20	 mov	 BYTE PTR [eax+32], dl
  00048	89 50 24	 mov	 DWORD PTR [eax+36], edx
  0004b	41		 inc	 ecx
  0004c	83 c0 54	 add	 eax, 84			; 00000054H
  0004f	3b 8f b0 34 00
	00		 cmp	 ecx, DWORD PTR [edi+13488]
  00055	7c e0		 jl	 SHORT $LL52@ChkAuraUse
$LN50@ChkAuraUse:

; 1669 : 		}
; 1670 : 	}
; 1671 : 	// ----
; 1672 : 	for( n = OBJ_STARTUSERINDEX; n < OBJMAX; n++ )

  00057	bb 00 dd 49 06	 mov	 ebx, 105504000		; 0649dd00H
  0005c	c7 45 f0 04 29
	00 00		 mov	 DWORD PTR _n$[ebp], 10500 ; 00002904H
  00063	89 5d e4	 mov	 DWORD PTR tv1428[ebp], ebx
$LL116@ChkAuraUse:

; 1673 : 	{
; 1674 : 		lpObj = &gObj[n];
; 1675 : 		// ----
; 1676 : 		if( gObjIsConnected(n) == 1 && lpObj->Type == OBJ_USER )

  00066	8b 4d f0	 mov	 ecx, DWORD PTR _n$[ebp]
  00069	a1 00 00 00 00	 mov	 eax, DWORD PTR ?gObj@@3PAUOBJECTSTRUCT@@A ; gObj
  0006e	51		 push	 ecx
  0006f	8d 34 03	 lea	 esi, DWORD PTR [ebx+eax]
  00072	e8 00 00 00 00	 call	 ?gObjIsConnected@@YAHH@Z ; gObjIsConnected
  00077	83 c4 04	 add	 esp, 4
  0007a	83 f8 01	 cmp	 eax, 1
  0007d	0f 85 d1 00 00
	00		 jne	 $LN45@ChkAuraUse
  00083	38 46 50	 cmp	 BYTE PTR [esi+80], al
  00086	0f 85 c8 00 00
	00		 jne	 $LN45@ChkAuraUse

; 1677 : 		{
; 1678 : 			for( i = 0; i < this->m_iObeliskCnt; i++ )

  0008c	83 bf b0 34 00
	00 00		 cmp	 DWORD PTR [edi+13488], 0
  00093	c7 45 ec 00 00
	00 00		 mov	 DWORD PTR _i$[ebp], 0
  0009a	0f 8e b4 00 00
	00		 jle	 $LN45@ChkAuraUse
  000a0	8d 87 0c 30 00
	00		 lea	 eax, DWORD PTR [edi+12300]
  000a6	33 db		 xor	 ebx, ebx
  000a8	89 45 dc	 mov	 DWORD PTR tv1416[ebp], eax
  000ab	eb 03 8d 49 00	 npad	 5
$LL113@ChkAuraUse:

; 1679 : 			{
; 1680 : 				for( j = 0; j < AB_MAX_AURAPOS; j++ )

  000b0	33 ff		 xor	 edi, edi
  000b2	89 45 e8	 mov	 DWORD PTR tv1359[ebp], eax
  000b5	eb 09 8d a4 24
	00 00 00 00 8b
	ff		 npad	 11
$LL39@ChkAuraUse:

; 1681 : 				{
; 1682 : 					if(		this->m_stObeliskInfo[i].m_stAuraInfo[j].m_iAuraPosX == lpObj->X 
; 1683 : 						&&	this->m_stObeliskInfo[i].m_stAuraInfo[j].m_iAuraPosY == lpObj->Y )

  000c0	0f b6 96 20 01
	00 00		 movzx	 edx, BYTE PTR [esi+288]
  000c7	39 50 fc	 cmp	 DWORD PTR [eax-4], edx
  000ca	75 53		 jne	 SHORT $LN38@ChkAuraUse
  000cc	0f b6 8e 21 01
	00 00		 movzx	 ecx, BYTE PTR [esi+289]
  000d3	39 08		 cmp	 DWORD PTR [eax], ecx
  000d5	75 48		 jne	 SHORT $LN38@ChkAuraUse

; 1684 : 					{
; 1685 : 						this->m_stObeliskState[i].m_stAuraState[j].m_btAuraState		= 1;	//#DEFINE

  000d7	8b 45 e0	 mov	 eax, DWORD PTR _this$GSCopy$[ebp]

; 1686 : 						this->m_stObeliskState[i].m_stAuraState[j].m_iHoverUserIndex	= n;

  000da	8b 4d f0	 mov	 ecx, DWORD PTR _n$[ebp]
  000dd	8d 14 3b	 lea	 edx, DWORD PTR [ebx+edi]
  000e0	89 8c 10 bc 31
	00 00		 mov	 DWORD PTR [eax+edx+12732], ecx
  000e7	c6 84 10 b8 31
	00 00 01	 mov	 BYTE PTR [eax+edx+12728], 1

; 1687 : 						LogAddTD("[ArcaBattle] Obelisk foot hold [on][%s][%s][%s] : Pos X[%d] Y[%d]",
; 1688 : 							lpObj->AccountID, lpObj->Name, lpObj->GuildName, lpObj->X, lpObj->Y);

  000ef	0f b6 96 21 01
	00 00		 movzx	 edx, BYTE PTR [esi+289]
  000f6	0f b6 86 20 01
	00 00		 movzx	 eax, BYTE PTR [esi+288]
  000fd	52		 push	 edx
  000fe	50		 push	 eax
  000ff	8d 8e 1c 06 00
	00		 lea	 ecx, DWORD PTR [esi+1564]
  00105	51		 push	 ecx
  00106	8d 56 5d	 lea	 edx, DWORD PTR [esi+93]
  00109	52		 push	 edx
  0010a	8d 46 52	 lea	 eax, DWORD PTR [esi+82]
  0010d	50		 push	 eax
  0010e	68 00 00 00 00	 push	 OFFSET ??_C@_0EC@EOEBKOG@?$FLArcaBattle?$FN?5Obelisk?5foot?5hold?5?$FL@
  00113	ff 15 00 00 00
	00		 call	 DWORD PTR ?LogAddTD@@3P6AXPADZZA ; LogAddTD
  00119	8b 45 e8	 mov	 eax, DWORD PTR tv1359[ebp]
  0011c	83 c4 18	 add	 esp, 24			; 00000018H
$LN38@ChkAuraUse:

; 1679 : 			{
; 1680 : 				for( j = 0; j < AB_MAX_AURAPOS; j++ )

  0011f	83 c7 10	 add	 edi, 16			; 00000010H
  00122	83 c0 10	 add	 eax, 16			; 00000010H
  00125	89 45 e8	 mov	 DWORD PTR tv1359[ebp], eax
  00128	83 ff 30	 cmp	 edi, 48			; 00000030H
  0012b	7c 93		 jl	 SHORT $LL39@ChkAuraUse

; 1677 : 		{
; 1678 : 			for( i = 0; i < this->m_iObeliskCnt; i++ )

  0012d	8b 4d ec	 mov	 ecx, DWORD PTR _i$[ebp]
  00130	8b 45 dc	 mov	 eax, DWORD PTR tv1416[ebp]
  00133	8b 55 e0	 mov	 edx, DWORD PTR _this$GSCopy$[ebp]
  00136	41		 inc	 ecx
  00137	83 c0 58	 add	 eax, 88			; 00000058H
  0013a	83 c3 54	 add	 ebx, 84			; 00000054H
  0013d	89 4d ec	 mov	 DWORD PTR _i$[ebp], ecx
  00140	89 45 dc	 mov	 DWORD PTR tv1416[ebp], eax
  00143	3b 8a b0 34 00
	00		 cmp	 ecx, DWORD PTR [edx+13488]
  00149	0f 8c 61 ff ff
	ff		 jl	 $LL113@ChkAuraUse
  0014f	8b 5d e4	 mov	 ebx, DWORD PTR tv1428[ebp]
  00152	8b fa		 mov	 edi, edx
$LN45@ChkAuraUse:

; 1669 : 		}
; 1670 : 	}
; 1671 : 	// ----
; 1672 : 	for( n = OBJ_STARTUSERINDEX; n < OBJMAX; n++ )

  00154	ff 45 f0	 inc	 DWORD PTR _n$[ebp]
  00157	81 c3 40 27 00
	00		 add	 ebx, 10048		; 00002740H
  0015d	89 5d e4	 mov	 DWORD PTR tv1428[ebp], ebx
  00160	81 fb 00 2f e3
	06		 cmp	 ebx, 115552000		; 06e32f00H
  00166	0f 8c fa fe ff
	ff		 jl	 $LL116@ChkAuraUse

; 1689 : 					}
; 1690 : 				}
; 1691 : 			}
; 1692 : 		}
; 1693 : 	}
; 1694 : 	// ----
; 1695 : 	for( i = 0; i < this->m_iObeliskCnt; i++ )

  0016c	83 bf b0 34 00
	00 00		 cmp	 DWORD PTR [edi+13488], 0
  00173	8b 15 00 00 00
	00		 mov	 edx, DWORD PTR ?gObj@@3PAUOBJECTSTRUCT@@A ; gObj
  00179	c7 45 ec 00 00
	00 00		 mov	 DWORD PTR _i$[ebp], 0
  00180	0f 8e 20 01 00
	00		 jle	 $LN33@ChkAuraUse
  00186	8d 9f e0 2f 00
	00		 lea	 ebx, DWORD PTR [edi+12256]
  0018c	8d 87 cc 31 00
	00		 lea	 eax, DWORD PTR [edi+12748]
$LL120@ChkAuraUse:

; 1696 : 	{
; 1697 : 		iAurReleaseCnt		= 0;

  00192	33 c9		 xor	 ecx, ecx

; 1698 : 		iHoverUserIndex_1	= 0;
; 1699 : 		iHoverUserIndex_2	= 0;
; 1700 : 		// ----
; 1701 : 		for( j = 0; j < AB_MAX_AURAPOS; j++ )
; 1702 : 		{
; 1703 : 			if( this->m_stObeliskState[i].m_stAuraState[j].m_btAuraState == 1 )

  00194	80 78 ec 01	 cmp	 BYTE PTR [eax-20], 1
  00198	75 05		 jne	 SHORT $LN31@ChkAuraUse

; 1704 : 			{
; 1705 : 				iAurReleaseCnt++;

  0019a	b9 01 00 00 00	 mov	 ecx, 1
$LN31@ChkAuraUse:

; 1698 : 		iHoverUserIndex_1	= 0;
; 1699 : 		iHoverUserIndex_2	= 0;
; 1700 : 		// ----
; 1701 : 		for( j = 0; j < AB_MAX_AURAPOS; j++ )
; 1702 : 		{
; 1703 : 			if( this->m_stObeliskState[i].m_stAuraState[j].m_btAuraState == 1 )

  0019f	80 78 fc 01	 cmp	 BYTE PTR [eax-4], 1
  001a3	75 01		 jne	 SHORT $LN121@ChkAuraUse

; 1704 : 			{
; 1705 : 				iAurReleaseCnt++;

  001a5	41		 inc	 ecx
$LN121@ChkAuraUse:

; 1698 : 		iHoverUserIndex_1	= 0;
; 1699 : 		iHoverUserIndex_2	= 0;
; 1700 : 		// ----
; 1701 : 		for( j = 0; j < AB_MAX_AURAPOS; j++ )
; 1702 : 		{
; 1703 : 			if( this->m_stObeliskState[i].m_stAuraState[j].m_btAuraState == 1 )

  001a6	80 78 0c 01	 cmp	 BYTE PTR [eax+12], 1
  001aa	75 01		 jne	 SHORT $LN122@ChkAuraUse

; 1704 : 			{
; 1705 : 				iAurReleaseCnt++;

  001ac	41		 inc	 ecx
$LN122@ChkAuraUse:

; 1706 : 			}
; 1707 : 		}
; 1708 : 		// ----
; 1709 : 		if( iAurReleaseCnt == 3 )

  001ad	83 f9 03	 cmp	 ecx, 3
  001b0	0f 85 c6 00 00
	00		 jne	 $LN28@ChkAuraUse

; 1710 : 		{
; 1711 : 			this->m_stObeliskState[i].m_iAuraState = 2; //#DEFINE

  001b6	c7 40 cc 02 00
	00 00		 mov	 DWORD PTR [eax-52], 2

; 1712 : 			// ----
; 1713 : 			for( j = 0; j < AB_MAX_AURASTATE; j++ )
; 1714 : 			{
; 1715 : 				iHoverUserIndex_1 = this->m_stObeliskState[i].m_stAuraState[j].m_iHoverUserIndex;
; 1716 : 				iHoverUserIndex_2 = this->m_stObeliskState[i].m_stAuraState[j + 1].m_iHoverUserIndex;
; 1717 : 				// ----
; 1718 : 				if( gObj[iHoverUserIndex_1].GuildNumber != gObj[iHoverUserIndex_2].GuildNumber )

  001bd	8b 48 f0	 mov	 ecx, DWORD PTR [eax-16]
  001c0	8b 30		 mov	 esi, DWORD PTR [eax]
  001c2	69 c9 40 27 00
	00		 imul	 ecx, 10048		; 00002740H
  001c8	8b 15 00 00 00
	00		 mov	 edx, DWORD PTR ?gObj@@3PAUOBJECTSTRUCT@@A ; gObj
  001ce	69 f6 40 27 00
	00		 imul	 esi, 10048		; 00002740H
  001d4	8b 8c 11 14 06
	00 00		 mov	 ecx, DWORD PTR [ecx+edx+1556]
  001db	3b 8c 16 14 06
	00 00		 cmp	 ecx, DWORD PTR [esi+edx+1556]
  001e2	74 0d		 je	 SHORT $LN26@ChkAuraUse

; 1719 : 				{
; 1720 : 					this->m_stObeliskState[i].m_iAuraState = 1;

  001e4	c7 40 cc 01 00
	00 00		 mov	 DWORD PTR [eax-52], 1
  001eb	8b 15 00 00 00
	00		 mov	 edx, DWORD PTR ?gObj@@3PAUOBJECTSTRUCT@@A ; gObj
$LN26@ChkAuraUse:

; 1712 : 			// ----
; 1713 : 			for( j = 0; j < AB_MAX_AURASTATE; j++ )
; 1714 : 			{
; 1715 : 				iHoverUserIndex_1 = this->m_stObeliskState[i].m_stAuraState[j].m_iHoverUserIndex;
; 1716 : 				iHoverUserIndex_2 = this->m_stObeliskState[i].m_stAuraState[j + 1].m_iHoverUserIndex;
; 1717 : 				// ----
; 1718 : 				if( gObj[iHoverUserIndex_1].GuildNumber != gObj[iHoverUserIndex_2].GuildNumber )

  001f1	8b 30		 mov	 esi, DWORD PTR [eax]
  001f3	8b 48 10	 mov	 ecx, DWORD PTR [eax+16]
  001f6	69 f6 40 27 00
	00		 imul	 esi, 10048		; 00002740H
  001fc	8b b4 16 14 06
	00 00		 mov	 esi, DWORD PTR [esi+edx+1556]
  00203	69 c9 40 27 00
	00		 imul	 ecx, 10048		; 00002740H
  00209	3b b4 11 14 06
	00 00		 cmp	 esi, DWORD PTR [ecx+edx+1556]
  00210	74 0d		 je	 SHORT $LN103@ChkAuraUse

; 1719 : 				{
; 1720 : 					this->m_stObeliskState[i].m_iAuraState = 1;

  00212	c7 40 cc 01 00
	00 00		 mov	 DWORD PTR [eax-52], 1
  00219	8b 15 00 00 00
	00		 mov	 edx, DWORD PTR ?gObj@@3PAUOBJECTSTRUCT@@A ; gObj
$LN103@ChkAuraUse:

; 1721 : 				}
; 1722 : 			}
; 1723 : 			// ----
; 1724 : 			if( this->m_stObeliskState[i].m_iAuraState == 2 )

  0021f	83 78 cc 02	 cmp	 DWORD PTR [eax-52], 2
  00223	75 68		 jne	 SHORT $LN34@ChkAuraUse

; 1725 : 			{
; 1726 : 				iUserIndex = this->m_stObeliskState[i].m_stAuraState[0].m_iHoverUserIndex;
; 1727 : 				// ----
; 1728 : 				if( this->m_stObeliskState[i].m_iAuraReleaseGuildNum != gObj[iUserIndex].GuildNumber )

  00225	8b 70 f0	 mov	 esi, DWORD PTR [eax-16]
  00228	8b 48 d0	 mov	 ecx, DWORD PTR [eax-48]
  0022b	69 f6 40 27 00
	00		 imul	 esi, 10048		; 00002740H
  00231	3b 8c 16 14 06
	00 00		 cmp	 ecx, DWORD PTR [esi+edx+1556]
  00238	74 2a		 je	 SHORT $LN114@ChkAuraUse

; 1729 : 				{
; 1730 : 					iObeliskIndex = this->m_stObeliskState[i].m_iMonIndex;

  0023a	8b 48 c8	 mov	 ecx, DWORD PTR [eax-56]

; 1731 : 					// ----
; 1732 : 					if( gObj[iObeliskIndex].Live == 1 )

  0023d	69 c9 40 27 00
	00		 imul	 ecx, 10048		; 00002740H
  00243	80 7c 11 51 01	 cmp	 BYTE PTR [ecx+edx+81], 1
  00248	75 1a		 jne	 SHORT $LN114@ChkAuraUse

; 1733 : 					{
; 1734 : 						if( this->m_stObeliskState[i].m_iObeliskState == 1 )

  0024a	83 78 d4 01	 cmp	 DWORD PTR [eax-44], 1
  0024e	75 05		 jne	 SHORT $LN20@ChkAuraUse

; 1735 : 						{
; 1736 : #if( AB_DEBUG_TRACE == 1 )
; 1737 : 							TRACE_LOG("Obelisk OCCUPY HP Refill");
; 1738 : #endif
; 1739 : 							gObj[iObeliskIndex].Life = (double)this->m_stObeliskInfo[i].m_iOccupyHP;

  00250	db 43 04	 fild	 DWORD PTR [ebx+4]

; 1740 : 						}
; 1741 : 						else

  00253	eb 02		 jmp	 SHORT $LN123@ChkAuraUse
$LN20@ChkAuraUse:

; 1742 : 						{
; 1743 : #if( AB_DEBUG_TRACE == 1 )
; 1744 : 							TRACE_LOG("Obelisk HP Refill");
; 1745 : #endif
; 1746 : 							gObj[iObeliskIndex].Life = (double)this->m_stObeliskInfo[i].m_iHP;

  00255	db 03		 fild	 DWORD PTR [ebx]
$LN123@ChkAuraUse:
  00257	d9 9c 11 d8 00
	00 00		 fstp	 DWORD PTR [ecx+edx+216]
  0025e	8b 15 00 00 00
	00		 mov	 edx, DWORD PTR ?gObj@@3PAUOBJECTSTRUCT@@A ; gObj
$LN114@ChkAuraUse:

; 1747 : 						}
; 1748 : 					}
; 1749 : 				}
; 1750 : 				// ----
; 1751 : 				this->m_stObeliskState[i].m_iAuraReleaseGuildNum = gObj[iUserIndex].GuildNumber;

  00264	8b 94 16 14 06
	00 00		 mov	 edx, DWORD PTR [esi+edx+1556]
  0026b	89 50 d0	 mov	 DWORD PTR [eax-48], edx

; 1752 : 				// ----
; 1753 : 				for( j = 0; j < AB_MAX_AURAPOS; j++ )
; 1754 : 				{
; 1755 : 					this->m_stObeliskState[i].m_stAuraState[j].m_btAuraState = 2;

  0026e	c6 40 ec 02	 mov	 BYTE PTR [eax-20], 2
  00272	c6 40 fc 02	 mov	 BYTE PTR [eax-4], 2
  00276	c6 40 0c 02	 mov	 BYTE PTR [eax+12], 2

; 1756 : 				}
; 1757 : 			}
; 1758 : 		}
; 1759 : 		else

  0027a	eb 0b		 jmp	 SHORT $LN124@ChkAuraUse
$LN28@ChkAuraUse:

; 1760 : 		{
; 1761 : 			if( iAurReleaseCnt > 0 )

  0027c	85 c9		 test	 ecx, ecx
  0027e	7e 0d		 jle	 SHORT $LN34@ChkAuraUse

; 1762 : 			{
; 1763 : 				this->m_stObeliskState[i].m_iAuraState = 1;

  00280	c7 40 cc 01 00
	00 00		 mov	 DWORD PTR [eax-52], 1
$LN124@ChkAuraUse:
  00287	8b 15 00 00 00
	00		 mov	 edx, DWORD PTR ?gObj@@3PAUOBJECTSTRUCT@@A ; gObj
$LN34@ChkAuraUse:

; 1689 : 					}
; 1690 : 				}
; 1691 : 			}
; 1692 : 		}
; 1693 : 	}
; 1694 : 	// ----
; 1695 : 	for( i = 0; i < this->m_iObeliskCnt; i++ )

  0028d	8b 4d ec	 mov	 ecx, DWORD PTR _i$[ebp]
  00290	41		 inc	 ecx
  00291	83 c3 58	 add	 ebx, 88			; 00000058H
  00294	83 c0 54	 add	 eax, 84			; 00000054H
  00297	89 4d ec	 mov	 DWORD PTR _i$[ebp], ecx
  0029a	3b 8f b0 34 00
	00		 cmp	 ecx, DWORD PTR [edi+13488]
  002a0	0f 8c ec fe ff
	ff		 jl	 $LL120@ChkAuraUse
$LN33@ChkAuraUse:

; 1771 : 	pMsg.h.size		= sizeof(_tagPMSG_ARCA_BATTLE_OBELISK_INFO);
; 1772 : 	pMsg.h.headcode = 0xF8;
; 1773 : 	pMsg.h.subcode	= 0x37;
; 1774 : 	// ----
; 1775 : 	for( i = 0; i < this->m_iObeliskCnt; i++ )

  002a6	83 bf b0 34 00
	00 00		 cmp	 DWORD PTR [edi+13488], 0
  002ad	c7 45 f4 c1 08
	f8 37		 mov	 DWORD PTR _pMsg$[ebp], 939002049 ; 37f808c1H
  002b4	c7 45 ec 00 00
	00 00		 mov	 DWORD PTR _i$[ebp], 0
  002bb	0f 8e ad 00 00
	00		 jle	 $LN11@ChkAuraUse

; 1764 : 			}
; 1765 : 		}
; 1766 : 	}
; 1767 : 	// ----
; 1768 : 	//pMsg constructor
; 1769 : 	// ----
; 1770 : 	pMsg.h.c		= 0xC1;

  002c1	8b 45 e0	 mov	 eax, DWORD PTR _this$GSCopy$[ebp]
  002c4	81 c7 b8 31 00
	00		 add	 edi, 12728		; 000031b8H
  002ca	05 dc 2f 00 00	 add	 eax, 12252		; 00002fdcH
  002cf	89 45 e8	 mov	 DWORD PTR tv2398[ebp], eax
$LL13@ChkAuraUse:

; 1776 : 	{
; 1777 : 		for( nAura = 0; nAura < AB_MAX_AURAPOS; nAura++ )

  002d2	8d 4f 08	 lea	 ecx, DWORD PTR [edi+8]
  002d5	89 4d f0	 mov	 DWORD PTR tv2305[ebp], ecx
  002d8	c7 45 e4 03 00
	00 00		 mov	 DWORD PTR tv2286[ebp], 3
  002df	90		 npad	 1
$LL118@ChkAuraUse:

; 1778 : 		{
; 1779 : 			int iIndex	= this->m_stObeliskState[i].m_stAuraState[nAura].m_iIndex;
; 1780 : 			obj			= &gObj[iIndex];

  002e0	8b 45 f0	 mov	 eax, DWORD PTR tv2305[ebp]
  002e3	8b 30		 mov	 esi, DWORD PTR [eax]
  002e5	69 f6 40 27 00
	00		 imul	 esi, 10048		; 00002740H
  002eb	03 f2		 add	 esi, edx
  002ed	81 c6 48 0c 00
	00		 add	 esi, 3144		; 00000c48H
  002f3	bb 4b 00 00 00	 mov	 ebx, 75			; 0000004bH
$LL119@ChkAuraUse:

; 1783 : 			{
; 1784 : 				if( obj->VpPlayer2[n].type == OBJ_USER && obj->VpPlayer2[n].state != 0 )

  002f8	80 7e 04 01	 cmp	 BYTE PTR [esi+4], 1
  002fc	75 44		 jne	 SHORT $LN6@ChkAuraUse
  002fe	80 3e 00	 cmp	 BYTE PTR [esi], 0
  00301	74 3f		 je	 SHORT $LN6@ChkAuraUse

; 1785 : 				{
; 1786 : 					int iTarObjIndex			= obj->VpPlayer2[n].number;

  00303	0f bf 46 02	 movsx	 eax, WORD PTR [esi+2]

; 1787 : 					pMsg.m_btObeliskAttribute	= (BYTE)this->m_stObeliskInfo[i].m_iAttrKind;

  00307	8b 4d e8	 mov	 ecx, DWORD PTR tv2398[ebp]

; 1788 : 					// ----
; 1789 : 					for( j = 0; j < AB_MAX_AURAPOS; j++ )
; 1790 : 					{
; 1791 : 						pMsg.m_btAuraState[j] = this->m_stObeliskState[i].m_stAuraState[j].m_btAuraState;
; 1792 : 					}
; 1793 : 					// ----
; 1794 : 					DataSend(gObj[iTarObjIndex].m_Index, (LPBYTE)&pMsg, sizeof(_tagPMSG_ARCA_BATTLE_OBELISK_INFO));

  0030a	69 c0 40 27 00
	00		 imul	 eax, 10048		; 00002740H
  00310	0f b6 09	 movzx	 ecx, BYTE PTR [ecx]
  00313	88 4d f8	 mov	 BYTE PTR _pMsg$[ebp+4], cl
  00316	0f b6 0f	 movzx	 ecx, BYTE PTR [edi]
  00319	88 4d f9	 mov	 BYTE PTR _pMsg$[ebp+5], cl
  0031c	0f b6 4f 10	 movzx	 ecx, BYTE PTR [edi+16]
  00320	88 4d fa	 mov	 BYTE PTR _pMsg$[ebp+6], cl
  00323	0f b6 4f 20	 movzx	 ecx, BYTE PTR [edi+32]
  00327	88 4d fb	 mov	 BYTE PTR _pMsg$[ebp+7], cl
  0032a	8b 14 10	 mov	 edx, DWORD PTR [eax+edx]
  0032d	6a 08		 push	 8
  0032f	8d 4d f4	 lea	 ecx, DWORD PTR _pMsg$[ebp]
  00332	51		 push	 ecx
  00333	52		 push	 edx
  00334	e8 00 00 00 00	 call	 ?DataSend@@YAHHPAEK@Z	; DataSend
  00339	8b 15 00 00 00
	00		 mov	 edx, DWORD PTR ?gObj@@3PAUOBJECTSTRUCT@@A ; gObj
  0033f	83 c4 0c	 add	 esp, 12			; 0000000cH
$LN6@ChkAuraUse:

; 1781 : 			// ----
; 1782 : 			for( int n = 0; n < MAX_VIEWPORT; n++ )

  00342	83 c6 0c	 add	 esi, 12			; 0000000cH
  00345	4b		 dec	 ebx
  00346	75 b0		 jne	 SHORT $LL119@ChkAuraUse

; 1776 : 	{
; 1777 : 		for( nAura = 0; nAura < AB_MAX_AURAPOS; nAura++ )

  00348	83 45 f0 10	 add	 DWORD PTR tv2305[ebp], 16 ; 00000010H
  0034c	ff 4d e4	 dec	 DWORD PTR tv2286[ebp]
  0034f	75 8f		 jne	 SHORT $LL118@ChkAuraUse

; 1771 : 	pMsg.h.size		= sizeof(_tagPMSG_ARCA_BATTLE_OBELISK_INFO);
; 1772 : 	pMsg.h.headcode = 0xF8;
; 1773 : 	pMsg.h.subcode	= 0x37;
; 1774 : 	// ----
; 1775 : 	for( i = 0; i < this->m_iObeliskCnt; i++ )

  00351	8b 45 ec	 mov	 eax, DWORD PTR _i$[ebp]
  00354	8b 4d e0	 mov	 ecx, DWORD PTR _this$GSCopy$[ebp]
  00357	83 45 e8 58	 add	 DWORD PTR tv2398[ebp], 88 ; 00000058H
  0035b	40		 inc	 eax
  0035c	83 c7 54	 add	 edi, 84			; 00000054H
  0035f	89 45 ec	 mov	 DWORD PTR _i$[ebp], eax
  00362	3b 81 b0 34 00
	00		 cmp	 eax, DWORD PTR [ecx+13488]
  00368	0f 8c 64 ff ff
	ff		 jl	 $LL13@ChkAuraUse
$LN11@ChkAuraUse:

; 1795 : 				}
; 1796 : 			}
; 1797 : 		}
; 1798 : 	}
; 1799 : }

  0036e	8b 4d fc	 mov	 ecx, DWORD PTR __$ArrayPad$[ebp]
  00371	5f		 pop	 edi
  00372	5e		 pop	 esi
  00373	33 cd		 xor	 ecx, ebp
  00375	5b		 pop	 ebx
  00376	e8 00 00 00 00	 call	 @__security_check_cookie@4
  0037b	8b e5		 mov	 esp, ebp
  0037d	5d		 pop	 ebp
  0037e	c3		 ret	 0
?ChkAuraUserHover@CArcaBattle@@QAEXXZ ENDP		; CArcaBattle::ChkAuraUserHover
_TEXT	ENDS
PUBLIC	??0CTime@ATL@@QAE@XZ				; ATL::CTime::CTime
; Function compile flags: /Ogtp
; File c:\program files (x86)\microsoft visual studio 10.0\vc\atlmfc\include\atltime.inl
;	COMDAT ??0CTime@ATL@@QAE@XZ
_TEXT	SEGMENT
??0CTime@ATL@@QAE@XZ PROC				; ATL::CTime::CTime, COMDAT
; _this$ = ecx

; 166  : {

  00000	8b c1		 mov	 eax, ecx
  00002	c7 00 00 00 00
	00		 mov	 DWORD PTR [eax], 0
  00008	c7 40 04 00 00
	00 00		 mov	 DWORD PTR [eax+4], 0

; 167  : }

  0000f	c3		 ret	 0
??0CTime@ATL@@QAE@XZ ENDP				; ATL::CTime::CTime
_TEXT	ENDS
PUBLIC	??0CTime@ATL@@QAE@_J@Z				; ATL::CTime::CTime
; Function compile flags: /Ogtp
;	COMDAT ??0CTime@ATL@@QAE@_J@Z
_TEXT	SEGMENT
_time$ = 8						; size = 8
??0CTime@ATL@@QAE@_J@Z PROC				; ATL::CTime::CTime, COMDAT
; _this$ = ecx

; 171  : {

  00000	55		 push	 ebp
  00001	8b ec		 mov	 ebp, esp
  00003	8b 55 0c	 mov	 edx, DWORD PTR _time$[ebp+4]
  00006	8b c1		 mov	 eax, ecx
  00008	8b 4d 08	 mov	 ecx, DWORD PTR _time$[ebp]
  0000b	89 08		 mov	 DWORD PTR [eax], ecx
  0000d	89 50 04	 mov	 DWORD PTR [eax+4], edx

; 172  : }

  00010	5d		 pop	 ebp
  00011	c2 08 00	 ret	 8
??0CTime@ATL@@QAE@_J@Z ENDP				; ATL::CTime::CTime
_TEXT	ENDS
PUBLIC	?IsEnableAttackObelisk@CArcaBattle@@QAEHAAUOBJECTSTRUCT@@H@Z ; CArcaBattle::IsEnableAttackObelisk
; Function compile flags: /Ogtp
; File c:\muserver_dev\development\mu-s8ep2-repack\gameserver\source\arcabattle.cpp
;	COMDAT ?IsEnableAttackObelisk@CArcaBattle@@QAEHAAUOBJECTSTRUCT@@H@Z
_TEXT	SEGMENT
_obj$ = 8						; size = 4
_iMonNumber$ = 12					; size = 4
?IsEnableAttackObelisk@CArcaBattle@@QAEHAAUOBJECTSTRUCT@@H@Z PROC ; CArcaBattle::IsEnableAttackObelisk, COMDAT
; _this$ = ecx

; 1804 : {

  00000	55		 push	 ebp
  00001	8b ec		 mov	 ebp, esp
  00003	56		 push	 esi
  00004	8b b1 b0 34 00
	00		 mov	 esi, DWORD PTR [ecx+13488]
  0000a	57		 push	 edi

; 1805 : 	int i;
; 1806 : 	_tagOBELISK_STATE * pObelskState = NULL;

  0000b	33 ff		 xor	 edi, edi

; 1807 : 	// ----
; 1808 : 	for( i = 0; i < this->m_iObeliskCnt; i++ )

  0000d	85 f6		 test	 esi, esi
  0000f	7e 24		 jle	 SHORT $LN13@IsEnableAt

; 1805 : 	int i;
; 1806 : 	_tagOBELISK_STATE * pObelskState = NULL;

  00011	53		 push	 ebx
  00012	8b 5d 0c	 mov	 ebx, DWORD PTR _iMonNumber$[ebp]
  00015	8d 91 90 31 00
	00		 lea	 edx, DWORD PTR [ecx+12688]
  0001b	8d 81 f4 2f 00
	00		 lea	 eax, DWORD PTR [ecx+12276]
$LL8@IsEnableAt:

; 1809 : 	{
; 1810 : 		if( this->m_stObeliskInfo[i].m_iMonsterNum == iMonNumber )

  00021	39 18		 cmp	 DWORD PTR [eax], ebx
  00023	75 02		 jne	 SHORT $LN7@IsEnableAt

; 1811 : 		{
; 1812 : 			pObelskState = &this->m_stObeliskState[i];

  00025	8b fa		 mov	 edi, edx
$LN7@IsEnableAt:

; 1807 : 	// ----
; 1808 : 	for( i = 0; i < this->m_iObeliskCnt; i++ )

  00027	83 c0 58	 add	 eax, 88			; 00000058H
  0002a	83 c2 54	 add	 edx, 84			; 00000054H
  0002d	4e		 dec	 esi
  0002e	75 f1		 jne	 SHORT $LL8@IsEnableAt

; 1813 : 		}
; 1814 : 	}
; 1815 : 	// ----
; 1816 : 	if( pObelskState == NULL )

  00030	5b		 pop	 ebx
  00031	85 ff		 test	 edi, edi
  00033	75 0b		 jne	 SHORT $LN4@IsEnableAt
$LN13@IsEnableAt:
  00035	5f		 pop	 edi

; 1817 : 	{
; 1818 : 		return true;

  00036	b8 01 00 00 00	 mov	 eax, 1
  0003b	5e		 pop	 esi

; 1837 : }

  0003c	5d		 pop	 ebp
  0003d	c2 08 00	 ret	 8
$LN4@IsEnableAt:

; 1819 : 	}
; 1820 : 	// ----
; 1821 : 	if( this->GetState() != AB_STATE_PLAY )

  00040	e8 00 00 00 00	 call	 ?GetState@CArcaBattle@@QAEHXZ ; CArcaBattle::GetState
  00045	83 f8 07	 cmp	 eax, 7

; 1822 : 	{
; 1823 : 		return false;

  00048	75 19		 jne	 SHORT $LN1@IsEnableAt

; 1824 : 	}
; 1825 : 	// ----
; 1826 : 	if( pObelskState->m_iOccupyGuildNum == obj.GuildNumber )

  0004a	8b 45 08	 mov	 eax, DWORD PTR _obj$[ebp]
  0004d	8b 80 14 06 00
	00		 mov	 eax, DWORD PTR [eax+1556]
  00053	39 47 14	 cmp	 DWORD PTR [edi+20], eax

; 1827 : 	{
; 1828 : 		return false;

  00056	74 0b		 je	 SHORT $LN1@IsEnableAt

; 1829 : 	}
; 1830 : 	// ----
; 1831 : 	if( pObelskState->m_iAuraState == 2 && pObelskState->m_iAuraReleaseGuildNum == obj.GuildNumber )

  00058	83 7f 08 02	 cmp	 DWORD PTR [edi+8], 2
  0005c	75 05		 jne	 SHORT $LN1@IsEnableAt
  0005e	39 47 0c	 cmp	 DWORD PTR [edi+12], eax

; 1832 : 	{
; 1833 : 		return true;

  00061	74 d2		 je	 SHORT $LN13@IsEnableAt
$LN1@IsEnableAt:
  00063	5f		 pop	 edi

; 1834 : 	}
; 1835 : 	// ----
; 1836 : 	return false;

  00064	33 c0		 xor	 eax, eax
  00066	5e		 pop	 esi

; 1837 : }

  00067	5d		 pop	 ebp
  00068	c2 08 00	 ret	 8
?IsEnableAttackObelisk@CArcaBattle@@QAEHAAUOBJECTSTRUCT@@H@Z ENDP ; CArcaBattle::IsEnableAttackObelisk
_TEXT	ENDS
PUBLIC	??GCTime@ATL@@QBE?AV01@VCTimeSpan@1@@Z		; ATL::CTime::operator-
; Function compile flags: /Ogtp
; File c:\program files (x86)\microsoft visual studio 10.0\vc\atlmfc\include\atltime.inl
;	COMDAT ??GCTime@ATL@@QBE?AV01@VCTimeSpan@1@@Z
_TEXT	SEGMENT
___$ReturnUdt$ = 8					; size = 4
_span$ = 12						; size = 8
??GCTime@ATL@@QBE?AV01@VCTimeSpan@1@@Z PROC		; ATL::CTime::operator-, COMDAT
; _this$ = ecx

; 309  : {

  00000	55		 push	 ebp
  00001	8b ec		 mov	 ebp, esp

; 310  : 	return( CTime( m_time-span.GetTimeSpan() ) );

  00003	8b 11		 mov	 edx, DWORD PTR [ecx]
  00005	2b 55 0c	 sub	 edx, DWORD PTR _span$[ebp]
  00008	8b 49 04	 mov	 ecx, DWORD PTR [ecx+4]
  0000b	1b 4d 10	 sbb	 ecx, DWORD PTR _span$[ebp+4]
  0000e	8b 45 08	 mov	 eax, DWORD PTR ___$ReturnUdt$[ebp]
  00011	89 10		 mov	 DWORD PTR [eax], edx
  00013	89 48 04	 mov	 DWORD PTR [eax+4], ecx

; 311  : }

  00016	5d		 pop	 ebp
  00017	c2 0c 00	 ret	 12			; 0000000cH
??GCTime@ATL@@QBE?AV01@VCTimeSpan@1@@Z ENDP		; ATL::CTime::operator-
_TEXT	ENDS
PUBLIC	??_C@_0CH@JOJAMJIP@?$FLArcaBattle?$FN?5Error?5lpTarGuildInf@ ; `string'
PUBLIC	??_C@_0CE@FCHEEFHN@?$FLArcaBattle?$FN?5Error?5lpGuildInfo?5N@ ; `string'
PUBLIC	?IsPkEnable@CArcaBattle@@QAEHAAUOBJECTSTRUCT@@0@Z ; CArcaBattle::IsPkEnable
;	COMDAT ??_C@_0CH@JOJAMJIP@?$FLArcaBattle?$FN?5Error?5lpTarGuildInf@
; File c:\muserver_dev\development\mu-s8ep2-repack\gameserver\source\arcabattle.h
CONST	SEGMENT
??_C@_0CH@JOJAMJIP@?$FLArcaBattle?$FN?5Error?5lpTarGuildInf@ DB '[ArcaBat'
	DB	'tle] Error lpTarGuildInfo NULL', 00H	; `string'
CONST	ENDS
;	COMDAT ??_C@_0CE@FCHEEFHN@?$FLArcaBattle?$FN?5Error?5lpGuildInfo?5N@
CONST	SEGMENT
??_C@_0CE@FCHEEFHN@?$FLArcaBattle?$FN?5Error?5lpGuildInfo?5N@ DB '[ArcaBa'
	DB	'ttle] Error lpGuildInfo NULL', 00H		; `string'
; Function compile flags: /Ogtp
; File c:\muserver_dev\development\mu-s8ep2-repack\gameserver\source\arcabattle.cpp
CONST	ENDS
;	COMDAT ?IsPkEnable@CArcaBattle@@QAEHAAUOBJECTSTRUCT@@0@Z
_TEXT	SEGMENT
_obj$ = 8						; size = 4
_Tarobj$ = 12						; size = 4
?IsPkEnable@CArcaBattle@@QAEHAAUOBJECTSTRUCT@@0@Z PROC	; CArcaBattle::IsPkEnable, COMDAT
; _this$ = ecx

; 1842 : {

  00000	55		 push	 ebp
  00001	8b ec		 mov	 ebp, esp

; 1843 : 	_GUILD_INFO_STRUCT * lpGuildInfo	= obj.lpGuild;
; 1844 : 	_GUILD_INFO_STRUCT * lpTarGuildInfo	= Tarobj.lpGuild;
; 1845 : 	// ----
; 1846 : 	if( g_bIsArcaBattleServer == false )

  00003	80 3d 00 00 00
	00 00		 cmp	 BYTE PTR ?g_bIsArcaBattleServer@@3_NA, 0 ; g_bIsArcaBattleServer
  0000a	8b 55 08	 mov	 edx, DWORD PTR _obj$[ebp]
  0000d	53		 push	 ebx
  0000e	8b 5d 0c	 mov	 ebx, DWORD PTR _Tarobj$[ebp]
  00011	56		 push	 esi
  00012	8b b2 18 06 00
	00		 mov	 esi, DWORD PTR [edx+1560]
  00018	57		 push	 edi
  00019	8b bb 18 06 00
	00		 mov	 edi, DWORD PTR [ebx+1560]
  0001f	75 0c		 jne	 SHORT $LN7@IsPkEnable
$LN15@IsPkEnable:
  00021	5f		 pop	 edi
  00022	5e		 pop	 esi

; 1847 : 	{
; 1848 : 		return true;

  00023	b8 01 00 00 00	 mov	 eax, 1
  00028	5b		 pop	 ebx

; 1875 : 	{
; 1876 : 		return false;
; 1877 : 	}
; 1878 : 	// ----
; 1879 : 	return true;
; 1880 : }

  00029	5d		 pop	 ebp
  0002a	c2 08 00	 ret	 8
$LN7@IsPkEnable:

; 1849 : 	}
; 1850 : 	// ----
; 1851 : 	if( this->GetState() != AB_STATE_PLAY )

  0002d	e8 00 00 00 00	 call	 ?GetState@CArcaBattle@@QAEHXZ ; CArcaBattle::GetState
  00032	83 f8 07	 cmp	 eax, 7

; 1852 : 	{
; 1853 : 		return true;

  00035	75 ea		 jne	 SHORT $LN15@IsPkEnable

; 1854 : 	}
; 1855 : 	// ----
; 1856 : 	if( lpGuildInfo == NULL )

  00037	85 f6		 test	 esi, esi
  00039	75 19		 jne	 SHORT $LN5@IsPkEnable

; 1857 : 	{
; 1858 : 		LogAddC(2, "[ArcaBattle] Error lpGuildInfo NULL");

  0003b	68 00 00 00 00	 push	 OFFSET ??_C@_0CE@FCHEEFHN@?$FLArcaBattle?$FN?5Error?5lpGuildInfo?5N@

; 1863 : 	{
; 1864 : 		LogAddC(2, "[ArcaBattle] Error lpTarGuildInfo NULL");

  00040	6a 02		 push	 2
  00042	ff 15 00 00 00
	00		 call	 DWORD PTR ?LogAddC@@3P6AXEPADZZA ; LogAddC
  00048	83 c4 08	 add	 esp, 8
$LN2@IsPkEnable:

; 1870 : 	{
; 1871 : 		return false;

  0004b	5f		 pop	 edi
  0004c	5e		 pop	 esi
  0004d	33 c0		 xor	 eax, eax
  0004f	5b		 pop	 ebx

; 1875 : 	{
; 1876 : 		return false;
; 1877 : 	}
; 1878 : 	// ----
; 1879 : 	return true;
; 1880 : }

  00050	5d		 pop	 ebp
  00051	c2 08 00	 ret	 8
$LN5@IsPkEnable:

; 1859 : 		return false;
; 1860 : 	}
; 1861 : 	// ----
; 1862 : 	if( lpTarGuildInfo == NULL )

  00054	85 ff		 test	 edi, edi
  00056	75 19		 jne	 SHORT $LN4@IsPkEnable

; 1863 : 	{
; 1864 : 		LogAddC(2, "[ArcaBattle] Error lpTarGuildInfo NULL");

  00058	68 00 00 00 00	 push	 OFFSET ??_C@_0CH@JOJAMJIP@?$FLArcaBattle?$FN?5Error?5lpTarGuildInf@
  0005d	6a 02		 push	 2
  0005f	ff 15 00 00 00
	00		 call	 DWORD PTR ?LogAddC@@3P6AXEPADZZA ; LogAddC
  00065	83 c4 08	 add	 esp, 8
  00068	5f		 pop	 edi
  00069	5e		 pop	 esi

; 1870 : 	{
; 1871 : 		return false;

  0006a	33 c0		 xor	 eax, eax
  0006c	5b		 pop	 ebx

; 1875 : 	{
; 1876 : 		return false;
; 1877 : 	}
; 1878 : 	// ----
; 1879 : 	return true;
; 1880 : }

  0006d	5d		 pop	 ebp
  0006e	c2 08 00	 ret	 8
$LN4@IsPkEnable:

; 1865 : 		return false;
; 1866 : 	}
; 1867 : 	// ----
; 1868 : 	if(		this->GetArcaBattleMapIndex() != obj.MapNumber 
; 1869 : 		||	this->GetArcaBattleMapIndex() != Tarobj.MapNumber )

  00071	8b 81 b4 34 00
	00		 mov	 eax, DWORD PTR [ecx+13492]
  00077	0f b6 8a 23 01
	00 00		 movzx	 ecx, BYTE PTR [edx+291]
  0007e	3b c1		 cmp	 eax, ecx
  00080	75 c9		 jne	 SHORT $LN2@IsPkEnable
  00082	0f b6 93 23 01
	00 00		 movzx	 edx, BYTE PTR [ebx+291]
  00089	3b c2		 cmp	 eax, edx
  0008b	75 be		 jne	 SHORT $LN2@IsPkEnable

; 1872 : 	}
; 1873 : 	// ----
; 1874 : 	if( lpGuildInfo->Number != lpTarGuildInfo->Number )

  0008d	8b 06		 mov	 eax, DWORD PTR [esi]
  0008f	33 c9		 xor	 ecx, ecx
  00091	3b 07		 cmp	 eax, DWORD PTR [edi]
  00093	5f		 pop	 edi
  00094	0f 94 c1	 sete	 cl
  00097	5e		 pop	 esi
  00098	5b		 pop	 ebx
  00099	8b c1		 mov	 eax, ecx

; 1875 : 	{
; 1876 : 		return false;
; 1877 : 	}
; 1878 : 	// ----
; 1879 : 	return true;
; 1880 : }

  0009b	5d		 pop	 ebp
  0009c	c2 08 00	 ret	 8
?IsPkEnable@CArcaBattle@@QAEHAAUOBJECTSTRUCT@@0@Z ENDP	; CArcaBattle::IsPkEnable
_TEXT	ENDS
PUBLIC	?IsArcaBattleServer@CArcaBattle@@QAEHXZ		; CArcaBattle::IsArcaBattleServer
; Function compile flags: /Ogtp
;	COMDAT ?IsArcaBattleServer@CArcaBattle@@QAEHXZ
_TEXT	SEGMENT
?IsArcaBattleServer@CArcaBattle@@QAEHXZ PROC		; CArcaBattle::IsArcaBattleServer, COMDAT
; _this$ = ecx

; 1886 : 	return 1;//g_bIsArcaBattleServer;

  00000	b8 01 00 00 00	 mov	 eax, 1

; 1887 : }

  00005	c3		 ret	 0
?IsArcaBattleServer@CArcaBattle@@QAEHXZ ENDP		; CArcaBattle::IsArcaBattleServer
_TEXT	ENDS
PUBLIC	?IsArcaBattleMap@CArcaBattle@@QAEHH@Z		; CArcaBattle::IsArcaBattleMap
; Function compile flags: /Ogtp
;	COMDAT ?IsArcaBattleMap@CArcaBattle@@QAEHH@Z
_TEXT	SEGMENT
_iMapNumber$ = 8					; size = 4
?IsArcaBattleMap@CArcaBattle@@QAEHH@Z PROC		; CArcaBattle::IsArcaBattleMap, COMDAT
; _this$ = ecx

; 1892 : {

  00000	55		 push	 ebp
  00001	8b ec		 mov	 ebp, esp

; 1893 : 	if( iMapNumber == this->GetArcaBattleMapIndex() )

  00003	8b 55 08	 mov	 edx, DWORD PTR _iMapNumber$[ebp]
  00006	33 c0		 xor	 eax, eax
  00008	3b 91 b4 34 00
	00		 cmp	 edx, DWORD PTR [ecx+13492]
  0000e	0f 94 c0	 sete	 al

; 1894 : 	{
; 1895 : 		return true;
; 1896 : 	}
; 1897 : 	// ----
; 1898 : 	return false;
; 1899 : }

  00011	5d		 pop	 ebp
  00012	c2 04 00	 ret	 4
?IsArcaBattleMap@CArcaBattle@@QAEHH@Z ENDP		; CArcaBattle::IsArcaBattleMap
_TEXT	ENDS
PUBLIC	?SendArcaBattleStateAll@CArcaBattle@@QAEXH@Z	; CArcaBattle::SendArcaBattleStateAll
; Function compile flags: /Ogtp
;	COMDAT ?SendArcaBattleStateAll@CArcaBattle@@QAEXH@Z
_TEXT	SEGMENT
_pMsg$ = -8						; size = 5
_iState$ = 8						; size = 4
?SendArcaBattleStateAll@CArcaBattle@@QAEXH@Z PROC	; CArcaBattle::SendArcaBattleStateAll, COMDAT
; _this$ = ecx

; 1904 : {

  00000	55		 push	 ebp
  00001	8b ec		 mov	 ebp, esp
  00003	83 ec 08	 sub	 esp, 8

; 1905 : 	int n;
; 1906 : 	LPOBJ lpObj;
; 1907 : 	lpObj = NULL;
; 1908 : 	n = 0;
; 1909 : 	// ----
; 1910 : 	_tagPMSG_ARCA_BATTLE_STATE pMsg;
; 1911 : 	// ----
; 1912 : 	pMsg.h.c		= 0xC1;
; 1913 : 	pMsg.h.size		= sizeof(_tagPMSG_ARCA_BATTLE_STATE);
; 1914 : 	pMsg.h.headcode = 0xF8;
; 1915 : 	pMsg.h.subcode	= 0x38;
; 1916 : 	pMsg.m_btArcaBattleState = iState;

  00006	8a 45 08	 mov	 al, BYTE PTR _iState$[ebp]
  00009	53		 push	 ebx
  0000a	56		 push	 esi
  0000b	57		 push	 edi
  0000c	c7 45 f8 c1 05
	f8 38		 mov	 DWORD PTR _pMsg$[ebp], 955778497 ; 38f805c1H
  00013	88 45 fc	 mov	 BYTE PTR _pMsg$[ebp+4], al

; 1917 : 	// ----
; 1918 : 	for( n = OBJ_STARTUSERINDEX; n < OBJMAX; n++ )

  00016	bf 04 29 00 00	 mov	 edi, 10500		; 00002904H
  0001b	be 00 dd 49 06	 mov	 esi, 105504000		; 0649dd00H
$LL4@SendArcaBa@2:

; 1919 : 	{
; 1920 : 		 lpObj = &gObj[n];

  00020	8b 0d 00 00 00
	00		 mov	 ecx, DWORD PTR ?gObj@@3PAUOBJECTSTRUCT@@A ; gObj

; 1921 : 		 // ----
; 1922 : 		 if( gObjIsConnected(n) == 1 && lpObj->Type == OBJ_USER )

  00026	57		 push	 edi
  00027	8d 1c 0e	 lea	 ebx, DWORD PTR [esi+ecx]
  0002a	e8 00 00 00 00	 call	 ?gObjIsConnected@@YAHH@Z ; gObjIsConnected
  0002f	83 c4 04	 add	 esp, 4
  00032	83 f8 01	 cmp	 eax, 1
  00035	75 19		 jne	 SHORT $LN3@SendArcaBa@2
  00037	38 43 50	 cmp	 BYTE PTR [ebx+80], al
  0003a	75 14		 jne	 SHORT $LN3@SendArcaBa@2

; 1923 : 		 {
; 1924 : 			 DataSend(lpObj->m_Index, (LPBYTE)&pMsg, pMsg.h.size);

  0003c	0f b6 55 f9	 movzx	 edx, BYTE PTR _pMsg$[ebp+1]
  00040	8b 0b		 mov	 ecx, DWORD PTR [ebx]
  00042	52		 push	 edx
  00043	8d 45 f8	 lea	 eax, DWORD PTR _pMsg$[ebp]
  00046	50		 push	 eax
  00047	51		 push	 ecx
  00048	e8 00 00 00 00	 call	 ?DataSend@@YAHHPAEK@Z	; DataSend
  0004d	83 c4 0c	 add	 esp, 12			; 0000000cH
$LN3@SendArcaBa@2:

; 1917 : 	// ----
; 1918 : 	for( n = OBJ_STARTUSERINDEX; n < OBJMAX; n++ )

  00050	81 c6 40 27 00
	00		 add	 esi, 10048		; 00002740H
  00056	47		 inc	 edi
  00057	81 fe 00 2f e3
	06		 cmp	 esi, 115552000		; 06e32f00H
  0005d	7c c1		 jl	 SHORT $LL4@SendArcaBa@2
  0005f	5f		 pop	 edi
  00060	5e		 pop	 esi
  00061	5b		 pop	 ebx

; 1925 : 		 }
; 1926 : 	}
; 1927 : }

  00062	8b e5		 mov	 esp, ebp
  00064	5d		 pop	 ebp
  00065	c2 04 00	 ret	 4
?SendArcaBattleStateAll@CArcaBattle@@QAEXH@Z ENDP	; CArcaBattle::SendArcaBattleStateAll
_TEXT	ENDS
PUBLIC	?SendArcaBattleCurrentState@CArcaBattle@@QAEXAAUOBJECTSTRUCT@@@Z ; CArcaBattle::SendArcaBattleCurrentState
; Function compile flags: /Ogtp
;	COMDAT ?SendArcaBattleCurrentState@CArcaBattle@@QAEXAAUOBJECTSTRUCT@@@Z
_TEXT	SEGMENT
_pMsg$ = -8						; size = 5
_obj$ = 8						; size = 4
?SendArcaBattleCurrentState@CArcaBattle@@QAEXAAUOBJECTSTRUCT@@@Z PROC ; CArcaBattle::SendArcaBattleCurrentState, COMDAT
; _this$ = ecx

; 1932 : {

  00000	55		 push	 ebp
  00001	8b ec		 mov	 ebp, esp
  00003	83 ec 08	 sub	 esp, 8

; 1933 : 	_tagPMSG_ARCA_BATTLE_STATE pMsg;
; 1934 : 	// ----
; 1935 : 	pMsg.h.c		= 0xC1;

  00006	c7 45 f8 c1 05
	f8 38		 mov	 DWORD PTR _pMsg$[ebp], 955778497 ; 38f805c1H

; 1936 : 	pMsg.h.size		= sizeof(_tagPMSG_ARCA_BATTLE_STATE);
; 1937 : 	pMsg.h.headcode = 0xF8;
; 1938 : 	pMsg.h.subcode	= 0x38;
; 1939 : 	pMsg.m_btArcaBattleState = this->GetState();

  0000d	e8 00 00 00 00	 call	 ?GetState@CArcaBattle@@QAEHXZ ; CArcaBattle::GetState

; 1940 : 	// ----
; 1941 : 	DataSend(obj.m_Index, (LPBYTE)&pMsg, pMsg.h.size);

  00012	8b 4d 08	 mov	 ecx, DWORD PTR _obj$[ebp]
  00015	8b 11		 mov	 edx, DWORD PTR [ecx]
  00017	88 45 fc	 mov	 BYTE PTR _pMsg$[ebp+4], al
  0001a	6a 05		 push	 5
  0001c	8d 45 f8	 lea	 eax, DWORD PTR _pMsg$[ebp]
  0001f	50		 push	 eax
  00020	52		 push	 edx
  00021	e8 00 00 00 00	 call	 ?DataSend@@YAHHPAEK@Z	; DataSend
  00026	83 c4 0c	 add	 esp, 12			; 0000000cH

; 1942 : }

  00029	8b e5		 mov	 esp, ebp
  0002b	5d		 pop	 ebp
  0002c	c2 04 00	 ret	 4
?SendArcaBattleCurrentState@CArcaBattle@@QAEXAAUOBJECTSTRUCT@@@Z ENDP ; CArcaBattle::SendArcaBattleCurrentState
_TEXT	ENDS
PUBLIC	??_C@_0FD@MDCNGBPL@?$FLArcaBattle?$FN?5Occupy?5Obelisk?5In?5A@ ; `string'
PUBLIC	??_C@_0BO@LBLMIIED@?$KML?$KG?g?$KM?n?9?$KG?$CL?i?9?a?5?$CL?a?$KM?c?5?$KG?$KG?9?$LH?9L?$CL?$KG?$CL?9?4?$AA@ ; `string'
PUBLIC	__$ArrayPad$
PUBLIC	?IsOccupyObelisk@CArcaBattle@@QAEHAAUOBJECTSTRUCT@@H@Z ; CArcaBattle::IsOccupyObelisk
EXTRN	?SendNoticeToAllUser@TNotice@@SAXPAX@Z:PROC	; TNotice::SendNoticeToAllUser
EXTRN	?SetNoticeProperty@TNotice@@SAXPAXEKEGE@Z:PROC	; TNotice::SetNoticeProperty
EXTRN	?MakeNoticeMsgEx@TNotice@@SAXPAXEPADZZ:PROC	; TNotice::MakeNoticeMsgEx
;	COMDAT ??_C@_0FD@MDCNGBPL@?$FLArcaBattle?$FN?5Occupy?5Obelisk?5In?5A@
; File c:\muserver_dev\development\mu-s8ep2-repack\gameserver\source\tnotice.h
CONST	SEGMENT
??_C@_0FD@MDCNGBPL@?$FLArcaBattle?$FN?5Occupy?5Obelisk?5In?5A@ DB '[ArcaB'
	DB	'attle] Occupy Obelisk In ArcaBattle Progress  [%s][%s][%s] Ob'
	DB	'eliskGroup:[%d]', 00H			; `string'
CONST	ENDS
;	COMDAT ??_C@_0BO@LBLMIIED@?$KML?$KG?g?$KM?n?9?$KG?$CL?i?9?a?5?$CL?a?$KM?c?5?$KG?$KG?9?$LH?9L?$CL?$KG?$CL?9?4?$AA@
CONST	SEGMENT
??_C@_0BO@LBLMIIED@?$KML?$KG?g?$KM?n?9?$KG?$CL?i?9?a?5?$CL?a?$KM?c?5?$KG?$KG?9?$LH?9L?$CL?$KG?$CL?9?4?$AA@ DB 0acH
	DB	'L', 0a6H, 0e7H, 0acH, 0eeH, '-', 0a6H, '+', 0e9H, '-', 0e1H, ' '
	DB	'+', 0e1H, 0acH, 0e3H, ' ', 0a6H, 0a6H, '-', 0b7H, '-L+', 0a6H
	DB	'+-.', 00H					; `string'
; Function compile flags: /Ogtp
; File c:\muserver_dev\development\mu-s8ep2-repack\gameserver\source\arcabattle.cpp
CONST	ENDS
;	COMDAT ?IsOccupyObelisk@CArcaBattle@@QAEHAAUOBJECTSTRUCT@@H@Z
_TEXT	SEGMENT
_pMsg$183686 = -276					; size = 272
__$ArrayPad$ = -4					; size = 4
_obj$ = 8						; size = 4
_iMonIndex$ = 12					; size = 4
?IsOccupyObelisk@CArcaBattle@@QAEHAAUOBJECTSTRUCT@@H@Z PROC ; CArcaBattle::IsOccupyObelisk, COMDAT
; _this$ = ecx

; 1947 : {

  00000	55		 push	 ebp
  00001	8b ec		 mov	 ebp, esp
  00003	81 ec 14 01 00
	00		 sub	 esp, 276		; 00000114H
  00009	a1 00 00 00 00	 mov	 eax, DWORD PTR ___security_cookie
  0000e	33 c5		 xor	 eax, ebp
  00010	89 45 fc	 mov	 DWORD PTR __$ArrayPad$[ebp], eax
  00013	53		 push	 ebx
  00014	8b d9		 mov	 ebx, ecx
  00016	8b 83 b0 34 00
	00		 mov	 eax, DWORD PTR [ebx+13488]
  0001c	56		 push	 esi

; 1948 : 	for( int i = 0; i < this->m_iObeliskCnt; i++ )

  0001d	33 f6		 xor	 esi, esi
  0001f	57		 push	 edi
  00020	8b 7d 08	 mov	 edi, DWORD PTR _obj$[ebp]
  00023	85 c0		 test	 eax, eax
  00025	7e 15		 jle	 SHORT $LN2@IsOccupyOb

; 1949 : 	{
; 1950 : 		if( iMonIndex == this->m_stObeliskInfo[i].m_iMonsterNum )

  00027	8b 55 0c	 mov	 edx, DWORD PTR _iMonIndex$[ebp]
  0002a	8d 8b f4 2f 00
	00		 lea	 ecx, DWORD PTR [ebx+12276]
$LL4@IsOccupyOb:
  00030	3b 11		 cmp	 edx, DWORD PTR [ecx]
  00032	74 1d		 je	 SHORT $LN10@IsOccupyOb

; 1948 : 	for( int i = 0; i < this->m_iObeliskCnt; i++ )

  00034	46		 inc	 esi
  00035	83 c1 58	 add	 ecx, 88			; 00000058H
  00038	3b f0		 cmp	 esi, eax
  0003a	7c f4		 jl	 SHORT $LL4@IsOccupyOb
$LN2@IsOccupyOb:
  0003c	5f		 pop	 edi
  0003d	5e		 pop	 esi

; 1964 : 			return true;
; 1965 : 		}
; 1966 : 	}
; 1967 : 	// ----
; 1968 : 	return false;

  0003e	33 c0		 xor	 eax, eax
  00040	5b		 pop	 ebx

; 1969 : }

  00041	8b 4d fc	 mov	 ecx, DWORD PTR __$ArrayPad$[ebp]
  00044	33 cd		 xor	 ecx, ebp
  00046	e8 00 00 00 00	 call	 @__security_check_cookie@4
  0004b	8b e5		 mov	 esp, ebp
  0004d	5d		 pop	 ebp
  0004e	c2 08 00	 ret	 8
$LN10@IsOccupyOb:

; 1951 : 		{
; 1952 : 			PMSG_NOTICE pMsg;	//Need check conversion
; 1953 : 			TNotice::MakeNoticeMsgEx(&pMsg, 0, "L-+- + --L++-.");

  00051	68 00 00 00 00	 push	 OFFSET ??_C@_0BO@LBLMIIED@?$KML?$KG?g?$KM?n?9?$KG?$CL?i?9?a?5?$CL?a?$KM?c?5?$KG?$KG?9?$LH?9L?$CL?$KG?$CL?9?4?$AA@
  00056	8d 85 ec fe ff
	ff		 lea	 eax, DWORD PTR _pMsg$183686[ebp]
  0005c	6a 00		 push	 0
  0005e	50		 push	 eax
  0005f	e8 00 00 00 00	 call	 ?MakeNoticeMsgEx@TNotice@@SAXPAXEPADZZ ; TNotice::MakeNoticeMsgEx

; 1954 : 			TNotice::SetNoticeProperty(&pMsg, 0, _ARGB(-1, -1, 0xC8, 0x50), 1, 0, 20);

  00064	6a 14		 push	 20			; 00000014H
  00066	6a 00		 push	 0
  00068	6a 01		 push	 1
  0006a	68 ff c8 50 ff	 push	 -11482881		; ff50c8ffH
  0006f	8d 8d ec fe ff
	ff		 lea	 ecx, DWORD PTR _pMsg$183686[ebp]
  00075	6a 00		 push	 0
  00077	51		 push	 ecx
  00078	e8 00 00 00 00	 call	 ?SetNoticeProperty@TNotice@@SAXPAXEKEGE@Z ; TNotice::SetNoticeProperty

; 1955 : 			TNotice::SendNoticeToAllUser(&pMsg);

  0007d	8d 95 ec fe ff
	ff		 lea	 edx, DWORD PTR _pMsg$183686[ebp]
  00083	52		 push	 edx
  00084	e8 00 00 00 00	 call	 ?SendNoticeToAllUser@TNotice@@SAXPAX@Z ; TNotice::SendNoticeToAllUser

; 1956 : 			// ----
; 1957 : 			this->m_stObeliskState[i].m_iObeliskState	= AB_OBSTATE_OCCUPY;

  00089	8b c6		 mov	 eax, esi

; 1958 : 			this->m_stObeliskState[i].m_iOccupyGuildNum = obj.GuildNumber;
; 1959 : 			this->m_stObeliskState[i].m_iGroupNumber	= this->m_stObeliskInfo[i].m_iGroupNumber;

  0008b	6b f6 58	 imul	 esi, 88			; 00000058H
  0008e	6b c0 54	 imul	 eax, 84			; 00000054H
  00091	03 c3		 add	 eax, ebx
  00093	c7 80 a0 31 00
	00 01 00 00 00	 mov	 DWORD PTR [eax+12704], 1
  0009d	8b 8f 14 06 00
	00		 mov	 ecx, DWORD PTR [edi+1556]
  000a3	89 88 a4 31 00
	00		 mov	 DWORD PTR [eax+12708], ecx
  000a9	8b 94 1e d8 2f
	00 00		 mov	 edx, DWORD PTR [esi+ebx+12248]

; 1960 : 			memcpy(this->m_stObeliskState[i].m_szOccupyGuildName, obj.GuildName, 9);

  000b0	8d 8f 1c 06 00
	00		 lea	 ecx, DWORD PTR [edi+1564]
  000b6	89 90 90 31 00
	00		 mov	 DWORD PTR [eax+12688], edx
  000bc	8b 11		 mov	 edx, DWORD PTR [ecx]
  000be	89 90 a8 31 00
	00		 mov	 DWORD PTR [eax+12712], edx
  000c4	8b 51 04	 mov	 edx, DWORD PTR [ecx+4]
  000c7	89 90 ac 31 00
	00		 mov	 DWORD PTR [eax+12716], edx
  000cd	8a 51 08	 mov	 dl, BYTE PTR [ecx+8]
  000d0	88 90 b0 31 00
	00		 mov	 BYTE PTR [eax+12720], dl

; 1961 : 			// ----
; 1962 : 			LogAddTD("[ArcaBattle] Occupy Obelisk In ArcaBattle Progress  [%s][%s][%s] ObeliskGroup:[%d]",
; 1963 : 				obj.AccountID, obj.Name, obj.GuildName, this->m_stObeliskState[i].m_iGroupNumber);

  000d6	8b 80 90 31 00
	00		 mov	 eax, DWORD PTR [eax+12688]
  000dc	50		 push	 eax
  000dd	51		 push	 ecx
  000de	8d 4f 5d	 lea	 ecx, DWORD PTR [edi+93]
  000e1	51		 push	 ecx
  000e2	83 c7 52	 add	 edi, 82			; 00000052H
  000e5	57		 push	 edi
  000e6	68 00 00 00 00	 push	 OFFSET ??_C@_0FD@MDCNGBPL@?$FLArcaBattle?$FN?5Occupy?5Obelisk?5In?5A@
  000eb	ff 15 00 00 00
	00		 call	 DWORD PTR ?LogAddTD@@3P6AXPADZZA ; LogAddTD

; 1969 : }

  000f1	8b 4d fc	 mov	 ecx, DWORD PTR __$ArrayPad$[ebp]
  000f4	83 c4 3c	 add	 esp, 60			; 0000003cH
  000f7	5f		 pop	 edi
  000f8	5e		 pop	 esi
  000f9	33 cd		 xor	 ecx, ebp
  000fb	b8 01 00 00 00	 mov	 eax, 1
  00100	5b		 pop	 ebx
  00101	e8 00 00 00 00	 call	 @__security_check_cookie@4
  00106	8b e5		 mov	 esp, ebp
  00108	5d		 pop	 ebp
  00109	c2 08 00	 ret	 8
?IsOccupyObelisk@CArcaBattle@@QAEHAAUOBJECTSTRUCT@@H@Z ENDP ; CArcaBattle::IsOccupyObelisk
_TEXT	ENDS
PUBLIC	?GetTime@CTime@ATL@@QBE_JXZ			; ATL::CTime::GetTime
; Function compile flags: /Ogtp
; File c:\program files (x86)\microsoft visual studio 10.0\vc\atlmfc\include\atltime.inl
;	COMDAT ?GetTime@CTime@ATL@@QBE_JXZ
_TEXT	SEGMENT
?GetTime@CTime@ATL@@QBE_JXZ PROC			; ATL::CTime::GetTime, COMDAT
; _this$ = ecx

; 415  : 	return( m_time );

  00000	8b 01		 mov	 eax, DWORD PTR [ecx]
  00002	8b 51 04	 mov	 edx, DWORD PTR [ecx+4]

; 416  : }

  00005	c3		 ret	 0
?GetTime@CTime@ATL@@QBE_JXZ ENDP			; ATL::CTime::GetTime
_TEXT	ENDS
PUBLIC	??_C@_0BL@HDNCCFDN@?$FLArcaBattle?$FN?5?9?$KG?$KM?c?9?kL?$PP?5?$CL?9?$KM?q?$AA@ ; `string'
PUBLIC	??_C@_0BL@FNJGNFPC@?$FLArcaBattle?$FN?5?9?$KG?$KM?c?9?kL?$PP?5?9?$CLL?9?$AA@ ; `string'
PUBLIC	__$ArrayPad$
PUBLIC	?NotifyArcaBattle@CArcaBattle@@QAEXH@Z		; CArcaBattle::NotifyArcaBattle
EXTRN	?Get@Message@@QAEPADH@Z:PROC			; Message::Get
EXTRN	?lMsg@@3VMessage@@A:BYTE			; lMsg
;	COMDAT ??_C@_0BL@HDNCCFDN@?$FLArcaBattle?$FN?5?9?$KG?$KM?c?9?kL?$PP?5?$CL?9?$KM?q?$AA@
; File c:\muserver_dev\development\mu-s8ep2-repack\gameserver\source\tnotice.h
CONST	SEGMENT
??_C@_0BL@HDNCCFDN@?$FLArcaBattle?$FN?5?9?$KG?$KM?c?9?kL?$PP?5?$CL?9?$KM?q?$AA@ DB '['
	DB	'ArcaBattle] -', 0a6H, 0acH, 0e3H, '-', 0ebH, 'L', 0ffH, ' +-', 0acH
	DB	0f1H, 00H					; `string'
CONST	ENDS
;	COMDAT ??_C@_0BL@FNJGNFPC@?$FLArcaBattle?$FN?5?9?$KG?$KM?c?9?kL?$PP?5?9?$CLL?9?$AA@
CONST	SEGMENT
??_C@_0BL@FNJGNFPC@?$FLArcaBattle?$FN?5?9?$KG?$KM?c?9?kL?$PP?5?9?$CLL?9?$AA@ DB '['
	DB	'ArcaBattle] -', 0a6H, 0acH, 0e3H, '-', 0ebH, 'L', 0ffH, ' -+L'
	DB	'-', 00H					; `string'
; Function compile flags: /Ogtp
; File c:\muserver_dev\development\mu-s8ep2-repack\gameserver\source\arcabattle.cpp
CONST	ENDS
;	COMDAT ?NotifyArcaBattle@CArcaBattle@@QAEXH@Z
_TEXT	SEGMENT
_pMsg$183698 = -276					; size = 272
_pMsg$183694 = -276					; size = 272
__$ArrayPad$ = -4					; size = 4
_iNotifyNum$ = 8					; size = 4
?NotifyArcaBattle@CArcaBattle@@QAEXH@Z PROC		; CArcaBattle::NotifyArcaBattle, COMDAT
; _this$ = ecx

; 1974 : {

  00000	55		 push	 ebp
  00001	8b ec		 mov	 ebp, esp
  00003	81 ec 14 01 00
	00		 sub	 esp, 276		; 00000114H
  00009	a1 00 00 00 00	 mov	 eax, DWORD PTR ___security_cookie
  0000e	33 c5		 xor	 eax, ebp
  00010	89 45 fc	 mov	 DWORD PTR __$ArrayPad$[ebp], eax

; 1975 : 	if( iNotifyNum == 3 )

  00013	8b 45 08	 mov	 eax, DWORD PTR _iNotifyNum$[ebp]
  00016	83 f8 03	 cmp	 eax, 3
  00019	75 4a		 jne	 SHORT $LN3@NotifyArca

; 1976 : 	{
; 1977 : 		PMSG_NOTICE pMsg;	//Need check conversion
; 1978 : 		TNotice::MakeNoticeMsgEx(&pMsg, 0, lMsg.Get(3502));

  0001b	68 ae 0d 00 00	 push	 3502			; 00000daeH
  00020	b9 00 00 00 00	 mov	 ecx, OFFSET ?lMsg@@3VMessage@@A ; lMsg
  00025	e8 00 00 00 00	 call	 ?Get@Message@@QAEPADH@Z	; Message::Get
  0002a	50		 push	 eax
  0002b	8d 85 ec fe ff
	ff		 lea	 eax, DWORD PTR _pMsg$183694[ebp]
  00031	6a 00		 push	 0
  00033	50		 push	 eax
  00034	e8 00 00 00 00	 call	 ?MakeNoticeMsgEx@TNotice@@SAXPAXEPADZZ ; TNotice::MakeNoticeMsgEx

; 1979 : 		TNotice::SetNoticeProperty(&pMsg, 0, _ARGB(-1, -1, 0xC8, 0x50), 1, 0, 20);

  00039	6a 14		 push	 20			; 00000014H
  0003b	6a 00		 push	 0
  0003d	6a 01		 push	 1
  0003f	68 ff c8 50 ff	 push	 -11482881		; ff50c8ffH
  00044	8d 8d ec fe ff
	ff		 lea	 ecx, DWORD PTR _pMsg$183694[ebp]
  0004a	6a 00		 push	 0
  0004c	51		 push	 ecx
  0004d	e8 00 00 00 00	 call	 ?SetNoticeProperty@TNotice@@SAXPAXEKEGE@Z ; TNotice::SetNoticeProperty

; 1980 : 		TNotice::SendNoticeToAllUser(&pMsg);

  00052	8d 95 ec fe ff
	ff		 lea	 edx, DWORD PTR _pMsg$183694[ebp]
  00058	52		 push	 edx
  00059	e8 00 00 00 00	 call	 ?SendNoticeToAllUser@TNotice@@SAXPAX@Z ; TNotice::SendNoticeToAllUser

; 1981 : 		LogAddTD("[ArcaBattle] --L -+L-");

  0005e	68 00 00 00 00	 push	 OFFSET ??_C@_0BL@FNJGNFPC@?$FLArcaBattle?$FN?5?9?$KG?$KM?c?9?kL?$PP?5?9?$CLL?9?$AA@
  00063	eb 4d		 jmp	 SHORT $LN10@NotifyArca
$LN3@NotifyArca:

; 1982 : 	}
; 1983 : 	else if( iNotifyNum == 4 )

  00065	83 f8 04	 cmp	 eax, 4
  00068	75 51		 jne	 SHORT $LN1@NotifyArca

; 1984 : 	{
; 1985 : 		PMSG_NOTICE pMsg;	//Need check conversion
; 1986 : 		TNotice::MakeNoticeMsgEx(&pMsg, 0, lMsg.Get(3503));

  0006a	68 af 0d 00 00	 push	 3503			; 00000dafH
  0006f	b9 00 00 00 00	 mov	 ecx, OFFSET ?lMsg@@3VMessage@@A ; lMsg
  00074	e8 00 00 00 00	 call	 ?Get@Message@@QAEPADH@Z	; Message::Get
  00079	50		 push	 eax
  0007a	8d 85 ec fe ff
	ff		 lea	 eax, DWORD PTR _pMsg$183698[ebp]
  00080	6a 00		 push	 0
  00082	50		 push	 eax
  00083	e8 00 00 00 00	 call	 ?MakeNoticeMsgEx@TNotice@@SAXPAXEPADZZ ; TNotice::MakeNoticeMsgEx

; 1987 : 		TNotice::SetNoticeProperty(&pMsg, 0, _ARGB(-1, -1, 0xC8, 0x50), 1, 0, 20);

  00088	6a 14		 push	 20			; 00000014H
  0008a	6a 00		 push	 0
  0008c	6a 01		 push	 1
  0008e	68 ff c8 50 ff	 push	 -11482881		; ff50c8ffH
  00093	8d 8d ec fe ff
	ff		 lea	 ecx, DWORD PTR _pMsg$183698[ebp]
  00099	6a 00		 push	 0
  0009b	51		 push	 ecx
  0009c	e8 00 00 00 00	 call	 ?SetNoticeProperty@TNotice@@SAXPAXEKEGE@Z ; TNotice::SetNoticeProperty

; 1988 : 		TNotice::SendNoticeToAllUser(&pMsg);

  000a1	8d 95 ec fe ff
	ff		 lea	 edx, DWORD PTR _pMsg$183698[ebp]
  000a7	52		 push	 edx
  000a8	e8 00 00 00 00	 call	 ?SendNoticeToAllUser@TNotice@@SAXPAX@Z ; TNotice::SendNoticeToAllUser

; 1989 : 		LogAddTD("[ArcaBattle] --L +-");

  000ad	68 00 00 00 00	 push	 OFFSET ??_C@_0BL@HDNCCFDN@?$FLArcaBattle?$FN?5?9?$KG?$KM?c?9?kL?$PP?5?$CL?9?$KM?q?$AA@
$LN10@NotifyArca:
  000b2	ff 15 00 00 00
	00		 call	 DWORD PTR ?LogAddTD@@3P6AXPADZZA ; LogAddTD
  000b8	83 c4 2c	 add	 esp, 44			; 0000002cH
$LN1@NotifyArca:

; 1990 : 	}
; 1991 : }

  000bb	8b 4d fc	 mov	 ecx, DWORD PTR __$ArrayPad$[ebp]
  000be	33 cd		 xor	 ecx, ebp
  000c0	e8 00 00 00 00	 call	 @__security_check_cookie@4
  000c5	8b e5		 mov	 esp, ebp
  000c7	5d		 pop	 ebp
  000c8	c2 04 00	 ret	 4
?NotifyArcaBattle@CArcaBattle@@QAEXH@Z ENDP		; CArcaBattle::NotifyArcaBattle
_TEXT	ENDS
PUBLIC	?GDReqWinGuildInfo@CArcaBattle@@QAEXXZ		; CArcaBattle::GDReqWinGuildInfo
; Function compile flags: /Ogtp
;	COMDAT ?GDReqWinGuildInfo@CArcaBattle@@QAEXXZ
_TEXT	SEGMENT
_pMsg$ = -8						; size = 6
?GDReqWinGuildInfo@CArcaBattle@@QAEXXZ PROC		; CArcaBattle::GDReqWinGuildInfo, COMDAT
; _this$ = ecx

; 1996 : {

  00000	55		 push	 ebp
  00001	8b ec		 mov	 ebp, esp
  00003	83 ec 08	 sub	 esp, 8
  00006	56		 push	 esi
  00007	8b f1		 mov	 esi, ecx

; 1997 : 	_tagPMSG_REQ_AB_WIN_GUILD_INFO_DS pMsg;
; 1998 : 	// ----
; 1999 : 	pMsg.h.c		= 0xC1;
; 2000 : 	pMsg.h.size		= sizeof(_tagPMSG_REQ_AB_WIN_GUILD_INFO_DS);
; 2001 : 	pMsg.h.headcode = 0xF8;
; 2002 : 	pMsg.h.subcode	= 0x39;
; 2003 : 	cDBSMng.Send((PCHAR)&pMsg, pMsg.h.size);

  00009	6a 06		 push	 6
  0000b	8d 4d f8	 lea	 ecx, DWORD PTR _pMsg$[ebp]
  0000e	33 c0		 xor	 eax, eax
  00010	51		 push	 ecx
  00011	b9 00 00 00 00	 mov	 ecx, OFFSET ?cDBSMng@@3VDBSockMng@@A ; cDBSMng
  00016	66 89 45 fc	 mov	 WORD PTR _pMsg$[ebp+4], ax
  0001a	c7 45 f8 c1 06
	f8 39		 mov	 DWORD PTR _pMsg$[ebp], 972555969 ; 39f806c1H
  00021	e8 00 00 00 00	 call	 ?Send@DBSockMng@@QAEHPADH@Z ; DBSockMng::Send

; 2004 : 	// ----
; 2005 : 	this->m_bReqABWinGuildInfo = true;

  00026	c7 86 20 34 00
	00 01 00 00 00	 mov	 DWORD PTR [esi+13344], 1
  00030	5e		 pop	 esi

; 2006 : }

  00031	8b e5		 mov	 esp, ebp
  00033	5d		 pop	 ebp
  00034	c3		 ret	 0
?GDReqWinGuildInfo@CArcaBattle@@QAEXXZ ENDP		; CArcaBattle::GDReqWinGuildInfo
_TEXT	ENDS
PUBLIC	?GDReqProcState@CArcaBattle@@QAEXXZ		; CArcaBattle::GDReqProcState
; Function compile flags: /Ogtp
;	COMDAT ?GDReqProcState@CArcaBattle@@QAEXXZ
_TEXT	SEGMENT
_pMsg$ = -4						; size = 4
?GDReqProcState@CArcaBattle@@QAEXXZ PROC		; CArcaBattle::GDReqProcState, COMDAT
; _this$ = ecx

; 2011 : {

  00000	55		 push	 ebp
  00001	8b ec		 mov	 ebp, esp
  00003	51		 push	 ecx
  00004	56		 push	 esi
  00005	8b f1		 mov	 esi, ecx

; 2012 : 	if( this->IsArcaBattleServer() == false )

  00007	e8 00 00 00 00	 call	 ?IsArcaBattleServer@CArcaBattle@@QAEHXZ ; CArcaBattle::IsArcaBattleServer
  0000c	85 c0		 test	 eax, eax
  0000e	74 21		 je	 SHORT $LN4@GDReqProcS

; 2013 : 	{
; 2014 : 		return;
; 2015 : 	}
; 2016 : 	// ----
; 2017 : 	_tagPMSG_REQ_AB_PROC_STATE_DS pMsg;
; 2018 : 	// ----
; 2019 : 	pMsg.h.c		= 0xC1;
; 2020 :     pMsg.h.size		= sizeof(_tagPMSG_REQ_AB_PROC_STATE_DS);
; 2021 :     pMsg.h.headcode = 0xF8;
; 2022 :     pMsg.h.subcode	= 0x3F;
; 2023 :     cDBSMng.Send((PCHAR)&pMsg, pMsg.h.size);

  00010	6a 04		 push	 4
  00012	8d 45 fc	 lea	 eax, DWORD PTR _pMsg$[ebp]
  00015	50		 push	 eax
  00016	b9 00 00 00 00	 mov	 ecx, OFFSET ?cDBSMng@@3VDBSockMng@@A ; cDBSMng
  0001b	c7 45 fc c1 04
	f8 3f		 mov	 DWORD PTR _pMsg$[ebp], 1073218753 ; 3ff804c1H
  00022	e8 00 00 00 00	 call	 ?Send@DBSockMng@@QAEHPADH@Z ; DBSockMng::Send

; 2024 : 	// ----
; 2025 :     this->SetDataLoadProcState(1);

  00027	c7 86 24 34 00
	00 01 00 00 00	 mov	 DWORD PTR [esi+13348], 1
$LN4@GDReqProcS:
  00031	5e		 pop	 esi

; 2026 : }

  00032	8b e5		 mov	 esp, ebp
  00034	5d		 pop	 ebp
  00035	c3		 ret	 0
?GDReqProcState@CArcaBattle@@QAEXXZ ENDP		; CArcaBattle::GDReqProcState
_TEXT	ENDS
PUBLIC	??_C@_0GD@DJBGMIIN@?$FLArcaBattle?$FN?5Request?5Win?5Guild?5I@ ; `string'
PUBLIC	__$ArrayPad$
PUBLIC	?GDReqWinGuildInfoInsert@CArcaBattle@@QAEXXZ	; CArcaBattle::GDReqWinGuildInfoInsert
;	COMDAT ??_C@_0GD@DJBGMIIN@?$FLArcaBattle?$FN?5Request?5Win?5Guild?5I@
; File c:\muserver_dev\development\mu-s8ep2-repack\gameserver\source\mapservermanager.h
CONST	SEGMENT
??_C@_0GD@DJBGMIIN@?$FLArcaBattle?$FN?5Request?5Win?5Guild?5I@ DB '[ArcaB'
	DB	'attle] Request Win Guild Info Insert GuildName : %s(%d) Occup'
	DB	'yObelisk : %d ObeliskGroup : %d', 00H	; `string'
; Function compile flags: /Ogtp
; File c:\muserver_dev\development\mu-s8ep2-repack\gameserver\source\arcabattle.cpp
CONST	ENDS
;	COMDAT ?GDReqWinGuildInfoInsert@CArcaBattle@@QAEXXZ
_TEXT	SEGMENT
tv573 = -124						; size = 4
tv449 = -120						; size = 4
_iGuildCnt$ = -116					; size = 4
_pMsg$ = -112						; size = 108
__$ArrayPad$ = -4					; size = 4
?GDReqWinGuildInfoInsert@CArcaBattle@@QAEXXZ PROC	; CArcaBattle::GDReqWinGuildInfoInsert, COMDAT
; _this$ = ecx

; 2031 : {

  00000	55		 push	 ebp
  00001	8b ec		 mov	 ebp, esp
  00003	83 ec 7c	 sub	 esp, 124		; 0000007cH
  00006	a1 00 00 00 00	 mov	 eax, DWORD PTR ___security_cookie
  0000b	33 c5		 xor	 eax, ebp
  0000d	89 45 fc	 mov	 DWORD PTR __$ArrayPad$[ebp], eax
  00010	53		 push	 ebx
  00011	56		 push	 esi
  00012	57		 push	 edi

; 2032 : 	_tagPMSG_REQ_AB_WIN_GUILD_INFO_INSERT_DS pMsg;

  00013	bf 04 00 00 00	 mov	 edi, 4
  00018	8d 45 a8	 lea	 eax, DWORD PTR _pMsg$[ebp+24]
  0001b	33 d2		 xor	 edx, edx
  0001d	8d 5f fd	 lea	 ebx, DWORD PTR [edi-3]
$LL11@GDReqWinGu:
  00020	89 50 f0	 mov	 DWORD PTR [eax-16], edx
  00023	89 50 f4	 mov	 DWORD PTR [eax-12], edx
  00026	88 50 f8	 mov	 BYTE PTR [eax-8], dl
  00029	33 f6		 xor	 esi, esi
  0002b	89 50 fc	 mov	 DWORD PTR [eax-4], edx
  0002e	66 89 30	 mov	 WORD PTR [eax], si
  00031	66 89 70 02	 mov	 WORD PTR [eax+2], si
  00035	83 c0 14	 add	 eax, 20			; 00000014H
  00038	2b fb		 sub	 edi, ebx
  0003a	79 e4		 jns	 SHORT $LL11@GDReqWinGu
  0003c	33 c0		 xor	 eax, eax
  0003e	66 89 45 96	 mov	 WORD PTR _pMsg$[ebp+6], ax
  00042	8d 81 dc 2f 00
	00		 lea	 eax, DWORD PTR [ecx+12252]
  00048	88 55 94	 mov	 BYTE PTR _pMsg$[ebp+4], dl

; 2033 : 	int iGuildCnt = 0;

  0004b	89 55 8c	 mov	 DWORD PTR _iGuildCnt$[ebp], edx
  0004e	8d 7d a8	 lea	 edi, DWORD PTR _pMsg$[ebp+24]
  00051	89 45 88	 mov	 DWORD PTR tv449[ebp], eax
  00054	8d b1 a4 31 00
	00		 lea	 esi, DWORD PTR [ecx+12708]
  0005a	c7 45 84 05 00
	00 00		 mov	 DWORD PTR tv573[ebp], 5
$LL5@GDReqWinGu:

; 2036 : 	{
; 2037 : 		if( this->m_stObeliskState[i].m_iObeliskState == AB_OBSTATE_OCCUPY )

  00061	39 5e fc	 cmp	 DWORD PTR [esi-4], ebx
  00064	75 55		 jne	 SHORT $LN4@GDReqWinGu

; 2038 : 		{
; 2039 : 			pMsg.h.c		= 0xC1;
; 2040 : 			pMsg.h.size		= sizeof(_tagPMSG_REQ_AB_WIN_GUILD_INFO_INSERT_DS);
; 2041 : 			pMsg.h.headcode = 0xF8;
; 2042 : 			pMsg.h.subcode	= 0x38;
; 2043 : 			// ----
; 2044 : 			pMsg.m_stABWinGuildInfoDS[iGuildCnt].dwGuild		= this->m_stObeliskState[i].m_iOccupyGuildNum;
; 2045 : 			pMsg.m_stABWinGuildInfoDS[iGuildCnt].wOccupyObelisk = (WORD)this->m_stObeliskInfo[i].m_iAttrKind;
; 2046 : 			pMsg.m_stABWinGuildInfoDS[iGuildCnt].wObeliskGroup	= (WORD)this->m_stObeliskState[i].m_iGroupNumber;

  00066	0f b7 46 ec	 movzx	 eax, WORD PTR [esi-20]

; 2047 : 			memcpy(pMsg.m_stABWinGuildInfoDS[iGuildCnt].szGuildName, this->m_stObeliskState[i].m_szOccupyGuildName, 9);

  0006a	8b 5e 04	 mov	 ebx, DWORD PTR [esi+4]
  0006d	8b 55 88	 mov	 edx, DWORD PTR tv449[ebp]
  00070	0f b7 12	 movzx	 edx, WORD PTR [edx]
  00073	8b 0e		 mov	 ecx, DWORD PTR [esi]
  00075	c7 45 90 c1 6c
	f8 38		 mov	 DWORD PTR _pMsg$[ebp], 955804865 ; 38f86cc1H
  0007c	89 5f f0	 mov	 DWORD PTR [edi-16], ebx
  0007f	8b 5e 08	 mov	 ebx, DWORD PTR [esi+8]
  00082	66 89 47 02	 mov	 WORD PTR [edi+2], ax
  00086	8d 47 f0	 lea	 eax, DWORD PTR [edi-16]
  00089	89 58 04	 mov	 DWORD PTR [eax+4], ebx
  0008c	8a 5e 0c	 mov	 bl, BYTE PTR [esi+12]
  0008f	88 58 08	 mov	 BYTE PTR [eax+8], bl

; 2048 : 			// ----
; 2049 : 			LogAddTD("[ArcaBattle] Request Win Guild Info Insert GuildName : %s(%d) OccupyObelisk : %d ObeliskGroup : %d",
; 2050 : 				pMsg.m_stABWinGuildInfoDS[iGuildCnt].szGuildName, pMsg.m_stABWinGuildInfoDS[iGuildCnt].dwGuild,
; 2051 : 				pMsg.m_stABWinGuildInfoDS[iGuildCnt].wOccupyObelisk, pMsg.m_stABWinGuildInfoDS[iGuildCnt].wObeliskGroup);

  00092	0f b7 5e ec	 movzx	 ebx, WORD PTR [esi-20]
  00096	53		 push	 ebx
  00097	52		 push	 edx
  00098	51		 push	 ecx
  00099	50		 push	 eax
  0009a	68 00 00 00 00	 push	 OFFSET ??_C@_0GD@DJBGMIIN@?$FLArcaBattle?$FN?5Request?5Win?5Guild?5I@
  0009f	89 4f fc	 mov	 DWORD PTR [edi-4], ecx
  000a2	66 89 17	 mov	 WORD PTR [edi], dx
  000a5	ff 15 00 00 00
	00		 call	 DWORD PTR ?LogAddTD@@3P6AXPADZZA ; LogAddTD

; 2052 : 			iGuildCnt++;

  000ab	bb 01 00 00 00	 mov	 ebx, 1
  000b0	01 5d 8c	 add	 DWORD PTR _iGuildCnt$[ebp], ebx
  000b3	83 c4 14	 add	 esp, 20			; 00000014H
  000b6	83 c7 14	 add	 edi, 20			; 00000014H
  000b9	33 d2		 xor	 edx, edx
$LN4@GDReqWinGu:

; 2034 : 	// ----
; 2035 : 	for( int i = 0; i < AB_MAX_BATTLEPOS; i++ )

  000bb	83 45 88 58	 add	 DWORD PTR tv449[ebp], 88 ; 00000058H
  000bf	83 c6 54	 add	 esi, 84			; 00000054H
  000c2	29 5d 84	 sub	 DWORD PTR tv573[ebp], ebx
  000c5	75 9a		 jne	 SHORT $LL5@GDReqWinGu

; 2053 : 		}
; 2054 : 	}
; 2055 : 	// ----
; 2056 : 	if( iGuildCnt > 0 )

  000c7	5f		 pop	 edi
  000c8	5e		 pop	 esi
  000c9	5b		 pop	 ebx
  000ca	39 55 8c	 cmp	 DWORD PTR _iGuildCnt$[ebp], edx
  000cd	7e 2f		 jle	 SHORT $LN1@GDReqWinGu

; 2057 : 	{
; 2058 : 		pMsg.btGuildCnt = iGuildCnt;

  000cf	8a 45 8c	 mov	 al, BYTE PTR _iGuildCnt$[ebp]
  000d2	88 45 94	 mov	 BYTE PTR _pMsg$[ebp+4], al

; 2059 : 		pMsg.wMapSvrNum = g_MapServerManager.GetMapSvrGroup();

  000d5	a1 00 6b 01 00	 mov	 eax, DWORD PTR ?g_MapServerManager@@3VCMapServerManager@@A+92928
  000da	3b c2		 cmp	 eax, edx
  000dc	74 06		 je	 SHORT $LN16@GDReqWinGu
  000de	0f b6 40 08	 movzx	 eax, BYTE PTR [eax+8]
  000e2	eb 03		 jmp	 SHORT $LN17@GDReqWinGu
$LN16@GDReqWinGu:
  000e4	83 c8 ff	 or	 eax, -1
$LN17@GDReqWinGu:

; 2060 : 		cDBSMng.Send((PCHAR)&pMsg, pMsg.h.size);

  000e7	0f b6 4d 91	 movzx	 ecx, BYTE PTR _pMsg$[ebp+1]
  000eb	51		 push	 ecx
  000ec	8d 55 90	 lea	 edx, DWORD PTR _pMsg$[ebp]
  000ef	52		 push	 edx
  000f0	b9 00 00 00 00	 mov	 ecx, OFFSET ?cDBSMng@@3VDBSockMng@@A ; cDBSMng
  000f5	66 89 45 96	 mov	 WORD PTR _pMsg$[ebp+6], ax
  000f9	e8 00 00 00 00	 call	 ?Send@DBSockMng@@QAEHPADH@Z ; DBSockMng::Send
$LN1@GDReqWinGu:

; 2061 : 	}
; 2062 : }

  000fe	8b 4d fc	 mov	 ecx, DWORD PTR __$ArrayPad$[ebp]
  00101	33 cd		 xor	 ecx, ebp
  00103	e8 00 00 00 00	 call	 @__security_check_cookie@4
  00108	8b e5		 mov	 esp, ebp
  0010a	5d		 pop	 ebp
  0010b	c3		 ret	 0
?GDReqWinGuildInfoInsert@CArcaBattle@@QAEXXZ ENDP	; CArcaBattle::GDReqWinGuildInfoInsert
_TEXT	ENDS
PUBLIC	?DeleteMonster@CArcaBattle@@QAEXH@Z		; CArcaBattle::DeleteMonster
; Function compile flags: /Ogtp
;	COMDAT ?DeleteMonster@CArcaBattle@@QAEXH@Z
_TEXT	SEGMENT
_nGroupNumber$ = 8					; size = 4
?DeleteMonster@CArcaBattle@@QAEXH@Z PROC		; CArcaBattle::DeleteMonster, COMDAT
; _this$ = ecx

; 2185 : {

  00000	55		 push	 ebp
  00001	8b ec		 mov	 ebp, esp

; 2186 : 	if( !AB_CHECKMONGROUP(nGroupNumber) )

  00003	8b 45 08	 mov	 eax, DWORD PTR _nGroupNumber$[ebp]
  00006	85 c0		 test	 eax, eax
  00008	78 67		 js	 SHORT $LN3@DeleteMons
  0000a	33 d2		 xor	 edx, edx
  0000c	83 f8 31	 cmp	 eax, 49			; 00000031H
  0000f	0f 9e c2	 setle	 dl
  00012	85 d2		 test	 edx, edx
  00014	74 5b		 je	 SHORT $LN3@DeleteMons

; 2187 : 	{
; 2188 : 		return;
; 2189 : 	}
; 2190 : 	// ----
; 2191 : 	for( int i = 0; i < AB_MAX_MONCOUNT; i++ )

  00016	69 c0 0c 08 00
	00		 imul	 eax, 2060		; 0000080cH
  0001c	56		 push	 esi
  0001d	57		 push	 edi
  0001e	8d b4 08 04 e3
	00 00		 lea	 esi, DWORD PTR [eax+ecx+58116]
  00025	bf ff 00 00 00	 mov	 edi, 255		; 000000ffH
  0002a	8d 9b 00 00 00
	00		 npad	 6
$LL5@DeleteMons:

; 2192 :     {
; 2193 : 		if( this->m_stMonsterGroupInfo[nGroupNumber].m_stMonsterAccountNumInfo[i].m_nIndex > -1 )

  00030	8b 06		 mov	 eax, DWORD PTR [esi]
  00032	83 f8 ff	 cmp	 eax, -1
  00035	7e 32		 jle	 SHORT $LN4@DeleteMons

; 2194 : 		{
; 2195 : 			int nIndex = this->m_stMonsterGroupInfo[nGroupNumber].m_stMonsterAccountNumInfo[i].m_nIndex;
; 2196 : 			// ----
; 2197 : 			if( !gObj[nIndex].Live )

  00037	8b 15 00 00 00
	00		 mov	 edx, DWORD PTR ?gObj@@3PAUOBJECTSTRUCT@@A ; gObj
  0003d	8b c8		 mov	 ecx, eax
  0003f	69 c9 40 27 00
	00		 imul	 ecx, 10048		; 00002740H
  00045	80 7c 11 51 00	 cmp	 BYTE PTR [ecx+edx+81], 0
  0004a	75 1d		 jne	 SHORT $LN4@DeleteMons

; 2198 : 			{
; 2199 : 				gObjDel(nIndex);

  0004c	50		 push	 eax
  0004d	e8 00 00 00 00	 call	 ?gObjDel@@YAFH@Z	; gObjDel

; 2200 : 				LogAdd("[ArcaBattle][MonsterGroupRegen] Delete Monster - %d ",
; 2201 : 					this->m_stMonsterGroupInfo[nGroupNumber].m_stMonsterAccountNumInfo[i].m_nIndex);

  00052	8b 06		 mov	 eax, DWORD PTR [esi]
  00054	50		 push	 eax
  00055	68 00 00 00 00	 push	 OFFSET ??_C@_0DF@FMIEONML@?$FLArcaBattle?$FN?$FLMonsterGroupRegen?$FN?5@
  0005a	ff 15 00 00 00
	00		 call	 DWORD PTR ?LogAdd@@3P6AXPADZZA ; LogAdd
  00060	83 c4 0c	 add	 esp, 12			; 0000000cH

; 2202 : 				this->m_stMonsterGroupInfo[nGroupNumber].m_stMonsterAccountNumInfo[i].m_nIndex = -1;

  00063	c7 06 ff ff ff
	ff		 mov	 DWORD PTR [esi], -1
$LN4@DeleteMons:

; 2187 : 	{
; 2188 : 		return;
; 2189 : 	}
; 2190 : 	// ----
; 2191 : 	for( int i = 0; i < AB_MAX_MONCOUNT; i++ )

  00069	83 c6 08	 add	 esi, 8
  0006c	4f		 dec	 edi
  0006d	75 c1		 jne	 SHORT $LL5@DeleteMons
  0006f	5f		 pop	 edi
  00070	5e		 pop	 esi
$LN3@DeleteMons:

; 2203 : 			}
; 2204 : 		}
; 2205 : 	}
; 2206 : }

  00071	5d		 pop	 ebp
  00072	c2 04 00	 ret	 4
?DeleteMonster@CArcaBattle@@QAEXH@Z ENDP		; CArcaBattle::DeleteMonster
_TEXT	ENDS
PUBLIC	??_C@_0BL@KNDCMNHP@?$FLArcaBattle?$FN?5error?5?3?5?$CFs?5?$CFd?$AA@ ; `string'
PUBLIC	??_C@_0P@FNDEBPBH@ArcaBattle?4cpp?$AA@		; `string'
PUBLIC	?SetPosMonster@CArcaBattle@@QAEHHHHHHH@Z	; CArcaBattle::SetPosMonster
;	COMDAT ??_C@_0BL@KNDCMNHP@?$FLArcaBattle?$FN?5error?5?3?5?$CFs?5?$CFd?$AA@
CONST	SEGMENT
??_C@_0BL@KNDCMNHP@?$FLArcaBattle?$FN?5error?5?3?5?$CFs?5?$CFd?$AA@ DB '['
	DB	'ArcaBattle] error : %s %d', 00H		; `string'
CONST	ENDS
;	COMDAT ??_C@_0P@FNDEBPBH@ArcaBattle?4cpp?$AA@
CONST	SEGMENT
??_C@_0P@FNDEBPBH@ArcaBattle?4cpp?$AA@ DB 'ArcaBattle.cpp', 00H ; `string'
; Function compile flags: /Ogtp
CONST	ENDS
;	COMDAT ?SetPosMonster@CArcaBattle@@QAEHHHHHHH@Z
_TEXT	SEGMENT
_aIndex$ = 8						; size = 4
_nMapNumber$ = 12					; size = 4
_nBeginX$ = 16						; size = 4
_nBeginY$ = 20						; size = 4
_nEndX$ = 24						; size = 4
_nEndY$ = 28						; size = 4
?SetPosMonster@CArcaBattle@@QAEHHHHHHH@Z PROC		; CArcaBattle::SetPosMonster, COMDAT
; _this$ = ecx

; 2290 : {

  00000	55		 push	 ebp
  00001	8b ec		 mov	 ebp, esp
  00003	56		 push	 esi

; 2291 : 	if( !OBJMAX_RANGE(aIndex) )	//9999

  00004	8b 75 08	 mov	 esi, DWORD PTR _aIndex$[ebp]
  00007	85 f6		 test	 esi, esi
  00009	78 0f		 js	 SHORT $LN6@SetPosMons
  0000b	33 c0		 xor	 eax, eax
  0000d	81 fe eb 2c 00
	00		 cmp	 esi, 11499		; 00002cebH
  00013	0f 9e c0	 setle	 al
  00016	85 c0		 test	 eax, eax
  00018	75 1f		 jne	 SHORT $LN1@SetPosMons
$LN6@SetPosMons:

; 2292 : 	{
; 2293 : 		LogAdd("[ArcaBattle] error : %s %d", __FILE__, __LINE__); //Line: 3291

  0001a	68 f5 08 00 00	 push	 2293			; 000008f5H
  0001f	68 00 00 00 00	 push	 OFFSET ??_C@_0P@FNDEBPBH@ArcaBattle?4cpp?$AA@
  00024	68 00 00 00 00	 push	 OFFSET ??_C@_0BL@KNDCMNHP@?$FLArcaBattle?$FN?5error?5?3?5?$CFs?5?$CFd?$AA@
  00029	ff 15 00 00 00
	00		 call	 DWORD PTR ?LogAdd@@3P6AXPADZZA ; LogAdd
  0002f	83 c4 0c	 add	 esp, 12			; 0000000cH

; 2294 : 		return false;

  00032	33 c0		 xor	 eax, eax
  00034	5e		 pop	 esi

; 2313 : }

  00035	5d		 pop	 ebp
  00036	c2 18 00	 ret	 24			; 00000018H
$LN1@SetPosMons:

; 2295 : 	}
; 2296 : 	// ----
; 2297 : 	LPOBJ lpObj = &gObj[aIndex];
; 2298 : 	// ----
; 2299 : 	lpObj->m_PosNum		= -1;
; 2300 : 	lpObj->MapNumber	= nMapNumber;

  00039	8a 4d 0c	 mov	 cl, BYTE PTR _nMapNumber$[ebp]
  0003c	69 f6 40 27 00
	00		 imul	 esi, 10048		; 00002740H
  00042	03 35 00 00 00
	00		 add	 esi, DWORD PTR ?gObj@@3PAUOBJECTSTRUCT@@A ; gObj
  00048	83 c8 ff	 or	 eax, -1
  0004b	66 89 86 98 05
	00 00		 mov	 WORD PTR [esi+1432], ax

; 2301 : //	this->GetBoxPosition(nMapNumber, nBeginX, nBeginY, nEndX, nEndY, lpObj->X, lpObj->Y);
; 2302 : 	lpObj->TX			= lpObj->X;

  00052	8a 86 20 01 00
	00		 mov	 al, BYTE PTR [esi+288]
  00058	88 8e 23 01 00
	00		 mov	 BYTE PTR [esi+291], cl

; 2303 :     lpObj->TY			= lpObj->Y;

  0005e	8a 8e 21 01 00
	00		 mov	 cl, BYTE PTR [esi+289]
  00064	88 86 52 01 00
	00		 mov	 BYTE PTR [esi+338], al
  0006a	88 8e 53 01 00
	00		 mov	 BYTE PTR [esi+339], cl

; 2304 :     lpObj->m_OldX		= lpObj->X;

  00070	88 86 50 01 00
	00		 mov	 BYTE PTR [esi+336], al

; 2305 :     lpObj->m_OldY		= lpObj->Y;

  00076	88 8e 51 01 00
	00		 mov	 BYTE PTR [esi+337], cl

; 2306 : 	lpObj->Dir			= rand() % 8;	//need check

  0007c	e8 00 00 00 00	 call	 _rand
  00081	25 07 00 00 80	 and	 eax, -2147483641	; 80000007H
  00086	79 05		 jns	 SHORT $LN7@SetPosMons
  00088	48		 dec	 eax
  00089	83 c8 f8	 or	 eax, -8			; fffffff8H
  0008c	40		 inc	 eax
$LN7@SetPosMons:

; 2307 : 	lpObj->StartX		= (BYTE)lpObj->X;

  0008d	8a 96 20 01 00
	00		 mov	 dl, BYTE PTR [esi+288]
  00093	88 86 22 01 00
	00		 mov	 BYTE PTR [esi+290], al

; 2308 :     lpObj->StartY		= (BYTE)lpObj->Y;

  00099	0f b6 86 21 01
	00 00		 movzx	 eax, BYTE PTR [esi+289]
  000a0	88 86 4f 01 00
	00		 mov	 BYTE PTR [esi+335], al
  000a6	88 96 4e 01 00
	00		 mov	 BYTE PTR [esi+334], dl

; 2309 :     lpObj->DieRegen		= 0;

  000ac	c6 86 8a 05 00
	00 00		 mov	 BYTE PTR [esi+1418], 0

; 2310 :     lpObj->MaxRegenTime = 0;

  000b3	c7 86 94 05 00
	00 00 00 00 00	 mov	 DWORD PTR [esi+1428], 0

; 2311 : 	// ----
; 2312 : 	return true;

  000bd	b8 01 00 00 00	 mov	 eax, 1
  000c2	5e		 pop	 esi

; 2313 : }

  000c3	5d		 pop	 ebp
  000c4	c2 18 00	 ret	 24			; 00000018H
?SetPosMonster@CArcaBattle@@QAEHHHHHHH@Z ENDP		; CArcaBattle::SetPosMonster
_TEXT	ENDS
PUBLIC	?GetBoxPosition@CArcaBattle@@QAEHHHHHHAAE0@Z	; CArcaBattle::GetBoxPosition
EXTRN	?GetAttr@MapClass@@QAEEHH@Z:PROC		; MapClass::GetAttr
EXTRN	?MapC@@3PAVMapClass@@A:BYTE			; MapC
EXTRN	__except_handler4:PROC
;	COMDAT xdata$x
xdata$x	SEGMENT
__sehtable$?GetBoxPosition@CArcaBattle@@QAEHHHHHHAAE0@Z DD 0fffffffeH
	DD	00H
	DD	0ffffffc4H
	DD	00H
	DD	0fffffffeH
	DD	FLAT:$LN8@GetBoxPosi
	DD	FLAT:$LN9@GetBoxPosi
; Function compile flags: /Ogtp
xdata$x	ENDS
;	COMDAT ?GetBoxPosition@CArcaBattle@@QAEHHHHHHAAE0@Z
_TEXT	SEGMENT
_ty$ = -44						; size = 4
_count$ = -40						; size = 4
_tx$ = -36						; size = 4
_h$ = -32						; size = 4
_w$ = -28						; size = 4
__$SEHRec$ = -24					; size = 24
_mapnumber$ = 8						; size = 4
_ax$ = 12						; size = 4
_ay$ = 16						; size = 4
_aw$ = 20						; size = 4
_ah$ = 24						; size = 4
_mx$ = 28						; size = 4
_my$ = 32						; size = 4
?GetBoxPosition@CArcaBattle@@QAEHHHHHHAAE0@Z PROC	; CArcaBattle::GetBoxPosition, COMDAT
; _this$ = ecx

; 2318 : {

  00000	55		 push	 ebp
  00001	8b ec		 mov	 ebp, esp
  00003	6a fe		 push	 -2			; fffffffeH
  00005	68 00 00 00 00	 push	 OFFSET __sehtable$?GetBoxPosition@CArcaBattle@@QAEHHHHHHAAE0@Z
  0000a	68 00 00 00 00	 push	 OFFSET __except_handler4
  0000f	64 a1 00 00 00
	00		 mov	 eax, DWORD PTR fs:0
  00015	50		 push	 eax
  00016	83 ec 1c	 sub	 esp, 28			; 0000001cH
  00019	53		 push	 ebx
  0001a	56		 push	 esi
  0001b	57		 push	 edi
  0001c	a1 00 00 00 00	 mov	 eax, DWORD PTR ___security_cookie
  00021	31 45 f8	 xor	 DWORD PTR __$SEHRec$[ebp+16], eax
  00024	33 c5		 xor	 eax, ebp
  00026	50		 push	 eax
  00027	8d 45 f0	 lea	 eax, DWORD PTR __$SEHRec$[ebp+8]
  0002a	64 a3 00 00 00
	00		 mov	 DWORD PTR fs:0, eax
  00030	89 65 e8	 mov	 DWORD PTR __$SEHRec$[ebp], esp

; 2319 : 	int count = 99; 

  00033	b8 63 00 00 00	 mov	 eax, 99			; 00000063H
  00038	8b 75 10	 mov	 esi, DWORD PTR _ay$[ebp]
  0003b	8b 7d 0c	 mov	 edi, DWORD PTR _ax$[ebp]
  0003e	eb 03		 jmp	 SHORT $LN4@GetBoxPosi
$LL13@GetBoxPosi:
  00040	8b 45 d8	 mov	 eax, DWORD PTR _count$[ebp]
$LN4@GetBoxPosi:

; 2320 : 	int w;
; 2321 : 	int h;
; 2322 : 	int tx; 
; 2323 : 	int ty;
; 2324 : 	BYTE attr;
; 2325 : 	// ----
; 2326 : 	while( count-- != 0 )

  00043	8b c8		 mov	 ecx, eax
  00045	48		 dec	 eax
  00046	89 45 d8	 mov	 DWORD PTR _count$[ebp], eax
  00049	85 c9		 test	 ecx, ecx
  0004b	0f 84 a7 00 00
	00		 je	 $LN3@GetBoxPosi

; 2327 : 	{
; 2328 : 		w = aw - ax;

  00051	8b 55 14	 mov	 edx, DWORD PTR _aw$[ebp]
  00054	2b d7		 sub	 edx, edi
  00056	89 55 e4	 mov	 DWORD PTR _w$[ebp], edx

; 2329 : 		h = ah - ay;

  00059	8b 45 18	 mov	 eax, DWORD PTR _ah$[ebp]
  0005c	2b c6		 sub	 eax, esi
