; Listing generated by Microsoft (R) Optimizing Compiler Version 16.00.40219.01 

	TITLE	C:\muserver_dev\development\MU-S8EP2-Repack\GameServer\Source\BattleSoccer.cpp
	.686P
	.XMM
	include listing.inc
	.model	flat

INCLUDELIB LIBCMT
INCLUDELIB OLDNAMES

PUBLIC	?gBSGround@@3PAPAVCBattleSoccer@@A		; gBSGround
_BSS	SEGMENT
?gBSGround@@3PAPAVCBattleSoccer@@A DD 01H DUP (?)	; gBSGround
_BSS	ENDS
PUBLIC	??_7CBattleSoccer@@6B@				; CBattleSoccer::`vftable'
PUBLIC	??0CBattleSoccer@@QAE@XZ			; CBattleSoccer::CBattleSoccer
PUBLIC	??_R4CBattleSoccer@@6B@				; CBattleSoccer::`RTTI Complete Object Locator'
PUBLIC	??_R0?AVCBattleSoccer@@@8			; CBattleSoccer `RTTI Type Descriptor'
PUBLIC	??_R3CBattleSoccer@@8				; CBattleSoccer::`RTTI Class Hierarchy Descriptor'
PUBLIC	??_R2CBattleSoccer@@8				; CBattleSoccer::`RTTI Base Class Array'
PUBLIC	??_R1A@?0A@EA@CBattleSoccer@@8			; CBattleSoccer::`RTTI Base Class Descriptor at (0,-1,0,64)'
PUBLIC	??_R1A@?0A@EA@CBattleGround@@8			; CBattleGround::`RTTI Base Class Descriptor at (0,-1,0,64)'
PUBLIC	??_R0?AVCBattleGround@@@8			; CBattleGround `RTTI Type Descriptor'
PUBLIC	??_R3CBattleGround@@8				; CBattleGround::`RTTI Class Hierarchy Descriptor'
PUBLIC	??_R2CBattleGround@@8				; CBattleGround::`RTTI Base Class Array'
EXTRN	??0CBattleGround@@QAE@XZ:PROC			; CBattleGround::CBattleGround
EXTRN	??_7type_info@@6B@:QWORD			; type_info::`vftable'
EXTRN	??_ECBattleSoccer@@UAEPAXI@Z:PROC		; CBattleSoccer::`vector deleting destructor'
;	COMDAT ??_R2CBattleGround@@8
; File c:\muserver_dev\development\mu-s8ep2-repack\gameserver\source\battlesoccer.cpp
rdata$r	SEGMENT
??_R2CBattleGround@@8 DD FLAT:??_R1A@?0A@EA@CBattleGround@@8 ; CBattleGround::`RTTI Base Class Array'
rdata$r	ENDS
;	COMDAT ??_R3CBattleGround@@8
rdata$r	SEGMENT
??_R3CBattleGround@@8 DD 00H				; CBattleGround::`RTTI Class Hierarchy Descriptor'
	DD	00H
	DD	01H
	DD	FLAT:??_R2CBattleGround@@8
rdata$r	ENDS
;	COMDAT ??_R0?AVCBattleGround@@@8
_DATA	SEGMENT
??_R0?AVCBattleGround@@@8 DD FLAT:??_7type_info@@6B@	; CBattleGround `RTTI Type Descriptor'
	DD	00H
	DB	'.?AVCBattleGround@@', 00H
_DATA	ENDS
;	COMDAT ??_R1A@?0A@EA@CBattleGround@@8
rdata$r	SEGMENT
??_R1A@?0A@EA@CBattleGround@@8 DD FLAT:??_R0?AVCBattleGround@@@8 ; CBattleGround::`RTTI Base Class Descriptor at (0,-1,0,64)'
	DD	00H
	DD	00H
	DD	0ffffffffH
	DD	00H
	DD	040H
	DD	FLAT:??_R3CBattleGround@@8
rdata$r	ENDS
;	COMDAT ??_R1A@?0A@EA@CBattleSoccer@@8
rdata$r	SEGMENT
??_R1A@?0A@EA@CBattleSoccer@@8 DD FLAT:??_R0?AVCBattleSoccer@@@8 ; CBattleSoccer::`RTTI Base Class Descriptor at (0,-1,0,64)'
	DD	01H
	DD	00H
	DD	0ffffffffH
	DD	00H
	DD	040H
	DD	FLAT:??_R3CBattleSoccer@@8
rdata$r	ENDS
;	COMDAT ??_R2CBattleSoccer@@8
rdata$r	SEGMENT
??_R2CBattleSoccer@@8 DD FLAT:??_R1A@?0A@EA@CBattleSoccer@@8 ; CBattleSoccer::`RTTI Base Class Array'
	DD	FLAT:??_R1A@?0A@EA@CBattleGround@@8
rdata$r	ENDS
;	COMDAT ??_R3CBattleSoccer@@8
rdata$r	SEGMENT
??_R3CBattleSoccer@@8 DD 00H				; CBattleSoccer::`RTTI Class Hierarchy Descriptor'
	DD	00H
	DD	02H
	DD	FLAT:??_R2CBattleSoccer@@8
rdata$r	ENDS
;	COMDAT ??_R0?AVCBattleSoccer@@@8
_DATA	SEGMENT
??_R0?AVCBattleSoccer@@@8 DD FLAT:??_7type_info@@6B@	; CBattleSoccer `RTTI Type Descriptor'
	DD	00H
	DB	'.?AVCBattleSoccer@@', 00H
_DATA	ENDS
;	COMDAT ??_R4CBattleSoccer@@6B@
rdata$r	SEGMENT
??_R4CBattleSoccer@@6B@ DD 00H				; CBattleSoccer::`RTTI Complete Object Locator'
	DD	00H
	DD	00H
	DD	FLAT:??_R0?AVCBattleSoccer@@@8
	DD	FLAT:??_R3CBattleSoccer@@8
rdata$r	ENDS
;	COMDAT ??_7CBattleSoccer@@6B@
CONST	SEGMENT
??_7CBattleSoccer@@6B@ DD FLAT:??_R4CBattleSoccer@@6B@	; CBattleSoccer::`vftable'
	DD	FLAT:??_ECBattleSoccer@@UAEPAXI@Z
; Function compile flags: /Ogtp
CONST	ENDS
;	COMDAT ??0CBattleSoccer@@QAE@XZ
_TEXT	SEGMENT
??0CBattleSoccer@@QAE@XZ PROC				; CBattleSoccer::CBattleSoccer, COMDAT
; _this$ = ecx

; 9    : {

  00000	56		 push	 esi
  00001	8b f1		 mov	 esi, ecx
  00003	e8 00 00 00 00	 call	 ??0CBattleGround@@QAE@XZ ; CBattleGround::CBattleGround

; 10   : 	this->m_goalmove = 0;

  00008	33 c0		 xor	 eax, eax
  0000a	89 46 60	 mov	 DWORD PTR [esi+96], eax

; 11   : 	this->m_BallIndex = 0;

  0000d	89 46 64	 mov	 DWORD PTR [esi+100], eax
  00010	c7 06 00 00 00
	00		 mov	 DWORD PTR [esi], OFFSET ??_7CBattleSoccer@@6B@

; 12   : }

  00016	8b c6		 mov	 eax, esi
  00018	5e		 pop	 esi
  00019	c3		 ret	 0
??0CBattleSoccer@@QAE@XZ ENDP				; CBattleSoccer::CBattleSoccer
_TEXT	ENDS
PUBLIC	??1CBattleSoccer@@UAE@XZ			; CBattleSoccer::~CBattleSoccer
EXTRN	??1CBattleGround@@UAE@XZ:PROC			; CBattleGround::~CBattleGround
; Function compile flags: /Ogtp
;	COMDAT ??1CBattleSoccer@@UAE@XZ
_TEXT	SEGMENT
??1CBattleSoccer@@UAE@XZ PROC				; CBattleSoccer::~CBattleSoccer, COMDAT
; _this$ = ecx

; 16   : {

  00000	c7 01 00 00 00
	00		 mov	 DWORD PTR [ecx], OFFSET ??_7CBattleSoccer@@6B@

; 17   : 	return;
; 18   : }

  00006	e9 00 00 00 00	 jmp	 ??1CBattleGround@@UAE@XZ ; CBattleGround::~CBattleGround
??1CBattleSoccer@@UAE@XZ ENDP				; CBattleSoccer::~CBattleSoccer
_TEXT	ENDS
PUBLIC	?SetGoalMove@CBattleSoccer@@QAEXH@Z		; CBattleSoccer::SetGoalMove
; Function compile flags: /Ogtp
;	COMDAT ?SetGoalMove@CBattleSoccer@@QAEXH@Z
_TEXT	SEGMENT
_set_code$ = 8						; size = 4
?SetGoalMove@CBattleSoccer@@QAEXH@Z PROC		; CBattleSoccer::SetGoalMove, COMDAT
; _this$ = ecx

; 21   : {

  00000	55		 push	 ebp
  00001	8b ec		 mov	 ebp, esp

; 22   : 	this->m_goalmove = set_code;

  00003	8b 45 08	 mov	 eax, DWORD PTR _set_code$[ebp]
  00006	89 41 60	 mov	 DWORD PTR [ecx+96], eax

; 23   : }

  00009	5d		 pop	 ebp
  0000a	c2 04 00	 ret	 4
?SetGoalMove@CBattleSoccer@@QAEXH@Z ENDP		; CBattleSoccer::SetGoalMove
_TEXT	ENDS
PUBLIC	?GetGoalMove@CBattleSoccer@@QAEHXZ		; CBattleSoccer::GetGoalMove
; Function compile flags: /Ogtp
;	COMDAT ?GetGoalMove@CBattleSoccer@@QAEHXZ
_TEXT	SEGMENT
?GetGoalMove@CBattleSoccer@@QAEHXZ PROC			; CBattleSoccer::GetGoalMove, COMDAT
; _this$ = ecx

; 27   : 	return this->m_goalmove;

  00000	8b 41 60	 mov	 eax, DWORD PTR [ecx+96]

; 28   : }

  00003	c3		 ret	 0
?GetGoalMove@CBattleSoccer@@QAEHXZ ENDP			; CBattleSoccer::GetGoalMove
_TEXT	ENDS
PUBLIC	?SetGoalLeftRect@CBattleSoccer@@QAEXHHHH@Z	; CBattleSoccer::SetGoalLeftRect
; Function compile flags: /Ogtp
;	COMDAT ?SetGoalLeftRect@CBattleSoccer@@QAEXHHHH@Z
_TEXT	SEGMENT
_x$ = 8							; size = 4
_y$ = 12						; size = 4
_xl$ = 16						; size = 4
_yl$ = 20						; size = 4
?SetGoalLeftRect@CBattleSoccer@@QAEXHHHH@Z PROC		; CBattleSoccer::SetGoalLeftRect, COMDAT
; _this$ = ecx

; 31   : {

  00000	55		 push	 ebp
  00001	8b ec		 mov	 ebp, esp

; 32   : 	this->m_GoalLeft.left = x;

  00003	8b 45 08	 mov	 eax, DWORD PTR _x$[ebp]

; 33   : 	this->m_GoalLeft.top = y;

  00006	8b 55 0c	 mov	 edx, DWORD PTR _y$[ebp]
  00009	89 41 68	 mov	 DWORD PTR [ecx+104], eax

; 34   : 	this->m_GoalLeft.right = xl;

  0000c	8b 45 10	 mov	 eax, DWORD PTR _xl$[ebp]
  0000f	89 51 6c	 mov	 DWORD PTR [ecx+108], edx

; 35   : 	this->m_GoalLeft.bottom = yl;

  00012	8b 55 14	 mov	 edx, DWORD PTR _yl$[ebp]
  00015	89 41 70	 mov	 DWORD PTR [ecx+112], eax
  00018	89 51 74	 mov	 DWORD PTR [ecx+116], edx

; 36   : }

  0001b	5d		 pop	 ebp
  0001c	c2 10 00	 ret	 16			; 00000010H
?SetGoalLeftRect@CBattleSoccer@@QAEXHHHH@Z ENDP		; CBattleSoccer::SetGoalLeftRect
_TEXT	ENDS
PUBLIC	?SetGoalRightRect@CBattleSoccer@@QAEXHHHH@Z	; CBattleSoccer::SetGoalRightRect
; Function compile flags: /Ogtp
;	COMDAT ?SetGoalRightRect@CBattleSoccer@@QAEXHHHH@Z
_TEXT	SEGMENT
_x$ = 8							; size = 4
_y$ = 12						; size = 4
_xl$ = 16						; size = 4
_yl$ = 20						; size = 4
?SetGoalRightRect@CBattleSoccer@@QAEXHHHH@Z PROC	; CBattleSoccer::SetGoalRightRect, COMDAT
; _this$ = ecx

; 40   : {

  00000	55		 push	 ebp
  00001	8b ec		 mov	 ebp, esp

; 41   : 	this->m_GoalRight.left = x;

  00003	8b 45 08	 mov	 eax, DWORD PTR _x$[ebp]

; 42   : 	this->m_GoalRight.top = y;

  00006	8b 55 0c	 mov	 edx, DWORD PTR _y$[ebp]
  00009	89 41 78	 mov	 DWORD PTR [ecx+120], eax

; 43   : 	this->m_GoalRight.right = xl;

  0000c	8b 45 10	 mov	 eax, DWORD PTR _xl$[ebp]
  0000f	89 51 7c	 mov	 DWORD PTR [ecx+124], edx

; 44   : 	this->m_GoalRight.bottom = yl;

  00012	8b 55 14	 mov	 edx, DWORD PTR _yl$[ebp]
  00015	89 81 80 00 00
	00		 mov	 DWORD PTR [ecx+128], eax
  0001b	89 91 84 00 00
	00		 mov	 DWORD PTR [ecx+132], edx

; 45   : }

  00021	5d		 pop	 ebp
  00022	c2 10 00	 ret	 16			; 00000010H
?SetGoalRightRect@CBattleSoccer@@QAEXHHHH@Z ENDP	; CBattleSoccer::SetGoalRightRect
_TEXT	ENDS
EXTRN	??3@YAXPAX@Z:PROC				; operator delete
; Function compile flags: /Ogtp
;	COMDAT ??_GCBattleSoccer@@UAEPAXI@Z
_TEXT	SEGMENT
___flags$ = 8						; size = 4
??_GCBattleSoccer@@UAEPAXI@Z PROC			; CBattleSoccer::`scalar deleting destructor', COMDAT
; _this$ = ecx
  00000	55		 push	 ebp
  00001	8b ec		 mov	 ebp, esp
  00003	56		 push	 esi
  00004	8b f1		 mov	 esi, ecx
  00006	e8 00 00 00 00	 call	 ??1CBattleSoccer@@UAE@XZ ; CBattleSoccer::~CBattleSoccer
  0000b	f6 45 08 01	 test	 BYTE PTR ___flags$[ebp], 1
  0000f	74 09		 je	 SHORT $LN4@scalar
  00011	56		 push	 esi
  00012	e8 00 00 00 00	 call	 ??3@YAXPAX@Z		; operator delete
  00017	83 c4 04	 add	 esp, 4
$LN4@scalar:
  0001a	8b c6		 mov	 eax, esi
  0001c	5e		 pop	 esi
  0001d	5d		 pop	 ebp
  0001e	c2 04 00	 ret	 4
??_GCBattleSoccer@@UAEPAXI@Z ENDP			; CBattleSoccer::`scalar deleting destructor'
_TEXT	ENDS
END
