; Listing generated by Microsoft (R) Optimizing Compiler Version 16.00.40219.01 

	TITLE	C:\muserver_dev\development\MU-S8EP2-Repack\GameServer\Source\CastleSiege.cpp
	.686P
	.XMM
	include listing.inc
	.model	flat

INCLUDELIB LIBCMT
INCLUDELIB OLDNAMES

PUBLIC	?BLOCKSIZE@?$FixedBlockSize@$07@CryptoPP@@2HB	; CryptoPP::FixedBlockSize<8>::BLOCKSIZE
PUBLIC	?KEYLENGTH@?$FixedKeyLength@$07$03$0A@@CryptoPP@@2HB ; CryptoPP::FixedKeyLength<8,4,0>::KEYLENGTH
PUBLIC	?MIN_KEYLENGTH@?$FixedKeyLength@$07$03$0A@@CryptoPP@@2HB ; CryptoPP::FixedKeyLength<8,4,0>::MIN_KEYLENGTH
PUBLIC	?MAX_KEYLENGTH@?$FixedKeyLength@$07$03$0A@@CryptoPP@@2HB ; CryptoPP::FixedKeyLength<8,4,0>::MAX_KEYLENGTH
PUBLIC	?DEFAULT_KEYLENGTH@?$FixedKeyLength@$07$03$0A@@CryptoPP@@2HB ; CryptoPP::FixedKeyLength<8,4,0>::DEFAULT_KEYLENGTH
PUBLIC	?IV_REQUIREMENT@?$FixedKeyLength@$07$03$0A@@CryptoPP@@2HB ; CryptoPP::FixedKeyLength<8,4,0>::IV_REQUIREMENT
PUBLIC	?IV_LENGTH@?$FixedKeyLength@$07$03$0A@@CryptoPP@@2HB ; CryptoPP::FixedKeyLength<8,4,0>::IV_LENGTH
PUBLIC	?KEYLENGTH@?$FixedKeyLength@$0BA@$03$0A@@CryptoPP@@2HB ; CryptoPP::FixedKeyLength<16,4,0>::KEYLENGTH
PUBLIC	?MIN_KEYLENGTH@?$FixedKeyLength@$0BA@$03$0A@@CryptoPP@@2HB ; CryptoPP::FixedKeyLength<16,4,0>::MIN_KEYLENGTH
PUBLIC	?MAX_KEYLENGTH@?$FixedKeyLength@$0BA@$03$0A@@CryptoPP@@2HB ; CryptoPP::FixedKeyLength<16,4,0>::MAX_KEYLENGTH
PUBLIC	?DEFAULT_KEYLENGTH@?$FixedKeyLength@$0BA@$03$0A@@CryptoPP@@2HB ; CryptoPP::FixedKeyLength<16,4,0>::DEFAULT_KEYLENGTH
PUBLIC	?IV_REQUIREMENT@?$FixedKeyLength@$0BA@$03$0A@@CryptoPP@@2HB ; CryptoPP::FixedKeyLength<16,4,0>::IV_REQUIREMENT
PUBLIC	?IV_LENGTH@?$FixedKeyLength@$0BA@$03$0A@@CryptoPP@@2HB ; CryptoPP::FixedKeyLength<16,4,0>::IV_LENGTH
PUBLIC	?KEYLENGTH@?$FixedKeyLength@$0BI@$03$0A@@CryptoPP@@2HB ; CryptoPP::FixedKeyLength<24,4,0>::KEYLENGTH
PUBLIC	?MIN_KEYLENGTH@?$FixedKeyLength@$0BI@$03$0A@@CryptoPP@@2HB ; CryptoPP::FixedKeyLength<24,4,0>::MIN_KEYLENGTH
PUBLIC	?MAX_KEYLENGTH@?$FixedKeyLength@$0BI@$03$0A@@CryptoPP@@2HB ; CryptoPP::FixedKeyLength<24,4,0>::MAX_KEYLENGTH
PUBLIC	?DEFAULT_KEYLENGTH@?$FixedKeyLength@$0BI@$03$0A@@CryptoPP@@2HB ; CryptoPP::FixedKeyLength<24,4,0>::DEFAULT_KEYLENGTH
PUBLIC	?IV_REQUIREMENT@?$FixedKeyLength@$0BI@$03$0A@@CryptoPP@@2HB ; CryptoPP::FixedKeyLength<24,4,0>::IV_REQUIREMENT
PUBLIC	?IV_LENGTH@?$FixedKeyLength@$0BI@$03$0A@@CryptoPP@@2HB ; CryptoPP::FixedKeyLength<24,4,0>::IV_LENGTH
PUBLIC	?g_iNpcUpDfLevel_CGATE@@3PAY02HA		; g_iNpcUpDfLevel_CGATE
PUBLIC	?g_iNpcUpDfLevel_CSTATUE@@3PAY02HA		; g_iNpcUpDfLevel_CSTATUE
PUBLIC	?g_iNpcUpMaxHP_CGATE@@3PAY02HA			; g_iNpcUpMaxHP_CGATE
PUBLIC	?g_iNpcUpMaxHP_CSTATUE@@3PAY02HA		; g_iNpcUpMaxHP_CSTATUE
PUBLIC	?g_iNpcUpRgLevel_CSTATUE@@3PAY02HA		; g_iNpcUpRgLevel_CSTATUE
PUBLIC	?g_iCsUserReSpawnArea@@3PAY03HA			; g_iCsUserReSpawnArea
PUBLIC	?g_iNpcDefense_CGATE@@3PAHA			; g_iNpcDefense_CGATE
PUBLIC	?g_iNpcDefense_CSTATUE@@3PAHA			; g_iNpcDefense_CSTATUE
PUBLIC	?g_iCastleWallStepAxisY@@3PAHA			; g_iCastleWallStepAxisY
PUBLIC	?g_iCastleItemMixLimit@@3HA			; g_iCastleItemMixLimit
PUBLIC	?m_dwSIEGE_LOG_TICK@@3KA			; m_dwSIEGE_LOG_TICK
_BSS	SEGMENT
?m_dwSIEGE_LOG_TICK@@3KA DD 01H DUP (?)			; m_dwSIEGE_LOG_TICK
_BSS	ENDS
_DATA	SEGMENT
?g_iNpcUpDfLevel_CGATE@@3PAY02HA DD 01H			; g_iNpcUpDfLevel_CGATE
	DD	02H
	DD	02dc6c0H
	DD	02H
	DD	03H
	DD	02dc6c0H
	DD	03H
	DD	04H
	DD	02dc6c0H
?g_iNpcUpDfLevel_CSTATUE@@3PAY02HA DD 01H		; g_iNpcUpDfLevel_CSTATUE
	DD	03H
	DD	02dc6c0H
	DD	02H
	DD	05H
	DD	02dc6c0H
	DD	03H
	DD	07H
	DD	02dc6c0H
?g_iNpcUpMaxHP_CGATE@@3PAY02HA DD 0c3500H		; g_iNpcUpMaxHP_CGATE
	DD	02H
	DD	0f4240H
	DD	016e360H
	DD	03H
	DD	0f4240H
	DD	02dc6c0H
	DD	04H
	DD	0f4240H
?g_iNpcUpMaxHP_CSTATUE@@3PAY02HA DD 0b71b0H		; g_iNpcUpMaxHP_CSTATUE
	DD	03H
	DD	0f4240H
	DD	013d620H
	DD	05H
	DD	0f4240H
	DD	02625a0H
	DD	07H
	DD	0f4240H
?g_iNpcUpRgLevel_CSTATUE@@3PAY02HA DD 01H		; g_iNpcUpRgLevel_CSTATUE
	DD	03H
	DD	04c4b40H
	DD	02H
	DD	05H
	DD	04c4b40H
	DD	03H
	DD	07H
	DD	04c4b40H
?g_iCsUserReSpawnArea@@3PAY03HA DD 023H			; g_iCsUserReSpawnArea
	DD	011H
	DD	090H
	DD	030H
	DD	04aH
	DD	090H
	DD	073H
	DD	09aH
	DD	023H
	DD	0bH
	DD	090H
	DD	030H
?g_iNpcDefense_CGATE@@3PAHA DD 064H			; g_iNpcDefense_CGATE
	DD	0b4H
	DD	012cH
	DD	0208H
?g_iNpcDefense_CSTATUE@@3PAHA DD 050H			; g_iNpcDefense_CSTATUE
	DD	0b4H
	DD	0154H
	DD	0226H
?g_iCastleWallStepAxisY@@3PAHA DD 071H			; g_iCastleWallStepAxisY
	DD	0a0H
	DD	0cbH
?g_iCastleItemMixLimit@@3HA DD 01H			; g_iCastleItemMixLimit
_DATA	ENDS
;	COMDAT ?IV_LENGTH@?$FixedKeyLength@$0BI@$03$0A@@CryptoPP@@2HB
CONST	SEGMENT
?IV_LENGTH@?$FixedKeyLength@$0BI@$03$0A@@CryptoPP@@2HB DD 00H ; CryptoPP::FixedKeyLength<24,4,0>::IV_LENGTH
CONST	ENDS
;	COMDAT ?IV_REQUIREMENT@?$FixedKeyLength@$0BI@$03$0A@@CryptoPP@@2HB
CONST	SEGMENT
?IV_REQUIREMENT@?$FixedKeyLength@$0BI@$03$0A@@CryptoPP@@2HB DD 04H ; CryptoPP::FixedKeyLength<24,4,0>::IV_REQUIREMENT
CONST	ENDS
;	COMDAT ?DEFAULT_KEYLENGTH@?$FixedKeyLength@$0BI@$03$0A@@CryptoPP@@2HB
CONST	SEGMENT
?DEFAULT_KEYLENGTH@?$FixedKeyLength@$0BI@$03$0A@@CryptoPP@@2HB DD 018H ; CryptoPP::FixedKeyLength<24,4,0>::DEFAULT_KEYLENGTH
CONST	ENDS
;	COMDAT ?MAX_KEYLENGTH@?$FixedKeyLength@$0BI@$03$0A@@CryptoPP@@2HB
CONST	SEGMENT
?MAX_KEYLENGTH@?$FixedKeyLength@$0BI@$03$0A@@CryptoPP@@2HB DD 018H ; CryptoPP::FixedKeyLength<24,4,0>::MAX_KEYLENGTH
CONST	ENDS
;	COMDAT ?MIN_KEYLENGTH@?$FixedKeyLength@$0BI@$03$0A@@CryptoPP@@2HB
CONST	SEGMENT
?MIN_KEYLENGTH@?$FixedKeyLength@$0BI@$03$0A@@CryptoPP@@2HB DD 018H ; CryptoPP::FixedKeyLength<24,4,0>::MIN_KEYLENGTH
CONST	ENDS
;	COMDAT ?KEYLENGTH@?$FixedKeyLength@$0BI@$03$0A@@CryptoPP@@2HB
CONST	SEGMENT
?KEYLENGTH@?$FixedKeyLength@$0BI@$03$0A@@CryptoPP@@2HB DD 018H ; CryptoPP::FixedKeyLength<24,4,0>::KEYLENGTH
CONST	ENDS
;	COMDAT ?IV_LENGTH@?$FixedKeyLength@$0BA@$03$0A@@CryptoPP@@2HB
CONST	SEGMENT
?IV_LENGTH@?$FixedKeyLength@$0BA@$03$0A@@CryptoPP@@2HB DD 00H ; CryptoPP::FixedKeyLength<16,4,0>::IV_LENGTH
CONST	ENDS
;	COMDAT ?IV_REQUIREMENT@?$FixedKeyLength@$0BA@$03$0A@@CryptoPP@@2HB
CONST	SEGMENT
?IV_REQUIREMENT@?$FixedKeyLength@$0BA@$03$0A@@CryptoPP@@2HB DD 04H ; CryptoPP::FixedKeyLength<16,4,0>::IV_REQUIREMENT
CONST	ENDS
;	COMDAT ?DEFAULT_KEYLENGTH@?$FixedKeyLength@$0BA@$03$0A@@CryptoPP@@2HB
CONST	SEGMENT
?DEFAULT_KEYLENGTH@?$FixedKeyLength@$0BA@$03$0A@@CryptoPP@@2HB DD 010H ; CryptoPP::FixedKeyLength<16,4,0>::DEFAULT_KEYLENGTH
CONST	ENDS
;	COMDAT ?MAX_KEYLENGTH@?$FixedKeyLength@$0BA@$03$0A@@CryptoPP@@2HB
CONST	SEGMENT
?MAX_KEYLENGTH@?$FixedKeyLength@$0BA@$03$0A@@CryptoPP@@2HB DD 010H ; CryptoPP::FixedKeyLength<16,4,0>::MAX_KEYLENGTH
CONST	ENDS
;	COMDAT ?MIN_KEYLENGTH@?$FixedKeyLength@$0BA@$03$0A@@CryptoPP@@2HB
CONST	SEGMENT
?MIN_KEYLENGTH@?$FixedKeyLength@$0BA@$03$0A@@CryptoPP@@2HB DD 010H ; CryptoPP::FixedKeyLength<16,4,0>::MIN_KEYLENGTH
CONST	ENDS
;	COMDAT ?KEYLENGTH@?$FixedKeyLength@$0BA@$03$0A@@CryptoPP@@2HB
CONST	SEGMENT
?KEYLENGTH@?$FixedKeyLength@$0BA@$03$0A@@CryptoPP@@2HB DD 010H ; CryptoPP::FixedKeyLength<16,4,0>::KEYLENGTH
CONST	ENDS
;	COMDAT ?IV_LENGTH@?$FixedKeyLength@$07$03$0A@@CryptoPP@@2HB
CONST	SEGMENT
?IV_LENGTH@?$FixedKeyLength@$07$03$0A@@CryptoPP@@2HB DD 00H ; CryptoPP::FixedKeyLength<8,4,0>::IV_LENGTH
CONST	ENDS
;	COMDAT ?IV_REQUIREMENT@?$FixedKeyLength@$07$03$0A@@CryptoPP@@2HB
CONST	SEGMENT
?IV_REQUIREMENT@?$FixedKeyLength@$07$03$0A@@CryptoPP@@2HB DD 04H ; CryptoPP::FixedKeyLength<8,4,0>::IV_REQUIREMENT
CONST	ENDS
;	COMDAT ?DEFAULT_KEYLENGTH@?$FixedKeyLength@$07$03$0A@@CryptoPP@@2HB
CONST	SEGMENT
?DEFAULT_KEYLENGTH@?$FixedKeyLength@$07$03$0A@@CryptoPP@@2HB DD 08H ; CryptoPP::FixedKeyLength<8,4,0>::DEFAULT_KEYLENGTH
CONST	ENDS
;	COMDAT ?MAX_KEYLENGTH@?$FixedKeyLength@$07$03$0A@@CryptoPP@@2HB
CONST	SEGMENT
?MAX_KEYLENGTH@?$FixedKeyLength@$07$03$0A@@CryptoPP@@2HB DD 08H ; CryptoPP::FixedKeyLength<8,4,0>::MAX_KEYLENGTH
CONST	ENDS
;	COMDAT ?MIN_KEYLENGTH@?$FixedKeyLength@$07$03$0A@@CryptoPP@@2HB
CONST	SEGMENT
?MIN_KEYLENGTH@?$FixedKeyLength@$07$03$0A@@CryptoPP@@2HB DD 08H ; CryptoPP::FixedKeyLength<8,4,0>::MIN_KEYLENGTH
CONST	ENDS
;	COMDAT ?KEYLENGTH@?$FixedKeyLength@$07$03$0A@@CryptoPP@@2HB
CONST	SEGMENT
?KEYLENGTH@?$FixedKeyLength@$07$03$0A@@CryptoPP@@2HB DD 08H ; CryptoPP::FixedKeyLength<8,4,0>::KEYLENGTH
CONST	ENDS
;	COMDAT ?BLOCKSIZE@?$FixedBlockSize@$07@CryptoPP@@2HB
CONST	SEGMENT
?BLOCKSIZE@?$FixedBlockSize@$07@CryptoPP@@2HB DD 08H	; CryptoPP::FixedBlockSize<8>::BLOCKSIZE
CONST	ENDS
PUBLIC	?set@PWMSG_HEAD@@QAEXPAEEH@Z			; PWMSG_HEAD::set
; Function compile flags: /Ogtp
; File c:\muserver_dev\development\mu-s8ep2-repack\gameserver\include\prodef.h
;	COMDAT ?set@PWMSG_HEAD@@QAEXPAEEH@Z
_TEXT	SEGMENT
_lpBuf$ = 8						; size = 4
_head$ = 12						; size = 1
_size$ = 16						; size = 4
?set@PWMSG_HEAD@@QAEXPAEEH@Z PROC			; PWMSG_HEAD::set, COMDAT
; _this$ = ecx

; 110  : 	{

  00000	55		 push	 ebp
  00001	8b ec		 mov	 ebp, esp

; 111  : 		lpBuf[0] = 0xC2;

  00003	8b 45 08	 mov	 eax, DWORD PTR _lpBuf$[ebp]

; 112  : 		lpBuf[1] = SET_NUMBERH(size);

  00006	8b 4d 10	 mov	 ecx, DWORD PTR _size$[ebp]
  00009	8b d1		 mov	 edx, ecx

; 113  : 		lpBuf[2] = SET_NUMBERL(size);

  0000b	88 48 02	 mov	 BYTE PTR [eax+2], cl

; 114  : 		lpBuf[3] = head;

  0000e	8a 4d 0c	 mov	 cl, BYTE PTR _head$[ebp]
  00011	c1 ea 08	 shr	 edx, 8
  00014	c6 00 c2	 mov	 BYTE PTR [eax], 194	; 000000c2H
  00017	88 50 01	 mov	 BYTE PTR [eax+1], dl
  0001a	88 48 03	 mov	 BYTE PTR [eax+3], cl

; 115  : 	};

  0001d	5d		 pop	 ebp
  0001e	c2 0c 00	 ret	 12			; 0000000cH
?set@PWMSG_HEAD@@QAEXPAEEH@Z ENDP			; PWMSG_HEAD::set
_TEXT	ENDS
PUBLIC	?set@PBMSG_HEAD2@@QAEXPAEEEE@Z			; PBMSG_HEAD2::set
; Function compile flags: /Ogtp
;	COMDAT ?set@PBMSG_HEAD2@@QAEXPAEEEE@Z
_TEXT	SEGMENT
_lpBuf$ = 8						; size = 4
_head$ = 12						; size = 1
_sub$ = 16						; size = 1
_size$ = 20						; size = 1
?set@PBMSG_HEAD2@@QAEXPAEEEE@Z PROC			; PBMSG_HEAD2::set, COMDAT
; _this$ = ecx

; 139  : 	{

  00000	55		 push	 ebp
  00001	8b ec		 mov	 ebp, esp

; 140  : 		lpBuf[0] = 0xC1;

  00003	8b 45 08	 mov	 eax, DWORD PTR _lpBuf$[ebp]

; 141  : 		lpBuf[1] = size;

  00006	8a 4d 14	 mov	 cl, BYTE PTR _size$[ebp]

; 142  : 		lpBuf[2] = head;

  00009	8a 55 0c	 mov	 dl, BYTE PTR _head$[ebp]
  0000c	88 48 01	 mov	 BYTE PTR [eax+1], cl

; 143  : 		lpBuf[3] = sub;

  0000f	8a 4d 10	 mov	 cl, BYTE PTR _sub$[ebp]
  00012	c6 00 c1	 mov	 BYTE PTR [eax], 193	; 000000c1H
  00015	88 50 02	 mov	 BYTE PTR [eax+2], dl
  00018	88 48 03	 mov	 BYTE PTR [eax+3], cl

; 144  : 	};

  0001b	5d		 pop	 ebp
  0001c	c2 10 00	 ret	 16			; 00000010H
?set@PBMSG_HEAD2@@QAEXPAEEEE@Z ENDP			; PBMSG_HEAD2::set
_TEXT	ENDS
PUBLIC	??2@YAPAXIPAX@Z					; operator new
; Function compile flags: /Ogtp
; File c:\program files (x86)\microsoft visual studio 10.0\vc\include\new.h
;	COMDAT ??2@YAPAXIPAX@Z
_TEXT	SEGMENT
___formal$ = 8						; size = 4
__Where$ = 12						; size = 4
??2@YAPAXIPAX@Z PROC					; operator new, COMDAT

; 81   :         {return (_Where); }

  00000	55		 push	 ebp
  00001	8b ec		 mov	 ebp, esp
  00003	8b 45 0c	 mov	 eax, DWORD PTR __Where$[ebp]
  00006	5d		 pop	 ebp
  00007	c3		 ret	 0
??2@YAPAXIPAX@Z ENDP					; operator new
_TEXT	ENDS
PUBLIC	??3@YAXPAX0@Z					; operator delete
; Function compile flags: /Ogtp
;	COMDAT ??3@YAXPAX0@Z
_TEXT	SEGMENT
___formal$ = 8						; size = 4
___formal$ = 12						; size = 4
??3@YAXPAX0@Z PROC					; operator delete, COMDAT

; 83   :         {return; }

  00000	c3		 ret	 0
??3@YAXPAX0@Z ENDP					; operator delete
_TEXT	ENDS
PUBLIC	??1OBJECTSTRUCT@@QAE@XZ				; OBJECTSTRUCT::~OBJECTSTRUCT
EXTRN	??1CSkillDelay@@UAE@XZ:PROC			; CSkillDelay::~CSkillDelay
EXTRN	??1TMonsterAIAgro@@UAE@XZ:PROC			; TMonsterAIAgro::~TMonsterAIAgro
EXTRN	___security_cookie:DWORD
EXTRN	___CxxFrameHandler3:PROC
EXTRN	@__security_check_cookie@4:PROC
;	COMDAT xdata$x
xdata$x	SEGMENT
__unwindtable$??1OBJECTSTRUCT@@QAE@XZ DD 0ffffffffH
	DD	FLAT:__unwindfunclet$??1OBJECTSTRUCT@@QAE@XZ$0
__ehfuncinfo$??1OBJECTSTRUCT@@QAE@XZ DD 019930522H
	DD	01H
	DD	FLAT:__unwindtable$??1OBJECTSTRUCT@@QAE@XZ
	DD	2 DUP(00H)
	DD	2 DUP(00H)
	DD	00H
	DD	01H
; Function compile flags: /Ogtp
xdata$x	ENDS
;	COMDAT ??1OBJECTSTRUCT@@QAE@XZ
_TEXT	SEGMENT
_this$ = -16						; size = 4
__$EHRec$ = -12						; size = 12
??1OBJECTSTRUCT@@QAE@XZ PROC				; OBJECTSTRUCT::~OBJECTSTRUCT, COMDAT
; _this$ = ecx
  00000	55		 push	 ebp
  00001	8b ec		 mov	 ebp, esp
  00003	6a ff		 push	 -1
  00005	68 00 00 00 00	 push	 __ehhandler$??1OBJECTSTRUCT@@QAE@XZ
  0000a	64 a1 00 00 00
	00		 mov	 eax, DWORD PTR fs:0
  00010	50		 push	 eax
  00011	51		 push	 ecx
  00012	56		 push	 esi
  00013	a1 00 00 00 00	 mov	 eax, DWORD PTR ___security_cookie
  00018	33 c5		 xor	 eax, ebp
  0001a	50		 push	 eax
  0001b	8d 45 f4	 lea	 eax, DWORD PTR __$EHRec$[ebp]
  0001e	64 a3 00 00 00
	00		 mov	 DWORD PTR fs:0, eax
  00024	8b f1		 mov	 esi, ecx
  00026	89 75 f0	 mov	 DWORD PTR _this$[ebp], esi
  00029	8d 8e ec 20 00
	00		 lea	 ecx, DWORD PTR [esi+8428]
  0002f	c7 45 fc 00 00
	00 00		 mov	 DWORD PTR __$EHRec$[ebp+8], 0
  00036	e8 00 00 00 00	 call	 ??1TMonsterAIAgro@@UAE@XZ ; TMonsterAIAgro::~TMonsterAIAgro
  0003b	8d 8e 0c 16 00
	00		 lea	 ecx, DWORD PTR [esi+5644]
  00041	c7 45 fc ff ff
	ff ff		 mov	 DWORD PTR __$EHRec$[ebp+8], -1
  00048	e8 00 00 00 00	 call	 ??1CSkillDelay@@UAE@XZ	; CSkillDelay::~CSkillDelay
  0004d	8b 4d f4	 mov	 ecx, DWORD PTR __$EHRec$[ebp]
  00050	64 89 0d 00 00
	00 00		 mov	 DWORD PTR fs:0, ecx
  00057	59		 pop	 ecx
  00058	5e		 pop	 esi
  00059	8b e5		 mov	 esp, ebp
  0005b	5d		 pop	 ebp
  0005c	c3		 ret	 0
_TEXT	ENDS
;	COMDAT text$x
text$x	SEGMENT
__unwindfunclet$??1OBJECTSTRUCT@@QAE@XZ$0:
  00000	8b 4d f0	 mov	 ecx, DWORD PTR _this$[ebp]
  00003	81 c1 0c 16 00
	00		 add	 ecx, 5644		; 0000160cH
  00009	e9 00 00 00 00	 jmp	 ??1CSkillDelay@@UAE@XZ	; CSkillDelay::~CSkillDelay
__ehhandler$??1OBJECTSTRUCT@@QAE@XZ:
  0000e	8b 54 24 08	 mov	 edx, DWORD PTR [esp+8]
  00012	8d 42 0c	 lea	 eax, DWORD PTR [edx+12]
  00015	8b 4a f4	 mov	 ecx, DWORD PTR [edx-12]
  00018	33 c8		 xor	 ecx, eax
  0001a	e8 00 00 00 00	 call	 @__security_check_cookie@4
  0001f	b8 00 00 00 00	 mov	 eax, OFFSET __ehfuncinfo$??1OBJECTSTRUCT@@QAE@XZ
  00024	e9 00 00 00 00	 jmp	 ___CxxFrameHandler3
text$x	ENDS
??1OBJECTSTRUCT@@QAE@XZ ENDP				; OBJECTSTRUCT::~OBJECTSTRUCT
EXTRN	__difftime64:PROC
EXTRN	__fltused:DWORD
; Function compile flags: /Ogtp
; File c:\program files (x86)\microsoft visual studio 10.0\vc\include\time.inl
;	COMDAT _difftime
_TEXT	SEGMENT
__Time1$ = 8						; size = 8
__Time2$ = 16						; size = 8
_difftime PROC						; COMDAT

; 83   : {

  00000	55		 push	 ebp
  00001	8b ec		 mov	 ebp, esp

; 84   :     return _difftime64(_Time1,_Time2);

  00003	8b 45 14	 mov	 eax, DWORD PTR __Time2$[ebp+4]
  00006	8b 4d 10	 mov	 ecx, DWORD PTR __Time2$[ebp]
  00009	8b 55 0c	 mov	 edx, DWORD PTR __Time1$[ebp+4]
  0000c	50		 push	 eax
  0000d	8b 45 08	 mov	 eax, DWORD PTR __Time1$[ebp]
  00010	51		 push	 ecx
  00011	52		 push	 edx
  00012	50		 push	 eax
  00013	e8 00 00 00 00	 call	 __difftime64
  00018	83 c4 10	 add	 esp, 16			; 00000010H

; 85   : }

  0001b	5d		 pop	 ebp
  0001c	c3		 ret	 0
_difftime ENDP
_TEXT	ENDS
EXTRN	__mktime64:PROC
; Function compile flags: /Ogtp
;	COMDAT _mktime
_TEXT	SEGMENT
_mktime	PROC						; COMDAT
; __Tm$ = eax

; 125  :     return _mktime64(_Tm);

  00000	50		 push	 eax
  00001	e8 00 00 00 00	 call	 __mktime64
  00006	83 c4 04	 add	 esp, 4

; 126  : }

  00009	c3		 ret	 0
_mktime	ENDP
_TEXT	ENDS
EXTRN	__time64:PROC
; Function compile flags: /Ogtp
;	COMDAT _time
_TEXT	SEGMENT
_time	PROC						; COMDAT
; __Time$ = eax

; 133  :     return _time64(_Time);

  00000	50		 push	 eax
  00001	e8 00 00 00 00	 call	 __time64
  00006	83 c4 04	 add	 esp, 4

; 134  : }

  00009	c3		 ret	 0
_time	ENDP
_TEXT	ENDS
PUBLIC	??_7_CS_SCHEDULE_DATA@@6B@			; _CS_SCHEDULE_DATA::`vftable'
PUBLIC	??1_CS_SCHEDULE_DATA@@UAE@XZ			; _CS_SCHEDULE_DATA::~_CS_SCHEDULE_DATA
PUBLIC	??_R4_CS_SCHEDULE_DATA@@6B@			; _CS_SCHEDULE_DATA::`RTTI Complete Object Locator'
PUBLIC	??_R0?AU_CS_SCHEDULE_DATA@@@8			; _CS_SCHEDULE_DATA `RTTI Type Descriptor'
PUBLIC	??_R3_CS_SCHEDULE_DATA@@8			; _CS_SCHEDULE_DATA::`RTTI Class Hierarchy Descriptor'
PUBLIC	??_R2_CS_SCHEDULE_DATA@@8			; _CS_SCHEDULE_DATA::`RTTI Base Class Array'
PUBLIC	??_R1A@?0A@EA@_CS_SCHEDULE_DATA@@8		; _CS_SCHEDULE_DATA::`RTTI Base Class Descriptor at (0,-1,0,64)'
EXTRN	??_7type_info@@6B@:QWORD			; type_info::`vftable'
EXTRN	??_E_CS_SCHEDULE_DATA@@UAEPAXI@Z:PROC		; _CS_SCHEDULE_DATA::`vector deleting destructor'
;	COMDAT ??_R1A@?0A@EA@_CS_SCHEDULE_DATA@@8
; File c:\muserver_dev\development\mu-s8ep2-repack\gameserver\source\castlesiege.h
rdata$r	SEGMENT
??_R1A@?0A@EA@_CS_SCHEDULE_DATA@@8 DD FLAT:??_R0?AU_CS_SCHEDULE_DATA@@@8 ; _CS_SCHEDULE_DATA::`RTTI Base Class Descriptor at (0,-1,0,64)'
	DD	00H
	DD	00H
	DD	0ffffffffH
	DD	00H
	DD	040H
	DD	FLAT:??_R3_CS_SCHEDULE_DATA@@8
rdata$r	ENDS
;	COMDAT ??_R2_CS_SCHEDULE_DATA@@8
rdata$r	SEGMENT
??_R2_CS_SCHEDULE_DATA@@8 DD FLAT:??_R1A@?0A@EA@_CS_SCHEDULE_DATA@@8 ; _CS_SCHEDULE_DATA::`RTTI Base Class Array'
rdata$r	ENDS
;	COMDAT ??_R3_CS_SCHEDULE_DATA@@8
rdata$r	SEGMENT
??_R3_CS_SCHEDULE_DATA@@8 DD 00H			; _CS_SCHEDULE_DATA::`RTTI Class Hierarchy Descriptor'
	DD	00H
	DD	01H
	DD	FLAT:??_R2_CS_SCHEDULE_DATA@@8
rdata$r	ENDS
;	COMDAT ??_R0?AU_CS_SCHEDULE_DATA@@@8
_DATA	SEGMENT
??_R0?AU_CS_SCHEDULE_DATA@@@8 DD FLAT:??_7type_info@@6B@ ; _CS_SCHEDULE_DATA `RTTI Type Descriptor'
	DD	00H
	DB	'.?AU_CS_SCHEDULE_DATA@@', 00H
_DATA	ENDS
;	COMDAT ??_R4_CS_SCHEDULE_DATA@@6B@
rdata$r	SEGMENT
??_R4_CS_SCHEDULE_DATA@@6B@ DD 00H			; _CS_SCHEDULE_DATA::`RTTI Complete Object Locator'
	DD	00H
	DD	00H
	DD	FLAT:??_R0?AU_CS_SCHEDULE_DATA@@@8
	DD	FLAT:??_R3_CS_SCHEDULE_DATA@@8
rdata$r	ENDS
;	COMDAT ??_7_CS_SCHEDULE_DATA@@6B@
CONST	SEGMENT
??_7_CS_SCHEDULE_DATA@@6B@ DD FLAT:??_R4_CS_SCHEDULE_DATA@@6B@ ; _CS_SCHEDULE_DATA::`vftable'
	DD	FLAT:??_E_CS_SCHEDULE_DATA@@UAEPAXI@Z
; Function compile flags: /Ogtp
CONST	ENDS
;	COMDAT ??1_CS_SCHEDULE_DATA@@UAE@XZ
_TEXT	SEGMENT
??1_CS_SCHEDULE_DATA@@UAE@XZ PROC			; _CS_SCHEDULE_DATA::~_CS_SCHEDULE_DATA, COMDAT
; _this$ = ecx

; 53   : 	virtual ~_CS_SCHEDULE_DATA(){};

  00000	c7 01 00 00 00
	00		 mov	 DWORD PTR [ecx], OFFSET ??_7_CS_SCHEDULE_DATA@@6B@
  00006	c3		 ret	 0
??1_CS_SCHEDULE_DATA@@UAE@XZ ENDP			; _CS_SCHEDULE_DATA::~_CS_SCHEDULE_DATA
_TEXT	ENDS
PUBLIC	?Clear@_CS_SCHEDULE_DATA@@QAEXXZ		; _CS_SCHEDULE_DATA::Clear
; Function compile flags: /Ogtp
;	COMDAT ?Clear@_CS_SCHEDULE_DATA@@QAEXXZ
_TEXT	SEGMENT
?Clear@_CS_SCHEDULE_DATA@@QAEXXZ PROC			; _CS_SCHEDULE_DATA::Clear, COMDAT
; _this$ = ecx

; 57   : 		this->m_bIN_USE = 0;
; 58   : 		this->m_iSTATE = -1;

  00000	83 c8 ff	 or	 eax, -1
  00003	33 d2		 xor	 edx, edx
  00005	89 51 04	 mov	 DWORD PTR [ecx+4], edx
  00008	89 41 08	 mov	 DWORD PTR [ecx+8], eax

; 59   : 		this->m_iADD_DAY = -1;

  0000b	89 41 0c	 mov	 DWORD PTR [ecx+12], eax

; 60   : 		this->m_iADD_HOUR = -1; 

  0000e	89 41 10	 mov	 DWORD PTR [ecx+16], eax

; 61   : 		this->m_iADD_MIN = -1;

  00011	89 41 14	 mov	 DWORD PTR [ecx+20], eax

; 62   : 		this->m_iGAP_SEC = 0;

  00014	89 51 18	 mov	 DWORD PTR [ecx+24], edx

; 63   : 	};

  00017	c3		 ret	 0
?Clear@_CS_SCHEDULE_DATA@@QAEXXZ ENDP			; _CS_SCHEDULE_DATA::Clear
_TEXT	ENDS
EXTRN	??3@YAXPAX@Z:PROC				; operator delete
; Function compile flags: /Ogtp
;	COMDAT ??_G_CS_SCHEDULE_DATA@@UAEPAXI@Z
_TEXT	SEGMENT
___flags$ = 8						; size = 4
??_G_CS_SCHEDULE_DATA@@UAEPAXI@Z PROC			; _CS_SCHEDULE_DATA::`scalar deleting destructor', COMDAT
; _this$ = ecx
  00000	55		 push	 ebp
  00001	8b ec		 mov	 ebp, esp
  00003	f6 45 08 01	 test	 BYTE PTR ___flags$[ebp], 1
  00007	56		 push	 esi
  00008	8b f1		 mov	 esi, ecx
  0000a	c7 06 00 00 00
	00		 mov	 DWORD PTR [esi], OFFSET ??_7_CS_SCHEDULE_DATA@@6B@
  00010	74 09		 je	 SHORT $LN6@scalar
  00012	56		 push	 esi
  00013	e8 00 00 00 00	 call	 ??3@YAXPAX@Z		; operator delete
  00018	83 c4 04	 add	 esp, 4
$LN6@scalar:
  0001b	8b c6		 mov	 eax, esi
  0001d	5e		 pop	 esi
  0001e	5d		 pop	 ebp
  0001f	c2 04 00	 ret	 4
??_G_CS_SCHEDULE_DATA@@UAEPAXI@Z ENDP			; _CS_SCHEDULE_DATA::`scalar deleting destructor'
_TEXT	ENDS
PUBLIC	??_7_CS_NPC_DATA@@6B@				; _CS_NPC_DATA::`vftable'
PUBLIC	??1_CS_NPC_DATA@@UAE@XZ				; _CS_NPC_DATA::~_CS_NPC_DATA
PUBLIC	??_R4_CS_NPC_DATA@@6B@				; _CS_NPC_DATA::`RTTI Complete Object Locator'
PUBLIC	??_R0?AU_CS_NPC_DATA@@@8			; _CS_NPC_DATA `RTTI Type Descriptor'
PUBLIC	??_R3_CS_NPC_DATA@@8				; _CS_NPC_DATA::`RTTI Class Hierarchy Descriptor'
PUBLIC	??_R2_CS_NPC_DATA@@8				; _CS_NPC_DATA::`RTTI Base Class Array'
PUBLIC	??_R1A@?0A@EA@_CS_NPC_DATA@@8			; _CS_NPC_DATA::`RTTI Base Class Descriptor at (0,-1,0,64)'
EXTRN	??_E_CS_NPC_DATA@@UAEPAXI@Z:PROC		; _CS_NPC_DATA::`vector deleting destructor'
;	COMDAT ??_R1A@?0A@EA@_CS_NPC_DATA@@8
rdata$r	SEGMENT
??_R1A@?0A@EA@_CS_NPC_DATA@@8 DD FLAT:??_R0?AU_CS_NPC_DATA@@@8 ; _CS_NPC_DATA::`RTTI Base Class Descriptor at (0,-1,0,64)'
	DD	00H
	DD	00H
	DD	0ffffffffH
	DD	00H
	DD	040H
	DD	FLAT:??_R3_CS_NPC_DATA@@8
rdata$r	ENDS
;	COMDAT ??_R2_CS_NPC_DATA@@8
rdata$r	SEGMENT
??_R2_CS_NPC_DATA@@8 DD FLAT:??_R1A@?0A@EA@_CS_NPC_DATA@@8 ; _CS_NPC_DATA::`RTTI Base Class Array'
rdata$r	ENDS
;	COMDAT ??_R3_CS_NPC_DATA@@8
rdata$r	SEGMENT
??_R3_CS_NPC_DATA@@8 DD 00H				; _CS_NPC_DATA::`RTTI Class Hierarchy Descriptor'
	DD	00H
	DD	01H
	DD	FLAT:??_R2_CS_NPC_DATA@@8
rdata$r	ENDS
;	COMDAT ??_R0?AU_CS_NPC_DATA@@@8
_DATA	SEGMENT
??_R0?AU_CS_NPC_DATA@@@8 DD FLAT:??_7type_info@@6B@	; _CS_NPC_DATA `RTTI Type Descriptor'
	DD	00H
	DB	'.?AU_CS_NPC_DATA@@', 00H
_DATA	ENDS
;	COMDAT ??_R4_CS_NPC_DATA@@6B@
rdata$r	SEGMENT
??_R4_CS_NPC_DATA@@6B@ DD 00H				; _CS_NPC_DATA::`RTTI Complete Object Locator'
	DD	00H
	DD	00H
	DD	FLAT:??_R0?AU_CS_NPC_DATA@@@8
	DD	FLAT:??_R3_CS_NPC_DATA@@8
rdata$r	ENDS
;	COMDAT ??_7_CS_NPC_DATA@@6B@
CONST	SEGMENT
??_7_CS_NPC_DATA@@6B@ DD FLAT:??_R4_CS_NPC_DATA@@6B@	; _CS_NPC_DATA::`vftable'
	DD	FLAT:??_E_CS_NPC_DATA@@UAEPAXI@Z
; Function compile flags: /Ogtp
CONST	ENDS
;	COMDAT ??1_CS_NPC_DATA@@UAE@XZ
_TEXT	SEGMENT
??1_CS_NPC_DATA@@UAE@XZ PROC				; _CS_NPC_DATA::~_CS_NPC_DATA, COMDAT
; _this$ = ecx

; 75   : 	{

  00000	c7 01 00 00 00
	00		 mov	 DWORD PTR [ecx], OFFSET ??_7_CS_NPC_DATA@@6B@

; 76   : 
; 77   : 	};

  00006	c3		 ret	 0
??1_CS_NPC_DATA@@UAE@XZ ENDP				; _CS_NPC_DATA::~_CS_NPC_DATA
_TEXT	ENDS
PUBLIC	?Clear@_CS_NPC_DATA@@QAEXXZ			; _CS_NPC_DATA::Clear
; Function compile flags: /Ogtp
;	COMDAT ?Clear@_CS_NPC_DATA@@QAEXXZ
_TEXT	SEGMENT
?Clear@_CS_NPC_DATA@@QAEXXZ PROC			; _CS_NPC_DATA::Clear, COMDAT
; _this$ = ecx

; 81   : 		m_bIN_USE = 0;
; 82   : 		m_iNPC_NUM = -1;

  00000	83 c8 ff	 or	 eax, -1
  00003	33 d2		 xor	 edx, edx
  00005	89 51 04	 mov	 DWORD PTR [ecx+4], edx
  00008	89 41 08	 mov	 DWORD PTR [ecx+8], eax

; 83   : 		m_iNPC_INDEX = -1;

  0000b	89 41 0c	 mov	 DWORD PTR [ecx+12], eax

; 84   : 		m_iNPC_LIVE = 0;

  0000e	89 51 68	 mov	 DWORD PTR [ecx+104], edx

; 85   : 		m_iNPC_AUTH = -1;

  00011	89 41 6c	 mov	 DWORD PTR [ecx+108], eax

; 86   : 		m_bNPC_DBSAVE = 0;

  00014	89 51 10	 mov	 DWORD PTR [ecx+16], edx

; 87   : 		m_iNPC_SIDE = 0;

  00017	89 51 14	 mov	 DWORD PTR [ecx+20], edx

; 88   : 		m_iNPC_OBJINDEX = -1;

  0001a	89 41 18	 mov	 DWORD PTR [ecx+24], eax

; 89   : 		m_iNPC_DF_LEVEL = 0;

  0001d	89 51 1c	 mov	 DWORD PTR [ecx+28], edx

; 90   : 		m_iNPC_RG_LEVEL = 0;

  00020	89 51 20	 mov	 DWORD PTR [ecx+32], edx

; 91   : 		m_iNPC_MAXHP = 0;

  00023	89 51 24	 mov	 DWORD PTR [ecx+36], edx

; 92   : 		m_iNPC_HP = 0;

  00026	89 51 28	 mov	 DWORD PTR [ecx+40], edx

; 93   : 		m_iNPC_SX = -1;

  00029	89 41 2c	 mov	 DWORD PTR [ecx+44], eax

; 94   : 		m_iNPC_SY = -1;

  0002c	89 41 30	 mov	 DWORD PTR [ecx+48], eax

; 95   : 		m_iNPC_DX = -1;

  0002f	89 41 34	 mov	 DWORD PTR [ecx+52], eax

; 96   : 		m_iNPC_DY = -1;

  00032	89 41 38	 mov	 DWORD PTR [ecx+56], eax

; 97   : 		m_iNPC_DIR = -1;

  00035	89 41 3c	 mov	 DWORD PTR [ecx+60], eax

; 98   : 		m_iNPC_BASE_DF_LEVEL = 0;

  00038	89 51 40	 mov	 DWORD PTR [ecx+64], edx

; 99   : 		m_iNPC_BASE_RG_LEVEL = 0;

  0003b	89 51 44	 mov	 DWORD PTR [ecx+68], edx

; 100  : 		m_iNPC_BASE_MAXHP = 0;

  0003e	89 51 48	 mov	 DWORD PTR [ecx+72], edx

; 101  : 		m_iNPC_BASE_HP = 0;

  00041	89 51 4c	 mov	 DWORD PTR [ecx+76], edx

; 102  : 		m_iNPC_BASE_SX = -1;

  00044	89 41 50	 mov	 DWORD PTR [ecx+80], eax

; 103  : 		m_iNPC_BASE_SY = -1;

  00047	89 41 54	 mov	 DWORD PTR [ecx+84], eax

; 104  : 		m_iNPC_BASE_DX = -1;

  0004a	89 41 58	 mov	 DWORD PTR [ecx+88], eax

; 105  : 		m_iNPC_BASE_DY = -1;

  0004d	89 41 5c	 mov	 DWORD PTR [ecx+92], eax

; 106  : 		m_iNPC_BASE_DIR = -1;

  00050	89 41 60	 mov	 DWORD PTR [ecx+96], eax

; 107  : 		m_iCsNpcExistVal = 0;

  00053	89 51 70	 mov	 DWORD PTR [ecx+112], edx

; 108  : 	}

  00056	c3		 ret	 0
?Clear@_CS_NPC_DATA@@QAEXXZ ENDP			; _CS_NPC_DATA::Clear
_TEXT	ENDS
PUBLIC	?SetBaseValue@_CS_NPC_DATA@@QAEXXZ		; _CS_NPC_DATA::SetBaseValue
; Function compile flags: /Ogtp
;	COMDAT ?SetBaseValue@_CS_NPC_DATA@@QAEXXZ
_TEXT	SEGMENT
?SetBaseValue@_CS_NPC_DATA@@QAEXXZ PROC			; _CS_NPC_DATA::SetBaseValue, COMDAT
; _this$ = ecx

; 112  : 		m_iNPC_DF_LEVEL = m_iNPC_BASE_DF_LEVEL;

  00000	8b 41 40	 mov	 eax, DWORD PTR [ecx+64]

; 113  : 		m_iNPC_RG_LEVEL = m_iNPC_BASE_RG_LEVEL;

  00003	8b 51 44	 mov	 edx, DWORD PTR [ecx+68]
  00006	89 41 1c	 mov	 DWORD PTR [ecx+28], eax

; 114  : 		m_iNPC_MAXHP = m_iNPC_BASE_MAXHP;

  00009	8b 41 48	 mov	 eax, DWORD PTR [ecx+72]
  0000c	89 51 20	 mov	 DWORD PTR [ecx+32], edx

; 115  : 		m_iNPC_HP = m_iNPC_BASE_HP;

  0000f	8b 51 4c	 mov	 edx, DWORD PTR [ecx+76]
  00012	89 41 24	 mov	 DWORD PTR [ecx+36], eax

; 116  : 		m_iNPC_SX = m_iNPC_BASE_SX;

  00015	8b 41 50	 mov	 eax, DWORD PTR [ecx+80]
  00018	89 51 28	 mov	 DWORD PTR [ecx+40], edx

; 117  : 		m_iNPC_SY = m_iNPC_BASE_SY;

  0001b	8b 51 54	 mov	 edx, DWORD PTR [ecx+84]
  0001e	89 41 2c	 mov	 DWORD PTR [ecx+44], eax

; 118  : 		m_iNPC_DX = m_iNPC_BASE_DX;

  00021	8b 41 58	 mov	 eax, DWORD PTR [ecx+88]
  00024	89 51 30	 mov	 DWORD PTR [ecx+48], edx

; 119  : 		m_iNPC_DY = m_iNPC_BASE_DY;

  00027	8b 51 5c	 mov	 edx, DWORD PTR [ecx+92]
  0002a	89 41 34	 mov	 DWORD PTR [ecx+52], eax

; 120  : 		m_iNPC_DIR = m_iNPC_BASE_DIR;

  0002d	8b 41 60	 mov	 eax, DWORD PTR [ecx+96]
  00030	89 51 38	 mov	 DWORD PTR [ecx+56], edx
  00033	89 41 3c	 mov	 DWORD PTR [ecx+60], eax

; 121  : 	}

  00036	c3		 ret	 0
?SetBaseValue@_CS_NPC_DATA@@QAEXXZ ENDP			; _CS_NPC_DATA::SetBaseValue
; Function compile flags: /Ogtp
_TEXT	ENDS
;	COMDAT ??_G_CS_NPC_DATA@@UAEPAXI@Z
_TEXT	SEGMENT
___flags$ = 8						; size = 4
??_G_CS_NPC_DATA@@UAEPAXI@Z PROC			; _CS_NPC_DATA::`scalar deleting destructor', COMDAT
; _this$ = ecx
  00000	55		 push	 ebp
  00001	8b ec		 mov	 ebp, esp
  00003	f6 45 08 01	 test	 BYTE PTR ___flags$[ebp], 1
  00007	56		 push	 esi
  00008	8b f1		 mov	 esi, ecx
  0000a	c7 06 00 00 00
	00		 mov	 DWORD PTR [esi], OFFSET ??_7_CS_NPC_DATA@@6B@
  00010	74 09		 je	 SHORT $LN6@scalar@2
  00012	56		 push	 esi
  00013	e8 00 00 00 00	 call	 ??3@YAXPAX@Z		; operator delete
  00018	83 c4 04	 add	 esp, 4
$LN6@scalar@2:
  0001b	8b c6		 mov	 eax, esi
  0001d	5e		 pop	 esi
  0001e	5d		 pop	 ebp
  0001f	c2 04 00	 ret	 4
??_G_CS_NPC_DATA@@UAEPAXI@Z ENDP			; _CS_NPC_DATA::`scalar deleting destructor'
_TEXT	ENDS
PUBLIC	??_7_CS_TOTAL_GUILD_DATA@@6B@			; _CS_TOTAL_GUILD_DATA::`vftable'
PUBLIC	??1_CS_TOTAL_GUILD_DATA@@UAE@XZ			; _CS_TOTAL_GUILD_DATA::~_CS_TOTAL_GUILD_DATA
PUBLIC	??_R4_CS_TOTAL_GUILD_DATA@@6B@			; _CS_TOTAL_GUILD_DATA::`RTTI Complete Object Locator'
PUBLIC	??_R0?AU_CS_TOTAL_GUILD_DATA@@@8		; _CS_TOTAL_GUILD_DATA `RTTI Type Descriptor'
PUBLIC	??_R3_CS_TOTAL_GUILD_DATA@@8			; _CS_TOTAL_GUILD_DATA::`RTTI Class Hierarchy Descriptor'
PUBLIC	??_R2_CS_TOTAL_GUILD_DATA@@8			; _CS_TOTAL_GUILD_DATA::`RTTI Base Class Array'
PUBLIC	??_R1A@?0A@EA@_CS_TOTAL_GUILD_DATA@@8		; _CS_TOTAL_GUILD_DATA::`RTTI Base Class Descriptor at (0,-1,0,64)'
EXTRN	??_E_CS_TOTAL_GUILD_DATA@@UAEPAXI@Z:PROC	; _CS_TOTAL_GUILD_DATA::`vector deleting destructor'
;	COMDAT ??_R1A@?0A@EA@_CS_TOTAL_GUILD_DATA@@8
rdata$r	SEGMENT
??_R1A@?0A@EA@_CS_TOTAL_GUILD_DATA@@8 DD FLAT:??_R0?AU_CS_TOTAL_GUILD_DATA@@@8 ; _CS_TOTAL_GUILD_DATA::`RTTI Base Class Descriptor at (0,-1,0,64)'
	DD	00H
	DD	00H
	DD	0ffffffffH
	DD	00H
	DD	040H
	DD	FLAT:??_R3_CS_TOTAL_GUILD_DATA@@8
rdata$r	ENDS
;	COMDAT ??_R2_CS_TOTAL_GUILD_DATA@@8
rdata$r	SEGMENT
??_R2_CS_TOTAL_GUILD_DATA@@8 DD FLAT:??_R1A@?0A@EA@_CS_TOTAL_GUILD_DATA@@8 ; _CS_TOTAL_GUILD_DATA::`RTTI Base Class Array'
rdata$r	ENDS
;	COMDAT ??_R3_CS_TOTAL_GUILD_DATA@@8
rdata$r	SEGMENT
??_R3_CS_TOTAL_GUILD_DATA@@8 DD 00H			; _CS_TOTAL_GUILD_DATA::`RTTI Class Hierarchy Descriptor'
	DD	00H
	DD	01H
	DD	FLAT:??_R2_CS_TOTAL_GUILD_DATA@@8
rdata$r	ENDS
;	COMDAT ??_R0?AU_CS_TOTAL_GUILD_DATA@@@8
_DATA	SEGMENT
??_R0?AU_CS_TOTAL_GUILD_DATA@@@8 DD FLAT:??_7type_info@@6B@ ; _CS_TOTAL_GUILD_DATA `RTTI Type Descriptor'
	DD	00H
	DB	'.?AU_CS_TOTAL_GUILD_DATA@@', 00H
_DATA	ENDS
;	COMDAT ??_R4_CS_TOTAL_GUILD_DATA@@6B@
rdata$r	SEGMENT
??_R4_CS_TOTAL_GUILD_DATA@@6B@ DD 00H			; _CS_TOTAL_GUILD_DATA::`RTTI Complete Object Locator'
	DD	00H
	DD	00H
	DD	FLAT:??_R0?AU_CS_TOTAL_GUILD_DATA@@@8
	DD	FLAT:??_R3_CS_TOTAL_GUILD_DATA@@8
rdata$r	ENDS
;	COMDAT ??_7_CS_TOTAL_GUILD_DATA@@6B@
CONST	SEGMENT
??_7_CS_TOTAL_GUILD_DATA@@6B@ DD FLAT:??_R4_CS_TOTAL_GUILD_DATA@@6B@ ; _CS_TOTAL_GUILD_DATA::`vftable'
	DD	FLAT:??_E_CS_TOTAL_GUILD_DATA@@UAEPAXI@Z
; Function compile flags: /Ogtp
CONST	ENDS
;	COMDAT ??1_CS_TOTAL_GUILD_DATA@@UAE@XZ
_TEXT	SEGMENT
??1_CS_TOTAL_GUILD_DATA@@UAE@XZ PROC			; _CS_TOTAL_GUILD_DATA::~_CS_TOTAL_GUILD_DATA, COMDAT
; _this$ = ecx

; 204  : 	{

  00000	c7 01 00 00 00
	00		 mov	 DWORD PTR [ecx], OFFSET ??_7_CS_TOTAL_GUILD_DATA@@6B@

; 205  : 
; 206  : 	};

  00006	c3		 ret	 0
??1_CS_TOTAL_GUILD_DATA@@UAE@XZ ENDP			; _CS_TOTAL_GUILD_DATA::~_CS_TOTAL_GUILD_DATA
_TEXT	ENDS
PUBLIC	?Clear@_CS_TOTAL_GUILD_DATA@@QAEXXZ		; _CS_TOTAL_GUILD_DATA::Clear
; Function compile flags: /Ogtp
;	COMDAT ?Clear@_CS_TOTAL_GUILD_DATA@@QAEXXZ
_TEXT	SEGMENT
?Clear@_CS_TOTAL_GUILD_DATA@@QAEXXZ PROC		; _CS_TOTAL_GUILD_DATA::Clear, COMDAT
; _this$ = ecx

; 210  : 		m_bIN_USE = 0;

  00000	33 c0		 xor	 eax, eax
  00002	89 41 04	 mov	 DWORD PTR [ecx+4], eax

; 211  : 		m_iCsGuildID = 0;

  00005	89 41 08	 mov	 DWORD PTR [ecx+8], eax

; 212  : 		m_bGuildInvolved = 0;

  00008	89 41 0c	 mov	 DWORD PTR [ecx+12], eax

; 213  : 	};

  0000b	c3		 ret	 0
?Clear@_CS_TOTAL_GUILD_DATA@@QAEXXZ ENDP		; _CS_TOTAL_GUILD_DATA::Clear
; Function compile flags: /Ogtp
_TEXT	ENDS
;	COMDAT ??_G_CS_TOTAL_GUILD_DATA@@UAEPAXI@Z
_TEXT	SEGMENT
___flags$ = 8						; size = 4
??_G_CS_TOTAL_GUILD_DATA@@UAEPAXI@Z PROC		; _CS_TOTAL_GUILD_DATA::`scalar deleting destructor', COMDAT
; _this$ = ecx
  00000	55		 push	 ebp
  00001	8b ec		 mov	 ebp, esp
  00003	f6 45 08 01	 test	 BYTE PTR ___flags$[ebp], 1
  00007	56		 push	 esi
  00008	8b f1		 mov	 esi, ecx
  0000a	c7 06 00 00 00
	00		 mov	 DWORD PTR [esi], OFFSET ??_7_CS_TOTAL_GUILD_DATA@@6B@
  00010	74 09		 je	 SHORT $LN6@scalar@3
  00012	56		 push	 esi
  00013	e8 00 00 00 00	 call	 ??3@YAXPAX@Z		; operator delete
  00018	83 c4 04	 add	 esp, 4
$LN6@scalar@3:
  0001b	8b c6		 mov	 eax, esi
  0001d	5e		 pop	 esi
  0001e	5d		 pop	 ebp
  0001f	c2 04 00	 ret	 4
??_G_CS_TOTAL_GUILD_DATA@@UAEPAXI@Z ENDP		; _CS_TOTAL_GUILD_DATA::`scalar deleting destructor'
_TEXT	ENDS
PUBLIC	??_7_CS_MINIMAP_DATA@@6B@			; _CS_MINIMAP_DATA::`vftable'
PUBLIC	??1_CS_MINIMAP_DATA@@UAE@XZ			; _CS_MINIMAP_DATA::~_CS_MINIMAP_DATA
PUBLIC	??_R4_CS_MINIMAP_DATA@@6B@			; _CS_MINIMAP_DATA::`RTTI Complete Object Locator'
PUBLIC	??_R0?AU_CS_MINIMAP_DATA@@@8			; _CS_MINIMAP_DATA `RTTI Type Descriptor'
PUBLIC	??_R3_CS_MINIMAP_DATA@@8			; _CS_MINIMAP_DATA::`RTTI Class Hierarchy Descriptor'
PUBLIC	??_R2_CS_MINIMAP_DATA@@8			; _CS_MINIMAP_DATA::`RTTI Base Class Array'
PUBLIC	??_R1A@?0A@EA@_CS_MINIMAP_DATA@@8		; _CS_MINIMAP_DATA::`RTTI Base Class Descriptor at (0,-1,0,64)'
EXTRN	??_E_CS_MINIMAP_DATA@@UAEPAXI@Z:PROC		; _CS_MINIMAP_DATA::`vector deleting destructor'
;	COMDAT ??_R1A@?0A@EA@_CS_MINIMAP_DATA@@8
rdata$r	SEGMENT
??_R1A@?0A@EA@_CS_MINIMAP_DATA@@8 DD FLAT:??_R0?AU_CS_MINIMAP_DATA@@@8 ; _CS_MINIMAP_DATA::`RTTI Base Class Descriptor at (0,-1,0,64)'
	DD	00H
	DD	00H
	DD	0ffffffffH
	DD	00H
	DD	040H
	DD	FLAT:??_R3_CS_MINIMAP_DATA@@8
rdata$r	ENDS
;	COMDAT ??_R2_CS_MINIMAP_DATA@@8
rdata$r	SEGMENT
??_R2_CS_MINIMAP_DATA@@8 DD FLAT:??_R1A@?0A@EA@_CS_MINIMAP_DATA@@8 ; _CS_MINIMAP_DATA::`RTTI Base Class Array'
rdata$r	ENDS
;	COMDAT ??_R3_CS_MINIMAP_DATA@@8
rdata$r	SEGMENT
??_R3_CS_MINIMAP_DATA@@8 DD 00H				; _CS_MINIMAP_DATA::`RTTI Class Hierarchy Descriptor'
	DD	00H
	DD	01H
	DD	FLAT:??_R2_CS_MINIMAP_DATA@@8
rdata$r	ENDS
;	COMDAT ??_R0?AU_CS_MINIMAP_DATA@@@8
_DATA	SEGMENT
??_R0?AU_CS_MINIMAP_DATA@@@8 DD FLAT:??_7type_info@@6B@	; _CS_MINIMAP_DATA `RTTI Type Descriptor'
	DD	00H
	DB	'.?AU_CS_MINIMAP_DATA@@', 00H
_DATA	ENDS
;	COMDAT ??_R4_CS_MINIMAP_DATA@@6B@
rdata$r	SEGMENT
??_R4_CS_MINIMAP_DATA@@6B@ DD 00H			; _CS_MINIMAP_DATA::`RTTI Complete Object Locator'
	DD	00H
	DD	00H
	DD	FLAT:??_R0?AU_CS_MINIMAP_DATA@@@8
	DD	FLAT:??_R3_CS_MINIMAP_DATA@@8
rdata$r	ENDS
;	COMDAT ??_7_CS_MINIMAP_DATA@@6B@
CONST	SEGMENT
??_7_CS_MINIMAP_DATA@@6B@ DD FLAT:??_R4_CS_MINIMAP_DATA@@6B@ ; _CS_MINIMAP_DATA::`vftable'
	DD	FLAT:??_E_CS_MINIMAP_DATA@@UAEPAXI@Z
; Function compile flags: /Ogtp
CONST	ENDS
;	COMDAT ??1_CS_MINIMAP_DATA@@UAE@XZ
_TEXT	SEGMENT
??1_CS_MINIMAP_DATA@@UAE@XZ PROC			; _CS_MINIMAP_DATA::~_CS_MINIMAP_DATA, COMDAT
; _this$ = ecx

; 229  : 	{

  00000	c7 01 00 00 00
	00		 mov	 DWORD PTR [ecx], OFFSET ??_7_CS_MINIMAP_DATA@@6B@

; 230  : 
; 231  : 	};

  00006	c3		 ret	 0
??1_CS_MINIMAP_DATA@@UAE@XZ ENDP			; _CS_MINIMAP_DATA::~_CS_MINIMAP_DATA
_TEXT	ENDS
PUBLIC	?Clear@_CS_MINIMAP_DATA@@QAEXXZ			; _CS_MINIMAP_DATA::Clear
EXTRN	_memset:PROC
; Function compile flags: /Ogtp
;	COMDAT ?Clear@_CS_MINIMAP_DATA@@QAEXXZ
_TEXT	SEGMENT
?Clear@_CS_MINIMAP_DATA@@QAEXXZ PROC			; _CS_MINIMAP_DATA::Clear, COMDAT
; _this$ = ecx

; 235  : 		m_iGuildMasterIndex = -1;
; 236  : 		memset(m_szGuildName,0x00,sizeof(m_szGuildName));

  00000	33 c0		 xor	 eax, eax
  00002	56		 push	 esi
  00003	8b f1		 mov	 esi, ecx
  00005	c7 46 04 ff ff
	ff ff		 mov	 DWORD PTR [esi+4], -1
  0000c	89 46 08	 mov	 DWORD PTR [esi+8], eax
  0000f	89 46 0c	 mov	 DWORD PTR [esi+12], eax
  00012	89 46 10	 mov	 DWORD PTR [esi+16], eax

; 237  : 		memset(m_stMiniMapPoint,0x00,sizeof(m_stMiniMapPoint));

  00015	68 d0 07 00 00	 push	 2000			; 000007d0H
  0001a	50		 push	 eax
  0001b	89 46 14	 mov	 DWORD PTR [esi+20], eax
  0001e	8d 46 1c	 lea	 eax, DWORD PTR [esi+28]
  00021	50		 push	 eax
  00022	e8 00 00 00 00	 call	 _memset
  00027	83 c4 0c	 add	 esp, 12			; 0000000cH

; 238  : 		m_iMiniMapPointCount = 0;

  0002a	c7 46 18 00 00
	00 00		 mov	 DWORD PTR [esi+24], 0
  00031	5e		 pop	 esi

; 239  : 	};

  00032	c3		 ret	 0
?Clear@_CS_MINIMAP_DATA@@QAEXXZ ENDP			; _CS_MINIMAP_DATA::Clear
; Function compile flags: /Ogtp
_TEXT	ENDS
;	COMDAT ??_G_CS_MINIMAP_DATA@@UAEPAXI@Z
_TEXT	SEGMENT
___flags$ = 8						; size = 4
??_G_CS_MINIMAP_DATA@@UAEPAXI@Z PROC			; _CS_MINIMAP_DATA::`scalar deleting destructor', COMDAT
; _this$ = ecx
  00000	55		 push	 ebp
  00001	8b ec		 mov	 ebp, esp
  00003	f6 45 08 01	 test	 BYTE PTR ___flags$[ebp], 1
  00007	56		 push	 esi
  00008	8b f1		 mov	 esi, ecx
  0000a	c7 06 00 00 00
	00		 mov	 DWORD PTR [esi], OFFSET ??_7_CS_MINIMAP_DATA@@6B@
  00010	74 09		 je	 SHORT $LN6@scalar@4
  00012	56		 push	 esi
  00013	e8 00 00 00 00	 call	 ??3@YAXPAX@Z		; operator delete
  00018	83 c4 04	 add	 esp, 4
$LN6@scalar@4:
  0001b	8b c6		 mov	 eax, esi
  0001d	5e		 pop	 esi
  0001e	5d		 pop	 ebp
  0001f	c2 04 00	 ret	 4
??_G_CS_MINIMAP_DATA@@UAEPAXI@Z ENDP			; _CS_MINIMAP_DATA::`scalar deleting destructor'
_TEXT	ENDS
PUBLIC	?_ARGB@@YAKEEEE@Z				; _ARGB
; Function compile flags: /Ogtp
; File c:\muserver_dev\development\mu-s8ep2-repack\gameserver\source\tnotice.h
;	COMDAT ?_ARGB@@YAKEEEE@Z
_TEXT	SEGMENT
_a$ = 8							; size = 1
_r$ = 12						; size = 1
_g$ = 16						; size = 1
_b$ = 20						; size = 1
?_ARGB@@YAKEEEE@Z PROC					; _ARGB, COMDAT

; 9    : __inline DWORD _ARGB(BYTE a, BYTE r, BYTE g, BYTE b){ return a*16777216 + b*65536 + g*256 + r;}; // in tnotice.h : line 8

  00000	55		 push	 ebp
  00001	8b ec		 mov	 ebp, esp
  00003	0f b6 45 08	 movzx	 eax, BYTE PTR _a$[ebp]
  00007	0f b6 4d 14	 movzx	 ecx, BYTE PTR _b$[ebp]
  0000b	0f b6 55 10	 movzx	 edx, BYTE PTR _g$[ebp]
  0000f	c1 e0 08	 shl	 eax, 8
  00012	03 c1		 add	 eax, ecx
  00014	0f b6 4d 0c	 movzx	 ecx, BYTE PTR _r$[ebp]
  00018	c1 e0 08	 shl	 eax, 8
  0001b	03 c2		 add	 eax, edx
  0001d	c1 e0 08	 shl	 eax, 8
  00020	03 c1		 add	 eax, ecx
  00022	5d		 pop	 ebp
  00023	c3		 ret	 0
?_ARGB@@YAKEEEE@Z ENDP					; _ARGB
_TEXT	ENDS
PUBLIC	__$ArrayPad$
EXTRN	_isalnum:PROC
EXTRN	_isalpha:PROC
EXTRN	_atof:PROC
EXTRN	_isdigit:PROC
EXTRN	_getc:PROC
EXTRN	_ungetc:PROC
EXTRN	_isspace:PROC
EXTRN	_fgetc:PROC
_BSS	SEGMENT
_CurrentToken DD 01H DUP (?)
_TokenNumber DD	01H DUP (?)
_SMDFile DD	01H DUP (?)
_TokenString DB	064H DUP (?)
; Function compile flags: /Ogtp
; File c:\muserver_dev\development\mu-s8ep2-repack\gameserver\include\readscript.h
_BSS	ENDS
;	COMDAT ?GetToken@@YA?AW4SMDToken@@XZ
_TEXT	SEGMENT
_TempString$ = -104					; size = 100
__$ArrayPad$ = -4					; size = 4
?GetToken@@YA?AW4SMDToken@@XZ PROC			; GetToken, COMDAT

; 24   : {

  00000	55		 push	 ebp
  00001	8b ec		 mov	 ebp, esp
  00003	83 ec 68	 sub	 esp, 104		; 00000068H
  00006	a1 00 00 00 00	 mov	 eax, DWORD PTR ___security_cookie
  0000b	33 c5		 xor	 eax, ebp
  0000d	89 45 fc	 mov	 DWORD PTR __$ArrayPad$[ebp], eax

; 25   : 	int ch;
; 26   : 	char* p;
; 27   : 	char TempString[100];
; 28   : 
; 29   : 	TokenString[0]=0;

  00010	c6 05 00 00 00
	00 00		 mov	 BYTE PTR _TokenString, 0
  00017	53		 push	 ebx
  00018	eb 06 8d 9b 00
	00 00 00	 npad	 8
$LL31@GetToken:

; 30   : 
; 31   : 	do
; 32   : 	{
; 33   : 		if ((ch=fgetc(SMDFile)) == -1)

  00020	a1 00 00 00 00	 mov	 eax, DWORD PTR _SMDFile
  00025	50		 push	 eax
  00026	e8 00 00 00 00	 call	 _fgetc
  0002b	8b d8		 mov	 ebx, eax
  0002d	83 c4 04	 add	 esp, 4
  00030	83 fb ff	 cmp	 ebx, -1
  00033	74 5e		 je	 SHORT $LN39@GetToken

; 36   : 		}
; 37   : 		else
; 38   : 		{	
; 39   : 			if (ch=='/')		// this is /

  00035	83 fb 2f	 cmp	 ebx, 47			; 0000002fH
  00038	75 31		 jne	 SHORT $LN30@GetToken

; 40   : 			{
; 41   : 				if((ch=fgetc(SMDFile)) == '/')

  0003a	8b 0d 00 00 00
	00		 mov	 ecx, DWORD PTR _SMDFile
  00040	51		 push	 ecx
  00041	e8 00 00 00 00	 call	 _fgetc
  00046	8b d8		 mov	 ebx, eax
  00048	83 c4 04	 add	 esp, 4
  0004b	83 fb 2f	 cmp	 ebx, 47			; 0000002fH
  0004e	75 1b		 jne	 SHORT $LN30@GetToken
$LL24@GetToken:

; 42   : 				{
; 43   : 					while ((ch != '\n') && (ch != -1))	// End of Line (EOL)

  00050	83 fb ff	 cmp	 ebx, -1
  00053	74 3e		 je	 SHORT $LN39@GetToken

; 44   : 					{
; 45   : 						ch=fgetc(SMDFile);

  00055	8b 15 00 00 00
	00		 mov	 edx, DWORD PTR _SMDFile
  0005b	52		 push	 edx
  0005c	e8 00 00 00 00	 call	 _fgetc
  00061	8b d8		 mov	 ebx, eax
  00063	83 c4 04	 add	 esp, 4
  00066	83 fb 0a	 cmp	 ebx, 10			; 0000000aH
  00069	75 e5		 jne	 SHORT $LL24@GetToken
$LN30@GetToken:

; 46   : 					}
; 47   : 	
; 48   : 					if (ch == -1)
; 49   : 					{
; 50   : 						return END;	// End of FILE
; 51   : 					}
; 52   : 				}
; 53   : 			}
; 54   : 		}
; 55   : 	}
; 56   : 	while (isspace(ch) != 0);

  0006b	53		 push	 ebx
  0006c	e8 00 00 00 00	 call	 _isspace
  00071	83 c4 04	 add	 esp, 4
  00074	85 c0		 test	 eax, eax
  00076	75 a8		 jne	 SHORT $LL31@GetToken

; 57   : 
; 58   : 	
; 59   : 	switch(ch)

  00078	8d 43 de	 lea	 eax, DWORD PTR [ebx-34]
  0007b	56		 push	 esi
  0007c	83 f8 5b	 cmp	 eax, 91			; 0000005bH
  0007f	0f 87 29 01 00
	00		 ja	 $LN6@GetToken
  00085	0f b6 80 00 00
	00 00		 movzx	 eax, BYTE PTR $LN46@GetToken[eax]
  0008c	ff 24 85 00 00
	00 00		 jmp	 DWORD PTR $LN50@GetToken[eax*4]
$LN39@GetToken:

; 34   : 		{
; 35   : 			return END;	// End of FILE (EOF)

  00093	b8 02 00 00 00	 mov	 eax, 2
  00098	5b		 pop	 ebx

; 147  : 		}
; 148  : 		break;
; 149  : 
; 150  : 	}
; 151  : 
; 152  : 	return NAME;
; 153  : }

  00099	8b 4d fc	 mov	 ecx, DWORD PTR __$ArrayPad$[ebp]
  0009c	33 cd		 xor	 ecx, ebp
  0009e	e8 00 00 00 00	 call	 @__security_check_cookie@4
  000a3	8b e5		 mov	 esp, ebp
  000a5	5d		 pop	 ebp
  000a6	c3		 ret	 0
$LN19@GetToken:

; 60   : 	{
; 61   : 
; 62   : 	case 0x23:	// #
; 63   : 		return CurrentToken=COMMAND;

  000a7	b8 23 00 00 00	 mov	 eax, 35			; 00000023H
  000ac	e9 92 01 00 00	 jmp	 $LN48@GetToken
$LN18@GetToken:

; 64   : 		break;
; 65   : 	
; 66   : 	case 0x3B:	// ;
; 67   : 		return CurrentToken=SEMICOLON;

  000b1	b8 3b 00 00 00	 mov	 eax, 59			; 0000003bH
  000b6	e9 88 01 00 00	 jmp	 $LN48@GetToken
$LN17@GetToken:

; 68   : 		break;
; 69   : 	
; 70   : 	case 0x2C:	// ,
; 71   : 
; 72   : 		return CurrentToken=COMMA;

  000bb	b8 2c 00 00 00	 mov	 eax, 44			; 0000002cH
  000c0	e9 7e 01 00 00	 jmp	 $LN48@GetToken
$LN16@GetToken:

; 73   : 		break;
; 74   : 	
; 75   : 	case 0x7B:	// {
; 76   : 		return CurrentToken = LP;

  000c5	b8 7b 00 00 00	 mov	 eax, 123		; 0000007bH
  000ca	e9 74 01 00 00	 jmp	 $LN48@GetToken
$LN15@GetToken:

; 77   : 		break;
; 78   : 
; 79   : 	case 0x7D:	// }
; 80   : 		return CurrentToken = RP;

  000cf	b8 7d 00 00 00	 mov	 eax, 125		; 0000007dH
  000d4	e9 6a 01 00 00	 jmp	 $LN48@GetToken
$LN14@GetToken:

; 81   : 		break;
; 82   : 	// Nice Index Table :)	by Deathway
; 83   : 	// Numbers Case
; 84   : 	case 0x2D:	//-
; 85   : 	case 0x2E:	//.
; 86   : 	case '0':	//0
; 87   : 	case '1':	//1
; 88   : 	case '2':	//2
; 89   : 	case '3':	//3
; 90   : 	case '4':	//4		
; 91   : 	case '5':	//5
; 92   : 	case '6':	//6
; 93   : 	case '7':	//7
; 94   : 	case '8':	//8
; 95   : 	case '9':	//9
; 96   : 		ungetc(ch, SMDFile);

  000d9	8b 0d 00 00 00
	00		 mov	 ecx, DWORD PTR _SMDFile
  000df	51		 push	 ecx
  000e0	53		 push	 ebx
  000e1	e8 00 00 00 00	 call	 _ungetc

; 97   : 		p = TempString;
; 98   : 		
; 99   : 		while (((ch=getc(SMDFile)) != -1) && ((ch == 0x2E) || (isdigit(ch) != 0) || (ch == 0x2D)))  // 2e '.'  2D '-'

  000e6	8b 15 00 00 00
	00		 mov	 edx, DWORD PTR _SMDFile
  000ec	52		 push	 edx
  000ed	8d 75 98	 lea	 esi, DWORD PTR _TempString$[ebp]
  000f0	e8 00 00 00 00	 call	 _getc
  000f5	8b d8		 mov	 ebx, eax
  000f7	83 c4 0c	 add	 esp, 12			; 0000000cH
  000fa	83 fb ff	 cmp	 ebx, -1
  000fd	74 30		 je	 SHORT $LN12@GetToken
  000ff	90		 npad	 1
$LL13@GetToken:
  00100	83 fb 2e	 cmp	 ebx, 46			; 0000002eH
  00103	74 12		 je	 SHORT $LN11@GetToken
  00105	53		 push	 ebx
  00106	e8 00 00 00 00	 call	 _isdigit
  0010b	83 c4 04	 add	 esp, 4
  0010e	85 c0		 test	 eax, eax
  00110	75 05		 jne	 SHORT $LN11@GetToken
  00112	83 fb 2d	 cmp	 ebx, 45			; 0000002dH
  00115	75 18		 jne	 SHORT $LN12@GetToken
$LN11@GetToken:
  00117	a1 00 00 00 00	 mov	 eax, DWORD PTR _SMDFile

; 100  : 		{
; 101  : 			*p = ch;	// Construct a String

  0011c	88 1e		 mov	 BYTE PTR [esi], bl
  0011e	50		 push	 eax

; 102  : 			p++;

  0011f	46		 inc	 esi
  00120	e8 00 00 00 00	 call	 _getc
  00125	8b d8		 mov	 ebx, eax
  00127	83 c4 04	 add	 esp, 4
  0012a	83 fb ff	 cmp	 ebx, -1
  0012d	75 d1		 jne	 SHORT $LL13@GetToken
$LN12@GetToken:

; 103  : 		}		
; 104  : 		*p = 0;
; 105  : 		TokenNumber = (float)atof( TempString);	// Select the first Byte as Main ID

  0012f	8d 4d 98	 lea	 ecx, DWORD PTR _TempString$[ebp]
  00132	51		 push	 ecx
  00133	c6 06 00	 mov	 BYTE PTR [esi], 0
  00136	e8 00 00 00 00	 call	 _atof
  0013b	d9 1d 00 00 00
	00		 fstp	 DWORD PTR _TokenNumber
  00141	83 c4 04	 add	 esp, 4
  00144	5e		 pop	 esi

; 106  : 		return CurrentToken  = NUMBER ;

  00145	c7 05 00 00 00
	00 01 00 00 00	 mov	 DWORD PTR _CurrentToken, 1
  0014f	b8 01 00 00 00	 mov	 eax, 1
  00154	5b		 pop	 ebx

; 147  : 		}
; 148  : 		break;
; 149  : 
; 150  : 	}
; 151  : 
; 152  : 	return NAME;
; 153  : }

  00155	8b 4d fc	 mov	 ecx, DWORD PTR __$ArrayPad$[ebp]
  00158	33 cd		 xor	 ecx, ebp
  0015a	e8 00 00 00 00	 call	 @__security_check_cookie@4
  0015f	8b e5		 mov	 esp, ebp
  00161	5d		 pop	 ebp
  00162	c3		 ret	 0
$LN10@GetToken:

; 107  : 		break;
; 108  : 
; 109  : 	case '\"':	// "	String Case
; 110  : 		p=&TokenString[0];
; 111  : 		
; 112  : 		while (((ch=getc(SMDFile)) != -1 ) && (ch != 0x22))	// nice

  00163	8b 15 00 00 00
	00		 mov	 edx, DWORD PTR _SMDFile
  00169	52		 push	 edx
  0016a	be 00 00 00 00	 mov	 esi, OFFSET _TokenString
  0016f	e8 00 00 00 00	 call	 _getc
  00174	83 c4 04	 add	 esp, 4
  00177	83 f8 ff	 cmp	 eax, -1
  0017a	74 23		 je	 SHORT $LN8@GetToken
  0017c	8d 64 24 00	 npad	 4
$LL9@GetToken:
  00180	83 f8 22	 cmp	 eax, 34			; 00000022H
  00183	0f 84 96 00 00
	00		 je	 $LN7@GetToken

; 113  : 		{
; 114  : 			*p = ch;

  00189	88 06		 mov	 BYTE PTR [esi], al
  0018b	a1 00 00 00 00	 mov	 eax, DWORD PTR _SMDFile
  00190	50		 push	 eax

; 115  : 			p++;

  00191	46		 inc	 esi
  00192	e8 00 00 00 00	 call	 _getc
  00197	83 c4 04	 add	 esp, 4
  0019a	83 f8 ff	 cmp	 eax, -1
  0019d	75 e1		 jne	 SHORT $LL9@GetToken
$LN8@GetToken:

; 116  : 		}
; 117  : 		if (ch != 0x22 )

  0019f	83 f8 22	 cmp	 eax, 34			; 00000022H
  001a2	74 7b		 je	 SHORT $LN7@GetToken

; 118  : 		{
; 119  : 			ungetc(ch, SMDFile);

  001a4	8b 0d 00 00 00
	00		 mov	 ecx, DWORD PTR _SMDFile
  001aa	51		 push	 ecx
  001ab	50		 push	 eax

; 120  : 		}
; 121  : 		*p = 0;
; 122  : 		return CurrentToken = NAME;

  001ac	eb 69		 jmp	 SHORT $LN49@GetToken
$LN6@GetToken:

; 123  : 		break;
; 124  : 
; 125  : 	default:	// Others
; 126  : 		if (isalpha(ch))

  001ae	53		 push	 ebx
  001af	e8 00 00 00 00	 call	 _isalpha
  001b4	83 c4 04	 add	 esp, 4
  001b7	85 c0		 test	 eax, eax
  001b9	0f 84 7f 00 00
	00		 je	 $LN5@GetToken

; 127  : 		{
; 128  : 			p=&TokenString[0];
; 129  : 			*p=ch;
; 130  : 			p++;
; 131  : 
; 132  : 			while ( ((ch=getc(SMDFile)) != -1) && ( (ch == 0x2E) || (ch == 0x5F) || (isalnum(ch) != 0) ) )

  001bf	8b 15 00 00 00
	00		 mov	 edx, DWORD PTR _SMDFile
  001c5	52		 push	 edx
  001c6	88 1d 00 00 00
	00		 mov	 BYTE PTR _TokenString, bl
  001cc	be 01 00 00 00	 mov	 esi, OFFSET _TokenString+1
  001d1	e8 00 00 00 00	 call	 _getc
  001d6	8b d8		 mov	 ebx, eax
  001d8	83 c4 04	 add	 esp, 4
  001db	83 fb ff	 cmp	 ebx, -1
  001de	74 2f		 je	 SHORT $LN3@GetToken
$LL4@GetToken:
  001e0	83 fb 2e	 cmp	 ebx, 46			; 0000002eH
  001e3	74 12		 je	 SHORT $LN2@GetToken
  001e5	83 fb 5f	 cmp	 ebx, 95			; 0000005fH
  001e8	74 0d		 je	 SHORT $LN2@GetToken
  001ea	53		 push	 ebx
  001eb	e8 00 00 00 00	 call	 _isalnum
  001f0	83 c4 04	 add	 esp, 4
  001f3	85 c0		 test	 eax, eax
  001f5	74 18		 je	 SHORT $LN3@GetToken
$LN2@GetToken:
  001f7	a1 00 00 00 00	 mov	 eax, DWORD PTR _SMDFile

; 133  : 			{
; 134  : 				*p=ch;

  001fc	88 1e		 mov	 BYTE PTR [esi], bl
  001fe	50		 push	 eax

; 135  : 				p++;

  001ff	46		 inc	 esi
  00200	e8 00 00 00 00	 call	 _getc
  00205	8b d8		 mov	 ebx, eax
  00207	83 c4 04	 add	 esp, 4
  0020a	83 fb ff	 cmp	 ebx, -1
  0020d	75 d1		 jne	 SHORT $LL4@GetToken
$LN3@GetToken:

; 136  : 				
; 137  : 			}
; 138  : 
; 139  : 			ungetc(ch, SMDFile);

  0020f	8b 0d 00 00 00
	00		 mov	 ecx, DWORD PTR _SMDFile
  00215	51		 push	 ecx
  00216	53		 push	 ebx
$LN49@GetToken:
  00217	e8 00 00 00 00	 call	 _ungetc
  0021c	83 c4 08	 add	 esp, 8
$LN7@GetToken:

; 140  : 			*p=0;

  0021f	c6 06 00	 mov	 BYTE PTR [esi], 0
  00222	5e		 pop	 esi

; 141  : 			CurrentToken=NAME;

  00223	c7 05 00 00 00
	00 00 00 00 00	 mov	 DWORD PTR _CurrentToken, 0

; 142  : 			return CurrentToken;

  0022d	33 c0		 xor	 eax, eax
  0022f	5b		 pop	 ebx

; 147  : 		}
; 148  : 		break;
; 149  : 
; 150  : 	}
; 151  : 
; 152  : 	return NAME;
; 153  : }

  00230	8b 4d fc	 mov	 ecx, DWORD PTR __$ArrayPad$[ebp]
  00233	33 cd		 xor	 ecx, ebp
  00235	e8 00 00 00 00	 call	 @__security_check_cookie@4
  0023a	8b e5		 mov	 esp, ebp
  0023c	5d		 pop	 ebp
  0023d	c3		 ret	 0
$LN5@GetToken:

; 143  : 		}
; 144  : 		else
; 145  : 		{
; 146  : 			return CurrentToken = SMD_ERROR; // '<'

  0023e	b8 3c 00 00 00	 mov	 eax, 60			; 0000003cH
$LN48@GetToken:

; 147  : 		}
; 148  : 		break;
; 149  : 
; 150  : 	}
; 151  : 
; 152  : 	return NAME;
; 153  : }

  00243	8b 4d fc	 mov	 ecx, DWORD PTR __$ArrayPad$[ebp]
  00246	5e		 pop	 esi
  00247	33 cd		 xor	 ecx, ebp
  00249	a3 00 00 00 00	 mov	 DWORD PTR _CurrentToken, eax
  0024e	5b		 pop	 ebx
  0024f	e8 00 00 00 00	 call	 @__security_check_cookie@4
  00254	8b e5		 mov	 esp, ebp
  00256	5d		 pop	 ebp
  00257	c3		 ret	 0
$LN50@GetToken:
  00258	00 00 00 00	 DD	 $LN10@GetToken
  0025c	00 00 00 00	 DD	 $LN19@GetToken
  00260	00 00 00 00	 DD	 $LN17@GetToken
  00264	00 00 00 00	 DD	 $LN14@GetToken
  00268	00 00 00 00	 DD	 $LN18@GetToken
  0026c	00 00 00 00	 DD	 $LN16@GetToken
  00270	00 00 00 00	 DD	 $LN15@GetToken
  00274	00 00 00 00	 DD	 $LN6@GetToken
$LN46@GetToken:
  00278	00		 DB	 0
  00279	01		 DB	 1
  0027a	07		 DB	 7
  0027b	07		 DB	 7
  0027c	07		 DB	 7
  0027d	07		 DB	 7
  0027e	07		 DB	 7
  0027f	07		 DB	 7
  00280	07		 DB	 7
  00281	07		 DB	 7
  00282	02		 DB	 2
  00283	03		 DB	 3
  00284	03		 DB	 3
  00285	07		 DB	 7
  00286	03		 DB	 3
  00287	03		 DB	 3
  00288	03		 DB	 3
  00289	03		 DB	 3
  0028a	03		 DB	 3
  0028b	03		 DB	 3
  0028c	03		 DB	 3
  0028d	03		 DB	 3
  0028e	03		 DB	 3
  0028f	03		 DB	 3
  00290	07		 DB	 7
  00291	04		 DB	 4
  00292	07		 DB	 7
  00293	07		 DB	 7
  00294	07		 DB	 7
  00295	07		 DB	 7
  00296	07		 DB	 7
  00297	07		 DB	 7
  00298	07		 DB	 7
  00299	07		 DB	 7
  0029a	07		 DB	 7
  0029b	07		 DB	 7
  0029c	07		 DB	 7
  0029d	07		 DB	 7
  0029e	07		 DB	 7
  0029f	07		 DB	 7
  002a0	07		 DB	 7
  002a1	07		 DB	 7
  002a2	07		 DB	 7
  002a3	07		 DB	 7
  002a4	07		 DB	 7
  002a5	07		 DB	 7
  002a6	07		 DB	 7
  002a7	07		 DB	 7
  002a8	07		 DB	 7
  002a9	07		 DB	 7
  002aa	07		 DB	 7
  002ab	07		 DB	 7
  002ac	07		 DB	 7
  002ad	07		 DB	 7
  002ae	07		 DB	 7
  002af	07		 DB	 7
  002b0	07		 DB	 7
  002b1	07		 DB	 7
  002b2	07		 DB	 7
  002b3	07		 DB	 7
  002b4	07		 DB	 7
  002b5	07		 DB	 7
  002b6	07		 DB	 7
  002b7	07		 DB	 7
  002b8	07		 DB	 7
  002b9	07		 DB	 7
  002ba	07		 DB	 7
  002bb	07		 DB	 7
  002bc	07		 DB	 7
  002bd	07		 DB	 7
  002be	07		 DB	 7
  002bf	07		 DB	 7
  002c0	07		 DB	 7
  002c1	07		 DB	 7
  002c2	07		 DB	 7
  002c3	07		 DB	 7
  002c4	07		 DB	 7
  002c5	07		 DB	 7
  002c6	07		 DB	 7
  002c7	07		 DB	 7
  002c8	07		 DB	 7
  002c9	07		 DB	 7
  002ca	07		 DB	 7
  002cb	07		 DB	 7
  002cc	07		 DB	 7
  002cd	07		 DB	 7
  002ce	07		 DB	 7
  002cf	07		 DB	 7
  002d0	07		 DB	 7
  002d1	05		 DB	 5
  002d2	07		 DB	 7
  002d3	06		 DB	 6
?GetToken@@YA?AW4SMDToken@@XZ ENDP			; GetToken
_TEXT	ENDS
PUBLIC	?ScheduleStateCompFunc@CCastleSiege@@SAEAAU_CS_SCHEDULE_DATA@@0@Z ; CCastleSiege::ScheduleStateCompFunc
; Function compile flags: /Ogtp
; File c:\muserver_dev\development\mu-s8ep2-repack\gameserver\source\castlesiege.cpp
;	COMDAT ?ScheduleStateCompFunc@CCastleSiege@@SAEAAU_CS_SCHEDULE_DATA@@0@Z
_TEXT	SEGMENT
_A$ = 8							; size = 4
_B$ = 12						; size = 4
?ScheduleStateCompFunc@CCastleSiege@@SAEAAU_CS_SCHEDULE_DATA@@0@Z PROC ; CCastleSiege::ScheduleStateCompFunc, COMDAT

; 94   : {

  00000	55		 push	 ebp
  00001	8b ec		 mov	 ebp, esp

; 95   : 	if(A.m_iSTATE > B.m_iSTATE)

  00003	8b 45 08	 mov	 eax, DWORD PTR _A$[ebp]
  00006	8b 48 08	 mov	 ecx, DWORD PTR [eax+8]
  00009	8b 55 0c	 mov	 edx, DWORD PTR _B$[ebp]
  0000c	3b 4a 08	 cmp	 ecx, DWORD PTR [edx+8]
  0000f	0f 9e c0	 setle	 al

; 96   : 	{
; 97   : 		return false;
; 98   : 	}
; 99   : return true;
; 100  : }

  00012	5d		 pop	 ebp
  00013	c3		 ret	 0
?ScheduleStateCompFunc@CCastleSiege@@SAEAAU_CS_SCHEDULE_DATA@@0@Z ENDP ; CCastleSiege::ScheduleStateCompFunc
_TEXT	ENDS
PUBLIC	??0_CS_SCHEDULE_DATA@@QAE@ABU0@@Z		; _CS_SCHEDULE_DATA::_CS_SCHEDULE_DATA
; Function compile flags: /Ogtp
;	COMDAT ??0_CS_SCHEDULE_DATA@@QAE@ABU0@@Z
_TEXT	SEGMENT
___that$ = 8						; size = 4
??0_CS_SCHEDULE_DATA@@QAE@ABU0@@Z PROC			; _CS_SCHEDULE_DATA::_CS_SCHEDULE_DATA, COMDAT
; _this$ = ecx
  00000	55		 push	 ebp
  00001	8b ec		 mov	 ebp, esp
  00003	8b c1		 mov	 eax, ecx
  00005	8b 4d 08	 mov	 ecx, DWORD PTR ___that$[ebp]
  00008	c7 00 00 00 00
	00		 mov	 DWORD PTR [eax], OFFSET ??_7_CS_SCHEDULE_DATA@@6B@
  0000e	8b 51 04	 mov	 edx, DWORD PTR [ecx+4]
  00011	89 50 04	 mov	 DWORD PTR [eax+4], edx
  00014	8b 51 08	 mov	 edx, DWORD PTR [ecx+8]
  00017	89 50 08	 mov	 DWORD PTR [eax+8], edx
  0001a	8b 51 0c	 mov	 edx, DWORD PTR [ecx+12]
  0001d	89 50 0c	 mov	 DWORD PTR [eax+12], edx
  00020	8b 51 10	 mov	 edx, DWORD PTR [ecx+16]
  00023	89 50 10	 mov	 DWORD PTR [eax+16], edx
  00026	8b 51 14	 mov	 edx, DWORD PTR [ecx+20]
  00029	89 50 14	 mov	 DWORD PTR [eax+20], edx
  0002c	8b 49 18	 mov	 ecx, DWORD PTR [ecx+24]
  0002f	89 48 18	 mov	 DWORD PTR [eax+24], ecx
  00032	5d		 pop	 ebp
  00033	c2 04 00	 ret	 4
??0_CS_SCHEDULE_DATA@@QAE@ABU0@@Z ENDP			; _CS_SCHEDULE_DATA::_CS_SCHEDULE_DATA
_TEXT	ENDS
PUBLIC	??0_CS_NPC_DATA@@QAE@ABU0@@Z			; _CS_NPC_DATA::_CS_NPC_DATA
; Function compile flags: /Ogtp
;	COMDAT ??0_CS_NPC_DATA@@QAE@ABU0@@Z
_TEXT	SEGMENT
___that$ = 8						; size = 4
??0_CS_NPC_DATA@@QAE@ABU0@@Z PROC			; _CS_NPC_DATA::_CS_NPC_DATA, COMDAT
; _this$ = ecx
  00000	55		 push	 ebp
  00001	8b ec		 mov	 ebp, esp
  00003	8b c1		 mov	 eax, ecx
  00005	8b 4d 08	 mov	 ecx, DWORD PTR ___that$[ebp]
  00008	c7 00 00 00 00
	00		 mov	 DWORD PTR [eax], OFFSET ??_7_CS_NPC_DATA@@6B@
  0000e	8b 51 04	 mov	 edx, DWORD PTR [ecx+4]
  00011	89 50 04	 mov	 DWORD PTR [eax+4], edx
  00014	8b 51 08	 mov	 edx, DWORD PTR [ecx+8]
  00017	89 50 08	 mov	 DWORD PTR [eax+8], edx
  0001a	8b 51 0c	 mov	 edx, DWORD PTR [ecx+12]
  0001d	89 50 0c	 mov	 DWORD PTR [eax+12], edx
  00020	8b 51 10	 mov	 edx, DWORD PTR [ecx+16]
  00023	89 50 10	 mov	 DWORD PTR [eax+16], edx
  00026	8b 51 14	 mov	 edx, DWORD PTR [ecx+20]
  00029	89 50 14	 mov	 DWORD PTR [eax+20], edx
  0002c	8b 51 18	 mov	 edx, DWORD PTR [ecx+24]
  0002f	89 50 18	 mov	 DWORD PTR [eax+24], edx
  00032	8b 51 1c	 mov	 edx, DWORD PTR [ecx+28]
  00035	89 50 1c	 mov	 DWORD PTR [eax+28], edx
  00038	8b 51 20	 mov	 edx, DWORD PTR [ecx+32]
  0003b	89 50 20	 mov	 DWORD PTR [eax+32], edx
  0003e	8b 51 24	 mov	 edx, DWORD PTR [ecx+36]
  00041	89 50 24	 mov	 DWORD PTR [eax+36], edx
  00044	8b 51 28	 mov	 edx, DWORD PTR [ecx+40]
  00047	89 50 28	 mov	 DWORD PTR [eax+40], edx
  0004a	8b 51 2c	 mov	 edx, DWORD PTR [ecx+44]
  0004d	89 50 2c	 mov	 DWORD PTR [eax+44], edx
  00050	8b 51 30	 mov	 edx, DWORD PTR [ecx+48]
  00053	89 50 30	 mov	 DWORD PTR [eax+48], edx
  00056	8b 51 34	 mov	 edx, DWORD PTR [ecx+52]
  00059	89 50 34	 mov	 DWORD PTR [eax+52], edx
  0005c	8b 51 38	 mov	 edx, DWORD PTR [ecx+56]
  0005f	89 50 38	 mov	 DWORD PTR [eax+56], edx
  00062	8b 51 3c	 mov	 edx, DWORD PTR [ecx+60]
  00065	89 50 3c	 mov	 DWORD PTR [eax+60], edx
  00068	8b 51 40	 mov	 edx, DWORD PTR [ecx+64]
  0006b	89 50 40	 mov	 DWORD PTR [eax+64], edx
  0006e	8b 51 44	 mov	 edx, DWORD PTR [ecx+68]
  00071	89 50 44	 mov	 DWORD PTR [eax+68], edx
  00074	8b 51 48	 mov	 edx, DWORD PTR [ecx+72]
  00077	89 50 48	 mov	 DWORD PTR [eax+72], edx
  0007a	8b 51 4c	 mov	 edx, DWORD PTR [ecx+76]
  0007d	89 50 4c	 mov	 DWORD PTR [eax+76], edx
  00080	8b 51 50	 mov	 edx, DWORD PTR [ecx+80]
  00083	89 50 50	 mov	 DWORD PTR [eax+80], edx
  00086	8b 51 54	 mov	 edx, DWORD PTR [ecx+84]
  00089	89 50 54	 mov	 DWORD PTR [eax+84], edx
  0008c	8b 51 58	 mov	 edx, DWORD PTR [ecx+88]
  0008f	89 50 58	 mov	 DWORD PTR [eax+88], edx
  00092	8b 51 5c	 mov	 edx, DWORD PTR [ecx+92]
  00095	89 50 5c	 mov	 DWORD PTR [eax+92], edx
  00098	8b 51 60	 mov	 edx, DWORD PTR [ecx+96]
  0009b	89 50 60	 mov	 DWORD PTR [eax+96], edx
  0009e	8b 51 64	 mov	 edx, DWORD PTR [ecx+100]
  000a1	89 50 64	 mov	 DWORD PTR [eax+100], edx
  000a4	8b 51 68	 mov	 edx, DWORD PTR [ecx+104]
  000a7	89 50 68	 mov	 DWORD PTR [eax+104], edx
  000aa	8b 51 6c	 mov	 edx, DWORD PTR [ecx+108]
  000ad	89 50 6c	 mov	 DWORD PTR [eax+108], edx
  000b0	0f b6 51 70	 movzx	 edx, BYTE PTR [ecx+112]
  000b4	88 50 70	 mov	 BYTE PTR [eax+112], dl
  000b7	0f b6 51 71	 movzx	 edx, BYTE PTR [ecx+113]
  000bb	88 50 71	 mov	 BYTE PTR [eax+113], dl
  000be	0f b6 51 72	 movzx	 edx, BYTE PTR [ecx+114]
  000c2	88 50 72	 mov	 BYTE PTR [eax+114], dl
  000c5	0f b6 51 73	 movzx	 edx, BYTE PTR [ecx+115]
  000c9	88 50 73	 mov	 BYTE PTR [eax+115], dl
  000cc	8b 49 70	 mov	 ecx, DWORD PTR [ecx+112]
  000cf	89 48 70	 mov	 DWORD PTR [eax+112], ecx
  000d2	5d		 pop	 ebp
  000d3	c2 04 00	 ret	 4
??0_CS_NPC_DATA@@QAE@ABU0@@Z ENDP			; _CS_NPC_DATA::_CS_NPC_DATA
_TEXT	ENDS
PUBLIC	?NotifySelfCsJoinSide@CCastleSiege@@QAEXH@Z	; CCastleSiege::NotifySelfCsJoinSide
EXTRN	?DataSend@@YAHHPAEK@Z:PROC			; DataSend
EXTRN	?gObjClearBuffEffect@@YA_NPAUOBJECTSTRUCT@@W4eBuffClearType@@@Z:PROC ; gObjClearBuffEffect
EXTRN	?gObjAddBuffEffect@@YA_NPAUOBJECTSTRUCT@@HEHEHH@Z:PROC ; gObjAddBuffEffect
EXTRN	?gObjRemoveBuffEffect@@YA_NPAUOBJECTSTRUCT@@H@Z:PROC ; gObjRemoveBuffEffect
EXTRN	?gObj@@3PAUOBJECTSTRUCT@@A:DWORD		; gObj
EXTRN	?gObjIsConnected@@YAHH@Z:PROC			; gObjIsConnected
; Function compile flags: /Ogtp
;	COMDAT ?NotifySelfCsJoinSide@CCastleSiege@@QAEXH@Z
_TEXT	SEGMENT
_pMsg$ = -8						; size = 5
_iIndex$ = 8						; size = 4
?NotifySelfCsJoinSide@CCastleSiege@@QAEXH@Z PROC	; CCastleSiege::NotifySelfCsJoinSide, COMDAT
; _this$ = ecx

; 885  : {

  00000	55		 push	 ebp
  00001	8b ec		 mov	 ebp, esp
  00003	83 ec 08	 sub	 esp, 8
  00006	56		 push	 esi

; 886  : 	if(gObjIsConnected(iIndex) == FALSE)

  00007	8b 75 08	 mov	 esi, DWORD PTR _iIndex$[ebp]
  0000a	57		 push	 edi
  0000b	56		 push	 esi
  0000c	8b f9		 mov	 edi, ecx
  0000e	e8 00 00 00 00	 call	 ?gObjIsConnected@@YAHH@Z ; gObjIsConnected
  00013	83 c4 04	 add	 esp, 4
  00016	85 c0		 test	 eax, eax
  00018	0f 84 2b 01 00
	00		 je	 $LN25@NotifySelf

; 887  : 		return;
; 888  : 	int iState = 0;
; 889  : 	int iViewState = 0;
; 890  : 
; 891  : 	unsigned char btCsJoinSide = gObj[iIndex].m_btCsJoinSide;

  0001e	a1 00 00 00 00	 mov	 eax, DWORD PTR ?gObj@@3PAUOBJECTSTRUCT@@A ; gObj
  00023	69 f6 40 27 00
	00		 imul	 esi, 10048		; 00002740H
  00029	03 c6		 add	 eax, esi
  0002b	53		 push	 ebx
  0002c	8a 98 5a 20 00
	00		 mov	 bl, BYTE PTR [eax+8282]

; 892  : 
; 893  : 	PMSG_ANS_NOTIFYCSJOINSIDE pMsg;
; 894  : 
; 895  : 	if(btCsJoinSide < 0)
; 896  : 	{
; 897  : 		btCsJoinSide = 0;
; 898  : 	}
; 899  : 
; 900  : 	if(btCsJoinSide > 4)

  00032	80 fb 04	 cmp	 bl, 4
  00035	76 02		 jbe	 SHORT $LN22@NotifySelf

; 901  : 	{
; 902  : 		btCsJoinSide = 0;

  00037	32 db		 xor	 bl, bl
$LN22@NotifySelf:

; 903  : 	}
; 904  : 
; 905  : 	switch(btCsJoinSide)

  00039	0f b6 cb	 movzx	 ecx, bl
  0003c	83 f9 04	 cmp	 ecx, 4
  0003f	0f 87 d0 00 00
	00		 ja	 $LN20@NotifySelf
  00045	ff 24 8d 00 00
	00 00		 jmp	 DWORD PTR $LN30@NotifySelf[ecx*4]
$LN19@NotifySelf:

; 906  : 	{
; 907  : 	case 1:
; 908  : 		iState = 1;
; 909  : 		iViewState = 0x40000;
; 910  : 
; 911  : 		if( m_iCastleSiegeState == CASTLESIEGE_STATE_STARTSIEGE ||
; 912  : 			m_iCastleSiegeState == CASTLESIEGE_STATE_ENDSIEGE )

  0004c	8b 4f 28	 mov	 ecx, DWORD PTR [edi+40]
  0004f	83 f9 07	 cmp	 ecx, 7
  00052	74 12		 je	 SHORT $LN17@NotifySelf
  00054	83 f9 08	 cmp	 ecx, 8
  00057	74 0d		 je	 SHORT $LN17@NotifySelf

; 915  : 		}
; 916  : 		else
; 917  : 		{
; 918  : 			gObjRemoveBuffEffect(&gObj[iIndex],BUFF_WATCHTOWER);

  00059	6a 0e		 push	 14			; 0000000eH
  0005b	50		 push	 eax
  0005c	e8 00 00 00 00	 call	 ?gObjRemoveBuffEffect@@YA_NPAUOBJECTSTRUCT@@H@Z ; gObjRemoveBuffEffect
  00061	e9 ac 00 00 00	 jmp	 $LN29@NotifySelf
$LN17@NotifySelf:

; 913  : 		{
; 914  : 			gObjAddBuffEffect(&gObj[iIndex],BUFF_WATCHTOWER,0,0,0,0,-10);

  00066	6a f6		 push	 -10			; fffffff6H
  00068	6a 00		 push	 0
  0006a	6a 00		 push	 0
  0006c	6a 00		 push	 0
  0006e	6a 00		 push	 0
  00070	6a 0e		 push	 14			; 0000000eH
  00072	50		 push	 eax
  00073	e8 00 00 00 00	 call	 ?gObjAddBuffEffect@@YA_NPAUOBJECTSTRUCT@@HEHEHH@Z ; gObjAddBuffEffect
  00078	83 c4 1c	 add	 esp, 28			; 0000001cH

; 919  : 		}
; 920  : 		break;

  0007b	e9 95 00 00 00	 jmp	 $LN20@NotifySelf
$LN15@NotifySelf:

; 921  : 	case 2:
; 922  : 		iState = 1;
; 923  : 		iViewState = 0x80000;
; 924  : 
; 925  : 		if( m_iCastleSiegeState == CASTLESIEGE_STATE_STARTSIEGE ||
; 926  : 			m_iCastleSiegeState == CASTLESIEGE_STATE_ENDSIEGE )

  00080	8b 4f 28	 mov	 ecx, DWORD PTR [edi+40]
  00083	83 f9 07	 cmp	 ecx, 7
  00086	74 0f		 je	 SHORT $LN13@NotifySelf
  00088	83 f9 08	 cmp	 ecx, 8
  0008b	74 0a		 je	 SHORT $LN13@NotifySelf

; 929  : 		}
; 930  : 		else
; 931  : 		{
; 932  : 			gObjRemoveBuffEffect(&gObj[iIndex],BUFF_SIEGEGUILD1);

  0008d	6a 0f		 push	 15			; 0000000fH
  0008f	50		 push	 eax
  00090	e8 00 00 00 00	 call	 ?gObjRemoveBuffEffect@@YA_NPAUOBJECTSTRUCT@@H@Z ; gObjRemoveBuffEffect
  00095	eb 7b		 jmp	 SHORT $LN29@NotifySelf
$LN13@NotifySelf:

; 927  : 		{
; 928  : 			gObjAddBuffEffect(&gObj[iIndex],BUFF_SIEGEGUILD1,0,0,0,0,-10);

  00097	6a f6		 push	 -10			; fffffff6H
  00099	6a 00		 push	 0
  0009b	6a 00		 push	 0
  0009d	6a 00		 push	 0
  0009f	6a 00		 push	 0
  000a1	6a 0f		 push	 15			; 0000000fH
  000a3	50		 push	 eax
  000a4	e8 00 00 00 00	 call	 ?gObjAddBuffEffect@@YA_NPAUOBJECTSTRUCT@@HEHEHH@Z ; gObjAddBuffEffect
  000a9	83 c4 1c	 add	 esp, 28			; 0000001cH

; 933  : 		}
; 934  : 		break;

  000ac	eb 67		 jmp	 SHORT $LN20@NotifySelf
$LN11@NotifySelf:

; 935  : 	case 3:
; 936  : 		iState = 1;
; 937  : 		iViewState = 0x400000;
; 938  : 
; 939  : 		if( m_iCastleSiegeState == CASTLESIEGE_STATE_STARTSIEGE ||
; 940  : 			m_iCastleSiegeState == CASTLESIEGE_STATE_ENDSIEGE )

  000ae	8b 4f 28	 mov	 ecx, DWORD PTR [edi+40]
  000b1	83 f9 07	 cmp	 ecx, 7
  000b4	74 0f		 je	 SHORT $LN9@NotifySelf
  000b6	83 f9 08	 cmp	 ecx, 8
  000b9	74 0a		 je	 SHORT $LN9@NotifySelf

; 943  : 		}
; 944  : 		else
; 945  : 		{
; 946  : 			gObjRemoveBuffEffect(&gObj[iIndex],BUFF_SIEGEGUILD2);

  000bb	6a 10		 push	 16			; 00000010H
  000bd	50		 push	 eax
  000be	e8 00 00 00 00	 call	 ?gObjRemoveBuffEffect@@YA_NPAUOBJECTSTRUCT@@H@Z ; gObjRemoveBuffEffect
  000c3	eb 4d		 jmp	 SHORT $LN29@NotifySelf
$LN9@NotifySelf:

; 941  : 		{
; 942  : 			gObjAddBuffEffect(&gObj[iIndex],BUFF_SIEGEGUILD2,0,0,0,0,-10);

  000c5	6a f6		 push	 -10			; fffffff6H
  000c7	6a 00		 push	 0
  000c9	6a 00		 push	 0
  000cb	6a 00		 push	 0
  000cd	6a 00		 push	 0
  000cf	6a 10		 push	 16			; 00000010H
  000d1	50		 push	 eax
  000d2	e8 00 00 00 00	 call	 ?gObjAddBuffEffect@@YA_NPAUOBJECTSTRUCT@@HEHEHH@Z ; gObjAddBuffEffect
  000d7	83 c4 1c	 add	 esp, 28			; 0000001cH

; 947  : 		}
; 948  : 		break;

  000da	eb 39		 jmp	 SHORT $LN20@NotifySelf
$LN7@NotifySelf:

; 949  : 	case 4:
; 950  : 		iState = 1;
; 951  : 		iViewState = 0x800000;
; 952  : 
; 953  : 		if( m_iCastleSiegeState == CASTLESIEGE_STATE_STARTSIEGE ||
; 954  : 			m_iCastleSiegeState == CASTLESIEGE_STATE_ENDSIEGE )

  000dc	8b 4f 28	 mov	 ecx, DWORD PTR [edi+40]
  000df	83 f9 07	 cmp	 ecx, 7
  000e2	74 0f		 je	 SHORT $LN5@NotifySelf
  000e4	83 f9 08	 cmp	 ecx, 8
  000e7	74 0a		 je	 SHORT $LN5@NotifySelf

; 957  : 		}
; 958  : 		else
; 959  : 		{
; 960  : 			gObjRemoveBuffEffect(&gObj[iIndex],BUFF_SIEGEGUILD3);

  000e9	6a 11		 push	 17			; 00000011H
  000eb	50		 push	 eax
  000ec	e8 00 00 00 00	 call	 ?gObjRemoveBuffEffect@@YA_NPAUOBJECTSTRUCT@@H@Z ; gObjRemoveBuffEffect
  000f1	eb 1f		 jmp	 SHORT $LN29@NotifySelf
$LN5@NotifySelf:

; 955  : 		{
; 956  : 			gObjAddBuffEffect(&gObj[iIndex],BUFF_SIEGEGUILD3,0,0,0,0,-10);

  000f3	6a f6		 push	 -10			; fffffff6H
  000f5	6a 00		 push	 0
  000f7	6a 00		 push	 0
  000f9	6a 00		 push	 0
  000fb	6a 00		 push	 0
  000fd	6a 11		 push	 17			; 00000011H
  000ff	50		 push	 eax
  00100	e8 00 00 00 00	 call	 ?gObjAddBuffEffect@@YA_NPAUOBJECTSTRUCT@@HEHEHH@Z ; gObjAddBuffEffect
  00105	83 c4 1c	 add	 esp, 28			; 0000001cH

; 961  : 		}
; 962  : 		break;

  00108	eb 0b		 jmp	 SHORT $LN20@NotifySelf
$LN3@NotifySelf:

; 963  : 	case 0:
; 964  : 		iState = 0;
; 965  : 		iViewState = 0xC0000;
; 966  : 		gObjClearBuffEffect(&gObj[iIndex],CLEAR_TYPE_CASTLESIEGE);

  0010a	6a 07		 push	 7
  0010c	50		 push	 eax
  0010d	e8 00 00 00 00	 call	 ?gObjClearBuffEffect@@YA_NPAUOBJECTSTRUCT@@W4eBuffClearType@@@Z ; gObjClearBuffEffect
$LN29@NotifySelf:
  00112	83 c4 08	 add	 esp, 8
$LN20@NotifySelf:

; 967  : 		break;
; 968  : 	}
; 969  : 
; 970  : 
; 971  : 	pMsg.h.set((PBYTE)&pMsg,0xB2,0x19,sizeof(pMsg));

  00115	c7 45 f8 c1 05
	b2 19		 mov	 DWORD PTR _pMsg$[ebp], 431097281 ; 19b205c1H

; 972  : 
; 973  : 	if(btCsJoinSide == 2)

  0011c	80 fb 02	 cmp	 bl, 2
  0011f	75 12		 jne	 SHORT $LN2@NotifySelf

; 974  : 	{
; 975  : 		pMsg.btCsJoinSide = gObj[iIndex].m_btCsJoinSide;

  00121	8b 0d 00 00 00
	00		 mov	 ecx, DWORD PTR ?gObj@@3PAUOBJECTSTRUCT@@A ; gObj
  00127	8a 94 0e 5a 20
	00 00		 mov	 dl, BYTE PTR [esi+ecx+8282]
  0012e	88 55 fc	 mov	 BYTE PTR _pMsg$[ebp+4], dl

; 976  : 	}
; 977  : 	else

  00131	eb 03		 jmp	 SHORT $LN1@NotifySelf
$LN2@NotifySelf:

; 978  : 	{
; 979  : 		pMsg.btCsJoinSide = btCsJoinSide;

  00133	88 5d fc	 mov	 BYTE PTR _pMsg$[ebp+4], bl
$LN1@NotifySelf:

; 980  : 	}
; 981  : 
; 982  : 	DataSend(iIndex,(PBYTE)&pMsg,pMsg.h.size);

  00136	8b 4d 08	 mov	 ecx, DWORD PTR _iIndex$[ebp]
  00139	6a 05		 push	 5
  0013b	8d 45 f8	 lea	 eax, DWORD PTR _pMsg$[ebp]
  0013e	50		 push	 eax
  0013f	51		 push	 ecx
  00140	e8 00 00 00 00	 call	 ?DataSend@@YAHHPAEK@Z	; DataSend
  00145	83 c4 0c	 add	 esp, 12			; 0000000cH
  00148	5b		 pop	 ebx
$LN25@NotifySelf:
  00149	5f		 pop	 edi
  0014a	5e		 pop	 esi

; 983  : }

  0014b	8b e5		 mov	 esp, ebp
  0014d	5d		 pop	 ebp
  0014e	c2 04 00	 ret	 4
  00151	8d 49 00	 npad	 3
$LN30@NotifySelf:
  00154	00 00 00 00	 DD	 $LN3@NotifySelf
  00158	00 00 00 00	 DD	 $LN19@NotifySelf
  0015c	00 00 00 00	 DD	 $LN15@NotifySelf
  00160	00 00 00 00	 DD	 $LN11@NotifySelf
  00164	00 00 00 00	 DD	 $LN7@NotifySelf
?NotifySelfCsJoinSide@CCastleSiege@@QAEXH@Z ENDP	; CCastleSiege::NotifySelfCsJoinSide
_TEXT	ENDS
PUBLIC	?ClearAllNPC@CCastleSiege@@QAEXXZ		; CCastleSiege::ClearAllNPC
EXTRN	?gObjDel@@YAFH@Z:PROC				; gObjDel
; Function compile flags: /Ogtp
;	COMDAT ?ClearAllNPC@CCastleSiege@@QAEXXZ
_TEXT	SEGMENT
?ClearAllNPC@CCastleSiege@@QAEXXZ PROC			; CCastleSiege::ClearAllNPC, COMDAT
; _this$ = ecx

; 986  : {

  00000	56		 push	 esi
  00001	57		 push	 edi

; 987  : 	for(int n = 0; n < OBJ_MAXMONSTER; n++)

  00002	33 ff		 xor	 edi, edi
  00004	33 f6		 xor	 esi, esi
  00006	eb 08 8d a4 24
	00 00 00 00 90	 npad	 10
$LL4@ClearAllNP:

; 988  : 	{
; 989  : 		if(gObj[n].m_btCsNpcType)

  00010	a1 00 00 00 00	 mov	 eax, DWORD PTR ?gObj@@3PAUOBJECTSTRUCT@@A ; gObj
  00015	80 bc 06 50 20
	00 00 00	 cmp	 BYTE PTR [esi+eax+8272], 0
  0001d	74 09		 je	 SHORT $LN3@ClearAllNP

; 990  : 		{
; 991  : 			gObjDel(n);

  0001f	57		 push	 edi
  00020	e8 00 00 00 00	 call	 ?gObjDel@@YAFH@Z	; gObjDel
  00025	83 c4 04	 add	 esp, 4
$LN3@ClearAllNP:

; 987  : 	for(int n = 0; n < OBJ_MAXMONSTER; n++)

  00028	81 c6 40 27 00
	00		 add	 esi, 10048		; 00002740H
  0002e	47		 inc	 edi
  0002f	81 fe 00 dd 49
	06		 cmp	 esi, 105504000		; 0649dd00H
  00035	7c d9		 jl	 SHORT $LL4@ClearAllNP

; 992  : 		}
; 993  : 	}
; 994  : }

  00037	5f		 pop	 edi
  00038	5e		 pop	 esi
  00039	c3		 ret	 0
?ClearAllNPC@CCastleSiege@@QAEXXZ ENDP			; CCastleSiege::ClearAllNPC
_TEXT	ENDS
PUBLIC	?GetNextDay@CCastleSiege@@QAEXPAU_SYSTEMTIME@@HHHH@Z ; CCastleSiege::GetNextDay
EXTRN	__imp__FileTimeToSystemTime@8:PROC
EXTRN	__imp__SystemTimeToFileTime@8:PROC
EXTRN	__allmul:PROC
; Function compile flags: /Ogtp
;	COMDAT ?GetNextDay@CCastleSiege@@QAEXPAU_SYSTEMTIME@@HHHH@Z
_TEXT	SEGMENT
_fst$ = -8						; size = 8
_st$ = 8						; size = 4
_iAfterDay$ = 12					; size = 4
_iAfterHour$ = 16					; size = 4
_iAfterMin$ = 20					; size = 4
_iAfterSec$ = 24					; size = 4
?GetNextDay@CCastleSiege@@QAEXPAU_SYSTEMTIME@@HHHH@Z PROC ; CCastleSiege::GetNextDay, COMDAT
; _this$ = ecx

; 997  : {

  00000	55		 push	 ebp
  00001	8b ec		 mov	 ebp, esp
  00003	83 ec 08	 sub	 esp, 8
  00006	56		 push	 esi

; 998  : 	__int64 i64;
; 999  : 	_FILETIME fst;
; 1000 : 	st->wDayOfWeek = 0;

  00007	8b 75 08	 mov	 esi, DWORD PTR _st$[ebp]
  0000a	33 c0		 xor	 eax, eax
  0000c	57		 push	 edi
  0000d	66 89 46 04	 mov	 WORD PTR [esi+4], ax

; 1001 : 	st->wMilliseconds = 0;
; 1002 : 	st->wSecond = 0;
; 1003 : 	SystemTimeToFileTime(st,&fst);

  00011	8d 45 f8	 lea	 eax, DWORD PTR _fst$[ebp]
  00014	50		 push	 eax
  00015	33 c9		 xor	 ecx, ecx
  00017	56		 push	 esi
  00018	89 4e 0c	 mov	 DWORD PTR [esi+12], ecx
  0001b	ff 15 00 00 00
	00		 call	 DWORD PTR __imp__SystemTimeToFileTime@8

; 1004 : 	i64 = ((__int64)fst.dwHighDateTime << 0x20) + fst.dwLowDateTime;
; 1005 : 	i64 = i64 + (__int64)iAfterDay * 864000000000 + (__int64)iAfterHour * 36000000000 +(__int64) iAfterMin * 600000000 + (__int64)iAfterSec * 10000000;

  00021	8b 45 0c	 mov	 eax, DWORD PTR _iAfterDay$[ebp]
  00024	99		 cdq
  00025	8b fa		 mov	 edi, edx
  00027	0f a4 c2 01	 shld	 edx, eax, 1
  0002b	8b c8		 mov	 ecx, eax
  0002d	03 c0		 add	 eax, eax
  0002f	03 c8		 add	 ecx, eax
  00031	13 fa		 adc	 edi, edx
  00033	8b 45 10	 mov	 eax, DWORD PTR _iAfterHour$[ebp]
  00036	0f a4 cf 03	 shld	 edi, ecx, 3
  0003a	03 c9		 add	 ecx, ecx
  0003c	99		 cdq
  0003d	03 c9		 add	 ecx, ecx
  0003f	03 c9		 add	 ecx, ecx
  00041	03 c8		 add	 ecx, eax
  00043	13 fa		 adc	 edi, edx
  00045	8b d1		 mov	 edx, ecx
  00047	8b c7		 mov	 eax, edi
  00049	0f a4 d0 04	 shld	 eax, edx, 4
  0004d	c1 e2 04	 shl	 edx, 4
  00050	2b d1		 sub	 edx, ecx
  00052	1b c7		 sbb	 eax, edi
  00054	8b ca		 mov	 ecx, edx
  00056	8b f8		 mov	 edi, eax
  00058	8b 45 14	 mov	 eax, DWORD PTR _iAfterMin$[ebp]
  0005b	0f a4 cf 02	 shld	 edi, ecx, 2
  0005f	99		 cdq
  00060	03 c9		 add	 ecx, ecx
  00062	03 c9		 add	 ecx, ecx
  00064	03 c8		 add	 ecx, eax
  00066	13 fa		 adc	 edi, edx
  00068	8b d1		 mov	 edx, ecx
  0006a	8b c7		 mov	 eax, edi
  0006c	0f a4 d0 04	 shld	 eax, edx, 4
  00070	c1 e2 04	 shl	 edx, 4
  00073	2b d1		 sub	 edx, ecx
  00075	1b c7		 sbb	 eax, edi
  00077	0f a4 d0 02	 shld	 eax, edx, 2
  0007b	03 d2		 add	 edx, edx
  0007d	8b f8		 mov	 edi, eax
  0007f	8b 45 18	 mov	 eax, DWORD PTR _iAfterSec$[ebp]
  00082	8d 0c 12	 lea	 ecx, DWORD PTR [edx+edx]
  00085	99		 cdq
  00086	6a 00		 push	 0
  00088	03 c8		 add	 ecx, eax
  0008a	68 80 96 98 00	 push	 10000000		; 00989680H
  0008f	13 fa		 adc	 edi, edx
  00091	57		 push	 edi
  00092	51		 push	 ecx
  00093	e8 00 00 00 00	 call	 __allmul
  00098	33 c9		 xor	 ecx, ecx
  0009a	03 c1		 add	 eax, ecx
  0009c	13 55 fc	 adc	 edx, DWORD PTR _fst$[ebp+4]
  0009f	33 ff		 xor	 edi, edi
  000a1	03 45 f8	 add	 eax, DWORD PTR _fst$[ebp]

; 1006 : 	fst.dwHighDateTime = i64 >> 0x20;
; 1007 : 	fst.dwLowDateTime = i64 & 0xFFFFFFFF;
; 1008 : 	FileTimeToSystemTime(&fst,st);

  000a4	56		 push	 esi
  000a5	13 d7		 adc	 edx, edi
  000a7	8b ca		 mov	 ecx, edx
  000a9	89 55 fc	 mov	 DWORD PTR _fst$[ebp+4], edx
  000ac	8d 55 f8	 lea	 edx, DWORD PTR _fst$[ebp]
  000af	52		 push	 edx
  000b0	c1 f9 1f	 sar	 ecx, 31			; 0000001fH
  000b3	89 45 f8	 mov	 DWORD PTR _fst$[ebp], eax
  000b6	ff 15 00 00 00
	00		 call	 DWORD PTR __imp__FileTimeToSystemTime@8
  000bc	5f		 pop	 edi
  000bd	5e		 pop	 esi

; 1009 : }

  000be	8b e5		 mov	 esp, ebp
  000c0	5d		 pop	 ebp
  000c1	c2 14 00	 ret	 20			; 00000014H
?GetNextDay@CCastleSiege@@QAEXPAU_SYSTEMTIME@@HHHH@Z ENDP ; CCastleSiege::GetNextDay
_TEXT	ENDS
PUBLIC	??_C@_0DP@KNAGLCDG@?$FLCastleSiege?$FN?5CCastleSiege?3?3Data@ ; `string'
PUBLIC	??_C@_0DP@OMADBIOD@?$FLCastleSiege?$FN?5CCastleSiege?3?3Data@ ; `string'
PUBLIC	??_C@_0GC@PDALCIPJ@?$FLCastleSiege?$FN?5CCastleSiege?3?3Data@ ; `string'
PUBLIC	??_C@_0DP@JKMGFFHF@?$FLCastleSiege?$FN?5CCastleSiege?3?3Data@ ; `string'
PUBLIC	??_C@_0EH@HNGJKKNJ@?$FLCastleSiege?$FN?5CCastleSiege?3?3Data@ ; `string'
PUBLIC	?DataRequest@CCastleSiege@@QAEHXZ		; CCastleSiege::DataRequest
EXTRN	?GS_GDReqCastleInitData@@YAXHH@Z:PROC		; GS_GDReqCastleInitData
EXTRN	__imp__GetTickCount@0:PROC
EXTRN	?LogAddC@@3P6AXEPADZZA:DWORD			; LogAddC
;	COMDAT ??_C@_0DP@KNAGLCDG@?$FLCastleSiege?$FN?5CCastleSiege?3?3Data@
CONST	SEGMENT
??_C@_0DP@KNAGLCDG@?$FLCastleSiege?$FN?5CCastleSiege?3?3Data@ DB '[Castle'
	DB	'Siege] CCastleSiege::DataRequest() - REQUEST DATA AGAIN', 00H ; `string'
CONST	ENDS
;	COMDAT ??_C@_0DP@OMADBIOD@?$FLCastleSiege?$FN?5CCastleSiege?3?3Data@
CONST	SEGMENT
??_C@_0DP@OMADBIOD@?$FLCastleSiege?$FN?5CCastleSiege?3?3Data@ DB '[Castle'
	DB	'Siege] CCastleSiege::DataRequest() - REQUEST DATA FIRST', 00H ; `string'
CONST	ENDS
;	COMDAT ??_C@_0GC@PDALCIPJ@?$FLCastleSiege?$FN?5CCastleSiege?3?3Data@
CONST	SEGMENT
??_C@_0GC@PDALCIPJ@?$FLCastleSiege?$FN?5CCastleSiege?3?3Data@ DB '[Castle'
	DB	'Siege] CCastleSiege::DataRequest() - m_iCastleDataLoadState !'
	DB	'= CASTLESIEGE_DATALOAD_2 (%d)', 00H		; `string'
CONST	ENDS
;	COMDAT ??_C@_0DP@JKMGFFHF@?$FLCastleSiege?$FN?5CCastleSiege?3?3Data@
CONST	SEGMENT
??_C@_0DP@JKMGFFHF@?$FLCastleSiege?$FN?5CCastleSiege?3?3Data@ DB '[Castle'
	DB	'Siege] CCastleSiege::DataRequest() - m_iMapSvrGroup < 0', 00H ; `string'
CONST	ENDS
;	COMDAT ??_C@_0EH@HNGJKKNJ@?$FLCastleSiege?$FN?5CCastleSiege?3?3Data@
CONST	SEGMENT
??_C@_0EH@HNGJKKNJ@?$FLCastleSiege?$FN?5CCastleSiege?3?3Data@ DB '[Castle'
	DB	'Siege] CCastleSiege::DataRequest() - m_bFileDataLoadOK == FAL'
	DB	'SE', 00H					; `string'
; Function compile flags: /Ogtp
CONST	ENDS
;	COMDAT ?DataRequest@CCastleSiege@@QAEHXZ
_TEXT	SEGMENT
?DataRequest@CCastleSiege@@QAEHXZ PROC			; CCastleSiege::DataRequest, COMDAT
; _this$ = ecx

; 1012 : {

  00000	56		 push	 esi
  00001	8b f1		 mov	 esi, ecx

; 1013 : 	if(m_bFileDataLoadOK == FALSE)

  00003	83 7e 0c 00	 cmp	 DWORD PTR [esi+12], 0
  00007	75 14		 jne	 SHORT $LN7@DataReques

; 1014 : 	{
; 1015 : 		LogAddC(2,"[CastleSiege] CCastleSiege::DataRequest() - m_bFileDataLoadOK == FALSE");

  00009	68 00 00 00 00	 push	 OFFSET ??_C@_0EH@HNGJKKNJ@?$FLCastleSiege?$FN?5CCastleSiege?3?3Data@
  0000e	6a 02		 push	 2
  00010	ff 15 00 00 00
	00		 call	 DWORD PTR ?LogAddC@@3P6AXEPADZZA ; LogAddC
  00016	83 c4 08	 add	 esp, 8

; 1016 : 		return false;

  00019	33 c0		 xor	 eax, eax
  0001b	5e		 pop	 esi

; 1052 : }

  0001c	c3		 ret	 0
$LN7@DataReques:

; 1017 : 	}
; 1018 : 
; 1019 : 	if(m_iMapSvrGroup < 0)

  0001d	83 7e 18 00	 cmp	 DWORD PTR [esi+24], 0
  00021	7d 14		 jge	 SHORT $LN6@DataReques

; 1020 : 	{
; 1021 : 		LogAddC(2,"[CastleSiege] CCastleSiege::DataRequest() - m_iMapSvrGroup < 0");

  00023	68 00 00 00 00	 push	 OFFSET ??_C@_0DP@JKMGFFHF@?$FLCastleSiege?$FN?5CCastleSiege?3?3Data@
  00028	6a 02		 push	 2
  0002a	ff 15 00 00 00
	00		 call	 DWORD PTR ?LogAddC@@3P6AXEPADZZA ; LogAddC
  00030	83 c4 08	 add	 esp, 8

; 1022 : 		return false;

  00033	33 c0		 xor	 eax, eax
  00035	5e		 pop	 esi

; 1052 : }

  00036	c3		 ret	 0
$LN6@DataReques:

; 1023 : 	}
; 1024 : 
; 1025 : 	if(m_iCastleDataLoadState != CASTLESIEGE_DATALOAD_2)

  00037	8b 46 1c	 mov	 eax, DWORD PTR [esi+28]
  0003a	83 f8 02	 cmp	 eax, 2
  0003d	74 15		 je	 SHORT $LN5@DataReques

; 1026 : 	{
; 1027 : 		LogAddC(2,"[CastleSiege] CCastleSiege::DataRequest() - m_iCastleDataLoadState != CASTLESIEGE_DATALOAD_2 (%d)",
; 1028 : 			m_iCastleDataLoadState);

  0003f	50		 push	 eax
  00040	68 00 00 00 00	 push	 OFFSET ??_C@_0GC@PDALCIPJ@?$FLCastleSiege?$FN?5CCastleSiege?3?3Data@
  00045	6a 02		 push	 2
  00047	ff 15 00 00 00
	00		 call	 DWORD PTR ?LogAddC@@3P6AXEPADZZA ; LogAddC
  0004d	83 c4 0c	 add	 esp, 12			; 0000000cH

; 1029 : 		return false;

  00050	33 c0		 xor	 eax, eax
  00052	5e		 pop	 esi

; 1052 : }

  00053	c3		 ret	 0
$LN5@DataReques:

; 1030 : 	}
; 1031 : 
; 1032 : 	int bDbRequestData = FALSE;
; 1033 : 
; 1034 : 	if(m_dwDbDataLoadTickCount == 0)

  00054	83 7e 20 00	 cmp	 DWORD PTR [esi+32], 0
  00058	57		 push	 edi
  00059	75 0d		 jne	 SHORT $LN4@DataReques

; 1035 : 	{
; 1036 : 		bDbRequestData = TRUE;
; 1037 : 		m_dwDbDataLoadTickCount = GetTickCount();

  0005b	ff 15 00 00 00
	00		 call	 DWORD PTR __imp__GetTickCount@0

; 1038 : 		LogAddC(3, "[CastleSiege] CCastleSiege::DataRequest() - REQUEST DATA FIRST");

  00061	68 00 00 00 00	 push	 OFFSET ??_C@_0DP@OMADBIOD@?$FLCastleSiege?$FN?5CCastleSiege?3?3Data@
  00066	eb 19		 jmp	 SHORT $LN11@DataReques
$LN4@DataReques:

; 1039 : 	}
; 1040 : 	else if(GetTickCount() - m_dwDbDataLoadTickCount > 3000)

  00068	8b 3d 00 00 00
	00		 mov	 edi, DWORD PTR __imp__GetTickCount@0
  0006e	ff d7		 call	 edi
  00070	2b 46 20	 sub	 eax, DWORD PTR [esi+32]
  00073	3d b8 0b 00 00	 cmp	 eax, 3000		; 00000bb8H
  00078	76 25		 jbe	 SHORT $LN1@DataReques

; 1041 : 	{
; 1042 : 		bDbRequestData = TRUE;
; 1043 : 		m_dwDbDataLoadTickCount = GetTickCount();

  0007a	ff d7		 call	 edi

; 1044 : 		LogAddC(3, "[CastleSiege] CCastleSiege::DataRequest() - REQUEST DATA AGAIN");

  0007c	68 00 00 00 00	 push	 OFFSET ??_C@_0DP@KNAGLCDG@?$FLCastleSiege?$FN?5CCastleSiege?3?3Data@
$LN11@DataReques:
  00081	6a 03		 push	 3
  00083	89 46 20	 mov	 DWORD PTR [esi+32], eax
  00086	ff 15 00 00 00
	00		 call	 DWORD PTR ?LogAddC@@3P6AXEPADZZA ; LogAddC

; 1045 : 	}
; 1046 : 
; 1047 : 	if(bDbRequestData != FALSE)
; 1048 : 	{
; 1049 : 		GS_GDReqCastleInitData(m_iMapSvrGroup,m_iCastleSiegeCycle);

  0008c	8b 46 24	 mov	 eax, DWORD PTR [esi+36]
  0008f	8b 4e 18	 mov	 ecx, DWORD PTR [esi+24]
  00092	83 c4 08	 add	 esp, 8
  00095	50		 push	 eax
  00096	51		 push	 ecx
  00097	e8 00 00 00 00	 call	 ?GS_GDReqCastleInitData@@YAXHH@Z ; GS_GDReqCastleInitData
  0009c	83 c4 08	 add	 esp, 8
$LN1@DataReques:

; 1050 : 	}
; 1051 : return true;

  0009f	5f		 pop	 edi
  000a0	b8 01 00 00 00	 mov	 eax, 1
  000a5	5e		 pop	 esi

; 1052 : }

  000a6	c3		 ret	 0
?DataRequest@CCastleSiege@@QAEHXZ ENDP			; CCastleSiege::DataRequest
_TEXT	ENDS
PUBLIC	__real@461c4000
PUBLIC	?CreateCsGateLever@CCastleSiege@@QAEHHH@Z	; CCastleSiege::CreateCsGateLever
EXTRN	?gObjSetMonster@@YAHHH@Z:PROC			; gObjSetMonster
EXTRN	?gObjAddMonster@@YAFH@Z:PROC			; gObjAddMonster
;	COMDAT __real@461c4000
CONST	SEGMENT
__real@461c4000 DD 0461c4000r			; 10000
; Function compile flags: /Ogtp
CONST	ENDS
;	COMDAT ?CreateCsGateLever@CCastleSiege@@QAEHHH@Z
_TEXT	SEGMENT
_iX$ = 8						; size = 4
_iY$ = 12						; size = 4
?CreateCsGateLever@CCastleSiege@@QAEHHH@Z PROC		; CCastleSiege::CreateCsGateLever, COMDAT
; _this$ = ecx

; 1142 : {

  00000	55		 push	 ebp
  00001	8b ec		 mov	 ebp, esp

; 1143 : 	if(XY_MACRO(iX) == FALSE || XY_MACRO(iY) == FALSE)

  00003	8b 45 08	 mov	 eax, DWORD PTR _iX$[ebp]
  00006	53		 push	 ebx
  00007	85 c0		 test	 eax, eax
  00009	0f 88 95 01 00
	00		 js	 $LN2@CreateCsGa
  0000f	33 c9		 xor	 ecx, ecx
  00011	3d ff 00 00 00	 cmp	 eax, 255		; 000000ffH
  00016	0f 9e c1	 setle	 cl
  00019	8b c1		 mov	 eax, ecx
  0001b	85 c0		 test	 eax, eax
  0001d	0f 84 81 01 00
	00		 je	 $LN2@CreateCsGa
  00023	8b 5d 0c	 mov	 ebx, DWORD PTR _iY$[ebp]
  00026	85 db		 test	 ebx, ebx
  00028	0f 88 76 01 00
	00		 js	 $LN2@CreateCsGa
  0002e	33 c0		 xor	 eax, eax
  00030	81 fb ff 00 00
	00		 cmp	 ebx, 255		; 000000ffH
  00036	0f 9e c0	 setle	 al
  00039	85 c0		 test	 eax, eax
  0003b	0f 84 63 01 00
	00		 je	 $LN2@CreateCsGa

; 1146 : 	}
; 1147 : 
; 1148 : 	int iNPC_INDEX = gObjAddMonster(MAP_INDEX_CASTLESIEGE);

  00041	56		 push	 esi
  00042	6a 1e		 push	 30			; 0000001eH
  00044	e8 00 00 00 00	 call	 ?gObjAddMonster@@YAFH@Z	; gObjAddMonster
  00049	0f bf f0	 movsx	 esi, ax
  0004c	83 c4 04	 add	 esp, 4

; 1149 : 
; 1150 : 	if(iNPC_INDEX >= 0)

  0004f	85 f6		 test	 esi, esi
  00051	0f 88 44 01 00
	00		 js	 $LN1@CreateCsGa

; 1151 : 	{
; 1152 : 		gObjSetMonster(iNPC_INDEX,219);

  00057	68 db 00 00 00	 push	 219			; 000000dbH
  0005c	56		 push	 esi
  0005d	e8 00 00 00 00	 call	 ?gObjSetMonster@@YAHHH@Z ; gObjSetMonster

; 1153 : 
; 1154 : 		gObj[iNPC_INDEX].m_PosNum = -1;
; 1155 : 		gObj[iNPC_INDEX].X = iX;
; 1156 : 		gObj[iNPC_INDEX].Y = iY;
; 1157 : 		gObj[iNPC_INDEX].MapNumber = MAP_INDEX_CASTLESIEGE;
; 1158 : 		gObj[iNPC_INDEX].TX = gObj[iNPC_INDEX].X;
; 1159 : 		gObj[iNPC_INDEX].TY = gObj[iNPC_INDEX].Y;
; 1160 : 		gObj[iNPC_INDEX].m_OldX = gObj[iNPC_INDEX].X;
; 1161 : 		gObj[iNPC_INDEX].m_OldY = gObj[iNPC_INDEX].Y;
; 1162 : 		gObj[iNPC_INDEX].Dir = 1;
; 1163 : 		gObj[iNPC_INDEX].StartX = gObj[iNPC_INDEX].X;
; 1164 : 		gObj[iNPC_INDEX].StartY = gObj[iNPC_INDEX].Y;
; 1165 : 		gObj[iNPC_INDEX].DieRegen = 0;
; 1166 : 		gObj[iNPC_INDEX].MaxRegenTime = 0;
; 1167 : 		gObj[iNPC_INDEX].Life = 10000.0f;

  00062	d9 05 00 00 00
	00		 fld	 DWORD PTR __real@461c4000
  00068	8b 0d 00 00 00
	00		 mov	 ecx, DWORD PTR ?gObj@@3PAUOBJECTSTRUCT@@A ; gObj
  0006e	8b c6		 mov	 eax, esi
  00070	69 c0 40 27 00
	00		 imul	 eax, 10048		; 00002740H
  00076	83 c4 08	 add	 esp, 8
  00079	83 ca ff	 or	 edx, -1
  0007c	66 89 94 08 98
	05 00 00	 mov	 WORD PTR [eax+ecx+1432], dx
  00084	8b 15 00 00 00
	00		 mov	 edx, DWORD PTR ?gObj@@3PAUOBJECTSTRUCT@@A ; gObj
  0008a	8a 4d 08	 mov	 cl, BYTE PTR _iX$[ebp]
  0008d	88 8c 10 20 01
	00 00		 mov	 BYTE PTR [eax+edx+288], cl
  00094	8b 15 00 00 00
	00		 mov	 edx, DWORD PTR ?gObj@@3PAUOBJECTSTRUCT@@A ; gObj
  0009a	88 9c 10 21 01
	00 00		 mov	 BYTE PTR [eax+edx+289], bl
  000a1	8b 0d 00 00 00
	00		 mov	 ecx, DWORD PTR ?gObj@@3PAUOBJECTSTRUCT@@A ; gObj
  000a7	c6 84 08 23 01
	00 00 1e	 mov	 BYTE PTR [eax+ecx+291], 30 ; 0000001eH
  000af	8b 0d 00 00 00
	00		 mov	 ecx, DWORD PTR ?gObj@@3PAUOBJECTSTRUCT@@A ; gObj
  000b5	0f b6 94 08 20
	01 00 00	 movzx	 edx, BYTE PTR [eax+ecx+288]
  000bd	88 94 08 52 01
	00 00		 mov	 BYTE PTR [eax+ecx+338], dl
  000c4	8b 0d 00 00 00
	00		 mov	 ecx, DWORD PTR ?gObj@@3PAUOBJECTSTRUCT@@A ; gObj
  000ca	0f b6 94 08 21
	01 00 00	 movzx	 edx, BYTE PTR [eax+ecx+289]
  000d2	88 94 08 53 01
	00 00		 mov	 BYTE PTR [eax+ecx+339], dl
  000d9	8b 0d 00 00 00
	00		 mov	 ecx, DWORD PTR ?gObj@@3PAUOBJECTSTRUCT@@A ; gObj
  000df	0f b6 94 08 20
	01 00 00	 movzx	 edx, BYTE PTR [eax+ecx+288]
  000e7	88 94 08 50 01
	00 00		 mov	 BYTE PTR [eax+ecx+336], dl
  000ee	8b 0d 00 00 00
	00		 mov	 ecx, DWORD PTR ?gObj@@3PAUOBJECTSTRUCT@@A ; gObj
  000f4	0f b6 94 08 21
	01 00 00	 movzx	 edx, BYTE PTR [eax+ecx+289]
  000fc	88 94 08 51 01
	00 00		 mov	 BYTE PTR [eax+ecx+337], dl
  00103	8b 0d 00 00 00
	00		 mov	 ecx, DWORD PTR ?gObj@@3PAUOBJECTSTRUCT@@A ; gObj
  00109	c6 84 08 22 01
	00 00 01	 mov	 BYTE PTR [eax+ecx+290], 1
  00111	8b 0d 00 00 00
	00		 mov	 ecx, DWORD PTR ?gObj@@3PAUOBJECTSTRUCT@@A ; gObj
  00117	0f b6 94 08 20
	01 00 00	 movzx	 edx, BYTE PTR [eax+ecx+288]
  0011f	88 94 08 4e 01
	00 00		 mov	 BYTE PTR [eax+ecx+334], dl
  00126	8b 0d 00 00 00
	00		 mov	 ecx, DWORD PTR ?gObj@@3PAUOBJECTSTRUCT@@A ; gObj
  0012c	0f b6 94 08 21
	01 00 00	 movzx	 edx, BYTE PTR [eax+ecx+289]
  00134	88 94 08 4f 01
	00 00		 mov	 BYTE PTR [eax+ecx+335], dl
  0013b	8b 0d 00 00 00
	00		 mov	 ecx, DWORD PTR ?gObj@@3PAUOBJECTSTRUCT@@A ; gObj
  00141	c6 84 08 8a 05
	00 00 00	 mov	 BYTE PTR [eax+ecx+1418], 0
  00149	8b 15 00 00 00
	00		 mov	 edx, DWORD PTR ?gObj@@3PAUOBJECTSTRUCT@@A ; gObj
  0014f	c7 84 10 94 05
	00 00 00 00 00
	00		 mov	 DWORD PTR [eax+edx+1428], 0
  0015a	8b 0d 00 00 00
	00		 mov	 ecx, DWORD PTR ?gObj@@3PAUOBJECTSTRUCT@@A ; gObj
  00160	d9 94 08 d8 00
	00 00		 fst	 DWORD PTR [eax+ecx+216]

; 1168 : 		gObj[iNPC_INDEX].MaxLife = 10000.0f;

  00167	8b 15 00 00 00
	00		 mov	 edx, DWORD PTR ?gObj@@3PAUOBJECTSTRUCT@@A ; gObj
  0016d	d9 9c 10 dc 00
	00 00		 fstp	 DWORD PTR [eax+edx+220]

; 1169 : 		gObj[iNPC_INDEX].m_btCsNpcType = 2;

  00174	8b 0d 00 00 00
	00		 mov	 ecx, DWORD PTR ?gObj@@3PAUOBJECTSTRUCT@@A ; gObj
  0017a	c6 84 08 50 20
	00 00 02	 mov	 BYTE PTR [eax+ecx+8272], 2

; 1170 : 		gObj[iNPC_INDEX].m_iCsGateLeverLinkIndex = -1;

  00182	8b 15 00 00 00
	00		 mov	 edx, DWORD PTR ?gObj@@3PAUOBJECTSTRUCT@@A ; gObj
  00188	c7 84 10 54 20
	00 00 ff ff ff
	ff		 mov	 DWORD PTR [eax+edx+8276], -1

; 1171 : 	return iNPC_INDEX;

  00193	8b c6		 mov	 eax, esi
  00195	5e		 pop	 esi
  00196	5b		 pop	 ebx

; 1174 : }

  00197	5d		 pop	 ebp
  00198	c2 08 00	 ret	 8
$LN1@CreateCsGa:
  0019b	5e		 pop	 esi

; 1172 : 	}	
; 1173 : return -1;

  0019c	83 c8 ff	 or	 eax, -1
  0019f	5b		 pop	 ebx

; 1174 : }

  001a0	5d		 pop	 ebp
  001a1	c2 08 00	 ret	 8
$LN2@CreateCsGa:

; 1144 : 	{
; 1145 : 		return -1;

  001a4	83 c8 ff	 or	 eax, -1
  001a7	5b		 pop	 ebx

; 1174 : }

  001a8	5d		 pop	 ebp
  001a9	c2 08 00	 ret	 8
?CreateCsGateLever@CCastleSiege@@QAEHHH@Z ENDP		; CCastleSiege::CreateCsGateLever
_TEXT	ENDS
PUBLIC	?CheckLeverAlive@CCastleSiege@@QAEHH@Z		; CCastleSiege::CheckLeverAlive
; Function compile flags: /Ogtp
;	COMDAT ?CheckLeverAlive@CCastleSiege@@QAEHH@Z
_TEXT	SEGMENT
_iLeverIndex$ = 8					; size = 4
?CheckLeverAlive@CCastleSiege@@QAEHH@Z PROC		; CCastleSiege::CheckLeverAlive, COMDAT
; _this$ = ecx

; 1177 : {

  00000	55		 push	 ebp
  00001	8b ec		 mov	 ebp, esp
  00003	56		 push	 esi

; 1178 : 	if(gObjIsConnected(iLeverIndex) == FALSE || gObj[iLeverIndex].Class != 219 )

  00004	8b 75 08	 mov	 esi, DWORD PTR _iLeverIndex$[ebp]
  00007	56		 push	 esi
  00008	e8 00 00 00 00	 call	 ?gObjIsConnected@@YAHH@Z ; gObjIsConnected
  0000d	83 c4 04	 add	 esp, 4
  00010	85 c0		 test	 eax, eax
  00012	74 25		 je	 SHORT $LN1@CheckLever
  00014	8b 0d 00 00 00
	00		 mov	 ecx, DWORD PTR ?gObj@@3PAUOBJECTSTRUCT@@A ; gObj
  0001a	69 f6 40 27 00
	00		 imul	 esi, 10048		; 00002740H
  00020	b8 db 00 00 00	 mov	 eax, 219		; 000000dbH
  00025	66 39 84 0e 90
	00 00 00	 cmp	 WORD PTR [esi+ecx+144], ax
  0002d	75 0a		 jne	 SHORT $LN1@CheckLever

; 1181 : 	}
; 1182 : 	return true;

  0002f	b8 01 00 00 00	 mov	 eax, 1
  00034	5e		 pop	 esi

; 1183 : }

  00035	5d		 pop	 ebp
  00036	c2 04 00	 ret	 4
$LN1@CheckLever:

; 1179 : 	{
; 1180 : 		return false;

  00039	33 c0		 xor	 eax, eax
  0003b	5e		 pop	 esi

; 1183 : }

  0003c	5d		 pop	 ebp
  0003d	c2 04 00	 ret	 4
?CheckLeverAlive@CCastleSiege@@QAEHH@Z ENDP		; CCastleSiege::CheckLeverAlive
_TEXT	ENDS
PUBLIC	??4_CS_SCHEDULE_DATA@@QAEAAU0@ABU0@@Z		; _CS_SCHEDULE_DATA::operator=
; Function compile flags: /Ogtp
;	COMDAT ??4_CS_SCHEDULE_DATA@@QAEAAU0@ABU0@@Z
_TEXT	SEGMENT
___that$ = 8						; size = 4
??4_CS_SCHEDULE_DATA@@QAEAAU0@ABU0@@Z PROC		; _CS_SCHEDULE_DATA::operator=, COMDAT
; _this$ = ecx
  00000	55		 push	 ebp
  00001	8b ec		 mov	 ebp, esp
  00003	8b c1		 mov	 eax, ecx
  00005	8b 4d 08	 mov	 ecx, DWORD PTR ___that$[ebp]
  00008	8b 51 04	 mov	 edx, DWORD PTR [ecx+4]
  0000b	89 50 04	 mov	 DWORD PTR [eax+4], edx
  0000e	8b 51 08	 mov	 edx, DWORD PTR [ecx+8]
  00011	89 50 08	 mov	 DWORD PTR [eax+8], edx
  00014	8b 51 0c	 mov	 edx, DWORD PTR [ecx+12]
  00017	89 50 0c	 mov	 DWORD PTR [eax+12], edx
  0001a	8b 51 10	 mov	 edx, DWORD PTR [ecx+16]
  0001d	89 50 10	 mov	 DWORD PTR [eax+16], edx
  00020	8b 51 14	 mov	 edx, DWORD PTR [ecx+20]
  00023	89 50 14	 mov	 DWORD PTR [eax+20], edx
  00026	8b 49 18	 mov	 ecx, DWORD PTR [ecx+24]
  00029	89 48 18	 mov	 DWORD PTR [eax+24], ecx
  0002c	5d		 pop	 ebp
  0002d	c2 04 00	 ret	 4
??4_CS_SCHEDULE_DATA@@QAEAAU0@ABU0@@Z ENDP		; _CS_SCHEDULE_DATA::operator=
_TEXT	ENDS
PUBLIC	?LinkCsGateLever@CCastleSiege@@QAEHHH@Z		; CCastleSiege::LinkCsGateLever
; Function compile flags: /Ogtp
;	COMDAT ?LinkCsGateLever@CCastleSiege@@QAEHHH@Z
_TEXT	SEGMENT
_iLeverIndex$ = 8					; size = 4
_iGateIndex$ = 12					; size = 4
?LinkCsGateLever@CCastleSiege@@QAEHHH@Z PROC		; CCastleSiege::LinkCsGateLever, COMDAT
; _this$ = ecx

; 1390 : {

  00000	55		 push	 ebp
  00001	8b ec		 mov	 ebp, esp
  00003	53		 push	 ebx

; 1391 : 	if(!gObjIsConnected(iLeverIndex) || gObj[iLeverIndex].Class != 219)

  00004	8b 5d 08	 mov	 ebx, DWORD PTR _iLeverIndex$[ebp]
  00007	56		 push	 esi
  00008	53		 push	 ebx
  00009	e8 00 00 00 00	 call	 ?gObjIsConnected@@YAHH@Z ; gObjIsConnected
  0000e	83 c4 04	 add	 esp, 4
  00011	85 c0		 test	 eax, eax
  00013	74 74		 je	 SHORT $LN3@LinkCsGate
  00015	8b 0d 00 00 00
	00		 mov	 ecx, DWORD PTR ?gObj@@3PAUOBJECTSTRUCT@@A ; gObj
  0001b	8b f3		 mov	 esi, ebx
  0001d	69 f6 40 27 00
	00		 imul	 esi, 10048		; 00002740H
  00023	b8 db 00 00 00	 mov	 eax, 219		; 000000dbH
  00028	66 39 84 0e 90
	00 00 00	 cmp	 WORD PTR [esi+ecx+144], ax
  00030	75 57		 jne	 SHORT $LN3@LinkCsGate

; 1393 : 	if(!gObjIsConnected(iGateIndex) || gObj[iGateIndex].Class != 277)

  00032	57		 push	 edi
  00033	8b 7d 0c	 mov	 edi, DWORD PTR _iGateIndex$[ebp]
  00036	57		 push	 edi
  00037	e8 00 00 00 00	 call	 ?gObjIsConnected@@YAHH@Z ; gObjIsConnected
  0003c	83 c4 04	 add	 esp, 4
  0003f	85 c0		 test	 eax, eax
  00041	74 3d		 je	 SHORT $LN1@LinkCsGate
  00043	8b 0d 00 00 00
	00		 mov	 ecx, DWORD PTR ?gObj@@3PAUOBJECTSTRUCT@@A ; gObj
  00049	8b c7		 mov	 eax, edi
  0004b	69 c0 40 27 00
	00		 imul	 eax, 10048		; 00002740H
  00051	ba 15 01 00 00	 mov	 edx, 277		; 00000115H
  00056	66 39 94 08 90
	00 00 00	 cmp	 WORD PTR [eax+ecx+144], dx
  0005e	75 20		 jne	 SHORT $LN1@LinkCsGate

; 1395 : 
; 1396 : 	gObj[iLeverIndex].m_iCsGateLeverLinkIndex = iGateIndex;

  00060	89 bc 0e 54 20
	00 00		 mov	 DWORD PTR [esi+ecx+8276], edi

; 1397 : 	gObj[iGateIndex].m_iCsGateLeverLinkIndex = iLeverIndex;

  00067	8b 0d 00 00 00
	00		 mov	 ecx, DWORD PTR ?gObj@@3PAUOBJECTSTRUCT@@A ; gObj
  0006d	5f		 pop	 edi
  0006e	89 9c 08 54 20
	00 00		 mov	 DWORD PTR [eax+ecx+8276], ebx
  00075	5e		 pop	 esi

; 1398 : return true;

  00076	b8 01 00 00 00	 mov	 eax, 1
  0007b	5b		 pop	 ebx

; 1399 : }

  0007c	5d		 pop	 ebp
  0007d	c2 08 00	 ret	 8
$LN1@LinkCsGate:
  00080	5f		 pop	 edi
  00081	5e		 pop	 esi

; 1394 : 		return false;

  00082	33 c0		 xor	 eax, eax
  00084	5b		 pop	 ebx

; 1399 : }

  00085	5d		 pop	 ebp
  00086	c2 08 00	 ret	 8
$LN3@LinkCsGate:
  00089	5e		 pop	 esi

; 1392 : 		return false;

  0008a	33 c0		 xor	 eax, eax
  0008c	5b		 pop	 ebx

; 1399 : }

  0008d	5d		 pop	 ebp
  0008e	c2 08 00	 ret	 8
?LinkCsGateLever@CCastleSiege@@QAEHHH@Z ENDP		; CCastleSiege::LinkCsGateLever
_TEXT	ENDS
PUBLIC	?SetGateBlockState@CCastleSiege@@QAEXHHH@Z	; CCastleSiege::SetGateBlockState
EXTRN	?MapC@@3PAVMapClass@@A:BYTE			; MapC
; Function compile flags: /Ogtp
;	COMDAT ?SetGateBlockState@CCastleSiege@@QAEXHHH@Z
_TEXT	SEGMENT
tv199 = 8						; size = 4
_iX$ = 8						; size = 4
_iY$ = 12						; size = 4
_iGateState$ = 16					; size = 4
?SetGateBlockState@CCastleSiege@@QAEXHHH@Z PROC		; CCastleSiege::SetGateBlockState, COMDAT
; _this$ = ecx

; 1402 : {

  00000	55		 push	 ebp
  00001	8b ec		 mov	 ebp, esp

; 1403 : 	if(XY_MACRO(iX) == FALSE || XY_MACRO(iY) == FALSE)

  00003	8b 45 08	 mov	 eax, DWORD PTR _iX$[ebp]
  00006	85 c0		 test	 eax, eax
  00008	0f 88 c2 00 00
	00		 js	 $LN11@SetGateBlo
  0000e	33 c9		 xor	 ecx, ecx
  00010	3d ff 00 00 00	 cmp	 eax, 255		; 000000ffH
  00015	0f 9e c1	 setle	 cl
  00018	85 c9		 test	 ecx, ecx
  0001a	0f 84 b0 00 00
	00		 je	 $LN11@SetGateBlo
  00020	57		 push	 edi
  00021	8b 7d 0c	 mov	 edi, DWORD PTR _iY$[ebp]
  00024	85 ff		 test	 edi, edi
  00026	0f 88 a3 00 00
	00		 js	 $LN34@SetGateBlo
  0002c	33 c9		 xor	 ecx, ecx
  0002e	81 ff ff 00 00
	00		 cmp	 edi, 255		; 000000ffH
  00034	0f 9e c1	 setle	 cl
  00037	85 c9		 test	 ecx, ecx
  00039	0f 84 90 00 00
	00		 je	 $LN34@SetGateBlo

; 1404 : 		return;
; 1405 : 
; 1406 : 	switch(iGateState)

  0003f	8b 4d 10	 mov	 ecx, DWORD PTR _iGateState$[ebp]
  00042	83 e9 00	 sub	 ecx, 0
  00045	53		 push	 ebx
  00046	56		 push	 esi
  00047	74 4a		 je	 SHORT $LN14@SetGateBlo
  00049	49		 dec	 ecx
  0004a	0f 85 7d 00 00
	00		 jne	 $LN35@SetGateBlo

; 1415 : 				}
; 1416 : 			}
; 1417 : 		}
; 1418 : 		break;
; 1419 : 	case 1:
; 1420 : 		{
; 1421 : 			for(int i = iX -2; i <= iX + 3; i++)

  00050	8d 70 fe	 lea	 esi, DWORD PTR [eax-2]
  00053	83 c0 03	 add	 eax, 3
  00056	89 45 08	 mov	 DWORD PTR tv199[ebp], eax
  00059	3b f0		 cmp	 esi, eax
  0005b	7f 70		 jg	 SHORT $LN35@SetGateBlo
  0005d	8d 5f 02	 lea	 ebx, DWORD PTR [edi+2]
$LL6@SetGateBlo:

; 1422 : 			{
; 1423 : 				for(int j = iY; j <= iY + 2;j++)

  00060	3b fb		 cmp	 edi, ebx
  00062	7f 23		 jg	 SHORT $LN5@SetGateBlo
  00064	8b d3		 mov	 edx, ebx
  00066	8b cf		 mov	 ecx, edi
  00068	2b d7		 sub	 edx, edi
  0006a	c1 e1 08	 shl	 ecx, 8
  0006d	42		 inc	 edx
  0006e	8b ff		 npad	 2
$LL3@SetGateBlo:

; 1424 : 				{
; 1425 : 					MapC[MAP_INDEX_CASTLESIEGE].m_attrbuf[j * 256 + i] &= ~16;

  00070	a1 c0 94 9c 00	 mov	 eax, DWORD PTR ?MapC@@3PAVMapClass@@A+10261696
  00075	03 c1		 add	 eax, ecx
  00077	80 24 30 ef	 and	 BYTE PTR [eax+esi], 239	; 000000efH
  0007b	81 c1 00 01 00
	00		 add	 ecx, 256		; 00000100H
  00081	4a		 dec	 edx
  00082	75 ec		 jne	 SHORT $LL3@SetGateBlo

; 1422 : 			{
; 1423 : 				for(int j = iY; j <= iY + 2;j++)

  00084	8b 45 08	 mov	 eax, DWORD PTR tv199[ebp]
$LN5@SetGateBlo:

; 1415 : 				}
; 1416 : 			}
; 1417 : 		}
; 1418 : 		break;
; 1419 : 	case 1:
; 1420 : 		{
; 1421 : 			for(int i = iX -2; i <= iX + 3; i++)

  00087	46		 inc	 esi
  00088	3b f0		 cmp	 esi, eax
  0008a	7e d4		 jle	 SHORT $LL6@SetGateBlo
  0008c	5e		 pop	 esi
  0008d	5b		 pop	 ebx
  0008e	5f		 pop	 edi

; 1426 : 				}
; 1427 : 			}
; 1428 : 		}
; 1429 : 		break;
; 1430 : 	}
; 1431 : }

  0008f	5d		 pop	 ebp
  00090	c2 0c 00	 ret	 12			; 0000000cH
$LN14@SetGateBlo:

; 1407 : 	{
; 1408 : 	case 0:
; 1409 : 		{
; 1410 : 			for(int i = iX -2; i <= iX + 3; i++)

  00093	8d 70 fe	 lea	 esi, DWORD PTR [eax-2]
  00096	83 c0 03	 add	 eax, 3
  00099	89 45 08	 mov	 DWORD PTR tv199[ebp], eax
  0009c	3b f0		 cmp	 esi, eax
  0009e	7f 2d		 jg	 SHORT $LN35@SetGateBlo
  000a0	8d 5f 02	 lea	 ebx, DWORD PTR [edi+2]
$LL13@SetGateBlo:

; 1411 : 			{
; 1412 : 				for(int j = iY; j <= iY + 2;j++)

  000a3	3b fb		 cmp	 edi, ebx
  000a5	7f 21		 jg	 SHORT $LN12@SetGateBlo
  000a7	8b d3		 mov	 edx, ebx
  000a9	8b cf		 mov	 ecx, edi
  000ab	2b d7		 sub	 edx, edi
  000ad	c1 e1 08	 shl	 ecx, 8
  000b0	42		 inc	 edx
$LL10@SetGateBlo:

; 1413 : 				{
; 1414 : 					MapC[MAP_INDEX_CASTLESIEGE].m_attrbuf[j * 256 + i] |= 16;

  000b1	a1 c0 94 9c 00	 mov	 eax, DWORD PTR ?MapC@@3PAVMapClass@@A+10261696
  000b6	03 c1		 add	 eax, ecx
  000b8	80 0c 30 10	 or	 BYTE PTR [eax+esi], 16	; 00000010H
  000bc	81 c1 00 01 00
	00		 add	 ecx, 256		; 00000100H
  000c2	4a		 dec	 edx
  000c3	75 ec		 jne	 SHORT $LL10@SetGateBlo

; 1411 : 			{
; 1412 : 				for(int j = iY; j <= iY + 2;j++)

  000c5	8b 45 08	 mov	 eax, DWORD PTR tv199[ebp]
$LN12@SetGateBlo:

; 1407 : 	{
; 1408 : 	case 0:
; 1409 : 		{
; 1410 : 			for(int i = iX -2; i <= iX + 3; i++)

  000c8	46		 inc	 esi
  000c9	3b f0		 cmp	 esi, eax
  000cb	7e d6		 jle	 SHORT $LL13@SetGateBlo
$LN35@SetGateBlo:
  000cd	5e		 pop	 esi
  000ce	5b		 pop	 ebx
$LN34@SetGateBlo:
  000cf	5f		 pop	 edi
$LN11@SetGateBlo:

; 1426 : 				}
; 1427 : 			}
; 1428 : 		}
; 1429 : 		break;
; 1430 : 	}
; 1431 : }

  000d0	5d		 pop	 ebp
  000d1	c2 0c 00	 ret	 12			; 0000000cH
?SetGateBlockState@CCastleSiege@@QAEXHHH@Z ENDP		; CCastleSiege::SetGateBlockState
_TEXT	ENDS
PUBLIC	?SetState_NONE@CCastleSiege@@QAEXH@Z		; CCastleSiege::SetState_NONE
; Function compile flags: /Ogtp
;	COMDAT ?SetState_NONE@CCastleSiege@@QAEXH@Z
_TEXT	SEGMENT
_bSetRemainMsec$ = 8					; size = 4
?SetState_NONE@CCastleSiege@@QAEXH@Z PROC		; CCastleSiege::SetState_NONE, COMDAT
; _this$ = ecx

; 1612 : 
; 1613 : }

  00000	c2 04 00	 ret	 4
?SetState_NONE@CCastleSiege@@QAEXH@Z ENDP		; CCastleSiege::SetState_NONE
_TEXT	ENDS
PUBLIC	__real@408f400000000000
PUBLIC	__$ArrayPad$
PUBLIC	?SetState_IDLE_1@CCastleSiege@@QAEXH@Z		; CCastleSiege::SetState_IDLE_1
EXTRN	__ftol2_sse:PROC
;	COMDAT __real@408f400000000000
; File c:\program files (x86)\microsoft visual studio 10.0\vc\include\time.inl
CONST	SEGMENT
__real@408f400000000000 DQ 0408f400000000000r	; 1000
; Function compile flags: /Ogtp
; File c:\muserver_dev\development\mu-s8ep2-repack\gameserver\source\castlesiege.cpp
CONST	ENDS
;	COMDAT ?SetState_IDLE_1@CCastleSiege@@QAEXH@Z
_TEXT	SEGMENT
_ttSTime$185716 = -48					; size = 8
_tmETime$185718 = -40					; size = 36
__$ArrayPad$ = -4					; size = 4
_bSetRemainMsec$ = 8					; size = 4
?SetState_IDLE_1@CCastleSiege@@QAEXH@Z PROC		; CCastleSiege::SetState_IDLE_1, COMDAT
; _this$ = ecx

; 1616 : {

  00000	55		 push	 ebp
  00001	8b ec		 mov	 ebp, esp
  00003	83 ec 30	 sub	 esp, 48			; 00000030H
  00006	a1 00 00 00 00	 mov	 eax, DWORD PTR ___security_cookie
  0000b	33 c5		 xor	 eax, ebp
  0000d	89 45 fc	 mov	 DWORD PTR __$ArrayPad$[ebp], eax

; 1617 : 	if(bSetRemainMsec != 0) {

  00010	83 7d 08 00	 cmp	 DWORD PTR _bSetRemainMsec$[ebp], 0
  00014	56		 push	 esi
  00015	8b f1		 mov	 esi, ecx
  00017	74 7b		 je	 SHORT $LN1@SetState_I

; 1618 : 		__int64 ttSTime;
; 1619 : 		__int64 ttETime;
; 1620 : 		tm tmETime;
; 1621 : 		double dResultSecond;
; 1622 : 
; 1623 : 		memset(&tmETime, 0x00, sizeof(tmETime));
; 1624 : 		tmETime.tm_year = m_tmStartDate.wYear - 1900;
; 1625 : 		tmETime.tm_mon = m_tmStartDate.wMonth - 1;

  00019	0f b7 8e b6 00
	00 00		 movzx	 ecx, WORD PTR [esi+182]

; 1626 : 		tmETime.tm_mday = m_tmStartDate.wDay;

  00020	0f b7 96 ba 00
	00 00		 movzx	 edx, WORD PTR [esi+186]
  00027	33 c0		 xor	 eax, eax
  00029	89 45 e4	 mov	 DWORD PTR _tmETime$185718[ebp+12], eax
  0002c	89 45 e8	 mov	 DWORD PTR _tmETime$185718[ebp+16], eax
  0002f	89 45 ec	 mov	 DWORD PTR _tmETime$185718[ebp+20], eax
  00032	89 45 d8	 mov	 DWORD PTR _tmETime$185718[ebp], eax
  00035	89 45 dc	 mov	 DWORD PTR _tmETime$185718[ebp+4], eax
  00038	89 45 e0	 mov	 DWORD PTR _tmETime$185718[ebp+8], eax
  0003b	89 45 f0	 mov	 DWORD PTR _tmETime$185718[ebp+24], eax
  0003e	89 45 f4	 mov	 DWORD PTR _tmETime$185718[ebp+28], eax
  00041	89 45 f8	 mov	 DWORD PTR _tmETime$185718[ebp+32], eax
  00044	0f b7 86 b4 00
	00 00		 movzx	 eax, WORD PTR [esi+180]
  0004b	2d 6c 07 00 00	 sub	 eax, 1900		; 0000076cH
  00050	53		 push	 ebx
  00051	89 45 ec	 mov	 DWORD PTR _tmETime$185718[ebp+20], eax

; 1627 : 		ttETime = mktime(&tmETime);

  00054	8d 45 d8	 lea	 eax, DWORD PTR _tmETime$185718[ebp]
  00057	57		 push	 edi
  00058	49		 dec	 ecx
  00059	50		 push	 eax
  0005a	89 4d e8	 mov	 DWORD PTR _tmETime$185718[ebp+16], ecx
  0005d	89 55 e4	 mov	 DWORD PTR _tmETime$185718[ebp+12], edx
  00060	e8 00 00 00 00	 call	 __mktime64

; 1628 : 		time(&ttSTime);

  00065	8d 4d d0	 lea	 ecx, DWORD PTR _ttSTime$185716[ebp]
  00068	51		 push	 ecx
  00069	8b f8		 mov	 edi, eax
  0006b	8b da		 mov	 ebx, edx
  0006d	e8 00 00 00 00	 call	 __time64

; 1629 : 
; 1630 : 		dResultSecond = difftime(ttETime, ttSTime);

  00072	8b 55 d4	 mov	 edx, DWORD PTR _ttSTime$185716[ebp+4]
  00075	8b 45 d0	 mov	 eax, DWORD PTR _ttSTime$185716[ebp]
  00078	52		 push	 edx
  00079	50		 push	 eax
  0007a	53		 push	 ebx
  0007b	57		 push	 edi
  0007c	e8 00 00 00 00	 call	 __difftime64

; 1631 : 		m_iCS_REMAIN_MSEC = (int)(dResultSecond * 1000.0);

  00081	dc 0d 00 00 00
	00		 fmul	 QWORD PTR __real@408f400000000000
  00087	83 c4 18	 add	 esp, 24			; 00000018H
  0008a	e8 00 00 00 00	 call	 __ftol2_sse
  0008f	5f		 pop	 edi
  00090	89 46 68	 mov	 DWORD PTR [esi+104], eax
  00093	5b		 pop	 ebx
$LN1@SetState_I:

; 1632 : 	}
; 1633 : }

  00094	8b 4d fc	 mov	 ecx, DWORD PTR __$ArrayPad$[ebp]
  00097	33 cd		 xor	 ecx, ebp
  00099	5e		 pop	 esi
  0009a	e8 00 00 00 00	 call	 @__security_check_cookie@4
  0009f	8b e5		 mov	 esp, ebp
  000a1	5d		 pop	 ebp
  000a2	c2 04 00	 ret	 4
?SetState_IDLE_1@CCastleSiege@@QAEXH@Z ENDP		; CCastleSiege::SetState_IDLE_1
_TEXT	ENDS
PUBLIC	?SetState@CCastleSiege@@QAEXHH@Z		; CCastleSiege::SetState
PUBLIC	??_C@_0EL@OFOJCFPB@?$FLCastleSiege?$FN?5State?5?9?5End?5Cycle?5@ ; `string'
PUBLIC	??_C@_0FF@KMACIGAJ@?$FLCastleSiege?$FN?5State?5?9?5End?5Cycle?5@ ; `string'
PUBLIC	__$ArrayPad$
PUBLIC	?SetState_ENDCYCLE@CCastleSiege@@QAEXH@Z	; CCastleSiege::SetState_ENDCYCLE
EXTRN	?GS_GDReqResetSiegeGuildInfo@@YAXH@Z:PROC	; GS_GDReqResetSiegeGuildInfo
EXTRN	?GS_GDReqResetRegSiegeInfo@@YAXH@Z:PROC		; GS_GDReqResetRegSiegeInfo
EXTRN	?GS_GDReqSiegeDateChange@@YAXHHGEEGEE@Z:PROC	; GS_GDReqSiegeDateChange
EXTRN	?LogAddTD@@3P6AXPADZZA:DWORD			; LogAddTD
EXTRN	__imp__GetLocalTime@4:PROC
;	COMDAT ??_C@_0EL@OFOJCFPB@?$FLCastleSiege?$FN?5State?5?9?5End?5Cycle?5@
CONST	SEGMENT
??_C@_0EL@OFOJCFPB@?$FLCastleSiege?$FN?5State?5?9?5End?5Cycle?5@ DB '[Cas'
	DB	'tleSiege] State - End Cycle : Date-Changing Info (%d-%d-%d) ('
	DB	'%d-%d-%d)', 00H				; `string'
CONST	ENDS
;	COMDAT ??_C@_0FF@KMACIGAJ@?$FLCastleSiege?$FN?5State?5?9?5End?5Cycle?5@
CONST	SEGMENT
??_C@_0FF@KMACIGAJ@?$FLCastleSiege?$FN?5State?5?9?5End?5Cycle?5@ DB '[Cas'
	DB	'tleSiege] State - End Cycle Schedule : (%d-%d-%d(%d:%d:%d)) ('
	DB	'%d-%d-%d(%d:%d:%d))', 00H			; `string'
; Function compile flags: /Ogtp
CONST	ENDS
;	COMDAT ?SetState_ENDCYCLE@CCastleSiege@@QAEXH@Z
_TEXT	SEGMENT
_tmNowDate$ = -20					; size = 16
__$ArrayPad$ = -4					; size = 4
_bSetRemainMsec$ = 8					; size = 4
?SetState_ENDCYCLE@CCastleSiege@@QAEXH@Z PROC		; CCastleSiege::SetState_ENDCYCLE, COMDAT
; _this$ = ecx

; 1835 : {

  00000	55		 push	 ebp
  00001	8b ec		 mov	 ebp, esp
  00003	83 ec 14	 sub	 esp, 20			; 00000014H
  00006	a1 00 00 00 00	 mov	 eax, DWORD PTR ___security_cookie
  0000b	33 c5		 xor	 eax, ebp
  0000d	89 45 fc	 mov	 DWORD PTR __$ArrayPad$[ebp], eax
  00010	56		 push	 esi
  00011	57		 push	 edi

; 1836 : 	_SYSTEMTIME tmNowDate;
; 1837 : 	GetLocalTime(&tmNowDate);

  00012	8d 45 ec	 lea	 eax, DWORD PTR _tmNowDate$[ebp]
  00015	50		 push	 eax
  00016	8b f1		 mov	 esi, ecx
  00018	ff 15 00 00 00
	00		 call	 DWORD PTR __imp__GetLocalTime@4

; 1838 : 
; 1839 : 	//tmNowDate.wDay = 0;
; 1840 : 	tmNowDate.wHour = 0;
; 1841 : 	tmNowDate.wMinute = 0;
; 1842 : 	tmNowDate.wSecond = 0;
; 1843 : 	tmNowDate.wMilliseconds = 0;
; 1844 : 
; 1845 : 	tmNowDate = m_tmNowDate;

  0001e	8b 4e 2c	 mov	 ecx, DWORD PTR [esi+44]
  00021	8b 56 30	 mov	 edx, DWORD PTR [esi+48]
  00024	8b 46 34	 mov	 eax, DWORD PTR [esi+52]
  00027	8d 7e 2c	 lea	 edi, DWORD PTR [esi+44]
  0002a	89 4d ec	 mov	 DWORD PTR _tmNowDate$[ebp], ecx
  0002d	8b 4f 0c	 mov	 ecx, DWORD PTR [edi+12]

; 1846 : 	m_tmStartDate = m_tmNowDate;
; 1847 : 
; 1848 : 	GetNextDay(&tmNowDate,m_iCastleSiegeCycle,0,0,0);

  00030	6a 00		 push	 0
  00032	89 55 f0	 mov	 DWORD PTR _tmNowDate$[ebp+4], edx
  00035	8b 17		 mov	 edx, DWORD PTR [edi]
  00037	89 45 f4	 mov	 DWORD PTR _tmNowDate$[ebp+8], eax
  0003a	8b 47 04	 mov	 eax, DWORD PTR [edi+4]
  0003d	89 96 b4 00 00
	00		 mov	 DWORD PTR [esi+180], edx
  00043	8b 57 0c	 mov	 edx, DWORD PTR [edi+12]
  00046	89 4d f8	 mov	 DWORD PTR _tmNowDate$[ebp+12], ecx
  00049	8b 4f 08	 mov	 ecx, DWORD PTR [edi+8]
  0004c	6a 00		 push	 0
  0004e	89 86 b8 00 00
	00		 mov	 DWORD PTR [esi+184], eax
  00054	8b 46 24	 mov	 eax, DWORD PTR [esi+36]
  00057	89 8e bc 00 00
	00		 mov	 DWORD PTR [esi+188], ecx
  0005d	6a 00		 push	 0
  0005f	50		 push	 eax
  00060	8d 4d ec	 lea	 ecx, DWORD PTR _tmNowDate$[ebp]
  00063	51		 push	 ecx
  00064	8b ce		 mov	 ecx, esi
  00066	89 96 c0 00 00
	00		 mov	 DWORD PTR [esi+192], edx
  0006c	e8 00 00 00 00	 call	 ?GetNextDay@CCastleSiege@@QAEXPAU_SYSTEMTIME@@HHHH@Z ; CCastleSiege::GetNextDay

; 1849 : 	GetNextDay(&m_tmNowDate,m_iCastleSiegeCycle,0,0,0);

  00071	8b 56 24	 mov	 edx, DWORD PTR [esi+36]
  00074	6a 00		 push	 0
  00076	6a 00		 push	 0
  00078	6a 00		 push	 0
  0007a	52		 push	 edx
  0007b	57		 push	 edi
  0007c	8b ce		 mov	 ecx, esi
  0007e	e8 00 00 00 00	 call	 ?GetNextDay@CCastleSiege@@QAEXPAU_SYSTEMTIME@@HHHH@Z ; CCastleSiege::GetNextDay

; 1850 : 
; 1851 : 	m_tmEndDate = tmNowDate;

  00083	8b 45 ec	 mov	 eax, DWORD PTR _tmNowDate$[ebp]
  00086	8b 4d f0	 mov	 ecx, DWORD PTR _tmNowDate$[ebp+4]
  00089	8b 55 f4	 mov	 edx, DWORD PTR _tmNowDate$[ebp+8]
  0008c	89 86 c4 00 00
	00		 mov	 DWORD PTR [esi+196], eax
  00092	8b 45 f8	 mov	 eax, DWORD PTR _tmNowDate$[ebp+12]
  00095	89 8e c8 00 00
	00		 mov	 DWORD PTR [esi+200], ecx
  0009b	89 96 cc 00 00
	00		 mov	 DWORD PTR [esi+204], edx
  000a1	89 86 d0 00 00
	00		 mov	 DWORD PTR [esi+208], eax

; 1852 : 
; 1853 : 	LogAddTD("[CastleSiege] State - End Cycle Schedule : (%d-%d-%d(%d:%d:%d)) (%d-%d-%d(%d:%d:%d))",
; 1854 : 		m_tmStartDate.wYear,m_tmStartDate.wMonth,m_tmStartDate.wDay,m_tmStartDate.wHour,m_tmStartDate.wMinute,m_tmStartDate.wSecond,
; 1855 : 		m_tmEndDate.wYear,m_tmEndDate.wMonth,m_tmEndDate.wDay,m_tmEndDate.wHour,m_tmEndDate.wMinute,m_tmEndDate.wSecond);

  000a7	0f b7 96 ce 00
	00 00		 movzx	 edx, WORD PTR [esi+206]
  000ae	0f b7 c8	 movzx	 ecx, ax
  000b1	0f b7 86 cc 00
	00 00		 movzx	 eax, WORD PTR [esi+204]
  000b8	51		 push	 ecx
  000b9	0f b7 8e ca 00
	00 00		 movzx	 ecx, WORD PTR [esi+202]
  000c0	52		 push	 edx
  000c1	0f b7 96 c6 00
	00 00		 movzx	 edx, WORD PTR [esi+198]
  000c8	50		 push	 eax
  000c9	0f b7 86 c4 00
	00 00		 movzx	 eax, WORD PTR [esi+196]
  000d0	51		 push	 ecx
  000d1	0f b7 8e c0 00
	00 00		 movzx	 ecx, WORD PTR [esi+192]
  000d8	52		 push	 edx
  000d9	0f b7 96 be 00
	00 00		 movzx	 edx, WORD PTR [esi+190]
  000e0	50		 push	 eax
  000e1	0f b7 86 bc 00
	00 00		 movzx	 eax, WORD PTR [esi+188]
  000e8	51		 push	 ecx
  000e9	0f b7 8e ba 00
	00 00		 movzx	 ecx, WORD PTR [esi+186]
  000f0	52		 push	 edx
  000f1	0f b7 96 b6 00
	00 00		 movzx	 edx, WORD PTR [esi+182]
  000f8	50		 push	 eax
  000f9	0f b7 86 b4 00
	00 00		 movzx	 eax, WORD PTR [esi+180]
  00100	51		 push	 ecx
  00101	52		 push	 edx
  00102	50		 push	 eax
  00103	68 00 00 00 00	 push	 OFFSET ??_C@_0FF@KMACIGAJ@?$FLCastleSiege?$FN?5State?5?9?5End?5Cycle?5@
  00108	ff 15 00 00 00
	00		 call	 DWORD PTR ?LogAddTD@@3P6AXPADZZA ; LogAddTD

; 1856 : 
; 1857 : 	LogAddTD("[CastleSiege] State - End Cycle : Date-Changing Info (%d-%d-%d) (%d-%d-%d)",
; 1858 : 		m_tmStartDate.wYear,m_tmStartDate.wMonth,m_tmStartDate.wDay,
; 1859 : 		m_tmEndDate.wYear,m_tmEndDate.wMonth,m_tmEndDate.wDay);

  0010e	0f b7 8e ca 00
	00 00		 movzx	 ecx, WORD PTR [esi+202]
  00115	0f b7 96 c6 00
	00 00		 movzx	 edx, WORD PTR [esi+198]
  0011c	0f b7 86 c4 00
	00 00		 movzx	 eax, WORD PTR [esi+196]
  00123	51		 push	 ecx
  00124	0f b7 8e ba 00
	00 00		 movzx	 ecx, WORD PTR [esi+186]
  0012b	52		 push	 edx
  0012c	50		 push	 eax
  0012d	0f b7 96 b6 00
	00 00		 movzx	 edx, WORD PTR [esi+182]
  00134	0f b7 86 b4 00
	00 00		 movzx	 eax, WORD PTR [esi+180]
  0013b	51		 push	 ecx
  0013c	52		 push	 edx
  0013d	50		 push	 eax
  0013e	68 00 00 00 00	 push	 OFFSET ??_C@_0EL@OFOJCFPB@?$FLCastleSiege?$FN?5State?5?9?5End?5Cycle?5@
  00143	ff 15 00 00 00
	00		 call	 DWORD PTR ?LogAddTD@@3P6AXPADZZA ; LogAddTD

; 1860 : 
; 1861 : 	GS_GDReqSiegeDateChange(m_iMapSvrGroup,-1,m_tmStartDate.wYear,(BYTE)m_tmStartDate.wMonth,
; 1862 : 		(BYTE)m_tmStartDate.wDay,m_tmEndDate.wYear,(BYTE)m_tmEndDate.wMonth,(BYTE)m_tmEndDate.wDay);

  00149	0f b6 8e ca 00
	00 00		 movzx	 ecx, BYTE PTR [esi+202]
  00150	0f b6 96 c6 00
	00 00		 movzx	 edx, BYTE PTR [esi+198]
  00157	0f b7 86 c4 00
	00 00		 movzx	 eax, WORD PTR [esi+196]
  0015e	83 c4 50	 add	 esp, 80			; 00000050H
  00161	51		 push	 ecx
  00162	0f b6 8e ba 00
	00 00		 movzx	 ecx, BYTE PTR [esi+186]
  00169	52		 push	 edx
  0016a	0f b6 96 b6 00
	00 00		 movzx	 edx, BYTE PTR [esi+182]
  00171	50		 push	 eax
  00172	0f b7 86 b4 00
	00 00		 movzx	 eax, WORD PTR [esi+180]
  00179	51		 push	 ecx
  0017a	8b 4e 18	 mov	 ecx, DWORD PTR [esi+24]
  0017d	52		 push	 edx
  0017e	50		 push	 eax
  0017f	6a ff		 push	 -1
  00181	51		 push	 ecx
  00182	e8 00 00 00 00	 call	 ?GS_GDReqSiegeDateChange@@YAXHHGEEGEE@Z ; GS_GDReqSiegeDateChange

; 1863 : 	GS_GDReqResetRegSiegeInfo(m_iMapSvrGroup);

  00187	8b 56 18	 mov	 edx, DWORD PTR [esi+24]
  0018a	52		 push	 edx
  0018b	e8 00 00 00 00	 call	 ?GS_GDReqResetRegSiegeInfo@@YAXH@Z ; GS_GDReqResetRegSiegeInfo

; 1864 : 	GS_GDReqResetSiegeGuildInfo(m_iMapSvrGroup);

  00190	8b 46 18	 mov	 eax, DWORD PTR [esi+24]
  00193	50		 push	 eax
  00194	e8 00 00 00 00	 call	 ?GS_GDReqResetSiegeGuildInfo@@YAXH@Z ; GS_GDReqResetSiegeGuildInfo
  00199	83 c4 28	 add	 esp, 40			; 00000028H

; 1865 : 	SetState(CASTLESIEGE_STATE_REGSIEGE,1);

  0019c	6a 01		 push	 1
  0019e	6a 01		 push	 1
  001a0	8b ce		 mov	 ecx, esi
  001a2	e8 00 00 00 00	 call	 ?SetState@CCastleSiege@@QAEXHH@Z ; CCastleSiege::SetState

; 1866 : }

  001a7	8b 4d fc	 mov	 ecx, DWORD PTR __$ArrayPad$[ebp]
  001aa	5f		 pop	 edi
  001ab	33 cd		 xor	 ecx, ebp
  001ad	5e		 pop	 esi
  001ae	e8 00 00 00 00	 call	 @__security_check_cookie@4
  001b3	8b e5		 mov	 esp, ebp
  001b5	5d		 pop	 ebp
  001b6	c2 04 00	 ret	 4
?SetState_ENDCYCLE@CCastleSiege@@QAEXH@Z ENDP		; CCastleSiege::SetState_ENDCYCLE
_TEXT	ENDS
PUBLIC	?ClearNonDbNPC@CCastleSiege@@QAEXXZ		; CCastleSiege::ClearNonDbNPC
EXTRN	?DeleteMercenary@CMercenary@@QAEHH@Z:PROC	; CMercenary::DeleteMercenary
EXTRN	?g_CsNPC_Mercenary@@3VCMercenary@@A:QWORD	; g_CsNPC_Mercenary
EXTRN	?DeleteLifeStone@CLifeStone@@QAEHH@Z:PROC	; CLifeStone::DeleteLifeStone
EXTRN	?g_CsNPC_LifeStone@@3VCLifeStone@@A:DWORD	; g_CsNPC_LifeStone
; Function compile flags: /Ogtp
;	COMDAT ?ClearNonDbNPC@CCastleSiege@@QAEXXZ
_TEXT	SEGMENT
?ClearNonDbNPC@CCastleSiege@@QAEXXZ PROC		; CCastleSiege::ClearNonDbNPC, COMDAT
; _this$ = ecx

; 2063 : {

  00000	56		 push	 esi
  00001	57		 push	 edi

; 2064 : 	for(int n = 0; n < OBJ_MAXMONSTER; n++)

  00002	33 ff		 xor	 edi, edi
  00004	33 f6		 xor	 esi, esi
$LL8@ClearNonDb:

; 2065 : 	{
; 2066 : 		if(gObjIsConnected(n)
; 2067 : 			&& gObj[n].MapNumber == MAP_INDEX_CASTLESIEGE
; 2068 : 			&& gObj[n].m_btCsNpcType != NULL
; 2069 : 			&& gObj[n].m_btCsNpcType != 1)

  00006	57		 push	 edi
  00007	e8 00 00 00 00	 call	 ?gObjIsConnected@@YAHH@Z ; gObjIsConnected
  0000c	83 c4 04	 add	 esp, 4
  0000f	85 c0		 test	 eax, eax
  00011	0f 84 82 00 00
	00		 je	 $LN7@ClearNonDb
  00017	a1 00 00 00 00	 mov	 eax, DWORD PTR ?gObj@@3PAUOBJECTSTRUCT@@A ; gObj
  0001c	80 bc 06 23 01
	00 00 1e	 cmp	 BYTE PTR [esi+eax+291], 30 ; 0000001eH
  00024	75 73		 jne	 SHORT $LN7@ClearNonDb
  00026	8a 8c 06 50 20
	00 00		 mov	 cl, BYTE PTR [esi+eax+8272]
  0002d	84 c9		 test	 cl, cl
  0002f	74 68		 je	 SHORT $LN7@ClearNonDb
  00031	80 f9 01	 cmp	 cl, 1
  00034	74 63		 je	 SHORT $LN7@ClearNonDb

; 2070 : 		{
; 2071 : 			if(gObj[n].Class == 278)

  00036	b9 16 01 00 00	 mov	 ecx, 278		; 00000116H
  0003b	66 39 8c 06 90
	00 00 00	 cmp	 WORD PTR [esi+eax+144], cx
  00043	75 10		 jne	 SHORT $LN4@ClearNonDb

; 2072 : 			{
; 2073 : 				g_CsNPC_LifeStone.DeleteLifeStone(n);

  00045	57		 push	 edi
  00046	b9 00 00 00 00	 mov	 ecx, OFFSET ?g_CsNPC_LifeStone@@3VCLifeStone@@A ; g_CsNPC_LifeStone
  0004b	e8 00 00 00 00	 call	 ?DeleteLifeStone@CLifeStone@@QAEHH@Z ; CLifeStone::DeleteLifeStone
  00050	a1 00 00 00 00	 mov	 eax, DWORD PTR ?gObj@@3PAUOBJECTSTRUCT@@A ; gObj
$LN4@ClearNonDb:

; 2074 : 			}
; 2075 : 
; 2076 : 			if(gObj[n].Class == 287 || gObj[n].Class == 286)

  00055	0f b7 8c 06 90
	00 00 00	 movzx	 ecx, WORD PTR [esi+eax+144]
  0005d	ba 1f 01 00 00	 mov	 edx, 287		; 0000011fH
  00062	66 3b ca	 cmp	 cx, dx
  00065	74 0a		 je	 SHORT $LN2@ClearNonDb
  00067	ba 1e 01 00 00	 mov	 edx, 286		; 0000011eH
  0006c	66 3b ca	 cmp	 cx, dx
  0006f	75 10		 jne	 SHORT $LN3@ClearNonDb
$LN2@ClearNonDb:

; 2077 : 			{
; 2078 : 				g_CsNPC_Mercenary.DeleteMercenary(n);

  00071	57		 push	 edi
  00072	b9 00 00 00 00	 mov	 ecx, OFFSET ?g_CsNPC_Mercenary@@3VCMercenary@@A ; g_CsNPC_Mercenary
  00077	e8 00 00 00 00	 call	 ?DeleteMercenary@CMercenary@@QAEHH@Z ; CMercenary::DeleteMercenary
  0007c	a1 00 00 00 00	 mov	 eax, DWORD PTR ?gObj@@3PAUOBJECTSTRUCT@@A ; gObj
$LN3@ClearNonDb:

; 2079 : 			}
; 2080 : 
; 2081 : 			if(gObj[n].Class == 219)

  00081	b9 db 00 00 00	 mov	 ecx, 219		; 000000dbH
  00086	66 39 8c 06 90
	00 00 00	 cmp	 WORD PTR [esi+eax+144], cx
  0008e	74 09		 je	 SHORT $LN7@ClearNonDb

; 2082 : 				continue;
; 2083 : 
; 2084 : 			gObjDel(n);

  00090	57		 push	 edi
  00091	e8 00 00 00 00	 call	 ?gObjDel@@YAFH@Z	; gObjDel
  00096	83 c4 04	 add	 esp, 4
$LN7@ClearNonDb:

; 2064 : 	for(int n = 0; n < OBJ_MAXMONSTER; n++)

  00099	81 c6 40 27 00
	00		 add	 esi, 10048		; 00002740H
  0009f	47		 inc	 edi
  000a0	81 fe 00 dd 49
	06		 cmp	 esi, 105504000		; 0649dd00H
  000a6	0f 8c 5a ff ff
	ff		 jl	 $LL8@ClearNonDb

; 2085 : 		}
; 2086 : 	}
; 2087 : }

  000ac	5f		 pop	 edi
  000ad	5e		 pop	 esi
  000ae	c3		 ret	 0
?ClearNonDbNPC@CCastleSiege@@QAEXXZ ENDP		; CCastleSiege::ClearNonDbNPC
_TEXT	ENDS
PUBLIC	?SavePcRoomUserList@CCastleSiege@@QAEXXZ	; CCastleSiege::SavePcRoomUserList
; Function compile flags: /Ogtp
;	COMDAT ?SavePcRoomUserList@CCastleSiege@@QAEXXZ
_TEXT	SEGMENT
?SavePcRoomUserList@CCastleSiege@@QAEXXZ PROC		; CCastleSiege::SavePcRoomUserList, COMDAT
; _this$ = ecx

; 2382 : 	// EMPTY FUNCTION
; 2383 : }

  00000	c3		 ret	 0
?SavePcRoomUserList@CCastleSiege@@QAEXXZ ENDP		; CCastleSiege::SavePcRoomUserList
_TEXT	ENDS
PUBLIC	?ReSpawnEnemyUser@CCastleSiege@@QAEXH@Z		; CCastleSiege::ReSpawnEnemyUser
EXTRN	?gObjViewportListProtocolCreate@@YAXPAUOBJECTSTRUCT@@@Z:PROC ; gObjViewportListProtocolCreate
EXTRN	?GCTeleportSend@@YAXPAUOBJECTSTRUCT@@HEEEE@Z:PROC ; GCTeleportSend
EXTRN	?gObjClearViewport@@YAXPAUOBJECTSTRUCT@@@Z:PROC	; gObjClearViewport
EXTRN	_rand:PROC
; Function compile flags: /Ogtp
;	COMDAT ?ReSpawnEnemyUser@CCastleSiege@@QAEXH@Z
_TEXT	SEGMENT
_iCNT$186440 = -12					; size = 4
_iCNT$186434 = -12					; size = 4
_iUSER$186416 = -8					; size = 4
_iTY$ = -4						; size = 4
_bRefreshOwnerUser$ = 8					; size = 4
?ReSpawnEnemyUser@CCastleSiege@@QAEXH@Z PROC		; CCastleSiege::ReSpawnEnemyUser, COMDAT
; _this$ = ecx

; 2386 : {

  00000	55		 push	 ebp
  00001	8b ec		 mov	 ebp, esp
  00003	83 ec 0c	 sub	 esp, 12			; 0000000cH
  00006	53		 push	 ebx
  00007	56		 push	 esi
  00008	57		 push	 edi

; 2387 : 	int iTX;
; 2388 : 	int iTY;
; 2389 : 	unsigned char btMapAttr;
; 2390 : 
; 2391 : 	for(int iUSER = OBJ_STARTUSERINDEX; iUSER < OBJMAX; iUSER++)

  00009	c7 45 f8 04 29
	00 00		 mov	 DWORD PTR _iUSER$186416[ebp], 10500 ; 00002904H
  00010	be 00 dd 49 06	 mov	 esi, 105504000		; 0649dd00H
$LL24@ReSpawnEne:

; 2392 : 	{
; 2393 : 		if(gObjIsConnected(iUSER) == FALSE)

  00015	8b 45 f8	 mov	 eax, DWORD PTR _iUSER$186416[ebp]
  00018	50		 push	 eax
  00019	e8 00 00 00 00	 call	 ?gObjIsConnected@@YAHH@Z ; gObjIsConnected
  0001e	83 c4 04	 add	 esp, 4
  00021	85 c0		 test	 eax, eax
  00023	0f 84 af 02 00
	00		 je	 $LN23@ReSpawnEne

; 2394 : 			continue;
; 2395 : 
; 2396 : 		if(gObj[iUSER].MapNumber != MAP_INDEX_CASTLESIEGE)

  00029	8b 15 00 00 00
	00		 mov	 edx, DWORD PTR ?gObj@@3PAUOBJECTSTRUCT@@A ; gObj
  0002f	8a 84 16 23 01
	00 00		 mov	 al, BYTE PTR [esi+edx+291]
  00036	3c 1e		 cmp	 al, 30			; 0000001eH
  00038	0f 85 9a 02 00
	00		 jne	 $LN23@ReSpawnEne

; 2397 : 			continue;
; 2398 : 
; 2399 : 		unsigned char btCsJoinSide = gObj[iUSER].m_btCsJoinSide;

  0003e	8a 8c 16 5a 20
	00 00		 mov	 cl, BYTE PTR [esi+edx+8282]

; 2400 : 
; 2401 : 		if(btCsJoinSide < 0)
; 2402 : 		{
; 2403 : 			btCsJoinSide = 0;
; 2404 : 		}
; 2405 : 
; 2406 : 		if(btCsJoinSide > 2)

  00045	80 f9 02	 cmp	 cl, 2
  00048	76 02		 jbe	 SHORT $LN18@ReSpawnEne

; 2407 : 		{
; 2408 : 			btCsJoinSide = 2;

  0004a	b1 02		 mov	 cl, 2
$LN18@ReSpawnEne:

; 2409 : 		}
; 2410 : 
; 2411 : 		int bMoveOK = FALSE;
; 2412 : 
; 2413 : 		switch(btCsJoinSide)

  0004c	0f b6 c9	 movzx	 ecx, cl
  0004f	33 ff		 xor	 edi, edi
  00051	2b cf		 sub	 ecx, edi
  00053	0f 84 10 01 00
	00		 je	 $LN7@ReSpawnEne
  00059	49		 dec	 ecx
  0005a	74 64		 je	 SHORT $LN15@ReSpawnEne
  0005c	49		 dec	 ecx
  0005d	0f 85 65 02 00
	00		 jne	 $LN2@ReSpawnEne

; 2435 : 		case 2:
; 2436 : 			{
; 2437 : 				for(int iCNT = 0; iCNT < 100; iCNT++)

  00063	89 7d f4	 mov	 DWORD PTR _iCNT$186434[ebp], edi
$LL11@ReSpawnEne:

; 2438 : 				{
; 2439 : 					iTX = (rand() % (g_iCsUserReSpawnArea[2][2] - g_iCsUserReSpawnArea[2][0])) + g_iCsUserReSpawnArea[2][0];

  00066	e8 00 00 00 00	 call	 _rand
  0006b	8b 0d 20 00 00
	00		 mov	 ecx, DWORD PTR ?g_iCsUserReSpawnArea@@3PAY03HA+32
  00071	8b 3d 28 00 00
	00		 mov	 edi, DWORD PTR ?g_iCsUserReSpawnArea@@3PAY03HA+40
  00077	99		 cdq
  00078	2b f9		 sub	 edi, ecx
  0007a	f7 ff		 idiv	 edi
  0007c	8d 1c 11	 lea	 ebx, DWORD PTR [ecx+edx]

; 2440 : 					iTY = (rand() % (g_iCsUserReSpawnArea[2][3] - g_iCsUserReSpawnArea[2][1])) + g_iCsUserReSpawnArea[2][1];

  0007f	e8 00 00 00 00	 call	 _rand
  00084	8b 0d 24 00 00
	00		 mov	 ecx, DWORD PTR ?g_iCsUserReSpawnArea@@3PAY03HA+36
  0008a	8b 3d 2c 00 00
	00		 mov	 edi, DWORD PTR ?g_iCsUserReSpawnArea@@3PAY03HA+44
  00090	2b f9		 sub	 edi, ecx
  00092	99		 cdq
  00093	f7 ff		 idiv	 edi
  00095	03 d1		 add	 edx, ecx

; 2441 : 
; 2442 : 					btMapAttr = MapC[MAP_INDEX_CASTLESIEGE].m_attrbuf[iTY * 256 + iTX];

  00097	8b ca		 mov	 ecx, edx
  00099	c1 e1 08	 shl	 ecx, 8
  0009c	03 0d c0 94 9c
	00		 add	 ecx, DWORD PTR ?MapC@@3PAVMapClass@@A+10261696
  000a2	89 55 fc	 mov	 DWORD PTR _iTY$[ebp], edx

; 2443 : 
; 2444 : 					if((btMapAttr & 4) != 4)

  000a5	f6 04 19 04	 test	 BYTE PTR [ecx+ebx], 4
  000a9	0f 84 18 01 00
	00		 je	 $LN38@ReSpawnEne

; 2435 : 		case 2:
; 2436 : 			{
; 2437 : 				for(int iCNT = 0; iCNT < 100; iCNT++)

  000af	8b 45 f4	 mov	 eax, DWORD PTR _iCNT$186434[ebp]
  000b2	40		 inc	 eax
  000b3	89 45 f4	 mov	 DWORD PTR _iCNT$186434[ebp], eax
  000b6	83 f8 64	 cmp	 eax, 100		; 00000064H
  000b9	7c ab		 jl	 SHORT $LL11@ReSpawnEne

; 2460 : 
; 2461 : 					if((btMapAttr & 4) != 4)

  000bb	e9 08 02 00 00	 jmp	 $LN2@ReSpawnEne
$LN15@ReSpawnEne:

; 2414 : 		{
; 2415 : 		case 1:
; 2416 : 			if(bRefreshOwnerUser != FALSE)

  000c0	39 7d 08	 cmp	 DWORD PTR _bRefreshOwnerUser$[ebp], edi
  000c3	0f 84 ff 01 00
	00		 je	 $LN2@ReSpawnEne

; 2417 : 			{
; 2418 : 				gObj[iUSER].RegenMapNumber = gObj[iUSER].MapNumber;

  000c9	88 84 16 8c 05
	00 00		 mov	 BYTE PTR [esi+edx+1420], al

; 2419 : 				gObj[iUSER].RegenMapX = gObj[iUSER].X;

  000d0	a1 00 00 00 00	 mov	 eax, DWORD PTR ?gObj@@3PAUOBJECTSTRUCT@@A ; gObj
  000d5	8a 94 06 20 01
	00 00		 mov	 dl, BYTE PTR [esi+eax+288]
  000dc	88 94 06 8d 05
	00 00		 mov	 BYTE PTR [esi+eax+1421], dl

; 2420 : 				gObj[iUSER].RegenMapY = gObj[iUSER].Y;

  000e3	a1 00 00 00 00	 mov	 eax, DWORD PTR ?gObj@@3PAUOBJECTSTRUCT@@A ; gObj
  000e8	8a 8c 06 21 01
	00 00		 mov	 cl, BYTE PTR [esi+eax+289]
  000ef	88 8c 06 8e 05
	00 00		 mov	 BYTE PTR [esi+eax+1422], cl

; 2421 : 
; 2422 : 				gObjClearViewport(&gObj[iUSER]);

  000f6	8b 15 00 00 00
	00		 mov	 edx, DWORD PTR ?gObj@@3PAUOBJECTSTRUCT@@A ; gObj
  000fc	8d 04 16	 lea	 eax, DWORD PTR [esi+edx]
  000ff	50		 push	 eax
  00100	e8 00 00 00 00	 call	 ?gObjClearViewport@@YAXPAUOBJECTSTRUCT@@@Z ; gObjClearViewport

; 2423 : 
; 2424 : 				GCTeleportSend(&gObj[iUSER],0xFF,gObj[iUSER].MapNumber,gObj[iUSER].X,gObj[iUSER].Y,gObj[iUSER].Dir);

  00105	8b 0d 00 00 00
	00		 mov	 ecx, DWORD PTR ?gObj@@3PAUOBJECTSTRUCT@@A ; gObj
  0010b	0f b6 94 0e 22
	01 00 00	 movzx	 edx, BYTE PTR [esi+ecx+290]
  00113	8d 04 0e	 lea	 eax, DWORD PTR [esi+ecx]
  00116	0f b6 88 21 01
	00 00		 movzx	 ecx, BYTE PTR [eax+289]
  0011d	52		 push	 edx
  0011e	0f b6 90 20 01
	00 00		 movzx	 edx, BYTE PTR [eax+288]
  00125	51		 push	 ecx
  00126	0f b6 88 23 01
	00 00		 movzx	 ecx, BYTE PTR [eax+291]
  0012d	52		 push	 edx
  0012e	51		 push	 ecx
  0012f	68 ff 00 00 00	 push	 255			; 000000ffH
  00134	50		 push	 eax
  00135	e8 00 00 00 00	 call	 ?GCTeleportSend@@YAXPAUOBJECTSTRUCT@@HEEEE@Z ; GCTeleportSend

; 2425 : 
; 2426 : 				if(gObj[iUSER].m_Change >= 0)

  0013a	8b 15 00 00 00
	00		 mov	 edx, DWORD PTR ?gObj@@3PAUOBJECTSTRUCT@@A ; gObj
  00140	8d 04 16	 lea	 eax, DWORD PTR [esi+edx]
  00143	83 c4 1c	 add	 esp, 28			; 0000001cH
  00146	39 b8 34 06 00
	00		 cmp	 DWORD PTR [eax+1588], edi
  0014c	7c 09		 jl	 SHORT $LN13@ReSpawnEne

; 2427 : 				{
; 2428 : 					gObjViewportListProtocolCreate(&gObj[iUSER]);

  0014e	50		 push	 eax
  0014f	e8 00 00 00 00	 call	 ?gObjViewportListProtocolCreate@@YAXPAUOBJECTSTRUCT@@@Z ; gObjViewportListProtocolCreate
  00154	83 c4 04	 add	 esp, 4
$LN13@ReSpawnEne:

; 2429 : 				}
; 2430 : 
; 2431 : 				gObj[iUSER].RegenOk = TRUE;

  00157	a1 00 00 00 00	 mov	 eax, DWORD PTR ?gObj@@3PAUOBJECTSTRUCT@@A ; gObj
  0015c	c6 84 06 8b 05
	00 00 01	 mov	 BYTE PTR [esi+eax+1419], 1

; 2432 : 			}
; 2433 : 			bMoveOK = FALSE;
; 2434 : 			break;

  00164	e9 5f 01 00 00	 jmp	 $LN2@ReSpawnEne
$LN7@ReSpawnEne:

; 2445 : 					{
; 2446 : 						bMoveOK = TRUE;
; 2447 : 						break;
; 2448 : 					}
; 2449 : 				}
; 2450 : 			}
; 2451 : 			break;
; 2452 : 		case 0:
; 2453 : 			{
; 2454 : 				for(int iCNT = 0; iCNT < 100; iCNT++)

  00169	89 7d f4	 mov	 DWORD PTR _iCNT$186440[ebp], edi
  0016c	8d 64 24 00	 npad	 4
$LL6@ReSpawnEne:

; 2455 : 				{
; 2456 : 					iTX = (rand()% (g_iCsUserReSpawnArea[0][2] - g_iCsUserReSpawnArea[0][0])) + g_iCsUserReSpawnArea[0][0];

  00170	e8 00 00 00 00	 call	 _rand
  00175	8b 0d 00 00 00
	00		 mov	 ecx, DWORD PTR ?g_iCsUserReSpawnArea@@3PAY03HA
  0017b	8b 3d 08 00 00
	00		 mov	 edi, DWORD PTR ?g_iCsUserReSpawnArea@@3PAY03HA+8
  00181	99		 cdq
  00182	2b f9		 sub	 edi, ecx
  00184	f7 ff		 idiv	 edi
  00186	8d 1c 11	 lea	 ebx, DWORD PTR [ecx+edx]

; 2457 : 					iTY = (rand()% (g_iCsUserReSpawnArea[0][3] - g_iCsUserReSpawnArea[0][1])) + g_iCsUserReSpawnArea[0][1];

  00189	e8 00 00 00 00	 call	 _rand
  0018e	8b 0d 04 00 00
	00		 mov	 ecx, DWORD PTR ?g_iCsUserReSpawnArea@@3PAY03HA+4
  00194	8b 3d 0c 00 00
	00		 mov	 edi, DWORD PTR ?g_iCsUserReSpawnArea@@3PAY03HA+12
  0019a	2b f9		 sub	 edi, ecx
  0019c	99		 cdq
  0019d	f7 ff		 idiv	 edi
  0019f	03 d1		 add	 edx, ecx
  001a1	89 55 fc	 mov	 DWORD PTR _iTY$[ebp], edx

; 2458 : 
; 2459 : 					btMapAttr = MapC[MAP_INDEX_CASTLESIEGE].m_attrbuf[iTY * 256 + iTX];

  001a4	c1 e2 08	 shl	 edx, 8
  001a7	03 15 c0 94 9c
	00		 add	 edx, DWORD PTR ?MapC@@3PAVMapClass@@A+10261696

; 2460 : 
; 2461 : 					if((btMapAttr & 4) != 4)

  001ad	f6 04 1a 04	 test	 BYTE PTR [edx+ebx], 4
  001b1	74 11		 je	 SHORT $LN36@ReSpawnEne

; 2445 : 					{
; 2446 : 						bMoveOK = TRUE;
; 2447 : 						break;
; 2448 : 					}
; 2449 : 				}
; 2450 : 			}
; 2451 : 			break;
; 2452 : 		case 0:
; 2453 : 			{
; 2454 : 				for(int iCNT = 0; iCNT < 100; iCNT++)

  001b3	8b 45 f4	 mov	 eax, DWORD PTR _iCNT$186440[ebp]
  001b6	40		 inc	 eax
  001b7	89 45 f4	 mov	 DWORD PTR _iCNT$186440[ebp], eax
  001ba	83 f8 64	 cmp	 eax, 100		; 00000064H
  001bd	7c b1		 jl	 SHORT $LL6@ReSpawnEne

; 2460 : 
; 2461 : 					if((btMapAttr & 4) != 4)

  001bf	e9 04 01 00 00	 jmp	 $LN2@ReSpawnEne
$LN36@ReSpawnEne:
  001c4	8b 55 fc	 mov	 edx, DWORD PTR _iTY$[ebp]
$LN38@ReSpawnEne:

; 2462 : 					{
; 2463 : 						bMoveOK = TRUE;
; 2464 : 						break;
; 2465 : 					}
; 2466 : 				}
; 2467 : 			}
; 2468 : 			break;
; 2469 : 		}
; 2470 : 
; 2471 : 		if(bMoveOK != FALSE)
; 2472 : 		{
; 2473 : 			gObj[iUSER].m_State = 32;

  001c7	8b 0d 00 00 00
	00		 mov	 ecx, DWORD PTR ?gObj@@3PAUOBJECTSTRUCT@@A ; gObj
  001cd	c7 84 0e d0 01
	00 00 20 00 00
	00		 mov	 DWORD PTR [esi+ecx+464], 32 ; 00000020H

; 2474 : 			gObj[iUSER].X = iTX;

  001d8	a1 00 00 00 00	 mov	 eax, DWORD PTR ?gObj@@3PAUOBJECTSTRUCT@@A ; gObj
  001dd	88 9c 06 20 01
	00 00		 mov	 BYTE PTR [esi+eax+288], bl

; 2475 : 			gObj[iUSER].Y = iTY;

  001e4	8b 0d 00 00 00
	00		 mov	 ecx, DWORD PTR ?gObj@@3PAUOBJECTSTRUCT@@A ; gObj
  001ea	88 94 0e 21 01
	00 00		 mov	 BYTE PTR [esi+ecx+289], dl

; 2476 : 			gObj[iUSER].TX = iTX;

  001f1	a1 00 00 00 00	 mov	 eax, DWORD PTR ?gObj@@3PAUOBJECTSTRUCT@@A ; gObj
  001f6	88 9c 06 52 01
	00 00		 mov	 BYTE PTR [esi+eax+338], bl

; 2477 : 			gObj[iUSER].TX = iTY;

  001fd	8b 0d 00 00 00
	00		 mov	 ecx, DWORD PTR ?gObj@@3PAUOBJECTSTRUCT@@A ; gObj
  00203	88 94 0e 52 01
	00 00		 mov	 BYTE PTR [esi+ecx+338], dl

; 2478 : 			gObj[iUSER].MapNumber = MAP_INDEX_CASTLESIEGE;

  0020a	8b 15 00 00 00
	00		 mov	 edx, DWORD PTR ?gObj@@3PAUOBJECTSTRUCT@@A ; gObj
  00210	c6 84 16 23 01
	00 00 1e	 mov	 BYTE PTR [esi+edx+291], 30 ; 0000001eH

; 2479 : 			gObj[iUSER].PathCount = 0;

  00218	a1 00 00 00 00	 mov	 eax, DWORD PTR ?gObj@@3PAUOBJECTSTRUCT@@A ; gObj
  0021d	c7 84 06 58 01
	00 00 00 00 00
	00		 mov	 DWORD PTR [esi+eax+344], 0

; 2480 : 			gObj[iUSER].Teleport = 0;

  00228	8b 0d 00 00 00
	00		 mov	 ecx, DWORD PTR ?gObj@@3PAUOBJECTSTRUCT@@A ; gObj
  0022e	c6 84 0e 88 05
	00 00 00	 mov	 BYTE PTR [esi+ecx+1416], 0

; 2481 : 
; 2482 : 			gObjClearViewport(&gObj[iUSER]);

  00236	8b 15 00 00 00
	00		 mov	 edx, DWORD PTR ?gObj@@3PAUOBJECTSTRUCT@@A ; gObj
  0023c	8d 04 16	 lea	 eax, DWORD PTR [esi+edx]
  0023f	50		 push	 eax
  00240	e8 00 00 00 00	 call	 ?gObjClearViewport@@YAXPAUOBJECTSTRUCT@@@Z ; gObjClearViewport

; 2483 : 			GCTeleportSend(&gObj[iUSER],0xFF,MAP_INDEX_CASTLESIEGE,gObj[iUSER].X,gObj[iUSER].Y,gObj[iUSER].Dir);

  00245	8b 0d 00 00 00
	00		 mov	 ecx, DWORD PTR ?gObj@@3PAUOBJECTSTRUCT@@A ; gObj
  0024b	0f b6 94 0e 22
	01 00 00	 movzx	 edx, BYTE PTR [esi+ecx+290]
  00253	8d 04 0e	 lea	 eax, DWORD PTR [esi+ecx]
  00256	0f b6 88 21 01
	00 00		 movzx	 ecx, BYTE PTR [eax+289]
  0025d	52		 push	 edx
  0025e	0f b6 90 20 01
	00 00		 movzx	 edx, BYTE PTR [eax+288]
  00265	51		 push	 ecx
  00266	52		 push	 edx
  00267	6a 1e		 push	 30			; 0000001eH
  00269	68 ff 00 00 00	 push	 255			; 000000ffH
  0026e	50		 push	 eax
  0026f	e8 00 00 00 00	 call	 ?GCTeleportSend@@YAXPAUOBJECTSTRUCT@@HEEEE@Z ; GCTeleportSend

; 2484 : 
; 2485 : 			if(gObj[iUSER].m_Change >= 0)

  00274	a1 00 00 00 00	 mov	 eax, DWORD PTR ?gObj@@3PAUOBJECTSTRUCT@@A ; gObj
  00279	03 c6		 add	 eax, esi
  0027b	83 c4 1c	 add	 esp, 28			; 0000001cH
  0027e	83 b8 34 06 00
	00 00		 cmp	 DWORD PTR [eax+1588], 0
  00285	7c 09		 jl	 SHORT $LN1@ReSpawnEne

; 2486 : 			{
; 2487 : 				gObjViewportListProtocolCreate(&gObj[iUSER]);

  00287	50		 push	 eax
  00288	e8 00 00 00 00	 call	 ?gObjViewportListProtocolCreate@@YAXPAUOBJECTSTRUCT@@@Z ; gObjViewportListProtocolCreate
  0028d	83 c4 04	 add	 esp, 4
$LN1@ReSpawnEne:

; 2488 : 			}
; 2489 : 
; 2490 : 			gObj[iUSER].RegenMapNumber = MAP_INDEX_CASTLESIEGE;

  00290	8b 0d 00 00 00
	00		 mov	 ecx, DWORD PTR ?gObj@@3PAUOBJECTSTRUCT@@A ; gObj
  00296	c6 84 0e 8c 05
	00 00 1e	 mov	 BYTE PTR [esi+ecx+1420], 30 ; 0000001eH

; 2491 : 			gObj[iUSER].RegenMapX = iTX;

  0029e	8b 15 00 00 00
	00		 mov	 edx, DWORD PTR ?gObj@@3PAUOBJECTSTRUCT@@A ; gObj

; 2492 : 			gObj[iUSER].RegenMapY = iTY;

  002a4	8a 4d fc	 mov	 cl, BYTE PTR _iTY$[ebp]
  002a7	88 9c 16 8d 05
	00 00		 mov	 BYTE PTR [esi+edx+1421], bl
  002ae	a1 00 00 00 00	 mov	 eax, DWORD PTR ?gObj@@3PAUOBJECTSTRUCT@@A ; gObj
  002b3	88 8c 06 8e 05
	00 00		 mov	 BYTE PTR [esi+eax+1422], cl

; 2493 : 			gObj[iUSER].RegenOk = TRUE;

  002ba	8b 15 00 00 00
	00		 mov	 edx, DWORD PTR ?gObj@@3PAUOBJECTSTRUCT@@A ; gObj
  002c0	c6 84 16 8b 05
	00 00 01	 mov	 BYTE PTR [esi+edx+1419], 1
$LN2@ReSpawnEne:

; 2494 : 		}
; 2495 : 
; 2496 : 		//NotifySelfCsJoinSide(iUSER);
; 2497 : 
; 2498 : 		gObj[iUSER].m_iAccumulatedCrownAccessTime = 0;

  002c8	a1 00 00 00 00	 mov	 eax, DWORD PTR ?gObj@@3PAUOBJECTSTRUCT@@A ; gObj
  002cd	c7 84 06 74 20
	00 00 00 00 00
	00		 mov	 DWORD PTR [esi+eax+8308], 0
$LN23@ReSpawnEne:

; 2387 : 	int iTX;
; 2388 : 	int iTY;
; 2389 : 	unsigned char btMapAttr;
; 2390 : 
; 2391 : 	for(int iUSER = OBJ_STARTUSERINDEX; iUSER < OBJMAX; iUSER++)

  002d8	ff 45 f8	 inc	 DWORD PTR _iUSER$186416[ebp]
  002db	81 c6 40 27 00
	00		 add	 esi, 10048		; 00002740H
  002e1	81 fe 00 2f e3
	06		 cmp	 esi, 115552000		; 06e32f00H
  002e7	0f 8c 28 fd ff
	ff		 jl	 $LL24@ReSpawnEne
  002ed	5f		 pop	 edi
  002ee	5e		 pop	 esi
  002ef	5b		 pop	 ebx

; 2499 : 	}
; 2500 : }

  002f0	8b e5		 mov	 esp, ebp
  002f2	5d		 pop	 ebp
  002f3	c2 04 00	 ret	 4
?ReSpawnEnemyUser@CCastleSiege@@QAEXH@Z ENDP		; CCastleSiege::ReSpawnEnemyUser
_TEXT	ENDS
PUBLIC	?NotifyAllUserCsStartState@CCastleSiege@@QAEXE@Z ; CCastleSiege::NotifyAllUserCsStartState
; Function compile flags: /Ogtp
;	COMDAT ?NotifyAllUserCsStartState@CCastleSiege@@QAEXE@Z
_TEXT	SEGMENT
_pMsg$ = -8						; size = 5
_btStartState$ = 8					; size = 1
?NotifyAllUserCsStartState@CCastleSiege@@QAEXE@Z PROC	; CCastleSiege::NotifyAllUserCsStartState, COMDAT
; _this$ = ecx

; 2509 : {

  00000	55		 push	 ebp
  00001	8b ec		 mov	 ebp, esp
  00003	83 ec 08	 sub	 esp, 8

; 2510 : 	PMSG_ANS_NOTIFYCSSTART pMsg;
; 2511 : 
; 2512 : 	pMsg.h.set((PBYTE)&pMsg,0xB2,0x17,sizeof(pMsg));
; 2513 : 	pMsg.btStartState = btStartState;

  00006	8a 45 08	 mov	 al, BYTE PTR _btStartState$[ebp]
  00009	56		 push	 esi
  0000a	57		 push	 edi
  0000b	88 45 fc	 mov	 BYTE PTR _pMsg$[ebp+4], al
  0000e	a1 00 00 00 00	 mov	 eax, DWORD PTR ?gObj@@3PAUOBJECTSTRUCT@@A ; gObj
  00013	c7 45 f8 c1 05
	b2 17		 mov	 DWORD PTR _pMsg$[ebp], 397542849 ; 17b205c1H

; 2514 : 
; 2515 : 	for(int i = OBJ_STARTUSERINDEX; i < OBJMAX; i++)

  0001a	bf 04 29 00 00	 mov	 edi, 10500		; 00002904H
  0001f	be 00 dd 49 06	 mov	 esi, 105504000		; 0649dd00H
$LL11@NotifyAllU:

; 2516 : 	{
; 2517 : 		if(gObj[i].Connected == PLAYER_PLAYING && gObj[i].Type == OBJ_USER)

  00024	83 7c 06 04 03	 cmp	 DWORD PTR [esi+eax+4], 3
  00029	75 1e		 jne	 SHORT $LN3@NotifyAllU
  0002b	80 7c 06 50 01	 cmp	 BYTE PTR [esi+eax+80], 1
  00030	75 17		 jne	 SHORT $LN3@NotifyAllU

; 2518 : 		{
; 2519 : 			DataSend(i,(PBYTE)&pMsg,pMsg.h.size);

  00032	0f b6 4d f9	 movzx	 ecx, BYTE PTR _pMsg$[ebp+1]
  00036	51		 push	 ecx
  00037	8d 55 f8	 lea	 edx, DWORD PTR _pMsg$[ebp]
  0003a	52		 push	 edx
  0003b	57		 push	 edi
  0003c	e8 00 00 00 00	 call	 ?DataSend@@YAHHPAEK@Z	; DataSend
  00041	a1 00 00 00 00	 mov	 eax, DWORD PTR ?gObj@@3PAUOBJECTSTRUCT@@A ; gObj
  00046	83 c4 0c	 add	 esp, 12			; 0000000cH
$LN3@NotifyAllU:

; 2514 : 
; 2515 : 	for(int i = OBJ_STARTUSERINDEX; i < OBJMAX; i++)

  00049	81 c6 40 27 00
	00		 add	 esi, 10048		; 00002740H
  0004f	47		 inc	 edi
  00050	81 fe 00 2f e3
	06		 cmp	 esi, 115552000		; 06e32f00H
  00056	7c cc		 jl	 SHORT $LL11@NotifyAllU
  00058	5f		 pop	 edi
  00059	5e		 pop	 esi

; 2520 : 		}
; 2521 : 	}
; 2522 : }

  0005a	8b e5		 mov	 esp, ebp
  0005c	5d		 pop	 ebp
  0005d	c2 04 00	 ret	 4
?NotifyAllUserCsStartState@CCastleSiege@@QAEXE@Z ENDP	; CCastleSiege::NotifyAllUserCsStartState
_TEXT	ENDS
PUBLIC	__$ArrayPad$
PUBLIC	?SendAllUserAnyMsg@CCastleSiege@@QAEXPADH@Z	; CCastleSiege::SendAllUserAnyMsg
EXTRN	?SendNoticeToAllUser@TNotice@@SAXPAX@Z:PROC	; TNotice::SendNoticeToAllUser
EXTRN	?SetNoticeProperty@TNotice@@SAXPAXEKEGE@Z:PROC	; TNotice::SetNoticeProperty
EXTRN	?MakeNoticeMsg@TNotice@@SAXPAXEPAD@Z:PROC	; TNotice::MakeNoticeMsg
; Function compile flags: /Ogtp
;	COMDAT ?SendAllUserAnyMsg@CCastleSiege@@QAEXPADH@Z
_TEXT	SEGMENT
_pNotice$ = -276					; size = 272
__$ArrayPad$ = -4					; size = 4
_lpszMsg$ = 8						; size = 4
_iType$ = 12						; size = 4
?SendAllUserAnyMsg@CCastleSiege@@QAEXPADH@Z PROC	; CCastleSiege::SendAllUserAnyMsg, COMDAT
; _this$ = ecx

; 2525 : {

  00000	55		 push	 ebp
  00001	8b ec		 mov	 ebp, esp
  00003	81 ec 14 01 00
	00		 sub	 esp, 276		; 00000114H
  00009	a1 00 00 00 00	 mov	 eax, DWORD PTR ___security_cookie
  0000e	33 c5		 xor	 eax, ebp
  00010	89 45 fc	 mov	 DWORD PTR __$ArrayPad$[ebp], eax
  00013	8b 45 08	 mov	 eax, DWORD PTR _lpszMsg$[ebp]

; 2526 : 	if(lpszMsg == NULL)

  00016	85 c0		 test	 eax, eax
  00018	0f 84 b5 00 00
	00		 je	 $LN7@SendAllUse

; 2527 : 		return;
; 2528 : 
; 2529 : 	PMSG_NOTICE pNotice;
; 2530 : 
; 2531 : 	switch(iType)

  0001e	8b 4d 0c	 mov	 ecx, DWORD PTR _iType$[ebp]
  00021	49		 dec	 ecx
  00022	74 78		 je	 SHORT $LN6@SendAllUse
  00024	49		 dec	 ecx
  00025	0f 85 a8 00 00
	00		 jne	 $LN7@SendAllUse

; 2537 : 		break;
; 2538 : 	case 2:
; 2539 : 
; 2540 : 		TNotice::MakeNoticeMsg(&pNotice,0,lpszMsg);

  0002b	56		 push	 esi
  0002c	57		 push	 edi
  0002d	50		 push	 eax
  0002e	51		 push	 ecx
  0002f	8d 85 ec fe ff
	ff		 lea	 eax, DWORD PTR _pNotice$[ebp]
  00035	50		 push	 eax
  00036	e8 00 00 00 00	 call	 ?MakeNoticeMsg@TNotice@@SAXPAXEPAD@Z ; TNotice::MakeNoticeMsg
  0003b	a1 00 00 00 00	 mov	 eax, DWORD PTR ?gObj@@3PAUOBJECTSTRUCT@@A ; gObj
  00040	83 c4 0c	 add	 esp, 12			; 0000000cH

; 2541 : 
; 2542 : 		for(int i = OBJ_STARTUSERINDEX; i < OBJMAX; i++)

  00043	bf 04 29 00 00	 mov	 edi, 10500		; 00002904H
  00048	be 00 dd 49 06	 mov	 esi, 105504000		; 0649dd00H
  0004d	8d 49 00	 npad	 3
$LL4@SendAllUse:

; 2543 : 		{
; 2544 : 			if(gObj[i].Connected == PLAYER_PLAYING && gObj[i].Type == OBJ_USER)

  00050	83 7c 06 04 03	 cmp	 DWORD PTR [esi+eax+4], 3
  00055	75 24		 jne	 SHORT $LN3@SendAllUse
  00057	80 7c 06 50 01	 cmp	 BYTE PTR [esi+eax+80], 1
  0005c	75 1d		 jne	 SHORT $LN3@SendAllUse

; 2545 : 			{
; 2546 : 				DataSend(i,(PBYTE)&pNotice,pNotice.h.size);

  0005e	0f b6 8d ed fe
	ff ff		 movzx	 ecx, BYTE PTR _pNotice$[ebp+1]
  00065	51		 push	 ecx
  00066	8d 95 ec fe ff
	ff		 lea	 edx, DWORD PTR _pNotice$[ebp]
  0006c	52		 push	 edx
  0006d	57		 push	 edi
  0006e	e8 00 00 00 00	 call	 ?DataSend@@YAHHPAEK@Z	; DataSend
  00073	a1 00 00 00 00	 mov	 eax, DWORD PTR ?gObj@@3PAUOBJECTSTRUCT@@A ; gObj
  00078	83 c4 0c	 add	 esp, 12			; 0000000cH
$LN3@SendAllUse:

; 2541 : 
; 2542 : 		for(int i = OBJ_STARTUSERINDEX; i < OBJMAX; i++)

  0007b	81 c6 40 27 00
	00		 add	 esi, 10048		; 00002740H
  00081	47		 inc	 edi
  00082	81 fe 00 2f e3
	06		 cmp	 esi, 115552000		; 06e32f00H
  00088	7c c6		 jl	 SHORT $LL4@SendAllUse
  0008a	5f		 pop	 edi
  0008b	5e		 pop	 esi

; 2547 : 			}
; 2548 : 		}
; 2549 : 
; 2550 : 		break;
; 2551 : 	}
; 2552 : }

  0008c	8b 4d fc	 mov	 ecx, DWORD PTR __$ArrayPad$[ebp]
  0008f	33 cd		 xor	 ecx, ebp
  00091	e8 00 00 00 00	 call	 @__security_check_cookie@4
  00096	8b e5		 mov	 esp, ebp
  00098	5d		 pop	 ebp
  00099	c2 08 00	 ret	 8
$LN6@SendAllUse:

; 2532 : 	{
; 2533 : 	case 1:
; 2534 : 		TNotice::MakeNoticeMsg(&pNotice,0,lpszMsg);

  0009c	50		 push	 eax
  0009d	8d 85 ec fe ff
	ff		 lea	 eax, DWORD PTR _pNotice$[ebp]
  000a3	6a 00		 push	 0
  000a5	50		 push	 eax
  000a6	e8 00 00 00 00	 call	 ?MakeNoticeMsg@TNotice@@SAXPAXEPAD@Z ; TNotice::MakeNoticeMsg

; 2535 : 		TNotice::SetNoticeProperty(&pNotice,10,_ARGB(255,255,200,80),1,0,20);

  000ab	6a 14		 push	 20			; 00000014H
  000ad	6a 00		 push	 0
  000af	6a 01		 push	 1
  000b1	68 ff c8 50 ff	 push	 -11482881		; ff50c8ffH
  000b6	8d 8d ec fe ff
	ff		 lea	 ecx, DWORD PTR _pNotice$[ebp]
  000bc	6a 0a		 push	 10			; 0000000aH
  000be	51		 push	 ecx
  000bf	e8 00 00 00 00	 call	 ?SetNoticeProperty@TNotice@@SAXPAXEKEGE@Z ; TNotice::SetNoticeProperty

; 2536 : 		TNotice::SendNoticeToAllUser(&pNotice);

  000c4	8d 95 ec fe ff
	ff		 lea	 edx, DWORD PTR _pNotice$[ebp]
  000ca	52		 push	 edx
  000cb	e8 00 00 00 00	 call	 ?SendNoticeToAllUser@TNotice@@SAXPAX@Z ; TNotice::SendNoticeToAllUser
  000d0	83 c4 28	 add	 esp, 40			; 00000028H
$LN7@SendAllUse:

; 2547 : 			}
; 2548 : 		}
; 2549 : 
; 2550 : 		break;
; 2551 : 	}
; 2552 : }

  000d3	8b 4d fc	 mov	 ecx, DWORD PTR __$ArrayPad$[ebp]
  000d6	33 cd		 xor	 ecx, ebp
  000d8	e8 00 00 00 00	 call	 @__security_check_cookie@4
  000dd	8b e5		 mov	 esp, ebp
  000df	5d		 pop	 ebp
  000e0	c2 08 00	 ret	 8
?SendAllUserAnyMsg@CCastleSiege@@QAEXPADH@Z ENDP	; CCastleSiege::SendAllUserAnyMsg
_TEXT	ENDS
PUBLIC	?SendMapServerGroupMsg@CCastleSiege@@QAEXPAD@Z	; CCastleSiege::SendMapServerGroupMsg
EXTRN	?GS_GDReqMapSvrMsgMultiCast@@YAXHPAD@Z:PROC	; GS_GDReqMapSvrMsgMultiCast
; Function compile flags: /Ogtp
;	COMDAT ?SendMapServerGroupMsg@CCastleSiege@@QAEXPAD@Z
_TEXT	SEGMENT
_lpszMsg$ = 8						; size = 4
?SendMapServerGroupMsg@CCastleSiege@@QAEXPAD@Z PROC	; CCastleSiege::SendMapServerGroupMsg, COMDAT
; _this$ = ecx

; 2555 : {

  00000	55		 push	 ebp
  00001	8b ec		 mov	 ebp, esp

; 2556 : 	GS_GDReqMapSvrMsgMultiCast(m_iMapSvrGroup,lpszMsg);

  00003	8b 45 08	 mov	 eax, DWORD PTR _lpszMsg$[ebp]
  00006	8b 49 18	 mov	 ecx, DWORD PTR [ecx+24]
  00009	50		 push	 eax
  0000a	51		 push	 ecx
  0000b	e8 00 00 00 00	 call	 ?GS_GDReqMapSvrMsgMultiCast@@YAXHPAD@Z ; GS_GDReqMapSvrMsgMultiCast
  00010	83 c4 08	 add	 esp, 8

; 2557 : }

  00013	5d		 pop	 ebp
  00014	c2 04 00	 ret	 4
?SendMapServerGroupMsg@CCastleSiege@@QAEXPAD@Z ENDP	; CCastleSiege::SendMapServerGroupMsg
_TEXT	ENDS
PUBLIC	?GetDataLoadState@CCastleSiege@@QAEHXZ		; CCastleSiege::GetDataLoadState
; Function compile flags: /Ogtp
;	COMDAT ?GetDataLoadState@CCastleSiege@@QAEHXZ
_TEXT	SEGMENT
?GetDataLoadState@CCastleSiege@@QAEHXZ PROC		; CCastleSiege::GetDataLoadState, COMDAT
; _this$ = ecx

; 2561 : 	return m_iCastleDataLoadState;

  00000	8b 41 1c	 mov	 eax, DWORD PTR [ecx+28]

; 2562 : }

  00003	c3		 ret	 0
?GetDataLoadState@CCastleSiege@@QAEHXZ ENDP		; CCastleSiege::GetDataLoadState
_TEXT	ENDS
PUBLIC	?SetDataLoadState@CCastleSiege@@QAEXH@Z		; CCastleSiege::SetDataLoadState
; Function compile flags: /Ogtp
;	COMDAT ?SetDataLoadState@CCastleSiege@@QAEXH@Z
_TEXT	SEGMENT
_iDataLoadState$ = 8					; size = 4
?SetDataLoadState@CCastleSiege@@QAEXH@Z PROC		; CCastleSiege::SetDataLoadState, COMDAT
; _this$ = ecx

; 2565 : {

  00000	55		 push	 ebp
  00001	8b ec		 mov	 ebp, esp

; 2566 : 	m_iCastleDataLoadState = iDataLoadState;

  00003	8b 45 08	 mov	 eax, DWORD PTR _iDataLoadState$[ebp]
  00006	89 41 1c	 mov	 DWORD PTR [ecx+28], eax

; 2567 : }

  00009	5d		 pop	 ebp
  0000a	c2 04 00	 ret	 4
?SetDataLoadState@CCastleSiege@@QAEXH@Z ENDP		; CCastleSiege::SetDataLoadState
_TEXT	ENDS
PUBLIC	?SetDbDataLoadOK@CCastleSiege@@QAEXH@Z		; CCastleSiege::SetDbDataLoadOK
; Function compile flags: /Ogtp
;	COMDAT ?SetDbDataLoadOK@CCastleSiege@@QAEXH@Z
_TEXT	SEGMENT
_bDbDataLoadOK$ = 8					; size = 4
?SetDbDataLoadOK@CCastleSiege@@QAEXH@Z PROC		; CCastleSiege::SetDbDataLoadOK, COMDAT
; _this$ = ecx

; 2570 : {

  00000	55		 push	 ebp
  00001	8b ec		 mov	 ebp, esp

; 2571 : 	m_bDbDataLoadOK = bDbDataLoadOK;

  00003	8b 45 08	 mov	 eax, DWORD PTR _bDbDataLoadOK$[ebp]
  00006	89 41 10	 mov	 DWORD PTR [ecx+16], eax

; 2572 : }

  00009	5d		 pop	 ebp
  0000a	c2 04 00	 ret	 4
?SetDbDataLoadOK@CCastleSiege@@QAEXH@Z ENDP		; CCastleSiege::SetDbDataLoadOK
_TEXT	ENDS
PUBLIC	?ProcState_NONE@CCastleSiege@@QAEXXZ		; CCastleSiege::ProcState_NONE
; Function compile flags: /Ogtp
;	COMDAT ?ProcState_NONE@CCastleSiege@@QAEXXZ
_TEXT	SEGMENT
?ProcState_NONE@CCastleSiege@@QAEXXZ PROC		; CCastleSiege::ProcState_NONE, COMDAT
; _this$ = ecx

; 2739 : 	// EMPTY FUNCTION
; 2740 : }

  00000	c3		 ret	 0
?ProcState_NONE@CCastleSiege@@QAEXXZ ENDP		; CCastleSiege::ProcState_NONE
_TEXT	ENDS
PUBLIC	??1?$_Pair_base@HU_CS_MINIMAP_DATA@@@std@@QAE@XZ ; std::_Pair_base<int,_CS_MINIMAP_DATA>::~_Pair_base<int,_CS_MINIMAP_DATA>
; Function compile flags: /Ogtp
;	COMDAT ??1?$_Pair_base@HU_CS_MINIMAP_DATA@@@std@@QAE@XZ
_TEXT	SEGMENT
??1?$_Pair_base@HU_CS_MINIMAP_DATA@@@std@@QAE@XZ PROC	; std::_Pair_base<int,_CS_MINIMAP_DATA>::~_Pair_base<int,_CS_MINIMAP_DATA>, COMDAT
; _this$ = ecx
  00000	c7 41 04 00 00
	00 00		 mov	 DWORD PTR [ecx+4], OFFSET ??_7_CS_MINIMAP_DATA@@6B@
  00007	c3		 ret	 0
??1?$_Pair_base@HU_CS_MINIMAP_DATA@@@std@@QAE@XZ ENDP	; std::_Pair_base<int,_CS_MINIMAP_DATA>::~_Pair_base<int,_CS_MINIMAP_DATA>
_TEXT	ENDS
PUBLIC	?ClearNonDbNPC_MidWin@CCastleSiege@@QAEXXZ	; CCastleSiege::ClearNonDbNPC_MidWin
; Function compile flags: /Ogtp
;	COMDAT ?ClearNonDbNPC_MidWin@CCastleSiege@@QAEXXZ
_TEXT	SEGMENT
?ClearNonDbNPC_MidWin@CCastleSiege@@QAEXXZ PROC		; CCastleSiege::ClearNonDbNPC_MidWin, COMDAT
; _this$ = ecx

; 3310 : {

  00000	56		 push	 esi
  00001	57		 push	 edi

; 3311 : 	for(int n = 0; n < OBJ_MAXMONSTER; n++)

  00002	33 ff		 xor	 edi, edi
  00004	33 f6		 xor	 esi, esi
$LL6@ClearNonDb@2:

; 3312 : 	{
; 3313 : 		if(gObjIsConnected(n)
; 3314 : 			&& gObj[n].MapNumber == MAP_INDEX_CASTLESIEGE
; 3315 : 			&& gObj[n].m_btCsNpcType != 0
; 3316 : 			&& gObj[n].m_btCsNpcType != 1)

  00006	57		 push	 edi
  00007	e8 00 00 00 00	 call	 ?gObjIsConnected@@YAHH@Z ; gObjIsConnected
  0000c	83 c4 04	 add	 esp, 4
  0000f	85 c0		 test	 eax, eax
  00011	74 56		 je	 SHORT $LN5@ClearNonDb@2
  00013	a1 00 00 00 00	 mov	 eax, DWORD PTR ?gObj@@3PAUOBJECTSTRUCT@@A ; gObj
  00018	80 bc 06 23 01
	00 00 1e	 cmp	 BYTE PTR [esi+eax+291], 30 ; 0000001eH
  00020	75 47		 jne	 SHORT $LN5@ClearNonDb@2
  00022	8a 8c 06 50 20
	00 00		 mov	 cl, BYTE PTR [esi+eax+8272]
  00029	84 c9		 test	 cl, cl
  0002b	74 3c		 je	 SHORT $LN5@ClearNonDb@2
  0002d	80 f9 01	 cmp	 cl, 1
  00030	74 37		 je	 SHORT $LN5@ClearNonDb@2

; 3317 : 		{
; 3318 : 			if(gObj[n].Class == 278)

  00032	b9 16 01 00 00	 mov	 ecx, 278		; 00000116H
  00037	66 39 8c 06 90
	00 00 00	 cmp	 WORD PTR [esi+eax+144], cx
  0003f	75 10		 jne	 SHORT $LN2@ClearNonDb@2

; 3319 : 			{
; 3320 : 				g_CsNPC_LifeStone.DeleteLifeStone(n);

  00041	57		 push	 edi
  00042	b9 00 00 00 00	 mov	 ecx, OFFSET ?g_CsNPC_LifeStone@@3VCLifeStone@@A ; g_CsNPC_LifeStone
  00047	e8 00 00 00 00	 call	 ?DeleteLifeStone@CLifeStone@@QAEHH@Z ; CLifeStone::DeleteLifeStone
  0004c	a1 00 00 00 00	 mov	 eax, DWORD PTR ?gObj@@3PAUOBJECTSTRUCT@@A ; gObj
$LN2@ClearNonDb@2:

; 3321 : 			}
; 3322 : 
; 3323 : 			if(gObj[n].Class == 278)

  00051	ba 16 01 00 00	 mov	 edx, 278		; 00000116H
  00056	66 39 94 06 90
	00 00 00	 cmp	 WORD PTR [esi+eax+144], dx
  0005e	75 09		 jne	 SHORT $LN5@ClearNonDb@2

; 3324 : 			{
; 3325 : 				gObjDel(n);

  00060	57		 push	 edi
  00061	e8 00 00 00 00	 call	 ?gObjDel@@YAFH@Z	; gObjDel
  00066	83 c4 04	 add	 esp, 4
$LN5@ClearNonDb@2:

; 3311 : 	for(int n = 0; n < OBJ_MAXMONSTER; n++)

  00069	81 c6 40 27 00
	00		 add	 esi, 10048		; 00002740H
  0006f	47		 inc	 edi
  00070	81 fe 00 dd 49
	06		 cmp	 esi, 105504000		; 0649dd00H
  00076	7c 8e		 jl	 SHORT $LL6@ClearNonDb@2

; 3326 : 			}
; 3327 : 		}
; 3328 : 	}
; 3329 : }

  00078	5f		 pop	 edi
  00079	5e		 pop	 esi
  0007a	c3		 ret	 0
?ClearNonDbNPC_MidWin@CCastleSiege@@QAEXXZ ENDP		; CCastleSiege::ClearNonDbNPC_MidWin
_TEXT	ENDS
PUBLIC	??_C@_0CH@BGBDJFNB@?$FLCastleSiege?$FN?5Crown?5State?5Change@ ; `string'
PUBLIC	??_C@_0EL@KHBPMGI@?$FLCastleSiege?$FN?5CCastleSiege?3?3Noti@ ; `string'
PUBLIC	?NotifyCrownState@CCastleSiege@@QAEXE@Z		; CCastleSiege::NotifyCrownState
;	COMDAT ??_C@_0CH@BGBDJFNB@?$FLCastleSiege?$FN?5Crown?5State?5Change@
; File c:\muserver_dev\development\mu-s8ep2-repack\gameserver\include\prodef.h
CONST	SEGMENT
??_C@_0CH@BGBDJFNB@?$FLCastleSiege?$FN?5Crown?5State?5Change@ DB '[Castle'
	DB	'Siege] Crown State Changed (%d)', 00H	; `string'
CONST	ENDS
;	COMDAT ??_C@_0EL@KHBPMGI@?$FLCastleSiege?$FN?5CCastleSiege?3?3Noti@
CONST	SEGMENT
??_C@_0EL@KHBPMGI@?$FLCastleSiege?$FN?5CCastleSiege?3?3Noti@ DB '[CastleS'
	DB	'iege] CCastleSiege::NotifyCrownState() - m_iCrownIndex isn''t'
	DB	' Valid', 00H				; `string'
; Function compile flags: /Ogtp
; File c:\muserver_dev\development\mu-s8ep2-repack\gameserver\source\castlesiege.cpp
CONST	ENDS
;	COMDAT ?NotifyCrownState@CCastleSiege@@QAEXE@Z
_TEXT	SEGMENT
_pMsg$ = -8						; size = 5
_btState$ = 8						; size = 1
?NotifyCrownState@CCastleSiege@@QAEXE@Z PROC		; CCastleSiege::NotifyCrownState, COMDAT
; _this$ = ecx

; 3338 : {

  00000	55		 push	 ebp
  00001	8b ec		 mov	 ebp, esp
  00003	83 ec 08	 sub	 esp, 8
  00006	56		 push	 esi
  00007	8b f1		 mov	 esi, ecx

; 3339 : 	if(gObjIsConnected(m_iCrownIndex) == FALSE)

  00009	8b 86 ec 01 00
	00		 mov	 eax, DWORD PTR [esi+492]
  0000f	50		 push	 eax
  00010	e8 00 00 00 00	 call	 ?gObjIsConnected@@YAHH@Z ; gObjIsConnected
  00015	83 c4 04	 add	 esp, 4
  00018	85 c0		 test	 eax, eax
  0001a	75 17		 jne	 SHORT $LN9@NotifyCrow
$LN17@NotifyCrow:

; 3340 : 	{
; 3341 : 		LogAddC(2,"[CastleSiege] CCastleSiege::NotifyCrownState() - m_iCrownIndex isn't Valid");

  0001c	68 00 00 00 00	 push	 OFFSET ??_C@_0EL@KHBPMGI@?$FLCastleSiege?$FN?5CCastleSiege?3?3Noti@
  00021	6a 02		 push	 2
  00023	ff 15 00 00 00
	00		 call	 DWORD PTR ?LogAddC@@3P6AXEPADZZA ; LogAddC
  00029	83 c4 08	 add	 esp, 8
  0002c	5e		 pop	 esi

; 3383 : }

  0002d	8b e5		 mov	 esp, ebp
  0002f	5d		 pop	 ebp
  00030	c2 04 00	 ret	 4
$LN9@NotifyCrow:

; 3342 : 		return;
; 3343 : 	}
; 3344 : 
; 3345 : 	if(gObj[m_iCrownIndex].Class != 216)

  00033	8b b6 ec 01 00
	00		 mov	 esi, DWORD PTR [esi+492]
  00039	69 f6 40 27 00
	00		 imul	 esi, 10048		; 00002740H
  0003f	03 35 00 00 00
	00		 add	 esi, DWORD PTR ?gObj@@3PAUOBJECTSTRUCT@@A ; gObj
  00045	b8 d8 00 00 00	 mov	 eax, 216		; 000000d8H
  0004a	66 39 86 90 00
	00 00		 cmp	 WORD PTR [esi+144], ax

; 3346 : 	{
; 3347 : 		LogAddC(2,"[CastleSiege] CCastleSiege::NotifyCrownState() - m_iCrownIndex isn't Valid");
; 3348 : 		return;

  00051	75 c9		 jne	 SHORT $LN17@NotifyCrow

; 3349 : 	}
; 3350 : 
; 3351 : 	LPOBJ lpObj = &gObj[m_iCrownIndex];
; 3352 : 
; 3353 : 	if( btState == FALSE )

  00053	80 7d 08 00	 cmp	 BYTE PTR _btState$[ebp], 0
  00057	75 17		 jne	 SHORT $LN7@NotifyCrow

; 3354 : 	{
; 3355 : 		gObjAddBuffEffect(lpObj,BUFF_CROWNREGISTER,0,0,0,0,-10);

  00059	6a f6		 push	 -10			; fffffff6H
  0005b	6a 00		 push	 0
  0005d	6a 00		 push	 0
  0005f	6a 00		 push	 0
  00061	6a 00		 push	 0
  00063	6a 14		 push	 20			; 00000014H
  00065	56		 push	 esi
  00066	e8 00 00 00 00	 call	 ?gObjAddBuffEffect@@YA_NPAUOBJECTSTRUCT@@HEHEHH@Z ; gObjAddBuffEffect
  0006b	83 c4 1c	 add	 esp, 28			; 0000001cH

; 3356 : 	}
; 3357 : 	else

  0006e	eb 0b		 jmp	 SHORT $LN6@NotifyCrow
$LN7@NotifyCrow:

; 3358 : 	{
; 3359 : 		gObjRemoveBuffEffect(lpObj,BUFF_CROWNREGISTER);

  00070	6a 14		 push	 20			; 00000014H
  00072	56		 push	 esi
  00073	e8 00 00 00 00	 call	 ?gObjRemoveBuffEffect@@YA_NPAUOBJECTSTRUCT@@H@Z ; gObjRemoveBuffEffect
  00078	83 c4 08	 add	 esp, 8
$LN6@NotifyCrow:

; 3360 : 	}
; 3361 : 
; 3362 : 	if(lpObj->VPCount2 < 1)

  0007b	83 be d0 0f 00
	00 01		 cmp	 DWORD PTR [esi+4048], 1
  00082	7c 6b		 jl	 SHORT $LN10@NotifyCrow

; 3363 : 		return;
; 3364 : 
; 3365 : 	PMSG_ANS_NOTIFYCROWNSTATE pMsg;
; 3366 : 
; 3367 : 	pMsg.h.set((PBYTE)&pMsg,0xB2,0x16,sizeof(pMsg));
; 3368 : 	pMsg.btCrownState = btState;

  00084	8a 4d 08	 mov	 cl, BYTE PTR _btState$[ebp]
  00087	57		 push	 edi
  00088	c7 45 f8 c1 05
	b2 16		 mov	 DWORD PTR _pMsg$[ebp], 380765633 ; 16b205c1H
  0008f	88 4d fc	 mov	 BYTE PTR _pMsg$[ebp+4], cl
  00092	81 c6 4a 0c 00
	00		 add	 esi, 3146		; 00000c4aH
  00098	bf 4b 00 00 00	 mov	 edi, 75			; 0000004bH
  0009d	8d 49 00	 npad	 3
$LL4@NotifyCrow:

; 3373 : 	{
; 3374 : 		tObjNum = lpObj->VpPlayer2[i].number;

  000a0	0f bf 06	 movsx	 eax, WORD PTR [esi]

; 3375 : 
; 3376 : 		if(tObjNum >= 0 && gObj[tObjNum].Type == OBJ_USER && gObj[tObjNum].Live != FALSE)

  000a3	85 c0		 test	 eax, eax
  000a5	78 2e		 js	 SHORT $LN3@NotifyCrow
  000a7	8b 0d 00 00 00
	00		 mov	 ecx, DWORD PTR ?gObj@@3PAUOBJECTSTRUCT@@A ; gObj
  000ad	8b d0		 mov	 edx, eax
  000af	69 d2 40 27 00
	00		 imul	 edx, 10048		; 00002740H
  000b5	80 7c 11 50 01	 cmp	 BYTE PTR [ecx+edx+80], 1
  000ba	75 19		 jne	 SHORT $LN3@NotifyCrow
  000bc	80 7c 11 51 00	 cmp	 BYTE PTR [ecx+edx+81], 0
  000c1	74 12		 je	 SHORT $LN3@NotifyCrow

; 3377 : 		{
; 3378 : 			DataSend(tObjNum,(PBYTE)&pMsg,pMsg.h.size);

  000c3	0f b6 55 f9	 movzx	 edx, BYTE PTR _pMsg$[ebp+1]
  000c7	52		 push	 edx
  000c8	8d 4d f8	 lea	 ecx, DWORD PTR _pMsg$[ebp]
  000cb	51		 push	 ecx
  000cc	50		 push	 eax
  000cd	e8 00 00 00 00	 call	 ?DataSend@@YAHHPAEK@Z	; DataSend
  000d2	83 c4 0c	 add	 esp, 12			; 0000000cH
$LN3@NotifyCrow:

; 3369 : 
; 3370 : 	int tObjNum = -1;
; 3371 : 
; 3372 : 	for(int i = 0; i < MAX_VIEWPORT; i++)

  000d5	83 c6 0c	 add	 esi, 12			; 0000000cH
  000d8	4f		 dec	 edi
  000d9	75 c5		 jne	 SHORT $LL4@NotifyCrow

; 3379 : 		}
; 3380 : 	}
; 3381 : 
; 3382 : 	LogAddTD("[CastleSiege] Crown State Changed (%d)",btState);

  000db	0f b6 55 08	 movzx	 edx, BYTE PTR _btState$[ebp]
  000df	52		 push	 edx
  000e0	68 00 00 00 00	 push	 OFFSET ??_C@_0CH@BGBDJFNB@?$FLCastleSiege?$FN?5Crown?5State?5Change@
  000e5	ff 15 00 00 00
	00		 call	 DWORD PTR ?LogAddTD@@3P6AXPADZZA ; LogAddTD
  000eb	83 c4 08	 add	 esp, 8
  000ee	5f		 pop	 edi
$LN10@NotifyCrow:
  000ef	5e		 pop	 esi

; 3383 : }

  000f0	8b e5		 mov	 esp, ebp
  000f2	5d		 pop	 ebp
  000f3	c2 04 00	 ret	 4
?NotifyCrownState@CCastleSiege@@QAEXE@Z ENDP		; CCastleSiege::NotifyCrownState
_TEXT	ENDS
PUBLIC	?ResetCrownSwitchUserIndex@CCastleSiege@@QAEXH@Z ; CCastleSiege::ResetCrownSwitchUserIndex
; Function compile flags: /Ogtp
;	COMDAT ?ResetCrownSwitchUserIndex@CCastleSiege@@QAEXH@Z
_TEXT	SEGMENT
_iMonsterClass$ = 8					; size = 4
?ResetCrownSwitchUserIndex@CCastleSiege@@QAEXH@Z PROC	; CCastleSiege::ResetCrownSwitchUserIndex, COMDAT
; _this$ = ecx

; 3386 : {

  00000	55		 push	 ebp
  00001	8b ec		 mov	 ebp, esp

; 3387 : 	switch(iMonsterClass)

  00003	8b 45 08	 mov	 eax, DWORD PTR _iMonsterClass$[ebp]
  00006	2d d9 00 00 00	 sub	 eax, 217		; 000000d9H
  0000b	74 11		 je	 SHORT $LN2@ResetCrown
  0000d	48		 dec	 eax
  0000e	75 18		 jne	 SHORT $LN3@ResetCrown

; 3391 : 		break;
; 3392 : 	case 218:
; 3393 : 		m_iCastleSwitchAccessUser2 = -1;

  00010	c7 81 fc 01 00
	00 ff ff ff ff	 mov	 DWORD PTR [ecx+508], -1

; 3394 : 		break;
; 3395 : 	}
; 3396 : }

  0001a	5d		 pop	 ebp
  0001b	c2 04 00	 ret	 4
$LN2@ResetCrown:

; 3388 : 	{
; 3389 : 	case 217:
; 3390 : 		m_iCastleSwitchAccessUser1 = -1;

  0001e	c7 81 f8 01 00
	00 ff ff ff ff	 mov	 DWORD PTR [ecx+504], -1
$LN3@ResetCrown:

; 3394 : 		break;
; 3395 : 	}
; 3396 : }

  00028	5d		 pop	 ebp
  00029	c2 04 00	 ret	 4
?ResetCrownSwitchUserIndex@CCastleSiege@@QAEXH@Z ENDP	; CCastleSiege::ResetCrownSwitchUserIndex
_TEXT	ENDS
PUBLIC	?SetCrownAccessUserY@CCastleSiege@@QAEXE@Z	; CCastleSiege::SetCrownAccessUserY
; Function compile flags: /Ogtp
;	COMDAT ?SetCrownAccessUserY@CCastleSiege@@QAEXE@Z
_TEXT	SEGMENT
_iY$ = 8						; size = 1
?SetCrownAccessUserY@CCastleSiege@@QAEXE@Z PROC		; CCastleSiege::SetCrownAccessUserY, COMDAT
; _this$ = ecx

; 3399 : {

  00000	55		 push	 ebp
  00001	8b ec		 mov	 ebp, esp

; 3400 : 	m_btCastleCrownAccessUserY = iY;

  00003	8a 45 08	 mov	 al, BYTE PTR _iY$[ebp]
  00006	88 81 f5 01 00
	00		 mov	 BYTE PTR [ecx+501], al

; 3401 : }

  0000c	5d		 pop	 ebp
  0000d	c2 04 00	 ret	 4
?SetCrownAccessUserY@CCastleSiege@@QAEXE@Z ENDP		; CCastleSiege::SetCrownAccessUserY
_TEXT	ENDS
PUBLIC	?SetCrownAccessUserX@CCastleSiege@@QAEXE@Z	; CCastleSiege::SetCrownAccessUserX
; Function compile flags: /Ogtp
;	COMDAT ?SetCrownAccessUserX@CCastleSiege@@QAEXE@Z
_TEXT	SEGMENT
_iX$ = 8						; size = 1
?SetCrownAccessUserX@CCastleSiege@@QAEXE@Z PROC		; CCastleSiege::SetCrownAccessUserX, COMDAT
; _this$ = ecx

; 3404 : {

  00000	55		 push	 ebp
  00001	8b ec		 mov	 ebp, esp

; 3405 : 	m_btCastleCrownAccessUserX = iX;

  00003	8a 45 08	 mov	 al, BYTE PTR _iX$[ebp]
  00006	88 81 f4 01 00
	00		 mov	 BYTE PTR [ecx+500], al

; 3406 : }

  0000c	5d		 pop	 ebp
  0000d	c2 04 00	 ret	 4
?SetCrownAccessUserX@CCastleSiege@@QAEXE@Z ENDP		; CCastleSiege::SetCrownAccessUserX
_TEXT	ENDS
PUBLIC	?ResetCrownUserIndex@CCastleSiege@@QAEXXZ	; CCastleSiege::ResetCrownUserIndex
; Function compile flags: /Ogtp
;	COMDAT ?ResetCrownUserIndex@CCastleSiege@@QAEXXZ
_TEXT	SEGMENT
?ResetCrownUserIndex@CCastleSiege@@QAEXXZ PROC		; CCastleSiege::ResetCrownUserIndex, COMDAT
; _this$ = ecx

; 3410 : 	m_iCastleCrownAccessUser = -1;

  00000	c7 81 f0 01 00
	00 ff ff ff ff	 mov	 DWORD PTR [ecx+496], -1

; 3411 : }

  0000a	c3		 ret	 0
?ResetCrownUserIndex@CCastleSiege@@QAEXXZ ENDP		; CCastleSiege::ResetCrownUserIndex
_TEXT	ENDS
PUBLIC	?ResetCrownAccessTickCount@CCastleSiege@@QAEXXZ	; CCastleSiege::ResetCrownAccessTickCount
; Function compile flags: /Ogtp
;	COMDAT ?ResetCrownAccessTickCount@CCastleSiege@@QAEXXZ
_TEXT	SEGMENT
?ResetCrownAccessTickCount@CCastleSiege@@QAEXXZ PROC	; CCastleSiege::ResetCrownAccessTickCount, COMDAT
; _this$ = ecx

; 3415 : 	m_dwCrownAccessTime = 0;

  00000	c7 81 00 02 00
	00 00 00 00 00	 mov	 DWORD PTR [ecx+512], 0

; 3416 : }

  0000a	c3		 ret	 0
?ResetCrownAccessTickCount@CCastleSiege@@QAEXXZ ENDP	; CCastleSiege::ResetCrownAccessTickCount
_TEXT	ENDS
PUBLIC	?SetCrownAccessTickCount@CCastleSiege@@QAEXXZ	; CCastleSiege::SetCrownAccessTickCount
; Function compile flags: /Ogtp
;	COMDAT ?SetCrownAccessTickCount@CCastleSiege@@QAEXXZ
_TEXT	SEGMENT
?SetCrownAccessTickCount@CCastleSiege@@QAEXXZ PROC	; CCastleSiege::SetCrownAccessTickCount, COMDAT
; _this$ = ecx

; 3419 : {

  00000	56		 push	 esi
  00001	8b f1		 mov	 esi, ecx

; 3420 : 	m_dwCrownAccessTime = GetTickCount();

  00003	ff 15 00 00 00
	00		 call	 DWORD PTR __imp__GetTickCount@0
  00009	89 86 00 02 00
	00		 mov	 DWORD PTR [esi+512], eax
  0000f	5e		 pop	 esi

; 3421 : }

  00010	c3		 ret	 0
?SetCrownAccessTickCount@CCastleSiege@@QAEXXZ ENDP	; CCastleSiege::SetCrownAccessTickCount
_TEXT	ENDS
PUBLIC	__$ArrayPad$
PUBLIC	?NotifyAllUserCsProgState@CCastleSiege@@QAEXEPAD@Z ; CCastleSiege::NotifyAllUserCsProgState
; Function compile flags: /Ogtp
;	COMDAT ?NotifyAllUserCsProgState@CCastleSiege@@QAEXEPAD@Z
_TEXT	SEGMENT
_pMsg$ = -20						; size = 13
__$ArrayPad$ = -4					; size = 4
_btProgState$ = 8					; size = 1
_lpszGuildName$ = 12					; size = 4
?NotifyAllUserCsProgState@CCastleSiege@@QAEXEPAD@Z PROC	; CCastleSiege::NotifyAllUserCsProgState, COMDAT
; _this$ = ecx

; 3431 : {

  00000	55		 push	 ebp
  00001	8b ec		 mov	 ebp, esp
  00003	83 ec 14	 sub	 esp, 20			; 00000014H
  00006	a1 00 00 00 00	 mov	 eax, DWORD PTR ___security_cookie
  0000b	33 c5		 xor	 eax, ebp
  0000d	89 45 fc	 mov	 DWORD PTR __$ArrayPad$[ebp], eax

; 3432 : 	PMSG_ANS_NOTIFYCSPROGRESS pMsg;
; 3433 : 	pMsg.h.set((LPBYTE)&pMsg,0xB2,0x18,sizeof(pMsg));
; 3434 : 	pMsg.btCastleSiegeState = btProgState;

  00010	8a 4d 08	 mov	 cl, BYTE PTR _btProgState$[ebp]
  00013	8b 45 0c	 mov	 eax, DWORD PTR _lpszGuildName$[ebp]

; 3435 : 	memset(pMsg.szGuildName,0x00,sizeof(pMsg.szGuildName));
; 3436 : 	memcpy(pMsg.szGuildName,lpszGuildName,sizeof(pMsg.szGuildName));

  00016	8b 10		 mov	 edx, DWORD PTR [eax]
  00018	8b 40 04	 mov	 eax, DWORD PTR [eax+4]
  0001b	88 4d f0	 mov	 BYTE PTR _pMsg$[ebp+4], cl
  0001e	33 c9		 xor	 ecx, ecx
  00020	56		 push	 esi
  00021	89 4d f5	 mov	 DWORD PTR _pMsg$[ebp+9], ecx
  00024	57		 push	 edi
  00025	89 4d f1	 mov	 DWORD PTR _pMsg$[ebp+5], ecx
  00028	89 45 f5	 mov	 DWORD PTR _pMsg$[ebp+9], eax

; 3439 : 	{
; 3440 : 		if(gObj[i].Connected == PLAYER_PLAYING
; 3441 : 			&& gObj[i].Type == OBJ_USER
; 3442 : 			&& gObj[i].MapNumber == MAP_INDEX_CASTLESIEGE)

  0002b	a1 00 00 00 00	 mov	 eax, DWORD PTR ?gObj@@3PAUOBJECTSTRUCT@@A ; gObj
  00030	c7 45 ec c1 0d
	b2 18		 mov	 DWORD PTR _pMsg$[ebp], 414322113 ; 18b20dc1H
  00037	89 55 f1	 mov	 DWORD PTR _pMsg$[ebp+5], edx
  0003a	bf 04 29 00 00	 mov	 edi, 10500		; 00002904H
  0003f	be 00 dd 49 06	 mov	 esi, 105504000		; 0649dd00H
$LL11@NotifyAllU@2:
  00044	83 7c 06 04 03	 cmp	 DWORD PTR [esi+eax+4], 3
  00049	75 28		 jne	 SHORT $LN3@NotifyAllU@2
  0004b	80 7c 06 50 01	 cmp	 BYTE PTR [esi+eax+80], 1
  00050	75 21		 jne	 SHORT $LN3@NotifyAllU@2
  00052	80 bc 06 23 01
	00 00 1e	 cmp	 BYTE PTR [esi+eax+291], 30 ; 0000001eH
  0005a	75 17		 jne	 SHORT $LN3@NotifyAllU@2

; 3443 : 		{
; 3444 : 			DataSend(i,(LPBYTE)&pMsg,pMsg.h.size);

  0005c	0f b6 4d ed	 movzx	 ecx, BYTE PTR _pMsg$[ebp+1]
  00060	51		 push	 ecx
  00061	8d 55 ec	 lea	 edx, DWORD PTR _pMsg$[ebp]
  00064	52		 push	 edx
  00065	57		 push	 edi
  00066	e8 00 00 00 00	 call	 ?DataSend@@YAHHPAEK@Z	; DataSend
  0006b	a1 00 00 00 00	 mov	 eax, DWORD PTR ?gObj@@3PAUOBJECTSTRUCT@@A ; gObj
  00070	83 c4 0c	 add	 esp, 12			; 0000000cH
$LN3@NotifyAllU@2:

; 3437 : 
; 3438 : 	for(int i = OBJ_STARTUSERINDEX; i < OBJMAX;i++)

  00073	81 c6 40 27 00
	00		 add	 esi, 10048		; 00002740H
  00079	47		 inc	 edi
  0007a	81 fe 00 2f e3
	06		 cmp	 esi, 115552000		; 06e32f00H
  00080	7c c2		 jl	 SHORT $LL11@NotifyAllU@2

; 3445 : 		}
; 3446 : 	}
; 3447 : }

  00082	8b 4d fc	 mov	 ecx, DWORD PTR __$ArrayPad$[ebp]
  00085	5f		 pop	 edi
  00086	33 cd		 xor	 ecx, ebp
  00088	5e		 pop	 esi
  00089	e8 00 00 00 00	 call	 @__security_check_cookie@4
  0008e	8b e5		 mov	 esp, ebp
  00090	5d		 pop	 ebp
  00091	c2 08 00	 ret	 8
?NotifyAllUserCsProgState@CCastleSiege@@QAEXEPAD@Z ENDP	; CCastleSiege::NotifyAllUserCsProgState
_TEXT	ENDS
PUBLIC	?SetCastleTowerAccessable@CCastleSiege@@QAEXH@Z	; CCastleSiege::SetCastleTowerAccessable
; Function compile flags: /Ogtp
;	COMDAT ?SetCastleTowerAccessable@CCastleSiege@@QAEXH@Z
_TEXT	SEGMENT
_bTowerAccessable$ = 8					; size = 4
?SetCastleTowerAccessable@CCastleSiege@@QAEXH@Z PROC	; CCastleSiege::SetCastleTowerAccessable, COMDAT
; _this$ = ecx

; 3501 : {

  00000	55		 push	 ebp
  00001	8b ec		 mov	 ebp, esp

; 3502 : 	m_bCastleTowerAccessable = bTowerAccessable;

  00003	8b 45 08	 mov	 eax, DWORD PTR _bTowerAccessable$[ebp]
  00006	89 81 e4 01 00
	00		 mov	 DWORD PTR [ecx+484], eax

; 3503 : }

  0000c	5d		 pop	 ebp
  0000d	c2 04 00	 ret	 4
?SetCastleTowerAccessable@CCastleSiege@@QAEXH@Z ENDP	; CCastleSiege::SetCastleTowerAccessable
_TEXT	ENDS
PUBLIC	?ClearCastleTowerBarrier@CCastleSiege@@QAEXXZ	; CCastleSiege::ClearCastleTowerBarrier
; Function compile flags: /Ogtp
;	COMDAT ?ClearCastleTowerBarrier@CCastleSiege@@QAEXXZ
_TEXT	SEGMENT
?ClearCastleTowerBarrier@CCastleSiege@@QAEXXZ PROC	; CCastleSiege::ClearCastleTowerBarrier, COMDAT
; _this$ = ecx

; 3506 : {

  00000	56		 push	 esi
  00001	57		 push	 edi

; 3507 : 	for(int iIDX = 0; iIDX < OBJ_MAXMONSTER; iIDX++)

  00002	33 ff		 xor	 edi, edi
  00004	33 f6		 xor	 esi, esi
$LL5@ClearCastl:

; 3508 : 	{
; 3509 : 		if(gObjIsConnected(iIDX)== FALSE)

  00006	57		 push	 edi
  00007	e8 00 00 00 00	 call	 ?gObjIsConnected@@YAHH@Z ; gObjIsConnected
  0000c	83 c4 04	 add	 esp, 4
  0000f	85 c0		 test	 eax, eax
  00011	74 1e		 je	 SHORT $LN4@ClearCastl

; 3510 : 			continue;
; 3511 : 
; 3512 : 		if(gObj[iIDX].Class == 215)

  00013	8b 0d 00 00 00
	00		 mov	 ecx, DWORD PTR ?gObj@@3PAUOBJECTSTRUCT@@A ; gObj
  00019	b8 d7 00 00 00	 mov	 eax, 215		; 000000d7H
  0001e	66 39 84 0e 90
	00 00 00	 cmp	 WORD PTR [esi+ecx+144], ax
  00026	75 09		 jne	 SHORT $LN4@ClearCastl

; 3513 : 		{
; 3514 : 			gObjDel(iIDX);

  00028	57		 push	 edi
  00029	e8 00 00 00 00	 call	 ?gObjDel@@YAFH@Z	; gObjDel
  0002e	83 c4 04	 add	 esp, 4
$LN4@ClearCastl:

; 3507 : 	for(int iIDX = 0; iIDX < OBJ_MAXMONSTER; iIDX++)

  00031	81 c6 40 27 00
	00		 add	 esi, 10048		; 00002740H
  00037	47		 inc	 edi
  00038	81 fe 00 dd 49
	06		 cmp	 esi, 105504000		; 0649dd00H
  0003e	7c c6		 jl	 SHORT $LL5@ClearCastl

; 3515 : 		}
; 3516 : 	}
; 3517 : }

  00040	5f		 pop	 edi
  00041	5e		 pop	 esi
  00042	c3		 ret	 0
?ClearCastleTowerBarrier@CCastleSiege@@QAEXXZ ENDP	; CCastleSiege::ClearCastleTowerBarrier
_TEXT	ENDS
PUBLIC	?CheckGuardianStatueExist@CCastleSiege@@QAEHXZ	; CCastleSiege::CheckGuardianStatueExist
; Function compile flags: /Ogtp
;	COMDAT ?CheckGuardianStatueExist@CCastleSiege@@QAEHXZ
_TEXT	SEGMENT
?CheckGuardianStatueExist@CCastleSiege@@QAEHXZ PROC	; CCastleSiege::CheckGuardianStatueExist, COMDAT
; _this$ = ecx

; 3521 : 	for(int iIDX = 0; iIDX < OBJ_MAXMONSTER; iIDX++)

  00000	8b 0d 00 00 00
	00		 mov	 ecx, DWORD PTR ?gObj@@3PAUOBJECTSTRUCT@@A ; gObj
  00006	33 d2		 xor	 edx, edx
  00008	83 c1 04	 add	 ecx, 4
  0000b	8d 42 01	 lea	 eax, DWORD PTR [edx+1]
  0000e	56		 push	 esi
  0000f	90		 npad	 1
$LL4@CheckGuard:

; 3522 : 	{
; 3523 : 		if(gObj[iIDX].Class == 283
; 3524 : 			&& gObj[iIDX].Connected > PLAYER_LOGGED
; 3525 : 			&& gObj[iIDX].Live == TRUE
; 3526 : 			&& gObj[iIDX].MapNumber == MAP_INDEX_CASTLESIEGE)

  00010	be 1b 01 00 00	 mov	 esi, 283		; 0000011bH
  00015	66 39 b1 8c 00
	00 00		 cmp	 WORD PTR [ecx+140], si
  0001c	75 13		 jne	 SHORT $LN3@CheckGuard
  0001e	83 39 02	 cmp	 DWORD PTR [ecx], 2
  00021	7e 0e		 jle	 SHORT $LN3@CheckGuard
  00023	38 41 4d	 cmp	 BYTE PTR [ecx+77], al
  00026	75 09		 jne	 SHORT $LN3@CheckGuard
  00028	80 b9 1f 01 00
	00 1e		 cmp	 BYTE PTR [ecx+287], 30	; 0000001eH
  0002f	74 12		 je	 SHORT $LN5@CheckGuard
$LN3@CheckGuard:

; 3521 : 	for(int iIDX = 0; iIDX < OBJ_MAXMONSTER; iIDX++)

  00031	03 d0		 add	 edx, eax
  00033	81 c1 40 27 00
	00		 add	 ecx, 10048		; 00002740H
  00039	81 fa 04 29 00
	00		 cmp	 edx, 10500		; 00002904H
  0003f	7c cf		 jl	 SHORT $LL4@CheckGuard

; 3527 : 		{
; 3528 : 			return true;
; 3529 : 		}
; 3530 : 	}
; 3531 : 	return false;

  00041	33 c0		 xor	 eax, eax
$LN5@CheckGuard:
  00043	5e		 pop	 esi

; 3532 : }

  00044	c3		 ret	 0
?CheckGuardianStatueExist@CCastleSiege@@QAEHXZ ENDP	; CCastleSiege::CheckGuardianStatueExist
_TEXT	ENDS
PUBLIC	?GetCastleState@CCastleSiege@@QAEHXZ		; CCastleSiege::GetCastleState
; Function compile flags: /Ogtp
;	COMDAT ?GetCastleState@CCastleSiege@@QAEHXZ
_TEXT	SEGMENT
?GetCastleState@CCastleSiege@@QAEHXZ PROC		; CCastleSiege::GetCastleState, COMDAT
; _this$ = ecx

; 3536 : 	return m_iCastleSiegeState;

  00000	8b 41 28	 mov	 eax, DWORD PTR [ecx+40]

; 3537 : }

  00003	c3		 ret	 0
?GetCastleState@CCastleSiege@@QAEHXZ ENDP		; CCastleSiege::GetCastleState
_TEXT	ENDS
PUBLIC	?GetCastleLeftSiegeDate@CCastleSiege@@QAE?AU_SYSTEMTIME@@XZ ; CCastleSiege::GetCastleLeftSiegeDate
; Function compile flags: /Ogtp
;	COMDAT ?GetCastleLeftSiegeDate@CCastleSiege@@QAE?AU_SYSTEMTIME@@XZ
_TEXT	SEGMENT
___$ReturnUdt$ = 8					; size = 4
?GetCastleLeftSiegeDate@CCastleSiege@@QAE?AU_SYSTEMTIME@@XZ PROC ; CCastleSiege::GetCastleLeftSiegeDate, COMDAT
; _this$ = ecx

; 3541 : {

  00000	55		 push	 ebp
  00001	8b ec		 mov	 ebp, esp

; 3542 : 	return m_tmLeftCastleSiegeDate;

  00003	8b 45 08	 mov	 eax, DWORD PTR ___$ReturnUdt$[ebp]
  00006	8b 91 80 00 00
	00		 mov	 edx, DWORD PTR [ecx+128]
  0000c	89 10		 mov	 DWORD PTR [eax], edx
  0000e	8b 91 84 00 00
	00		 mov	 edx, DWORD PTR [ecx+132]
  00014	89 50 04	 mov	 DWORD PTR [eax+4], edx
  00017	8b 91 88 00 00
	00		 mov	 edx, DWORD PTR [ecx+136]
  0001d	8b 89 8c 00 00
	00		 mov	 ecx, DWORD PTR [ecx+140]
  00023	89 50 08	 mov	 DWORD PTR [eax+8], edx
  00026	89 48 0c	 mov	 DWORD PTR [eax+12], ecx

; 3543 : }

  00029	5d		 pop	 ebp
  0002a	c2 04 00	 ret	 4
?GetCastleLeftSiegeDate@CCastleSiege@@QAE?AU_SYSTEMTIME@@XZ ENDP ; CCastleSiege::GetCastleLeftSiegeDate
_TEXT	ENDS
PUBLIC	?GetCastleStateTerm@CCastleSiege@@QAEHPAU_SYSTEMTIME@@0@Z ; CCastleSiege::GetCastleStateTerm
; Function compile flags: /Ogtp
;	COMDAT ?GetCastleStateTerm@CCastleSiege@@QAEHPAU_SYSTEMTIME@@0@Z
_TEXT	SEGMENT
_tmStateStartDate$ = 8					; size = 4
_tmStateEndDate$ = 12					; size = 4
?GetCastleStateTerm@CCastleSiege@@QAEHPAU_SYSTEMTIME@@0@Z PROC ; CCastleSiege::GetCastleStateTerm, COMDAT
; _this$ = ecx

; 3619 : {

  00000	55		 push	 ebp
  00001	8b ec		 mov	 ebp, esp
  00003	56		 push	 esi
  00004	8b f1		 mov	 esi, ecx

; 3620 : 	if(m_iCastleSiegeState < CASTLESIEGE_STATE_IDLE_1 || m_iCastleSiegeState > CASTLESIEGE_STATE_ENDCYCLE)

  00006	8b 46 28	 mov	 eax, DWORD PTR [esi+40]
  00009	85 c0		 test	 eax, eax
  0000b	78 5c		 js	 SHORT $LN2@GetCastleS
  0000d	83 f8 09	 cmp	 eax, 9
  00010	7f 57		 jg	 SHORT $LN2@GetCastleS

; 3623 : 	}
; 3624 : 
; 3625 : 	if(m_bDoRun == FALSE)

  00012	83 7e 14 00	 cmp	 DWORD PTR [esi+20], 0

; 3626 : 	{
; 3627 : 		return false;

  00016	74 51		 je	 SHORT $LN2@GetCastleS

; 3628 : 	}
; 3629 : 
; 3630 : 	*tmStateStartDate = m_tmStateStartDate;

  00018	8b 4e 70	 mov	 ecx, DWORD PTR [esi+112]
  0001b	8b 45 08	 mov	 eax, DWORD PTR _tmStateStartDate$[ebp]
  0001e	89 08		 mov	 DWORD PTR [eax], ecx
  00020	8b 56 74	 mov	 edx, DWORD PTR [esi+116]
  00023	89 50 04	 mov	 DWORD PTR [eax+4], edx
  00026	8b 4e 78	 mov	 ecx, DWORD PTR [esi+120]
  00029	57		 push	 edi

; 3631 : 	GetLocalTime(tmStateEndDate);

  0002a	8b 7d 0c	 mov	 edi, DWORD PTR _tmStateEndDate$[ebp]
  0002d	89 48 08	 mov	 DWORD PTR [eax+8], ecx
  00030	8b 56 7c	 mov	 edx, DWORD PTR [esi+124]
  00033	57		 push	 edi
  00034	89 50 0c	 mov	 DWORD PTR [eax+12], edx
  00037	ff 15 00 00 00
	00		 call	 DWORD PTR __imp__GetLocalTime@4

; 3632 : 	GetNextDay(tmStateEndDate,0,0,0,m_iCS_REMAIN_MSEC / 1000);

  0003d	b8 d3 4d 62 10	 mov	 eax, 274877907		; 10624dd3H
  00042	f7 6e 68	 imul	 DWORD PTR [esi+104]
  00045	c1 fa 06	 sar	 edx, 6
  00048	8b c2		 mov	 eax, edx
  0004a	c1 e8 1f	 shr	 eax, 31			; 0000001fH
  0004d	03 c2		 add	 eax, edx
  0004f	50		 push	 eax
  00050	6a 00		 push	 0
  00052	6a 00		 push	 0
  00054	6a 00		 push	 0
  00056	57		 push	 edi
  00057	8b ce		 mov	 ecx, esi
  00059	e8 00 00 00 00	 call	 ?GetNextDay@CCastleSiege@@QAEXPAU_SYSTEMTIME@@HHHH@Z ; CCastleSiege::GetNextDay
  0005e	5f		 pop	 edi

; 3633 : return true;

  0005f	b8 01 00 00 00	 mov	 eax, 1
  00064	5e		 pop	 esi

; 3634 : }

  00065	5d		 pop	 ebp
  00066	c2 08 00	 ret	 8
$LN2@GetCastleS:

; 3621 : 	{
; 3622 : 		return false;

  00069	33 c0		 xor	 eax, eax
  0006b	5e		 pop	 esi

; 3634 : }

  0006c	5d		 pop	 ebp
  0006d	c2 08 00	 ret	 8
?GetCastleStateTerm@CCastleSiege@@QAEHPAU_SYSTEMTIME@@0@Z ENDP ; CCastleSiege::GetCastleStateTerm
_TEXT	ENDS
PUBLIC	?GetCurRemainSec@CCastleSiege@@QAEHXZ		; CCastleSiege::GetCurRemainSec
; Function compile flags: /Ogtp
;	COMDAT ?GetCurRemainSec@CCastleSiege@@QAEHXZ
_TEXT	SEGMENT
?GetCurRemainSec@CCastleSiege@@QAEHXZ PROC		; CCastleSiege::GetCurRemainSec, COMDAT
; _this$ = ecx

; 3638 : 	if(m_iCS_REMAIN_MSEC < 0)

  00000	8b 49 68	 mov	 ecx, DWORD PTR [ecx+104]
  00003	85 c9		 test	 ecx, ecx
  00005	79 04		 jns	 SHORT $LN1@GetCurRema

; 3639 : 	{
; 3640 : 		return -1;

  00007	83 c8 ff	 or	 eax, -1

; 3643 : }

  0000a	c3		 ret	 0
$LN1@GetCurRema:

; 3641 : 	}
; 3642 : return m_iCS_REMAIN_MSEC / 1000;

  0000b	b8 d3 4d 62 10	 mov	 eax, 274877907		; 10624dd3H
  00010	f7 e9		 imul	 ecx
  00012	c1 fa 06	 sar	 edx, 6
  00015	8b c2		 mov	 eax, edx
  00017	c1 e8 1f	 shr	 eax, 31			; 0000001fH
  0001a	03 c2		 add	 eax, edx

; 3643 : }

  0001c	c3		 ret	 0
?GetCurRemainSec@CCastleSiege@@QAEHXZ ENDP		; CCastleSiege::GetCurRemainSec
_TEXT	ENDS
PUBLIC	?ClearDbNPC@CCastleSiege@@QAEXXZ		; CCastleSiege::ClearDbNPC
; Function compile flags: /Ogtp
;	COMDAT ?ClearDbNPC@CCastleSiege@@QAEXXZ
_TEXT	SEGMENT
?ClearDbNPC@CCastleSiege@@QAEXXZ PROC			; CCastleSiege::ClearDbNPC, COMDAT
; _this$ = ecx

; 3647 : 	for(int n = 0; n < OBJ_MAXMONSTER; n++)

  00000	a1 00 00 00 00	 mov	 eax, DWORD PTR ?gObj@@3PAUOBJECTSTRUCT@@A ; gObj
  00005	53		 push	 ebx
  00006	56		 push	 esi
  00007	57		 push	 edi
  00008	33 db		 xor	 ebx, ebx
  0000a	8b f9		 mov	 edi, ecx
  0000c	33 f6		 xor	 esi, esi
  0000e	8b ff		 npad	 2
$LL6@ClearDbNPC:

; 3648 : 	{
; 3649 : 		if(gObj[n].MapNumber == MAP_INDEX_CASTLESIEGE
; 3650 : 			&& (gObj[n].Class == 277 || gObj[n].Class == 283 || gObj[n].Class == 219))

  00010	80 bc 06 23 01
	00 00 1e	 cmp	 BYTE PTR [esi+eax+291], 30 ; 0000001eH
  00018	75 76		 jne	 SHORT $LN5@ClearDbNPC
  0001a	0f b7 8c 06 90
	00 00 00	 movzx	 ecx, WORD PTR [esi+eax+144]
  00022	ba 15 01 00 00	 mov	 edx, 277		; 00000115H
  00027	66 3b ca	 cmp	 cx, dx
  0002a	74 14		 je	 SHORT $LN2@ClearDbNPC
  0002c	ba 1b 01 00 00	 mov	 edx, 283		; 0000011bH
  00031	66 3b ca	 cmp	 cx, dx
  00034	74 0a		 je	 SHORT $LN2@ClearDbNPC
  00036	ba db 00 00 00	 mov	 edx, 219		; 000000dbH
  0003b	66 3b ca	 cmp	 cx, dx
  0003e	75 50		 jne	 SHORT $LN5@ClearDbNPC
$LN2@ClearDbNPC:

; 3651 : 		{
; 3652 : 			if(gObj[n].Class == 277)

  00040	ba 15 01 00 00	 mov	 edx, 277		; 00000115H
  00045	66 3b ca	 cmp	 cx, dx
  00048	75 38		 jne	 SHORT $LN1@ClearDbNPC

; 3653 : 			{
; 3654 : 				SetGateBlockState(gObj[n].X,gObj[n].Y,1);

  0004a	0f b6 8c 06 21
	01 00 00	 movzx	 ecx, BYTE PTR [esi+eax+289]
  00052	0f b6 94 06 20
	01 00 00	 movzx	 edx, BYTE PTR [esi+eax+288]
  0005a	6a 01		 push	 1
  0005c	51		 push	 ecx
  0005d	52		 push	 edx
  0005e	8b cf		 mov	 ecx, edi
  00060	e8 00 00 00 00	 call	 ?SetGateBlockState@CCastleSiege@@QAEXHHH@Z ; CCastleSiege::SetGateBlockState

; 3655 : 				gObjAddBuffEffect(&gObj[n],BUFF_GATESTATUS,0,0,0,0,-10);

  00065	a1 00 00 00 00	 mov	 eax, DWORD PTR ?gObj@@3PAUOBJECTSTRUCT@@A ; gObj
  0006a	6a f6		 push	 -10			; fffffff6H
  0006c	6a 00		 push	 0
  0006e	6a 00		 push	 0
  00070	6a 00		 push	 0
  00072	6a 00		 push	 0
  00074	8d 0c 06	 lea	 ecx, DWORD PTR [esi+eax]
  00077	6a 0d		 push	 13			; 0000000dH
  00079	51		 push	 ecx
  0007a	e8 00 00 00 00	 call	 ?gObjAddBuffEffect@@YA_NPAUOBJECTSTRUCT@@HEHEHH@Z ; gObjAddBuffEffect
  0007f	83 c4 1c	 add	 esp, 28			; 0000001cH
$LN1@ClearDbNPC:

; 3656 : 			}
; 3657 : 
; 3658 : 			gObjDel(n);

  00082	53		 push	 ebx
  00083	e8 00 00 00 00	 call	 ?gObjDel@@YAFH@Z	; gObjDel
  00088	a1 00 00 00 00	 mov	 eax, DWORD PTR ?gObj@@3PAUOBJECTSTRUCT@@A ; gObj
  0008d	83 c4 04	 add	 esp, 4
$LN5@ClearDbNPC:

; 3647 : 	for(int n = 0; n < OBJ_MAXMONSTER; n++)

  00090	81 c6 40 27 00
	00		 add	 esi, 10048		; 00002740H
  00096	43		 inc	 ebx
  00097	81 fe 00 dd 49
	06		 cmp	 esi, 105504000		; 0649dd00H
  0009d	0f 8c 6d ff ff
	ff		 jl	 $LL6@ClearDbNPC

; 3659 : 		}
; 3660 : 	}
; 3661 : }

  000a3	5f		 pop	 edi
  000a4	5e		 pop	 esi
  000a5	5b		 pop	 ebx
  000a6	c3		 ret	 0
?ClearDbNPC@CCastleSiege@@QAEXXZ ENDP			; CCastleSiege::ClearDbNPC
_TEXT	ENDS
PUBLIC	?GetCrownAccessTickCount@CCastleSiege@@QAEHXZ	; CCastleSiege::GetCrownAccessTickCount
; Function compile flags: /Ogtp
;	COMDAT ?GetCrownAccessTickCount@CCastleSiege@@QAEHXZ
_TEXT	SEGMENT
?GetCrownAccessTickCount@CCastleSiege@@QAEHXZ PROC	; CCastleSiege::GetCrownAccessTickCount, COMDAT
; _this$ = ecx

; 3801 : 	return m_dwCrownAccessTime;

  00000	8b 81 00 02 00
	00		 mov	 eax, DWORD PTR [ecx+512]

; 3802 : }

  00006	c3		 ret	 0
?GetCrownAccessTickCount@CCastleSiege@@QAEHXZ ENDP	; CCastleSiege::GetCrownAccessTickCount
_TEXT	ENDS
PUBLIC	?GetCrownSwitchUserIndex@CCastleSiege@@QAEHH@Z	; CCastleSiege::GetCrownSwitchUserIndex
; Function compile flags: /Ogtp
;	COMDAT ?GetCrownSwitchUserIndex@CCastleSiege@@QAEHH@Z
_TEXT	SEGMENT
_iMonsterClass$ = 8					; size = 4
?GetCrownSwitchUserIndex@CCastleSiege@@QAEHH@Z PROC	; CCastleSiege::GetCrownSwitchUserIndex, COMDAT
; _this$ = ecx

; 3888 : {

  00000	55		 push	 ebp
  00001	8b ec		 mov	 ebp, esp

; 3889 : int iUserIndex = -1;
; 3890 : 
; 3891 : 	switch(iMonsterClass)

  00003	8b 55 08	 mov	 edx, DWORD PTR _iMonsterClass$[ebp]
  00006	83 c8 ff	 or	 eax, -1
  00009	81 ea d9 00 00
	00		 sub	 edx, 217		; 000000d9H
  0000f	74 0d		 je	 SHORT $LN2@GetCrownSw
  00011	4a		 dec	 edx
  00012	75 10		 jne	 SHORT $LN3@GetCrownSw

; 3892 : 	{
; 3893 : 	case 217:
; 3894 : 		iUserIndex = m_iCastleSwitchAccessUser1;
; 3895 : 		break;
; 3896 : 	case 218:
; 3897 : 		iUserIndex = m_iCastleSwitchAccessUser2;
; 3898 : 		break;
; 3899 : 	}
; 3900 : 	return iUserIndex;

  00014	8b 81 fc 01 00
	00		 mov	 eax, DWORD PTR [ecx+508]

; 3901 : }

  0001a	5d		 pop	 ebp
  0001b	c2 04 00	 ret	 4
$LN2@GetCrownSw:

; 3892 : 	{
; 3893 : 	case 217:
; 3894 : 		iUserIndex = m_iCastleSwitchAccessUser1;
; 3895 : 		break;
; 3896 : 	case 218:
; 3897 : 		iUserIndex = m_iCastleSwitchAccessUser2;
; 3898 : 		break;
; 3899 : 	}
; 3900 : 	return iUserIndex;

  0001e	8b 81 f8 01 00
	00		 mov	 eax, DWORD PTR [ecx+504]
$LN3@GetCrownSw:

; 3901 : }

  00024	5d		 pop	 ebp
  00025	c2 04 00	 ret	 4
?GetCrownSwitchUserIndex@CCastleSiege@@QAEHH@Z ENDP	; CCastleSiege::GetCrownSwitchUserIndex
_TEXT	ENDS
PUBLIC	?GetCrownAccessUserX@CCastleSiege@@QAEHXZ	; CCastleSiege::GetCrownAccessUserX
; Function compile flags: /Ogtp
;	COMDAT ?GetCrownAccessUserX@CCastleSiege@@QAEHXZ
_TEXT	SEGMENT
?GetCrownAccessUserX@CCastleSiege@@QAEHXZ PROC		; CCastleSiege::GetCrownAccessUserX, COMDAT
; _this$ = ecx

; 3905 : 	return m_btCastleCrownAccessUserX;

  00000	0f b6 81 f4 01
	00 00		 movzx	 eax, BYTE PTR [ecx+500]

; 3906 : }

  00007	c3		 ret	 0
?GetCrownAccessUserX@CCastleSiege@@QAEHXZ ENDP		; CCastleSiege::GetCrownAccessUserX
_TEXT	ENDS
PUBLIC	?GetCrownAccessUserY@CCastleSiege@@QAEHXZ	; CCastleSiege::GetCrownAccessUserY
; Function compile flags: /Ogtp
;	COMDAT ?GetCrownAccessUserY@CCastleSiege@@QAEHXZ
_TEXT	SEGMENT
?GetCrownAccessUserY@CCastleSiege@@QAEHXZ PROC		; CCastleSiege::GetCrownAccessUserY, COMDAT
; _this$ = ecx

; 3910 : 	return m_btCastleCrownAccessUserY;

  00000	0f b6 81 f5 01
	00 00		 movzx	 eax, BYTE PTR [ecx+501]

; 3911 : }

  00007	c3		 ret	 0
?GetCrownAccessUserY@CCastleSiege@@QAEHXZ ENDP		; CCastleSiege::GetCrownAccessUserY
_TEXT	ENDS
PUBLIC	?GetCrownUserIndex@CCastleSiege@@QAEHXZ		; CCastleSiege::GetCrownUserIndex
; Function compile flags: /Ogtp
;	COMDAT ?GetCrownUserIndex@CCastleSiege@@QAEHXZ
_TEXT	SEGMENT
?GetCrownUserIndex@CCastleSiege@@QAEHXZ PROC		; CCastleSiege::GetCrownUserIndex, COMDAT
; _this$ = ecx

; 3915 : 	return m_iCastleCrownAccessUser;

  00000	8b 81 f0 01 00
	00		 mov	 eax, DWORD PTR [ecx+496]

; 3916 : }

  00006	c3		 ret	 0
?GetCrownUserIndex@CCastleSiege@@QAEHXZ ENDP		; CCastleSiege::GetCrownUserIndex
_TEXT	ENDS
PUBLIC	?SetRegCrownAvailable@CCastleSiege@@QAEXH@Z	; CCastleSiege::SetRegCrownAvailable
; Function compile flags: /Ogtp
;	COMDAT ?SetRegCrownAvailable@CCastleSiege@@QAEXH@Z
_TEXT	SEGMENT
_bRegCrownAvaible$ = 8					; size = 4
?SetRegCrownAvailable@CCastleSiege@@QAEXH@Z PROC	; CCastleSiege::SetRegCrownAvailable, COMDAT
; _this$ = ecx

; 3919 : {

  00000	55		 push	 ebp
  00001	8b ec		 mov	 ebp, esp

; 3920 : 	m_bRegCrownAvailable = bRegCrownAvaible;

  00003	8b 45 08	 mov	 eax, DWORD PTR _bRegCrownAvaible$[ebp]
  00006	89 81 e8 01 00
	00		 mov	 DWORD PTR [ecx+488], eax

; 3921 : }

  0000c	5d		 pop	 ebp
  0000d	c2 04 00	 ret	 4
?SetRegCrownAvailable@CCastleSiege@@QAEXH@Z ENDP	; CCastleSiege::SetRegCrownAvailable
_TEXT	ENDS
PUBLIC	?GetRegCrownAvailable@CCastleSiege@@QAEHXZ	; CCastleSiege::GetRegCrownAvailable
; Function compile flags: /Ogtp
;	COMDAT ?GetRegCrownAvailable@CCastleSiege@@QAEHXZ
_TEXT	SEGMENT
?GetRegCrownAvailable@CCastleSiege@@QAEHXZ PROC		; CCastleSiege::GetRegCrownAvailable, COMDAT
; _this$ = ecx

; 3925 : 	return m_bRegCrownAvailable;

  00000	8b 81 e8 01 00
	00		 mov	 eax, DWORD PTR [ecx+488]

; 3926 : }

  00006	c3		 ret	 0
?GetRegCrownAvailable@CCastleSiege@@QAEHXZ ENDP		; CCastleSiege::GetRegCrownAvailable
_TEXT	ENDS
PUBLIC	??4_CS_NPC_DATA@@QAEAAU0@ABU0@@Z		; _CS_NPC_DATA::operator=
; Function compile flags: /Ogtp
;	COMDAT ??4_CS_NPC_DATA@@QAEAAU0@ABU0@@Z
_TEXT	SEGMENT
___that$ = 8						; size = 4
??4_CS_NPC_DATA@@QAEAAU0@ABU0@@Z PROC			; _CS_NPC_DATA::operator=, COMDAT
; _this$ = ecx
  00000	55		 push	 ebp
  00001	8b ec		 mov	 ebp, esp
  00003	8b c1		 mov	 eax, ecx
  00005	8b 4d 08	 mov	 ecx, DWORD PTR ___that$[ebp]
  00008	8b 51 04	 mov	 edx, DWORD PTR [ecx+4]
  0000b	89 50 04	 mov	 DWORD PTR [eax+4], edx
  0000e	8b 51 08	 mov	 edx, DWORD PTR [ecx+8]
  00011	89 50 08	 mov	 DWORD PTR [eax+8], edx
  00014	8b 51 0c	 mov	 edx, DWORD PTR [ecx+12]
  00017	89 50 0c	 mov	 DWORD PTR [eax+12], edx
  0001a	8b 51 10	 mov	 edx, DWORD PTR [ecx+16]
  0001d	89 50 10	 mov	 DWORD PTR [eax+16], edx
  00020	8b 51 14	 mov	 edx, DWORD PTR [ecx+20]
  00023	89 50 14	 mov	 DWORD PTR [eax+20], edx
  00026	8b 51 18	 mov	 edx, DWORD PTR [ecx+24]
  00029	89 50 18	 mov	 DWORD PTR [eax+24], edx
  0002c	8b 51 1c	 mov	 edx, DWORD PTR [ecx+28]
  0002f	89 50 1c	 mov	 DWORD PTR [eax+28], edx
  00032	8b 51 20	 mov	 edx, DWORD PTR [ecx+32]
  00035	89 50 20	 mov	 DWORD PTR [eax+32], edx
  00038	8b 51 24	 mov	 edx, DWORD PTR [ecx+36]
  0003b	89 50 24	 mov	 DWORD PTR [eax+36], edx
  0003e	8b 51 28	 mov	 edx, DWORD PTR [ecx+40]
  00041	89 50 28	 mov	 DWORD PTR [eax+40], edx
  00044	8b 51 2c	 mov	 edx, DWORD PTR [ecx+44]
  00047	89 50 2c	 mov	 DWORD PTR [eax+44], edx
  0004a	8b 51 30	 mov	 edx, DWORD PTR [ecx+48]
  0004d	89 50 30	 mov	 DWORD PTR [eax+48], edx
  00050	8b 51 34	 mov	 edx, DWORD PTR [ecx+52]
  00053	89 50 34	 mov	 DWORD PTR [eax+52], edx
  00056	8b 51 38	 mov	 edx, DWORD PTR [ecx+56]
  00059	89 50 38	 mov	 DWORD PTR [eax+56], edx
  0005c	8b 51 3c	 mov	 edx, DWORD PTR [ecx+60]
  0005f	89 50 3c	 mov	 DWORD PTR [eax+60], edx
  00062	8b 51 40	 mov	 edx, DWORD PTR [ecx+64]
  00065	89 50 40	 mov	 DWORD PTR [eax+64], edx
  00068	8b 51 44	 mov	 edx, DWORD PTR [ecx+68]
  0006b	89 50 44	 mov	 DWORD PTR [eax+68], edx
  0006e	8b 51 48	 mov	 edx, DWORD PTR [ecx+72]
  00071	89 50 48	 mov	 DWORD PTR [eax+72], edx
  00074	8b 51 4c	 mov	 edx, DWORD PTR [ecx+76]
  00077	89 50 4c	 mov	 DWORD PTR [eax+76], edx
  0007a	8b 51 50	 mov	 edx, DWORD PTR [ecx+80]
  0007d	89 50 50	 mov	 DWORD PTR [eax+80], edx
  00080	8b 51 54	 mov	 edx, DWORD PTR [ecx+84]
  00083	89 50 54	 mov	 DWORD PTR [eax+84], edx
  00086	8b 51 58	 mov	 edx, DWORD PTR [ecx+88]
  00089	89 50 58	 mov	 DWORD PTR [eax+88], edx
  0008c	8b 51 5c	 mov	 edx, DWORD PTR [ecx+92]
  0008f	89 50 5c	 mov	 DWORD PTR [eax+92], edx
  00092	8b 51 60	 mov	 edx, DWORD PTR [ecx+96]
  00095	89 50 60	 mov	 DWORD PTR [eax+96], edx
  00098	8b 51 64	 mov	 edx, DWORD PTR [ecx+100]
  0009b	89 50 64	 mov	 DWORD PTR [eax+100], edx
  0009e	8b 51 68	 mov	 edx, DWORD PTR [ecx+104]
  000a1	89 50 68	 mov	 DWORD PTR [eax+104], edx
  000a4	8b 51 6c	 mov	 edx, DWORD PTR [ecx+108]
  000a7	89 50 6c	 mov	 DWORD PTR [eax+108], edx
  000aa	0f b6 51 70	 movzx	 edx, BYTE PTR [ecx+112]
  000ae	88 50 70	 mov	 BYTE PTR [eax+112], dl
  000b1	0f b6 51 71	 movzx	 edx, BYTE PTR [ecx+113]
  000b5	88 50 71	 mov	 BYTE PTR [eax+113], dl
  000b8	0f b6 51 72	 movzx	 edx, BYTE PTR [ecx+114]
  000bc	88 50 72	 mov	 BYTE PTR [eax+114], dl
  000bf	0f b6 51 73	 movzx	 edx, BYTE PTR [ecx+115]
  000c3	88 50 73	 mov	 BYTE PTR [eax+115], dl
  000c6	8b 49 70	 mov	 ecx, DWORD PTR [ecx+112]
  000c9	89 48 70	 mov	 DWORD PTR [eax+112], ecx
  000cc	5d		 pop	 ebp
  000cd	c2 04 00	 ret	 4
??4_CS_NPC_DATA@@QAEAAU0@ABU0@@Z ENDP			; _CS_NPC_DATA::operator=
_TEXT	ENDS
PUBLIC	??_C@_0EF@CMDHOJFE@?$FLCastleSiege?$FN?5?$FL?$CFs?$FN?$FL?$CFs?$FN?5Deleting?5@ ; `string'
PUBLIC	?DelGemOfDefend@CCastleSiege@@QAEHHH@Z		; CCastleSiege::DelGemOfDefend
EXTRN	?GCInventoryItemDeleteSend@@YAXHEE@Z:PROC	; GCInventoryItemDeleteSend
EXTRN	?gObjInventoryDeleteItem@@YAEHH@Z:PROC		; gObjInventoryDeleteItem
EXTRN	?gObjInventoryItemSet@@YAXHHE@Z:PROC		; gObjInventoryItemSet
EXTRN	?IsItem@CItem@@QAEHXZ:PROC			; CItem::IsItem
;	COMDAT ??_C@_0EF@CMDHOJFE@?$FLCastleSiege?$FN?5?$FL?$CFs?$FN?$FL?$CFs?$FN?5Deleting?5@
CONST	SEGMENT
??_C@_0EF@CMDHOJFE@?$FLCastleSiege?$FN?5?$FL?$CFs?$FN?$FL?$CFs?$FN?5Deleting?5@ DB '['
	DB	'CastleSiege] [%s][%s] Deleting Gem of Defend (GUILD:%s) - Ser'
	DB	'ial:%d', 00H				; `string'
; Function compile flags: /Ogtp
CONST	ENDS
;	COMDAT ?DelGemOfDefend@CCastleSiege@@QAEHHH@Z
_TEXT	SEGMENT
_iGemOfDefendDeletCount$ = -4				; size = 4
tv251 = 8						; size = 4
_iGemOfDefendCount$ = 8					; size = 4
_iIndex$ = 8						; size = 4
_iNeedGemOfDefend$ = 12					; size = 4
?DelGemOfDefend@CCastleSiege@@QAEHHH@Z PROC		; CCastleSiege::DelGemOfDefend, COMDAT
; _this$ = ecx

; 4225 : {

  00000	55		 push	 ebp
  00001	8b ec		 mov	 ebp, esp
  00003	51		 push	 ecx
  00004	53		 push	 ebx

; 4226 : 	if(gObjIsConnected(iIndex) == FALSE)

  00005	8b 5d 08	 mov	 ebx, DWORD PTR _iIndex$[ebp]
  00008	53		 push	 ebx
  00009	e8 00 00 00 00	 call	 ?gObjIsConnected@@YAHH@Z ; gObjIsConnected
  0000e	83 c4 04	 add	 esp, 4
  00011	85 c0		 test	 eax, eax
  00013	75 07		 jne	 SHORT $LN12@DelGemOfDe
  00015	5b		 pop	 ebx

; 4268 : }

  00016	8b e5		 mov	 esp, ebp
  00018	5d		 pop	 ebp
  00019	c2 08 00	 ret	 8
$LN12@DelGemOfDe:
  0001c	57		 push	 edi

; 4227 : 		return false;
; 4228 : 
; 4229 : 	if(iNeedGemOfDefend <= 0)

  0001d	33 ff		 xor	 edi, edi
  0001f	39 7d 0c	 cmp	 DWORD PTR _iNeedGemOfDefend$[ebp], edi
  00022	7f 0a		 jg	 SHORT $LN11@DelGemOfDe

; 4230 : 		return false;

  00024	5f		 pop	 edi
  00025	33 c0		 xor	 eax, eax
  00027	5b		 pop	 ebx

; 4268 : }

  00028	8b e5		 mov	 esp, ebp
  0002a	5d		 pop	 ebp
  0002b	c2 08 00	 ret	 8
$LN11@DelGemOfDe:

; 4231 : 
; 4232 : 	int iGemOfDefendCount = 0;

  0002e	a1 00 00 00 00	 mov	 eax, DWORD PTR ?gObj@@3PAUOBJECTSTRUCT@@A ; gObj
  00033	56		 push	 esi
  00034	8b f3		 mov	 esi, ebx
  00036	89 7d 08	 mov	 DWORD PTR _iGemOfDefendCount$[ebp], edi
  00039	69 f6 40 27 00
	00		 imul	 esi, 10048		; 00002740H
  0003f	90		 npad	 1
$LL10@DelGemOfDe:

; 4236 : 	{
; 4237 : 		if(gObj[iIndex].pInventory[x].IsItem() == TRUE
; 4238 : 			&& gObj[iIndex].pInventory[x].m_Type == ITEMGET(14,31))

  00040	8b 8c 06 c0 11
	00 00		 mov	 ecx, DWORD PTR [esi+eax+4544]
  00047	03 cf		 add	 ecx, edi
  00049	e8 00 00 00 00	 call	 ?IsItem@CItem@@QAEHXZ	; CItem::IsItem
  0004e	83 f8 01	 cmp	 eax, 1
  00051	a1 00 00 00 00	 mov	 eax, DWORD PTR ?gObj@@3PAUOBJECTSTRUCT@@A ; gObj
  00056	75 16		 jne	 SHORT $LN9@DelGemOfDe
  00058	8b 8c 06 c0 11
	00 00		 mov	 ecx, DWORD PTR [esi+eax+4544]
  0005f	ba 1f 1c 00 00	 mov	 edx, 7199		; 00001c1fH
  00064	66 39 54 39 06	 cmp	 WORD PTR [ecx+edi+6], dx
  00069	75 03		 jne	 SHORT $LN9@DelGemOfDe

; 4239 : 		{
; 4240 : 			iGemOfDefendCount++;

  0006b	ff 45 08	 inc	 DWORD PTR _iGemOfDefendCount$[ebp]
$LN9@DelGemOfDe:

; 4233 : 
; 4234 : 	int x;
; 4235 : 	for(x = 0; x < INVENTORY_SIZE; x++)

  0006e	81 c7 d4 00 00
	00		 add	 edi, 212		; 000000d4H
  00074	81 ff 44 c4 00
	00		 cmp	 edi, 50244		; 0000c444H
  0007a	7c c4		 jl	 SHORT $LL10@DelGemOfDe

; 4241 : 		}
; 4242 : 	}
; 4243 : 
; 4244 : 	if(iGemOfDefendCount < iNeedGemOfDefend)

  0007c	8b 4d 0c	 mov	 ecx, DWORD PTR _iNeedGemOfDefend$[ebp]
  0007f	39 4d 08	 cmp	 DWORD PTR _iGemOfDefendCount$[ebp], ecx
  00082	7d 0b		 jge	 SHORT $LN6@DelGemOfDe

; 4245 : 		return false;

  00084	5e		 pop	 esi
  00085	5f		 pop	 edi
  00086	33 c0		 xor	 eax, eax
  00088	5b		 pop	 ebx

; 4268 : }

  00089	8b e5		 mov	 esp, ebp
  0008b	5d		 pop	 ebp
  0008c	c2 08 00	 ret	 8
$LN6@DelGemOfDe:

; 4246 : 
; 4247 : 	int iGemOfDefendDeletCount = 0;

  0008f	33 ff		 xor	 edi, edi
  00091	89 7d fc	 mov	 DWORD PTR _iGemOfDefendDeletCount$[ebp], edi
  00094	89 7d 08	 mov	 DWORD PTR tv251[ebp], edi
  00097	eb 07 8d a4 24
	00 00 00 00	 npad	 9
$LL22@DelGemOfDe:

; 4250 : 	{
; 4251 : 		if(gObj[iIndex].pInventory[x].IsItem() == TRUE
; 4252 : 			&& gObj[iIndex].pInventory[x].m_Type == ITEMGET(14,31))

  000a0	8b 8c 06 c0 11
	00 00		 mov	 ecx, DWORD PTR [esi+eax+4544]
  000a7	03 4d 08	 add	 ecx, DWORD PTR tv251[ebp]
  000aa	e8 00 00 00 00	 call	 ?IsItem@CItem@@QAEHXZ	; CItem::IsItem
  000af	83 f8 01	 cmp	 eax, 1
  000b2	75 65		 jne	 SHORT $LN23@DelGemOfDe
  000b4	a1 00 00 00 00	 mov	 eax, DWORD PTR ?gObj@@3PAUOBJECTSTRUCT@@A ; gObj
  000b9	8b 4d 08	 mov	 ecx, DWORD PTR tv251[ebp]
  000bc	03 8c 06 c0 11
	00 00		 add	 ecx, DWORD PTR [esi+eax+4544]
  000c3	ba 1f 1c 00 00	 mov	 edx, 7199		; 00001c1fH
  000c8	66 39 51 06	 cmp	 WORD PTR [ecx+6], dx
  000cc	75 50		 jne	 SHORT $LN4@DelGemOfDe

; 4253 : 		{
; 4254 : 			LogAddTD("[CastleSiege] [%s][%s] Deleting Gem of Defend (GUILD:%s) - Serial:%d",
; 4255 : 				gObj[iIndex].AccountID,gObj[iIndex].Name,gObj[iIndex].GuildName,gObj[iIndex].pInventory[x].m_Number);

  000ce	8b 09		 mov	 ecx, DWORD PTR [ecx]
  000d0	51		 push	 ecx
  000d1	8d 94 06 1c 06
	00 00		 lea	 edx, DWORD PTR [esi+eax+1564]
  000d8	52		 push	 edx
  000d9	8d 4c 06 5d	 lea	 ecx, DWORD PTR [esi+eax+93]
  000dd	51		 push	 ecx
  000de	8d 54 06 52	 lea	 edx, DWORD PTR [esi+eax+82]
  000e2	52		 push	 edx
  000e3	68 00 00 00 00	 push	 OFFSET ??_C@_0EF@CMDHOJFE@?$FLCastleSiege?$FN?5?$FL?$CFs?$FN?$FL?$CFs?$FN?5Deleting?5@
  000e8	ff 15 00 00 00
	00		 call	 DWORD PTR ?LogAddTD@@3P6AXPADZZA ; LogAddTD

; 4256 : 
; 4257 : 			gObjInventoryItemSet(iIndex,x,0xFF);

  000ee	68 ff 00 00 00	 push	 255			; 000000ffH
  000f3	57		 push	 edi
  000f4	53		 push	 ebx
  000f5	e8 00 00 00 00	 call	 ?gObjInventoryItemSet@@YAXHHE@Z ; gObjInventoryItemSet

; 4258 : 			gObjInventoryDeleteItem(iIndex,x);

  000fa	57		 push	 edi
  000fb	53		 push	 ebx
  000fc	e8 00 00 00 00	 call	 ?gObjInventoryDeleteItem@@YAEHH@Z ; gObjInventoryDeleteItem

; 4259 : 			GCInventoryItemDeleteSend(iIndex,x,TRUE);

  00101	6a 01		 push	 1
  00103	57		 push	 edi
  00104	53		 push	 ebx
  00105	e8 00 00 00 00	 call	 ?GCInventoryItemDeleteSend@@YAXHEE@Z ; GCInventoryItemDeleteSend

; 4260 : 
; 4261 : 			iGemOfDefendDeletCount++;

  0010a	8b 45 fc	 mov	 eax, DWORD PTR _iGemOfDefendDeletCount$[ebp]
  0010d	40		 inc	 eax
  0010e	83 c4 34	 add	 esp, 52			; 00000034H
  00111	89 45 fc	 mov	 DWORD PTR _iGemOfDefendDeletCount$[ebp], eax

; 4262 : 
; 4263 : 			if(iGemOfDefendDeletCount >= iNeedGemOfDefend)

  00114	3b 45 0c	 cmp	 eax, DWORD PTR _iNeedGemOfDefend$[ebp]
  00117	7d 1e		 jge	 SHORT $LN17@DelGemOfDe
$LN23@DelGemOfDe:
  00119	a1 00 00 00 00	 mov	 eax, DWORD PTR ?gObj@@3PAUOBJECTSTRUCT@@A ; gObj
$LN4@DelGemOfDe:

; 4248 : 
; 4249 : 	for(x = 0; x < INVENTORY_SIZE; x++)

  0011e	8b 4d 08	 mov	 ecx, DWORD PTR tv251[ebp]
  00121	81 c1 d4 00 00
	00		 add	 ecx, 212		; 000000d4H
  00127	47		 inc	 edi
  00128	89 4d 08	 mov	 DWORD PTR tv251[ebp], ecx
  0012b	81 f9 44 c4 00
	00		 cmp	 ecx, 50244		; 0000c444H
  00131	0f 8c 69 ff ff
	ff		 jl	 $LL22@DelGemOfDe
$LN17@DelGemOfDe:
  00137	5e		 pop	 esi
  00138	5f		 pop	 edi

; 4264 : 				break;
; 4265 : 		}
; 4266 : 	}
; 4267 : 	return true;

  00139	b8 01 00 00 00	 mov	 eax, 1
  0013e	5b		 pop	 ebx

; 4268 : }

  0013f	8b e5		 mov	 esp, ebp
  00141	5d		 pop	 ebp
  00142	c2 08 00	 ret	 8
?DelGemOfDefend@CCastleSiege@@QAEHHH@Z ENDP		; CCastleSiege::DelGemOfDefend
_TEXT	ENDS
PUBLIC	?SendCsGateStateViewPort@CCastleSiege@@QAEXHE@Z	; CCastleSiege::SendCsGateStateViewPort
EXTRN	?GCAnsCsGateCurState@@YAXHHH@Z:PROC		; GCAnsCsGateCurState
; Function compile flags: /Ogtp
;	COMDAT ?SendCsGateStateViewPort@CCastleSiege@@QAEXHE@Z
_TEXT	SEGMENT
tv139 = 8						; size = 4
_iGateIndex$ = 8					; size = 4
_btOperate$ = 12					; size = 1
?SendCsGateStateViewPort@CCastleSiege@@QAEXHE@Z PROC	; CCastleSiege::SendCsGateStateViewPort, COMDAT
; _this$ = ecx

; 4576 : {

  00000	55		 push	 ebp
  00001	8b ec		 mov	 ebp, esp
  00003	53		 push	 ebx

; 4577 : 	if(gObjIsConnected(iGateIndex) == FALSE)

  00004	8b 5d 08	 mov	 ebx, DWORD PTR _iGateIndex$[ebp]
  00007	53		 push	 ebx
  00008	e8 00 00 00 00	 call	 ?gObjIsConnected@@YAHH@Z ; gObjIsConnected
  0000d	83 c4 04	 add	 esp, 4
  00010	85 c0		 test	 eax, eax
  00012	74 6e		 je	 SHORT $LN2@SendCsGate

; 4578 : 		return;
; 4579 : 	LPOBJ lpObj = &gObj[iGateIndex];

  00014	8b c3		 mov	 eax, ebx
  00016	69 c0 40 27 00
	00		 imul	 eax, 10048		; 00002740H
  0001c	03 05 00 00 00
	00		 add	 eax, DWORD PTR ?gObj@@3PAUOBJECTSTRUCT@@A ; gObj

; 4580 : 
; 4581 : 	if(lpObj->VPCount2 < 1)

  00022	83 b8 d0 0f 00
	00 01		 cmp	 DWORD PTR [eax+4048], 1
  00029	7c 57		 jl	 SHORT $LN2@SendCsGate

; 4582 : 		return;
; 4583 : 
; 4584 : 	int tObjNum = -1;
; 4585 : 
; 4586 : 	for(int i = 0; i < MAX_VIEWPORT;i++)

  0002b	56		 push	 esi
  0002c	57		 push	 edi
  0002d	8d b8 4a 0c 00
	00		 lea	 edi, DWORD PTR [eax+3146]
  00033	c7 45 08 4b 00
	00 00		 mov	 DWORD PTR tv139[ebp], 75 ; 0000004bH
  0003a	8d 9b 00 00 00
	00		 npad	 6
$LL12@SendCsGate:

; 4587 : 	{
; 4588 : 		tObjNum = lpObj->VpPlayer2[i].number;

  00040	0f bf 37	 movsx	 esi, WORD PTR [edi]

; 4589 : 
; 4590 : 		if(tObjNum >= 0 && gObj[tObjNum].Type == OBJ_USER && gObjIsConnected(tObjNum))

  00043	85 f6		 test	 esi, esi
  00045	78 31		 js	 SHORT $LN3@SendCsGate
  00047	8b 0d 00 00 00
	00		 mov	 ecx, DWORD PTR ?gObj@@3PAUOBJECTSTRUCT@@A ; gObj
  0004d	8b c6		 mov	 eax, esi
  0004f	69 c0 40 27 00
	00		 imul	 eax, 10048		; 00002740H
  00055	80 7c 08 50 01	 cmp	 BYTE PTR [eax+ecx+80], 1
  0005a	75 1c		 jne	 SHORT $LN3@SendCsGate
  0005c	56		 push	 esi
  0005d	e8 00 00 00 00	 call	 ?gObjIsConnected@@YAHH@Z ; gObjIsConnected
  00062	83 c4 04	 add	 esp, 4
  00065	85 c0		 test	 eax, eax
  00067	74 0f		 je	 SHORT $LN3@SendCsGate

; 4591 : 		{
; 4592 : 			GCAnsCsGateCurState(tObjNum,iGateIndex,btOperate);

  00069	0f b6 55 0c	 movzx	 edx, BYTE PTR _btOperate$[ebp]
  0006d	52		 push	 edx
  0006e	53		 push	 ebx
  0006f	56		 push	 esi
  00070	e8 00 00 00 00	 call	 ?GCAnsCsGateCurState@@YAXHHH@Z ; GCAnsCsGateCurState
  00075	83 c4 0c	 add	 esp, 12			; 0000000cH
$LN3@SendCsGate:

; 4582 : 		return;
; 4583 : 
; 4584 : 	int tObjNum = -1;
; 4585 : 
; 4586 : 	for(int i = 0; i < MAX_VIEWPORT;i++)

  00078	83 c7 0c	 add	 edi, 12			; 0000000cH
  0007b	ff 4d 08	 dec	 DWORD PTR tv139[ebp]
  0007e	75 c0		 jne	 SHORT $LL12@SendCsGate
  00080	5f		 pop	 edi
  00081	5e		 pop	 esi
$LN2@SendCsGate:
  00082	5b		 pop	 ebx

; 4593 : 		}
; 4594 : 	}
; 4595 : }

  00083	5d		 pop	 ebp
  00084	c2 08 00	 ret	 8
?SendCsGateStateViewPort@CCastleSiege@@QAEXHE@Z ENDP	; CCastleSiege::SendCsGateStateViewPort
_TEXT	ENDS
PUBLIC	?CheckCsGateAlive@CCastleSiege@@QAEHH@Z		; CCastleSiege::CheckCsGateAlive
; Function compile flags: /Ogtp
;	COMDAT ?CheckCsGateAlive@CCastleSiege@@QAEHH@Z
_TEXT	SEGMENT
_iGateIndex$ = 8					; size = 4
?CheckCsGateAlive@CCastleSiege@@QAEHH@Z PROC		; CCastleSiege::CheckCsGateAlive, COMDAT
; _this$ = ecx

; 4598 : {

  00000	55		 push	 ebp
  00001	8b ec		 mov	 ebp, esp
  00003	56		 push	 esi

; 4599 : 	if(gObjIsConnected(iGateIndex) == FALSE || gObj[iGateIndex].Class != 277)

  00004	8b 75 08	 mov	 esi, DWORD PTR _iGateIndex$[ebp]
  00007	56		 push	 esi
  00008	e8 00 00 00 00	 call	 ?gObjIsConnected@@YAHH@Z ; gObjIsConnected
  0000d	83 c4 04	 add	 esp, 4
  00010	85 c0		 test	 eax, eax
  00012	74 25		 je	 SHORT $LN1@CheckCsGat
  00014	8b 0d 00 00 00
	00		 mov	 ecx, DWORD PTR ?gObj@@3PAUOBJECTSTRUCT@@A ; gObj
  0001a	69 f6 40 27 00
	00		 imul	 esi, 10048		; 00002740H
  00020	b8 15 01 00 00	 mov	 eax, 277		; 00000115H
  00025	66 39 84 0e 90
	00 00 00	 cmp	 WORD PTR [esi+ecx+144], ax
  0002d	75 0a		 jne	 SHORT $LN1@CheckCsGat

; 4602 : 	}
; 4603 : 	return true;

  0002f	b8 01 00 00 00	 mov	 eax, 1
  00034	5e		 pop	 esi

; 4604 : }

  00035	5d		 pop	 ebp
  00036	c2 04 00	 ret	 4
$LN1@CheckCsGat:

; 4600 : 	{
; 4601 : 		return false;

  00039	33 c0		 xor	 eax, eax
  0003b	5e		 pop	 esi

; 4604 : }

  0003c	5d		 pop	 ebp
  0003d	c2 04 00	 ret	 4
?CheckCsGateAlive@CCastleSiege@@QAEHH@Z ENDP		; CCastleSiege::CheckCsGateAlive
_TEXT	ENDS
PUBLIC	?SetCrownIndex@CCastleSiege@@QAEXH@Z		; CCastleSiege::SetCrownIndex
; Function compile flags: /Ogtp
;	COMDAT ?SetCrownIndex@CCastleSiege@@QAEXH@Z
_TEXT	SEGMENT
_iIndex$ = 8						; size = 4
?SetCrownIndex@CCastleSiege@@QAEXH@Z PROC		; CCastleSiege::SetCrownIndex, COMDAT
; _this$ = ecx

; 4607 : {

  00000	55		 push	 ebp
  00001	8b ec		 mov	 ebp, esp

; 4608 : 	m_iCrownIndex = iIndex;

  00003	8b 45 08	 mov	 eax, DWORD PTR _iIndex$[ebp]
  00006	89 81 ec 01 00
	00		 mov	 DWORD PTR [ecx+492], eax

; 4609 : }

  0000c	5d		 pop	 ebp
  0000d	c2 04 00	 ret	 4
?SetCrownIndex@CCastleSiege@@QAEXH@Z ENDP		; CCastleSiege::SetCrownIndex
_TEXT	ENDS
PUBLIC	?GetCastleTowerAccessable@CCastleSiege@@QAEHXZ	; CCastleSiege::GetCastleTowerAccessable
; Function compile flags: /Ogtp
;	COMDAT ?GetCastleTowerAccessable@CCastleSiege@@QAEHXZ
_TEXT	SEGMENT
?GetCastleTowerAccessable@CCastleSiege@@QAEHXZ PROC	; CCastleSiege::GetCastleTowerAccessable, COMDAT
; _this$ = ecx

; 4613 : 	return m_bCastleTowerAccessable;

  00000	8b 81 e4 01 00
	00		 mov	 eax, DWORD PTR [ecx+484]

; 4614 : }

  00006	c3		 ret	 0
?GetCastleTowerAccessable@CCastleSiege@@QAEHXZ ENDP	; CCastleSiege::GetCastleTowerAccessable
_TEXT	ENDS
PUBLIC	??_C@_0DB@KBMNIOHF@?$FLCastleSiege?$FN?5Tax?5Rate?5Setted?5?9?5@ ; `string'
PUBLIC	?SetTaxRate@CCastleSiege@@QAEXHH@Z		; CCastleSiege::SetTaxRate
;	COMDAT ??_C@_0DB@KBMNIOHF@?$FLCastleSiege?$FN?5Tax?5Rate?5Setted?5?9?5@
CONST	SEGMENT
??_C@_0DB@KBMNIOHF@?$FLCastleSiege?$FN?5Tax?5Rate?5Setted?5?9?5@ DB '[Cas'
	DB	'tleSiege] Tax Rate Setted - Type:%d, Rate:%d', 00H ; `string'
; Function compile flags: /Ogtp
CONST	ENDS
;	COMDAT ?SetTaxRate@CCastleSiege@@QAEXHH@Z
_TEXT	SEGMENT
_iTaxType$ = 8						; size = 4
_iTaxRate$ = 12						; size = 4
?SetTaxRate@CCastleSiege@@QAEXHH@Z PROC			; CCastleSiege::SetTaxRate, COMDAT
; _this$ = ecx

; 4617 : {

  00000	55		 push	 ebp
  00001	8b ec		 mov	 ebp, esp
  00003	56		 push	 esi
  00004	57		 push	 edi

; 4618 : 	int iMaxTaxRate = 0;
; 4619 : 
; 4620 : 	switch(iTaxType)

  00005	8b 7d 08	 mov	 edi, DWORD PTR _iTaxType$[ebp]
  00008	8b c7		 mov	 eax, edi
  0000a	33 f6		 xor	 esi, esi
  0000c	48		 dec	 eax
  0000d	74 0d		 je	 SHORT $LN10@SetTaxRate
  0000f	48		 dec	 eax
  00010	74 0a		 je	 SHORT $LN10@SetTaxRate
  00012	48		 dec	 eax
  00013	75 0c		 jne	 SHORT $LN11@SetTaxRate

; 4624 : 		break;
; 4625 : 	case 2:
; 4626 : 		iMaxTaxRate = 3;
; 4627 : 		break;
; 4628 : 	case 3:
; 4629 : 		iMaxTaxRate = 300000;

  00015	be e0 93 04 00	 mov	 esi, 300000		; 000493e0H

; 4630 : 		break;

  0001a	eb 05		 jmp	 SHORT $LN11@SetTaxRate
$LN10@SetTaxRate:

; 4621 : 	{
; 4622 : 	case 1:
; 4623 : 		iMaxTaxRate = 3;

  0001c	be 03 00 00 00	 mov	 esi, 3
$LN11@SetTaxRate:

; 4631 : 	}
; 4632 : 
; 4633 : 	if(iTaxRate < 0 || iTaxRate > iMaxTaxRate)

  00021	8b 55 0c	 mov	 edx, DWORD PTR _iTaxRate$[ebp]
  00024	85 d2		 test	 edx, edx
  00026	78 35		 js	 SHORT $LN6@SetTaxRate
  00028	3b d6		 cmp	 edx, esi
  0002a	7f 31		 jg	 SHORT $LN6@SetTaxRate

; 4634 : 		return;
; 4635 : 
; 4636 : 	switch(iTaxType)

  0002c	8b c7		 mov	 eax, edi
  0002e	48		 dec	 eax
  0002f	74 16		 je	 SHORT $LN3@SetTaxRate
  00031	48		 dec	 eax
  00032	74 0b		 je	 SHORT $LN2@SetTaxRate
  00034	48		 dec	 eax
  00035	75 16		 jne	 SHORT $LN4@SetTaxRate

; 4644 : 	case 3:
; 4645 : 		m_iTaxHuntZone = iTaxRate;

  00037	89 91 f8 00 00
	00		 mov	 DWORD PTR [ecx+248], edx

; 4646 : 		break;

  0003d	eb 0e		 jmp	 SHORT $LN4@SetTaxRate
$LN2@SetTaxRate:

; 4640 : 		break;
; 4641 : 	case 2:
; 4642 : 		m_iTaxRateStore = iTaxRate;

  0003f	89 91 f4 00 00
	00		 mov	 DWORD PTR [ecx+244], edx

; 4643 : 		break;

  00045	eb 06		 jmp	 SHORT $LN4@SetTaxRate
$LN3@SetTaxRate:

; 4637 : 	{
; 4638 : 	case 1:
; 4639 : 		m_iTaxRateChaos = iTaxRate;

  00047	89 91 f0 00 00
	00		 mov	 DWORD PTR [ecx+240], edx
$LN4@SetTaxRate:

; 4647 : 	}
; 4648 : 
; 4649 : 	LogAddTD("[CastleSiege] Tax Rate Setted - Type:%d, Rate:%d",iTaxType,iTaxRate);

  0004d	52		 push	 edx
  0004e	57		 push	 edi
  0004f	68 00 00 00 00	 push	 OFFSET ??_C@_0DB@KBMNIOHF@?$FLCastleSiege?$FN?5Tax?5Rate?5Setted?5?9?5@
  00054	ff 15 00 00 00
	00		 call	 DWORD PTR ?LogAddTD@@3P6AXPADZZA ; LogAddTD
  0005a	83 c4 0c	 add	 esp, 12			; 0000000cH
$LN6@SetTaxRate:
  0005d	5f		 pop	 edi
  0005e	5e		 pop	 esi

; 4650 : }

  0005f	5d		 pop	 ebp
  00060	c2 08 00	 ret	 8
?SetTaxRate@CCastleSiege@@QAEXHH@Z ENDP			; CCastleSiege::SetTaxRate
_TEXT	ENDS
PUBLIC	?CheckCastleHasMoney@CCastleSiege@@QAEH_J@Z	; CCastleSiege::CheckCastleHasMoney
; Function compile flags: /Ogtp
;	COMDAT ?CheckCastleHasMoney@CCastleSiege@@QAEH_J@Z
_TEXT	SEGMENT
_i64CastleMoney$ = 8					; size = 8
?CheckCastleHasMoney@CCastleSiege@@QAEH_J@Z PROC	; CCastleSiege::CheckCastleHasMoney, COMDAT
; _this$ = ecx

; 4653 : {

  00000	55		 push	 ebp
  00001	8b ec		 mov	 ebp, esp

; 4654 : 	if(m_i64CastleMoney >= i64CastleMoney)

  00003	8b 81 ec 00 00
	00		 mov	 eax, DWORD PTR [ecx+236]
  00009	3b 45 0c	 cmp	 eax, DWORD PTR _i64CastleMoney$[ebp+4]
  0000c	7c 16		 jl	 SHORT $LN1@CheckCastl
  0000e	7f 0b		 jg	 SHORT $LN4@CheckCastl
  00010	8b 89 e8 00 00
	00		 mov	 ecx, DWORD PTR [ecx+232]
  00016	3b 4d 08	 cmp	 ecx, DWORD PTR _i64CastleMoney$[ebp]
  00019	72 09		 jb	 SHORT $LN1@CheckCastl
$LN4@CheckCastl:

; 4655 : 	{
; 4656 : 		return true;

  0001b	b8 01 00 00 00	 mov	 eax, 1

; 4659 : }

  00020	5d		 pop	 ebp
  00021	c2 08 00	 ret	 8
$LN1@CheckCastl:

; 4657 : 	}
; 4658 : return false;

  00024	33 c0		 xor	 eax, eax

; 4659 : }

  00026	5d		 pop	 ebp
  00027	c2 08 00	 ret	 8
?CheckCastleHasMoney@CCastleSiege@@QAEH_J@Z ENDP	; CCastleSiege::CheckCastleHasMoney
_TEXT	ENDS
PUBLIC	?SetCastleMoney@CCastleSiege@@QAEX_J@Z		; CCastleSiege::SetCastleMoney
; Function compile flags: /Ogtp
;	COMDAT ?SetCastleMoney@CCastleSiege@@QAEX_J@Z
_TEXT	SEGMENT
_i64CastleMoney$ = 8					; size = 8
?SetCastleMoney@CCastleSiege@@QAEX_J@Z PROC		; CCastleSiege::SetCastleMoney, COMDAT
; _this$ = ecx

; 4662 : {

  00000	55		 push	 ebp
  00001	8b ec		 mov	 ebp, esp

; 4663 : 	m_i64CastleMoney = i64CastleMoney;

  00003	8b 45 08	 mov	 eax, DWORD PTR _i64CastleMoney$[ebp]
  00006	8b 55 0c	 mov	 edx, DWORD PTR _i64CastleMoney$[ebp+4]
  00009	89 81 e8 00 00
	00		 mov	 DWORD PTR [ecx+232], eax
  0000f	89 91 ec 00 00
	00		 mov	 DWORD PTR [ecx+236], edx

; 4664 : }

  00015	5d		 pop	 ebp
  00016	c2 08 00	 ret	 8
?SetCastleMoney@CCastleSiege@@QAEX_J@Z ENDP		; CCastleSiege::SetCastleMoney
_TEXT	ENDS
PUBLIC	?ResetCastleTaxInfo@CCastleSiege@@QAEXXZ	; CCastleSiege::ResetCastleTaxInfo
; Function compile flags: /Ogtp
;	COMDAT ?ResetCastleTaxInfo@CCastleSiege@@QAEXXZ
_TEXT	SEGMENT
?ResetCastleTaxInfo@CCastleSiege@@QAEXXZ PROC		; CCastleSiege::ResetCastleTaxInfo, COMDAT
; _this$ = ecx

; 4668 : 	m_i64CastleMoney = 0;

  00000	33 c0		 xor	 eax, eax
  00002	89 81 e8 00 00
	00		 mov	 DWORD PTR [ecx+232], eax
  00008	89 81 ec 00 00
	00		 mov	 DWORD PTR [ecx+236], eax

; 4669 : 	m_iTaxRateChaos = 0;

  0000e	89 81 f0 00 00
	00		 mov	 DWORD PTR [ecx+240], eax

; 4670 : 	m_iTaxRateStore = 0;

  00014	89 81 f4 00 00
	00		 mov	 DWORD PTR [ecx+244], eax

; 4671 : 	m_iTaxHuntZone = 0;

  0001a	89 81 f8 00 00
	00		 mov	 DWORD PTR [ecx+248], eax

; 4672 : }

  00020	c3		 ret	 0
?ResetCastleTaxInfo@CCastleSiege@@QAEXXZ ENDP		; CCastleSiege::ResetCastleTaxInfo
_TEXT	ENDS
PUBLIC	?SetIsSiegeGuildList@CCastleSiege@@QAEXH@Z	; CCastleSiege::SetIsSiegeGuildList
; Function compile flags: /Ogtp
;	COMDAT ?SetIsSiegeGuildList@CCastleSiege@@QAEXH@Z
_TEXT	SEGMENT
_bIsSiegGuildList$ = 8					; size = 4
?SetIsSiegeGuildList@CCastleSiege@@QAEXH@Z PROC		; CCastleSiege::SetIsSiegeGuildList, COMDAT
; _this$ = ecx

; 4675 : {

  00000	55		 push	 ebp
  00001	8b ec		 mov	 ebp, esp

; 4676 : 	m_btIsSiegeGuildList = bIsSiegGuildList;

  00003	8a 45 08	 mov	 al, BYTE PTR _bIsSiegGuildList$[ebp]
  00006	88 81 d4 00 00
	00		 mov	 BYTE PTR [ecx+212], al

; 4677 : }

  0000c	5d		 pop	 ebp
  0000d	c2 04 00	 ret	 4
?SetIsSiegeGuildList@CCastleSiege@@QAEXH@Z ENDP		; CCastleSiege::SetIsSiegeGuildList
_TEXT	ENDS
PUBLIC	?SendCastleStateSync@CCastleSiege@@QAEXXZ	; CCastleSiege::SendCastleStateSync
EXTRN	?GS_GDReqCastleStateSync@@YAXHHHHHPAD@Z:PROC	; GS_GDReqCastleStateSync
; Function compile flags: /Ogtp
;	COMDAT ?SendCastleStateSync@CCastleSiege@@QAEXXZ
_TEXT	SEGMENT
?SendCastleStateSync@CCastleSiege@@QAEXXZ PROC		; CCastleSiege::SendCastleStateSync, COMDAT
; _this$ = ecx

; 4681 : 	GS_GDReqCastleStateSync(m_iMapSvrGroup,m_iCastleSiegeState,m_iTaxRateChaos,m_iTaxRateStore,m_iTaxHuntZone,m_szCastleOwnerGuild);

  00000	8b 91 f8 00 00
	00		 mov	 edx, DWORD PTR [ecx+248]
  00006	8d 81 d7 00 00
	00		 lea	 eax, DWORD PTR [ecx+215]
  0000c	50		 push	 eax
  0000d	8b 81 f4 00 00
	00		 mov	 eax, DWORD PTR [ecx+244]
  00013	52		 push	 edx
  00014	8b 91 f0 00 00
	00		 mov	 edx, DWORD PTR [ecx+240]
  0001a	50		 push	 eax
  0001b	8b 41 28	 mov	 eax, DWORD PTR [ecx+40]
  0001e	8b 49 18	 mov	 ecx, DWORD PTR [ecx+24]
  00021	52		 push	 edx
  00022	50		 push	 eax
  00023	51		 push	 ecx
  00024	e8 00 00 00 00	 call	 ?GS_GDReqCastleStateSync@@YAXHHHHHPAD@Z ; GS_GDReqCastleStateSync
  00029	83 c4 18	 add	 esp, 24			; 00000018H

; 4682 : }

  0002c	c3		 ret	 0
?SendCastleStateSync@CCastleSiege@@QAEXXZ ENDP		; CCastleSiege::SendCastleStateSync
_TEXT	ENDS
PUBLIC	?GetDbNpcCreated@CCastleSiege@@QAEHXZ		; CCastleSiege::GetDbNpcCreated
; Function compile flags: /Ogtp
;	COMDAT ?GetDbNpcCreated@CCastleSiege@@QAEHXZ
_TEXT	SEGMENT
?GetDbNpcCreated@CCastleSiege@@QAEHXZ PROC		; CCastleSiege::GetDbNpcCreated, COMDAT
; _this$ = ecx

; 4686 : 	return m_bDbNpcCreated;

  00000	8b 81 50 01 00
	00		 mov	 eax, DWORD PTR [ecx+336]

; 4687 : }

  00006	c3		 ret	 0
?GetDbNpcCreated@CCastleSiege@@QAEHXZ ENDP		; CCastleSiege::GetDbNpcCreated
_TEXT	ENDS
PUBLIC	?SetDbNpcCreated@CCastleSiege@@QAEXH@Z		; CCastleSiege::SetDbNpcCreated
; Function compile flags: /Ogtp
;	COMDAT ?SetDbNpcCreated@CCastleSiege@@QAEXH@Z
_TEXT	SEGMENT
_bDbNpcCreated$ = 8					; size = 4
?SetDbNpcCreated@CCastleSiege@@QAEXH@Z PROC		; CCastleSiege::SetDbNpcCreated, COMDAT
; _this$ = ecx

; 4690 : {

  00000	55		 push	 ebp
  00001	8b ec		 mov	 ebp, esp

; 4691 : 	m_bDbNpcCreated = bDbNpcCreated;

  00003	8b 45 08	 mov	 eax, DWORD PTR _bDbNpcCreated$[ebp]
  00006	89 81 50 01 00
	00		 mov	 DWORD PTR [ecx+336], eax

; 4692 : }

  0000c	5d		 pop	 ebp
  0000d	c2 04 00	 ret	 4
?SetDbNpcCreated@CCastleSiege@@QAEXH@Z ENDP		; CCastleSiege::SetDbNpcCreated
_TEXT	ENDS
PUBLIC	??_C@_00CNPNBAHC@?$AA@				; `string'
PUBLIC	?CheckGuildOwnCastle@CCastleSiege@@QAEHPAD@Z	; CCastleSiege::CheckGuildOwnCastle
;	COMDAT ??_C@_00CNPNBAHC@?$AA@
CONST	SEGMENT
??_C@_00CNPNBAHC@?$AA@ DB 00H				; `string'
; Function compile flags: /Ogtp
CONST	ENDS
;	COMDAT ?CheckGuildOwnCastle@CCastleSiege@@QAEHPAD@Z
_TEXT	SEGMENT
_lpszGuildName$ = 8					; size = 4
?CheckGuildOwnCastle@CCastleSiege@@QAEHPAD@Z PROC	; CCastleSiege::CheckGuildOwnCastle, COMDAT
; _this$ = ecx

; 4695 : {

  00000	55		 push	 ebp
  00001	8b ec		 mov	 ebp, esp
  00003	57		 push	 edi

; 4696 : 	if(lpszGuildName == NULL)

  00004	8b 7d 08	 mov	 edi, DWORD PTR _lpszGuildName$[ebp]
  00007	85 ff		 test	 edi, edi
  00009	75 07		 jne	 SHORT $LN3@CheckGuild

; 4697 : 		return false;

  0000b	33 c0		 xor	 eax, eax
  0000d	5f		 pop	 edi

; 4703 : 		return true;
; 4704 : 
; 4705 : return false;
; 4706 : }

  0000e	5d		 pop	 ebp
  0000f	c2 04 00	 ret	 4
$LN3@CheckGuild:
  00012	56		 push	 esi

; 4698 : 
; 4699 : 	if(strcmp(m_szCastleOwnerGuild,"") == NULL)

  00013	8d b1 d7 00 00
	00		 lea	 esi, DWORD PTR [ecx+215]
  00019	b9 00 00 00 00	 mov	 ecx, OFFSET ??_C@_00CNPNBAHC@?$AA@
  0001e	8b c6		 mov	 eax, esi
$LL6@CheckGuild:
  00020	8a 10		 mov	 dl, BYTE PTR [eax]
  00022	3a 11		 cmp	 dl, BYTE PTR [ecx]
  00024	75 1a		 jne	 SHORT $LN7@CheckGuild
  00026	84 d2		 test	 dl, dl
  00028	74 12		 je	 SHORT $LN8@CheckGuild
  0002a	8a 50 01	 mov	 dl, BYTE PTR [eax+1]
  0002d	3a 51 01	 cmp	 dl, BYTE PTR [ecx+1]
  00030	75 0e		 jne	 SHORT $LN7@CheckGuild
  00032	83 c0 02	 add	 eax, 2
  00035	83 c1 02	 add	 ecx, 2
  00038	84 d2		 test	 dl, dl
  0003a	75 e4		 jne	 SHORT $LL6@CheckGuild
$LN8@CheckGuild:
  0003c	33 c0		 xor	 eax, eax
  0003e	eb 05		 jmp	 SHORT $LN9@CheckGuild
$LN7@CheckGuild:
  00040	1b c0		 sbb	 eax, eax
  00042	83 d8 ff	 sbb	 eax, -1
$LN9@CheckGuild:
  00045	85 c0		 test	 eax, eax
  00047	75 06		 jne	 SHORT $LN2@CheckGuild
  00049	5e		 pop	 esi
  0004a	5f		 pop	 edi

; 4703 : 		return true;
; 4704 : 
; 4705 : return false;
; 4706 : }

  0004b	5d		 pop	 ebp
  0004c	c2 04 00	 ret	 4
$LN2@CheckGuild:

; 4700 : 		return false;
; 4701 : 
; 4702 : 	if(strcmp(m_szCastleOwnerGuild,lpszGuildName) == NULL)

  0004f	8b cf		 mov	 ecx, edi
  00051	8b c6		 mov	 eax, esi
$LL10@CheckGuild:
  00053	8a 10		 mov	 dl, BYTE PTR [eax]
  00055	3a 11		 cmp	 dl, BYTE PTR [ecx]
  00057	75 27		 jne	 SHORT $LN11@CheckGuild
  00059	84 d2		 test	 dl, dl
  0005b	74 12		 je	 SHORT $LN12@CheckGuild
  0005d	8a 50 01	 mov	 dl, BYTE PTR [eax+1]
  00060	3a 51 01	 cmp	 dl, BYTE PTR [ecx+1]
  00063	75 1b		 jne	 SHORT $LN11@CheckGuild
  00065	83 c0 02	 add	 eax, 2
  00068	83 c1 02	 add	 ecx, 2
  0006b	84 d2		 test	 dl, dl
  0006d	75 e4		 jne	 SHORT $LL10@CheckGuild
$LN12@CheckGuild:
  0006f	33 c0		 xor	 eax, eax
  00071	33 c9		 xor	 ecx, ecx
  00073	85 c0		 test	 eax, eax
  00075	0f 94 c1	 sete	 cl
  00078	5e		 pop	 esi
  00079	5f		 pop	 edi
  0007a	8b c1		 mov	 eax, ecx

; 4703 : 		return true;
; 4704 : 
; 4705 : return false;
; 4706 : }

  0007c	5d		 pop	 ebp
  0007d	c2 04 00	 ret	 4
$LN11@CheckGuild:

; 4700 : 		return false;
; 4701 : 
; 4702 : 	if(strcmp(m_szCastleOwnerGuild,lpszGuildName) == NULL)

  00080	1b c0		 sbb	 eax, eax
  00082	83 d8 ff	 sbb	 eax, -1
  00085	33 c9		 xor	 ecx, ecx
  00087	85 c0		 test	 eax, eax
  00089	0f 94 c1	 sete	 cl
  0008c	5e		 pop	 esi
  0008d	5f		 pop	 edi
  0008e	8b c1		 mov	 eax, ecx

; 4703 : 		return true;
; 4704 : 
; 4705 : return false;
; 4706 : }

  00090	5d		 pop	 ebp
  00091	c2 04 00	 ret	 4
?CheckGuildOwnCastle@CCastleSiege@@QAEHPAD@Z ENDP	; CCastleSiege::CheckGuildOwnCastle
_TEXT	ENDS
PUBLIC	?GetHuntZoneEnter@CCastleSiege@@QAEHXZ		; CCastleSiege::GetHuntZoneEnter
; Function compile flags: /Ogtp
;	COMDAT ?GetHuntZoneEnter@CCastleSiege@@QAEHXZ
_TEXT	SEGMENT
?GetHuntZoneEnter@CCastleSiege@@QAEHXZ PROC		; CCastleSiege::GetHuntZoneEnter, COMDAT
; _this$ = ecx

; 4729 : 	return m_bEnterHuntZone;

  00000	8b 81 fc 00 00
	00		 mov	 eax, DWORD PTR [ecx+252]

; 4730 : }

  00006	c3		 ret	 0
?GetHuntZoneEnter@CCastleSiege@@QAEHXZ ENDP		; CCastleSiege::GetHuntZoneEnter
_TEXT	ENDS
PUBLIC	?SetHuntZoneEnter@CCastleSiege@@QAEXH@Z		; CCastleSiege::SetHuntZoneEnter
; Function compile flags: /Ogtp
;	COMDAT ?SetHuntZoneEnter@CCastleSiege@@QAEXH@Z
_TEXT	SEGMENT
_bEnterHuntZone$ = 8					; size = 4
?SetHuntZoneEnter@CCastleSiege@@QAEXH@Z PROC		; CCastleSiege::SetHuntZoneEnter, COMDAT
; _this$ = ecx

; 4733 : {

  00000	55		 push	 ebp
  00001	8b ec		 mov	 ebp, esp

; 4734 : 	m_bEnterHuntZone = bEnterHuntZone;

  00003	8b 45 08	 mov	 eax, DWORD PTR _bEnterHuntZone$[ebp]
  00006	89 81 fc 00 00
	00		 mov	 DWORD PTR [ecx+252], eax

; 4735 : }

  0000c	5d		 pop	 ebp
  0000d	c2 04 00	 ret	 4
?SetHuntZoneEnter@CCastleSiege@@QAEXH@Z ENDP		; CCastleSiege::SetHuntZoneEnter
_TEXT	ENDS
PUBLIC	?RegGuildScoreCompFunc@CCastleSiege@@SAEAAU_CS_REG_GUILD_DATA@@0@Z ; CCastleSiege::RegGuildScoreCompFunc
; Function compile flags: /Ogtp
;	COMDAT ?RegGuildScoreCompFunc@CCastleSiege@@SAEAAU_CS_REG_GUILD_DATA@@0@Z
_TEXT	SEGMENT
_A$ = 8							; size = 4
_B$ = 12						; size = 4
?RegGuildScoreCompFunc@CCastleSiege@@SAEAAU_CS_REG_GUILD_DATA@@0@Z PROC ; CCastleSiege::RegGuildScoreCompFunc, COMDAT

; 4864 : {

  00000	55		 push	 ebp
  00001	8b ec		 mov	 ebp, esp

; 4865 : 	if(A.m_i64TotolScore < B.m_i64TotolScore)

  00003	8b 45 08	 mov	 eax, DWORD PTR _A$[ebp]
  00006	8b 50 3c	 mov	 edx, DWORD PTR [eax+60]
  00009	8b 4d 0c	 mov	 ecx, DWORD PTR _B$[ebp]
  0000c	3b 51 3c	 cmp	 edx, DWORD PTR [ecx+60]
  0000f	7f 0e		 jg	 SHORT $LN1@RegGuildSc
  00011	7c 08		 jl	 SHORT $LN4@RegGuildSc
  00013	8b 40 38	 mov	 eax, DWORD PTR [eax+56]
  00016	3b 41 38	 cmp	 eax, DWORD PTR [ecx+56]
  00019	73 04		 jae	 SHORT $LN1@RegGuildSc
$LN4@RegGuildSc:

; 4866 : 	{
; 4867 : 		return false;

  0001b	32 c0		 xor	 al, al

; 4870 : }

  0001d	5d		 pop	 ebp
  0001e	c3		 ret	 0
$LN1@RegGuildSc:

; 4868 : 	}
; 4869 : 	return true;

  0001f	b0 01		 mov	 al, 1

; 4870 : }

  00021	5d		 pop	 ebp
  00022	c3		 ret	 0
?RegGuildScoreCompFunc@CCastleSiege@@SAEAAU_CS_REG_GUILD_DATA@@0@Z ENDP ; CCastleSiege::RegGuildScoreCompFunc
_TEXT	ENDS
PUBLIC	??0_CS_TOTAL_GUILD_DATA@@QAE@ABU0@@Z		; _CS_TOTAL_GUILD_DATA::_CS_TOTAL_GUILD_DATA
; Function compile flags: /Ogtp
;	COMDAT ??0_CS_TOTAL_GUILD_DATA@@QAE@ABU0@@Z
_TEXT	SEGMENT
___that$ = 8						; size = 4
??0_CS_TOTAL_GUILD_DATA@@QAE@ABU0@@Z PROC		; _CS_TOTAL_GUILD_DATA::_CS_TOTAL_GUILD_DATA, COMDAT
; _this$ = ecx
  00000	55		 push	 ebp
  00001	8b ec		 mov	 ebp, esp
  00003	8b c1		 mov	 eax, ecx
  00005	8b 4d 08	 mov	 ecx, DWORD PTR ___that$[ebp]
  00008	c7 00 00 00 00
	00		 mov	 DWORD PTR [eax], OFFSET ??_7_CS_TOTAL_GUILD_DATA@@6B@
  0000e	8b 51 04	 mov	 edx, DWORD PTR [ecx+4]
  00011	89 50 04	 mov	 DWORD PTR [eax+4], edx
  00014	8b 51 08	 mov	 edx, DWORD PTR [ecx+8]
  00017	89 50 08	 mov	 DWORD PTR [eax+8], edx
  0001a	8b 51 0c	 mov	 edx, DWORD PTR [ecx+12]
  0001d	89 50 0c	 mov	 DWORD PTR [eax+12], edx
  00020	8b 49 10	 mov	 ecx, DWORD PTR [ecx+16]
  00023	89 48 10	 mov	 DWORD PTR [eax+16], ecx
  00026	5d		 pop	 ebp
  00027	c2 04 00	 ret	 4
??0_CS_TOTAL_GUILD_DATA@@QAE@ABU0@@Z ENDP		; _CS_TOTAL_GUILD_DATA::_CS_TOTAL_GUILD_DATA
_TEXT	ENDS
PUBLIC	?OperateGate@CCastleSiege@@QAEHHH@Z		; CCastleSiege::OperateGate
; Function compile flags: /Ogtp
;	COMDAT ?OperateGate@CCastleSiege@@QAEHHH@Z
_TEXT	SEGMENT
_iNpcIndex$ = 8						; size = 4
_bOpenType$ = 12					; size = 4
?OperateGate@CCastleSiege@@QAEHHH@Z PROC		; CCastleSiege::OperateGate, COMDAT
; _this$ = ecx

; 5125 : 	// FUNCTION NOT USED
; 5126 : 	return false;

  00000	33 c0		 xor	 eax, eax

; 5127 : }

  00002	c2 08 00	 ret	 8
?OperateGate@CCastleSiege@@QAEHHH@Z ENDP		; CCastleSiege::OperateGate
_TEXT	ENDS
PUBLIC	?CheckCastleOwnerMember@CCastleSiege@@QAEHH@Z	; CCastleSiege::CheckCastleOwnerMember
; Function compile flags: /Ogtp
;	COMDAT ?CheckCastleOwnerMember@CCastleSiege@@QAEHH@Z
_TEXT	SEGMENT
_iIndex$ = 8						; size = 4
?CheckCastleOwnerMember@CCastleSiege@@QAEHH@Z PROC	; CCastleSiege::CheckCastleOwnerMember, COMDAT
; _this$ = ecx

; 5130 : {

  00000	55		 push	 ebp
  00001	8b ec		 mov	 ebp, esp
  00003	56		 push	 esi
  00004	57		 push	 edi

; 5131 : 	if(gObjIsConnected(iIndex) == FALSE)

  00005	8b 7d 08	 mov	 edi, DWORD PTR _iIndex$[ebp]
  00008	57		 push	 edi
  00009	8b f1		 mov	 esi, ecx
  0000b	e8 00 00 00 00	 call	 ?gObjIsConnected@@YAHH@Z ; gObjIsConnected
  00010	83 c4 04	 add	 esp, 4
  00013	85 c0		 test	 eax, eax
  00015	75 06		 jne	 SHORT $LN4@CheckCastl@2
  00017	5f		 pop	 edi
  00018	5e		 pop	 esi

; 5141 : 		return false;
; 5142 : 
; 5143 : return true;
; 5144 : }

  00019	5d		 pop	 ebp
  0001a	c2 04 00	 ret	 4
$LN4@CheckCastl@2:
  0001d	53		 push	 ebx

; 5132 : 		return false;
; 5133 : 
; 5134 : 	if(strcmp(m_szCastleOwnerGuild,"") == NULL)

  0001e	8d 9e d7 00 00
	00		 lea	 ebx, DWORD PTR [esi+215]
  00024	b9 00 00 00 00	 mov	 ecx, OFFSET ??_C@_00CNPNBAHC@?$AA@
  00029	8b c3		 mov	 eax, ebx
  0002b	eb 03 8d 49 00	 npad	 5
$LL7@CheckCastl@2:
  00030	8a 10		 mov	 dl, BYTE PTR [eax]
  00032	3a 11		 cmp	 dl, BYTE PTR [ecx]
  00034	75 1a		 jne	 SHORT $LN8@CheckCastl@2
  00036	84 d2		 test	 dl, dl
  00038	74 12		 je	 SHORT $LN9@CheckCastl@2
  0003a	8a 50 01	 mov	 dl, BYTE PTR [eax+1]
  0003d	3a 51 01	 cmp	 dl, BYTE PTR [ecx+1]
  00040	75 0e		 jne	 SHORT $LN8@CheckCastl@2
  00042	83 c0 02	 add	 eax, 2
  00045	83 c1 02	 add	 ecx, 2
  00048	84 d2		 test	 dl, dl
  0004a	75 e4		 jne	 SHORT $LL7@CheckCastl@2
$LN9@CheckCastl@2:
  0004c	33 c0		 xor	 eax, eax
  0004e	eb 05		 jmp	 SHORT $LN10@CheckCastl@2
$LN8@CheckCastl@2:
  00050	1b c0		 sbb	 eax, eax
  00052	83 d8 ff	 sbb	 eax, -1
$LN10@CheckCastl@2:
  00055	85 c0		 test	 eax, eax

; 5135 : 		return false;

  00057	74 42		 je	 SHORT $LN20@CheckCastl@2

; 5136 : 
; 5137 : 	if(strcmp(gObj[iIndex].GuildName,"") == NULL)

  00059	a1 00 00 00 00	 mov	 eax, DWORD PTR ?gObj@@3PAUOBJECTSTRUCT@@A ; gObj
  0005e	69 ff 40 27 00
	00		 imul	 edi, 10048		; 00002740H
  00064	8d b4 07 1c 06
	00 00		 lea	 esi, DWORD PTR [edi+eax+1564]
  0006b	b9 00 00 00 00	 mov	 ecx, OFFSET ??_C@_00CNPNBAHC@?$AA@
  00070	8b c6		 mov	 eax, esi
$LL11@CheckCastl@2:
  00072	8a 10		 mov	 dl, BYTE PTR [eax]
  00074	3a 11		 cmp	 dl, BYTE PTR [ecx]
  00076	75 1a		 jne	 SHORT $LN12@CheckCastl@2
  00078	84 d2		 test	 dl, dl
  0007a	74 12		 je	 SHORT $LN13@CheckCastl@2
  0007c	8a 50 01	 mov	 dl, BYTE PTR [eax+1]
  0007f	3a 51 01	 cmp	 dl, BYTE PTR [ecx+1]
  00082	75 0e		 jne	 SHORT $LN12@CheckCastl@2
  00084	83 c0 02	 add	 eax, 2
  00087	83 c1 02	 add	 ecx, 2
  0008a	84 d2		 test	 dl, dl
  0008c	75 e4		 jne	 SHORT $LL11@CheckCastl@2
$LN13@CheckCastl@2:
  0008e	33 c0		 xor	 eax, eax
  00090	eb 05		 jmp	 SHORT $LN14@CheckCastl@2
$LN12@CheckCastl@2:
  00092	1b c0		 sbb	 eax, eax
  00094	83 d8 ff	 sbb	 eax, -1
$LN14@CheckCastl@2:
  00097	85 c0		 test	 eax, eax
  00099	75 09		 jne	 SHORT $LN2@CheckCastl@2
$LN20@CheckCastl@2:
  0009b	5b		 pop	 ebx
  0009c	5f		 pop	 edi

; 5138 : 		return false;

  0009d	33 c0		 xor	 eax, eax
  0009f	5e		 pop	 esi

; 5141 : 		return false;
; 5142 : 
; 5143 : return true;
; 5144 : }

  000a0	5d		 pop	 ebp
  000a1	c2 04 00	 ret	 4
$LN2@CheckCastl@2:

; 5139 : 
; 5140 : 	if(strcmp(gObj[iIndex].GuildName,m_szCastleOwnerGuild) != NULL)

  000a4	8b cb		 mov	 ecx, ebx
  000a6	8b c6		 mov	 eax, esi
$LL15@CheckCastl@2:
  000a8	8a 10		 mov	 dl, BYTE PTR [eax]
  000aa	3a 11		 cmp	 dl, BYTE PTR [ecx]
  000ac	75 28		 jne	 SHORT $LN16@CheckCastl@2
  000ae	84 d2		 test	 dl, dl
  000b0	74 12		 je	 SHORT $LN17@CheckCastl@2
  000b2	8a 50 01	 mov	 dl, BYTE PTR [eax+1]
  000b5	3a 51 01	 cmp	 dl, BYTE PTR [ecx+1]
  000b8	75 1c		 jne	 SHORT $LN16@CheckCastl@2
  000ba	83 c0 02	 add	 eax, 2
  000bd	83 c1 02	 add	 ecx, 2
  000c0	84 d2		 test	 dl, dl
  000c2	75 e4		 jne	 SHORT $LL15@CheckCastl@2
$LN17@CheckCastl@2:
  000c4	33 c0		 xor	 eax, eax
  000c6	33 c9		 xor	 ecx, ecx
  000c8	85 c0		 test	 eax, eax
  000ca	0f 94 c1	 sete	 cl
  000cd	5b		 pop	 ebx
  000ce	5f		 pop	 edi
  000cf	5e		 pop	 esi
  000d0	8b c1		 mov	 eax, ecx

; 5141 : 		return false;
; 5142 : 
; 5143 : return true;
; 5144 : }

  000d2	5d		 pop	 ebp
  000d3	c2 04 00	 ret	 4
$LN16@CheckCastl@2:

; 5139 : 
; 5140 : 	if(strcmp(gObj[iIndex].GuildName,m_szCastleOwnerGuild) != NULL)

  000d6	1b c0		 sbb	 eax, eax
  000d8	83 d8 ff	 sbb	 eax, -1
  000db	33 c9		 xor	 ecx, ecx
  000dd	85 c0		 test	 eax, eax
  000df	0f 94 c1	 sete	 cl
  000e2	5b		 pop	 ebx
  000e3	5f		 pop	 edi
  000e4	5e		 pop	 esi
  000e5	8b c1		 mov	 eax, ecx

; 5141 : 		return false;
; 5142 : 
; 5143 : return true;
; 5144 : }

  000e7	5d		 pop	 ebp
  000e8	c2 04 00	 ret	 4
?CheckCastleOwnerMember@CCastleSiege@@QAEHH@Z ENDP	; CCastleSiege::CheckCastleOwnerMember
_TEXT	ENDS
PUBLIC	?CheckCastleOwnerUnionMember@CCastleSiege@@QAEHH@Z ; CCastleSiege::CheckCastleOwnerUnionMember
EXTRN	?SearchUnion@TUnion@@QAEPAVTUnionInfo@@H@Z:PROC	; TUnion::SearchUnion
EXTRN	?UnionManager@@3VTUnion@@A:BYTE			; UnionManager
; Function compile flags: /Ogtp
;	COMDAT ?CheckCastleOwnerUnionMember@CCastleSiege@@QAEHH@Z
_TEXT	SEGMENT
_iIndex$ = 8						; size = 4
?CheckCastleOwnerUnionMember@CCastleSiege@@QAEHH@Z PROC	; CCastleSiege::CheckCastleOwnerUnionMember, COMDAT
; _this$ = ecx

; 5147 : {

  00000	55		 push	 ebp
  00001	8b ec		 mov	 ebp, esp
  00003	56		 push	 esi
  00004	57		 push	 edi

; 5148 : 	if(gObjIsConnected(iIndex) == FALSE)

  00005	8b 7d 08	 mov	 edi, DWORD PTR _iIndex$[ebp]
  00008	57		 push	 edi
  00009	8b f1		 mov	 esi, ecx
  0000b	e8 00 00 00 00	 call	 ?gObjIsConnected@@YAHH@Z ; gObjIsConnected
  00010	83 c4 04	 add	 esp, 4
  00013	85 c0		 test	 eax, eax
  00015	75 06		 jne	 SHORT $LN6@CheckCastl@3
  00017	5f		 pop	 edi
  00018	5e		 pop	 esi

; 5168 : 		return true;
; 5169 : 
; 5170 : return false;
; 5171 : }

  00019	5d		 pop	 ebp
  0001a	c2 04 00	 ret	 4
$LN6@CheckCastl@3:
  0001d	53		 push	 ebx

; 5149 : 		return false;
; 5150 : 
; 5151 : 	if(strcmp(m_szCastleOwnerGuild,"") == NULL)

  0001e	8d 9e d7 00 00
	00		 lea	 ebx, DWORD PTR [esi+215]
  00024	b9 00 00 00 00	 mov	 ecx, OFFSET ??_C@_00CNPNBAHC@?$AA@
  00029	8b c3		 mov	 eax, ebx
  0002b	eb 03 8d 49 00	 npad	 5
$LL9@CheckCastl@3:
  00030	8a 10		 mov	 dl, BYTE PTR [eax]
  00032	3a 11		 cmp	 dl, BYTE PTR [ecx]
  00034	75 1a		 jne	 SHORT $LN10@CheckCastl@3
  00036	84 d2		 test	 dl, dl
  00038	74 12		 je	 SHORT $LN11@CheckCastl@3
  0003a	8a 50 01	 mov	 dl, BYTE PTR [eax+1]
  0003d	3a 51 01	 cmp	 dl, BYTE PTR [ecx+1]
  00040	75 0e		 jne	 SHORT $LN10@CheckCastl@3
  00042	83 c0 02	 add	 eax, 2
  00045	83 c1 02	 add	 ecx, 2
  00048	84 d2		 test	 dl, dl
  0004a	75 e4		 jne	 SHORT $LL9@CheckCastl@3
$LN11@CheckCastl@3:
  0004c	33 c0		 xor	 eax, eax
  0004e	eb 05		 jmp	 SHORT $LN12@CheckCastl@3
$LN10@CheckCastl@3:
  00050	1b c0		 sbb	 eax, eax
  00052	83 d8 ff	 sbb	 eax, -1
$LN12@CheckCastl@3:
  00055	85 c0		 test	 eax, eax

; 5152 : 		return false;

  00057	74 61		 je	 SHORT $LN22@CheckCastl@3

; 5153 : 
; 5154 : 	if(strcmp(gObj[iIndex].GuildName,"") == NULL)

  00059	a1 00 00 00 00	 mov	 eax, DWORD PTR ?gObj@@3PAUOBJECTSTRUCT@@A ; gObj
  0005e	69 ff 40 27 00
	00		 imul	 edi, 10048		; 00002740H
  00064	8d 34 07	 lea	 esi, DWORD PTR [edi+eax]
  00067	b9 00 00 00 00	 mov	 ecx, OFFSET ??_C@_00CNPNBAHC@?$AA@
  0006c	8d 86 1c 06 00
	00		 lea	 eax, DWORD PTR [esi+1564]
$LL13@CheckCastl@3:
  00072	8a 10		 mov	 dl, BYTE PTR [eax]
  00074	3a 11		 cmp	 dl, BYTE PTR [ecx]
  00076	75 1a		 jne	 SHORT $LN14@CheckCastl@3
  00078	84 d2		 test	 dl, dl
  0007a	74 12		 je	 SHORT $LN15@CheckCastl@3
  0007c	8a 50 01	 mov	 dl, BYTE PTR [eax+1]
  0007f	3a 51 01	 cmp	 dl, BYTE PTR [ecx+1]
  00082	75 0e		 jne	 SHORT $LN14@CheckCastl@3
  00084	83 c0 02	 add	 eax, 2
  00087	83 c1 02	 add	 ecx, 2
  0008a	84 d2		 test	 dl, dl
  0008c	75 e4		 jne	 SHORT $LL13@CheckCastl@3
$LN15@CheckCastl@3:
  0008e	33 c0		 xor	 eax, eax
  00090	eb 05		 jmp	 SHORT $LN16@CheckCastl@3
$LN14@CheckCastl@3:
  00092	1b c0		 sbb	 eax, eax
  00094	83 d8 ff	 sbb	 eax, -1
$LN16@CheckCastl@3:
  00097	85 c0		 test	 eax, eax

; 5155 : 		return false;

  00099	74 1f		 je	 SHORT $LN22@CheckCastl@3

; 5156 : 
; 5157 : 	_GUILD_INFO_STRUCT * lpGuildInfo = gObj[iIndex].lpGuild;

  0009b	8b 86 18 06 00
	00		 mov	 eax, DWORD PTR [esi+1560]

; 5158 : 
; 5159 : 	if(lpGuildInfo == NULL)

  000a1	85 c0		 test	 eax, eax

; 5160 : 		return false;

  000a3	74 15		 je	 SHORT $LN22@CheckCastl@3

; 5161 : 
; 5162 : 	TUnionInfo * pUnionInfo = UnionManager.SearchUnion(lpGuildInfo->iGuildUnion);

  000a5	8b 88 44 07 00
	00		 mov	 ecx, DWORD PTR [eax+1860]
  000ab	51		 push	 ecx
  000ac	b9 00 00 00 00	 mov	 ecx, OFFSET ?UnionManager@@3VTUnion@@A ; UnionManager
  000b1	e8 00 00 00 00	 call	 ?SearchUnion@TUnion@@QAEPAVTUnionInfo@@H@Z ; TUnion::SearchUnion

; 5163 : 
; 5164 : 	if(pUnionInfo == NULL)

  000b6	85 c0		 test	 eax, eax
  000b8	75 09		 jne	 SHORT $LN2@CheckCastl@3
$LN22@CheckCastl@3:
  000ba	5b		 pop	 ebx
  000bb	5f		 pop	 edi

; 5165 : 		return false;

  000bc	33 c0		 xor	 eax, eax
  000be	5e		 pop	 esi

; 5168 : 		return true;
; 5169 : 
; 5170 : return false;
; 5171 : }

  000bf	5d		 pop	 ebp
  000c0	c2 04 00	 ret	 4
$LN2@CheckCastl@3:

; 5166 : 
; 5167 : 	if(strcmp(pUnionInfo->m_szMasterGuild,m_szCastleOwnerGuild) == NULL)

  000c3	8b cb		 mov	 ecx, ebx
  000c5	83 c0 10	 add	 eax, 16			; 00000010H
$LL17@CheckCastl@3:
  000c8	8a 10		 mov	 dl, BYTE PTR [eax]
  000ca	3a 11		 cmp	 dl, BYTE PTR [ecx]
  000cc	75 28		 jne	 SHORT $LN18@CheckCastl@3
  000ce	84 d2		 test	 dl, dl
  000d0	74 12		 je	 SHORT $LN19@CheckCastl@3
  000d2	8a 50 01	 mov	 dl, BYTE PTR [eax+1]
  000d5	3a 51 01	 cmp	 dl, BYTE PTR [ecx+1]
  000d8	75 1c		 jne	 SHORT $LN18@CheckCastl@3
  000da	83 c0 02	 add	 eax, 2
  000dd	83 c1 02	 add	 ecx, 2
  000e0	84 d2		 test	 dl, dl
  000e2	75 e4		 jne	 SHORT $LL17@CheckCastl@3
$LN19@CheckCastl@3:
  000e4	33 c0		 xor	 eax, eax
  000e6	33 d2		 xor	 edx, edx
  000e8	85 c0		 test	 eax, eax
  000ea	0f 94 c2	 sete	 dl
  000ed	5b		 pop	 ebx
  000ee	5f		 pop	 edi
  000ef	5e		 pop	 esi
  000f0	8b c2		 mov	 eax, edx

; 5168 : 		return true;
; 5169 : 
; 5170 : return false;
; 5171 : }

  000f2	5d		 pop	 ebp
  000f3	c2 04 00	 ret	 4
$LN18@CheckCastl@3:

; 5166 : 
; 5167 : 	if(strcmp(pUnionInfo->m_szMasterGuild,m_szCastleOwnerGuild) == NULL)

  000f6	1b c0		 sbb	 eax, eax
  000f8	83 d8 ff	 sbb	 eax, -1
  000fb	33 d2		 xor	 edx, edx
  000fd	85 c0		 test	 eax, eax
  000ff	0f 94 c2	 sete	 dl
  00102	5b		 pop	 ebx
  00103	5f		 pop	 edi
  00104	5e		 pop	 esi
  00105	8b c2		 mov	 eax, edx

; 5168 : 		return true;
; 5169 : 
; 5170 : return false;
; 5171 : }

  00107	5d		 pop	 ebp
  00108	c2 04 00	 ret	 4
?CheckCastleOwnerUnionMember@CCastleSiege@@QAEHH@Z ENDP	; CCastleSiege::CheckCastleOwnerUnionMember
_TEXT	ENDS
PUBLIC	?CheckUnionGuildMaster@CCastleSiege@@QAEHH@Z	; CCastleSiege::CheckUnionGuildMaster
; Function compile flags: /Ogtp
;	COMDAT ?CheckUnionGuildMaster@CCastleSiege@@QAEHH@Z
_TEXT	SEGMENT
_iIndex$ = 8						; size = 4
?CheckUnionGuildMaster@CCastleSiege@@QAEHH@Z PROC	; CCastleSiege::CheckUnionGuildMaster, COMDAT
; _this$ = ecx

; 5174 : {

  00000	55		 push	 ebp
  00001	8b ec		 mov	 ebp, esp
  00003	56		 push	 esi

; 5175 : 	if(gObjIsConnected(iIndex) == FALSE)

  00004	8b 75 08	 mov	 esi, DWORD PTR _iIndex$[ebp]
  00007	56		 push	 esi
  00008	e8 00 00 00 00	 call	 ?gObjIsConnected@@YAHH@Z ; gObjIsConnected
  0000d	83 c4 04	 add	 esp, 4
  00010	85 c0		 test	 eax, eax

; 5176 : 		return false;

  00012	74 3c		 je	 SHORT $LN2@CheckUnion

; 5177 : 
; 5178 : 	_GUILD_INFO_STRUCT * lpGuildInfo = gObj[iIndex].lpGuild;

  00014	a1 00 00 00 00	 mov	 eax, DWORD PTR ?gObj@@3PAUOBJECTSTRUCT@@A ; gObj
  00019	69 f6 40 27 00
	00		 imul	 esi, 10048		; 00002740H
  0001f	8d 0c 06	 lea	 ecx, DWORD PTR [esi+eax]
  00022	8b 81 18 06 00
	00		 mov	 eax, DWORD PTR [ecx+1560]

; 5179 : 
; 5180 : 	if(lpGuildInfo == NULL)

  00028	85 c0		 test	 eax, eax

; 5181 : 		return false;

  0002a	74 24		 je	 SHORT $LN2@CheckUnion

; 5182 : 
; 5183 : 	if(gObj[iIndex].GuildStatus == 128)

  0002c	81 b9 28 06 00
	00 80 00 00 00	 cmp	 DWORD PTR [ecx+1576], 128 ; 00000080H
  00036	75 18		 jne	 SHORT $LN2@CheckUnion

; 5184 : 	{
; 5185 : 		if(lpGuildInfo->Number == lpGuildInfo->iGuildUnion || lpGuildInfo->iGuildUnion == NULL)

  00038	8b 88 44 07 00
	00		 mov	 ecx, DWORD PTR [eax+1860]
  0003e	39 08		 cmp	 DWORD PTR [eax], ecx
  00040	74 04		 je	 SHORT $LN1@CheckUnion
  00042	85 c9		 test	 ecx, ecx
  00044	75 0a		 jne	 SHORT $LN2@CheckUnion
$LN1@CheckUnion:

; 5186 : 		{
; 5187 : 			return true;

  00046	b8 01 00 00 00	 mov	 eax, 1
  0004b	5e		 pop	 esi

; 5191 : }

  0004c	5d		 pop	 ebp
  0004d	c2 04 00	 ret	 4
$LN2@CheckUnion:

; 5188 : 		}
; 5189 : 	}
; 5190 : return false;

  00050	33 c0		 xor	 eax, eax
  00052	5e		 pop	 esi

; 5191 : }

  00053	5d		 pop	 ebp
  00054	c2 04 00	 ret	 4
?CheckUnionGuildMaster@CCastleSiege@@QAEHH@Z ENDP	; CCastleSiege::CheckUnionGuildMaster
_TEXT	ENDS
PUBLIC	?SetCrownUserIndex@CCastleSiege@@QAEXH@Z	; CCastleSiege::SetCrownUserIndex
; Function compile flags: /Ogtp
;	COMDAT ?SetCrownUserIndex@CCastleSiege@@QAEXH@Z
_TEXT	SEGMENT
_iIndex$ = 8						; size = 4
?SetCrownUserIndex@CCastleSiege@@QAEXH@Z PROC		; CCastleSiege::SetCrownUserIndex, COMDAT
; _this$ = ecx

; 5194 : {

  00000	55		 push	 ebp
  00001	8b ec		 mov	 ebp, esp

; 5195 : 	m_iCastleCrownAccessUser = iIndex;

  00003	8b 45 08	 mov	 eax, DWORD PTR _iIndex$[ebp]
  00006	89 81 f0 01 00
	00		 mov	 DWORD PTR [ecx+496], eax

; 5196 : }

  0000c	5d		 pop	 ebp
  0000d	c2 04 00	 ret	 4
?SetCrownUserIndex@CCastleSiege@@QAEXH@Z ENDP		; CCastleSiege::SetCrownUserIndex
_TEXT	ENDS
PUBLIC	?SetCrownSwitchUserIndex@CCastleSiege@@QAEXHH@Z	; CCastleSiege::SetCrownSwitchUserIndex
; Function compile flags: /Ogtp
;	COMDAT ?SetCrownSwitchUserIndex@CCastleSiege@@QAEXHH@Z
_TEXT	SEGMENT
_iMonsterClass$ = 8					; size = 4
_iIndex$ = 12						; size = 4
?SetCrownSwitchUserIndex@CCastleSiege@@QAEXHH@Z PROC	; CCastleSiege::SetCrownSwitchUserIndex, COMDAT
; _this$ = ecx

; 5199 : {

  00000	55		 push	 ebp
  00001	8b ec		 mov	 ebp, esp

; 5200 : 	switch(iMonsterClass)

  00003	8b 45 08	 mov	 eax, DWORD PTR _iMonsterClass$[ebp]
  00006	2d d9 00 00 00	 sub	 eax, 217		; 000000d9H
  0000b	74 10		 je	 SHORT $LN2@SetCrownSw
  0000d	48		 dec	 eax
  0000e	75 16		 jne	 SHORT $LN3@SetCrownSw

; 5204 : 		break;
; 5205 : 	case 218:
; 5206 : 		m_iCastleSwitchAccessUser2 = iIndex;

  00010	8b 45 0c	 mov	 eax, DWORD PTR _iIndex$[ebp]
  00013	89 81 fc 01 00
	00		 mov	 DWORD PTR [ecx+508], eax

; 5207 : 		break;
; 5208 : 	}
; 5209 : }

  00019	5d		 pop	 ebp
  0001a	c2 08 00	 ret	 8
$LN2@SetCrownSw:

; 5201 : 	{
; 5202 : 	case 217:
; 5203 : 		m_iCastleSwitchAccessUser1 = iIndex;

  0001d	8b 55 0c	 mov	 edx, DWORD PTR _iIndex$[ebp]
  00020	89 91 f8 01 00
	00		 mov	 DWORD PTR [ecx+504], edx
$LN3@SetCrownSw:

; 5207 : 		break;
; 5208 : 	}
; 5209 : }

  00026	5d		 pop	 ebp
  00027	c2 08 00	 ret	 8
?SetCrownSwitchUserIndex@CCastleSiege@@QAEXHH@Z ENDP	; CCastleSiege::SetCrownSwitchUserIndex
_TEXT	ENDS
PUBLIC	?CheckOverlapCsMarks@CCastleSiege@@QAEHH@Z	; CCastleSiege::CheckOverlapCsMarks
; Function compile flags: /Ogtp
;	COMDAT ?CheckOverlapCsMarks@CCastleSiege@@QAEHH@Z
_TEXT	SEGMENT
_x$189428 = -4						; size = 4
_iIndex$ = 8						; size = 4
?CheckOverlapCsMarks@CCastleSiege@@QAEHH@Z PROC		; CCastleSiege::CheckOverlapCsMarks, COMDAT
; _this$ = ecx

; 5212 : {

  00000	55		 push	 ebp
  00001	8b ec		 mov	 ebp, esp
  00003	51		 push	 ecx
  00004	53		 push	 ebx

; 5213 : 	for(int x = INVETORY_WEAR_SIZE; x < MAIN_INVENTORY_SIZE; x++)

  00005	8b 5d 08	 mov	 ebx, DWORD PTR _iIndex$[ebp]
  00008	56		 push	 esi
  00009	69 db 40 27 00
	00		 imul	 ebx, 10048		; 00002740H
  0000f	57		 push	 edi
  00010	8b 3d 00 00 00
	00		 mov	 edi, DWORD PTR ?gObj@@3PAUOBJECTSTRUCT@@A ; gObj
  00016	c7 45 fc 0c 00
	00 00		 mov	 DWORD PTR _x$189428[ebp], 12 ; 0000000cH
  0001d	be f0 09 00 00	 mov	 esi, 2544		; 000009f0H
$LL5@CheckOverl:

; 5214 : 	{
; 5215 : 		if(gObj[iIndex].pInventory[x].IsItem() == TRUE 
; 5216 : 			&& gObj[iIndex].pInventory[x].m_Type == ITEMGET(14,21)
; 5217 : 			&& gObj[iIndex].pInventory[x].m_Level == 3)

  00022	8b 8c 3b c0 11
	00 00		 mov	 ecx, DWORD PTR [ebx+edi+4544]
  00029	03 ce		 add	 ecx, esi
  0002b	e8 00 00 00 00	 call	 ?IsItem@CItem@@QAEHXZ	; CItem::IsItem
  00030	8b 3d 00 00 00
	00		 mov	 edi, DWORD PTR ?gObj@@3PAUOBJECTSTRUCT@@A ; gObj
  00036	83 f8 01	 cmp	 eax, 1
  00039	75 38		 jne	 SHORT $LN4@CheckOverl
  0003b	8b 84 3b c0 11
	00 00		 mov	 eax, DWORD PTR [ebx+edi+4544]
  00042	b9 15 1c 00 00	 mov	 ecx, 7189		; 00001c15H
  00047	66 39 4c 30 06	 cmp	 WORD PTR [eax+esi+6], cx
  0004c	75 25		 jne	 SHORT $LN4@CheckOverl
  0004e	66 83 7c 30 08
	03		 cmp	 WORD PTR [eax+esi+8], 3
  00054	75 1d		 jne	 SHORT $LN4@CheckOverl

; 5218 : 		{
; 5219 : 			int iITEM_DUR = (int)gObj[iIndex].pInventory[x].m_Durability;

  00056	d9 44 30 24	 fld	 DWORD PTR [eax+esi+36]
  0005a	e8 00 00 00 00	 call	 __ftol2_sse

; 5220 : 
; 5221 : 			if(ITEM_DUR_RANGE(iITEM_DUR) != FALSE)

  0005f	85 c0		 test	 eax, eax
  00061	78 10		 js	 SHORT $LN4@CheckOverl
  00063	33 d2		 xor	 edx, edx
  00065	3d fe 00 00 00	 cmp	 eax, 254		; 000000feH
  0006a	0f 9e c2	 setle	 dl
  0006d	8b c2		 mov	 eax, edx
  0006f	85 c0		 test	 eax, eax
  00071	75 1d		 jne	 SHORT $LN11@CheckOverl
$LN4@CheckOverl:

; 5213 : 	for(int x = INVETORY_WEAR_SIZE; x < MAIN_INVENTORY_SIZE; x++)

  00073	ff 45 fc	 inc	 DWORD PTR _x$189428[ebp]
  00076	81 c6 d4 00 00
	00		 add	 esi, 212		; 000000d4H
  0007c	81 fe f0 a8 00
	00		 cmp	 esi, 43248		; 0000a8f0H
  00082	7c 9e		 jl	 SHORT $LL5@CheckOverl

; 5223 : 		}
; 5224 : 	}
; 5225 : return -1;

  00084	5f		 pop	 edi
  00085	5e		 pop	 esi
  00086	83 c8 ff	 or	 eax, -1
  00089	5b		 pop	 ebx

; 5226 : }

  0008a	8b e5		 mov	 esp, ebp
  0008c	5d		 pop	 ebp
  0008d	c2 04 00	 ret	 4
$LN11@CheckOverl:

; 5222 : 				return x;

  00090	8b 45 fc	 mov	 eax, DWORD PTR _x$189428[ebp]
  00093	5f		 pop	 edi
  00094	5e		 pop	 esi
  00095	5b		 pop	 ebx

; 5226 : }

  00096	8b e5		 mov	 esp, ebp
  00098	5d		 pop	 ebp
  00099	c2 04 00	 ret	 4
?CheckOverlapCsMarks@CCastleSiege@@QAEHH@Z ENDP		; CCastleSiege::CheckOverlapCsMarks
_TEXT	ENDS
PUBLIC	??_7bad_alloc@std@@6B@				; std::bad_alloc::`vftable'
PUBLIC	??0bad_alloc@std@@QAE@PBD@Z			; std::bad_alloc::bad_alloc
PUBLIC	??_R4bad_alloc@std@@6B@				; std::bad_alloc::`RTTI Complete Object Locator'
PUBLIC	??_R0?AVbad_alloc@std@@@8			; std::bad_alloc `RTTI Type Descriptor'
PUBLIC	??_R3bad_alloc@std@@8				; std::bad_alloc::`RTTI Class Hierarchy Descriptor'
PUBLIC	??_R2bad_alloc@std@@8				; std::bad_alloc::`RTTI Base Class Array'
PUBLIC	??_R1A@?0A@EA@bad_alloc@std@@8			; std::bad_alloc::`RTTI Base Class Descriptor at (0,-1,0,64)'
PUBLIC	??_R1A@?0A@EA@exception@std@@8			; std::exception::`RTTI Base Class Descriptor at (0,-1,0,64)'
PUBLIC	??_R0?AVexception@std@@@8			; std::exception `RTTI Type Descriptor'
PUBLIC	??_R3exception@std@@8				; std::exception::`RTTI Class Hierarchy Descriptor'
PUBLIC	??_R2exception@std@@8				; std::exception::`RTTI Base Class Array'
EXTRN	??0exception@std@@QAE@ABQBD@Z:PROC		; std::exception::exception
EXTRN	??_Ebad_alloc@std@@UAEPAXI@Z:PROC		; std::bad_alloc::`vector deleting destructor'
EXTRN	?what@exception@std@@UBEPBDXZ:PROC		; std::exception::what
;	COMDAT ??_R2exception@std@@8
; File c:\program files (x86)\microsoft visual studio 10.0\vc\include\exception
rdata$r	SEGMENT
??_R2exception@std@@8 DD FLAT:??_R1A@?0A@EA@exception@std@@8 ; std::exception::`RTTI Base Class Array'
rdata$r	ENDS
;	COMDAT ??_R3exception@std@@8
rdata$r	SEGMENT
??_R3exception@std@@8 DD 00H				; std::exception::`RTTI Class Hierarchy Descriptor'
	DD	00H
	DD	01H
	DD	FLAT:??_R2exception@std@@8
rdata$r	ENDS
;	COMDAT ??_R0?AVexception@std@@@8
_DATA	SEGMENT
??_R0?AVexception@std@@@8 DD FLAT:??_7type_info@@6B@	; std::exception `RTTI Type Descriptor'
	DD	00H
	DB	'.?AVexception@std@@', 00H
_DATA	ENDS
;	COMDAT ??_R1A@?0A@EA@exception@std@@8
rdata$r	SEGMENT
??_R1A@?0A@EA@exception@std@@8 DD FLAT:??_R0?AVexception@std@@@8 ; std::exception::`RTTI Base Class Descriptor at (0,-1,0,64)'
	DD	00H
	DD	00H
	DD	0ffffffffH
	DD	00H
	DD	040H
	DD	FLAT:??_R3exception@std@@8
rdata$r	ENDS
;	COMDAT ??_R1A@?0A@EA@bad_alloc@std@@8
rdata$r	SEGMENT
??_R1A@?0A@EA@bad_alloc@std@@8 DD FLAT:??_R0?AVbad_alloc@std@@@8 ; std::bad_alloc::`RTTI Base Class Descriptor at (0,-1,0,64)'
	DD	01H
	DD	00H
	DD	0ffffffffH
	DD	00H
	DD	040H
	DD	FLAT:??_R3bad_alloc@std@@8
rdata$r	ENDS
;	COMDAT ??_R2bad_alloc@std@@8
rdata$r	SEGMENT
??_R2bad_alloc@std@@8 DD FLAT:??_R1A@?0A@EA@bad_alloc@std@@8 ; std::bad_alloc::`RTTI Base Class Array'
	DD	FLAT:??_R1A@?0A@EA@exception@std@@8
rdata$r	ENDS
;	COMDAT ??_R3bad_alloc@std@@8
rdata$r	SEGMENT
??_R3bad_alloc@std@@8 DD 00H				; std::bad_alloc::`RTTI Class Hierarchy Descriptor'
	DD	00H
	DD	02H
	DD	FLAT:??_R2bad_alloc@std@@8
rdata$r	ENDS
;	COMDAT ??_R0?AVbad_alloc@std@@@8
_DATA	SEGMENT
??_R0?AVbad_alloc@std@@@8 DD FLAT:??_7type_info@@6B@	; std::bad_alloc `RTTI Type Descriptor'
	DD	00H
	DB	'.?AVbad_alloc@std@@', 00H
_DATA	ENDS
;	COMDAT ??_R4bad_alloc@std@@6B@
rdata$r	SEGMENT
??_R4bad_alloc@std@@6B@ DD 00H				; std::bad_alloc::`RTTI Complete Object Locator'
	DD	00H
	DD	00H
	DD	FLAT:??_R0?AVbad_alloc@std@@@8
	DD	FLAT:??_R3bad_alloc@std@@8
rdata$r	ENDS
;	COMDAT ??_7bad_alloc@std@@6B@
CONST	SEGMENT
??_7bad_alloc@std@@6B@ DD FLAT:??_R4bad_alloc@std@@6B@	; std::bad_alloc::`vftable'
	DD	FLAT:??_Ebad_alloc@std@@UAEPAXI@Z
	DD	FLAT:?what@exception@std@@UBEPBDXZ
; Function compile flags: /Ogtp
CONST	ENDS
;	COMDAT ??0bad_alloc@std@@QAE@PBD@Z
_TEXT	SEGMENT
__Message$ = 8						; size = 4
??0bad_alloc@std@@QAE@PBD@Z PROC			; std::bad_alloc::bad_alloc, COMDAT
; _this$ = ecx

; 345  : 		{	// construct from message string

  00000	55		 push	 ebp
  00001	8b ec		 mov	 ebp, esp
  00003	56		 push	 esi
  00004	8d 45 08	 lea	 eax, DWORD PTR __Message$[ebp]
  00007	50		 push	 eax
  00008	8b f1		 mov	 esi, ecx
  0000a	e8 00 00 00 00	 call	 ??0exception@std@@QAE@ABQBD@Z ; std::exception::exception
  0000f	c7 06 00 00 00
	00		 mov	 DWORD PTR [esi], OFFSET ??_7bad_alloc@std@@6B@

; 346  : 		}

  00015	8b c6		 mov	 eax, esi
  00017	5e		 pop	 esi
  00018	5d		 pop	 ebp
  00019	c2 04 00	 ret	 4
??0bad_alloc@std@@QAE@PBD@Z ENDP			; std::bad_alloc::bad_alloc
_TEXT	ENDS
PUBLIC	??1bad_alloc@std@@UAE@XZ			; std::bad_alloc::~bad_alloc
EXTRN	??1exception@std@@UAE@XZ:PROC			; std::exception::~exception
; Function compile flags: /Ogtp
;	COMDAT ??1bad_alloc@std@@UAE@XZ
_TEXT	SEGMENT
??1bad_alloc@std@@UAE@XZ PROC				; std::bad_alloc::~bad_alloc, COMDAT
; _this$ = ecx

; 354  : 		{	// destroy the object

  00000	c7 01 00 00 00
	00		 mov	 DWORD PTR [ecx], OFFSET ??_7bad_alloc@std@@6B@

; 355  : 		}

  00006	e9 00 00 00 00	 jmp	 ??1exception@std@@UAE@XZ ; std::exception::~exception
??1bad_alloc@std@@UAE@XZ ENDP				; std::bad_alloc::~bad_alloc
; Function compile flags: /Ogtp
_TEXT	ENDS
;	COMDAT ??_Gbad_alloc@std@@UAEPAXI@Z
_TEXT	SEGMENT
___flags$ = 8						; size = 4
??_Gbad_alloc@std@@UAEPAXI@Z PROC			; std::bad_alloc::`scalar deleting destructor', COMDAT
; _this$ = ecx
  00000	55		 push	 ebp
  00001	8b ec		 mov	 ebp, esp
  00003	56		 push	 esi
  00004	8b f1		 mov	 esi, ecx
  00006	c7 06 00 00 00
	00		 mov	 DWORD PTR [esi], OFFSET ??_7bad_alloc@std@@6B@
  0000c	e8 00 00 00 00	 call	 ??1exception@std@@UAE@XZ ; std::exception::~exception
  00011	f6 45 08 01	 test	 BYTE PTR ___flags$[ebp], 1
  00015	74 09		 je	 SHORT $LN6@scalar@5
  00017	56		 push	 esi
  00018	e8 00 00 00 00	 call	 ??3@YAXPAX@Z		; operator delete
  0001d	83 c4 04	 add	 esp, 4
$LN6@scalar@5:
  00020	8b c6		 mov	 eax, esi
  00022	5e		 pop	 esi
  00023	5d		 pop	 ebp
  00024	c2 04 00	 ret	 4
??_Gbad_alloc@std@@UAEPAXI@Z ENDP			; std::bad_alloc::`scalar deleting destructor'
_TEXT	ENDS
PUBLIC	?CheckTeleportMagicAxisY@CCastleSiege@@QAEHHHH@Z ; CCastleSiege::CheckTeleportMagicAxisY
; Function compile flags: /Ogtp
; File c:\muserver_dev\development\mu-s8ep2-repack\gameserver\source\castlesiege.cpp
;	COMDAT ?CheckTeleportMagicAxisY@CCastleSiege@@QAEHHHH@Z
_TEXT	SEGMENT
_iStartY$ = 8						; size = 4
_iTargetX$ = 12						; size = 4
_iTargetY$ = 16						; size = 4
?CheckTeleportMagicAxisY@CCastleSiege@@QAEHHHH@Z PROC	; CCastleSiege::CheckTeleportMagicAxisY, COMDAT
; _this$ = ecx

; 5260 : {

  00000	55		 push	 ebp
  00001	8b ec		 mov	 ebp, esp

; 5261 : 	for(int iSTEP = 0; iSTEP < 3; iSTEP++)

  00003	8b 55 08	 mov	 edx, DWORD PTR _iStartY$[ebp]
  00006	56		 push	 esi
  00007	8b 75 10	 mov	 esi, DWORD PTR _iTargetY$[ebp]
  0000a	57		 push	 edi
  0000b	8b 7d 0c	 mov	 edi, DWORD PTR _iTargetX$[ebp]
  0000e	b9 00 00 00 00	 mov	 ecx, OFFSET ?g_iCastleWallStepAxisY@@3PAHA ; g_iCastleWallStepAxisY
$LL4@CheckTelep:

; 5262 : 	{
; 5263 : 		if(g_iCastleWallStepAxisY[iSTEP] >= iStartY
; 5264 : 			&& g_iCastleWallStepAxisY[iSTEP] <= iTargetY
; 5265 : 			&& iTargetX < 144)

  00013	8b 01		 mov	 eax, DWORD PTR [ecx]
  00015	3b c2		 cmp	 eax, edx
  00017	7c 0c		 jl	 SHORT $LN3@CheckTelep
  00019	3b c6		 cmp	 eax, esi
  0001b	7f 08		 jg	 SHORT $LN3@CheckTelep
  0001d	81 ff 90 00 00
	00		 cmp	 edi, 144		; 00000090H
  00023	7c 16		 jl	 SHORT $LN8@CheckTelep
$LN3@CheckTelep:

; 5261 : 	for(int iSTEP = 0; iSTEP < 3; iSTEP++)

  00025	83 c1 04	 add	 ecx, 4
  00028	81 f9 0c 00 00
	00		 cmp	 ecx, OFFSET ?g_iCastleWallStepAxisY@@3PAHA+12
  0002e	7c e3		 jl	 SHORT $LL4@CheckTelep

; 5268 : 		}
; 5269 : 	}
; 5270 : 	return true;

  00030	5f		 pop	 edi
  00031	b8 01 00 00 00	 mov	 eax, 1
  00036	5e		 pop	 esi

; 5271 : }

  00037	5d		 pop	 ebp
  00038	c2 0c 00	 ret	 12			; 0000000cH
$LN8@CheckTelep:
  0003b	5f		 pop	 edi

; 5266 : 		{
; 5267 : 			return false;

  0003c	33 c0		 xor	 eax, eax
  0003e	5e		 pop	 esi

; 5271 : }

  0003f	5d		 pop	 ebp
  00040	c2 0c 00	 ret	 12			; 0000000cH
?CheckTeleportMagicAxisY@CCastleSiege@@QAEHHHH@Z ENDP	; CCastleSiege::CheckTeleportMagicAxisY
_TEXT	ENDS
PUBLIC	?NotifyCsSelfLeftTime@CCastleSiege@@QAEXH@Z	; CCastleSiege::NotifyCsSelfLeftTime
EXTRN	?GCAnsSelfCsLeftTimeAlarm@@YAXHEE@Z:PROC	; GCAnsSelfCsLeftTimeAlarm
; Function compile flags: /Ogtp
;	COMDAT ?NotifyCsSelfLeftTime@CCastleSiege@@QAEXH@Z
_TEXT	SEGMENT
_iIndex$ = 8						; size = 4
?NotifyCsSelfLeftTime@CCastleSiege@@QAEXH@Z PROC	; CCastleSiege::NotifyCsSelfLeftTime, COMDAT
; _this$ = ecx

; 5274 : {

  00000	55		 push	 ebp
  00001	8b ec		 mov	 ebp, esp

; 5275 : 	GCAnsSelfCsLeftTimeAlarm(iIndex,(m_iCS_REMAIN_MSEC / 1000) / 3600,((m_iCS_REMAIN_MSEC / 1000) % 3600) / 60);

  00003	8b 49 68	 mov	 ecx, DWORD PTR [ecx+104]
  00006	b8 d3 4d 62 10	 mov	 eax, 274877907		; 10624dd3H
  0000b	f7 e9		 imul	 ecx
  0000d	c1 fa 06	 sar	 edx, 6
  00010	8b c2		 mov	 eax, edx
  00012	c1 e8 1f	 shr	 eax, 31			; 0000001fH
  00015	03 c2		 add	 eax, edx
  00017	99		 cdq
  00018	b9 10 0e 00 00	 mov	 ecx, 3600		; 00000e10H
  0001d	f7 f9		 idiv	 ecx
  0001f	56		 push	 esi
  00020	8b f0		 mov	 esi, eax
  00022	8b ca		 mov	 ecx, edx
  00024	b8 89 88 88 88	 mov	 eax, -2004318071	; 88888889H
  00029	f7 e9		 imul	 ecx
  0002b	03 d1		 add	 edx, ecx
  0002d	8b 4d 08	 mov	 ecx, DWORD PTR _iIndex$[ebp]
  00030	c1 fa 05	 sar	 edx, 5
  00033	8b c2		 mov	 eax, edx
  00035	c1 e8 1f	 shr	 eax, 31			; 0000001fH
  00038	03 c2		 add	 eax, edx
  0003a	50		 push	 eax
  0003b	56		 push	 esi
  0003c	51		 push	 ecx
  0003d	e8 00 00 00 00	 call	 ?GCAnsSelfCsLeftTimeAlarm@@YAXHEE@Z ; GCAnsSelfCsLeftTimeAlarm
  00042	83 c4 0c	 add	 esp, 12			; 0000000cH
  00045	5e		 pop	 esi

; 5276 : }

  00046	5d		 pop	 ebp
  00047	c2 04 00	 ret	 4
?NotifyCsSelfLeftTime@CCastleSiege@@QAEXH@Z ENDP	; CCastleSiege::NotifyCsSelfLeftTime
_TEXT	ENDS
PUBLIC	?ReSpawnAllUser@CCastleSiege@@QAEXXZ		; CCastleSiege::ReSpawnAllUser
; Function compile flags: /Ogtp
;	COMDAT ?ReSpawnAllUser@CCastleSiege@@QAEXXZ
_TEXT	SEGMENT
_iCNT$189500 = -12					; size = 4
_iCNT$189494 = -12					; size = 4
_iCNT$189488 = -12					; size = 4
_iUSER$189473 = -8					; size = 4
_iTY$ = -4						; size = 4
?ReSpawnAllUser@CCastleSiege@@QAEXXZ PROC		; CCastleSiege::ReSpawnAllUser, COMDAT
; _this$ = ecx

; 5279 : {

  00000	55		 push	 ebp
  00001	8b ec		 mov	 ebp, esp
  00003	83 ec 0c	 sub	 esp, 12			; 0000000cH
  00006	53		 push	 ebx
  00007	56		 push	 esi
  00008	57		 push	 edi

; 5280 : 		int iTX;
; 5281 : 	int iTY;
; 5282 : 	unsigned char btMapAttr;
; 5283 : 
; 5284 : 	for(int iUSER = OBJ_STARTUSERINDEX; iUSER < OBJMAX; iUSER++)

  00009	c7 45 f8 04 29
	00 00		 mov	 DWORD PTR _iUSER$189473[ebp], 10500 ; 00002904H
  00010	be 00 dd 49 06	 mov	 esi, 105504000		; 0649dd00H
$LL26@ReSpawnAll:

; 5285 : 	{
; 5286 : 		if(gObjIsConnected(iUSER) == FALSE)

  00015	8b 45 f8	 mov	 eax, DWORD PTR _iUSER$189473[ebp]
  00018	50		 push	 eax
  00019	e8 00 00 00 00	 call	 ?gObjIsConnected@@YAHH@Z ; gObjIsConnected
  0001e	83 c4 04	 add	 esp, 4
  00021	85 c0		 test	 eax, eax
  00023	0f 84 43 02 00
	00		 je	 $LN25@ReSpawnAll

; 5287 : 			continue;
; 5288 : 
; 5289 : 		if(gObj[iUSER].MapNumber != MAP_INDEX_CASTLESIEGE)

  00029	a1 00 00 00 00	 mov	 eax, DWORD PTR ?gObj@@3PAUOBJECTSTRUCT@@A ; gObj
  0002e	80 bc 06 23 01
	00 00 1e	 cmp	 BYTE PTR [esi+eax+291], 30 ; 0000001eH
  00036	0f 85 30 02 00
	00		 jne	 $LN25@ReSpawnAll

; 5290 : 			continue;
; 5291 : 
; 5292 : 		unsigned char btCsJoinSide = gObj[iUSER].m_btCsJoinSide;

  0003c	8a 84 06 5a 20
	00 00		 mov	 al, BYTE PTR [esi+eax+8282]

; 5293 : 
; 5294 : 		if(btCsJoinSide < 0)
; 5295 : 		{
; 5296 : 			btCsJoinSide = 0;
; 5297 : 		}
; 5298 : 
; 5299 : 		if(btCsJoinSide > 2)

  00043	3c 02		 cmp	 al, 2
  00045	76 02		 jbe	 SHORT $LN20@ReSpawnAll

; 5300 : 		{
; 5301 : 			btCsJoinSide = 2;

  00047	b0 02		 mov	 al, 2
$LN20@ReSpawnAll:

; 5302 : 		}
; 5303 : 
; 5304 : 		int bMoveOK = FALSE;
; 5305 : 
; 5306 : 		switch(btCsJoinSide)

  00049	0f b6 c0	 movzx	 eax, al
  0004c	48		 dec	 eax

; 5335 : 					{
; 5336 : 						bMoveOK = TRUE;
; 5337 : 						break;
; 5338 : 					}
; 5339 : 				}
; 5340 : 			}
; 5341 : 			break;
; 5342 : 		default:
; 5343 : 			{
; 5344 : 				for(int iCNT = 0; iCNT < 100; iCNT++)

  0004d	c7 45 f4 00 00
	00 00		 mov	 DWORD PTR _iCNT$189500[ebp], 0
  00054	0f 84 ba 00 00
	00		 je	 $LL16@ReSpawnAll

; 5302 : 		}
; 5303 : 
; 5304 : 		int bMoveOK = FALSE;
; 5305 : 
; 5306 : 		switch(btCsJoinSide)

  0005a	48		 dec	 eax
  0005b	74 63		 je	 SHORT $LL11@ReSpawnAll
  0005d	8d 49 00	 npad	 3
$LL6@ReSpawnAll:

; 5345 : 				{
; 5346 : 					iTX = (rand() % (g_iCsUserReSpawnArea[0][2] - g_iCsUserReSpawnArea[0][0])) + g_iCsUserReSpawnArea[0][0];

  00060	e8 00 00 00 00	 call	 _rand
  00065	8b 0d 00 00 00
	00		 mov	 ecx, DWORD PTR ?g_iCsUserReSpawnArea@@3PAY03HA
  0006b	8b 3d 08 00 00
	00		 mov	 edi, DWORD PTR ?g_iCsUserReSpawnArea@@3PAY03HA+8
  00071	99		 cdq
  00072	2b f9		 sub	 edi, ecx
  00074	f7 ff		 idiv	 edi
  00076	8d 1c 11	 lea	 ebx, DWORD PTR [ecx+edx]

; 5347 : 					iTY = (rand() % (g_iCsUserReSpawnArea[0][3] - g_iCsUserReSpawnArea[0][1])) + g_iCsUserReSpawnArea[0][1];

  00079	e8 00 00 00 00	 call	 _rand
  0007e	8b 0d 04 00 00
	00		 mov	 ecx, DWORD PTR ?g_iCsUserReSpawnArea@@3PAY03HA+4
  00084	8b 3d 0c 00 00
	00		 mov	 edi, DWORD PTR ?g_iCsUserReSpawnArea@@3PAY03HA+12
  0008a	2b f9		 sub	 edi, ecx
  0008c	99		 cdq
  0008d	f7 ff		 idiv	 edi
  0008f	03 d1		 add	 edx, ecx

; 5348 : 	
; 5349 : 					btMapAttr = MapC[MAP_INDEX_CASTLESIEGE].m_attrbuf[iTY * 256 + iTX];

  00091	8b ca		 mov	 ecx, edx
  00093	c1 e1 08	 shl	 ecx, 8
  00096	03 0d c0 94 9c
	00		 add	 ecx, DWORD PTR ?MapC@@3PAVMapClass@@A+10261696
  0009c	89 55 fc	 mov	 DWORD PTR _iTY$[ebp], edx

; 5350 : 	
; 5351 : 					if((btMapAttr & 4) != 4)

  0009f	f6 04 19 04	 test	 BYTE PTR [ecx+ebx], 4
  000a3	0f 84 c2 00 00
	00		 je	 $LN45@ReSpawnAll

; 5335 : 					{
; 5336 : 						bMoveOK = TRUE;
; 5337 : 						break;
; 5338 : 					}
; 5339 : 				}
; 5340 : 			}
; 5341 : 			break;
; 5342 : 		default:
; 5343 : 			{
; 5344 : 				for(int iCNT = 0; iCNT < 100; iCNT++)

  000a9	8b 45 f4	 mov	 eax, DWORD PTR _iCNT$189500[ebp]
  000ac	40		 inc	 eax
  000ad	89 45 f4	 mov	 DWORD PTR _iCNT$189500[ebp], eax
  000b0	83 f8 64	 cmp	 eax, 100		; 00000064H
  000b3	7c ab		 jl	 SHORT $LL6@ReSpawnAll

; 5316 : 	
; 5317 : 					if((btMapAttr & 4) != 4)

  000b5	e9 b2 01 00 00	 jmp	 $LN25@ReSpawnAll
  000ba	8d 9b 00 00 00
	00		 npad	 6
$LL11@ReSpawnAll:

; 5328 : 				{
; 5329 : 					iTX = (rand() % (g_iCsUserReSpawnArea[2][2] - g_iCsUserReSpawnArea[2][0])) + g_iCsUserReSpawnArea[2][0];

  000c0	e8 00 00 00 00	 call	 _rand
  000c5	8b 0d 20 00 00
	00		 mov	 ecx, DWORD PTR ?g_iCsUserReSpawnArea@@3PAY03HA+32
  000cb	8b 3d 28 00 00
	00		 mov	 edi, DWORD PTR ?g_iCsUserReSpawnArea@@3PAY03HA+40
  000d1	99		 cdq
  000d2	2b f9		 sub	 edi, ecx
  000d4	f7 ff		 idiv	 edi
  000d6	8d 1c 11	 lea	 ebx, DWORD PTR [ecx+edx]

; 5330 : 					iTY = (rand() % (g_iCsUserReSpawnArea[2][3] - g_iCsUserReSpawnArea[2][1])) + g_iCsUserReSpawnArea[2][1];

  000d9	e8 00 00 00 00	 call	 _rand
  000de	8b 0d 24 00 00
	00		 mov	 ecx, DWORD PTR ?g_iCsUserReSpawnArea@@3PAY03HA+36
  000e4	8b 3d 2c 00 00
	00		 mov	 edi, DWORD PTR ?g_iCsUserReSpawnArea@@3PAY03HA+44
  000ea	2b f9		 sub	 edi, ecx
  000ec	99		 cdq
  000ed	f7 ff		 idiv	 edi
  000ef	03 d1		 add	 edx, ecx
  000f1	89 55 fc	 mov	 DWORD PTR _iTY$[ebp], edx

; 5331 : 	
; 5332 : 					btMapAttr = MapC[MAP_INDEX_CASTLESIEGE].m_attrbuf[iTY * 256 + iTX];

  000f4	c1 e2 08	 shl	 edx, 8
  000f7	03 15 c0 94 9c
	00		 add	 edx, DWORD PTR ?MapC@@3PAVMapClass@@A+10261696

; 5333 : 	
; 5334 : 					if((btMapAttr & 4) != 4)

  000fd	f6 04 1a 04	 test	 BYTE PTR [edx+ebx], 4
  00101	74 65		 je	 SHORT $LN43@ReSpawnAll

; 5318 : 					{
; 5319 : 						bMoveOK = TRUE;
; 5320 : 						break;
; 5321 : 					}
; 5322 : 				}
; 5323 : 			}
; 5324 : 			break;
; 5325 : 		case 2:
; 5326 : 			{
; 5327 : 				for(int iCNT = 0; iCNT < 100; iCNT++)

  00103	8b 45 f4	 mov	 eax, DWORD PTR _iCNT$189494[ebp]
  00106	40		 inc	 eax
  00107	89 45 f4	 mov	 DWORD PTR _iCNT$189494[ebp], eax
  0010a	83 f8 64	 cmp	 eax, 100		; 00000064H
  0010d	7c b1		 jl	 SHORT $LL11@ReSpawnAll

; 5316 : 	
; 5317 : 					if((btMapAttr & 4) != 4)

  0010f	e9 58 01 00 00	 jmp	 $LN25@ReSpawnAll
$LL16@ReSpawnAll:

; 5311 : 				{
; 5312 : 					iTX = (rand() % (g_iCsUserReSpawnArea[1][2] - g_iCsUserReSpawnArea[1][0])) + g_iCsUserReSpawnArea[1][0];

  00114	e8 00 00 00 00	 call	 _rand
  00119	8b 0d 10 00 00
	00		 mov	 ecx, DWORD PTR ?g_iCsUserReSpawnArea@@3PAY03HA+16
  0011f	8b 3d 18 00 00
	00		 mov	 edi, DWORD PTR ?g_iCsUserReSpawnArea@@3PAY03HA+24
  00125	99		 cdq
  00126	2b f9		 sub	 edi, ecx
  00128	f7 ff		 idiv	 edi
  0012a	8d 1c 11	 lea	 ebx, DWORD PTR [ecx+edx]

; 5313 : 					iTY = (rand() % (g_iCsUserReSpawnArea[1][3] - g_iCsUserReSpawnArea[1][1])) + g_iCsUserReSpawnArea[1][1];

  0012d	e8 00 00 00 00	 call	 _rand
  00132	8b 0d 14 00 00
	00		 mov	 ecx, DWORD PTR ?g_iCsUserReSpawnArea@@3PAY03HA+20
  00138	8b 3d 1c 00 00
	00		 mov	 edi, DWORD PTR ?g_iCsUserReSpawnArea@@3PAY03HA+28
  0013e	2b f9		 sub	 edi, ecx
  00140	99		 cdq
  00141	f7 ff		 idiv	 edi
  00143	03 d1		 add	 edx, ecx
  00145	89 55 fc	 mov	 DWORD PTR _iTY$[ebp], edx

; 5314 : 	
; 5315 : 					btMapAttr = MapC[MAP_INDEX_CASTLESIEGE].m_attrbuf[iTY * 256 + iTX];

  00148	c1 e2 08	 shl	 edx, 8
  0014b	03 15 c0 94 9c
	00		 add	 edx, DWORD PTR ?MapC@@3PAVMapClass@@A+10261696

; 5316 : 	
; 5317 : 					if((btMapAttr & 4) != 4)

  00151	f6 04 1a 04	 test	 BYTE PTR [edx+ebx], 4
  00155	74 11		 je	 SHORT $LN43@ReSpawnAll

; 5307 : 		{
; 5308 : 		case 1:
; 5309 : 			{
; 5310 : 				for(int iCNT = 0; iCNT < 100; iCNT++)

  00157	8b 45 f4	 mov	 eax, DWORD PTR _iCNT$189488[ebp]
  0015a	40		 inc	 eax
  0015b	89 45 f4	 mov	 DWORD PTR _iCNT$189488[ebp], eax
  0015e	83 f8 64	 cmp	 eax, 100		; 00000064H
  00161	7c b1		 jl	 SHORT $LL16@ReSpawnAll

; 5316 : 	
; 5317 : 					if((btMapAttr & 4) != 4)

  00163	e9 04 01 00 00	 jmp	 $LN25@ReSpawnAll
$LN43@ReSpawnAll:
  00168	8b 55 fc	 mov	 edx, DWORD PTR _iTY$[ebp]
$LN45@ReSpawnAll:

; 5352 : 					{
; 5353 : 						bMoveOK = TRUE;
; 5354 : 						break;
; 5355 : 					}
; 5356 : 				}
; 5357 : 			}
; 5358 : 			break;
; 5359 : 		}
; 5360 : 
; 5361 : 		if(bMoveOK != FALSE)
; 5362 : 		{
; 5363 : 			gObj[iUSER].m_State = 32;

  0016b	a1 00 00 00 00	 mov	 eax, DWORD PTR ?gObj@@3PAUOBJECTSTRUCT@@A ; gObj
  00170	c7 84 06 d0 01
	00 00 20 00 00
	00		 mov	 DWORD PTR [esi+eax+464], 32 ; 00000020H

; 5364 : 			gObj[iUSER].X = iTX;

  0017b	8b 0d 00 00 00
	00		 mov	 ecx, DWORD PTR ?gObj@@3PAUOBJECTSTRUCT@@A ; gObj
  00181	88 9c 0e 20 01
	00 00		 mov	 BYTE PTR [esi+ecx+288], bl

; 5365 : 			gObj[iUSER].Y = iTY;

  00188	a1 00 00 00 00	 mov	 eax, DWORD PTR ?gObj@@3PAUOBJECTSTRUCT@@A ; gObj
  0018d	88 94 06 21 01
	00 00		 mov	 BYTE PTR [esi+eax+289], dl

; 5366 : 			gObj[iUSER].TX = iTX;

  00194	8b 0d 00 00 00
	00		 mov	 ecx, DWORD PTR ?gObj@@3PAUOBJECTSTRUCT@@A ; gObj
  0019a	88 9c 0e 52 01
	00 00		 mov	 BYTE PTR [esi+ecx+338], bl

; 5367 : 			gObj[iUSER].TX = iTY;

  001a1	a1 00 00 00 00	 mov	 eax, DWORD PTR ?gObj@@3PAUOBJECTSTRUCT@@A ; gObj
  001a6	88 94 06 52 01
	00 00		 mov	 BYTE PTR [esi+eax+338], dl

; 5368 : 			gObj[iUSER].MapNumber = MAP_INDEX_CASTLESIEGE;

  001ad	8b 0d 00 00 00
	00		 mov	 ecx, DWORD PTR ?gObj@@3PAUOBJECTSTRUCT@@A ; gObj
  001b3	c6 84 0e 23 01
	00 00 1e	 mov	 BYTE PTR [esi+ecx+291], 30 ; 0000001eH

; 5369 : 			gObj[iUSER].PathCount = 0;

  001bb	8b 15 00 00 00
	00		 mov	 edx, DWORD PTR ?gObj@@3PAUOBJECTSTRUCT@@A ; gObj
  001c1	c7 84 16 58 01
	00 00 00 00 00
	00		 mov	 DWORD PTR [esi+edx+344], 0

; 5370 : 			gObj[iUSER].Teleport = 0;

  001cc	a1 00 00 00 00	 mov	 eax, DWORD PTR ?gObj@@3PAUOBJECTSTRUCT@@A ; gObj
  001d1	c6 84 06 88 05
	00 00 00	 mov	 BYTE PTR [esi+eax+1416], 0

; 5371 : 
; 5372 : 			gObjClearViewport(&gObj[iUSER]);

  001d9	8b 0d 00 00 00
	00		 mov	 ecx, DWORD PTR ?gObj@@3PAUOBJECTSTRUCT@@A ; gObj
  001df	8d 14 0e	 lea	 edx, DWORD PTR [esi+ecx]
  001e2	52		 push	 edx
  001e3	e8 00 00 00 00	 call	 ?gObjClearViewport@@YAXPAUOBJECTSTRUCT@@@Z ; gObjClearViewport

; 5373 : 			GCTeleportSend(&gObj[iUSER],0xFF,MAP_INDEX_CASTLESIEGE,gObj[iUSER].X,gObj[iUSER].Y,gObj[iUSER].Dir);

  001e8	a1 00 00 00 00	 mov	 eax, DWORD PTR ?gObj@@3PAUOBJECTSTRUCT@@A ; gObj
  001ed	0f b6 8c 30 22
	01 00 00	 movzx	 ecx, BYTE PTR [eax+esi+290]
  001f5	0f b6 94 30 21
	01 00 00	 movzx	 edx, BYTE PTR [eax+esi+289]
  001fd	03 c6		 add	 eax, esi
  001ff	51		 push	 ecx
  00200	0f b6 88 20 01
	00 00		 movzx	 ecx, BYTE PTR [eax+288]
  00207	52		 push	 edx
  00208	51		 push	 ecx
  00209	6a 1e		 push	 30			; 0000001eH
  0020b	68 ff 00 00 00	 push	 255			; 000000ffH
  00210	50		 push	 eax
  00211	e8 00 00 00 00	 call	 ?GCTeleportSend@@YAXPAUOBJECTSTRUCT@@HEEEE@Z ; GCTeleportSend

; 5374 : 
; 5375 : 			if(gObj[iUSER].m_Change >= 0)

  00216	8b 15 00 00 00
	00		 mov	 edx, DWORD PTR ?gObj@@3PAUOBJECTSTRUCT@@A ; gObj
  0021c	8d 04 16	 lea	 eax, DWORD PTR [esi+edx]
  0021f	83 c4 1c	 add	 esp, 28			; 0000001cH
  00222	83 b8 34 06 00
	00 00		 cmp	 DWORD PTR [eax+1588], 0
  00229	7c 09		 jl	 SHORT $LN1@ReSpawnAll

; 5376 : 			{
; 5377 : 				gObjViewportListProtocolCreate(&gObj[iUSER]);

  0022b	50		 push	 eax
  0022c	e8 00 00 00 00	 call	 ?gObjViewportListProtocolCreate@@YAXPAUOBJECTSTRUCT@@@Z ; gObjViewportListProtocolCreate
  00231	83 c4 04	 add	 esp, 4
$LN1@ReSpawnAll:

; 5378 : 			}
; 5379 : 
; 5380 : 			gObj[iUSER].RegenMapNumber = MAP_INDEX_CASTLESIEGE;

  00234	a1 00 00 00 00	 mov	 eax, DWORD PTR ?gObj@@3PAUOBJECTSTRUCT@@A ; gObj
  00239	c6 84 06 8c 05
	00 00 1e	 mov	 BYTE PTR [esi+eax+1420], 30 ; 0000001eH

; 5381 : 			gObj[iUSER].RegenMapX = iTX;

  00241	8b 0d 00 00 00
	00		 mov	 ecx, DWORD PTR ?gObj@@3PAUOBJECTSTRUCT@@A ; gObj

; 5382 : 			gObj[iUSER].RegenMapY = iTY;

  00247	8a 45 fc	 mov	 al, BYTE PTR _iTY$[ebp]
  0024a	88 9c 0e 8d 05
	00 00		 mov	 BYTE PTR [esi+ecx+1421], bl
  00251	8b 15 00 00 00
	00		 mov	 edx, DWORD PTR ?gObj@@3PAUOBJECTSTRUCT@@A ; gObj
  00257	88 84 16 8e 05
	00 00		 mov	 BYTE PTR [esi+edx+1422], al

; 5383 : 			gObj[iUSER].RegenOk = TRUE;

  0025e	8b 0d 00 00 00
	00		 mov	 ecx, DWORD PTR ?gObj@@3PAUOBJECTSTRUCT@@A ; gObj
  00264	c6 84 0e 8b 05
	00 00 01	 mov	 BYTE PTR [esi+ecx+1419], 1
$LN25@ReSpawnAll:

; 5280 : 		int iTX;
; 5281 : 	int iTY;
; 5282 : 	unsigned char btMapAttr;
; 5283 : 
; 5284 : 	for(int iUSER = OBJ_STARTUSERINDEX; iUSER < OBJMAX; iUSER++)

  0026c	ff 45 f8	 inc	 DWORD PTR _iUSER$189473[ebp]
  0026f	81 c6 40 27 00
	00		 add	 esi, 10048		; 00002740H
  00275	81 fe 00 2f e3
	06		 cmp	 esi, 115552000		; 06e32f00H
  0027b	0f 8c 94 fd ff
	ff		 jl	 $LL26@ReSpawnAll
  00281	5f		 pop	 edi
  00282	5e		 pop	 esi
  00283	5b		 pop	 ebx

; 5384 : 		}
; 5385 : 	}
; 5386 : }

  00284	8b e5		 mov	 esp, ebp
  00286	5d		 pop	 ebp
  00287	c3		 ret	 0
?ReSpawnAllUser@CCastleSiege@@QAEXXZ ENDP		; CCastleSiege::ReSpawnAllUser
_TEXT	ENDS
PUBLIC	?SendAllUserAnyData@CCastleSiege@@QAEXPAEH@Z	; CCastleSiege::SendAllUserAnyData
; Function compile flags: /Ogtp
;	COMDAT ?SendAllUserAnyData@CCastleSiege@@QAEXPAEH@Z
_TEXT	SEGMENT
_lpMsg$ = 8						; size = 4
_iSize$ = 12						; size = 4
?SendAllUserAnyData@CCastleSiege@@QAEXPAEH@Z PROC	; CCastleSiege::SendAllUserAnyData, COMDAT
; _this$ = ecx

; 5414 : {

  00000	55		 push	 ebp
  00001	8b ec		 mov	 ebp, esp

; 5415 : 	for(int i = OBJ_STARTUSERINDEX; i < OBJMAX; i++)

  00003	a1 00 00 00 00	 mov	 eax, DWORD PTR ?gObj@@3PAUOBJECTSTRUCT@@A ; gObj
  00008	53		 push	 ebx
  00009	8b 5d 0c	 mov	 ebx, DWORD PTR _iSize$[ebp]
  0000c	56		 push	 esi
  0000d	57		 push	 edi
  0000e	bf 04 29 00 00	 mov	 edi, 10500		; 00002904H
  00013	be 00 dd 49 06	 mov	 esi, 105504000		; 0649dd00H
$LL4@SendAllUse@2:

; 5416 : 	{
; 5417 : 		if(gObj[i].Connected == PLAYER_PLAYING && gObj[i].Type == OBJ_USER)

  00018	83 7c 06 04 03	 cmp	 DWORD PTR [esi+eax+4], 3
  0001d	75 1a		 jne	 SHORT $LN3@SendAllUse@2
  0001f	80 7c 06 50 01	 cmp	 BYTE PTR [esi+eax+80], 1
  00024	75 13		 jne	 SHORT $LN3@SendAllUse@2

; 5418 : 		{
; 5419 : 			DataSend(i,lpMsg,iSize);

  00026	8b 45 08	 mov	 eax, DWORD PTR _lpMsg$[ebp]
  00029	53		 push	 ebx
  0002a	50		 push	 eax
  0002b	57		 push	 edi
  0002c	e8 00 00 00 00	 call	 ?DataSend@@YAHHPAEK@Z	; DataSend
  00031	a1 00 00 00 00	 mov	 eax, DWORD PTR ?gObj@@3PAUOBJECTSTRUCT@@A ; gObj
  00036	83 c4 0c	 add	 esp, 12			; 0000000cH
$LN3@SendAllUse@2:

; 5415 : 	for(int i = OBJ_STARTUSERINDEX; i < OBJMAX; i++)

  00039	81 c6 40 27 00
	00		 add	 esi, 10048		; 00002740H
  0003f	47		 inc	 edi
  00040	81 fe 00 2f e3
	06		 cmp	 esi, 115552000		; 06e32f00H
  00046	7c d0		 jl	 SHORT $LL4@SendAllUse@2
  00048	5f		 pop	 edi
  00049	5e		 pop	 esi
  0004a	5b		 pop	 ebx

; 5420 : 		}
; 5421 : 	}
; 5422 : }

  0004b	5d		 pop	 ebp
  0004c	c2 08 00	 ret	 8
