; Listing generated by Microsoft (R) Optimizing Compiler Version 16.00.40219.01 

	TITLE	C:\muserver_dev\development\MU-S8EP2-Repack\GameServer\Source\CastleSiegeSync.cpp
	.686P
	.XMM
	include listing.inc
	.model	flat

INCLUDELIB LIBCMT
INCLUDELIB OLDNAMES

PUBLIC	??1OBJECTSTRUCT@@QAE@XZ				; OBJECTSTRUCT::~OBJECTSTRUCT
EXTRN	??1CSkillDelay@@UAE@XZ:PROC			; CSkillDelay::~CSkillDelay
EXTRN	??1TMonsterAIAgro@@UAE@XZ:PROC			; TMonsterAIAgro::~TMonsterAIAgro
EXTRN	___security_cookie:DWORD
EXTRN	___CxxFrameHandler3:PROC
EXTRN	@__security_check_cookie@4:PROC
;	COMDAT xdata$x
xdata$x	SEGMENT
__unwindtable$??1OBJECTSTRUCT@@QAE@XZ DD 0ffffffffH
	DD	FLAT:__unwindfunclet$??1OBJECTSTRUCT@@QAE@XZ$0
__ehfuncinfo$??1OBJECTSTRUCT@@QAE@XZ DD 019930522H
	DD	01H
	DD	FLAT:__unwindtable$??1OBJECTSTRUCT@@QAE@XZ
	DD	2 DUP(00H)
	DD	2 DUP(00H)
	DD	00H
	DD	01H
; Function compile flags: /Ogtp
xdata$x	ENDS
;	COMDAT ??1OBJECTSTRUCT@@QAE@XZ
_TEXT	SEGMENT
_this$ = -16						; size = 4
__$EHRec$ = -12						; size = 12
??1OBJECTSTRUCT@@QAE@XZ PROC				; OBJECTSTRUCT::~OBJECTSTRUCT, COMDAT
; _this$ = ecx
  00000	55		 push	 ebp
  00001	8b ec		 mov	 ebp, esp
  00003	6a ff		 push	 -1
  00005	68 00 00 00 00	 push	 __ehhandler$??1OBJECTSTRUCT@@QAE@XZ
  0000a	64 a1 00 00 00
	00		 mov	 eax, DWORD PTR fs:0
  00010	50		 push	 eax
  00011	51		 push	 ecx
  00012	56		 push	 esi
  00013	a1 00 00 00 00	 mov	 eax, DWORD PTR ___security_cookie
  00018	33 c5		 xor	 eax, ebp
  0001a	50		 push	 eax
  0001b	8d 45 f4	 lea	 eax, DWORD PTR __$EHRec$[ebp]
  0001e	64 a3 00 00 00
	00		 mov	 DWORD PTR fs:0, eax
  00024	8b f1		 mov	 esi, ecx
  00026	89 75 f0	 mov	 DWORD PTR _this$[ebp], esi
  00029	8d 8e ec 20 00
	00		 lea	 ecx, DWORD PTR [esi+8428]
  0002f	c7 45 fc 00 00
	00 00		 mov	 DWORD PTR __$EHRec$[ebp+8], 0
  00036	e8 00 00 00 00	 call	 ??1TMonsterAIAgro@@UAE@XZ ; TMonsterAIAgro::~TMonsterAIAgro
  0003b	8d 8e 0c 16 00
	00		 lea	 ecx, DWORD PTR [esi+5644]
  00041	c7 45 fc ff ff
	ff ff		 mov	 DWORD PTR __$EHRec$[ebp+8], -1
  00048	e8 00 00 00 00	 call	 ??1CSkillDelay@@UAE@XZ	; CSkillDelay::~CSkillDelay
  0004d	8b 4d f4	 mov	 ecx, DWORD PTR __$EHRec$[ebp]
  00050	64 89 0d 00 00
	00 00		 mov	 DWORD PTR fs:0, ecx
  00057	59		 pop	 ecx
  00058	5e		 pop	 esi
  00059	8b e5		 mov	 esp, ebp
  0005b	5d		 pop	 ebp
  0005c	c3		 ret	 0
_TEXT	ENDS
;	COMDAT text$x
text$x	SEGMENT
__unwindfunclet$??1OBJECTSTRUCT@@QAE@XZ$0:
  00000	8b 4d f0	 mov	 ecx, DWORD PTR _this$[ebp]
  00003	81 c1 0c 16 00
	00		 add	 ecx, 5644		; 0000160cH
  00009	e9 00 00 00 00	 jmp	 ??1CSkillDelay@@UAE@XZ	; CSkillDelay::~CSkillDelay
__ehhandler$??1OBJECTSTRUCT@@QAE@XZ:
  0000e	8b 54 24 08	 mov	 edx, DWORD PTR [esp+8]
  00012	8d 42 0c	 lea	 eax, DWORD PTR [edx+12]
  00015	8b 4a f4	 mov	 ecx, DWORD PTR [edx-12]
  00018	33 c8		 xor	 ecx, eax
  0001a	e8 00 00 00 00	 call	 @__security_check_cookie@4
  0001f	b8 00 00 00 00	 mov	 eax, OFFSET __ehfuncinfo$??1OBJECTSTRUCT@@QAE@XZ
  00024	e9 00 00 00 00	 jmp	 ___CxxFrameHandler3
text$x	ENDS
??1OBJECTSTRUCT@@QAE@XZ ENDP				; OBJECTSTRUCT::~OBJECTSTRUCT
PUBLIC	?GetMapSvrGroup@CMapServerManager@@QAEHXZ	; CMapServerManager::GetMapSvrGroup
; Function compile flags: /Ogtp
; File c:\muserver_dev\development\mu-s8ep2-repack\gameserver\source\mapservermanager.h
;	COMDAT ?GetMapSvrGroup@CMapServerManager@@QAEHXZ
_TEXT	SEGMENT
?GetMapSvrGroup@CMapServerManager@@QAEHXZ PROC		; CMapServerManager::GetMapSvrGroup, COMDAT
; _this$ = ecx

; 55   : 		if ( this->m_lpThisMapSvrData != NULL )

  00000	8b 81 00 6b 01
	00		 mov	 eax, DWORD PTR [ecx+92928]
  00006	85 c0		 test	 eax, eax
  00008	74 05		 je	 SHORT $LN1@GetMapSvrG

; 56   : 		{
; 57   : 			return m_lpThisMapSvrData->m_btMAPSVR_GROUP;

  0000a	0f b6 40 08	 movzx	 eax, BYTE PTR [eax+8]

; 60   : 	}

  0000e	c3		 ret	 0
$LN1@GetMapSvrG:

; 58   : 		}
; 59   : 		return -1;

  0000f	83 c8 ff	 or	 eax, -1

; 60   : 	}

  00012	c3		 ret	 0
?GetMapSvrGroup@CMapServerManager@@QAEHXZ ENDP		; CMapServerManager::GetMapSvrGroup
_TEXT	ENDS
PUBLIC	??_7CCastleSiegeSync@@6B@			; CCastleSiegeSync::`vftable'
PUBLIC	??1CCastleSiegeSync@@UAE@XZ			; CCastleSiegeSync::~CCastleSiegeSync
PUBLIC	??_R4CCastleSiegeSync@@6B@			; CCastleSiegeSync::`RTTI Complete Object Locator'
PUBLIC	??_R0?AVCCastleSiegeSync@@@8			; CCastleSiegeSync `RTTI Type Descriptor'
PUBLIC	??_R3CCastleSiegeSync@@8			; CCastleSiegeSync::`RTTI Class Hierarchy Descriptor'
PUBLIC	??_R2CCastleSiegeSync@@8			; CCastleSiegeSync::`RTTI Base Class Array'
PUBLIC	??_R1A@?0A@EA@CCastleSiegeSync@@8		; CCastleSiegeSync::`RTTI Base Class Descriptor at (0,-1,0,64)'
EXTRN	??_7type_info@@6B@:QWORD			; type_info::`vftable'
EXTRN	??_ECCastleSiegeSync@@UAEPAXI@Z:PROC		; CCastleSiegeSync::`vector deleting destructor'
;	COMDAT ??_R1A@?0A@EA@CCastleSiegeSync@@8
; File c:\muserver_dev\development\mu-s8ep2-repack\gameserver\source\castlesiegesync.cpp
rdata$r	SEGMENT
??_R1A@?0A@EA@CCastleSiegeSync@@8 DD FLAT:??_R0?AVCCastleSiegeSync@@@8 ; CCastleSiegeSync::`RTTI Base Class Descriptor at (0,-1,0,64)'
	DD	00H
	DD	00H
	DD	0ffffffffH
	DD	00H
	DD	040H
	DD	FLAT:??_R3CCastleSiegeSync@@8
rdata$r	ENDS
;	COMDAT ??_R2CCastleSiegeSync@@8
rdata$r	SEGMENT
??_R2CCastleSiegeSync@@8 DD FLAT:??_R1A@?0A@EA@CCastleSiegeSync@@8 ; CCastleSiegeSync::`RTTI Base Class Array'
rdata$r	ENDS
;	COMDAT ??_R3CCastleSiegeSync@@8
rdata$r	SEGMENT
??_R3CCastleSiegeSync@@8 DD 00H				; CCastleSiegeSync::`RTTI Class Hierarchy Descriptor'
	DD	00H
	DD	01H
	DD	FLAT:??_R2CCastleSiegeSync@@8
rdata$r	ENDS
;	COMDAT ??_R0?AVCCastleSiegeSync@@@8
_DATA	SEGMENT
??_R0?AVCCastleSiegeSync@@@8 DD FLAT:??_7type_info@@6B@	; CCastleSiegeSync `RTTI Type Descriptor'
	DD	00H
	DB	'.?AVCCastleSiegeSync@@', 00H
_DATA	ENDS
;	COMDAT ??_R4CCastleSiegeSync@@6B@
rdata$r	SEGMENT
??_R4CCastleSiegeSync@@6B@ DD 00H			; CCastleSiegeSync::`RTTI Complete Object Locator'
	DD	00H
	DD	00H
	DD	FLAT:??_R0?AVCCastleSiegeSync@@@8
	DD	FLAT:??_R3CCastleSiegeSync@@8
rdata$r	ENDS
;	COMDAT ??_7CCastleSiegeSync@@6B@
CONST	SEGMENT
??_7CCastleSiegeSync@@6B@ DD FLAT:??_R4CCastleSiegeSync@@6B@ ; CCastleSiegeSync::`vftable'
	DD	FLAT:??_ECCastleSiegeSync@@UAEPAXI@Z
; Function compile flags: /Ogtp
CONST	ENDS
;	COMDAT ??1CCastleSiegeSync@@UAE@XZ
_TEXT	SEGMENT
??1CCastleSiegeSync@@UAE@XZ PROC			; CCastleSiegeSync::~CCastleSiegeSync, COMDAT
; _this$ = ecx

; 21   : {

  00000	c7 01 00 00 00
	00		 mov	 DWORD PTR [ecx], OFFSET ??_7CCastleSiegeSync@@6B@

; 22   : 	return;
; 23   : }

  00006	c3		 ret	 0
??1CCastleSiegeSync@@UAE@XZ ENDP			; CCastleSiegeSync::~CCastleSiegeSync
_TEXT	ENDS
PUBLIC	?Clear@CCastleSiegeSync@@QAEXXZ			; CCastleSiegeSync::Clear
; Function compile flags: /Ogtp
;	COMDAT ?Clear@CCastleSiegeSync@@QAEXXZ
_TEXT	SEGMENT
?Clear@CCastleSiegeSync@@QAEXXZ PROC			; CCastleSiegeSync::Clear, COMDAT
; _this$ = ecx

; 29   : 	this->m_iCurCastleState = -1;
; 30   : 	this->m_iCurTaxRateChaos = 0;

  00000	33 c0		 xor	 eax, eax
  00002	c7 41 04 ff ff
	ff ff		 mov	 DWORD PTR [ecx+4], -1
  00009	89 41 08	 mov	 DWORD PTR [ecx+8], eax

; 31   : 	this->m_iCurTaxRateStore  = 0;

  0000c	89 41 0c	 mov	 DWORD PTR [ecx+12], eax

; 32   : 	this->m_lCastleTributeMoney = 0;

  0000f	89 41 14	 mov	 DWORD PTR [ecx+20], eax

; 33   : 	this->m_iCsTributeMoneyTimer = 0;

  00012	89 41 28	 mov	 DWORD PTR [ecx+40], eax

; 34   : 	memset(this->m_szCastleOwnerGuild, 0, sizeof(this->m_szCastleOwnerGuild));

  00015	89 41 18	 mov	 DWORD PTR [ecx+24], eax
  00018	89 41 1c	 mov	 DWORD PTR [ecx+28], eax
  0001b	89 41 20	 mov	 DWORD PTR [ecx+32], eax
  0001e	89 41 24	 mov	 DWORD PTR [ecx+36], eax

; 35   : }

  00021	c3		 ret	 0
?Clear@CCastleSiegeSync@@QAEXXZ ENDP			; CCastleSiegeSync::Clear
_TEXT	ENDS
PUBLIC	?SetCastleOwnerGuild@CCastleSiegeSync@@QAEXPAD@Z ; CCastleSiegeSync::SetCastleOwnerGuild
; Function compile flags: /Ogtp
;	COMDAT ?SetCastleOwnerGuild@CCastleSiegeSync@@QAEXPAD@Z
_TEXT	SEGMENT
_lpszGuildName$ = 8					; size = 4
?SetCastleOwnerGuild@CCastleSiegeSync@@QAEXPAD@Z PROC	; CCastleSiegeSync::SetCastleOwnerGuild, COMDAT
; _this$ = ecx

; 42   : {

  00000	55		 push	 ebp
  00001	8b ec		 mov	 ebp, esp

; 43   : 	if ( lpszGuildName == NULL )

  00003	8b 55 08	 mov	 edx, DWORD PTR _lpszGuildName$[ebp]
  00006	85 d2		 test	 edx, edx
  00008	74 19		 je	 SHORT $LN2@SetCastleO

; 44   : 	{
; 45   : 		return;
; 46   : 	}
; 47   : 
; 48   : 	memset(this->m_szCastleOwnerGuild, 0, sizeof(this->m_szCastleOwnerGuild));

  0000a	33 c0		 xor	 eax, eax
  0000c	89 41 18	 mov	 DWORD PTR [ecx+24], eax
  0000f	89 41 1c	 mov	 DWORD PTR [ecx+28], eax
  00012	89 41 20	 mov	 DWORD PTR [ecx+32], eax
  00015	89 41 24	 mov	 DWORD PTR [ecx+36], eax

; 49   : 	memcpy(this->m_szCastleOwnerGuild, lpszGuildName, sizeof(this->m_szCastleOwnerGuild)/2);

  00018	8b 02		 mov	 eax, DWORD PTR [edx]
  0001a	89 41 18	 mov	 DWORD PTR [ecx+24], eax
  0001d	8b 52 04	 mov	 edx, DWORD PTR [edx+4]
  00020	89 51 1c	 mov	 DWORD PTR [ecx+28], edx
$LN2@SetCastleO:

; 50   : }

  00023	5d		 pop	 ebp
  00024	c2 04 00	 ret	 4
?SetCastleOwnerGuild@CCastleSiegeSync@@QAEXPAD@Z ENDP	; CCastleSiegeSync::SetCastleOwnerGuild
_TEXT	ENDS
PUBLIC	?AddTributeMoney@CCastleSiegeSync@@QAEXH@Z	; CCastleSiegeSync::AddTributeMoney
EXTRN	__imp__InterlockedExchangeAdd@8:PROC
EXTRN	__imp__InterlockedExchange@8:PROC
; Function compile flags: /Ogtp
;	COMDAT ?AddTributeMoney@CCastleSiegeSync@@QAEXH@Z
_TEXT	SEGMENT
_iMoney$ = 8						; size = 4
?AddTributeMoney@CCastleSiegeSync@@QAEXH@Z PROC		; CCastleSiegeSync::AddTributeMoney, COMDAT
; _this$ = ecx

; 104  : {

  00000	55		 push	 ebp
  00001	8b ec		 mov	 ebp, esp

; 105  : 	if ( this->m_lCastleTributeMoney < 0 )

  00003	83 79 14 00	 cmp	 DWORD PTR [ecx+20], 0
  00007	56		 push	 esi
  00008	8d 71 14	 lea	 esi, DWORD PTR [ecx+20]
  0000b	7d 09		 jge	 SHORT $LN3@AddTribute

; 106  : 	{
; 107  : 		InterlockedExchange((LPLONG)&this->m_lCastleTributeMoney, 0);

  0000d	6a 00		 push	 0
  0000f	56		 push	 esi
  00010	ff 15 00 00 00
	00		 call	 DWORD PTR __imp__InterlockedExchange@8
$LN3@AddTribute:

; 108  : 	}
; 109  : 
; 110  : 	if ( iMoney <= 0 )

  00016	8b 45 08	 mov	 eax, DWORD PTR _iMoney$[ebp]
  00019	85 c0		 test	 eax, eax
  0001b	7e 14		 jle	 SHORT $LN4@AddTribute

; 111  : 	{
; 112  : 		return;
; 113  : 	}
; 114  : 
; 115  : 	if ( (this->m_lCastleTributeMoney + iMoney) > MAX_TRIBUTE_MONEY )

  0001d	8b 0e		 mov	 ecx, DWORD PTR [esi]
  0001f	03 c8		 add	 ecx, eax
  00021	81 f9 00 94 35
	77		 cmp	 ecx, 2000000000		; 77359400H
  00027	7f 08		 jg	 SHORT $LN4@AddTribute

; 116  : 	{
; 117  : 		return;
; 118  : 	}
; 119  : 
; 120  : 	InterlockedExchangeAdd((LPLONG)&this->m_lCastleTributeMoney, iMoney);

  00029	50		 push	 eax
  0002a	56		 push	 esi
  0002b	ff 15 00 00 00
	00		 call	 DWORD PTR __imp__InterlockedExchangeAdd@8
$LN4@AddTribute:
  00031	5e		 pop	 esi

; 121  : }

  00032	5d		 pop	 ebp
  00033	c2 04 00	 ret	 4
?AddTributeMoney@CCastleSiegeSync@@QAEXH@Z ENDP		; CCastleSiegeSync::AddTributeMoney
_TEXT	ENDS
PUBLIC	?ResetTributeMoney@CCastleSiegeSync@@QAEXXZ	; CCastleSiegeSync::ResetTributeMoney
; Function compile flags: /Ogtp
;	COMDAT ?ResetTributeMoney@CCastleSiegeSync@@QAEXXZ
_TEXT	SEGMENT
?ResetTributeMoney@CCastleSiegeSync@@QAEXXZ PROC	; CCastleSiegeSync::ResetTributeMoney, COMDAT
; _this$ = ecx

; 128  : 	InterlockedExchange((LPLONG)&this->m_lCastleTributeMoney, 0);

  00000	6a 00		 push	 0
  00002	83 c1 14	 add	 ecx, 20			; 00000014H
  00005	51		 push	 ecx
  00006	ff 15 00 00 00
	00		 call	 DWORD PTR __imp__InterlockedExchange@8

; 129  : }

  0000c	c3		 ret	 0
?ResetTributeMoney@CCastleSiegeSync@@QAEXXZ ENDP	; CCastleSiegeSync::ResetTributeMoney
_TEXT	ENDS
PUBLIC	?AdjustTributeMoney@CCastleSiegeSync@@QAEXXZ	; CCastleSiegeSync::AdjustTributeMoney
EXTRN	?GS_GDReqCastleTributeMoney@@YAXHH@Z:PROC	; GS_GDReqCastleTributeMoney
EXTRN	?g_MapServerManager@@3VCMapServerManager@@A:BYTE ; g_MapServerManager
; Function compile flags: /Ogtp
;	COMDAT ?AdjustTributeMoney@CCastleSiegeSync@@QAEXXZ
_TEXT	SEGMENT
?AdjustTributeMoney@CCastleSiegeSync@@QAEXXZ PROC	; CCastleSiegeSync::AdjustTributeMoney, COMDAT
; _this$ = ecx

; 135  : {

  00000	56		 push	 esi
  00001	57		 push	 edi
  00002	8b f9		 mov	 edi, ecx

; 136  : 	if ( this->m_lCastleTributeMoney < 0 )

  00004	83 7f 14 00	 cmp	 DWORD PTR [edi+20], 0
  00008	8d 77 14	 lea	 esi, DWORD PTR [edi+20]
  0000b	7d 09		 jge	 SHORT $LN3@AdjustTrib

; 137  : 	{
; 138  : 		InterlockedExchange((LPLONG)&this->m_lCastleTributeMoney, 0);

  0000d	6a 00		 push	 0
  0000f	56		 push	 esi
  00010	ff 15 00 00 00
	00		 call	 DWORD PTR __imp__InterlockedExchange@8
$LN3@AdjustTrib:

; 139  : 	}
; 140  : 
; 141  : 	if ( this->m_lCastleTributeMoney == 0 )

  00016	8b 36		 mov	 esi, DWORD PTR [esi]
  00018	85 f6		 test	 esi, esi
  0001a	74 3a		 je	 SHORT $LN4@AdjustTrib

; 142  : 	{
; 143  : 		return;
; 144  : 	}
; 145  : 
; 146  : 	this->m_iCsTributeMoneyTimer++;

  0001c	8b 47 28	 mov	 eax, DWORD PTR [edi+40]
  0001f	40		 inc	 eax

; 147  : 
; 148  : 	this->m_iCsTributeMoneyTimer %= 180;

  00020	99		 cdq
  00021	b9 b4 00 00 00	 mov	 ecx, 180		; 000000b4H
  00026	f7 f9		 idiv	 ecx
  00028	89 57 28	 mov	 DWORD PTR [edi+40], edx

; 149  : 
; 150  : 	if ( this->m_iCsTributeMoneyTimer != 0 )

  0002b	85 d2		 test	 edx, edx
  0002d	75 27		 jne	 SHORT $LN4@AdjustTrib

; 151  : 	{
; 152  : 		return;
; 153  : 	}
; 154  : 
; 155  : 	GS_GDReqCastleTributeMoney(g_MapServerManager.GetMapSvrGroup(), this->m_lCastleTributeMoney);

  0002f	a1 00 6b 01 00	 mov	 eax, DWORD PTR ?g_MapServerManager@@3VCMapServerManager@@A+92928
  00034	85 c0		 test	 eax, eax
  00036	74 11		 je	 SHORT $LN6@AdjustTrib
  00038	0f b6 40 08	 movzx	 eax, BYTE PTR [eax+8]
  0003c	56		 push	 esi
  0003d	50		 push	 eax
  0003e	e8 00 00 00 00	 call	 ?GS_GDReqCastleTributeMoney@@YAXHH@Z ; GS_GDReqCastleTributeMoney
  00043	83 c4 08	 add	 esp, 8
  00046	5f		 pop	 edi
  00047	5e		 pop	 esi

; 156  : }

  00048	c3		 ret	 0

; 151  : 	{
; 152  : 		return;
; 153  : 	}
; 154  : 
; 155  : 	GS_GDReqCastleTributeMoney(g_MapServerManager.GetMapSvrGroup(), this->m_lCastleTributeMoney);

$LN6@AdjustTrib:
  00049	83 c8 ff	 or	 eax, -1
  0004c	56		 push	 esi
  0004d	50		 push	 eax
  0004e	e8 00 00 00 00	 call	 ?GS_GDReqCastleTributeMoney@@YAXHH@Z ; GS_GDReqCastleTributeMoney
  00053	83 c4 08	 add	 esp, 8
$LN4@AdjustTrib:

; 156  : }

  00056	5f		 pop	 edi
  00057	5e		 pop	 esi
  00058	c3		 ret	 0
?AdjustTributeMoney@CCastleSiegeSync@@QAEXXZ ENDP	; CCastleSiegeSync::AdjustTributeMoney
_TEXT	ENDS
PUBLIC	??_C@_00CNPNBAHC@?$AA@				; `string'
PUBLIC	?CheckCastleOwnerMember@CCastleSiegeSync@@QAEHH@Z ; CCastleSiegeSync::CheckCastleOwnerMember
EXTRN	?gObj@@3PAUOBJECTSTRUCT@@A:DWORD		; gObj
EXTRN	?gObjIsConnected@@YAHH@Z:PROC			; gObjIsConnected
;	COMDAT ??_C@_00CNPNBAHC@?$AA@
CONST	SEGMENT
??_C@_00CNPNBAHC@?$AA@ DB 00H				; `string'
; Function compile flags: /Ogtp
CONST	ENDS
;	COMDAT ?CheckCastleOwnerMember@CCastleSiegeSync@@QAEHH@Z
_TEXT	SEGMENT
_iIndex$ = 8						; size = 4
?CheckCastleOwnerMember@CCastleSiegeSync@@QAEHH@Z PROC	; CCastleSiegeSync::CheckCastleOwnerMember, COMDAT
; _this$ = ecx

; 163  : {

  00000	55		 push	 ebp
  00001	8b ec		 mov	 ebp, esp
  00003	56		 push	 esi
  00004	57		 push	 edi

; 164  : 	if ( gObjIsConnected(iIndex) == FALSE )

  00005	8b 7d 08	 mov	 edi, DWORD PTR _iIndex$[ebp]
  00008	57		 push	 edi
  00009	8b f1		 mov	 esi, ecx
  0000b	e8 00 00 00 00	 call	 ?gObjIsConnected@@YAHH@Z ; gObjIsConnected
  00010	83 c4 04	 add	 esp, 4
  00013	85 c0		 test	 eax, eax
  00015	75 08		 jne	 SHORT $LN3@CheckCastl
$LN14@CheckCastl:
  00017	5f		 pop	 edi

; 165  : 	{
; 166  : 		return FALSE;

  00018	33 c0		 xor	 eax, eax
  0001a	5e		 pop	 esi

; 175  : 	{
; 176  : 		return FALSE;
; 177  : 	}
; 178  : 
; 179  : 	return TRUE;
; 180  : }

  0001b	5d		 pop	 ebp
  0001c	c2 04 00	 ret	 4
$LN3@CheckCastl:

; 167  : 	}
; 168  : 
; 169  : 	if ( strcmp(this->m_szCastleOwnerGuild, "") == 0 )

  0001f	8d 4e 18	 lea	 ecx, DWORD PTR [esi+24]
  00022	ba 00 00 00 00	 mov	 edx, OFFSET ??_C@_00CNPNBAHC@?$AA@
  00027	8b c1		 mov	 eax, ecx
  00029	53		 push	 ebx
  0002a	8d 9b 00 00 00
	00		 npad	 6
$LL6@CheckCastl:
  00030	8a 18		 mov	 bl, BYTE PTR [eax]
  00032	3a 1a		 cmp	 bl, BYTE PTR [edx]
  00034	75 1a		 jne	 SHORT $LN7@CheckCastl
  00036	84 db		 test	 bl, bl
  00038	74 12		 je	 SHORT $LN8@CheckCastl
  0003a	8a 58 01	 mov	 bl, BYTE PTR [eax+1]
  0003d	3a 5a 01	 cmp	 bl, BYTE PTR [edx+1]
  00040	75 0e		 jne	 SHORT $LN7@CheckCastl
  00042	83 c0 02	 add	 eax, 2
  00045	83 c2 02	 add	 edx, 2
  00048	84 db		 test	 bl, bl
  0004a	75 e4		 jne	 SHORT $LL6@CheckCastl
$LN8@CheckCastl:
  0004c	33 c0		 xor	 eax, eax
  0004e	eb 05		 jmp	 SHORT $LN9@CheckCastl
$LN7@CheckCastl:
  00050	1b c0		 sbb	 eax, eax
  00052	83 d8 ff	 sbb	 eax, -1
$LN9@CheckCastl:
  00055	5b		 pop	 ebx
  00056	85 c0		 test	 eax, eax

; 170  : 	{
; 171  : 		return FALSE;

  00058	74 bd		 je	 SHORT $LN14@CheckCastl

; 172  : 	}
; 173  : 
; 174  : 	if ( strcmp(gObj[iIndex].GuildName, this->m_szCastleOwnerGuild) != 0 )

  0005a	a1 00 00 00 00	 mov	 eax, DWORD PTR ?gObj@@3PAUOBJECTSTRUCT@@A ; gObj
  0005f	69 ff 40 27 00
	00		 imul	 edi, 10048		; 00002740H
  00065	8d 84 07 1c 06
	00 00		 lea	 eax, DWORD PTR [edi+eax+1564]
  0006c	8d 64 24 00	 npad	 4
$LL10@CheckCastl:
  00070	8a 10		 mov	 dl, BYTE PTR [eax]
  00072	3a 11		 cmp	 dl, BYTE PTR [ecx]
  00074	75 27		 jne	 SHORT $LN11@CheckCastl
  00076	84 d2		 test	 dl, dl
  00078	74 12		 je	 SHORT $LN12@CheckCastl
  0007a	8a 50 01	 mov	 dl, BYTE PTR [eax+1]
  0007d	3a 51 01	 cmp	 dl, BYTE PTR [ecx+1]
  00080	75 1b		 jne	 SHORT $LN11@CheckCastl
  00082	83 c0 02	 add	 eax, 2
  00085	83 c1 02	 add	 ecx, 2
  00088	84 d2		 test	 dl, dl
  0008a	75 e4		 jne	 SHORT $LL10@CheckCastl
$LN12@CheckCastl:
  0008c	33 c0		 xor	 eax, eax
  0008e	33 c9		 xor	 ecx, ecx
  00090	85 c0		 test	 eax, eax
  00092	0f 94 c1	 sete	 cl
  00095	5f		 pop	 edi
  00096	5e		 pop	 esi
  00097	8b c1		 mov	 eax, ecx

; 175  : 	{
; 176  : 		return FALSE;
; 177  : 	}
; 178  : 
; 179  : 	return TRUE;
; 180  : }

  00099	5d		 pop	 ebp
  0009a	c2 04 00	 ret	 4
$LN11@CheckCastl:

; 172  : 	}
; 173  : 
; 174  : 	if ( strcmp(gObj[iIndex].GuildName, this->m_szCastleOwnerGuild) != 0 )

  0009d	1b c0		 sbb	 eax, eax
  0009f	83 d8 ff	 sbb	 eax, -1
  000a2	33 c9		 xor	 ecx, ecx
  000a4	85 c0		 test	 eax, eax
  000a6	0f 94 c1	 sete	 cl
  000a9	5f		 pop	 edi
  000aa	5e		 pop	 esi
  000ab	8b c1		 mov	 eax, ecx

; 175  : 	{
; 176  : 		return FALSE;
; 177  : 	}
; 178  : 
; 179  : 	return TRUE;
; 180  : }

  000ad	5d		 pop	 ebp
  000ae	c2 04 00	 ret	 4
?CheckCastleOwnerMember@CCastleSiegeSync@@QAEHH@Z ENDP	; CCastleSiegeSync::CheckCastleOwnerMember
_TEXT	ENDS
PUBLIC	?CheckCastleOwnerUnionMember@CCastleSiegeSync@@QAEHH@Z ; CCastleSiegeSync::CheckCastleOwnerUnionMember
EXTRN	?SearchUnion@TUnion@@QAEPAVTUnionInfo@@H@Z:PROC	; TUnion::SearchUnion
EXTRN	?UnionManager@@3VTUnion@@A:BYTE			; UnionManager
; Function compile flags: /Ogtp
;	COMDAT ?CheckCastleOwnerUnionMember@CCastleSiegeSync@@QAEHH@Z
_TEXT	SEGMENT
_iIndex$ = 8						; size = 4
?CheckCastleOwnerUnionMember@CCastleSiegeSync@@QAEHH@Z PROC ; CCastleSiegeSync::CheckCastleOwnerUnionMember, COMDAT
; _this$ = ecx

; 187  : {

  00000	55		 push	 ebp
  00001	8b ec		 mov	 ebp, esp
  00003	56		 push	 esi
  00004	57		 push	 edi

; 188  : 	if ( gObjIsConnected(iIndex) == FALSE )

  00005	8b 7d 08	 mov	 edi, DWORD PTR _iIndex$[ebp]
  00008	57		 push	 edi
  00009	8b f1		 mov	 esi, ecx
  0000b	e8 00 00 00 00	 call	 ?gObjIsConnected@@YAHH@Z ; gObjIsConnected
  00010	83 c4 04	 add	 esp, 4
  00013	85 c0		 test	 eax, eax
  00015	75 08		 jne	 SHORT $LN5@CheckCastl@2
$LN16@CheckCastl@2:
  00017	5f		 pop	 edi

; 189  : 	{
; 190  : 		return FALSE;

  00018	33 c0		 xor	 eax, eax
  0001a	5e		 pop	 esi

; 213  : 	{
; 214  : 		return TRUE;
; 215  : 	}
; 216  : 
; 217  : 	return FALSE;
; 218  : }

  0001b	5d		 pop	 ebp
  0001c	c2 04 00	 ret	 4
$LN5@CheckCastl@2:

; 191  : 	}
; 192  : 
; 193  : 	if ( strcmp(this->m_szCastleOwnerGuild, "") == 0 )

  0001f	b9 00 00 00 00	 mov	 ecx, OFFSET ??_C@_00CNPNBAHC@?$AA@
  00024	8d 46 18	 lea	 eax, DWORD PTR [esi+24]
$LL8@CheckCastl@2:
  00027	8a 10		 mov	 dl, BYTE PTR [eax]
  00029	3a 11		 cmp	 dl, BYTE PTR [ecx]
  0002b	75 1a		 jne	 SHORT $LN9@CheckCastl@2
  0002d	84 d2		 test	 dl, dl
  0002f	74 12		 je	 SHORT $LN10@CheckCastl@2
  00031	8a 50 01	 mov	 dl, BYTE PTR [eax+1]
  00034	3a 51 01	 cmp	 dl, BYTE PTR [ecx+1]
  00037	75 0e		 jne	 SHORT $LN9@CheckCastl@2
  00039	83 c0 02	 add	 eax, 2
  0003c	83 c1 02	 add	 ecx, 2
  0003f	84 d2		 test	 dl, dl
  00041	75 e4		 jne	 SHORT $LL8@CheckCastl@2
$LN10@CheckCastl@2:
  00043	33 c0		 xor	 eax, eax
  00045	eb 05		 jmp	 SHORT $LN11@CheckCastl@2
$LN9@CheckCastl@2:
  00047	1b c0		 sbb	 eax, eax
  00049	83 d8 ff	 sbb	 eax, -1
$LN11@CheckCastl@2:
  0004c	85 c0		 test	 eax, eax

; 194  : 	{
; 195  : 		return FALSE;

  0004e	74 c7		 je	 SHORT $LN16@CheckCastl@2

; 196  : 	}
; 197  : 
; 198  : 	_GUILD_INFO_STRUCT * lpGuildInfo = gObj[iIndex].lpGuild;

  00050	a1 00 00 00 00	 mov	 eax, DWORD PTR ?gObj@@3PAUOBJECTSTRUCT@@A ; gObj
  00055	69 ff 40 27 00
	00		 imul	 edi, 10048		; 00002740H
  0005b	8b 84 07 18 06
	00 00		 mov	 eax, DWORD PTR [edi+eax+1560]

; 199  : 	
; 200  : 	if ( lpGuildInfo == NULL )

  00062	85 c0		 test	 eax, eax

; 201  : 	{
; 202  : 		return FALSE;

  00064	74 b1		 je	 SHORT $LN16@CheckCastl@2

; 203  : 	}
; 204  : 	
; 205  : 	TUnionInfo * pUnionInfo = UnionManager.SearchUnion(lpGuildInfo->iGuildUnion);

  00066	8b 88 44 07 00
	00		 mov	 ecx, DWORD PTR [eax+1860]
  0006c	51		 push	 ecx
  0006d	b9 00 00 00 00	 mov	 ecx, OFFSET ?UnionManager@@3VTUnion@@A ; UnionManager
  00072	e8 00 00 00 00	 call	 ?SearchUnion@TUnion@@QAEPAVTUnionInfo@@H@Z ; TUnion::SearchUnion

; 206  : 
; 207  : 	if ( pUnionInfo == NULL )

  00077	85 c0		 test	 eax, eax

; 208  : 	{
; 209  : 		return FALSE;

  00079	74 9c		 je	 SHORT $LN16@CheckCastl@2

; 210  : 	}
; 211  : 
; 212  : 	if ( strcmp( pUnionInfo->m_szMasterGuild, this->m_szCastleOwnerGuild) == 0 )

  0007b	8d 4e 18	 lea	 ecx, DWORD PTR [esi+24]
  0007e	83 c0 10	 add	 eax, 16			; 00000010H
$LL12@CheckCastl@2:
  00081	8a 10		 mov	 dl, BYTE PTR [eax]
  00083	3a 11		 cmp	 dl, BYTE PTR [ecx]
  00085	75 27		 jne	 SHORT $LN13@CheckCastl@2
  00087	84 d2		 test	 dl, dl
  00089	74 12		 je	 SHORT $LN14@CheckCastl@2
  0008b	8a 50 01	 mov	 dl, BYTE PTR [eax+1]
  0008e	3a 51 01	 cmp	 dl, BYTE PTR [ecx+1]
  00091	75 1b		 jne	 SHORT $LN13@CheckCastl@2
  00093	83 c0 02	 add	 eax, 2
  00096	83 c1 02	 add	 ecx, 2
  00099	84 d2		 test	 dl, dl
  0009b	75 e4		 jne	 SHORT $LL12@CheckCastl@2
$LN14@CheckCastl@2:
  0009d	33 c0		 xor	 eax, eax
  0009f	33 d2		 xor	 edx, edx
  000a1	85 c0		 test	 eax, eax
  000a3	0f 94 c2	 sete	 dl
  000a6	5f		 pop	 edi
  000a7	5e		 pop	 esi
  000a8	8b c2		 mov	 eax, edx

; 213  : 	{
; 214  : 		return TRUE;
; 215  : 	}
; 216  : 
; 217  : 	return FALSE;
; 218  : }

  000aa	5d		 pop	 ebp
  000ab	c2 04 00	 ret	 4
$LN13@CheckCastl@2:

; 210  : 	}
; 211  : 
; 212  : 	if ( strcmp( pUnionInfo->m_szMasterGuild, this->m_szCastleOwnerGuild) == 0 )

  000ae	1b c0		 sbb	 eax, eax
  000b0	83 d8 ff	 sbb	 eax, -1
  000b3	33 d2		 xor	 edx, edx
  000b5	85 c0		 test	 eax, eax
  000b7	0f 94 c2	 sete	 dl
  000ba	5f		 pop	 edi
  000bb	5e		 pop	 esi
  000bc	8b c2		 mov	 eax, edx

; 213  : 	{
; 214  : 		return TRUE;
; 215  : 	}
; 216  : 
; 217  : 	return FALSE;
; 218  : }

  000be	5d		 pop	 ebp
  000bf	c2 04 00	 ret	 4
?CheckCastleOwnerUnionMember@CCastleSiegeSync@@QAEHH@Z ENDP ; CCastleSiegeSync::CheckCastleOwnerUnionMember
_TEXT	ENDS
PUBLIC	?CheckOverlapCsMarks@CCastleSiegeSync@@QAEHH@Z	; CCastleSiegeSync::CheckOverlapCsMarks
EXTRN	?IsItem@CItem@@QAEHXZ:PROC			; CItem::IsItem
EXTRN	__ftol2_sse:PROC
; Function compile flags: /Ogtp
;	COMDAT ?CheckOverlapCsMarks@CCastleSiegeSync@@QAEHH@Z
_TEXT	SEGMENT
_x$169131 = -4						; size = 4
_iIndex$ = 8						; size = 4
?CheckOverlapCsMarks@CCastleSiegeSync@@QAEHH@Z PROC	; CCastleSiegeSync::CheckOverlapCsMarks, COMDAT
; _this$ = ecx

; 225  : {

  00000	55		 push	 ebp
  00001	8b ec		 mov	 ebp, esp
  00003	51		 push	 ecx
  00004	53		 push	 ebx

; 226  : 	for ( int x=INVENTORY_BAG_START;x<MAIN_INVENTORY_SIZE;x++)

  00005	8b 5d 08	 mov	 ebx, DWORD PTR _iIndex$[ebp]
  00008	56		 push	 esi
  00009	69 db 40 27 00
	00		 imul	 ebx, 10048		; 00002740H
  0000f	57		 push	 edi
  00010	8b 3d 00 00 00
	00		 mov	 edi, DWORD PTR ?gObj@@3PAUOBJECTSTRUCT@@A ; gObj
  00016	c7 45 fc 0c 00
	00 00		 mov	 DWORD PTR _x$169131[ebp], 12 ; 0000000cH
  0001d	be f0 09 00 00	 mov	 esi, 2544		; 000009f0H
$LL7@CheckOverl:

; 227  : 	{
; 228  : 		if ( gObj[iIndex].pInventory[x].IsItem() == TRUE )

  00022	8b 8c 3b c0 11
	00 00		 mov	 ecx, DWORD PTR [ebx+edi+4544]
  00029	03 ce		 add	 ecx, esi
  0002b	e8 00 00 00 00	 call	 ?IsItem@CItem@@QAEHXZ	; CItem::IsItem
  00030	8b 3d 00 00 00
	00		 mov	 edi, DWORD PTR ?gObj@@3PAUOBJECTSTRUCT@@A ; gObj
  00036	83 f8 01	 cmp	 eax, 1
  00039	75 38		 jne	 SHORT $LN6@CheckOverl

; 229  : 		{
; 230  : 			if ( gObj[iIndex].pInventory[x].m_Type == ITEMGET(14,21) )

  0003b	8b 84 3b c0 11
	00 00		 mov	 eax, DWORD PTR [ebx+edi+4544]
  00042	b9 15 1c 00 00	 mov	 ecx, 7189		; 00001c15H
  00047	66 39 4c 30 06	 cmp	 WORD PTR [eax+esi+6], cx
  0004c	75 25		 jne	 SHORT $LN6@CheckOverl

; 231  : 			{
; 232  : 				if ( gObj[iIndex].pInventory[x].m_Level == 3 )

  0004e	66 83 7c 30 08
	03		 cmp	 WORD PTR [eax+esi+8], 3
  00054	75 1d		 jne	 SHORT $LN6@CheckOverl

; 233  : 				{
; 234  : 					int op = (int)gObj[iIndex].pInventory[x].m_Durability;

  00056	d9 44 30 24	 fld	 DWORD PTR [eax+esi+36]
  0005a	e8 00 00 00 00	 call	 __ftol2_sse

; 235  : 
; 236  : 					if ( ITEM_DUR_RANGE(op) != FALSE)

  0005f	85 c0		 test	 eax, eax
  00061	78 10		 js	 SHORT $LN6@CheckOverl
  00063	33 d2		 xor	 edx, edx
  00065	3d fe 00 00 00	 cmp	 eax, 254		; 000000feH
  0006a	0f 9e c2	 setle	 dl
  0006d	8b c2		 mov	 eax, edx
  0006f	85 c0		 test	 eax, eax
  00071	75 1d		 jne	 SHORT $LN13@CheckOverl
$LN6@CheckOverl:

; 226  : 	for ( int x=INVENTORY_BAG_START;x<MAIN_INVENTORY_SIZE;x++)

  00073	ff 45 fc	 inc	 DWORD PTR _x$169131[ebp]
  00076	81 c6 d4 00 00
	00		 add	 esi, 212		; 000000d4H
  0007c	81 fe f0 a8 00
	00		 cmp	 esi, 43248		; 0000a8f0H
  00082	7c 9e		 jl	 SHORT $LL7@CheckOverl

; 239  : 					}
; 240  : 				}
; 241  : 			}
; 242  : 		}
; 243  : 	}
; 244  : 
; 245  : 	return -1;

  00084	5f		 pop	 edi
  00085	5e		 pop	 esi
  00086	83 c8 ff	 or	 eax, -1
  00089	5b		 pop	 ebx

; 246  : }

  0008a	8b e5		 mov	 esp, ebp
  0008c	5d		 pop	 ebp
  0008d	c2 04 00	 ret	 4
$LN13@CheckOverl:

; 237  : 					{
; 238  : 						return x;

  00090	8b 45 fc	 mov	 eax, DWORD PTR _x$169131[ebp]
  00093	5f		 pop	 edi
  00094	5e		 pop	 esi
  00095	5b		 pop	 ebx

; 246  : }

  00096	8b e5		 mov	 esp, ebp
  00098	5d		 pop	 ebp
  00099	c2 04 00	 ret	 4
?CheckOverlapCsMarks@CCastleSiegeSync@@QAEHH@Z ENDP	; CCastleSiegeSync::CheckOverlapCsMarks
_TEXT	ENDS
PUBLIC	??_EOBJECTSTRUCT@@QAEPAXI@Z			; OBJECTSTRUCT::`vector deleting destructor'
EXTRN	??3@YAXPAX@Z:PROC				; operator delete
EXTRN	??_V@YAXPAX@Z:PROC				; operator delete[]
EXTRN	??_M@YGXPAXIHP6EX0@Z@Z:PROC			; `eh vector destructor iterator'
;	COMDAT xdata$x
xdata$x	SEGMENT
__unwindtable$??_EOBJECTSTRUCT@@QAEPAXI@Z DD 0ffffffffH
	DD	FLAT:__unwindfunclet$??_EOBJECTSTRUCT@@QAEPAXI@Z$0
__ehfuncinfo$??_EOBJECTSTRUCT@@QAEPAXI@Z DD 019930522H
	DD	01H
	DD	FLAT:__unwindtable$??_EOBJECTSTRUCT@@QAEPAXI@Z
	DD	2 DUP(00H)
	DD	2 DUP(00H)
	DD	00H
	DD	01H
; Function compile flags: /Ogtp
xdata$x	ENDS
;	COMDAT ??_EOBJECTSTRUCT@@QAEPAXI@Z
_TEXT	SEGMENT
_this$ = -16						; size = 4
__$EHRec$ = -12						; size = 12
___flags$ = 8						; size = 4
??_EOBJECTSTRUCT@@QAEPAXI@Z PROC			; OBJECTSTRUCT::`vector deleting destructor', COMDAT
; _this$ = ecx
  00000	55		 push	 ebp
  00001	8b ec		 mov	 ebp, esp
  00003	6a ff		 push	 -1
  00005	68 00 00 00 00	 push	 __ehhandler$??_EOBJECTSTRUCT@@QAEPAXI@Z
  0000a	64 a1 00 00 00
	00		 mov	 eax, DWORD PTR fs:0
  00010	50		 push	 eax
  00011	51		 push	 ecx
  00012	53		 push	 ebx
  00013	56		 push	 esi
  00014	57		 push	 edi
  00015	a1 00 00 00 00	 mov	 eax, DWORD PTR ___security_cookie
  0001a	33 c5		 xor	 eax, ebp
  0001c	50		 push	 eax
  0001d	8d 45 f4	 lea	 eax, DWORD PTR __$EHRec$[ebp]
  00020	64 a3 00 00 00
	00		 mov	 DWORD PTR fs:0, eax
  00026	8b f1		 mov	 esi, ecx
  00028	89 75 f0	 mov	 DWORD PTR _this$[ebp], esi
  0002b	8a 5d 08	 mov	 bl, BYTE PTR ___flags$[ebp]
  0002e	f6 c3 02	 test	 bl, 2
  00031	74 3b		 je	 SHORT $LN3@vector
  00033	8b 46 fc	 mov	 eax, DWORD PTR [esi-4]
  00036	68 00 00 00 00	 push	 OFFSET ??1OBJECTSTRUCT@@QAE@XZ
  0003b	8d 7e fc	 lea	 edi, DWORD PTR [esi-4]
  0003e	50		 push	 eax
  0003f	68 40 27 00 00	 push	 10048			; 00002740H
  00044	56		 push	 esi
  00045	e8 00 00 00 00	 call	 ??_M@YGXPAXIHP6EX0@Z@Z
  0004a	f6 c3 01	 test	 bl, 1
  0004d	74 09		 je	 SHORT $LN2@vector
  0004f	57		 push	 edi
  00050	e8 00 00 00 00	 call	 ??_V@YAXPAX@Z		; operator delete[]
  00055	83 c4 04	 add	 esp, 4
$LN2@vector:
  00058	8b c7		 mov	 eax, edi
  0005a	8b 4d f4	 mov	 ecx, DWORD PTR __$EHRec$[ebp]
  0005d	64 89 0d 00 00
	00 00		 mov	 DWORD PTR fs:0, ecx
  00064	59		 pop	 ecx
  00065	5f		 pop	 edi
  00066	5e		 pop	 esi
  00067	5b		 pop	 ebx
  00068	8b e5		 mov	 esp, ebp
  0006a	5d		 pop	 ebp
  0006b	c2 04 00	 ret	 4
$LN3@vector:
  0006e	8d 8e ec 20 00
	00		 lea	 ecx, DWORD PTR [esi+8428]
  00074	c7 45 fc 00 00
	00 00		 mov	 DWORD PTR __$EHRec$[ebp+8], 0
  0007b	e8 00 00 00 00	 call	 ??1TMonsterAIAgro@@UAE@XZ ; TMonsterAIAgro::~TMonsterAIAgro
  00080	8d 8e 0c 16 00
	00		 lea	 ecx, DWORD PTR [esi+5644]
  00086	c7 45 fc ff ff
	ff ff		 mov	 DWORD PTR __$EHRec$[ebp+8], -1
  0008d	e8 00 00 00 00	 call	 ??1CSkillDelay@@UAE@XZ	; CSkillDelay::~CSkillDelay
  00092	f6 c3 01	 test	 bl, 1
  00095	74 09		 je	 SHORT $LN1@vector
  00097	56		 push	 esi
  00098	e8 00 00 00 00	 call	 ??3@YAXPAX@Z		; operator delete
  0009d	83 c4 04	 add	 esp, 4
$LN1@vector:
  000a0	8b c6		 mov	 eax, esi
  000a2	8b 4d f4	 mov	 ecx, DWORD PTR __$EHRec$[ebp]
  000a5	64 89 0d 00 00
	00 00		 mov	 DWORD PTR fs:0, ecx
  000ac	59		 pop	 ecx
  000ad	5f		 pop	 edi
  000ae	5e		 pop	 esi
  000af	5b		 pop	 ebx
  000b0	8b e5		 mov	 esp, ebp
  000b2	5d		 pop	 ebp
  000b3	c2 04 00	 ret	 4
_TEXT	ENDS
;	COMDAT text$x
text$x	SEGMENT
__unwindfunclet$??_EOBJECTSTRUCT@@QAEPAXI@Z$0:
  00000	8b 4d f0	 mov	 ecx, DWORD PTR _this$[ebp]
  00003	81 c1 0c 16 00
	00		 add	 ecx, 5644		; 0000160cH
  00009	e9 00 00 00 00	 jmp	 ??1CSkillDelay@@UAE@XZ	; CSkillDelay::~CSkillDelay
__ehhandler$??_EOBJECTSTRUCT@@QAEPAXI@Z:
  0000e	8b 54 24 08	 mov	 edx, DWORD PTR [esp+8]
  00012	8d 42 0c	 lea	 eax, DWORD PTR [edx+12]
  00015	8b 4a ec	 mov	 ecx, DWORD PTR [edx-20]
  00018	33 c8		 xor	 ecx, eax
  0001a	e8 00 00 00 00	 call	 @__security_check_cookie@4
  0001f	b8 00 00 00 00	 mov	 eax, OFFSET __ehfuncinfo$??_EOBJECTSTRUCT@@QAEPAXI@Z
  00024	e9 00 00 00 00	 jmp	 ___CxxFrameHandler3
text$x	ENDS
??_EOBJECTSTRUCT@@QAEPAXI@Z ENDP			; OBJECTSTRUCT::`vector deleting destructor'
PUBLIC	??0CCastleSiegeSync@@QAE@XZ			; CCastleSiegeSync::CCastleSiegeSync
; Function compile flags: /Ogtp
;	COMDAT ??0CCastleSiegeSync@@QAE@XZ
_TEXT	SEGMENT
??0CCastleSiegeSync@@QAE@XZ PROC			; CCastleSiegeSync::CCastleSiegeSync, COMDAT
; _this$ = ecx

; 14   : {

  00000	c7 01 00 00 00
	00		 mov	 DWORD PTR [ecx], OFFSET ??_7CCastleSiegeSync@@6B@

; 15   : 	this->Clear();

  00006	e8 00 00 00 00	 call	 ?Clear@CCastleSiegeSync@@QAEXXZ ; CCastleSiegeSync::Clear

; 16   : }

  0000b	8b c1		 mov	 eax, ecx
  0000d	c3		 ret	 0
??0CCastleSiegeSync@@QAE@XZ ENDP			; CCastleSiegeSync::CCastleSiegeSync
; Function compile flags: /Ogtp
_TEXT	ENDS
;	COMDAT ??_GCCastleSiegeSync@@UAEPAXI@Z
_TEXT	SEGMENT
___flags$ = 8						; size = 4
??_GCCastleSiegeSync@@UAEPAXI@Z PROC			; CCastleSiegeSync::`scalar deleting destructor', COMDAT
; _this$ = ecx
  00000	55		 push	 ebp
  00001	8b ec		 mov	 ebp, esp
  00003	56		 push	 esi
  00004	8b f1		 mov	 esi, ecx
  00006	e8 00 00 00 00	 call	 ??1CCastleSiegeSync@@UAE@XZ ; CCastleSiegeSync::~CCastleSiegeSync
  0000b	f6 45 08 01	 test	 BYTE PTR ___flags$[ebp], 1
  0000f	74 09		 je	 SHORT $LN4@scalar
  00011	56		 push	 esi
  00012	e8 00 00 00 00	 call	 ??3@YAXPAX@Z		; operator delete
  00017	83 c4 04	 add	 esp, 4
$LN4@scalar:
  0001a	8b c6		 mov	 eax, esi
  0001c	5e		 pop	 esi
  0001d	5d		 pop	 ebp
  0001e	c2 04 00	 ret	 4
??_GCCastleSiegeSync@@UAEPAXI@Z ENDP			; CCastleSiegeSync::`scalar deleting destructor'
_TEXT	ENDS
PUBLIC	?GetTaxRateChaos@CCastleSiegeSync@@QAEHH@Z	; CCastleSiegeSync::GetTaxRateChaos
; Function compile flags: /Ogtp
;	COMDAT ?GetTaxRateChaos@CCastleSiegeSync@@QAEHH@Z
_TEXT	SEGMENT
_iIndex$ = 8						; size = 4
?GetTaxRateChaos@CCastleSiegeSync@@QAEHH@Z PROC		; CCastleSiegeSync::GetTaxRateChaos, COMDAT
; _this$ = ecx

; 56   : {

  00000	55		 push	 ebp
  00001	8b ec		 mov	 ebp, esp
  00003	53		 push	 ebx
  00004	56		 push	 esi
  00005	57		 push	 edi

; 57   : 	int iCurTaxRateChaos = this->m_iCurTaxRateChaos;
; 58   : 
; 59   : 	if ( this->CheckCastleOwnerMember(iIndex) == TRUE || this->CheckCastleOwnerUnionMember(iIndex) == TRUE )

  00006	8b 7d 08	 mov	 edi, DWORD PTR _iIndex$[ebp]
  00009	8b f1		 mov	 esi, ecx
  0000b	8b 5e 08	 mov	 ebx, DWORD PTR [esi+8]
  0000e	57		 push	 edi
  0000f	e8 00 00 00 00	 call	 ?CheckCastleOwnerMember@CCastleSiegeSync@@QAEHH@Z ; CCastleSiegeSync::CheckCastleOwnerMember
  00014	83 f8 01	 cmp	 eax, 1
  00017	74 0d		 je	 SHORT $LN1@GetTaxRate
  00019	57		 push	 edi
  0001a	8b ce		 mov	 ecx, esi
  0001c	e8 00 00 00 00	 call	 ?CheckCastleOwnerUnionMember@CCastleSiegeSync@@QAEHH@Z ; CCastleSiegeSync::CheckCastleOwnerUnionMember
  00021	83 f8 01	 cmp	 eax, 1
  00024	75 09		 jne	 SHORT $LN5@GetTaxRate
$LN1@GetTaxRate:
  00026	5f		 pop	 edi
  00027	5e		 pop	 esi

; 60   : 	{
; 61   : 		iCurTaxRateChaos = 0;

  00028	33 c0		 xor	 eax, eax
  0002a	5b		 pop	 ebx

; 65   : }

  0002b	5d		 pop	 ebp
  0002c	c2 04 00	 ret	 4
$LN5@GetTaxRate:
  0002f	5f		 pop	 edi
  00030	5e		 pop	 esi

; 62   : 	}
; 63   : 
; 64   : 	return iCurTaxRateChaos;

  00031	8b c3		 mov	 eax, ebx
  00033	5b		 pop	 ebx

; 65   : }

  00034	5d		 pop	 ebp
  00035	c2 04 00	 ret	 4
?GetTaxRateChaos@CCastleSiegeSync@@QAEHH@Z ENDP		; CCastleSiegeSync::GetTaxRateChaos
_TEXT	ENDS
PUBLIC	?GetTaxRateStore@CCastleSiegeSync@@QAEHH@Z	; CCastleSiegeSync::GetTaxRateStore
; Function compile flags: /Ogtp
;	COMDAT ?GetTaxRateStore@CCastleSiegeSync@@QAEHH@Z
_TEXT	SEGMENT
_iIndex$ = 8						; size = 4
?GetTaxRateStore@CCastleSiegeSync@@QAEHH@Z PROC		; CCastleSiegeSync::GetTaxRateStore, COMDAT
; _this$ = ecx

; 71   : {

  00000	55		 push	 ebp
  00001	8b ec		 mov	 ebp, esp
  00003	53		 push	 ebx
  00004	56		 push	 esi
  00005	57		 push	 edi

; 72   : 	int iCurTaxRateStore = this->m_iCurTaxRateStore;
; 73   : 
; 74   : 	if ( this->CheckCastleOwnerMember(iIndex) == TRUE || this->CheckCastleOwnerUnionMember(iIndex) == TRUE )

  00006	8b 7d 08	 mov	 edi, DWORD PTR _iIndex$[ebp]
  00009	8b f1		 mov	 esi, ecx
  0000b	8b 5e 0c	 mov	 ebx, DWORD PTR [esi+12]
  0000e	57		 push	 edi
  0000f	e8 00 00 00 00	 call	 ?CheckCastleOwnerMember@CCastleSiegeSync@@QAEHH@Z ; CCastleSiegeSync::CheckCastleOwnerMember
  00014	83 f8 01	 cmp	 eax, 1
  00017	74 0d		 je	 SHORT $LN1@GetTaxRate@2
  00019	57		 push	 edi
  0001a	8b ce		 mov	 ecx, esi
  0001c	e8 00 00 00 00	 call	 ?CheckCastleOwnerUnionMember@CCastleSiegeSync@@QAEHH@Z ; CCastleSiegeSync::CheckCastleOwnerUnionMember
  00021	83 f8 01	 cmp	 eax, 1
  00024	75 09		 jne	 SHORT $LN5@GetTaxRate@2
$LN1@GetTaxRate@2:
  00026	5f		 pop	 edi
  00027	5e		 pop	 esi

; 75   : 	{
; 76   : 		iCurTaxRateStore = 0;

  00028	33 c0		 xor	 eax, eax
  0002a	5b		 pop	 ebx

; 80   : }

  0002b	5d		 pop	 ebp
  0002c	c2 04 00	 ret	 4
$LN5@GetTaxRate@2:
  0002f	5f		 pop	 edi
  00030	5e		 pop	 esi

; 77   : 	}
; 78   : 
; 79   : 	return iCurTaxRateStore;

  00031	8b c3		 mov	 eax, ebx
  00033	5b		 pop	 ebx

; 80   : }

  00034	5d		 pop	 ebp
  00035	c2 04 00	 ret	 4
?GetTaxRateStore@CCastleSiegeSync@@QAEHH@Z ENDP		; CCastleSiegeSync::GetTaxRateStore
_TEXT	ENDS
PUBLIC	?GetTaxHuntZone@CCastleSiegeSync@@QAEHHH@Z	; CCastleSiegeSync::GetTaxHuntZone
; Function compile flags: /Ogtp
;	COMDAT ?GetTaxHuntZone@CCastleSiegeSync@@QAEHHH@Z
_TEXT	SEGMENT
_iIndex$ = 8						; size = 4
_bCheckOwnerGuild$ = 12					; size = 4
?GetTaxHuntZone@CCastleSiegeSync@@QAEHHH@Z PROC		; CCastleSiegeSync::GetTaxHuntZone, COMDAT
; _this$ = ecx

; 86   : {

  00000	55		 push	 ebp
  00001	8b ec		 mov	 ebp, esp

; 87   : 	int iCurTaxHuntZone = this->m_iCurTaxHuntZone;
; 88   : 
; 89   : 	if ( bCheckOwnerGuild == TRUE )

  00003	83 7d 0c 01	 cmp	 DWORD PTR _bCheckOwnerGuild$[ebp], 1
  00007	53		 push	 ebx
  00008	56		 push	 esi
  00009	8b f1		 mov	 esi, ecx
  0000b	8b 5e 10	 mov	 ebx, DWORD PTR [esi+16]
  0000e	75 2e		 jne	 SHORT $LN7@GetTaxHunt

; 90   : 	{
; 91   : 		if ( this->CheckCastleOwnerMember(iIndex) == TRUE || this->CheckCastleOwnerUnionMember(iIndex) == TRUE )

  00010	57		 push	 edi
  00011	8b 7d 08	 mov	 edi, DWORD PTR _iIndex$[ebp]
  00014	57		 push	 edi
  00015	e8 00 00 00 00	 call	 ?CheckCastleOwnerMember@CCastleSiegeSync@@QAEHH@Z ; CCastleSiegeSync::CheckCastleOwnerMember
  0001a	83 f8 01	 cmp	 eax, 1
  0001d	74 0d		 je	 SHORT $LN1@GetTaxHunt
  0001f	57		 push	 edi
  00020	8b ce		 mov	 ecx, esi
  00022	e8 00 00 00 00	 call	 ?CheckCastleOwnerUnionMember@CCastleSiegeSync@@QAEHH@Z ; CCastleSiegeSync::CheckCastleOwnerUnionMember
  00027	83 f8 01	 cmp	 eax, 1
  0002a	75 09		 jne	 SHORT $LN6@GetTaxHunt
$LN1@GetTaxHunt:
  0002c	5f		 pop	 edi
  0002d	5e		 pop	 esi

; 92   : 		{
; 93   : 			iCurTaxHuntZone = 0;

  0002e	33 c0		 xor	 eax, eax
  00030	5b		 pop	 ebx

; 98   : }

  00031	5d		 pop	 ebp
  00032	c2 08 00	 ret	 8
$LN6@GetTaxHunt:
  00035	5f		 pop	 edi
  00036	5e		 pop	 esi

; 94   : 		}
; 95   : 	}
; 96   : 
; 97   : 	return iCurTaxHuntZone;

  00037	8b c3		 mov	 eax, ebx
  00039	5b		 pop	 ebx

; 98   : }

  0003a	5d		 pop	 ebp
  0003b	c2 08 00	 ret	 8
$LN7@GetTaxHunt:
  0003e	5e		 pop	 esi

; 94   : 		}
; 95   : 	}
; 96   : 
; 97   : 	return iCurTaxHuntZone;

  0003f	8b c3		 mov	 eax, ebx
  00041	5b		 pop	 ebx

; 98   : }

  00042	5d		 pop	 ebp
  00043	c2 08 00	 ret	 8
?GetTaxHuntZone@CCastleSiegeSync@@QAEHHH@Z ENDP		; CCastleSiegeSync::GetTaxHuntZone
_TEXT	ENDS
EXTRN	_atexit:PROC
; Function compile flags: /Ogtp
;	COMDAT ??__Eg_CastleSiegeSync@@YAXXZ
text$yc	SEGMENT
??__Eg_CastleSiegeSync@@YAXXZ PROC			; `dynamic initializer for 'g_CastleSiegeSync'', COMDAT

; 249  : CCastleSiegeSync g_CastleSiegeSync;

  00000	b9 00 00 00 00	 mov	 ecx, OFFSET ?g_CastleSiegeSync@@3VCCastleSiegeSync@@A ; g_CastleSiegeSync
  00005	e8 00 00 00 00	 call	 ??0CCastleSiegeSync@@QAE@XZ ; CCastleSiegeSync::CCastleSiegeSync
  0000a	68 00 00 00 00	 push	 OFFSET ??__Fg_CastleSiegeSync@@YAXXZ ; `dynamic atexit destructor for 'g_CastleSiegeSync''
  0000f	e8 00 00 00 00	 call	 _atexit
  00014	59		 pop	 ecx
  00015	c3		 ret	 0
??__Eg_CastleSiegeSync@@YAXXZ ENDP			; `dynamic initializer for 'g_CastleSiegeSync''
; Function compile flags: /Ogtp
text$yc	ENDS
;	COMDAT ??__Fg_CastleSiegeSync@@YAXXZ
text$yd	SEGMENT
??__Fg_CastleSiegeSync@@YAXXZ PROC			; `dynamic atexit destructor for 'g_CastleSiegeSync'', COMDAT
  00000	b9 00 00 00 00	 mov	 ecx, OFFSET ?g_CastleSiegeSync@@3VCCastleSiegeSync@@A ; g_CastleSiegeSync
  00005	e9 00 00 00 00	 jmp	 ??1CCastleSiegeSync@@UAE@XZ ; CCastleSiegeSync::~CCastleSiegeSync
??__Fg_CastleSiegeSync@@YAXXZ ENDP			; `dynamic atexit destructor for 'g_CastleSiegeSync''
text$yd	ENDS
PUBLIC	?g_CastleSiegeSync@@3VCCastleSiegeSync@@A	; g_CastleSiegeSync
_BSS	SEGMENT
?g_CastleSiegeSync@@3VCCastleSiegeSync@@A DB 02cH DUP (?) ; g_CastleSiegeSync
_BSS	ENDS
CRT$XCU	SEGMENT
_g_CastleSiegeSync$initializer$ DD FLAT:??__Eg_CastleSiegeSync@@YAXXZ
CRT$XCU	ENDS
END
