; Listing generated by Microsoft (R) Optimizing Compiler Version 16.00.40219.01 

	TITLE	C:\muserver_dev\development\MU-S8EP2-Repack\GameServer\Source\ChaosBox.cpp
	.686P
	.XMM
	include listing.inc
	.model	flat

INCLUDELIB LIBCMT
INCLUDELIB OLDNAMES

PUBLIC	?BLOCKSIZE@?$FixedBlockSize@$07@CryptoPP@@2HB	; CryptoPP::FixedBlockSize<8>::BLOCKSIZE
PUBLIC	?KEYLENGTH@?$FixedKeyLength@$07$03$0A@@CryptoPP@@2HB ; CryptoPP::FixedKeyLength<8,4,0>::KEYLENGTH
PUBLIC	?MIN_KEYLENGTH@?$FixedKeyLength@$07$03$0A@@CryptoPP@@2HB ; CryptoPP::FixedKeyLength<8,4,0>::MIN_KEYLENGTH
PUBLIC	?MAX_KEYLENGTH@?$FixedKeyLength@$07$03$0A@@CryptoPP@@2HB ; CryptoPP::FixedKeyLength<8,4,0>::MAX_KEYLENGTH
PUBLIC	?DEFAULT_KEYLENGTH@?$FixedKeyLength@$07$03$0A@@CryptoPP@@2HB ; CryptoPP::FixedKeyLength<8,4,0>::DEFAULT_KEYLENGTH
PUBLIC	?IV_REQUIREMENT@?$FixedKeyLength@$07$03$0A@@CryptoPP@@2HB ; CryptoPP::FixedKeyLength<8,4,0>::IV_REQUIREMENT
PUBLIC	?IV_LENGTH@?$FixedKeyLength@$07$03$0A@@CryptoPP@@2HB ; CryptoPP::FixedKeyLength<8,4,0>::IV_LENGTH
PUBLIC	?KEYLENGTH@?$FixedKeyLength@$0BA@$03$0A@@CryptoPP@@2HB ; CryptoPP::FixedKeyLength<16,4,0>::KEYLENGTH
PUBLIC	?MIN_KEYLENGTH@?$FixedKeyLength@$0BA@$03$0A@@CryptoPP@@2HB ; CryptoPP::FixedKeyLength<16,4,0>::MIN_KEYLENGTH
PUBLIC	?MAX_KEYLENGTH@?$FixedKeyLength@$0BA@$03$0A@@CryptoPP@@2HB ; CryptoPP::FixedKeyLength<16,4,0>::MAX_KEYLENGTH
PUBLIC	?DEFAULT_KEYLENGTH@?$FixedKeyLength@$0BA@$03$0A@@CryptoPP@@2HB ; CryptoPP::FixedKeyLength<16,4,0>::DEFAULT_KEYLENGTH
PUBLIC	?IV_REQUIREMENT@?$FixedKeyLength@$0BA@$03$0A@@CryptoPP@@2HB ; CryptoPP::FixedKeyLength<16,4,0>::IV_REQUIREMENT
PUBLIC	?IV_LENGTH@?$FixedKeyLength@$0BA@$03$0A@@CryptoPP@@2HB ; CryptoPP::FixedKeyLength<16,4,0>::IV_LENGTH
PUBLIC	?KEYLENGTH@?$FixedKeyLength@$0BI@$03$0A@@CryptoPP@@2HB ; CryptoPP::FixedKeyLength<24,4,0>::KEYLENGTH
PUBLIC	?MIN_KEYLENGTH@?$FixedKeyLength@$0BI@$03$0A@@CryptoPP@@2HB ; CryptoPP::FixedKeyLength<24,4,0>::MIN_KEYLENGTH
PUBLIC	?MAX_KEYLENGTH@?$FixedKeyLength@$0BI@$03$0A@@CryptoPP@@2HB ; CryptoPP::FixedKeyLength<24,4,0>::MAX_KEYLENGTH
PUBLIC	?DEFAULT_KEYLENGTH@?$FixedKeyLength@$0BI@$03$0A@@CryptoPP@@2HB ; CryptoPP::FixedKeyLength<24,4,0>::DEFAULT_KEYLENGTH
PUBLIC	?IV_REQUIREMENT@?$FixedKeyLength@$0BI@$03$0A@@CryptoPP@@2HB ; CryptoPP::FixedKeyLength<24,4,0>::IV_REQUIREMENT
PUBLIC	?IV_LENGTH@?$FixedKeyLength@$0BI@$03$0A@@CryptoPP@@2HB ; CryptoPP::FixedKeyLength<24,4,0>::IV_LENGTH
_DATA	SEGMENT
_g_sttBLOODCASTLE_LEVEL DD 0fH
	DD	050H
	DD	0aH
	DD	03cH
	DD	051H
	DD	082H
	DD	03dH
	DD	06eH
	DD	083H
	DD	0b4H
	DD	06fH
	DD	0a0H
	DD	0b5H
	DD	0e6H
	DD	0a1H
	DD	0d2H
	DD	0e7H
	DD	0118H
	DD	0d3H
	DD	0104H
	DD	0119H
	DD	014aH
	DD	0105H
	DD	0136H
	DD	014bH
	DD	0190H
	DD	0137H
	DD	0190H
	DD	00H
	DD	0190H
	DD	00H
	DD	0190H
_IT_TicketRate DD 046H
	DD	046H
	DD	046H
	DD	046H
	DD	046H
	DD	046H
_IT_TicketZen DD 02dc6c0H
	DD	04c4b40H
	DD	06acfc0H
	DD	0895440H
	DD	0a7d8c0H
	DD	0c65d40H
_IT_REWARD_A DD	0493e0H
	DD	053020H
	DD	05cc60H
	DD	0668a0H
	DD	0704e0H
	DD	07a120H
_IT_REWARD_B DD	0c350H
	DD	0ea60H
	DD	011170H
	DD	013880H
	DD	015f90H
	DD	0186a0H
_IT_REWARD_C DD	0258H
	DD	04b0H
	DD	0708H
	DD	0960H
	DD	0bb8H
	DD	0e10H
_IT_REWARD_D DD	04b0H
	DD	0960H
	DD	0e10H
	DD	012c0H
	DD	01770H
	DD	01c20H
_IT_REWARD_E DD	0aH
	DD	014H
	DD	01eH
	DD	028H
	DD	032H
	DD	03cH
_DATA	ENDS
;	COMDAT ?IV_LENGTH@?$FixedKeyLength@$0BI@$03$0A@@CryptoPP@@2HB
CONST	SEGMENT
?IV_LENGTH@?$FixedKeyLength@$0BI@$03$0A@@CryptoPP@@2HB DD 00H ; CryptoPP::FixedKeyLength<24,4,0>::IV_LENGTH
CONST	ENDS
;	COMDAT ?IV_REQUIREMENT@?$FixedKeyLength@$0BI@$03$0A@@CryptoPP@@2HB
CONST	SEGMENT
?IV_REQUIREMENT@?$FixedKeyLength@$0BI@$03$0A@@CryptoPP@@2HB DD 04H ; CryptoPP::FixedKeyLength<24,4,0>::IV_REQUIREMENT
CONST	ENDS
;	COMDAT ?DEFAULT_KEYLENGTH@?$FixedKeyLength@$0BI@$03$0A@@CryptoPP@@2HB
CONST	SEGMENT
?DEFAULT_KEYLENGTH@?$FixedKeyLength@$0BI@$03$0A@@CryptoPP@@2HB DD 018H ; CryptoPP::FixedKeyLength<24,4,0>::DEFAULT_KEYLENGTH
CONST	ENDS
;	COMDAT ?MAX_KEYLENGTH@?$FixedKeyLength@$0BI@$03$0A@@CryptoPP@@2HB
CONST	SEGMENT
?MAX_KEYLENGTH@?$FixedKeyLength@$0BI@$03$0A@@CryptoPP@@2HB DD 018H ; CryptoPP::FixedKeyLength<24,4,0>::MAX_KEYLENGTH
CONST	ENDS
;	COMDAT ?MIN_KEYLENGTH@?$FixedKeyLength@$0BI@$03$0A@@CryptoPP@@2HB
CONST	SEGMENT
?MIN_KEYLENGTH@?$FixedKeyLength@$0BI@$03$0A@@CryptoPP@@2HB DD 018H ; CryptoPP::FixedKeyLength<24,4,0>::MIN_KEYLENGTH
CONST	ENDS
;	COMDAT ?KEYLENGTH@?$FixedKeyLength@$0BI@$03$0A@@CryptoPP@@2HB
CONST	SEGMENT
?KEYLENGTH@?$FixedKeyLength@$0BI@$03$0A@@CryptoPP@@2HB DD 018H ; CryptoPP::FixedKeyLength<24,4,0>::KEYLENGTH
CONST	ENDS
;	COMDAT ?IV_LENGTH@?$FixedKeyLength@$0BA@$03$0A@@CryptoPP@@2HB
CONST	SEGMENT
?IV_LENGTH@?$FixedKeyLength@$0BA@$03$0A@@CryptoPP@@2HB DD 00H ; CryptoPP::FixedKeyLength<16,4,0>::IV_LENGTH
CONST	ENDS
;	COMDAT ?IV_REQUIREMENT@?$FixedKeyLength@$0BA@$03$0A@@CryptoPP@@2HB
CONST	SEGMENT
?IV_REQUIREMENT@?$FixedKeyLength@$0BA@$03$0A@@CryptoPP@@2HB DD 04H ; CryptoPP::FixedKeyLength<16,4,0>::IV_REQUIREMENT
CONST	ENDS
;	COMDAT ?DEFAULT_KEYLENGTH@?$FixedKeyLength@$0BA@$03$0A@@CryptoPP@@2HB
CONST	SEGMENT
?DEFAULT_KEYLENGTH@?$FixedKeyLength@$0BA@$03$0A@@CryptoPP@@2HB DD 010H ; CryptoPP::FixedKeyLength<16,4,0>::DEFAULT_KEYLENGTH
CONST	ENDS
;	COMDAT ?MAX_KEYLENGTH@?$FixedKeyLength@$0BA@$03$0A@@CryptoPP@@2HB
CONST	SEGMENT
?MAX_KEYLENGTH@?$FixedKeyLength@$0BA@$03$0A@@CryptoPP@@2HB DD 010H ; CryptoPP::FixedKeyLength<16,4,0>::MAX_KEYLENGTH
CONST	ENDS
;	COMDAT ?MIN_KEYLENGTH@?$FixedKeyLength@$0BA@$03$0A@@CryptoPP@@2HB
CONST	SEGMENT
?MIN_KEYLENGTH@?$FixedKeyLength@$0BA@$03$0A@@CryptoPP@@2HB DD 010H ; CryptoPP::FixedKeyLength<16,4,0>::MIN_KEYLENGTH
CONST	ENDS
;	COMDAT ?KEYLENGTH@?$FixedKeyLength@$0BA@$03$0A@@CryptoPP@@2HB
CONST	SEGMENT
?KEYLENGTH@?$FixedKeyLength@$0BA@$03$0A@@CryptoPP@@2HB DD 010H ; CryptoPP::FixedKeyLength<16,4,0>::KEYLENGTH
CONST	ENDS
;	COMDAT ?IV_LENGTH@?$FixedKeyLength@$07$03$0A@@CryptoPP@@2HB
CONST	SEGMENT
?IV_LENGTH@?$FixedKeyLength@$07$03$0A@@CryptoPP@@2HB DD 00H ; CryptoPP::FixedKeyLength<8,4,0>::IV_LENGTH
CONST	ENDS
;	COMDAT ?IV_REQUIREMENT@?$FixedKeyLength@$07$03$0A@@CryptoPP@@2HB
CONST	SEGMENT
?IV_REQUIREMENT@?$FixedKeyLength@$07$03$0A@@CryptoPP@@2HB DD 04H ; CryptoPP::FixedKeyLength<8,4,0>::IV_REQUIREMENT
CONST	ENDS
;	COMDAT ?DEFAULT_KEYLENGTH@?$FixedKeyLength@$07$03$0A@@CryptoPP@@2HB
CONST	SEGMENT
?DEFAULT_KEYLENGTH@?$FixedKeyLength@$07$03$0A@@CryptoPP@@2HB DD 08H ; CryptoPP::FixedKeyLength<8,4,0>::DEFAULT_KEYLENGTH
CONST	ENDS
;	COMDAT ?MAX_KEYLENGTH@?$FixedKeyLength@$07$03$0A@@CryptoPP@@2HB
CONST	SEGMENT
?MAX_KEYLENGTH@?$FixedKeyLength@$07$03$0A@@CryptoPP@@2HB DD 08H ; CryptoPP::FixedKeyLength<8,4,0>::MAX_KEYLENGTH
CONST	ENDS
;	COMDAT ?MIN_KEYLENGTH@?$FixedKeyLength@$07$03$0A@@CryptoPP@@2HB
CONST	SEGMENT
?MIN_KEYLENGTH@?$FixedKeyLength@$07$03$0A@@CryptoPP@@2HB DD 08H ; CryptoPP::FixedKeyLength<8,4,0>::MIN_KEYLENGTH
CONST	ENDS
;	COMDAT ?KEYLENGTH@?$FixedKeyLength@$07$03$0A@@CryptoPP@@2HB
CONST	SEGMENT
?KEYLENGTH@?$FixedKeyLength@$07$03$0A@@CryptoPP@@2HB DD 08H ; CryptoPP::FixedKeyLength<8,4,0>::KEYLENGTH
CONST	ENDS
;	COMDAT ?BLOCKSIZE@?$FixedBlockSize@$07@CryptoPP@@2HB
CONST	SEGMENT
?BLOCKSIZE@?$FixedBlockSize@$07@CryptoPP@@2HB DD 08H	; CryptoPP::FixedBlockSize<8>::BLOCKSIZE
CONST	ENDS
PUBLIC	??1OBJECTSTRUCT@@QAE@XZ				; OBJECTSTRUCT::~OBJECTSTRUCT
EXTRN	??1CSkillDelay@@UAE@XZ:PROC			; CSkillDelay::~CSkillDelay
EXTRN	??1TMonsterAIAgro@@UAE@XZ:PROC			; TMonsterAIAgro::~TMonsterAIAgro
EXTRN	___security_cookie:DWORD
EXTRN	___CxxFrameHandler3:PROC
EXTRN	@__security_check_cookie@4:PROC
;	COMDAT xdata$x
xdata$x	SEGMENT
__unwindtable$??1OBJECTSTRUCT@@QAE@XZ DD 0ffffffffH
	DD	FLAT:__unwindfunclet$??1OBJECTSTRUCT@@QAE@XZ$0
__ehfuncinfo$??1OBJECTSTRUCT@@QAE@XZ DD 019930522H
	DD	01H
	DD	FLAT:__unwindtable$??1OBJECTSTRUCT@@QAE@XZ
	DD	2 DUP(00H)
	DD	2 DUP(00H)
	DD	00H
	DD	01H
; Function compile flags: /Ogtp
xdata$x	ENDS
;	COMDAT ??1OBJECTSTRUCT@@QAE@XZ
_TEXT	SEGMENT
_this$ = -16						; size = 4
__$EHRec$ = -12						; size = 12
??1OBJECTSTRUCT@@QAE@XZ PROC				; OBJECTSTRUCT::~OBJECTSTRUCT, COMDAT
; _this$ = ecx
  00000	55		 push	 ebp
  00001	8b ec		 mov	 ebp, esp
  00003	6a ff		 push	 -1
  00005	68 00 00 00 00	 push	 __ehhandler$??1OBJECTSTRUCT@@QAE@XZ
  0000a	64 a1 00 00 00
	00		 mov	 eax, DWORD PTR fs:0
  00010	50		 push	 eax
  00011	51		 push	 ecx
  00012	56		 push	 esi
  00013	a1 00 00 00 00	 mov	 eax, DWORD PTR ___security_cookie
  00018	33 c5		 xor	 eax, ebp
  0001a	50		 push	 eax
  0001b	8d 45 f4	 lea	 eax, DWORD PTR __$EHRec$[ebp]
  0001e	64 a3 00 00 00
	00		 mov	 DWORD PTR fs:0, eax
  00024	8b f1		 mov	 esi, ecx
  00026	89 75 f0	 mov	 DWORD PTR _this$[ebp], esi
  00029	8d 8e ec 20 00
	00		 lea	 ecx, DWORD PTR [esi+8428]
  0002f	c7 45 fc 00 00
	00 00		 mov	 DWORD PTR __$EHRec$[ebp+8], 0
  00036	e8 00 00 00 00	 call	 ??1TMonsterAIAgro@@UAE@XZ ; TMonsterAIAgro::~TMonsterAIAgro
  0003b	8d 8e 0c 16 00
	00		 lea	 ecx, DWORD PTR [esi+5644]
  00041	c7 45 fc ff ff
	ff ff		 mov	 DWORD PTR __$EHRec$[ebp+8], -1
  00048	e8 00 00 00 00	 call	 ??1CSkillDelay@@UAE@XZ	; CSkillDelay::~CSkillDelay
  0004d	8b 4d f4	 mov	 ecx, DWORD PTR __$EHRec$[ebp]
  00050	64 89 0d 00 00
	00 00		 mov	 DWORD PTR fs:0, ecx
  00057	59		 pop	 ecx
  00058	5e		 pop	 esi
  00059	8b e5		 mov	 esp, ebp
  0005b	5d		 pop	 ebp
  0005c	c3		 ret	 0
_TEXT	ENDS
;	COMDAT text$x
text$x	SEGMENT
__unwindfunclet$??1OBJECTSTRUCT@@QAE@XZ$0:
  00000	8b 4d f0	 mov	 ecx, DWORD PTR _this$[ebp]
  00003	81 c1 0c 16 00
	00		 add	 ecx, 5644		; 0000160cH
  00009	e9 00 00 00 00	 jmp	 ??1CSkillDelay@@UAE@XZ	; CSkillDelay::~CSkillDelay
__ehhandler$??1OBJECTSTRUCT@@QAE@XZ:
  0000e	8b 54 24 08	 mov	 edx, DWORD PTR [esp+8]
  00012	8d 42 0c	 lea	 eax, DWORD PTR [edx+12]
  00015	8b 4a f4	 mov	 ecx, DWORD PTR [edx-12]
  00018	33 c8		 xor	 ecx, eax
  0001a	e8 00 00 00 00	 call	 @__security_check_cookie@4
  0001f	b8 00 00 00 00	 mov	 eax, OFFSET __ehfuncinfo$??1OBJECTSTRUCT@@QAE@XZ
  00024	e9 00 00 00 00	 jmp	 ___CxxFrameHandler3
text$x	ENDS
??1OBJECTSTRUCT@@QAE@XZ ENDP				; OBJECTSTRUCT::~OBJECTSTRUCT
PUBLIC	??_H@YGXPAXIHP6EPAX0@Z@Z			; `vector constructor iterator'
; Function compile flags: /Ogtp
;	COMDAT ??_H@YGXPAXIHP6EPAX0@Z@Z
_TEXT	SEGMENT
___t$ = 8						; size = 4
___s$ = 12						; size = 4
___n$ = 16						; size = 4
___f$ = 20						; size = 4
??_H@YGXPAXIHP6EPAX0@Z@Z PROC				; `vector constructor iterator', COMDAT
  00000	55		 push	 ebp
  00001	8b ec		 mov	 ebp, esp
  00003	57		 push	 edi
  00004	8b 7d 10	 mov	 edi, DWORD PTR ___n$[ebp]
  00007	4f		 dec	 edi
  00008	78 14		 js	 SHORT $LN1@vector
  0000a	53		 push	 ebx
  0000b	8b 5d 14	 mov	 ebx, DWORD PTR ___f$[ebp]
  0000e	56		 push	 esi
  0000f	8b 75 08	 mov	 esi, DWORD PTR ___t$[ebp]
$LL2@vector:
  00012	8b ce		 mov	 ecx, esi
  00014	ff d3		 call	 ebx
  00016	03 75 0c	 add	 esi, DWORD PTR ___s$[ebp]
  00019	4f		 dec	 edi
  0001a	79 f6		 jns	 SHORT $LL2@vector
  0001c	5e		 pop	 esi
  0001d	5b		 pop	 ebx
$LN1@vector:
  0001e	5f		 pop	 edi
  0001f	5d		 pop	 ebp
  00020	c2 10 00	 ret	 16			; 00000010H
??_H@YGXPAXIHP6EPAX0@Z@Z ENDP				; `vector constructor iterator'
_TEXT	ENDS
PUBLIC	??_7CChaosBox@@6B@				; CChaosBox::`vftable'
PUBLIC	??0CChaosBox@@QAE@XZ				; CChaosBox::CChaosBox
PUBLIC	??_R4CChaosBox@@6B@				; CChaosBox::`RTTI Complete Object Locator'
PUBLIC	??_R0?AVCChaosBox@@@8				; CChaosBox `RTTI Type Descriptor'
PUBLIC	??_R3CChaosBox@@8				; CChaosBox::`RTTI Class Hierarchy Descriptor'
PUBLIC	??_R2CChaosBox@@8				; CChaosBox::`RTTI Base Class Array'
PUBLIC	??_R1A@?0A@EA@CChaosBox@@8			; CChaosBox::`RTTI Base Class Descriptor at (0,-1,0,64)'
EXTRN	??_7type_info@@6B@:QWORD			; type_info::`vftable'
EXTRN	??_ECChaosBox@@UAEPAXI@Z:PROC			; CChaosBox::`vector deleting destructor'
;	COMDAT ??_R1A@?0A@EA@CChaosBox@@8
; File c:\muserver_dev\development\mu-s8ep2-repack\gameserver\source\chaosbox.cpp
rdata$r	SEGMENT
??_R1A@?0A@EA@CChaosBox@@8 DD FLAT:??_R0?AVCChaosBox@@@8 ; CChaosBox::`RTTI Base Class Descriptor at (0,-1,0,64)'
	DD	00H
	DD	00H
	DD	0ffffffffH
	DD	00H
	DD	040H
	DD	FLAT:??_R3CChaosBox@@8
rdata$r	ENDS
;	COMDAT ??_R2CChaosBox@@8
rdata$r	SEGMENT
??_R2CChaosBox@@8 DD FLAT:??_R1A@?0A@EA@CChaosBox@@8	; CChaosBox::`RTTI Base Class Array'
rdata$r	ENDS
;	COMDAT ??_R3CChaosBox@@8
rdata$r	SEGMENT
??_R3CChaosBox@@8 DD 00H				; CChaosBox::`RTTI Class Hierarchy Descriptor'
	DD	00H
	DD	01H
	DD	FLAT:??_R2CChaosBox@@8
rdata$r	ENDS
;	COMDAT ??_R0?AVCChaosBox@@@8
_DATA	SEGMENT
??_R0?AVCChaosBox@@@8 DD FLAT:??_7type_info@@6B@	; CChaosBox `RTTI Type Descriptor'
	DD	00H
	DB	'.?AVCChaosBox@@', 00H
_DATA	ENDS
;	COMDAT ??_R4CChaosBox@@6B@
rdata$r	SEGMENT
??_R4CChaosBox@@6B@ DD 00H				; CChaosBox::`RTTI Complete Object Locator'
	DD	00H
	DD	00H
	DD	FLAT:??_R0?AVCChaosBox@@@8
	DD	FLAT:??_R3CChaosBox@@8
rdata$r	ENDS
;	COMDAT ??_7CChaosBox@@6B@
CONST	SEGMENT
??_7CChaosBox@@6B@ DD FLAT:??_R4CChaosBox@@6B@		; CChaosBox::`vftable'
	DD	FLAT:??_ECChaosBox@@UAEPAXI@Z
; Function compile flags: /Ogtp
CONST	ENDS
;	COMDAT ??0CChaosBox@@QAE@XZ
_TEXT	SEGMENT
??0CChaosBox@@QAE@XZ PROC				; CChaosBox::CChaosBox, COMDAT
; _this$ = ecx

; 29   : {

  00000	8b c1		 mov	 eax, ecx
  00002	c7 00 00 00 00
	00		 mov	 DWORD PTR [eax], OFFSET ??_7CChaosBox@@6B@

; 30   : 	iChaosJewel = ITEMGET(12,15);

  00008	c7 40 04 0f 18
	00 00		 mov	 DWORD PTR [eax+4], 6159	; 0000180fH

; 31   : 	iBlessJewel = ITEMGET(14,13);

  0000f	c7 40 08 0d 1c
	00 00		 mov	 DWORD PTR [eax+8], 7181	; 00001c0dH

; 32   : 	iSoulJewel = ITEMGET(14,14);

  00016	c7 40 0c 0e 1c
	00 00		 mov	 DWORD PTR [eax+12], 7182 ; 00001c0eH

; 33   : 	iCreationJewel = ITEMGET(14,22);

  0001d	c7 40 10 16 1c
	00 00		 mov	 DWORD PTR [eax+16], 7190 ; 00001c16H

; 34   : 	iBlessPack = ITEMGET(12,30);

  00024	c7 40 14 1e 18
	00 00		 mov	 DWORD PTR [eax+20], 6174 ; 0000181eH

; 35   : 	iSoulPack = ITEMGET(12,31);

  0002b	c7 40 18 1f 18
	00 00		 mov	 DWORD PTR [eax+24], 6175 ; 0000181fH

; 36   : 	iCondorFeather = ITEMGET(13,53);

  00032	c7 40 1c 35 1a
	00 00		 mov	 DWORD PTR [eax+28], 6709 ; 00001a35H

; 37   : 	iCondorStone = ITEMGET(13,52);

  00039	c7 40 20 34 1a
	00 00		 mov	 DWORD PTR [eax+32], 6708 ; 00001a34H

; 38   : 	iStormWings = ITEMGET(12,36);

  00040	c7 40 24 24 18
	00 00		 mov	 DWORD PTR [eax+36], 6180 ; 00001824H

; 39   : 	iRedemptionWings = ITEMGET(12,37);

  00047	c7 40 28 25 18
	00 00		 mov	 DWORD PTR [eax+40], 6181 ; 00001825H

; 40   : 	iFortitudeWings = ITEMGET(12,38);

  0004e	c7 40 2c 26 18
	00 00		 mov	 DWORD PTR [eax+44], 6182 ; 00001826H

; 41   : 	iHurricaneWings = ITEMGET(12,39);

  00055	c7 40 30 27 18
	00 00		 mov	 DWORD PTR [eax+48], 6183 ; 00001827H

; 42   : 	iMonarchMantle = ITEMGET(12,40);

  0005c	c7 40 34 28 18
	00 00		 mov	 DWORD PTR [eax+52], 6184 ; 00001828H

; 43   : 	iDimensionWings = ITEMGET(12,43);

  00063	c7 40 38 2b 18
	00 00		 mov	 DWORD PTR [eax+56], 6187 ; 0000182bH

; 44   : 	iRFCape2 = ITEMGET(12,50);

  0006a	c7 40 3c 32 18
	00 00		 mov	 DWORD PTR [eax+60], 6194 ; 00001832H

; 45   : 	iOptionRate = 50;

  00071	c7 40 40 32 00
	00 00		 mov	 DWORD PTR [eax+64], 50	; 00000032H

; 46   : }

  00078	c3		 ret	 0
??0CChaosBox@@QAE@XZ ENDP				; CChaosBox::CChaosBox
_TEXT	ENDS
PUBLIC	??1CChaosBox@@UAE@XZ				; CChaosBox::~CChaosBox
; Function compile flags: /Ogtp
;	COMDAT ??1CChaosBox@@UAE@XZ
_TEXT	SEGMENT
??1CChaosBox@@UAE@XZ PROC				; CChaosBox::~CChaosBox, COMDAT
; _this$ = ecx

; 50   : {

  00000	c7 01 00 00 00
	00		 mov	 DWORD PTR [ecx], OFFSET ??_7CChaosBox@@6B@

; 51   : 
; 52   : }

  00006	c3		 ret	 0
??1CChaosBox@@UAE@XZ ENDP				; CChaosBox::~CChaosBox
_TEXT	ENDS
PUBLIC	?ChaosBoxCheck@CChaosBox@@QAEHPAUOBJECTSTRUCT@@@Z ; CChaosBox::ChaosBoxCheck
; Function compile flags: /Ogtp
;	COMDAT ?ChaosBoxCheck@CChaosBox@@QAEHPAUOBJECTSTRUCT@@@Z
_TEXT	SEGMENT
_lpObj$ = 8						; size = 4
?ChaosBoxCheck@CChaosBox@@QAEHPAUOBJECTSTRUCT@@@Z PROC	; CChaosBox::ChaosBoxCheck, COMDAT
; _this$ = ecx

; 55   : {

  00000	55		 push	 ebp
  00001	8b ec		 mov	 ebp, esp

; 56   : 	if ( lpObj->pChaosBox == NULL )

  00003	8b 4d 08	 mov	 ecx, DWORD PTR _lpObj$[ebp]
  00006	33 c0		 xor	 eax, eax
  00008	39 81 10 12 00
	00		 cmp	 DWORD PTR [ecx+4624], eax
  0000e	0f 95 c0	 setne	 al

; 57   : 	{
; 58   : 		return false;
; 59   : 	}
; 60   : 
; 61   : 	return true;
; 62   : }

  00011	5d		 pop	 ebp
  00012	c2 04 00	 ret	 4
?ChaosBoxCheck@CChaosBox@@QAEHPAUOBJECTSTRUCT@@@Z ENDP	; CChaosBox::ChaosBoxCheck
_TEXT	ENDS
PUBLIC	?ChaosBoxInit@CChaosBox@@QAEHPAUOBJECTSTRUCT@@@Z ; CChaosBox::ChaosBoxInit
EXTRN	??_V@YAXPAX@Z:PROC				; operator delete[]
EXTRN	??3@YAXPAX@Z:PROC				; operator delete
EXTRN	??0CItem@@QAE@XZ:PROC				; CItem::CItem
EXTRN	??_U@YAPAXI@Z:PROC				; operator new[]
EXTRN	?Clear@CItem@@QAEXXZ:PROC			; CItem::Clear
EXTRN	?ClearErtel@CElementalSystem@@QAEXPAUOBJECTSTRUCT@@PAVCItem@@@Z:PROC ; CElementalSystem::ClearErtel
EXTRN	?g_ElementalSystem@@3VCElementalSystem@@A:BYTE	; g_ElementalSystem
;	COMDAT xdata$x
; File c:\muserver_dev\development\mu-s8ep2-repack\gameserver\source\spe.h
xdata$x	SEGMENT
__unwindtable$?ChaosBoxInit@CChaosBox@@QAEHPAUOBJECTSTRUCT@@@Z DD 0ffffffffH
	DD	FLAT:__unwindfunclet$?ChaosBoxInit@CChaosBox@@QAEHPAUOBJECTSTRUCT@@@Z$0
__ehfuncinfo$?ChaosBoxInit@CChaosBox@@QAEHPAUOBJECTSTRUCT@@@Z DD 019930522H
	DD	01H
	DD	FLAT:__unwindtable$?ChaosBoxInit@CChaosBox@@QAEHPAUOBJECTSTRUCT@@@Z
	DD	2 DUP(00H)
	DD	2 DUP(00H)
	DD	00H
	DD	01H
; Function compile flags: /Ogtp
; File c:\muserver_dev\development\mu-s8ep2-repack\gameserver\source\chaosbox.cpp
xdata$x	ENDS
;	COMDAT ?ChaosBoxInit@CChaosBox@@QAEHPAUOBJECTSTRUCT@@@Z
_TEXT	SEGMENT
__$EHRec$ = -12						; size = 12
$T197491 = 8						; size = 4
_lpObj$ = 8						; size = 4
?ChaosBoxInit@CChaosBox@@QAEHPAUOBJECTSTRUCT@@@Z PROC	; CChaosBox::ChaosBoxInit, COMDAT
; _this$ = ecx

; 69   : {

  00000	55		 push	 ebp
  00001	8b ec		 mov	 ebp, esp
  00003	6a ff		 push	 -1
  00005	68 00 00 00 00	 push	 __ehhandler$?ChaosBoxInit@CChaosBox@@QAEHPAUOBJECTSTRUCT@@@Z
  0000a	64 a1 00 00 00
	00		 mov	 eax, DWORD PTR fs:0
  00010	50		 push	 eax
  00011	53		 push	 ebx
  00012	56		 push	 esi
  00013	57		 push	 edi
  00014	a1 00 00 00 00	 mov	 eax, DWORD PTR ___security_cookie
  00019	33 c5		 xor	 eax, ebp
  0001b	50		 push	 eax
  0001c	8d 45 f4	 lea	 eax, DWORD PTR __$EHRec$[ebp]
  0001f	64 a3 00 00 00
	00		 mov	 DWORD PTR fs:0, eax

; 70   : 	int n;
; 71   : 
; 72   : 	if ( lpObj->pChaosBox != NULL )

  00025	8b 75 08	 mov	 esi, DWORD PTR _lpObj$[ebp]
  00028	83 be 10 12 00
	00 00		 cmp	 DWORD PTR [esi+4624], 0
  0002f	74 48		 je	 SHORT $LN12@ChaosBoxIn

; 73   : 	{
; 74   : 		for (n=0;n<CHAOS_BOX_SIZE;n++)

  00031	33 ff		 xor	 edi, edi
$LL11@ChaosBoxIn:

; 75   : 		{
; 76   : 			g_ElementalSystem.ClearErtel(lpObj,&lpObj->pChaosBox[n]);

  00033	8b 86 10 12 00
	00		 mov	 eax, DWORD PTR [esi+4624]
  00039	03 c7		 add	 eax, edi
  0003b	50		 push	 eax
  0003c	56		 push	 esi
  0003d	b9 00 00 00 00	 mov	 ecx, OFFSET ?g_ElementalSystem@@3VCElementalSystem@@A ; g_ElementalSystem
  00042	e8 00 00 00 00	 call	 ?ClearErtel@CElementalSystem@@QAEXPAUOBJECTSTRUCT@@PAVCItem@@@Z ; CElementalSystem::ClearErtel

; 77   : 			lpObj->pChaosBox[n].Clear();

  00047	8b 8e 10 12 00
	00		 mov	 ecx, DWORD PTR [esi+4624]
  0004d	03 cf		 add	 ecx, edi
  0004f	e8 00 00 00 00	 call	 ?Clear@CItem@@QAEXXZ	; CItem::Clear
  00054	81 c7 d4 00 00
	00		 add	 edi, 212		; 000000d4H
  0005a	81 ff 80 1a 00
	00		 cmp	 edi, 6784		; 00001a80H
  00060	7c d1		 jl	 SHORT $LL11@ChaosBoxIn

; 78   : 		}
; 79   : 
; 80   : 		for (n=0;n<CHAOS_BOX_SIZE;n++)

  00062	33 c0		 xor	 eax, eax
$LL8@ChaosBoxIn:

; 81   : 		{
; 82   : 			lpObj->pChaosBoxMap[n] = -1;

  00064	8b 8e 14 12 00
	00		 mov	 ecx, DWORD PTR [esi+4628]
  0006a	c6 04 08 ff	 mov	 BYTE PTR [eax+ecx], 255	; 000000ffH
  0006e	40		 inc	 eax
  0006f	83 f8 20	 cmp	 eax, 32			; 00000020H
  00072	7c f0		 jl	 SHORT $LL8@ChaosBoxIn

; 83   : 		}
; 84   : 		return true;

  00074	e9 9a 00 00 00	 jmp	 $LN31@ChaosBoxIn
$LN12@ChaosBoxIn:

; 85   : 	}
; 86   : 
; 87   : 	lpObj->pChaosBox = new CItem[CHAOS_BOX_SIZE];

  00079	68 80 1a 00 00	 push	 6784			; 00001a80H
  0007e	e8 00 00 00 00	 call	 ??_U@YAPAXI@Z		; operator new[]
  00083	83 c4 04	 add	 esp, 4
  00086	89 45 08	 mov	 DWORD PTR $T197491[ebp], eax
  00089	c7 45 fc 00 00
	00 00		 mov	 DWORD PTR __$EHRec$[ebp+8], 0
  00090	85 c0		 test	 eax, eax
  00092	74 21		 je	 SHORT $LN15@ChaosBoxIn
  00094	8b f8		 mov	 edi, eax
  00096	bb 1f 00 00 00	 mov	 ebx, 31			; 0000001fH
  0009b	eb 03 8d 49 00	 npad	 5
$LL19@ChaosBoxIn:
  000a0	8b cf		 mov	 ecx, edi
  000a2	e8 00 00 00 00	 call	 ??0CItem@@QAE@XZ	; CItem::CItem
  000a7	81 c7 d4 00 00
	00		 add	 edi, 212		; 000000d4H
  000ad	4b		 dec	 ebx
  000ae	79 f0		 jns	 SHORT $LL19@ChaosBoxIn
  000b0	8b 45 08	 mov	 eax, DWORD PTR $T197491[ebp]
  000b3	eb 02		 jmp	 SHORT $LN16@ChaosBoxIn
$LN15@ChaosBoxIn:
  000b5	33 c0		 xor	 eax, eax
$LN16@ChaosBoxIn:
  000b7	c7 45 fc ff ff
	ff ff		 mov	 DWORD PTR __$EHRec$[ebp+8], -1
  000be	89 86 10 12 00
	00		 mov	 DWORD PTR [esi+4624], eax

; 88   : 
; 89   : 	if ( lpObj->pChaosBox == NULL )

  000c4	85 c0		 test	 eax, eax

; 90   : 	{
; 91   : 		return false;

  000c6	74 23		 je	 SHORT $LN32@ChaosBoxIn

; 92   : 	}
; 93   : 
; 94   : 	lpObj->pChaosBoxMap = new unsigned char[CHAOS_BOX_SIZE];

  000c8	6a 20		 push	 32			; 00000020H
  000ca	e8 00 00 00 00	 call	 ??_U@YAPAXI@Z		; operator new[]
  000cf	83 c4 04	 add	 esp, 4
  000d2	89 86 14 12 00
	00		 mov	 DWORD PTR [esi+4628], eax

; 95   : 
; 96   : 	if ( lpObj->pChaosBoxMap == NULL )

  000d8	85 c0		 test	 eax, eax
  000da	75 25		 jne	 SHORT $LN4@ChaosBoxIn

; 97   : 	{
; 98   : 		delete lpObj->pChaosBox;

  000dc	8b 96 10 12 00
	00		 mov	 edx, DWORD PTR [esi+4624]
  000e2	52		 push	 edx
  000e3	e8 00 00 00 00	 call	 ??3@YAXPAX@Z		; operator delete
  000e8	83 c4 04	 add	 esp, 4
$LN32@ChaosBoxIn:

; 99   : 		return false;

  000eb	33 c0		 xor	 eax, eax

; 108  : }

  000ed	8b 4d f4	 mov	 ecx, DWORD PTR __$EHRec$[ebp]
  000f0	64 89 0d 00 00
	00 00		 mov	 DWORD PTR fs:0, ecx
  000f7	59		 pop	 ecx
  000f8	5f		 pop	 edi
  000f9	5e		 pop	 esi
  000fa	5b		 pop	 ebx
  000fb	8b e5		 mov	 esp, ebp
  000fd	5d		 pop	 ebp
  000fe	c2 04 00	 ret	 4
$LN4@ChaosBoxIn:

; 100  : 	}
; 101  : 
; 102  : 	for (n=0;n<CHAOS_BOX_SIZE;n++)

  00101	33 c0		 xor	 eax, eax
$LL3@ChaosBoxIn:

; 103  : 	{
; 104  : 		lpObj->pChaosBoxMap[n] = -1;

  00103	8b 8e 14 12 00
	00		 mov	 ecx, DWORD PTR [esi+4628]
  00109	c6 04 08 ff	 mov	 BYTE PTR [eax+ecx], 255	; 000000ffH
  0010d	40		 inc	 eax
  0010e	83 f8 20	 cmp	 eax, 32			; 00000020H
  00111	7c f0		 jl	 SHORT $LL3@ChaosBoxIn
$LN31@ChaosBoxIn:

; 105  : 	}
; 106  : 
; 107  : 	return true;

  00113	b8 01 00 00 00	 mov	 eax, 1

; 108  : }

  00118	8b 4d f4	 mov	 ecx, DWORD PTR __$EHRec$[ebp]
  0011b	64 89 0d 00 00
	00 00		 mov	 DWORD PTR fs:0, ecx
  00122	59		 pop	 ecx
  00123	5f		 pop	 edi
  00124	5e		 pop	 esi
  00125	5b		 pop	 ebx
  00126	8b e5		 mov	 esp, ebp
  00128	5d		 pop	 ebp
  00129	c2 04 00	 ret	 4
_TEXT	ENDS
;	COMDAT text$x
text$x	SEGMENT
__unwindfunclet$?ChaosBoxInit@CChaosBox@@QAEHPAUOBJECTSTRUCT@@@Z$0:
  00000	8b 45 08	 mov	 eax, DWORD PTR $T197491[ebp]
  00003	50		 push	 eax
  00004	e8 00 00 00 00	 call	 ??_V@YAXPAX@Z		; operator delete[]
  00009	59		 pop	 ecx
  0000a	c3		 ret	 0
__ehhandler$?ChaosBoxInit@CChaosBox@@QAEHPAUOBJECTSTRUCT@@@Z:
  0000b	8b 54 24 08	 mov	 edx, DWORD PTR [esp+8]
  0000f	8d 42 0c	 lea	 eax, DWORD PTR [edx+12]
  00012	8b 4a f0	 mov	 ecx, DWORD PTR [edx-16]
  00015	33 c8		 xor	 ecx, eax
  00017	e8 00 00 00 00	 call	 @__security_check_cookie@4
  0001c	b8 00 00 00 00	 mov	 eax, OFFSET __ehfuncinfo$?ChaosBoxInit@CChaosBox@@QAEHPAUOBJECTSTRUCT@@@Z
  00021	e9 00 00 00 00	 jmp	 ___CxxFrameHandler3
text$x	ENDS
?ChaosBoxInit@CChaosBox@@QAEHPAUOBJECTSTRUCT@@@Z ENDP	; CChaosBox::ChaosBoxInit
PUBLIC	?ChaosBoxItemDown@CChaosBox@@QAEHPAUOBJECTSTRUCT@@@Z ; CChaosBox::ChaosBoxItemDown
EXTRN	?Convert@CItem@@QAEXHEEEEEEPAEEE@Z:PROC		; CItem::Convert
EXTRN	?ItemGetDurability@@YAHHHHH@Z:PROC		; ItemGetDurability
EXTRN	?IsExtItem@CItem@@QAEHXZ:PROC			; CItem::IsExtItem
EXTRN	?IsSetItem@CItem@@QAEHXZ:PROC			; CItem::IsSetItem
EXTRN	_rand:PROC
EXTRN	__fltused:DWORD
; Function compile flags: /Ogtp
;	COMDAT ?ChaosBoxItemDown@CChaosBox@@QAEHPAUOBJECTSTRUCT@@@Z
_TEXT	SEGMENT
tv628 = 8						; size = 4
_dur$189997 = 8						; size = 4
_lpObj$ = 8						; size = 4
?ChaosBoxItemDown@CChaosBox@@QAEHPAUOBJECTSTRUCT@@@Z PROC ; CChaosBox::ChaosBoxItemDown, COMDAT
; _this$ = ecx

; 113  : {

  00000	55		 push	 ebp
  00001	8b ec		 mov	 ebp, esp
  00003	57		 push	 edi

; 114  : 	if ( lpObj->pChaosBox == NULL )

  00004	8b 7d 08	 mov	 edi, DWORD PTR _lpObj$[ebp]
  00007	83 bf 10 12 00
	00 00		 cmp	 DWORD PTR [edi+4624], 0
  0000e	75 07		 jne	 SHORT $LN12@ChaosBoxIt

; 115  : 	{
; 116  : 		return FALSE;

  00010	33 c0		 xor	 eax, eax
  00012	5f		 pop	 edi

; 178  : }

  00013	5d		 pop	 ebp
  00014	c2 04 00	 ret	 4
$LN12@ChaosBoxIt:
  00017	53		 push	 ebx
  00018	56		 push	 esi

; 117  : 	}
; 118  : 
; 119  : 	for (int n=0;n<CHAOS_BOX_SIZE;n++)

  00019	33 f6		 xor	 esi, esi
  0001b	eb 03 8d 49 00	 npad	 5
$LL11@ChaosBoxIt:

; 120  : 	{
; 121  : 		if ( lpObj->pChaosBox[n].m_Type == ITEMGET(12,15) ||
; 122  : 			 lpObj->pChaosBox[n].m_Type == ITEMGET(14,13) ||
; 123  : 			 lpObj->pChaosBox[n].m_Type == ITEMGET(14,14) ||
; 124  : 			 lpObj->pChaosBox[n].m_Type == ITEMGET(13,83) ||
; 125  : 			 lpObj->pChaosBox[n].m_Type == ITEMGET(13,84) ||
; 126  : 			 lpObj->pChaosBox[n].m_Type == ITEMGET(13,85) ||
; 127  : 			 lpObj->pChaosBox[n].m_Type == ITEMGET(13,86) ||
; 128  : 			 lpObj->pChaosBox[n].m_Type == ITEMGET(13,87) ||
; 129  : 			 lpObj->pChaosBox[n].m_Type == ITEMGET(13,88) ||
; 130  : 			 lpObj->pChaosBox[n].m_Type == ITEMGET(13,89) ||
; 131  : 			 lpObj->pChaosBox[n].m_Type == ITEMGET(13,90) ||
; 132  : 			 lpObj->pChaosBox[n].m_Type == ITEMGET(13,91) ||
; 133  : 			 lpObj->pChaosBox[n].m_Type == ITEMGET(13,92) ||
; 134  : 			 lpObj->pChaosBox[n].m_Type == ITEMGET(14,53) )

  00020	8b 87 10 12 00
	00		 mov	 eax, DWORD PTR [edi+4624]
  00026	8d 0c 06	 lea	 ecx, DWORD PTR [esi+eax]
  00029	0f b7 41 06	 movzx	 eax, WORD PTR [ecx+6]
  0002d	ba 0f 18 00 00	 mov	 edx, 6159		; 0000180fH
  00032	66 3b c2	 cmp	 ax, dx
  00035	0f 84 d4 01 00
	00		 je	 $LN7@ChaosBoxIt
  0003b	ba 0d 1c 00 00	 mov	 edx, 7181		; 00001c0dH
  00040	66 3b c2	 cmp	 ax, dx
  00043	0f 84 c6 01 00
	00		 je	 $LN7@ChaosBoxIt
  00049	ba 0e 1c 00 00	 mov	 edx, 7182		; 00001c0eH
  0004e	66 3b c2	 cmp	 ax, dx
  00051	0f 84 b8 01 00
	00		 je	 $LN7@ChaosBoxIt
  00057	ba 53 1a 00 00	 mov	 edx, 6739		; 00001a53H
  0005c	66 3b c2	 cmp	 ax, dx
  0005f	0f 84 aa 01 00
	00		 je	 $LN7@ChaosBoxIt
  00065	ba 54 1a 00 00	 mov	 edx, 6740		; 00001a54H
  0006a	66 3b c2	 cmp	 ax, dx
  0006d	0f 84 9c 01 00
	00		 je	 $LN7@ChaosBoxIt
  00073	ba 55 1a 00 00	 mov	 edx, 6741		; 00001a55H
  00078	66 3b c2	 cmp	 ax, dx
  0007b	0f 84 8e 01 00
	00		 je	 $LN7@ChaosBoxIt
  00081	ba 56 1a 00 00	 mov	 edx, 6742		; 00001a56H
  00086	66 3b c2	 cmp	 ax, dx
  00089	0f 84 80 01 00
	00		 je	 $LN7@ChaosBoxIt
  0008f	ba 57 1a 00 00	 mov	 edx, 6743		; 00001a57H
  00094	66 3b c2	 cmp	 ax, dx
  00097	0f 84 72 01 00
	00		 je	 $LN7@ChaosBoxIt
  0009d	ba 58 1a 00 00	 mov	 edx, 6744		; 00001a58H
  000a2	66 3b c2	 cmp	 ax, dx
  000a5	0f 84 64 01 00
	00		 je	 $LN7@ChaosBoxIt
  000ab	ba 59 1a 00 00	 mov	 edx, 6745		; 00001a59H
  000b0	66 3b c2	 cmp	 ax, dx
  000b3	0f 84 56 01 00
	00		 je	 $LN7@ChaosBoxIt
  000b9	ba 5a 1a 00 00	 mov	 edx, 6746		; 00001a5aH
  000be	66 3b c2	 cmp	 ax, dx
  000c1	0f 84 48 01 00
	00		 je	 $LN7@ChaosBoxIt
  000c7	ba 5b 1a 00 00	 mov	 edx, 6747		; 00001a5bH
  000cc	66 3b c2	 cmp	 ax, dx
  000cf	0f 84 3a 01 00
	00		 je	 $LN7@ChaosBoxIt
  000d5	ba 5c 1a 00 00	 mov	 edx, 6748		; 00001a5cH
  000da	66 3b c2	 cmp	 ax, dx
  000dd	0f 84 2c 01 00
	00		 je	 $LN7@ChaosBoxIt
  000e3	ba 35 1c 00 00	 mov	 edx, 7221		; 00001c35H
  000e8	66 3b c2	 cmp	 ax, dx
  000eb	0f 84 1e 01 00
	00		 je	 $LN7@ChaosBoxIt

; 137  : 		}
; 138  : 		else
; 139  : 		{
; 140  : 			int op = lpObj->pChaosBox[n].m_Option1;

  000f1	0f b6 99 90 00
	00 00		 movzx	 ebx, BYTE PTR [ecx+144]

; 141  : 
; 142  : 			if ( op > 0 )

  000f8	85 db		 test	 ebx, ebx
  000fa	7e 14		 jle	 SHORT $LN17@ChaosBoxIt

; 143  : 			{
; 144  : 				if ( (rand() % 2) == 0 )

  000fc	e8 00 00 00 00	 call	 _rand
  00101	25 01 00 00 80	 and	 eax, -2147483647	; 80000001H
  00106	79 05		 jns	 SHORT $LN19@ChaosBoxIt
  00108	48		 dec	 eax
  00109	83 c8 fe	 or	 eax, -2			; fffffffeH
  0010c	40		 inc	 eax
$LN19@ChaosBoxIt:
  0010d	75 01		 jne	 SHORT $LN17@ChaosBoxIt

; 145  : 				{
; 146  : 					op--;

  0010f	4b		 dec	 ebx
$LN17@ChaosBoxIt:

; 147  : 				}
; 148  : 			}
; 149  : 
; 150  : 			lpObj->pChaosBox[n].m_Option1 = op;

  00110	8b 87 10 12 00
	00		 mov	 eax, DWORD PTR [edi+4624]
  00116	88 9c 06 90 00
	00 00		 mov	 BYTE PTR [esi+eax+144], bl

; 151  : 			op = lpObj->pChaosBox[n].m_Option3;

  0011d	8b 8f 10 12 00
	00		 mov	 ecx, DWORD PTR [edi+4624]
  00123	0f b6 9c 0e 92
	00 00 00	 movzx	 ebx, BYTE PTR [esi+ecx+146]

; 152  : 
; 153  : 			if ( op > 0 )

  0012b	85 db		 test	 ebx, ebx
  0012d	7e 14		 jle	 SHORT $LN18@ChaosBoxIt

; 154  : 			{
; 155  : 				if ( (rand() % 2) == 0 )

  0012f	e8 00 00 00 00	 call	 _rand
  00134	25 01 00 00 80	 and	 eax, -2147483647	; 80000001H
  00139	79 05		 jns	 SHORT $LN20@ChaosBoxIt
  0013b	48		 dec	 eax
  0013c	83 c8 fe	 or	 eax, -2			; fffffffeH
  0013f	40		 inc	 eax
$LN20@ChaosBoxIt:
  00140	75 01		 jne	 SHORT $LN18@ChaosBoxIt

; 156  : 				{
; 157  : 					op--;

  00142	4b		 dec	 ebx
$LN18@ChaosBoxIt:

; 158  : 				}
; 159  : 			}
; 160  : 
; 161  : 			lpObj->pChaosBox[n].m_Option3 = op;

  00143	8b 97 10 12 00
	00		 mov	 edx, DWORD PTR [edi+4624]
  00149	88 9c 16 92 00
	00 00		 mov	 BYTE PTR [esi+edx+146], bl

; 162  : 
; 163  : 			if ( lpObj->pChaosBox[n].m_Level > 0 )

  00150	8b 87 10 12 00
	00		 mov	 eax, DWORD PTR [edi+4624]
  00156	66 83 7c 06 08
	00		 cmp	 WORD PTR [esi+eax+8], 0
  0015c	7e 12		 jle	 SHORT $LN1@ChaosBoxIt

; 164  : 			{
; 165  : 				lpObj->pChaosBox[n].m_Level = rand() % lpObj->pChaosBox[n].m_Level;

  0015e	8d 5c 06 08	 lea	 ebx, DWORD PTR [esi+eax+8]
  00162	e8 00 00 00 00	 call	 _rand
  00167	0f bf 0b	 movsx	 ecx, WORD PTR [ebx]
  0016a	99		 cdq
  0016b	f7 f9		 idiv	 ecx
  0016d	66 89 13	 mov	 WORD PTR [ebx], dx
$LN1@ChaosBoxIt:

; 166  : 			}
; 167  : 
; 168  : 			float dur = (float)ItemGetDurability(lpObj->pChaosBox[n].m_Type, lpObj->pChaosBox[n].m_Level, lpObj->pChaosBox[n].IsExtItem(), lpObj->pChaosBox[n].IsSetItem() );

  00170	8b 97 10 12 00
	00		 mov	 edx, DWORD PTR [edi+4624]
  00176	8d 0c 16	 lea	 ecx, DWORD PTR [esi+edx]
  00179	8d 1c 16	 lea	 ebx, DWORD PTR [esi+edx]
  0017c	e8 00 00 00 00	 call	 ?IsSetItem@CItem@@QAEHXZ ; CItem::IsSetItem
  00181	8b 8f 10 12 00
	00		 mov	 ecx, DWORD PTR [edi+4624]
  00187	50		 push	 eax
  00188	03 ce		 add	 ecx, esi
  0018a	e8 00 00 00 00	 call	 ?IsExtItem@CItem@@QAEHXZ ; CItem::IsExtItem
  0018f	0f bf 4b 06	 movsx	 ecx, WORD PTR [ebx+6]
  00193	50		 push	 eax
  00194	0f bf 43 08	 movsx	 eax, WORD PTR [ebx+8]
  00198	50		 push	 eax
  00199	51		 push	 ecx
  0019a	e8 00 00 00 00	 call	 ?ItemGetDurability@@YAHHHHH@Z ; ItemGetDurability

; 169  : 			
; 170  : 			lpObj->pChaosBox[n].m_Durability =  dur * lpObj->pChaosBox[n].m_Durability / lpObj->pChaosBox[n].m_BaseDurability;

  0019f	8b 97 10 12 00
	00		 mov	 edx, DWORD PTR [edi+4624]
  001a5	89 45 08	 mov	 DWORD PTR tv628[ebp], eax
  001a8	8d 04 16	 lea	 eax, DWORD PTR [esi+edx]
  001ab	db 45 08	 fild	 DWORD PTR tv628[ebp]
  001ae	83 c4 10	 add	 esp, 16			; 00000010H

; 171  : 			lpObj->pChaosBox[n].Convert(lpObj->pChaosBox[n].m_Type, lpObj->pChaosBox[n].m_Option1,
; 172  : 				lpObj->pChaosBox[n].m_Option2, lpObj->pChaosBox[n].m_Option3, lpObj->pChaosBox[n].m_NewOption,
; 173  : 				lpObj->pChaosBox[n].m_SetOption, lpObj->pChaosBox[n].m_ItemOptionEx, 0, -1, CURRENT_DB_VERSION);

  001b1	6a 03		 push	 3
  001b3	68 ff 00 00 00	 push	 255			; 000000ffH
  001b8	d9 5d 08	 fstp	 DWORD PTR _dur$189997[ebp]
  001bb	6a 00		 push	 0
  001bd	d9 45 08	 fld	 DWORD PTR _dur$189997[ebp]
  001c0	d8 48 24	 fmul	 DWORD PTR [eax+36]
  001c3	d8 70 2c	 fdiv	 DWORD PTR [eax+44]
  001c6	d9 58 24	 fstp	 DWORD PTR [eax+36]
  001c9	8b 87 10 12 00
	00		 mov	 eax, DWORD PTR [edi+4624]
  001cf	0f b6 94 06 c6
	00 00 00	 movzx	 edx, BYTE PTR [esi+eax+198]
  001d7	8d 0c 06	 lea	 ecx, DWORD PTR [esi+eax]
  001da	0f b6 81 aa 00
	00 00		 movzx	 eax, BYTE PTR [ecx+170]
  001e1	52		 push	 edx
  001e2	0f b6 91 93 00
	00 00		 movzx	 edx, BYTE PTR [ecx+147]
  001e9	50		 push	 eax
  001ea	0f b6 81 92 00
	00 00		 movzx	 eax, BYTE PTR [ecx+146]
  001f1	52		 push	 edx
  001f2	0f b6 91 91 00
	00 00		 movzx	 edx, BYTE PTR [ecx+145]
  001f9	50		 push	 eax
  001fa	0f b6 81 90 00
	00 00		 movzx	 eax, BYTE PTR [ecx+144]
  00201	52		 push	 edx
  00202	0f bf 51 06	 movsx	 edx, WORD PTR [ecx+6]
  00206	50		 push	 eax
  00207	52		 push	 edx
  00208	e8 00 00 00 00	 call	 ?Convert@CItem@@QAEXHEEEEEEPAEEE@Z ; CItem::Convert
  0020d	eb 05		 jmp	 SHORT $LN10@ChaosBoxIt
$LN7@ChaosBoxIt:

; 135  : 		{
; 136  : 			lpObj->pChaosBox[n].Clear();

  0020f	e8 00 00 00 00	 call	 ?Clear@CItem@@QAEXXZ	; CItem::Clear
$LN10@ChaosBoxIt:

; 117  : 	}
; 118  : 
; 119  : 	for (int n=0;n<CHAOS_BOX_SIZE;n++)

  00214	81 c6 d4 00 00
	00		 add	 esi, 212		; 000000d4H
  0021a	81 fe 80 1a 00
	00		 cmp	 esi, 6784		; 00001a80H
  00220	0f 8c fa fd ff
	ff		 jl	 $LL11@ChaosBoxIt

; 174  : 		}
; 175  : 	}
; 176  : 
; 177  : 	return TRUE;

  00226	5e		 pop	 esi
  00227	5b		 pop	 ebx
  00228	b8 01 00 00 00	 mov	 eax, 1
  0022d	5f		 pop	 edi

; 178  : }

  0022e	5d		 pop	 ebp
  0022f	c2 04 00	 ret	 4
?ChaosBoxItemDown@CChaosBox@@QAEHPAUOBJECTSTRUCT@@@Z ENDP ; CChaosBox::ChaosBoxItemDown
_TEXT	ENDS
PUBLIC	??_C@_0DK@EKDAKNF@?$FLMixSystem?$FN?5WingCharmItemNum?5?$DN?$DO?5@ ; `string'
PUBLIC	??_C@_0DO@PLIHJFD@?$FL?$CFs?$FN?$FL?$CFs?$FN?5CBMix?5need?5Zen?5?3?5?$CFd?5Suc@ ; `string'
PUBLIC	??_C@_0FA@FKHLLHEC@?$FL?$CFs?$FN?$FL?$CFs?$FN?5CBMix?5?$FL?$CFd?0?$CFs?0?$CFd?0?$CFd?0?$CFd?0?$CF@ ; `string'
PUBLIC	_Result3$GSCopy$
PUBLIC	_Result2$GSCopy$
PUBLIC	__$ArrayPad$
PUBLIC	?ChaosBoxMix@CChaosBox@@QAEHPAUOBJECTSTRUCT@@AAH1@Z ; CChaosBox::ChaosBoxMix
EXTRN	?LogAddTD@@3P6AXPADZZA:DWORD			; LogAddTD
EXTRN	?LogAdd@@3P6AXPADZZA:DWORD			; LogAdd
EXTRN	?GetName@CItem@@QAEPADXZ:PROC			; CItem::GetName
EXTRN	?ItemIsBufExOption@@YAXPAEPAVCItem@@@Z:PROC	; ItemIsBufExOption
EXTRN	?OldValue@CItem@@QAEXXZ:PROC			; CItem::OldValue
EXTRN	?IsItem@CItem@@QAEHXZ:PROC			; CItem::IsItem
EXTRN	__ftol2_sse:PROC
;	COMDAT ??_C@_0DK@EKDAKNF@?$FLMixSystem?$FN?5WingCharmItemNum?5?$DN?$DO?5@
CONST	SEGMENT
??_C@_0DK@EKDAKNF@?$FLMixSystem?$FN?5WingCharmItemNum?5?$DN?$DO?5@ DB '[M'
	DB	'ixSystem] WingCharmItemNum => %d , WingCharmIndex => %d', 00H ; `string'
CONST	ENDS
;	COMDAT ??_C@_0DO@PLIHJFD@?$FL?$CFs?$FN?$FL?$CFs?$FN?5CBMix?5need?5Zen?5?3?5?$CFd?5Suc@
CONST	SEGMENT
??_C@_0DO@PLIHJFD@?$FL?$CFs?$FN?$FL?$CFs?$FN?5CBMix?5need?5Zen?5?3?5?$CFd?5Suc@ DB '['
	DB	'%s][%s] CBMix need Zen : %d SuccessRate : %d, CharmRate : %d', 00H ; `string'
CONST	ENDS
;	COMDAT ??_C@_0FA@FKHLLHEC@?$FL?$CFs?$FN?$FL?$CFs?$FN?5CBMix?5?$FL?$CFd?0?$CFs?0?$CFd?0?$CFd?0?$CFd?0?$CF@
CONST	SEGMENT
??_C@_0FA@FKHLLHEC@?$FL?$CFs?$FN?$FL?$CFs?$FN?5CBMix?5?$FL?$CFd?0?$CFs?0?$CFd?0?$CFd?0?$CFd?0?$CF@ DB '['
	DB	'%s][%s] CBMix [%d,%s,%d,%d,%d,%d]serial:[%u][%d][%d] Ex:[%d,%'
	DB	'd,%d,%d,%d,%d,%d]', 00H			; `string'
; Function compile flags: /Ogtp
CONST	ENDS
;	COMDAT ?ChaosBoxMix@CChaosBox@@QAEHPAUOBJECTSTRUCT@@AAH1@Z
_TEXT	SEGMENT
_Result2$GSCopy$ = -56					; size = 4
tv610 = -52						; size = 4
tv607 = -48						; size = 4
_tmpItem$ = -44						; size = 4
_iCharmOfLuckCount$ = -40				; size = 4
_n$190014 = -36						; size = 4
_ChaosItems$ = -32					; size = 4
_ChaosDiamond$ = -28					; size = 4
_add$ = -24						; size = 4
_Result3$GSCopy$ = -20					; size = 4
_value$ = -16						; size = 4
_ExOption$ = -12					; size = 8
__$ArrayPad$ = -4					; size = 4
_lpObj$ = 8						; size = 4
_Result2$ = 12						; size = 4
_Result3$ = 16						; size = 4
?ChaosBoxMix@CChaosBox@@QAEHPAUOBJECTSTRUCT@@AAH1@Z PROC ; CChaosBox::ChaosBoxMix, COMDAT
; _this$ = ecx

; 183  : {

  00000	55		 push	 ebp
  00001	8b ec		 mov	 ebp, esp
  00003	83 ec 38	 sub	 esp, 56			; 00000038H
  00006	a1 00 00 00 00	 mov	 eax, DWORD PTR ___security_cookie
  0000b	33 c5		 xor	 eax, ebp
  0000d	89 45 fc	 mov	 DWORD PTR __$ArrayPad$[ebp], eax
  00010	8b 45 0c	 mov	 eax, DWORD PTR _Result2$[ebp]
  00013	8b 4d 10	 mov	 ecx, DWORD PTR _Result3$[ebp]
  00016	56		 push	 esi

; 184  : 	BYTE ExOption[8];
; 185  : 	int ChaosDiamond = 0;

  00017	33 f6		 xor	 esi, esi
  00019	57		 push	 edi
  0001a	8b 7d 08	 mov	 edi, DWORD PTR _lpObj$[ebp]
  0001d	89 45 c8	 mov	 DWORD PTR _Result2$GSCopy$[ebp], eax
  00020	89 4d ec	 mov	 DWORD PTR _Result3$GSCopy$[ebp], ecx
  00023	89 75 e4	 mov	 DWORD PTR _ChaosDiamond$[ebp], esi

; 186  : 	int ChaosItems = 0;

  00026	89 75 e0	 mov	 DWORD PTR _ChaosItems$[ebp], esi

; 187  : 
; 188  : 	if ( lpObj->pChaosBox == NULL )

  00029	39 b7 10 12 00
	00		 cmp	 DWORD PTR [edi+4624], esi
  0002f	75 14		 jne	 SHORT $LN30@ChaosBoxMi

; 189  : 	{
; 190  : 		return 0;

  00031	5f		 pop	 edi
  00032	33 c0		 xor	 eax, eax
  00034	5e		 pop	 esi

; 329  : 			break;
; 330  : 		}
; 331  : 	}
; 332  : 
; 333  : 	return value;
; 334  : }

  00035	8b 4d fc	 mov	 ecx, DWORD PTR __$ArrayPad$[ebp]
  00038	33 cd		 xor	 ecx, ebp
  0003a	e8 00 00 00 00	 call	 @__security_check_cookie@4
  0003f	8b e5		 mov	 esp, ebp
  00041	5d		 pop	 ebp
  00042	c2 0c 00	 ret	 12			; 0000000cH
$LN30@ChaosBoxMi:

; 191  : 	}
; 192  : 
; 193  : 	int value = 0;
; 194  : 	int add = 0;
; 195  : 	int nv = 0;	// NEW VALUE
; 196  : 	Result2 = 0;

  00045	89 30		 mov	 DWORD PTR [eax], esi
  00047	53		 push	 ebx

; 197  : 	Result3 = -1;

  00048	c7 01 ff ff ff
	ff		 mov	 DWORD PTR [ecx], -1

; 198  : 	int tmpItem = -1;
; 199  : 	lpObj->ChaosSuccessRate = 0;
; 200  : 	lpObj->ChaosMoney = 0;
; 201  : 	int iCharmOfLuckCount = 0;

  0004e	33 db		 xor	 ebx, ebx
  00050	89 75 f0	 mov	 DWORD PTR _value$[ebp], esi
  00053	c7 45 d4 ff ff
	ff ff		 mov	 DWORD PTR _tmpItem$[ebp], -1
  0005a	89 b7 1c 12 00
	00		 mov	 DWORD PTR [edi+4636], esi
  00060	89 b7 18 12 00
	00		 mov	 DWORD PTR [edi+4632], esi
  00066	89 5d d8	 mov	 DWORD PTR _iCharmOfLuckCount$[ebp], ebx

; 202  : 
; 203  : 	for ( int n=0;n<CHAOS_BOX_SIZE;n++)

  00069	89 75 dc	 mov	 DWORD PTR _n$190014[ebp], esi
  0006c	89 75 d0	 mov	 DWORD PTR tv607[ebp], esi
  0006f	90		 npad	 1
$LL29@ChaosBoxMi:

; 204  : 	{
; 205  : 		if ( lpObj->pChaosBox[n].IsItem() == TRUE )

  00070	8b 8f 10 12 00
	00		 mov	 ecx, DWORD PTR [edi+4624]
  00076	03 ce		 add	 ecx, esi
  00078	e8 00 00 00 00	 call	 ?IsItem@CItem@@QAEHXZ	; CItem::IsItem
  0007d	83 f8 01	 cmp	 eax, 1
  00080	0f 85 af 01 00
	00		 jne	 $LN28@ChaosBoxMi

; 206  : 		{
; 207  : 			lpObj->pChaosBox[n].OldValue();

  00086	8b 8f 10 12 00
	00		 mov	 ecx, DWORD PTR [edi+4624]
  0008c	03 ce		 add	 ecx, esi
  0008e	e8 00 00 00 00	 call	 ?OldValue@CItem@@QAEXXZ	; CItem::OldValue

; 208  : 			add = 0;
; 209  : 			nv = 0;
; 210  : 
; 211  : 			if ( lpObj->pChaosBox[n].m_Level >= MIN_CHAOS_ITEM_LEVEL && (lpObj->pChaosBox[n].m_Option3 *4) >= MIN_CHAOS_ITEM_LEVEL )

  00093	8b 87 10 12 00
	00		 mov	 eax, DWORD PTR [edi+4624]
  00099	33 db		 xor	 ebx, ebx
  0009b	03 c6		 add	 eax, esi
  0009d	66 83 78 08 04	 cmp	 WORD PTR [eax+8], 4
  000a2	89 5d e8	 mov	 DWORD PTR _add$[ebp], ebx
  000a5	7c 4b		 jl	 SHORT $LN36@ChaosBoxMi
  000a7	0f b6 88 92 00
	00 00		 movzx	 ecx, BYTE PTR [eax+146]
  000ae	03 c9		 add	 ecx, ecx
  000b0	03 c9		 add	 ecx, ecx
  000b2	83 f9 04	 cmp	 ecx, 4
  000b5	7c 3b		 jl	 SHORT $LN36@ChaosBoxMi

; 212  : 			{
; 213  : 				nv = lpObj->pChaosBox[n].m_OldBuyMoney;

  000b7	8b 98 8c 00 00
	00		 mov	 ebx, DWORD PTR [eax+140]

; 214  : 				value += lpObj->pChaosBox[n].m_OldBuyMoney;
; 215  : 				add = 1;
; 216  : 
; 217  : 				if ( lpObj->pChaosBox[n].m_Type == ITEMGET(2,6) || lpObj->pChaosBox[n].m_Type == ITEMGET(4,6) || lpObj->pChaosBox[n].m_Type == ITEMGET(5,7) )	// Chaos Items

  000bd	0f b7 40 06	 movzx	 eax, WORD PTR [eax+6]
  000c1	01 5d f0	 add	 DWORD PTR _value$[ebp], ebx
  000c4	ba 06 04 00 00	 mov	 edx, 1030		; 00000406H
  000c9	c7 45 e8 01 00
	00 00		 mov	 DWORD PTR _add$[ebp], 1
  000d0	66 3b c2	 cmp	 ax, dx
  000d3	74 14		 je	 SHORT $LN23@ChaosBoxMi
  000d5	b9 06 08 00 00	 mov	 ecx, 2054		; 00000806H
  000da	66 3b c1	 cmp	 ax, cx
  000dd	74 0a		 je	 SHORT $LN23@ChaosBoxMi
  000df	ba 07 0a 00 00	 mov	 edx, 2567		; 00000a07H
  000e4	66 3b c2	 cmp	 ax, dx
  000e7	75 09		 jne	 SHORT $LN36@ChaosBoxMi
$LN23@ChaosBoxMi:

; 218  : 				{
; 219  : 					Result2 = 1;

  000e9	8b 45 c8	 mov	 eax, DWORD PTR _Result2$GSCopy$[ebp]
  000ec	c7 00 01 00 00
	00		 mov	 DWORD PTR [eax], 1
$LN36@ChaosBoxMi:

; 220  : 				}
; 221  : 			}
; 222  : 
; 223  : 			if ( lpObj->pChaosBox[n].m_Type == ITEMGET(12,15) )

  000f2	8b 8f 10 12 00
	00		 mov	 ecx, DWORD PTR [edi+4624]
  000f8	0f b7 44 31 06	 movzx	 eax, WORD PTR [ecx+esi+6]
  000fd	03 ce		 add	 ecx, esi
  000ff	ba 0f 18 00 00	 mov	 edx, 6159		; 0000180fH
  00104	89 4d cc	 mov	 DWORD PTR tv610[ebp], ecx
  00107	66 3b c2	 cmp	 ax, dx
  0010a	75 0e		 jne	 SHORT $LN22@ChaosBoxMi

; 224  : 			{
; 225  : 				value += lpObj->pChaosBox[n].m_OldBuyMoney;

  0010c	8b 99 8c 00 00
	00		 mov	 ebx, DWORD PTR [ecx+140]
  00112	01 5d f0	 add	 DWORD PTR _value$[ebp], ebx

; 226  : 				nv = lpObj->pChaosBox[n].m_OldBuyMoney;
; 227  : 				ChaosDiamond++;

  00115	ff 45 e4	 inc	 DWORD PTR _ChaosDiamond$[ebp]

; 228  : 				add = 1;

  00118	eb 1d		 jmp	 SHORT $LN40@ChaosBoxMi
$LN22@ChaosBoxMi:

; 229  : 			}
; 230  : 			else if ( lpObj->pChaosBox[n].m_Type == ITEMGET(14,13) || lpObj->pChaosBox[n].m_Type == ITEMGET(14,14) )	// Jewel of Bless, Jewel of Soul

  0011a	ba 0d 1c 00 00	 mov	 edx, 7181		; 00001c0dH
  0011f	66 3b c2	 cmp	 ax, dx
  00122	74 0a		 je	 SHORT $LN19@ChaosBoxMi
  00124	ba 0e 1c 00 00	 mov	 edx, 7182		; 00001c0eH
  00129	66 3b c2	 cmp	 ax, dx
  0012c	75 10		 jne	 SHORT $LN20@ChaosBoxMi
$LN19@ChaosBoxMi:

; 231  : 			{
; 232  : 				value += lpObj->pChaosBox[n].m_OldBuyMoney;

  0012e	8b 99 8c 00 00
	00		 mov	 ebx, DWORD PTR [ecx+140]
  00134	01 5d f0	 add	 DWORD PTR _value$[ebp], ebx
$LN40@ChaosBoxMi:

; 233  : 				nv = lpObj->pChaosBox[n].m_OldBuyMoney;
; 234  : 				add = 1;

  00137	c7 45 e8 01 00
	00 00		 mov	 DWORD PTR _add$[ebp], 1
$LN20@ChaosBoxMi:

; 235  : 			}
; 236  : 
; 237  : 			if( lpObj->pChaosBox[n].m_Type == ITEMGET(13,83) ||
; 238  : 				lpObj->pChaosBox[n].m_Type == ITEMGET(13,84) ||
; 239  : 				lpObj->pChaosBox[n].m_Type == ITEMGET(13,85) ||
; 240  : 				lpObj->pChaosBox[n].m_Type == ITEMGET(13,86) ||
; 241  : 				lpObj->pChaosBox[n].m_Type == ITEMGET(13,87) )

  0013e	ba 53 1a 00 00	 mov	 edx, 6739		; 00001a53H
  00143	66 3b c2	 cmp	 ax, dx
  00146	74 28		 je	 SHORT $LN17@ChaosBoxMi
  00148	ba 54 1a 00 00	 mov	 edx, 6740		; 00001a54H
  0014d	66 3b c2	 cmp	 ax, dx
  00150	74 1e		 je	 SHORT $LN17@ChaosBoxMi
  00152	ba 55 1a 00 00	 mov	 edx, 6741		; 00001a55H
  00157	66 3b c2	 cmp	 ax, dx
  0015a	74 14		 je	 SHORT $LN17@ChaosBoxMi
  0015c	ba 56 1a 00 00	 mov	 edx, 6742		; 00001a56H
  00161	66 3b c2	 cmp	 ax, dx
  00164	74 0a		 je	 SHORT $LN17@ChaosBoxMi
  00166	ba 57 1a 00 00	 mov	 edx, 6743		; 00001a57H
  0016b	66 3b c2	 cmp	 ax, dx
  0016e	75 06		 jne	 SHORT $LN18@ChaosBoxMi
$LN17@ChaosBoxMi:

; 242  : 			{
; 243  : 				tmpItem = lpObj->pChaosBox[n].m_Type;

  00170	0f bf d0	 movsx	 edx, ax
  00173	89 55 d4	 mov	 DWORD PTR _tmpItem$[ebp], edx
$LN18@ChaosBoxMi:

; 244  : 			}
; 245  : 
; 246  : 			if( lpObj->pChaosBox[n].m_Type == ITEMGET(13,14) )

  00176	ba 0e 1a 00 00	 mov	 edx, 6670		; 00001a0eH
  0017b	66 3b c2	 cmp	 ax, dx
  0017e	0f 84 e1 00 00
	00		 je	 $LN34@ChaosBoxMi

; 247  : 			{
; 248  : 				return false;
; 249  : 			}
; 250  : 
; 251  : 			if ( lpObj->pChaosBox[n].m_Type == ITEMGET(14,53) )	// Charm Of Luck

  00184	ba 35 1c 00 00	 mov	 edx, 7221		; 00001c35H
  00189	66 3b c2	 cmp	 ax, dx
  0018c	75 0e		 jne	 SHORT $LN38@ChaosBoxMi

; 252  : 			{
; 253  : 				iCharmOfLuckCount += (int)lpObj->pChaosBox[n].m_Durability;

  0018e	d9 41 24	 fld	 DWORD PTR [ecx+36]
  00191	e8 00 00 00 00	 call	 __ftol2_sse
  00196	01 45 d8	 add	 DWORD PTR _iCharmOfLuckCount$[ebp], eax
  00199	8b 4d cc	 mov	 ecx, DWORD PTR tv610[ebp]
$LN38@ChaosBoxMi:

; 254  : 			}
; 255  : 
; 256  : 			if ( add != 0  )

  0019c	83 7d e8 00	 cmp	 DWORD PTR _add$[ebp], 0
  001a0	74 03		 je	 SHORT $LN14@ChaosBoxMi

; 257  : 			{
; 258  : 				ChaosItems++;

  001a2	ff 45 e0	 inc	 DWORD PTR _ChaosItems$[ebp]
$LN14@ChaosBoxMi:

; 259  : 			}
; 260  : 
; 261  : 			ItemIsBufExOption(ExOption, &lpObj->pChaosBox[n]);

  001a5	51		 push	 ecx
  001a6	8d 45 f4	 lea	 eax, DWORD PTR _ExOption$[ebp]
  001a9	50		 push	 eax
  001aa	e8 00 00 00 00	 call	 ?ItemIsBufExOption@@YAXPAEPAVCItem@@@Z ; ItemIsBufExOption

; 262  : 			LogAdd("[%s][%s] CBMix [%d,%s,%d,%d,%d,%d]serial:[%u][%d][%d] Ex:[%d,%d,%d,%d,%d,%d,%d]",
; 263  : 				lpObj->AccountID, lpObj->Name, n, lpObj->pChaosBox[n].GetName(),
; 264  : 				lpObj->pChaosBox[n].m_Level, lpObj->pChaosBox[n].m_Option1,
; 265  : 				lpObj->pChaosBox[n].m_Option2, lpObj->pChaosBox[n].m_Option3,
; 266  : 				lpObj->pChaosBox[n].m_Number, (int)lpObj->pChaosBox[n].m_Durability,
; 267  : 				nv, ExOption[0], ExOption[1], ExOption[2], ExOption[3], ExOption[4], ExOption[5],
; 268  : 				ExOption[6], lpObj->pChaosBox[n].m_SetOption);

  001af	03 b7 10 12 00
	00		 add	 esi, DWORD PTR [edi+4624]
  001b5	0f b6 45 fa	 movzx	 eax, BYTE PTR _ExOption$[ebp+6]
  001b9	0f b6 96 aa 00
	00 00		 movzx	 edx, BYTE PTR [esi+170]
  001c0	d9 46 24	 fld	 DWORD PTR [esi+36]
  001c3	0f b6 4d f9	 movzx	 ecx, BYTE PTR _ExOption$[ebp+5]
  001c7	83 c4 08	 add	 esp, 8
  001ca	52		 push	 edx
  001cb	0f b6 55 f8	 movzx	 edx, BYTE PTR _ExOption$[ebp+4]
  001cf	50		 push	 eax
  001d0	0f b6 45 f7	 movzx	 eax, BYTE PTR _ExOption$[ebp+3]
  001d4	51		 push	 ecx
  001d5	0f b6 4d f6	 movzx	 ecx, BYTE PTR _ExOption$[ebp+2]
  001d9	52		 push	 edx
  001da	0f b6 55 f5	 movzx	 edx, BYTE PTR _ExOption$[ebp+1]
  001de	50		 push	 eax
  001df	0f b6 45 f4	 movzx	 eax, BYTE PTR _ExOption$[ebp]
  001e3	51		 push	 ecx
  001e4	52		 push	 edx
  001e5	50		 push	 eax
  001e6	53		 push	 ebx
  001e7	e8 00 00 00 00	 call	 __ftol2_sse
  001ec	8b 0e		 mov	 ecx, DWORD PTR [esi]
  001ee	0f b6 96 92 00
	00 00		 movzx	 edx, BYTE PTR [esi+146]
  001f5	50		 push	 eax
  001f6	0f b6 86 91 00
	00 00		 movzx	 eax, BYTE PTR [esi+145]
  001fd	51		 push	 ecx
  001fe	0f b6 8e 90 00
	00 00		 movzx	 ecx, BYTE PTR [esi+144]
  00205	52		 push	 edx
  00206	0f bf 56 08	 movsx	 edx, WORD PTR [esi+8]
  0020a	50		 push	 eax
  0020b	51		 push	 ecx
  0020c	52		 push	 edx
  0020d	8b ce		 mov	 ecx, esi
  0020f	e8 00 00 00 00	 call	 ?GetName@CItem@@QAEPADXZ ; CItem::GetName
  00214	50		 push	 eax
  00215	8b 45 dc	 mov	 eax, DWORD PTR _n$190014[ebp]
  00218	50		 push	 eax
  00219	8d 4f 5d	 lea	 ecx, DWORD PTR [edi+93]
  0021c	51		 push	 ecx
  0021d	8d 57 52	 lea	 edx, DWORD PTR [edi+82]
  00220	52		 push	 edx
  00221	68 00 00 00 00	 push	 OFFSET ??_C@_0FA@FKHLLHEC@?$FL?$CFs?$FN?$FL?$CFs?$FN?5CBMix?5?$FL?$CFd?0?$CFs?0?$CFd?0?$CFd?0?$CFd?0?$CF@
  00226	ff 15 00 00 00
	00		 call	 DWORD PTR ?LogAdd@@3P6AXPADZZA ; LogAdd
  0022c	8b 75 d0	 mov	 esi, DWORD PTR tv607[ebp]
  0022f	8b 5d d8	 mov	 ebx, DWORD PTR _iCharmOfLuckCount$[ebp]
  00232	83 c4 50	 add	 esp, 80			; 00000050H
$LN28@ChaosBoxMi:

; 202  : 
; 203  : 	for ( int n=0;n<CHAOS_BOX_SIZE;n++)

  00235	ff 45 dc	 inc	 DWORD PTR _n$190014[ebp]
  00238	81 c6 d4 00 00
	00		 add	 esi, 212		; 000000d4H
  0023e	89 75 d0	 mov	 DWORD PTR tv607[ebp], esi
  00241	81 fe 80 1a 00
	00		 cmp	 esi, 6784		; 00001a80H
  00247	0f 8c 23 fe ff
	ff		 jl	 $LL29@ChaosBoxMi

; 269  : 		
; 270  : 
; 271  : 
; 272  : 
; 273  : 		}
; 274  : 	}
; 275  : 
; 276  : 	if ( ChaosDiamond == 0 )

  0024d	33 c0		 xor	 eax, eax
  0024f	39 45 e4	 cmp	 DWORD PTR _ChaosDiamond$[ebp], eax
  00252	75 03		 jne	 SHORT $LN13@ChaosBoxMi

; 277  : 	{
; 278  : 		value = 0;	// 0% of success

  00254	89 45 f0	 mov	 DWORD PTR _value$[ebp], eax
$LN13@ChaosBoxMi:

; 279  : 	}
; 280  : 
; 281  : 	if ( ChaosItems < 2 )

  00257	83 7d e0 02	 cmp	 DWORD PTR _ChaosItems$[ebp], 2
  0025b	7d 03		 jge	 SHORT $LN12@ChaosBoxMi

; 282  : 	{
; 283  : 		value = 0;// 0% of success

  0025d	89 45 f0	 mov	 DWORD PTR _value$[ebp], eax
$LN12@ChaosBoxMi:

; 284  : 	}
; 285  : 
; 286  : 	if ( iCharmOfLuckCount > 10 )

  00260	83 fb 0a	 cmp	 ebx, 10			; 0000000aH
  00263	7e 15		 jle	 SHORT $LN11@ChaosBoxMi
$LN34@ChaosBoxMi:
  00265	5b		 pop	 ebx
  00266	5f		 pop	 edi

; 287  : 		return FALSE;

  00267	33 c0		 xor	 eax, eax
  00269	5e		 pop	 esi

; 329  : 			break;
; 330  : 		}
; 331  : 	}
; 332  : 
; 333  : 	return value;
; 334  : }

  0026a	8b 4d fc	 mov	 ecx, DWORD PTR __$ArrayPad$[ebp]
  0026d	33 cd		 xor	 ecx, ebp
  0026f	e8 00 00 00 00	 call	 @__security_check_cookie@4
  00274	8b e5		 mov	 esp, ebp
  00276	5d		 pop	 ebp
  00277	c2 0c 00	 ret	 12			; 0000000cH
$LN11@ChaosBoxMi:

; 288  : 
; 289  : 
; 290  : 	
; 291  : 	lpObj->ChaosSuccessRate = value / 10000;

  0027a	8b 75 f0	 mov	 esi, DWORD PTR _value$[ebp]
  0027d	b8 ad 8b db 68	 mov	 eax, 1759218605		; 68db8badH
  00282	f7 ee		 imul	 esi
  00284	c1 fa 0c	 sar	 edx, 12			; 0000000cH
  00287	8b c2		 mov	 eax, edx
  00289	c1 e8 1f	 shr	 eax, 31			; 0000001fH
  0028c	03 c2		 add	 eax, edx

; 292  : 	lpObj->ChaosSuccessRate += iCharmOfLuckCount;

  0028e	03 c3		 add	 eax, ebx
  00290	89 87 1c 12 00
	00		 mov	 DWORD PTR [edi+4636], eax

; 293  : 
; 294  : 	if ( lpObj->ChaosSuccessRate  > 100 )

  00296	83 f8 64	 cmp	 eax, 100		; 00000064H
  00299	7e 0a		 jle	 SHORT $LN10@ChaosBoxMi

; 295  : 	{
; 296  : 		lpObj->ChaosSuccessRate = 100;

  0029b	c7 87 1c 12 00
	00 64 00 00 00	 mov	 DWORD PTR [edi+4636], 100 ; 00000064H
$LN10@ChaosBoxMi:

; 297  : 	}
; 298  : 
; 299  : 	lpObj->ChaosMoney = lpObj->ChaosSuccessRate * 10000;	// Required Money to MIX anc createe a Chaos Item

  002a5	8b 8f 1c 12 00
	00		 mov	 ecx, DWORD PTR [edi+4636]
  002ab	8b c1		 mov	 eax, ecx
  002ad	69 c0 10 27 00
	00		 imul	 eax, 10000		; 00002710H

; 300  : 
; 301  : 	LogAddTD("[%s][%s] CBMix need Zen : %d SuccessRate : %d, CharmRate : %d",
; 302  : 		lpObj->AccountID, lpObj->Name, lpObj->ChaosMoney, 
; 303  : 		lpObj->ChaosSuccessRate, iCharmOfLuckCount);

  002b3	53		 push	 ebx
  002b4	51		 push	 ecx
  002b5	50		 push	 eax
  002b6	8d 4f 5d	 lea	 ecx, DWORD PTR [edi+93]
  002b9	89 87 18 12 00
	00		 mov	 DWORD PTR [edi+4632], eax
  002bf	51		 push	 ecx
  002c0	83 c7 52	 add	 edi, 82			; 00000052H
  002c3	57		 push	 edi
  002c4	68 00 00 00 00	 push	 OFFSET ??_C@_0DO@PLIHJFD@?$FL?$CFs?$FN?$FL?$CFs?$FN?5CBMix?5need?5Zen?5?3?5?$CFd?5Suc@
  002c9	ff 15 00 00 00
	00		 call	 DWORD PTR ?LogAddTD@@3P6AXPADZZA ; LogAddTD

; 304  : 
; 305  : 
; 306  : 	if( tmpItem > -1 )

  002cf	8b 4d d4	 mov	 ecx, DWORD PTR _tmpItem$[ebp]
  002d2	83 c4 18	 add	 esp, 24			; 00000018H
  002d5	83 f9 ff	 cmp	 ecx, -1
  002d8	7e 5d		 jle	 SHORT $LN7@ChaosBoxMi

; 307  : 	{
; 308  : 		int Number = tmpItem^ITEMGET(13,00);

  002da	8b c1		 mov	 eax, ecx
  002dc	35 00 1a 00 00	 xor	 eax, 6656		; 00001a00H

; 309  : 
; 310  : 		switch( Number )

  002e1	8d 50 ad	 lea	 edx, DWORD PTR [eax-83]
  002e4	83 fa 04	 cmp	 edx, 4
  002e7	77 3e		 ja	 SHORT $LN1@ChaosBoxMi
  002e9	ff 24 95 00 00
	00 00		 jmp	 DWORD PTR $LN41@ChaosBoxMi[edx*4]
$LN6@ChaosBoxMi:

; 311  : 		{
; 312  : 		case 83:
; 313  : 			Result3 = 2;

  002f0	8b 55 ec	 mov	 edx, DWORD PTR _Result3$GSCopy$[ebp]
  002f3	c7 02 02 00 00
	00		 mov	 DWORD PTR [edx], 2

; 314  : 			break;

  002f9	eb 3c		 jmp	 SHORT $LN7@ChaosBoxMi
$LN5@ChaosBoxMi:

; 315  : 		case 84:
; 316  : 			Result3 = 1;

  002fb	8b 45 ec	 mov	 eax, DWORD PTR _Result3$GSCopy$[ebp]
  002fe	c7 00 01 00 00
	00		 mov	 DWORD PTR [eax], 1

; 317  : 			break;

  00304	eb 31		 jmp	 SHORT $LN7@ChaosBoxMi
$LN4@ChaosBoxMi:

; 318  : 		case 85:
; 319  : 			Result3 = 0;

  00306	8b 4d ec	 mov	 ecx, DWORD PTR _Result3$GSCopy$[ebp]
  00309	c7 01 00 00 00
	00		 mov	 DWORD PTR [ecx], 0

; 320  : 			break;

  0030f	eb 26		 jmp	 SHORT $LN7@ChaosBoxMi
$LN3@ChaosBoxMi:

; 321  : 		case 86:
; 322  : 			Result3 = 41;

  00311	8b 55 ec	 mov	 edx, DWORD PTR _Result3$GSCopy$[ebp]
  00314	c7 02 29 00 00
	00		 mov	 DWORD PTR [edx], 41	; 00000029H

; 323  : 			break;

  0031a	eb 1b		 jmp	 SHORT $LN7@ChaosBoxMi
$LN2@ChaosBoxMi:

; 324  : 		case 87:
; 325  : 			Result3 = 40;

  0031c	8b 45 ec	 mov	 eax, DWORD PTR _Result3$GSCopy$[ebp]
  0031f	c7 00 28 00 00
	00		 mov	 DWORD PTR [eax], 40	; 00000028H

; 326  : 			break;

  00325	eb 10		 jmp	 SHORT $LN7@ChaosBoxMi
$LN1@ChaosBoxMi:

; 327  : 		default:
; 328  : 			LogAddTD("[MixSystem] WingCharmItemNum => %d , WingCharmIndex => %d",tmpItem,Number);

  00327	50		 push	 eax
  00328	51		 push	 ecx
  00329	68 00 00 00 00	 push	 OFFSET ??_C@_0DK@EKDAKNF@?$FLMixSystem?$FN?5WingCharmItemNum?5?$DN?$DO?5@
  0032e	ff 15 00 00 00
	00		 call	 DWORD PTR ?LogAddTD@@3P6AXPADZZA ; LogAddTD
  00334	83 c4 0c	 add	 esp, 12			; 0000000cH
$LN7@ChaosBoxMi:

; 329  : 			break;
; 330  : 		}
; 331  : 	}
; 332  : 
; 333  : 	return value;
; 334  : }

  00337	8b 4d fc	 mov	 ecx, DWORD PTR __$ArrayPad$[ebp]
  0033a	5b		 pop	 ebx
  0033b	5f		 pop	 edi
  0033c	8b c6		 mov	 eax, esi
  0033e	33 cd		 xor	 ecx, ebp
  00340	5e		 pop	 esi
  00341	e8 00 00 00 00	 call	 @__security_check_cookie@4
  00346	8b e5		 mov	 esp, ebp
  00348	5d		 pop	 ebp
  00349	c2 0c 00	 ret	 12			; 0000000cH
$LN41@ChaosBoxMi:
  0034c	00 00 00 00	 DD	 $LN6@ChaosBoxMi
  00350	00 00 00 00	 DD	 $LN5@ChaosBoxMi
  00354	00 00 00 00	 DD	 $LN4@ChaosBoxMi
  00358	00 00 00 00	 DD	 $LN3@ChaosBoxMi
  0035c	00 00 00 00	 DD	 $LN2@ChaosBoxMi
?ChaosBoxMix@CChaosBox@@QAEHPAUOBJECTSTRUCT@@AAH1@Z ENDP ; CChaosBox::ChaosBoxMix
_TEXT	ENDS
PUBLIC	??_C@_0CK@IKEPLJDI@?$FL?$CFs?$FN?$FL?$CFs?$FN?5CBMix?5Success?5Rate?3?$CFd?5M@ ; `string'
PUBLIC	??_C@_0CF@NPEOFJKC@?$FL?$CFs?$FN?$FL?$CFs?$FN?5CBMix?5Fail?5?$CFd?5Money?5?3?5?$CF@ ; `string'
PUBLIC	__$ArrayPad$
PUBLIC	?DefaultChaosMix@CChaosBox@@QAEXPAUOBJECTSTRUCT@@@Z ; CChaosBox::DefaultChaosMix
EXTRN	?gObjInventoryCommit@@YAHH@Z:PROC		; gObjInventoryCommit
EXTRN	?GCUserChaosBoxSend@@YAXPAUOBJECTSTRUCT@@H@Z:PROC ; GCUserChaosBoxSend
EXTRN	?GCMoneySend@@YAXHK@Z:PROC			; GCMoneySend
EXTRN	?AddTributeMoney@CCastleSiegeSync@@QAEXH@Z:PROC	; CCastleSiegeSync::AddTributeMoney
EXTRN	?ItemSerialCreateSend@@YAXHEEEHEEEEEHEEEPAE@Z:PROC ; ItemSerialCreateSend
EXTRN	?GetTaxRateChaos@CCastleSiegeSync@@QAEHH@Z:PROC	; CCastleSiegeSync::GetTaxRateChaos
EXTRN	?g_CastleSiegeSync@@3VCCastleSiegeSync@@A:BYTE	; g_CastleSiegeSync
EXTRN	?DataSend@@YAHHPAEK@Z:PROC			; DataSend
EXTRN	?PHeadSetB@@YAXPAEEH@Z:PROC			; PHeadSetB
EXTRN	__alldiv:PROC
;	COMDAT ??_C@_0CK@IKEPLJDI@?$FL?$CFs?$FN?$FL?$CFs?$FN?5CBMix?5Success?5Rate?3?$CFd?5M@
CONST	SEGMENT
??_C@_0CK@IKEPLJDI@?$FL?$CFs?$FN?$FL?$CFs?$FN?5CBMix?5Success?5Rate?3?$CFd?5M@ DB '['
	DB	'%s][%s] CBMix Success Rate:%d Money : %d', 00H ; `string'
CONST	ENDS
;	COMDAT ??_C@_0CF@NPEOFJKC@?$FL?$CFs?$FN?$FL?$CFs?$FN?5CBMix?5Fail?5?$CFd?5Money?5?3?5?$CF@
CONST	SEGMENT
??_C@_0CF@NPEOFJKC@?$FL?$CFs?$FN?$FL?$CFs?$FN?5CBMix?5Fail?5?$CFd?5Money?5?3?5?$CF@ DB '['
	DB	'%s][%s] CBMix Fail %d Money : %d-%d', 00H	; `string'
; Function compile flags: /Ogtp
CONST	ENDS
;	COMDAT ?DefaultChaosMix@CChaosBox@@QAEXPAUOBJECTSTRUCT@@@Z
_TEXT	SEGMENT
_MixResult2$ = -56					; size = 4
_this$ = -52						; size = 4
_Level$190078 = -48					; size = 4
_fail$ = -44						; size = 4
_MixResult3$ = -40					; size = 4
_aIndex$ = -36						; size = 4
_Option2$190080 = -32					; size = 4
_iChaosTaxMoney$ = -28					; size = 4
_Option1$190079 = -24					; size = 4
_pMsg$ = -20						; size = 16
__$ArrayPad$ = -4					; size = 4
_lpObj$ = 8						; size = 4
?DefaultChaosMix@CChaosBox@@QAEXPAUOBJECTSTRUCT@@@Z PROC ; CChaosBox::DefaultChaosMix, COMDAT
; _this$ = ecx

; 337  : {

  00000	55		 push	 ebp
  00001	8b ec		 mov	 ebp, esp
  00003	83 ec 38	 sub	 esp, 56			; 00000038H
  00006	a1 00 00 00 00	 mov	 eax, DWORD PTR ___security_cookie
  0000b	33 c5		 xor	 eax, ebp
  0000d	89 45 fc	 mov	 DWORD PTR __$ArrayPad$[ebp], eax
  00010	53		 push	 ebx
  00011	56		 push	 esi
  00012	8b 75 08	 mov	 esi, DWORD PTR _lpObj$[ebp]
  00015	57		 push	 edi

; 338  : 	PMSG_CHAOSMIXRESULT pMsg;
; 339  : 
; 340  : 	PHeadSetB((LPBYTE)&pMsg.h, 0x86, sizeof(PMSG_CHAOSMIXRESULT));

  00016	6a 10		 push	 16			; 00000010H
  00018	8d 45 ec	 lea	 eax, DWORD PTR _pMsg$[ebp]
  0001b	8b d9		 mov	 ebx, ecx
  0001d	68 86 00 00 00	 push	 134			; 00000086H
  00022	50		 push	 eax
  00023	89 5d cc	 mov	 DWORD PTR _this$[ebp], ebx
  00026	e8 00 00 00 00	 call	 ?PHeadSetB@@YAXPAEEH@Z	; PHeadSetB

; 341  : 	pMsg.Result = CB_ERROR;
; 342  : 	int aIndex = lpObj->m_Index;

  0002b	8b 3e		 mov	 edi, DWORD PTR [esi]
  0002d	83 c4 0c	 add	 esp, 12			; 0000000cH

; 343  : 	BOOL fail = TRUE;
; 344  : 	int MixResult2;
; 345  : 	lpObj->ChaosLock = TRUE;
; 346  : 	int MixResult3 = -1;
; 347  : 
; 348  : 	if ( ChaosBoxMix(lpObj, MixResult2, MixResult3) == 0 )

  00030	8d 4d d8	 lea	 ecx, DWORD PTR _MixResult3$[ebp]
  00033	51		 push	 ecx
  00034	8d 55 c8	 lea	 edx, DWORD PTR _MixResult2$[ebp]
  00037	b8 01 00 00 00	 mov	 eax, 1
  0003c	52		 push	 edx
  0003d	56		 push	 esi
  0003e	8b cb		 mov	 ecx, ebx
  00040	c6 45 ef 00	 mov	 BYTE PTR _pMsg$[ebp+3], 0
  00044	89 7d dc	 mov	 DWORD PTR _aIndex$[ebp], edi
  00047	89 45 d4	 mov	 DWORD PTR _fail$[ebp], eax
  0004a	89 86 20 12 00
	00		 mov	 DWORD PTR [esi+4640], eax
  00050	c7 45 d8 ff ff
	ff ff		 mov	 DWORD PTR _MixResult3$[ebp], -1
  00057	e8 00 00 00 00	 call	 ?ChaosBoxMix@CChaosBox@@QAEHPAUOBJECTSTRUCT@@AAH1@Z ; CChaosBox::ChaosBoxMix
  0005c	85 c0		 test	 eax, eax
  0005e	75 33		 jne	 SHORT $LN36@DefaultCha

; 349  : 	{
; 350  : 		pMsg.Result = CB_INCORRECT_MIX_ITEMS;
; 351  : 		DataSend(aIndex, (BYTE *)&pMsg, pMsg.h.size);

  00060	0f b6 45 ed	 movzx	 eax, BYTE PTR _pMsg$[ebp+1]
  00064	50		 push	 eax
  00065	8d 4d ec	 lea	 ecx, DWORD PTR _pMsg$[ebp]
  00068	51		 push	 ecx
  00069	57		 push	 edi
  0006a	c6 45 ef 07	 mov	 BYTE PTR _pMsg$[ebp+3], 7
  0006e	e8 00 00 00 00	 call	 ?DataSend@@YAHHPAEK@Z	; DataSend
  00073	83 c4 0c	 add	 esp, 12			; 0000000cH
  00076	5f		 pop	 edi

; 352  : 		lpObj->ChaosLock = FALSE;

  00077	c7 86 20 12 00
	00 00 00 00 00	 mov	 DWORD PTR [esi+4640], 0
  00081	5e		 pop	 esi
  00082	5b		 pop	 ebx

; 521  : }

  00083	8b 4d fc	 mov	 ecx, DWORD PTR __$ArrayPad$[ebp]
  00086	33 cd		 xor	 ecx, ebp
  00088	e8 00 00 00 00	 call	 @__security_check_cookie@4
  0008d	8b e5		 mov	 esp, ebp
  0008f	5d		 pop	 ebp
  00090	c2 04 00	 ret	 4
$LN36@DefaultCha:

; 353  : 
; 354  : 		return;
; 355  : 	}
; 356  : 
; 357  : 	int iChaosTaxMoney = (int)((__int64)lpObj->ChaosMoney * (__int64)g_CastleSiegeSync.GetTaxRateChaos(lpObj->m_Index) / (__int64)100);

  00093	8b 16		 mov	 edx, DWORD PTR [esi]
  00095	52		 push	 edx
  00096	b9 00 00 00 00	 mov	 ecx, OFFSET ?g_CastleSiegeSync@@3VCCastleSiegeSync@@A ; g_CastleSiegeSync
  0009b	e8 00 00 00 00	 call	 ?GetTaxRateChaos@CCastleSiegeSync@@QAEHH@Z ; CCastleSiegeSync::GetTaxRateChaos
  000a0	f7 ae 18 12 00
	00		 imul	 DWORD PTR [esi+4632]
  000a6	33 db		 xor	 ebx, ebx
  000a8	53		 push	 ebx
  000a9	6a 64		 push	 100			; 00000064H
  000ab	52		 push	 edx
  000ac	50		 push	 eax
  000ad	e8 00 00 00 00	 call	 __alldiv
  000b2	89 45 e4	 mov	 DWORD PTR _iChaosTaxMoney$[ebp], eax

; 358  : 
; 359  : 	if ( iChaosTaxMoney < 0 )

  000b5	3b c3		 cmp	 eax, ebx
  000b7	7d 03		 jge	 SHORT $LN35@DefaultCha

; 360  : 	{
; 361  : 		iChaosTaxMoney = 0;

  000b9	89 5d e4	 mov	 DWORD PTR _iChaosTaxMoney$[ebp], ebx
$LN35@DefaultCha:

; 362  : 	}
; 363  : 
; 364  : 	lpObj->ChaosMoney += iChaosTaxMoney;

  000bc	8b 45 e4	 mov	 eax, DWORD PTR _iChaosTaxMoney$[ebp]
  000bf	01 86 18 12 00
	00		 add	 DWORD PTR [esi+4632], eax

; 365  : 
; 366  : 	if ( lpObj->ChaosMoney < 0 )

  000c5	79 06		 jns	 SHORT $LN34@DefaultCha

; 367  : 	{
; 368  : 		lpObj->ChaosMoney = 0;

  000c7	89 9e 18 12 00
	00		 mov	 DWORD PTR [esi+4632], ebx
$LN34@DefaultCha:

; 369  : 	}
; 370  : 
; 371  : 	if ( lpObj->Money < lpObj->ChaosMoney )

  000cd	8b 8e cc 00 00
	00		 mov	 ecx, DWORD PTR [esi+204]
  000d3	3b 8e 18 12 00
	00		 cmp	 ecx, DWORD PTR [esi+4632]
  000d9	7d 21		 jge	 SHORT $LN33@DefaultCha

; 372  : 	{
; 373  : 		pMsg.Result = CB_NOT_ENOUGH_ZEN;
; 374  : 		
; 375  : 		DataSend(aIndex, (BYTE *)&pMsg, pMsg.h.size);

  000db	0f b6 55 ed	 movzx	 edx, BYTE PTR _pMsg$[ebp+1]
  000df	52		 push	 edx
  000e0	8d 45 ec	 lea	 eax, DWORD PTR _pMsg$[ebp]
  000e3	50		 push	 eax
  000e4	57		 push	 edi
  000e5	c6 45 ef 02	 mov	 BYTE PTR _pMsg$[ebp+3], 2
  000e9	e8 00 00 00 00	 call	 ?DataSend@@YAHHPAEK@Z	; DataSend
  000ee	83 c4 0c	 add	 esp, 12			; 0000000cH

; 376  : 		lpObj->ChaosLock = FALSE;

  000f1	89 9e 20 12 00
	00		 mov	 DWORD PTR [esi+4640], ebx

; 377  : 
; 378  : 
; 379  : 	}
; 380  : 	else 

  000f7	e9 be 02 00 00	 jmp	 $LN1@DefaultCha
$LN33@DefaultCha:

; 381  : 	{
; 382  : 		if ( lpObj->ChaosSuccessRate > 0 )

  000fc	8b 86 1c 12 00
	00		 mov	 eax, DWORD PTR [esi+4636]
  00102	3b c3		 cmp	 eax, ebx
  00104	0f 8e 08 02 00
	00		 jle	 $LN43@DefaultCha

; 383  : 		{
; 384  : 			if ( lpObj->ChaosSuccessRate >= 100 )

  0010a	83 f8 64	 cmp	 eax, 100		; 00000064H
  0010d	7c 0a		 jl	 SHORT $LN30@DefaultCha

; 385  : 			{
; 386  : 				lpObj->ChaosSuccessRate = 100;

  0010f	c7 86 1c 12 00
	00 64 00 00 00	 mov	 DWORD PTR [esi+4636], 100 ; 00000064H
$LN30@DefaultCha:

; 387  : 			}
; 388  : 
; 389  : 			if ( (rand()%100) <= (lpObj->ChaosSuccessRate-1) ) 

  00119	e8 00 00 00 00	 call	 _rand
  0011e	99		 cdq
  0011f	b9 64 00 00 00	 mov	 ecx, 100		; 00000064H
  00124	f7 f9		 idiv	 ecx
  00126	8b 86 1c 12 00
	00		 mov	 eax, DWORD PTR [esi+4636]
  0012c	48		 dec	 eax
  0012d	3b d0		 cmp	 edx, eax
  0012f	0f 8f dd 01 00
	00		 jg	 $LN43@DefaultCha

; 390  : 			{
; 391  : 				fail = FALSE;

  00135	89 5d d4	 mov	 DWORD PTR _fail$[ebp], ebx

; 392  : 				pMsg.Result = CB_SUCCESS;

  00138	c6 45 ef 01	 mov	 BYTE PTR _pMsg$[ebp+3], 1

; 393  : 
; 394  : 				int Level = rand()%5;

  0013c	e8 00 00 00 00	 call	 _rand
  00141	99		 cdq
  00142	b9 05 00 00 00	 mov	 ecx, 5
  00147	f7 f9		 idiv	 ecx

; 395  : 				int Option1 = 0;

  00149	89 5d e8	 mov	 DWORD PTR _Option1$190079[ebp], ebx

; 396  : 				int Option2 = 0;

  0014c	89 5d e0	 mov	 DWORD PTR _Option2$190080[ebp], ebx
  0014f	89 55 d0	 mov	 DWORD PTR _Level$190078[ebp], edx

; 397  : 				int Option3 = 0;
; 398  : 
; 399  : 				if ( (rand()%100)< (lpObj->ChaosSuccessRate/5 + 6) )

  00152	e8 00 00 00 00	 call	 _rand
  00157	99		 cdq
  00158	b9 64 00 00 00	 mov	 ecx, 100		; 00000064H
  0015d	f7 f9		 idiv	 ecx
  0015f	b8 67 66 66 66	 mov	 eax, 1717986919		; 66666667H
  00164	8b fa		 mov	 edi, edx
  00166	f7 ae 1c 12 00
	00		 imul	 DWORD PTR [esi+4636]
  0016c	d1 fa		 sar	 edx, 1
  0016e	8b c2		 mov	 eax, edx
  00170	c1 e8 1f	 shr	 eax, 31			; 0000001fH
  00173	8d 4c 02 06	 lea	 ecx, DWORD PTR [edx+eax+6]
  00177	3b f9		 cmp	 edi, ecx
  00179	7d 07		 jge	 SHORT $LN42@DefaultCha

; 400  : 				{
; 401  : 					Option1 = 1;

  0017b	c7 45 e8 01 00
	00 00		 mov	 DWORD PTR _Option1$190079[ebp], 1
$LN42@DefaultCha:

; 402  : 				}
; 403  : 
; 404  : 				if ( (rand()%100)< (lpObj->ChaosSuccessRate/5 + 4) )

  00182	e8 00 00 00 00	 call	 _rand
  00187	99		 cdq
  00188	b9 64 00 00 00	 mov	 ecx, 100		; 00000064H
  0018d	f7 f9		 idiv	 ecx
  0018f	b8 67 66 66 66	 mov	 eax, 1717986919		; 66666667H
  00194	8b fa		 mov	 edi, edx
  00196	f7 ae 1c 12 00
	00		 imul	 DWORD PTR [esi+4636]
  0019c	d1 fa		 sar	 edx, 1
  0019e	8b c2		 mov	 eax, edx
  001a0	c1 e8 1f	 shr	 eax, 31			; 0000001fH
  001a3	8d 4c 02 04	 lea	 ecx, DWORD PTR [edx+eax+4]
  001a7	3b f9		 cmp	 edi, ecx
  001a9	7d 07		 jge	 SHORT $LN27@DefaultCha

; 405  : 				{
; 406  : 					Option2 = 1;

  001ab	c7 45 e0 01 00
	00 00		 mov	 DWORD PTR _Option2$190080[ebp], 1
$LN27@DefaultCha:

; 407  : 				}
; 408  : 
; 409  : 				int OpProb;
; 410  : 				int OpType = rand()%3;

  001b2	e8 00 00 00 00	 call	 _rand
  001b7	99		 cdq
  001b8	b9 03 00 00 00	 mov	 ecx, 3
  001bd	f7 f9		 idiv	 ecx
  001bf	8b fa		 mov	 edi, edx

; 411  : 				OpProb = rand()%100;

  001c1	e8 00 00 00 00	 call	 _rand
  001c6	99		 cdq
  001c7	b9 64 00 00 00	 mov	 ecx, 100		; 00000064H
  001cc	f7 f9		 idiv	 ecx

; 412  : 
; 413  : 				switch ( OpType )

  001ce	8b c7		 mov	 eax, edi
  001d0	83 e8 00	 sub	 eax, 0
  001d3	8b ca		 mov	 ecx, edx
  001d5	74 48		 je	 SHORT $LN24@DefaultCha
  001d7	48		 dec	 eax
  001d8	74 24		 je	 SHORT $LN22@DefaultCha
  001da	48		 dec	 eax
  001db	75 61		 jne	 SHORT $LN39@DefaultCha

; 428  : 
; 429  : 					case 2:
; 430  : 						if ( OpProb < (lpObj->ChaosSuccessRate / 5 + 12) ) 

  001dd	b8 67 66 66 66	 mov	 eax, 1717986919		; 66666667H
  001e2	f7 ae 1c 12 00
	00		 imul	 DWORD PTR [esi+4636]
  001e8	d1 fa		 sar	 edx, 1
  001ea	8b c2		 mov	 eax, edx
  001ec	c1 e8 1f	 shr	 eax, 31			; 0000001fH
  001ef	8d 54 02 0c	 lea	 edx, DWORD PTR [edx+eax+12]
  001f3	3b ca		 cmp	 ecx, edx
  001f5	7d 47		 jge	 SHORT $LN39@DefaultCha

; 431  : 						{
; 432  : 							Option3 = 1;

  001f7	bb 01 00 00 00	 mov	 ebx, 1

; 433  : 						}
; 434  : 						break;

  001fc	eb 40		 jmp	 SHORT $LN39@DefaultCha
$LN22@DefaultCha:

; 419  : 						}
; 420  : 						break;
; 421  : 
; 422  : 					case 1:
; 423  : 						if ( OpProb < (lpObj->ChaosSuccessRate / 5 + 8) ) 

  001fe	b8 67 66 66 66	 mov	 eax, 1717986919		; 66666667H
  00203	f7 ae 1c 12 00
	00		 imul	 DWORD PTR [esi+4636]
  00209	d1 fa		 sar	 edx, 1
  0020b	8b c2		 mov	 eax, edx
  0020d	c1 e8 1f	 shr	 eax, 31			; 0000001fH
  00210	8d 54 02 08	 lea	 edx, DWORD PTR [edx+eax+8]
  00214	3b ca		 cmp	 ecx, edx
  00216	7d 26		 jge	 SHORT $LN39@DefaultCha

; 424  : 						{
; 425  : 							Option3 = 2;

  00218	bb 02 00 00 00	 mov	 ebx, 2

; 426  : 						}
; 427  : 						break;

  0021d	eb 1f		 jmp	 SHORT $LN39@DefaultCha
$LN24@DefaultCha:

; 414  : 				{
; 415  : 					case 0:
; 416  : 						if ( OpProb < (lpObj->ChaosSuccessRate / 5 + 4) ) 

  0021f	b8 67 66 66 66	 mov	 eax, 1717986919		; 66666667H
  00224	f7 ae 1c 12 00
	00		 imul	 DWORD PTR [esi+4636]
  0022a	d1 fa		 sar	 edx, 1
  0022c	8b c2		 mov	 eax, edx
  0022e	c1 e8 1f	 shr	 eax, 31			; 0000001fH
  00231	8d 54 02 04	 lea	 edx, DWORD PTR [edx+eax+4]
  00235	3b ca		 cmp	 ecx, edx
  00237	7d 05		 jge	 SHORT $LN39@DefaultCha

; 417  : 						{
; 418  : 							Option3 = 3;

  00239	bb 03 00 00 00	 mov	 ebx, 3
$LN39@DefaultCha:

; 435  : 				}
; 436  : 
; 437  : 				if ( MixResult2 == TRUE )
; 438  : 				{
; 439  : 					int WingType = rand()%4;

  0023e	e8 00 00 00 00	 call	 _rand
  00243	83 7d c8 01	 cmp	 DWORD PTR _MixResult2$[ebp], 1
  00247	75 68		 jne	 SHORT $LN18@DefaultCha
  00249	25 03 00 00 80	 and	 eax, -2147483645	; 80000003H
  0024e	79 05		 jns	 SHORT $LN44@DefaultCha
  00250	48		 dec	 eax
  00251	83 c8 fc	 or	 eax, -4			; fffffffcH
  00254	40		 inc	 eax
$LN44@DefaultCha:

; 440  : 					int WingNum = 0;
; 441  : 
; 442  : 					if ( MixResult3 > -1 )

  00255	8b 55 d8	 mov	 edx, DWORD PTR _MixResult3$[ebp]
  00258	33 c9		 xor	 ecx, ecx
  0025a	83 fa ff	 cmp	 edx, -1
  0025d	7e 08		 jle	 SHORT $LN17@DefaultCha

; 443  : 					{
; 444  : 						WingNum = ITEMGET(12,00) + MixResult3;

  0025f	8d 8a 00 18 00
	00		 lea	 ecx, DWORD PTR [edx+6144]

; 445  : 					}
; 446  : 					else

  00265	eb 2d		 jmp	 SHORT $LN9@DefaultCha
$LN17@DefaultCha:

; 447  : 					{
; 448  : 						if ( WingType == 0 )

  00267	85 c0		 test	 eax, eax
  00269	75 07		 jne	 SHORT $LN15@DefaultCha

; 449  : 						{
; 450  : 							WingNum = ITEMGET(12,0);

  0026b	b9 00 18 00 00	 mov	 ecx, 6144		; 00001800H
  00270	eb 22		 jmp	 SHORT $LN9@DefaultCha
$LN15@DefaultCha:

; 451  : 						}
; 452  : 						else if ( WingType == 1 )

  00272	83 f8 01	 cmp	 eax, 1
  00275	75 07		 jne	 SHORT $LN13@DefaultCha

; 453  : 						{
; 454  : 							WingNum = ITEMGET(12,1);

  00277	b9 01 18 00 00	 mov	 ecx, 6145		; 00001801H
  0027c	eb 16		 jmp	 SHORT $LN9@DefaultCha
$LN13@DefaultCha:

; 455  : 						}
; 456  : 						else if ( WingType == 2 )

  0027e	83 f8 02	 cmp	 eax, 2
  00281	75 07		 jne	 SHORT $LN11@DefaultCha

; 457  : 						{
; 458  : 							WingNum = ITEMGET(12,2);

  00283	b9 02 18 00 00	 mov	 ecx, 6146		; 00001802H
  00288	eb 0a		 jmp	 SHORT $LN9@DefaultCha
$LN11@DefaultCha:

; 459  : 						}
; 460  : 						else if ( WingType == 3 )

  0028a	83 f8 03	 cmp	 eax, 3
  0028d	75 05		 jne	 SHORT $LN9@DefaultCha

; 461  : 						{
; 462  : 							WingNum = ITEMGET(12,41);

  0028f	b9 29 18 00 00	 mov	 ecx, 6185		; 00001829H
$LN9@DefaultCha:

; 463  : 						}
; 464  : 					}
; 465  : 
; 466  : 					::ItemSerialCreateSend(lpObj->m_Index, -1, 0, 0, WingNum, 0, 255, Option1, Option2, Option3, -1, 0, 0);

  00294	8b 45 e0	 mov	 eax, DWORD PTR _Option2$190080[ebp]
  00297	8b 55 e8	 mov	 edx, DWORD PTR _Option1$190079[ebp]
  0029a	6a 00		 push	 0
  0029c	6a 00		 push	 0
  0029e	6a 00		 push	 0
  002a0	6a 00		 push	 0
  002a2	6a ff		 push	 -1
  002a4	53		 push	 ebx
  002a5	50		 push	 eax
  002a6	52		 push	 edx
  002a7	68 ff 00 00 00	 push	 255			; 000000ffH
  002ac	6a 00		 push	 0
  002ae	51		 push	 ecx

; 467  : 				}
; 468  : 				else

  002af	eb 48		 jmp	 SHORT $LN45@DefaultCha
$LN18@DefaultCha:

; 469  : 				{
; 470  : 					int ChaosItemType = rand()%3;

  002b1	99		 cdq
  002b2	b9 03 00 00 00	 mov	 ecx, 3
  002b7	f7 f9		 idiv	 ecx

; 471  : 					int ChaosItemNum = 0;

  002b9	33 c0		 xor	 eax, eax

; 472  : 
; 473  : 					if ( ChaosItemType == 0 )	// Chaos Dragon Axe

  002bb	85 d2		 test	 edx, edx
  002bd	75 07		 jne	 SHORT $LN7@DefaultCha

; 474  : 					{
; 475  : 						ChaosItemNum = ITEMGET(2,6);

  002bf	b8 06 04 00 00	 mov	 eax, 1030		; 00000406H
  002c4	eb 16		 jmp	 SHORT $LN3@DefaultCha
$LN7@DefaultCha:

; 476  : 					}
; 477  : 					else if ( ChaosItemType == 1 )	// Chaos Nature Bow

  002c6	83 fa 01	 cmp	 edx, 1
  002c9	75 07		 jne	 SHORT $LN5@DefaultCha

; 478  : 					{
; 479  : 						ChaosItemNum = ITEMGET(4,6);

  002cb	b8 06 08 00 00	 mov	 eax, 2054		; 00000806H
  002d0	eb 0a		 jmp	 SHORT $LN3@DefaultCha
$LN5@DefaultCha:

; 480  : 					}
; 481  : 					else if ( ChaosItemType == 2 )	// Chaos Lighting Staff

  002d2	83 fa 02	 cmp	 edx, 2
  002d5	75 05		 jne	 SHORT $LN3@DefaultCha

; 482  : 					{
; 483  : 						ChaosItemNum = ITEMGET(5,7);

  002d7	b8 07 0a 00 00	 mov	 eax, 2567		; 00000a07H
$LN3@DefaultCha:

; 484  : 					}
; 485  : 
; 486  : 					::ItemSerialCreateSend(lpObj->m_Index, -1, 0, 0, ChaosItemNum, Level, 255, Option1, Option2, Option3, -1, 0, 0);

  002dc	8b 55 e0	 mov	 edx, DWORD PTR _Option2$190080[ebp]
  002df	8b 4d e8	 mov	 ecx, DWORD PTR _Option1$190079[ebp]
  002e2	6a 00		 push	 0
  002e4	6a 00		 push	 0
  002e6	6a 00		 push	 0
  002e8	6a 00		 push	 0
  002ea	6a ff		 push	 -1
  002ec	53		 push	 ebx
  002ed	52		 push	 edx
  002ee	8b 55 d0	 mov	 edx, DWORD PTR _Level$190078[ebp]
  002f1	51		 push	 ecx
  002f2	68 ff 00 00 00	 push	 255			; 000000ffH
  002f7	52		 push	 edx
  002f8	50		 push	 eax
$LN45@DefaultCha:
  002f9	8b 06		 mov	 eax, DWORD PTR [esi]
  002fb	6a 00		 push	 0
  002fd	6a 00		 push	 0
  002ff	68 ff 00 00 00	 push	 255			; 000000ffH
  00304	50		 push	 eax
  00305	e8 00 00 00 00	 call	 ?ItemSerialCreateSend@@YAXHEEEHEEEEEHEEEPAE@Z ; ItemSerialCreateSend
  0030a	8b 7d dc	 mov	 edi, DWORD PTR _aIndex$[ebp]
  0030d	83 c4 3c	 add	 esp, 60			; 0000003cH
  00310	33 db		 xor	 ebx, ebx
$LN43@DefaultCha:

; 487  : 				}
; 488  : 			}
; 489  : 		}
; 490  : 
; 491  : 
; 492  : 		lpObj->Money -= lpObj->ChaosMoney;

  00312	8b 8e 18 12 00
	00		 mov	 ecx, DWORD PTR [esi+4632]

; 493  : 		g_CastleSiegeSync.AddTributeMoney(iChaosTaxMoney);

  00318	8b 55 e4	 mov	 edx, DWORD PTR _iChaosTaxMoney$[ebp]
  0031b	29 8e cc 00 00
	00		 sub	 DWORD PTR [esi+204], ecx
  00321	52		 push	 edx
  00322	b9 00 00 00 00	 mov	 ecx, OFFSET ?g_CastleSiegeSync@@3VCCastleSiegeSync@@A ; g_CastleSiegeSync
  00327	e8 00 00 00 00	 call	 ?AddTributeMoney@CCastleSiegeSync@@QAEXH@Z ; CCastleSiegeSync::AddTributeMoney

; 494  : 		GCMoneySend(lpObj->m_Index, lpObj->Money);

  0032c	8b 86 cc 00 00
	00		 mov	 eax, DWORD PTR [esi+204]
  00332	8b 0e		 mov	 ecx, DWORD PTR [esi]
  00334	50		 push	 eax
  00335	51		 push	 ecx
  00336	e8 00 00 00 00	 call	 ?GCMoneySend@@YAXHK@Z	; GCMoneySend
  0033b	83 c4 08	 add	 esp, 8

; 495  : 
; 496  : 		if ( fail == TRUE )

  0033e	83 7d d4 01	 cmp	 DWORD PTR _fail$[ebp], 1
  00342	75 52		 jne	 SHORT $LN2@DefaultCha

; 497  : 		{
; 498  : 			ChaosBoxItemDown(lpObj);

  00344	8b 4d cc	 mov	 ecx, DWORD PTR _this$[ebp]
  00347	56		 push	 esi
  00348	e8 00 00 00 00	 call	 ?ChaosBoxItemDown@CChaosBox@@QAEHPAUOBJECTSTRUCT@@@Z ; CChaosBox::ChaosBoxItemDown

; 499  : 			GCUserChaosBoxSend(lpObj, 0);

  0034d	53		 push	 ebx
  0034e	56		 push	 esi
  0034f	e8 00 00 00 00	 call	 ?GCUserChaosBoxSend@@YAXPAUOBJECTSTRUCT@@H@Z ; GCUserChaosBoxSend

; 500  : 			DataSend(aIndex, (BYTE*)&pMsg, pMsg.h.size);

  00354	0f b6 55 ed	 movzx	 edx, BYTE PTR _pMsg$[ebp+1]
  00358	52		 push	 edx
  00359	8d 45 ec	 lea	 eax, DWORD PTR _pMsg$[ebp]
  0035c	50		 push	 eax
  0035d	57		 push	 edi
  0035e	e8 00 00 00 00	 call	 ?DataSend@@YAHHPAEK@Z	; DataSend

; 501  : 			LogAddTD("[%s][%s] CBMix Fail %d Money : %d-%d",
; 502  : 				lpObj->AccountID, lpObj->Name, lpObj->ChaosSuccessRate,
; 503  : 				lpObj->Money, lpObj->ChaosMoney);

  00363	8b 8e 18 12 00
	00		 mov	 ecx, DWORD PTR [esi+4632]
  00369	8b 96 cc 00 00
	00		 mov	 edx, DWORD PTR [esi+204]
  0036f	8b 86 1c 12 00
	00		 mov	 eax, DWORD PTR [esi+4636]
  00375	51		 push	 ecx
  00376	52		 push	 edx
  00377	50		 push	 eax
  00378	8d 4e 5d	 lea	 ecx, DWORD PTR [esi+93]
  0037b	51		 push	 ecx
  0037c	8d 56 52	 lea	 edx, DWORD PTR [esi+82]
  0037f	52		 push	 edx
  00380	68 00 00 00 00	 push	 OFFSET ??_C@_0CF@NPEOFJKC@?$FL?$CFs?$FN?$FL?$CFs?$FN?5CBMix?5Fail?5?$CFd?5Money?5?3?5?$CF@
  00385	ff 15 00 00 00
	00		 call	 DWORD PTR ?LogAddTD@@3P6AXPADZZA ; LogAddTD
  0038b	83 c4 2c	 add	 esp, 44			; 0000002cH

; 504  : 			lpObj->ChaosLock = FALSE;

  0038e	89 9e 20 12 00
	00		 mov	 DWORD PTR [esi+4640], ebx

; 505  : #if( __4GAMERS__ == 1 )
; 506  : 			g_Achievements.GD_UpdateMixData(lpObj, false);
; 507  : #endif
; 508  : 		}
; 509  : 		else

  00394	eb 24		 jmp	 SHORT $LN1@DefaultCha
$LN2@DefaultCha:

; 510  : 		{
; 511  : 			LogAddTD("[%s][%s] CBMix Success Rate:%d Money : %d",
; 512  : 				lpObj->AccountID, lpObj->Name, lpObj->ChaosSuccessRate,
; 513  : 				lpObj->ChaosMoney);

  00396	8b 86 18 12 00
	00		 mov	 eax, DWORD PTR [esi+4632]
  0039c	8b 8e 1c 12 00
	00		 mov	 ecx, DWORD PTR [esi+4636]
  003a2	50		 push	 eax
  003a3	51		 push	 ecx
  003a4	8d 56 5d	 lea	 edx, DWORD PTR [esi+93]
  003a7	52		 push	 edx
  003a8	8d 46 52	 lea	 eax, DWORD PTR [esi+82]
  003ab	50		 push	 eax
  003ac	68 00 00 00 00	 push	 OFFSET ??_C@_0CK@IKEPLJDI@?$FL?$CFs?$FN?$FL?$CFs?$FN?5CBMix?5Success?5Rate?3?$CFd?5M@
  003b1	ff 15 00 00 00
	00		 call	 DWORD PTR ?LogAddTD@@3P6AXPADZZA ; LogAddTD
  003b7	83 c4 14	 add	 esp, 20			; 00000014H
$LN1@DefaultCha:

; 514  : #if( __4GAMERS__ == 1 )
; 515  : 			g_Achievements.GD_UpdateMixData(lpObj, true);
; 516  : #endif
; 517  : 		}
; 518  : 	}
; 519  : 
; 520  : 	::gObjInventoryCommit(lpObj->m_Index);

  003ba	8b 0e		 mov	 ecx, DWORD PTR [esi]
  003bc	51		 push	 ecx
  003bd	e8 00 00 00 00	 call	 ?gObjInventoryCommit@@YAHH@Z ; gObjInventoryCommit

; 521  : }

  003c2	8b 4d fc	 mov	 ecx, DWORD PTR __$ArrayPad$[ebp]
  003c5	83 c4 04	 add	 esp, 4
  003c8	5f		 pop	 edi
  003c9	5e		 pop	 esi
  003ca	33 cd		 xor	 ecx, ebp
  003cc	5b		 pop	 ebx
  003cd	e8 00 00 00 00	 call	 @__security_check_cookie@4
  003d2	8b e5		 mov	 esp, ebp
  003d4	5d		 pop	 ebp
  003d5	c2 04 00	 ret	 4
?DefaultChaosMix@CChaosBox@@QAEXPAUOBJECTSTRUCT@@@Z ENDP ; CChaosBox::DefaultChaosMix
_TEXT	ENDS
PUBLIC	??_C@_0HL@GCCPEJBG@?$FLDevilSquare?0?$CFd?$FN?5?$FL?$CFs?$FN?$FL?$CFs?$FN?5CBMix?5@ ; `string'
PUBLIC	__$ArrayPad$
PUBLIC	?LogDQChaosItem@CChaosBox@@QAEXPAUOBJECTSTRUCT@@@Z ; CChaosBox::LogDQChaosItem
EXTRN	?GetItemStrengthenOption@CJewelOfHarmonySystem@@QAEEPAVCItem@@@Z:PROC ; CJewelOfHarmonySystem::GetItemStrengthenOption
EXTRN	?GetItemOptionLevel@CJewelOfHarmonySystem@@QAEEPAVCItem@@@Z:PROC ; CJewelOfHarmonySystem::GetItemOptionLevel
EXTRN	?g_kJewelOfHarmonySystem@@3VCJewelOfHarmonySystem@@A:BYTE ; g_kJewelOfHarmonySystem
;	COMDAT ??_C@_0HL@GCCPEJBG@?$FLDevilSquare?0?$CFd?$FN?5?$FL?$CFs?$FN?$FL?$CFs?$FN?5CBMix?5@
CONST	SEGMENT
??_C@_0HL@GCCPEJBG@?$FLDevilSquare?0?$CFd?$FN?5?$FL?$CFs?$FN?$FL?$CFs?$FN?5CBMix?5@ DB '['
	DB	'DevilSquare,%d] [%s][%s] CBMix [%d,%s,%d,%d,%d,%d]serial:[%d]'
	DB	'[%d] Ex:[%d,%d,%d,%d,%d,%d,%d] Set:[%d] 380Ex[%d] HO:[%d,%d]', 00H ; `string'
; Function compile flags: /Ogtp
CONST	ENDS
;	COMDAT ?LogDQChaosItem@CChaosBox@@QAEXPAUOBJECTSTRUCT@@@Z
_TEXT	SEGMENT
_n$190126 = -16						; size = 4
_ExOption$ = -12					; size = 8
__$ArrayPad$ = -4					; size = 4
_lpObj$ = 8						; size = 4
?LogDQChaosItem@CChaosBox@@QAEXPAUOBJECTSTRUCT@@@Z PROC	; CChaosBox::LogDQChaosItem, COMDAT
; _this$ = ecx

; 524  : {

  00000	55		 push	 ebp
  00001	8b ec		 mov	 ebp, esp
  00003	83 ec 10	 sub	 esp, 16			; 00000010H
  00006	a1 00 00 00 00	 mov	 eax, DWORD PTR ___security_cookie
  0000b	33 c5		 xor	 eax, ebp
  0000d	89 45 fc	 mov	 DWORD PTR __$ArrayPad$[ebp], eax
  00010	53		 push	 ebx
  00011	8b 5d 08	 mov	 ebx, DWORD PTR _lpObj$[ebp]
  00014	56		 push	 esi
  00015	57		 push	 edi

; 525  : 	BYTE ExOption[MAX_EXOPTION_SIZE];
; 526  : 
; 527  : 	for ( int n=0;n<CHAOS_BOX_SIZE;n++)

  00016	33 ff		 xor	 edi, edi
  00018	89 7d f0	 mov	 DWORD PTR _n$190126[ebp], edi
  0001b	eb 03 8d 49 00	 npad	 5
$LL4@LogDQChaos:

; 528  : 	{
; 529  : 		if ( lpObj->pChaosBox[n].IsItem() == TRUE )

  00020	8b 8b 10 12 00
	00		 mov	 ecx, DWORD PTR [ebx+4624]
  00026	03 cf		 add	 ecx, edi
  00028	e8 00 00 00 00	 call	 ?IsItem@CItem@@QAEHXZ	; CItem::IsItem
  0002d	83 f8 01	 cmp	 eax, 1
  00030	0f 85 d3 00 00
	00		 jne	 $LN3@LogDQChaos

; 530  : 		{
; 531  : 			::ItemIsBufExOption(ExOption, &lpObj->pChaosBox[n] );

  00036	8b 83 10 12 00
	00		 mov	 eax, DWORD PTR [ebx+4624]
  0003c	03 c7		 add	 eax, edi
  0003e	50		 push	 eax
  0003f	8d 4d f4	 lea	 ecx, DWORD PTR _ExOption$[ebp]
  00042	51		 push	 ecx
  00043	e8 00 00 00 00	 call	 ?ItemIsBufExOption@@YAXPAEPAVCItem@@@Z ; ItemIsBufExOption

; 532  : 
; 533  : 			LogAddTD("[DevilSquare,%d] [%s][%s] CBMix [%d,%s,%d,%d,%d,%d]serial:[%d][%d] Ex:[%d,%d,%d,%d,%d,%d,%d] Set:[%d] 380Ex[%d] HO:[%d,%d]",
; 534  : 				lpObj->pChaosBox[n].m_Level,
; 535  : 				lpObj->AccountID, lpObj->Name, n, lpObj->pChaosBox[n].GetName(), lpObj->pChaosBox[n].m_Level,
; 536  : 				lpObj->pChaosBox[n].m_Option1, lpObj->pChaosBox[n].m_Option2, lpObj->pChaosBox[n].m_Option3, 
; 537  : 				lpObj->pChaosBox[n].m_Number, (int)lpObj->pChaosBox[n].m_Durability, 
; 538  : 				ExOption[0], ExOption[1], ExOption[2], ExOption[3], ExOption[4], ExOption[5], ExOption[6],
; 539  : 				lpObj->pChaosBox[n].m_SetOption, lpObj->pChaosBox[n].m_ItemOptionEx >> 7,
; 540  : 				g_kJewelOfHarmonySystem.GetItemStrengthenOption(&lpObj->pChaosBox[n]),
; 541  : 				g_kJewelOfHarmonySystem.GetItemOptionLevel(&lpObj->pChaosBox[n]));

  00048	8b 93 10 12 00
	00		 mov	 edx, DWORD PTR [ebx+4624]
  0004e	8d 34 17	 lea	 esi, DWORD PTR [edi+edx]
  00051	83 c4 08	 add	 esp, 8
  00054	03 d7		 add	 edx, edi
  00056	52		 push	 edx
  00057	b9 00 00 00 00	 mov	 ecx, OFFSET ?g_kJewelOfHarmonySystem@@3VCJewelOfHarmonySystem@@A ; g_kJewelOfHarmonySystem
  0005c	e8 00 00 00 00	 call	 ?GetItemOptionLevel@CJewelOfHarmonySystem@@QAEEPAVCItem@@@Z ; CJewelOfHarmonySystem::GetItemOptionLevel
  00061	8b 93 10 12 00
	00		 mov	 edx, DWORD PTR [ebx+4624]
  00067	0f b6 c8	 movzx	 ecx, al
  0006a	51		 push	 ecx
  0006b	03 d7		 add	 edx, edi
  0006d	52		 push	 edx
  0006e	b9 00 00 00 00	 mov	 ecx, OFFSET ?g_kJewelOfHarmonySystem@@3VCJewelOfHarmonySystem@@A ; g_kJewelOfHarmonySystem
  00073	e8 00 00 00 00	 call	 ?GetItemStrengthenOption@CJewelOfHarmonySystem@@QAEEPAVCItem@@@Z ; CJewelOfHarmonySystem::GetItemStrengthenOption
  00078	0f b6 8e c6 00
	00 00		 movzx	 ecx, BYTE PTR [esi+198]
  0007f	d9 46 24	 fld	 DWORD PTR [esi+36]
  00082	0f b6 96 aa 00
	00 00		 movzx	 edx, BYTE PTR [esi+170]
  00089	0f b6 c0	 movzx	 eax, al
  0008c	50		 push	 eax
  0008d	0f b6 45 fa	 movzx	 eax, BYTE PTR _ExOption$[ebp+6]
  00091	c1 e9 07	 shr	 ecx, 7
  00094	51		 push	 ecx
  00095	0f b6 4d f9	 movzx	 ecx, BYTE PTR _ExOption$[ebp+5]
  00099	52		 push	 edx
  0009a	0f b6 55 f8	 movzx	 edx, BYTE PTR _ExOption$[ebp+4]
  0009e	50		 push	 eax
  0009f	0f b6 45 f7	 movzx	 eax, BYTE PTR _ExOption$[ebp+3]
  000a3	51		 push	 ecx
  000a4	0f b6 4d f6	 movzx	 ecx, BYTE PTR _ExOption$[ebp+2]
  000a8	52		 push	 edx
  000a9	0f b6 55 f5	 movzx	 edx, BYTE PTR _ExOption$[ebp+1]
  000ad	50		 push	 eax
  000ae	0f b6 45 f4	 movzx	 eax, BYTE PTR _ExOption$[ebp]
  000b2	51		 push	 ecx
  000b3	52		 push	 edx
  000b4	50		 push	 eax
  000b5	e8 00 00 00 00	 call	 __ftol2_sse
  000ba	8b 0e		 mov	 ecx, DWORD PTR [esi]
  000bc	0f b6 96 92 00
	00 00		 movzx	 edx, BYTE PTR [esi+146]
  000c3	50		 push	 eax
  000c4	0f b6 86 91 00
	00 00		 movzx	 eax, BYTE PTR [esi+145]
  000cb	51		 push	 ecx
  000cc	0f b6 8e 90 00
	00 00		 movzx	 ecx, BYTE PTR [esi+144]
  000d3	52		 push	 edx
  000d4	0f bf 56 08	 movsx	 edx, WORD PTR [esi+8]
  000d8	50		 push	 eax
  000d9	51		 push	 ecx
  000da	52		 push	 edx
  000db	8b ce		 mov	 ecx, esi
  000dd	e8 00 00 00 00	 call	 ?GetName@CItem@@QAEPADXZ ; CItem::GetName
  000e2	50		 push	 eax
  000e3	8b 45 f0	 mov	 eax, DWORD PTR _n$190126[ebp]
  000e6	50		 push	 eax
  000e7	8b 83 10 12 00
	00		 mov	 eax, DWORD PTR [ebx+4624]
  000ed	8d 4b 5d	 lea	 ecx, DWORD PTR [ebx+93]
  000f0	51		 push	 ecx
  000f1	0f bf 4c 07 08	 movsx	 ecx, WORD PTR [edi+eax+8]
  000f6	8d 53 52	 lea	 edx, DWORD PTR [ebx+82]
  000f9	52		 push	 edx
  000fa	51		 push	 ecx
  000fb	68 00 00 00 00	 push	 OFFSET ??_C@_0HL@GCCPEJBG@?$FLDevilSquare?0?$CFd?$FN?5?$FL?$CFs?$FN?$FL?$CFs?$FN?5CBMix?5@
  00100	ff 15 00 00 00
	00		 call	 DWORD PTR ?LogAddTD@@3P6AXPADZZA ; LogAddTD
  00106	83 c4 5c	 add	 esp, 92			; 0000005cH
$LN3@LogDQChaos:

; 525  : 	BYTE ExOption[MAX_EXOPTION_SIZE];
; 526  : 
; 527  : 	for ( int n=0;n<CHAOS_BOX_SIZE;n++)

  00109	ff 45 f0	 inc	 DWORD PTR _n$190126[ebp]
  0010c	81 c7 d4 00 00
	00		 add	 edi, 212		; 000000d4H
  00112	81 ff 80 1a 00
	00		 cmp	 edi, 6784		; 00001a80H
  00118	0f 8c 02 ff ff
	ff		 jl	 $LL4@LogDQChaos

; 542  : 		}
; 543  : 	}
; 544  : }

  0011e	8b 4d fc	 mov	 ecx, DWORD PTR __$ArrayPad$[ebp]
  00121	5f		 pop	 edi
  00122	5e		 pop	 esi
  00123	33 cd		 xor	 ecx, ebp
  00125	5b		 pop	 ebx
  00126	e8 00 00 00 00	 call	 @__security_check_cookie@4
  0012b	8b e5		 mov	 esp, ebp
  0012d	5d		 pop	 ebp
  0012e	c2 04 00	 ret	 4
?LogDQChaosItem@CChaosBox@@QAEXPAUOBJECTSTRUCT@@@Z ENDP	; CChaosBox::LogDQChaosItem
_TEXT	ENDS
PUBLIC	??_C@_0CA@IANBADIL@?$FLDevilSquare?$FN?5DQItems?5Not?5Found?$AA@ ; `string'
PUBLIC	??_C@_0CH@EJJKJEAB@?$FLDevilSquare?$FN?5Charm?5Of?5Luck?5Coun@ ; `string'
PUBLIC	??_C@_0CG@FFFDDFEO@?$FLDevilSquare?$FN?5DiffLevel?5DQItems?5@ ; `string'
PUBLIC	??_C@_0CC@LINAPAPC@?$FLDevilSquare?$FN?5Other?5DQItems?5Foun@ ; `string'
PUBLIC	??_C@_0CF@MGDMILOL@?$FLDevilSquare?$FN?5Search?5DevilSquare@ ; `string'
PUBLIC	?CheckDevilSquareItem@CChaosBox@@QAEHPAUOBJECTSTRUCT@@AAH1@Z ; CChaosBox::CheckDevilSquareItem
;	COMDAT ??_C@_0CA@IANBADIL@?$FLDevilSquare?$FN?5DQItems?5Not?5Found?$AA@
CONST	SEGMENT
??_C@_0CA@IANBADIL@?$FLDevilSquare?$FN?5DQItems?5Not?5Found?$AA@ DB '[Dev'
	DB	'ilSquare] DQItems Not Found', 00H		; `string'
CONST	ENDS
;	COMDAT ??_C@_0CH@EJJKJEAB@?$FLDevilSquare?$FN?5Charm?5Of?5Luck?5Coun@
CONST	SEGMENT
??_C@_0CH@EJJKJEAB@?$FLDevilSquare?$FN?5Charm?5Of?5Luck?5Coun@ DB '[Devil'
	DB	'Square] Charm Of Luck Count Over', 00H	; `string'
CONST	ENDS
;	COMDAT ??_C@_0CG@FFFDDFEO@?$FLDevilSquare?$FN?5DiffLevel?5DQItems?5@
CONST	SEGMENT
??_C@_0CG@FFFDDFEO@?$FLDevilSquare?$FN?5DiffLevel?5DQItems?5@ DB '[DevilS'
	DB	'quare] DiffLevel DQItems Found', 00H	; `string'
CONST	ENDS
;	COMDAT ??_C@_0CC@LINAPAPC@?$FLDevilSquare?$FN?5Other?5DQItems?5Foun@
CONST	SEGMENT
??_C@_0CC@LINAPAPC@?$FLDevilSquare?$FN?5Other?5DQItems?5Foun@ DB '[DevilS'
	DB	'quare] Other DQItems Found', 00H		; `string'
CONST	ENDS
;	COMDAT ??_C@_0CF@MGDMILOL@?$FLDevilSquare?$FN?5Search?5DevilSquare@
CONST	SEGMENT
??_C@_0CF@MGDMILOL@?$FLDevilSquare?$FN?5Search?5DevilSquare@ DB '[DevilSq'
	DB	'uare] Search DevilSquareItem', 00H		; `string'
; Function compile flags: /Ogtp
CONST	ENDS
;	COMDAT ?CheckDevilSquareItem@CChaosBox@@QAEHPAUOBJECTSTRUCT@@AAH1@Z
_TEXT	SEGMENT
tv309 = -32						; size = 4
_this$ = -28						; size = 4
_bChaoseGem$ = -24					; size = 4
_bCharmOfLuckOver$ = -20				; size = 4
_FoundOtherItem$ = -16					; size = 4
_bKeyOfDevil$ = -12					; size = 4
_bEyeOfDevil$ = -8					; size = 4
_bLevelCheck$ = -4					; size = 4
_lpObj$ = 8						; size = 4
_iCharmOfLuckCount$ = 12				; size = 4
_eventitemcount$ = 12					; size = 4
_itemlevel$ = 16					; size = 4
?CheckDevilSquareItem@CChaosBox@@QAEHPAUOBJECTSTRUCT@@AAH1@Z PROC ; CChaosBox::CheckDevilSquareItem, COMDAT
; _this$ = ecx

; 547  : {

  00000	55		 push	 ebp
  00001	8b ec		 mov	 ebp, esp
  00003	83 ec 20	 sub	 esp, 32			; 00000020H
  00006	53		 push	 ebx

; 548  : 	BOOL bChaoseGem = FALSE;
; 549  : 	BOOL bEyeOfDevil = FALSE;
; 550  : 	BOOL bKeyOfDevil = FALSE;
; 551  : 	eventitemcount = 0;

  00007	8b 5d 0c	 mov	 ebx, DWORD PTR _eventitemcount$[ebp]
  0000a	56		 push	 esi
  0000b	33 f6		 xor	 esi, esi
  0000d	57		 push	 edi

; 552  : 	BOOL FoundOtherItem = FALSE;
; 553  : 	int level = -1;
; 554  : 	BOOL bLevelCheck = FALSE;
; 555  : 	int iCharmOfLuckCount = 0;
; 556  : 	BOOL bCharmOfLuckOver = FALSE;
; 557  : 
; 558  : 	LogAdd("[DevilSquare] Search DevilSquareItem");

  0000e	68 00 00 00 00	 push	 OFFSET ??_C@_0CF@MGDMILOL@?$FLDevilSquare?$FN?5Search?5DevilSquare@
  00013	89 4d e4	 mov	 DWORD PTR _this$[ebp], ecx
  00016	89 75 e8	 mov	 DWORD PTR _bChaoseGem$[ebp], esi
  00019	89 75 f8	 mov	 DWORD PTR _bEyeOfDevil$[ebp], esi
  0001c	89 75 f4	 mov	 DWORD PTR _bKeyOfDevil$[ebp], esi
  0001f	89 33		 mov	 DWORD PTR [ebx], esi
  00021	89 75 f0	 mov	 DWORD PTR _FoundOtherItem$[ebp], esi
  00024	83 cf ff	 or	 edi, -1
  00027	89 75 fc	 mov	 DWORD PTR _bLevelCheck$[ebp], esi
  0002a	89 75 0c	 mov	 DWORD PTR _iCharmOfLuckCount$[ebp], esi
  0002d	89 75 ec	 mov	 DWORD PTR _bCharmOfLuckOver$[ebp], esi
  00030	ff 15 00 00 00
	00		 call	 DWORD PTR ?LogAdd@@3P6AXPADZZA ; LogAdd
  00036	83 c4 04	 add	 esp, 4
  00039	8d a4 24 00 00
	00 00		 npad	 7
$LL24@CheckDevil:

; 561  : 	{
; 562  : 		if ( lpObj->pChaosBox[n].IsItem() == TRUE )

  00040	8b 45 08	 mov	 eax, DWORD PTR _lpObj$[ebp]
  00043	8b 88 10 12 00
	00		 mov	 ecx, DWORD PTR [eax+4624]
  00049	03 ce		 add	 ecx, esi
  0004b	e8 00 00 00 00	 call	 ?IsItem@CItem@@QAEHXZ	; CItem::IsItem
  00050	83 f8 01	 cmp	 eax, 1
  00053	0f 85 9c 00 00
	00		 jne	 $LN23@CheckDevil

; 563  : 		{
; 564  : 			if ( lpObj->pChaosBox[n].m_Type == ITEMGET(12,15) )	// Chaos

  00059	8b 4d 08	 mov	 ecx, DWORD PTR _lpObj$[ebp]
  0005c	8b 81 10 12 00
	00		 mov	 eax, DWORD PTR [ecx+4624]
  00062	03 c6		 add	 eax, esi
  00064	89 45 e0	 mov	 DWORD PTR tv309[ebp], eax
  00067	0f b7 40 06	 movzx	 eax, WORD PTR [eax+6]
  0006b	ba 0f 18 00 00	 mov	 edx, 6159		; 0000180fH
  00070	66 3b c2	 cmp	 ax, dx
  00073	75 09		 jne	 SHORT $LN20@CheckDevil

; 565  : 			{
; 566  : 				bChaoseGem = TRUE;

  00075	c7 45 e8 01 00
	00 00		 mov	 DWORD PTR _bChaoseGem$[ebp], 1
  0007c	eb 77		 jmp	 SHORT $LN23@CheckDevil
$LN20@CheckDevil:

; 567  : 			}
; 568  : 			else if ( lpObj->pChaosBox[n].m_Type == ITEMGET(14,17) )	// Eye

  0007e	ba 11 1c 00 00	 mov	 edx, 7185		; 00001c11H
  00083	66 3b c2	 cmp	 ax, dx
  00086	75 22		 jne	 SHORT $LN18@CheckDevil

; 569  : 			{
; 570  : 				eventitemcount +=1;

  00088	ba 01 00 00 00	 mov	 edx, 1

; 571  : 				bEyeOfDevil = TRUE;

  0008d	89 55 f8	 mov	 DWORD PTR _bEyeOfDevil$[ebp], edx
$LN33@CheckDevil:

; 572  : 
; 573  : 				if ( level != lpObj->pChaosBox[n].m_Level )

  00090	01 13		 add	 DWORD PTR [ebx], edx
  00092	8b 81 10 12 00
	00		 mov	 eax, DWORD PTR [ecx+4624]
  00098	0f bf 44 30 08	 movsx	 eax, WORD PTR [eax+esi+8]
  0009d	3b f8		 cmp	 edi, eax
  0009f	74 54		 je	 SHORT $LN23@CheckDevil

; 574  : 				{
; 575  : 					if ( level == -1 )

  000a1	83 ff ff	 cmp	 edi, -1
  000a4	75 18		 jne	 SHORT $LN11@CheckDevil

; 576  : 					{
; 577  : 						level = lpObj->pChaosBox[n].m_Level;

  000a6	8b f8		 mov	 edi, eax

; 578  : 					}
; 579  : 					else

  000a8	eb 4b		 jmp	 SHORT $LN23@CheckDevil
$LN18@CheckDevil:

; 580  : 					{
; 581  : 						bLevelCheck = TRUE;
; 582  : 					}
; 583  : 				}
; 584  : 			}
; 585  : 			else if ( lpObj->pChaosBox[n].m_Type == ITEMGET(14,18) )	// Key

  000aa	ba 12 1c 00 00	 mov	 edx, 7186		; 00001c12H
  000af	66 3b c2	 cmp	 ax, dx
  000b2	75 0f		 jne	 SHORT $LN13@CheckDevil

; 586  : 			{
; 587  : 				eventitemcount +=1;

  000b4	ba 01 00 00 00	 mov	 edx, 1

; 588  : 				bKeyOfDevil = TRUE;

  000b9	89 55 f4	 mov	 DWORD PTR _bKeyOfDevil$[ebp], edx

; 589  : 
; 590  : 				if ( level != lpObj->pChaosBox[n].m_Level )
; 591  : 				{
; 592  : 					if ( level == -1 )
; 593  : 					{
; 594  : 						level = lpObj->pChaosBox[n].m_Level;
; 595  : 					}
; 596  : 					else

  000bc	eb d2		 jmp	 SHORT $LN33@CheckDevil
$LN11@CheckDevil:

; 597  : 					{
; 598  : 						bLevelCheck = TRUE;

  000be	89 55 fc	 mov	 DWORD PTR _bLevelCheck$[ebp], edx

; 599  : 					}
; 600  : 				}
; 601  : 			}

  000c1	eb 32		 jmp	 SHORT $LN23@CheckDevil
$LN13@CheckDevil:

; 602  : 			else if ( lpObj->pChaosBox[n].m_Type == ITEMGET(14,53) )	// Charm Of Luck

  000c3	b9 35 1c 00 00	 mov	 ecx, 7221		; 00001c35H
  000c8	66 3b c1	 cmp	 ax, cx
  000cb	75 21		 jne	 SHORT $LN8@CheckDevil

; 603  : 			{
; 604  : 				iCharmOfLuckCount += (int)lpObj->pChaosBox[n].m_Durability;

  000cd	8b 55 e0	 mov	 edx, DWORD PTR tv309[ebp]
  000d0	d9 42 24	 fld	 DWORD PTR [edx+36]
  000d3	e8 00 00 00 00	 call	 __ftol2_sse
  000d8	8b 4d 0c	 mov	 ecx, DWORD PTR _iCharmOfLuckCount$[ebp]
  000db	03 c8		 add	 ecx, eax
  000dd	89 4d 0c	 mov	 DWORD PTR _iCharmOfLuckCount$[ebp], ecx

; 605  : 
; 606  : 				if ( iCharmOfLuckCount > 10 )

  000e0	83 f9 0a	 cmp	 ecx, 10			; 0000000aH
  000e3	7e 10		 jle	 SHORT $LN23@CheckDevil

; 607  : 				{
; 608  : 					bCharmOfLuckOver = TRUE;

  000e5	c7 45 ec 01 00
	00 00		 mov	 DWORD PTR _bCharmOfLuckOver$[ebp], 1

; 609  : 				}
; 610  : 			}
; 611  : 			else

  000ec	eb 07		 jmp	 SHORT $LN23@CheckDevil
$LN8@CheckDevil:

; 612  : 			{
; 613  : 				FoundOtherItem = TRUE;

  000ee	c7 45 f0 01 00
	00 00		 mov	 DWORD PTR _FoundOtherItem$[ebp], 1
$LN23@CheckDevil:

; 559  : 
; 560  : 	for ( int n=0;n<CHAOS_BOX_SIZE;n++)

  000f5	81 c6 d4 00 00
	00		 add	 esi, 212		; 000000d4H
  000fb	81 fe 80 1a 00
	00		 cmp	 esi, 6784		; 00001a80H
  00101	0f 8c 39 ff ff
	ff		 jl	 $LL24@CheckDevil

; 614  : 			}
; 615  : 		}
; 616  : 	}
; 617  : 
; 618  : 	itemlevel = level;
; 619  : 	lpObj->ChaosSuccessRate = iCharmOfLuckCount;
; 620  : 
; 621  : 	if ( FoundOtherItem != FALSE )

  00107	83 7d f0 00	 cmp	 DWORD PTR _FoundOtherItem$[ebp], 0
  0010b	8b 45 10	 mov	 eax, DWORD PTR _itemlevel$[ebp]
  0010e	8b 4d 0c	 mov	 ecx, DWORD PTR _iCharmOfLuckCount$[ebp]
  00111	89 38		 mov	 DWORD PTR [eax], edi
  00113	8b 45 08	 mov	 eax, DWORD PTR _lpObj$[ebp]
  00116	5f		 pop	 edi
  00117	5e		 pop	 esi
  00118	89 88 1c 12 00
	00		 mov	 DWORD PTR [eax+4636], ecx
  0011e	5b		 pop	 ebx
  0011f	74 16		 je	 SHORT $LN5@CheckDevil

; 622  : 	{
; 623  : 		LogAdd("[DevilSquare] Other DQItems Found");

  00121	68 00 00 00 00	 push	 OFFSET ??_C@_0CC@LINAPAPC@?$FLDevilSquare?$FN?5Other?5DQItems?5Foun@

; 649  : 	}
; 650  : 
; 651  : 	LogAdd("[DevilSquare] DQItems Not Found");

  00126	ff 15 00 00 00
	00		 call	 DWORD PTR ?LogAdd@@3P6AXPADZZA ; LogAdd
  0012c	83 c4 04	 add	 esp, 4

; 652  : 
; 653  : 	return 0;

  0012f	33 c0		 xor	 eax, eax

; 654  : }

  00131	8b e5		 mov	 esp, ebp
  00133	5d		 pop	 ebp
  00134	c2 0c 00	 ret	 12			; 0000000cH
$LN5@CheckDevil:

; 624  : 		return 0;
; 625  : 	}
; 626  : 
; 627  : 	if ( bLevelCheck != FALSE )

  00137	83 7d fc 00	 cmp	 DWORD PTR _bLevelCheck$[ebp], 0
  0013b	74 19		 je	 SHORT $LN4@CheckDevil

; 628  : 	{
; 629  : 		LogAdd("[DevilSquare] DiffLevel DQItems Found");

  0013d	68 00 00 00 00	 push	 OFFSET ??_C@_0CG@FFFDDFEO@?$FLDevilSquare?$FN?5DiffLevel?5DQItems?5@
  00142	ff 15 00 00 00
	00		 call	 DWORD PTR ?LogAdd@@3P6AXPADZZA ; LogAdd
  00148	83 c4 04	 add	 esp, 4

; 630  : 		return 3;

  0014b	b8 03 00 00 00	 mov	 eax, 3

; 654  : }

  00150	8b e5		 mov	 esp, ebp
  00152	5d		 pop	 ebp
  00153	c2 0c 00	 ret	 12			; 0000000cH
$LN4@CheckDevil:

; 631  : 	}
; 632  : 
; 633  : 	if ( bCharmOfLuckOver == TRUE )

  00156	83 7d ec 01	 cmp	 DWORD PTR _bCharmOfLuckOver$[ebp], 1
  0015a	75 19		 jne	 SHORT $LN3@CheckDevil

; 634  : 	{
; 635  : 		LogAdd("[DevilSquare] Charm Of Luck Count Over");

  0015c	68 00 00 00 00	 push	 OFFSET ??_C@_0CH@EJJKJEAB@?$FLDevilSquare?$FN?5Charm?5Of?5Luck?5Coun@
  00161	ff 15 00 00 00
	00		 call	 DWORD PTR ?LogAdd@@3P6AXPADZZA ; LogAdd
  00167	83 c4 04	 add	 esp, 4

; 636  : 		return 4;

  0016a	b8 04 00 00 00	 mov	 eax, 4

; 654  : }

  0016f	8b e5		 mov	 esp, ebp
  00171	5d		 pop	 ebp
  00172	c2 0c 00	 ret	 12			; 0000000cH
$LN3@CheckDevil:

; 637  : 	}
; 638  : 
; 639  : 	if ( bChaoseGem != FALSE && bEyeOfDevil != FALSE && bKeyOfDevil != FALSE )

  00175	83 7d e8 00	 cmp	 DWORD PTR _bChaoseGem$[ebp], 0
  00179	74 20		 je	 SHORT $LN30@CheckDevil
  0017b	83 7d f8 00	 cmp	 DWORD PTR _bEyeOfDevil$[ebp], 0
  0017f	74 3a		 je	 SHORT $LN1@CheckDevil
  00181	83 7d f4 00	 cmp	 DWORD PTR _bKeyOfDevil$[ebp], 0
  00185	74 14		 je	 SHORT $LN30@CheckDevil

; 640  : 	{
; 641  : 		LogDQChaosItem(lpObj);

  00187	8b 4d e4	 mov	 ecx, DWORD PTR _this$[ebp]
  0018a	50		 push	 eax
  0018b	e8 00 00 00 00	 call	 ?LogDQChaosItem@CChaosBox@@QAEXPAUOBJECTSTRUCT@@@Z ; CChaosBox::LogDQChaosItem

; 642  : 		return 1;

  00190	b8 01 00 00 00	 mov	 eax, 1

; 654  : }

  00195	8b e5		 mov	 esp, ebp
  00197	5d		 pop	 ebp
  00198	c2 0c 00	 ret	 12			; 0000000cH
$LN30@CheckDevil:

; 643  : 	}
; 644  : 
; 645  : 	if ( bEyeOfDevil != FALSE && bKeyOfDevil != FALSE )

  0019b	83 7d f8 00	 cmp	 DWORD PTR _bEyeOfDevil$[ebp], 0
  0019f	74 1a		 je	 SHORT $LN1@CheckDevil
  001a1	83 7d f4 00	 cmp	 DWORD PTR _bKeyOfDevil$[ebp], 0
  001a5	74 14		 je	 SHORT $LN1@CheckDevil

; 646  : 	{
; 647  : 		LogDQChaosItem(lpObj);

  001a7	8b 4d e4	 mov	 ecx, DWORD PTR _this$[ebp]
  001aa	50		 push	 eax
  001ab	e8 00 00 00 00	 call	 ?LogDQChaosItem@CChaosBox@@QAEXPAUOBJECTSTRUCT@@@Z ; CChaosBox::LogDQChaosItem

; 648  : 		return 2;

  001b0	b8 02 00 00 00	 mov	 eax, 2

; 654  : }

  001b5	8b e5		 mov	 esp, ebp
  001b7	5d		 pop	 ebp
  001b8	c2 0c 00	 ret	 12			; 0000000cH
$LN1@CheckDevil:

; 649  : 	}
; 650  : 
; 651  : 	LogAdd("[DevilSquare] DQItems Not Found");

  001bb	68 00 00 00 00	 push	 OFFSET ??_C@_0CA@IANBADIL@?$FLDevilSquare?$FN?5DQItems?5Not?5Found?$AA@
  001c0	ff 15 00 00 00
	00		 call	 DWORD PTR ?LogAdd@@3P6AXPADZZA ; LogAdd
  001c6	83 c4 04	 add	 esp, 4

; 652  : 
; 653  : 	return 0;

  001c9	33 c0		 xor	 eax, eax

; 654  : }

  001cb	8b e5		 mov	 esp, ebp
  001cd	5d		 pop	 ebp
  001ce	c2 0c 00	 ret	 12			; 0000000cH
?CheckDevilSquareItem@CChaosBox@@QAEHPAUOBJECTSTRUCT@@AAH1@Z ENDP ; CChaosBox::CheckDevilSquareItem
_TEXT	ENDS
PUBLIC	??_C@_0DB@BMAIOAHL@?$FLDevilSquare?$FN?5?$FL?$CFs?$FN?$FL?$CFs?$FN?5Invalid?5D@ ; `string'
PUBLIC	??_C@_0DL@ODHCGDBD@?$FLDevilSquare?0?$CFd?$FN?5?$FL?$CFs?$FN?$FL?$CFs?$FN?5CBMix?5@ ; `string'
PUBLIC	??_C@_0DG@KKBIIBFP@?$FLDevilSquare?0?$CFd?$FN?5?$FL?$CFs?$FN?$FL?$CFs?$FN?5CBMix?5@ ; `string'
PUBLIC	??_C@_0EB@HHHNMGIM@?$FLDevilSquare?$FN?5?$FL?$CFs?$FN?$FL?$CFs?$FN?5CBMix?5Not@ ; `string'
PUBLIC	??_C@_0BO@MDACFBLC@?$FLDevilSquare?$FN?5Chaos?5Mix?5Start?$AA@ ; `string'
PUBLIC	__$ArrayPad$
PUBLIC	?DevilSquareEventChaosMix@CChaosBox@@QAEHPAUOBJECTSTRUCT@@HH@Z ; CChaosBox::DevilSquareEventChaosMix
EXTRN	?GetPlusChaosRate@CCrywolfSync@@QAEHXZ:PROC	; CCrywolfSync::GetPlusChaosRate
EXTRN	?g_iCrywolfApplyMvpBenefit@@3HA:DWORD		; g_iCrywolfApplyMvpBenefit
EXTRN	?GetOccupationState@CCrywolfSync@@QAEHXZ:PROC	; CCrywolfSync::GetOccupationState
EXTRN	?g_CrywolfSync@@3VCCrywolfSync@@A:BYTE		; g_CrywolfSync
EXTRN	?gDQChaosSuccessRateLevel7@@3HA:DWORD		; gDQChaosSuccessRateLevel7
EXTRN	?gDQChaosSuccessRateLevel6@@3HA:DWORD		; gDQChaosSuccessRateLevel6
EXTRN	?gDQChaosSuccessRateLevel5@@3HA:DWORD		; gDQChaosSuccessRateLevel5
EXTRN	?gDQChaosSuccessRateLevel4@@3HA:DWORD		; gDQChaosSuccessRateLevel4
EXTRN	?gDQChaosSuccessRateLevel3@@3HA:DWORD		; gDQChaosSuccessRateLevel3
EXTRN	?gDQChaosSuccessRateLevel2@@3HA:DWORD		; gDQChaosSuccessRateLevel2
EXTRN	?gDQChaosSuccessRateLevel1@@3HA:DWORD		; gDQChaosSuccessRateLevel1
;	COMDAT ??_C@_0DB@BMAIOAHL@?$FLDevilSquare?$FN?5?$FL?$CFs?$FN?$FL?$CFs?$FN?5Invalid?5D@
CONST	SEGMENT
??_C@_0DB@BMAIOAHL@?$FLDevilSquare?$FN?5?$FL?$CFs?$FN?$FL?$CFs?$FN?5Invalid?5D@ DB '['
	DB	'DevilSquare] [%s][%s] Invalid DQItem Level [%d]', 00H ; `string'
CONST	ENDS
;	COMDAT ??_C@_0DL@ODHCGDBD@?$FLDevilSquare?0?$CFd?$FN?5?$FL?$CFs?$FN?$FL?$CFs?$FN?5CBMix?5@
CONST	SEGMENT
??_C@_0DL@ODHCGDBD@?$FLDevilSquare?0?$CFd?$FN?5?$FL?$CFs?$FN?$FL?$CFs?$FN?5CBMix?5@ DB '['
	DB	'DevilSquare,%d] [%s][%s] CBMix Success Rate:%d Money : %d', 00H ; `string'
CONST	ENDS
;	COMDAT ??_C@_0DG@KKBIIBFP@?$FLDevilSquare?0?$CFd?$FN?5?$FL?$CFs?$FN?$FL?$CFs?$FN?5CBMix?5@
CONST	SEGMENT
??_C@_0DG@KKBIIBFP@?$FLDevilSquare?0?$CFd?$FN?5?$FL?$CFs?$FN?$FL?$CFs?$FN?5CBMix?5@ DB '['
	DB	'DevilSquare,%d] [%s][%s] CBMix Fail %d Money : %d-%d', 00H ; `string'
CONST	ENDS
;	COMDAT ??_C@_0EB@HHHNMGIM@?$FLDevilSquare?$FN?5?$FL?$CFs?$FN?$FL?$CFs?$FN?5CBMix?5Not@
CONST	SEGMENT
??_C@_0EB@HHHNMGIM@?$FLDevilSquare?$FN?5?$FL?$CFs?$FN?$FL?$CFs?$FN?5CBMix?5Not@ DB '['
	DB	'DevilSquare] [%s][%s] CBMix Not Enough Money [%d] need zen [%'
	DB	'd]', 00H					; `string'
CONST	ENDS
;	COMDAT ??_C@_0BO@MDACFBLC@?$FLDevilSquare?$FN?5Chaos?5Mix?5Start?$AA@
CONST	SEGMENT
??_C@_0BO@MDACFBLC@?$FLDevilSquare?$FN?5Chaos?5Mix?5Start?$AA@ DB '[Devil'
	DB	'Square] Chaos Mix Start', 00H		; `string'
; Function compile flags: /Ogtp
CONST	ENDS
;	COMDAT ?DevilSquareEventChaosMix@CChaosBox@@QAEHPAUOBJECTSTRUCT@@HH@Z
_TEXT	SEGMENT
_this$ = -36						; size = 4
_iCharmOfLuckCount$ = -32				; size = 4
_fail$ = -28						; size = 4
_aIndex$ = -24						; size = 4
_pMsg$ = -20						; size = 16
__$ArrayPad$ = -4					; size = 4
_lpObj$ = 8						; size = 4
_bCheckType$ = 12					; size = 4
_iItemLevel$ = 16					; size = 4
?DevilSquareEventChaosMix@CChaosBox@@QAEHPAUOBJECTSTRUCT@@HH@Z PROC ; CChaosBox::DevilSquareEventChaosMix, COMDAT
; _this$ = ecx

; 657  : {

  00000	55		 push	 ebp
  00001	8b ec		 mov	 ebp, esp
  00003	83 ec 24	 sub	 esp, 36			; 00000024H
  00006	a1 00 00 00 00	 mov	 eax, DWORD PTR ___security_cookie
  0000b	33 c5		 xor	 eax, ebp
  0000d	89 45 fc	 mov	 DWORD PTR __$ArrayPad$[ebp], eax
  00010	53		 push	 ebx
  00011	56		 push	 esi
  00012	8b 75 08	 mov	 esi, DWORD PTR _lpObj$[ebp]
  00015	57		 push	 edi

; 658  : 	BOOL fail = TRUE;
; 659  : 	int aIndex = lpObj->m_Index;

  00016	8b 3e		 mov	 edi, DWORD PTR [esi]

; 660  : 	PMSG_CHAOSMIXRESULT pMsg;
; 661  : 
; 662  : 	PHeadSetB((LPBYTE)&pMsg.h, 0x86, sizeof(PMSG_CHAOSMIXRESULT));

  00018	6a 10		 push	 16			; 00000010H
  0001a	8d 45 ec	 lea	 eax, DWORD PTR _pMsg$[ebp]
  0001d	68 86 00 00 00	 push	 134			; 00000086H
  00022	bb 01 00 00 00	 mov	 ebx, 1
  00027	50		 push	 eax
  00028	89 4d dc	 mov	 DWORD PTR _this$[ebp], ecx
  0002b	89 5d e4	 mov	 DWORD PTR _fail$[ebp], ebx
  0002e	89 7d e8	 mov	 DWORD PTR _aIndex$[ebp], edi
  00031	e8 00 00 00 00	 call	 ?PHeadSetB@@YAXPAEEH@Z	; PHeadSetB

; 663  : 	pMsg.Result = CB_ERROR;
; 664  : 	lpObj->ChaosLock = TRUE;
; 665  : 
; 666  : 	LogAddTD("[DevilSquare] Chaos Mix Start");

  00036	68 00 00 00 00	 push	 OFFSET ??_C@_0BO@MDACFBLC@?$FLDevilSquare?$FN?5Chaos?5Mix?5Start?$AA@
  0003b	c6 45 ef 00	 mov	 BYTE PTR _pMsg$[ebp+3], 0
  0003f	89 9e 20 12 00
	00		 mov	 DWORD PTR [esi+4640], ebx
  00045	ff 15 00 00 00
	00		 call	 DWORD PTR ?LogAddTD@@3P6AXPADZZA ; LogAddTD

; 667  : 	INT nChaosNeedMoney = 0;
; 668  : 	int iCharmOfLuckCount = 0;
; 669  : 	iCharmOfLuckCount = lpObj->ChaosSuccessRate;

  0004b	8b 86 1c 12 00
	00		 mov	 eax, DWORD PTR [esi+4636]
  00051	83 c4 10	 add	 esp, 16			; 00000010H
  00054	89 45 e0	 mov	 DWORD PTR _iCharmOfLuckCount$[ebp], eax

; 670  : 
; 671  : 	if ( iCharmOfLuckCount > 10 )

  00057	83 f8 0a	 cmp	 eax, 10			; 0000000aH
  0005a	7e 20		 jle	 SHORT $LN23@DevilSquar

; 672  : 	{
; 673  : 		pMsg.Result = 0xF0;
; 674  : 		lpObj->ChaosLock = FALSE;
; 675  : 		DataSend(aIndex, (LPBYTE)&pMsg, pMsg.h.size);

  0005c	0f b6 4d ed	 movzx	 ecx, BYTE PTR _pMsg$[ebp+1]
  00060	51		 push	 ecx
  00061	8d 55 ec	 lea	 edx, DWORD PTR _pMsg$[ebp]
  00064	52		 push	 edx
  00065	57		 push	 edi
  00066	c6 45 ef f0	 mov	 BYTE PTR _pMsg$[ebp+3], 240 ; 000000f0H
  0006a	c7 86 20 12 00
	00 00 00 00 00	 mov	 DWORD PTR [esi+4640], 0
  00074	e8 00 00 00 00	 call	 ?DataSend@@YAHHPAEK@Z	; DataSend
  00079	83 c4 0c	 add	 esp, 12			; 0000000cH
$LN23@DevilSquar:

; 676  : 	}
; 677  : 
; 678  : 	switch ( iItemLevel )

  0007c	8b 45 10	 mov	 eax, DWORD PTR _iItemLevel$[ebp]
  0007f	83 f8 07	 cmp	 eax, 7
  00082	0f 87 3e 02 00
	00		 ja	 $LN9@DevilSquar
  00088	ff 24 85 00 00
	00 00		 jmp	 DWORD PTR $LN26@DevilSquar[eax*4]
$LN17@DevilSquar:

; 679  : 	{
; 680  : 		case 0:
; 681  : 			lpObj->ChaosSuccessRate = 60;

  0008f	c7 86 1c 12 00
	00 3c 00 00 00	 mov	 DWORD PTR [esi+4636], 60 ; 0000003cH

; 682  : 			nChaosNeedMoney = 100000;

  00099	bf a0 86 01 00	 mov	 edi, 100000		; 000186a0H

; 683  : 			break;

  0009e	eb 74		 jmp	 SHORT $LN18@DevilSquar
$LN16@DevilSquar:

; 684  : 		case 1:
; 685  : 			lpObj->ChaosSuccessRate = gDQChaosSuccessRateLevel1;

  000a0	a1 00 00 00 00	 mov	 eax, DWORD PTR ?gDQChaosSuccessRateLevel1@@3HA ; gDQChaosSuccessRateLevel1

; 686  : 			nChaosNeedMoney = 100000;

  000a5	bf a0 86 01 00	 mov	 edi, 100000		; 000186a0H

; 687  : 			break;

  000aa	eb 62		 jmp	 SHORT $LN24@DevilSquar
$LN15@DevilSquar:

; 688  : 
; 689  : 		case 2:
; 690  : 			lpObj->ChaosSuccessRate = gDQChaosSuccessRateLevel2;

  000ac	8b 0d 00 00 00
	00		 mov	 ecx, DWORD PTR ?gDQChaosSuccessRateLevel2@@3HA ; gDQChaosSuccessRateLevel2
  000b2	89 8e 1c 12 00
	00		 mov	 DWORD PTR [esi+4636], ecx

; 691  : 			nChaosNeedMoney = 200000;

  000b8	bf 40 0d 03 00	 mov	 edi, 200000		; 00030d40H

; 692  : 			break;

  000bd	eb 55		 jmp	 SHORT $LN18@DevilSquar
$LN14@DevilSquar:

; 693  : 
; 694  : 		case 3:
; 695  : 			lpObj->ChaosSuccessRate = gDQChaosSuccessRateLevel3;

  000bf	8b 15 00 00 00
	00		 mov	 edx, DWORD PTR ?gDQChaosSuccessRateLevel3@@3HA ; gDQChaosSuccessRateLevel3
  000c5	89 96 1c 12 00
	00		 mov	 DWORD PTR [esi+4636], edx

; 696  : 			nChaosNeedMoney = 400000;

  000cb	bf 80 1a 06 00	 mov	 edi, 400000		; 00061a80H

; 697  : 			break;

  000d0	eb 42		 jmp	 SHORT $LN18@DevilSquar
$LN13@DevilSquar:

; 698  : 
; 699  : 		case 4:
; 700  : 			lpObj->ChaosSuccessRate = gDQChaosSuccessRateLevel4;

  000d2	a1 00 00 00 00	 mov	 eax, DWORD PTR ?gDQChaosSuccessRateLevel4@@3HA ; gDQChaosSuccessRateLevel4

; 701  : 			nChaosNeedMoney = 700000;

  000d7	bf 60 ae 0a 00	 mov	 edi, 700000		; 000aae60H

; 702  : 			break;

  000dc	eb 30		 jmp	 SHORT $LN24@DevilSquar
$LN12@DevilSquar:

; 703  : 
; 704  : 		case 5:
; 705  : 			lpObj->ChaosSuccessRate = gDQChaosSuccessRateLevel5;

  000de	8b 0d 00 00 00
	00		 mov	 ecx, DWORD PTR ?gDQChaosSuccessRateLevel5@@3HA ; gDQChaosSuccessRateLevel5
  000e4	89 8e 1c 12 00
	00		 mov	 DWORD PTR [esi+4636], ecx

; 706  : 			nChaosNeedMoney = 1100000;

  000ea	bf e0 c8 10 00	 mov	 edi, 1100000		; 0010c8e0H

; 707  : 			break;

  000ef	eb 23		 jmp	 SHORT $LN18@DevilSquar
$LN11@DevilSquar:

; 708  : 
; 709  : 		case 6:
; 710  : 			lpObj->ChaosSuccessRate = gDQChaosSuccessRateLevel6;

  000f1	8b 15 00 00 00
	00		 mov	 edx, DWORD PTR ?gDQChaosSuccessRateLevel6@@3HA ; gDQChaosSuccessRateLevel6
  000f7	89 96 1c 12 00
	00		 mov	 DWORD PTR [esi+4636], edx

; 711  : 			nChaosNeedMoney = 1600000;

  000fd	bf 00 6a 18 00	 mov	 edi, 1600000		; 00186a00H

; 712  : 			break;

  00102	eb 10		 jmp	 SHORT $LN18@DevilSquar
$LN10@DevilSquar:

; 713  : 		case 7:
; 714  : 			lpObj->ChaosSuccessRate = gDQChaosSuccessRateLevel7;

  00104	a1 00 00 00 00	 mov	 eax, DWORD PTR ?gDQChaosSuccessRateLevel7@@3HA ; gDQChaosSuccessRateLevel7

; 715  : 			nChaosNeedMoney = 2000000;

  00109	bf 80 84 1e 00	 mov	 edi, 2000000		; 001e8480H
$LN24@DevilSquar:

; 713  : 		case 7:
; 714  : 			lpObj->ChaosSuccessRate = gDQChaosSuccessRateLevel7;

  0010e	89 86 1c 12 00
	00		 mov	 DWORD PTR [esi+4636], eax
$LN18@DevilSquar:

; 726  : 			break;
; 727  : 	}
; 728  : 
; 729  : 	int iChaosTaxMoney = (int)((__int64)nChaosNeedMoney * (__int64)g_CastleSiegeSync.GetTaxRateChaos(lpObj->m_Index) / (__int64)100);

  00114	8b 0e		 mov	 ecx, DWORD PTR [esi]
  00116	51		 push	 ecx
  00117	b9 00 00 00 00	 mov	 ecx, OFFSET ?g_CastleSiegeSync@@3VCCastleSiegeSync@@A ; g_CastleSiegeSync
  0011c	e8 00 00 00 00	 call	 ?GetTaxRateChaos@CCastleSiegeSync@@QAEHH@Z ; CCastleSiegeSync::GetTaxRateChaos
  00121	f7 ef		 imul	 edi
  00123	6a 00		 push	 0
  00125	6a 64		 push	 100			; 00000064H
  00127	52		 push	 edx
  00128	50		 push	 eax
  00129	e8 00 00 00 00	 call	 __alldiv
  0012e	8b d8		 mov	 ebx, eax

; 730  : 
; 731  : 	if ( iChaosTaxMoney < 0 )

  00130	85 db		 test	 ebx, ebx
  00132	79 02		 jns	 SHORT $LN8@DevilSquar

; 732  : 	{
; 733  : 		iChaosTaxMoney = 0;

  00134	33 db		 xor	 ebx, ebx
$LN8@DevilSquar:

; 734  : 	}
; 735  : 
; 736  : 	nChaosNeedMoney += iChaosTaxMoney;

  00136	03 fb		 add	 edi, ebx

; 737  : 
; 738  : 	if ( nChaosNeedMoney < 0 )

  00138	79 02		 jns	 SHORT $LN7@DevilSquar

; 739  : 	{
; 740  : 		nChaosNeedMoney = 0;

  0013a	33 ff		 xor	 edi, edi
$LN7@DevilSquar:

; 741  : 	}
; 742  : 
; 743  : 	if ( (lpObj->Money - nChaosNeedMoney) < 0 )

  0013c	8b 86 cc 00 00
	00		 mov	 eax, DWORD PTR [esi+204]
  00142	8b d0		 mov	 edx, eax
  00144	2b d7		 sub	 edx, edi
  00146	79 38		 jns	 SHORT $LN6@DevilSquar

; 744  : 	{
; 745  : 		LogAddTD("[DevilSquare] [%s][%s] CBMix Not Enough Money [%d] need zen [%d]",
; 746  : 			lpObj->AccountID, lpObj->Name, lpObj->Money, nChaosNeedMoney);

  00148	57		 push	 edi
  00149	50		 push	 eax
  0014a	8d 46 5d	 lea	 eax, DWORD PTR [esi+93]
  0014d	50		 push	 eax
  0014e	8d 4e 52	 lea	 ecx, DWORD PTR [esi+82]
  00151	51		 push	 ecx
  00152	68 00 00 00 00	 push	 OFFSET ??_C@_0EB@HHHNMGIM@?$FLDevilSquare?$FN?5?$FL?$CFs?$FN?$FL?$CFs?$FN?5CBMix?5Not@
  00157	ff 15 00 00 00
	00		 call	 DWORD PTR ?LogAddTD@@3P6AXPADZZA ; LogAddTD

; 747  : 		pMsg.Result = CB_NOT_ENOUGH_ZEN;
; 748  : 		DataSend(aIndex, (BYTE *)&pMsg, pMsg.h.size);

  0015d	0f b6 55 ed	 movzx	 edx, BYTE PTR _pMsg$[ebp+1]
  00161	8b 4d e8	 mov	 ecx, DWORD PTR _aIndex$[ebp]
  00164	52		 push	 edx
  00165	8d 45 ec	 lea	 eax, DWORD PTR _pMsg$[ebp]
  00168	50		 push	 eax
  00169	51		 push	 ecx
  0016a	c6 45 ef 02	 mov	 BYTE PTR _pMsg$[ebp+3], 2
  0016e	e8 00 00 00 00	 call	 ?DataSend@@YAHHPAEK@Z	; DataSend
  00173	83 c4 20	 add	 esp, 32			; 00000020H

; 749  : 		lpObj->ChaosLock = FALSE;
; 750  : 		return 1;

  00176	b8 01 00 00 00	 mov	 eax, 1
  0017b	e9 72 01 00 00	 jmp	 $LN25@DevilSquar
$LN6@DevilSquar:

; 751  : 
; 752  : 	}
; 753  : 
; 754  : 	if ( g_CrywolfSync.GetOccupationState() == 0 && g_iCrywolfApplyMvpBenefit )

  00180	b9 00 00 00 00	 mov	 ecx, OFFSET ?g_CrywolfSync@@3VCCrywolfSync@@A ; g_CrywolfSync
  00185	e8 00 00 00 00	 call	 ?GetOccupationState@CCrywolfSync@@QAEHXZ ; CCrywolfSync::GetOccupationState
  0018a	85 c0		 test	 eax, eax
  0018c	75 18		 jne	 SHORT $LN5@DevilSquar
  0018e	39 05 00 00 00
	00		 cmp	 DWORD PTR ?g_iCrywolfApplyMvpBenefit@@3HA, eax ; g_iCrywolfApplyMvpBenefit
  00194	74 10		 je	 SHORT $LN5@DevilSquar

; 755  : 	{	
; 756  : 		lpObj->ChaosSuccessRate += g_CrywolfSync.GetPlusChaosRate();

  00196	b9 00 00 00 00	 mov	 ecx, OFFSET ?g_CrywolfSync@@3VCCrywolfSync@@A ; g_CrywolfSync
  0019b	e8 00 00 00 00	 call	 ?GetPlusChaosRate@CCrywolfSync@@QAEHXZ ; CCrywolfSync::GetPlusChaosRate
  001a0	01 86 1c 12 00
	00		 add	 DWORD PTR [esi+4636], eax
$LN5@DevilSquar:

; 757  : 	}
; 758  : 
; 759  : 	lpObj->ChaosSuccessRate += iCharmOfLuckCount;

  001a6	8b 55 e0	 mov	 edx, DWORD PTR _iCharmOfLuckCount$[ebp]
  001a9	01 96 1c 12 00
	00		 add	 DWORD PTR [esi+4636], edx

; 760  : 
; 761  : 	int iRate = rand() % 100;

  001af	e8 00 00 00 00	 call	 _rand
  001b4	99		 cdq
  001b5	b9 64 00 00 00	 mov	 ecx, 100		; 00000064H
  001ba	f7 f9		 idiv	 ecx

; 762  : 
; 763  : 	if ( bCheckType == TRUE )

  001bc	83 7d 0c 01	 cmp	 DWORD PTR _bCheckType$[ebp], 1
  001c0	75 3e		 jne	 SHORT $LN3@DevilSquar

; 764  : 	{
; 765  : 		if ( iRate < lpObj->ChaosSuccessRate )

  001c2	3b 96 1c 12 00
	00		 cmp	 edx, DWORD PTR [esi+4636]
  001c8	7d 36		 jge	 SHORT $LN3@DevilSquar

; 766  : 		{
; 767  : 			int DevilInv = ITEMGET(14,19);	// Devil Ticket
; 768  : 			ItemSerialCreateSend(lpObj->m_Index, -1, 0, 0, DevilInv, iItemLevel, 0, 0, 0, 0, -1, 0, 0);

  001ca	8b 55 10	 mov	 edx, DWORD PTR _iItemLevel$[ebp]
  001cd	6a 00		 push	 0
  001cf	6a 00		 push	 0
  001d1	6a 00		 push	 0
  001d3	8b 06		 mov	 eax, DWORD PTR [esi]
  001d5	6a 00		 push	 0
  001d7	6a ff		 push	 -1
  001d9	6a 00		 push	 0
  001db	6a 00		 push	 0
  001dd	6a 00		 push	 0
  001df	6a 00		 push	 0
  001e1	52		 push	 edx
  001e2	68 13 1c 00 00	 push	 7187			; 00001c13H
  001e7	6a 00		 push	 0
  001e9	6a 00		 push	 0
  001eb	68 ff 00 00 00	 push	 255			; 000000ffH
  001f0	50		 push	 eax
  001f1	e8 00 00 00 00	 call	 ?ItemSerialCreateSend@@YAXHEEEHEEEEEHEEEPAE@Z ; ItemSerialCreateSend
  001f6	83 c4 3c	 add	 esp, 60			; 0000003cH

; 769  : 			fail = FALSE;

  001f9	c7 45 e4 00 00
	00 00		 mov	 DWORD PTR _fail$[ebp], 0
$LN3@DevilSquar:

; 770  : 		}
; 771  : 	}
; 772  : 
; 773  : 	lpObj->Money -= nChaosNeedMoney;

  00200	29 be cc 00 00
	00		 sub	 DWORD PTR [esi+204], edi

; 774  : 	g_CastleSiegeSync.AddTributeMoney(iChaosTaxMoney);

  00206	53		 push	 ebx
  00207	b9 00 00 00 00	 mov	 ecx, OFFSET ?g_CastleSiegeSync@@3VCCastleSiegeSync@@A ; g_CastleSiegeSync
  0020c	e8 00 00 00 00	 call	 ?AddTributeMoney@CCastleSiegeSync@@QAEXH@Z ; CCastleSiegeSync::AddTributeMoney

; 775  : 	GCMoneySend(lpObj->m_Index, lpObj->Money);

  00211	8b 8e cc 00 00
	00		 mov	 ecx, DWORD PTR [esi+204]
  00217	8b 16		 mov	 edx, DWORD PTR [esi]
  00219	51		 push	 ecx
  0021a	52		 push	 edx
  0021b	e8 00 00 00 00	 call	 ?GCMoneySend@@YAXHK@Z	; GCMoneySend
  00220	83 c4 08	 add	 esp, 8

; 776  : 
; 777  : 	if ( fail == TRUE )

  00223	83 7d e4 01	 cmp	 DWORD PTR _fail$[ebp], 1
  00227	75 58		 jne	 SHORT $LN2@DevilSquar

; 778  : 	{
; 779  : 		ChaosBoxInit(lpObj);

  00229	8b 4d dc	 mov	 ecx, DWORD PTR _this$[ebp]
  0022c	56		 push	 esi
  0022d	e8 00 00 00 00	 call	 ?ChaosBoxInit@CChaosBox@@QAEHPAUOBJECTSTRUCT@@@Z ; CChaosBox::ChaosBoxInit

; 780  : 		GCUserChaosBoxSend(lpObj, 0);

  00232	6a 00		 push	 0
  00234	56		 push	 esi
  00235	e8 00 00 00 00	 call	 ?GCUserChaosBoxSend@@YAXPAUOBJECTSTRUCT@@H@Z ; GCUserChaosBoxSend

; 781  : 		DataSend(aIndex, (BYTE *)&pMsg, pMsg.h.size);

  0023a	0f b6 45 ed	 movzx	 eax, BYTE PTR _pMsg$[ebp+1]
  0023e	8b 55 e8	 mov	 edx, DWORD PTR _aIndex$[ebp]
  00241	50		 push	 eax
  00242	8d 4d ec	 lea	 ecx, DWORD PTR _pMsg$[ebp]
  00245	51		 push	 ecx
  00246	52		 push	 edx
  00247	e8 00 00 00 00	 call	 ?DataSend@@YAHHPAEK@Z	; DataSend

; 782  : 
; 783  : 		LogAddTD("[DevilSquare,%d] [%s][%s] CBMix Fail %d Money : %d-%d", iItemLevel,
; 784  : 			lpObj->AccountID, lpObj->Name, lpObj->ChaosSuccessRate,
; 785  : 			lpObj->Money, nChaosNeedMoney);

  0024c	8b 86 cc 00 00
	00		 mov	 eax, DWORD PTR [esi+204]
  00252	8b 8e 1c 12 00
	00		 mov	 ecx, DWORD PTR [esi+4636]
  00258	57		 push	 edi
  00259	50		 push	 eax
  0025a	51		 push	 ecx
  0025b	8b 4d 10	 mov	 ecx, DWORD PTR _iItemLevel$[ebp]
  0025e	8d 56 5d	 lea	 edx, DWORD PTR [esi+93]
  00261	52		 push	 edx
  00262	8d 46 52	 lea	 eax, DWORD PTR [esi+82]
  00265	50		 push	 eax
  00266	51		 push	 ecx
  00267	68 00 00 00 00	 push	 OFFSET ??_C@_0DG@KKBIIBFP@?$FLDevilSquare?0?$CFd?$FN?5?$FL?$CFs?$FN?$FL?$CFs?$FN?5CBMix?5@
  0026c	ff 15 00 00 00
	00		 call	 DWORD PTR ?LogAddTD@@3P6AXPADZZA ; LogAddTD
  00272	83 c4 30	 add	 esp, 48			; 00000030H

; 786  : 		lpObj->ChaosLock = FALSE;

  00275	c7 86 20 12 00
	00 00 00 00 00	 mov	 DWORD PTR [esi+4640], 0

; 787  : 	}
; 788  : 	else

  0027f	eb 22		 jmp	 SHORT $LN1@DevilSquar
$LN2@DevilSquar:

; 789  : 	{
; 790  : 		LogAddTD("[DevilSquare,%d] [%s][%s] CBMix Success Rate:%d Money : %d", iItemLevel,
; 791  : 			lpObj->AccountID, lpObj->Name, lpObj->ChaosSuccessRate,
; 792  : 			nChaosNeedMoney);

  00281	8b 96 1c 12 00
	00		 mov	 edx, DWORD PTR [esi+4636]
  00287	57		 push	 edi
  00288	52		 push	 edx
  00289	8b 55 10	 mov	 edx, DWORD PTR _iItemLevel$[ebp]
  0028c	8d 46 5d	 lea	 eax, DWORD PTR [esi+93]
  0028f	50		 push	 eax
  00290	8d 4e 52	 lea	 ecx, DWORD PTR [esi+82]
  00293	51		 push	 ecx
  00294	52		 push	 edx
  00295	68 00 00 00 00	 push	 OFFSET ??_C@_0DL@ODHCGDBD@?$FLDevilSquare?0?$CFd?$FN?5?$FL?$CFs?$FN?$FL?$CFs?$FN?5CBMix?5@
  0029a	ff 15 00 00 00
	00		 call	 DWORD PTR ?LogAddTD@@3P6AXPADZZA ; LogAddTD
  002a0	83 c4 18	 add	 esp, 24			; 00000018H
$LN1@DevilSquar:

; 793  : #if( __4GAMERS__ == 1 )
; 794  : 		g_Achievements.GD_UpdateMixData(lpObj, true);
; 795  : #endif
; 796  : 	}
; 797  : 
; 798  : 	::gObjInventoryCommit(lpObj->m_Index);

  002a3	8b 06		 mov	 eax, DWORD PTR [esi]
  002a5	50		 push	 eax
  002a6	e8 00 00 00 00	 call	 ?gObjInventoryCommit@@YAHH@Z ; gObjInventoryCommit
  002ab	83 c4 04	 add	 esp, 4
  002ae	5f		 pop	 edi
  002af	5e		 pop	 esi

; 799  : 
; 800  : 	return TRUE;

  002b0	b8 01 00 00 00	 mov	 eax, 1
  002b5	5b		 pop	 ebx

; 801  : }

  002b6	8b 4d fc	 mov	 ecx, DWORD PTR __$ArrayPad$[ebp]
  002b9	33 cd		 xor	 ecx, ebp
  002bb	e8 00 00 00 00	 call	 @__security_check_cookie@4
  002c0	8b e5		 mov	 esp, ebp
  002c2	5d		 pop	 ebp
  002c3	c2 0c 00	 ret	 12			; 0000000cH
$LN9@DevilSquar:

; 716  : 			break;
; 717  : 
; 718  : 		default:
; 719  : 			LogAdd("[DevilSquare] [%s][%s] Invalid DQItem Level [%d]",
; 720  : 				lpObj->AccountID, lpObj->Name, iItemLevel);

  002c6	50		 push	 eax
  002c7	8d 4e 5d	 lea	 ecx, DWORD PTR [esi+93]
  002ca	51		 push	 ecx
  002cb	8d 56 52	 lea	 edx, DWORD PTR [esi+82]
  002ce	52		 push	 edx
  002cf	68 00 00 00 00	 push	 OFFSET ??_C@_0DB@BMAIOAHL@?$FLDevilSquare?$FN?5?$FL?$CFs?$FN?$FL?$CFs?$FN?5Invalid?5D@
  002d4	ff 15 00 00 00
	00		 call	 DWORD PTR ?LogAdd@@3P6AXPADZZA ; LogAdd

; 721  : 
; 722  : 			pMsg.Result = CB_INVALID_ITEM_LEVEL;
; 723  : 			DataSend(aIndex, (BYTE *)&pMsg, pMsg.h.size);

  002da	0f b6 45 ed	 movzx	 eax, BYTE PTR _pMsg$[ebp+1]
  002de	50		 push	 eax
  002df	8d 4d ec	 lea	 ecx, DWORD PTR _pMsg$[ebp]
  002e2	51		 push	 ecx
  002e3	57		 push	 edi
  002e4	c6 45 ef 08	 mov	 BYTE PTR _pMsg$[ebp+3], 8
  002e8	e8 00 00 00 00	 call	 ?DataSend@@YAHHPAEK@Z	; DataSend
  002ed	83 c4 1c	 add	 esp, 28			; 0000001cH

; 724  : 			lpObj->ChaosLock = FALSE;
; 725  : 			return 1;

  002f0	8b c3		 mov	 eax, ebx
$LN25@DevilSquar:

; 801  : }

  002f2	8b 4d fc	 mov	 ecx, DWORD PTR __$ArrayPad$[ebp]
  002f5	5f		 pop	 edi
  002f6	c7 86 20 12 00
	00 00 00 00 00	 mov	 DWORD PTR [esi+4640], 0
  00300	5e		 pop	 esi
  00301	33 cd		 xor	 ecx, ebp
  00303	5b		 pop	 ebx
  00304	e8 00 00 00 00	 call	 @__security_check_cookie@4
  00309	8b e5		 mov	 esp, ebp
  0030b	5d		 pop	 ebp
  0030c	c2 0c 00	 ret	 12			; 0000000cH
  0030f	90		 npad	 1
$LN26@DevilSquar:
  00310	00 00 00 00	 DD	 $LN17@DevilSquar
  00314	00 00 00 00	 DD	 $LN16@DevilSquar
  00318	00 00 00 00	 DD	 $LN15@DevilSquar
  0031c	00 00 00 00	 DD	 $LN14@DevilSquar
  00320	00 00 00 00	 DD	 $LN13@DevilSquar
  00324	00 00 00 00	 DD	 $LN12@DevilSquar
  00328	00 00 00 00	 DD	 $LN11@DevilSquar
  0032c	00 00 00 00	 DD	 $LN10@DevilSquar
?DevilSquareEventChaosMix@CChaosBox@@QAEHPAUOBJECTSTRUCT@@HH@Z ENDP ; CChaosBox::DevilSquareEventChaosMix
_TEXT	ENDS
PUBLIC	??_C@_0DA@FMJGNMLI@?$FLDevilSquare?$FN?5Too?5many?5Devil?8s?5K@ ; `string'
PUBLIC	??_C@_0CK@JNMMBAIA@?$FLDevilSquare?$FN?5Charm?5Of?5Luck?5Over@ ; `string'
PUBLIC	??_C@_0CH@NMBMOEEC@?$FLDevilSquare?$FN?5Not?5Found?5Chaos?5Ge@ ; `string'
PUBLIC	??_C@_0DB@DMIHKADD@?$FLDevilSquare?$FN?5DiffLevel?5Devil?8s?5@ ; `string'
PUBLIC	__$ArrayPad$
PUBLIC	?DevilSquareItemChaosMix@CChaosBox@@QAEXPAUOBJECTSTRUCT@@@Z ; CChaosBox::DevilSquareItemChaosMix
;	COMDAT ??_C@_0DA@FMJGNMLI@?$FLDevilSquare?$FN?5Too?5many?5Devil?8s?5K@
CONST	SEGMENT
??_C@_0DA@FMJGNMLI@?$FLDevilSquare?$FN?5Too?5many?5Devil?8s?5K@ DB '[Devi'
	DB	'lSquare] Too many Devil''s Key or Eyes [%d]', 00H ; `string'
CONST	ENDS
;	COMDAT ??_C@_0CK@JNMMBAIA@?$FLDevilSquare?$FN?5Charm?5Of?5Luck?5Over@
CONST	SEGMENT
??_C@_0CK@JNMMBAIA@?$FLDevilSquare?$FN?5Charm?5Of?5Luck?5Over@ DB '[Devil'
	DB	'Square] Charm Of Luck Over 10% [%d]', 00H	; `string'
CONST	ENDS
;	COMDAT ??_C@_0CH@NMBMOEEC@?$FLDevilSquare?$FN?5Not?5Found?5Chaos?5Ge@
CONST	SEGMENT
??_C@_0CH@NMBMOEEC@?$FLDevilSquare?$FN?5Not?5Found?5Chaos?5Ge@ DB '[Devil'
	DB	'Square] Not Found Chaos Gem [%d]', 00H	; `string'
CONST	ENDS
;	COMDAT ??_C@_0DB@DMIHKADD@?$FLDevilSquare?$FN?5DiffLevel?5Devil?8s?5@
CONST	SEGMENT
??_C@_0DB@DMIHKADD@?$FLDevilSquare?$FN?5DiffLevel?5Devil?8s?5@ DB '[Devil'
	DB	'Square] DiffLevel Devil''s Key or Eyes [%d]', 00H ; `string'
; Function compile flags: /Ogtp
CONST	ENDS
;	COMDAT ?DevilSquareItemChaosMix@CChaosBox@@QAEXPAUOBJECTSTRUCT@@@Z
_TEXT	SEGMENT
_itemlevel$ = -28					; size = 4
_eventitemcount$ = -24					; size = 4
_pMsg$ = -20						; size = 16
__$ArrayPad$ = -4					; size = 4
_lpObj$ = 8						; size = 4
?DevilSquareItemChaosMix@CChaosBox@@QAEXPAUOBJECTSTRUCT@@@Z PROC ; CChaosBox::DevilSquareItemChaosMix, COMDAT
; _this$ = ecx

; 804  : {

  00000	55		 push	 ebp
  00001	8b ec		 mov	 ebp, esp
  00003	83 ec 1c	 sub	 esp, 28			; 0000001cH
  00006	a1 00 00 00 00	 mov	 eax, DWORD PTR ___security_cookie
  0000b	33 c5		 xor	 eax, ebp
  0000d	89 45 fc	 mov	 DWORD PTR __$ArrayPad$[ebp], eax
  00010	53		 push	 ebx
  00011	56		 push	 esi
  00012	8b 75 08	 mov	 esi, DWORD PTR _lpObj$[ebp]
  00015	57		 push	 edi

; 805  : 	lpObj->ChaosLock = TRUE;
; 806  : 
; 807  : 	PMSG_CHAOSMIXRESULT pMsg;
; 808  : 	PHeadSetB((LPBYTE)&pMsg.h, 0x86, sizeof(PMSG_CHAOSMIXRESULT));

  00016	6a 10		 push	 16			; 00000010H
  00018	8d 45 ec	 lea	 eax, DWORD PTR _pMsg$[ebp]
  0001b	68 86 00 00 00	 push	 134			; 00000086H
  00020	50		 push	 eax
  00021	8b d9		 mov	 ebx, ecx
  00023	c7 86 20 12 00
	00 01 00 00 00	 mov	 DWORD PTR [esi+4640], 1
  0002d	e8 00 00 00 00	 call	 ?PHeadSetB@@YAXPAEEH@Z	; PHeadSetB

; 809  : 	pMsg.Result = CB_ERROR;
; 810  : 	int aIndex = lpObj->m_Index;

  00032	8b 3e		 mov	 edi, DWORD PTR [esi]
  00034	83 c4 0c	 add	 esp, 12			; 0000000cH

; 811  : 	int eventitemcount;
; 812  : 	int itemlevel;
; 813  : 	int Ret = CheckDevilSquareItem(lpObj, eventitemcount, itemlevel);

  00037	8d 4d e4	 lea	 ecx, DWORD PTR _itemlevel$[ebp]
  0003a	51		 push	 ecx
  0003b	8d 55 e8	 lea	 edx, DWORD PTR _eventitemcount$[ebp]
  0003e	52		 push	 edx
  0003f	56		 push	 esi
  00040	8b cb		 mov	 ecx, ebx
  00042	c6 45 ef 00	 mov	 BYTE PTR _pMsg$[ebp+3], 0
  00046	e8 00 00 00 00	 call	 ?CheckDevilSquareItem@CChaosBox@@QAEHPAUOBJECTSTRUCT@@AAH1@Z ; CChaosBox::CheckDevilSquareItem

; 814  : 
; 815  : 	if ( Ret != FALSE )

  0004b	85 c0		 test	 eax, eax
  0004d	0f 84 e7 00 00
	00		 je	 $LN7@DevilSquar@2

; 816  : 	{
; 817  : 		if ( Ret == 3 )

  00053	83 f8 03	 cmp	 eax, 3
  00056	75 2a		 jne	 SHORT $LN6@DevilSquar@2

; 818  : 		{
; 819  : 			pMsg.Result = CB_INCORRECT_MIX_ITEMS;
; 820  : 			DataSend(aIndex, (BYTE*)&pMsg, pMsg.h.size);

  00058	0f b6 45 ed	 movzx	 eax, BYTE PTR _pMsg$[ebp+1]
  0005c	50		 push	 eax
  0005d	8d 4d ec	 lea	 ecx, DWORD PTR _pMsg$[ebp]
  00060	51		 push	 ecx
  00061	57		 push	 edi
  00062	c6 45 ef 07	 mov	 BYTE PTR _pMsg$[ebp+3], 7
  00066	e8 00 00 00 00	 call	 ?DataSend@@YAHHPAEK@Z	; DataSend

; 821  : 			LogAdd("[DevilSquare] DiffLevel Devil's Key or Eyes [%d]", eventitemcount);

  0006b	8b 55 e8	 mov	 edx, DWORD PTR _eventitemcount$[ebp]
  0006e	52		 push	 edx
  0006f	68 00 00 00 00	 push	 OFFSET ??_C@_0DB@DMIHKADD@?$FLDevilSquare?$FN?5DiffLevel?5Devil?8s?5@
  00074	ff 15 00 00 00
	00		 call	 DWORD PTR ?LogAdd@@3P6AXPADZZA ; LogAdd
  0007a	83 c4 14	 add	 esp, 20			; 00000014H

; 822  : 			lpObj->ChaosLock = FALSE;
; 823  : 			return;

  0007d	e9 d4 00 00 00	 jmp	 $LN1@DevilSquar@2
$LN6@DevilSquar@2:

; 824  : 		}
; 825  : 		
; 826  : 		if ( Ret == 2 )

  00082	83 f8 02	 cmp	 eax, 2
  00085	75 2a		 jne	 SHORT $LN5@DevilSquar@2

; 827  : 		{
; 828  : 			pMsg.Result = CB_INCORRECT_MIX_ITEMS;
; 829  : 			DataSend(aIndex, (BYTE*)&pMsg, pMsg.h.size);

  00087	0f b6 45 ed	 movzx	 eax, BYTE PTR _pMsg$[ebp+1]
  0008b	50		 push	 eax
  0008c	8d 4d ec	 lea	 ecx, DWORD PTR _pMsg$[ebp]
  0008f	51		 push	 ecx
  00090	57		 push	 edi
  00091	c6 45 ef 07	 mov	 BYTE PTR _pMsg$[ebp+3], 7
  00095	e8 00 00 00 00	 call	 ?DataSend@@YAHHPAEK@Z	; DataSend

; 830  : 			LogAdd("[DevilSquare] Not Found Chaos Gem [%d]", eventitemcount);

  0009a	8b 55 e8	 mov	 edx, DWORD PTR _eventitemcount$[ebp]
  0009d	52		 push	 edx
  0009e	68 00 00 00 00	 push	 OFFSET ??_C@_0CH@NMBMOEEC@?$FLDevilSquare?$FN?5Not?5Found?5Chaos?5Ge@
  000a3	ff 15 00 00 00
	00		 call	 DWORD PTR ?LogAdd@@3P6AXPADZZA ; LogAdd
  000a9	83 c4 14	 add	 esp, 20			; 00000014H

; 831  : 			lpObj->ChaosLock = FALSE;
; 832  : 			
; 833  : 			return;

  000ac	e9 a5 00 00 00	 jmp	 $LN1@DevilSquar@2
$LN5@DevilSquar@2:

; 834  : 		}
; 835  : 
; 836  : 		if ( Ret == 4 )

  000b1	83 f8 04	 cmp	 eax, 4
  000b4	75 27		 jne	 SHORT $LN4@DevilSquar@2

; 837  : 		{
; 838  : 			pMsg.Result = 0xF0;
; 839  : 			DataSend(aIndex, (BYTE*)&pMsg, pMsg.h.size);

  000b6	0f b6 45 ed	 movzx	 eax, BYTE PTR _pMsg$[ebp+1]
  000ba	50		 push	 eax
  000bb	8d 4d ec	 lea	 ecx, DWORD PTR _pMsg$[ebp]
  000be	51		 push	 ecx
  000bf	57		 push	 edi
  000c0	c6 45 ef f0	 mov	 BYTE PTR _pMsg$[ebp+3], 240 ; 000000f0H
  000c4	e8 00 00 00 00	 call	 ?DataSend@@YAHHPAEK@Z	; DataSend

; 840  : 			LogAdd("[DevilSquare] Charm Of Luck Over 10% [%d]", eventitemcount);

  000c9	8b 55 e8	 mov	 edx, DWORD PTR _eventitemcount$[ebp]
  000cc	52		 push	 edx
  000cd	68 00 00 00 00	 push	 OFFSET ??_C@_0CK@JNMMBAIA@?$FLDevilSquare?$FN?5Charm?5Of?5Luck?5Over@
  000d2	ff 15 00 00 00
	00		 call	 DWORD PTR ?LogAdd@@3P6AXPADZZA ; LogAdd
  000d8	83 c4 14	 add	 esp, 20			; 00000014H

; 841  : 			lpObj->ChaosLock = FALSE;
; 842  : 			
; 843  : 			return;

  000db	eb 79		 jmp	 SHORT $LN1@DevilSquar@2
$LN4@DevilSquar@2:

; 844  : 		}
; 845  : 
; 846  : 			
; 847  : 		if ( eventitemcount > 2 )

  000dd	83 7d e8 02	 cmp	 DWORD PTR _eventitemcount$[ebp], 2
  000e1	7e 27		 jle	 SHORT $LN3@DevilSquar@2

; 848  : 		{
; 849  : 			pMsg.Result = CB_TOO_MANY_ITEMS;
; 850  : 			DataSend(aIndex, (BYTE*)&pMsg, pMsg.h.size);

  000e3	0f b6 45 ed	 movzx	 eax, BYTE PTR _pMsg$[ebp+1]
  000e7	50		 push	 eax
  000e8	8d 4d ec	 lea	 ecx, DWORD PTR _pMsg$[ebp]
  000eb	51		 push	 ecx
  000ec	57		 push	 edi
  000ed	c6 45 ef 03	 mov	 BYTE PTR _pMsg$[ebp+3], 3
  000f1	e8 00 00 00 00	 call	 ?DataSend@@YAHHPAEK@Z	; DataSend

; 851  : 			LogAdd("[DevilSquare] Too many Devil's Key or Eyes [%d]", eventitemcount);

  000f6	8b 55 e8	 mov	 edx, DWORD PTR _eventitemcount$[ebp]
  000f9	52		 push	 edx
  000fa	68 00 00 00 00	 push	 OFFSET ??_C@_0DA@FMJGNMLI@?$FLDevilSquare?$FN?5Too?5many?5Devil?8s?5K@
  000ff	ff 15 00 00 00
	00		 call	 DWORD PTR ?LogAdd@@3P6AXPADZZA ; LogAdd
  00105	83 c4 14	 add	 esp, 20			; 00000014H

; 852  : 			lpObj->ChaosLock = FALSE;
; 853  : 			return;

  00108	eb 4c		 jmp	 SHORT $LN1@DevilSquar@2
$LN3@DevilSquar@2:

; 854  : 		}
; 855  : 
; 856  : 		if ( lpObj->Level < 10 )

  0010a	66 83 be 96 00
	00 00 0a	 cmp	 WORD PTR [esi+150], 10	; 0000000aH
  00112	7d 06		 jge	 SHORT $LN2@DevilSquar@2

; 857  : 		{
; 858  : 			pMsg.Result = CB_LOW_LEVEL_USER;

  00114	c6 45 ef 04	 mov	 BYTE PTR _pMsg$[ebp+3], 4

; 859  : 			DataSend(aIndex, (BYTE*)&pMsg, pMsg.h.size);
; 860  : 			lpObj->ChaosLock = FALSE;
; 861  : 			return;

  00118	eb 2a		 jmp	 SHORT $LN10@DevilSquar@2
$LN2@DevilSquar@2:

; 862  : 		}
; 863  : 
; 864  : 		DevilSquareEventChaosMix(lpObj, Ret, itemlevel);

  0011a	8b 55 e4	 mov	 edx, DWORD PTR _itemlevel$[ebp]
  0011d	52		 push	 edx
  0011e	50		 push	 eax
  0011f	56		 push	 esi
  00120	8b cb		 mov	 ecx, ebx
  00122	e8 00 00 00 00	 call	 ?DevilSquareEventChaosMix@CChaosBox@@QAEHPAUOBJECTSTRUCT@@HH@Z ; CChaosBox::DevilSquareEventChaosMix
  00127	5f		 pop	 edi
  00128	5e		 pop	 esi
  00129	5b		 pop	 ebx

; 872  : 		lpObj->ChaosLock = FALSE;
; 873  : 		return;
; 874  : 	}
; 875  : 
; 876  : 	lpObj->ChaosLock = FALSE;
; 877  : }

  0012a	8b 4d fc	 mov	 ecx, DWORD PTR __$ArrayPad$[ebp]
  0012d	33 cd		 xor	 ecx, ebp
  0012f	e8 00 00 00 00	 call	 @__security_check_cookie@4
  00134	8b e5		 mov	 esp, ebp
  00136	5d		 pop	 ebp
  00137	c2 04 00	 ret	 4
$LN7@DevilSquar@2:

; 865  : 		return;
; 866  : 	}
; 867  : 		
; 868  : 	if ( eventitemcount > 1 )

  0013a	83 7d e8 01	 cmp	 DWORD PTR _eventitemcount$[ebp], 1
  0013e	7e 16		 jle	 SHORT $LN1@DevilSquar@2

; 869  : 	{
; 870  : 		pMsg.Result = CB_LACKING_MIX_ITEMS;

  00140	c6 45 ef 06	 mov	 BYTE PTR _pMsg$[ebp+3], 6
$LN10@DevilSquar@2:

; 871  : 		DataSend(aIndex, (BYTE*)&pMsg, pMsg.h.size);

  00144	0f b6 45 ed	 movzx	 eax, BYTE PTR _pMsg$[ebp+1]
  00148	50		 push	 eax
  00149	8d 4d ec	 lea	 ecx, DWORD PTR _pMsg$[ebp]
  0014c	51		 push	 ecx
  0014d	57		 push	 edi
  0014e	e8 00 00 00 00	 call	 ?DataSend@@YAHHPAEK@Z	; DataSend
  00153	83 c4 0c	 add	 esp, 12			; 0000000cH
$LN1@DevilSquar@2:

; 872  : 		lpObj->ChaosLock = FALSE;
; 873  : 		return;
; 874  : 	}
; 875  : 
; 876  : 	lpObj->ChaosLock = FALSE;
; 877  : }

  00156	8b 4d fc	 mov	 ecx, DWORD PTR __$ArrayPad$[ebp]
  00159	5f		 pop	 edi
  0015a	c7 86 20 12 00
	00 00 00 00 00	 mov	 DWORD PTR [esi+4640], 0
  00164	5e		 pop	 esi
  00165	33 cd		 xor	 ecx, ebp
  00167	5b		 pop	 ebx
  00168	e8 00 00 00 00	 call	 @__security_check_cookie@4
  0016d	8b e5		 mov	 esp, ebp
  0016f	5d		 pop	 ebp
  00170	c2 04 00	 ret	 4
?DevilSquareItemChaosMix@CChaosBox@@QAEXPAUOBJECTSTRUCT@@@Z ENDP ; CChaosBox::DevilSquareItemChaosMix
_TEXT	ENDS
PUBLIC	??_C@_0HO@DGIBLBAF@?$FLPlusItemLevel?0?$CFd?$FN?5?$FL?$CFs?$FN?$FL?$CFs?$FN?5CBMi@ ; `string'
PUBLIC	__$ArrayPad$
PUBLIC	?LogPlusItemLevelChaosItem@CChaosBox@@QAEXPAUOBJECTSTRUCT@@H@Z ; CChaosBox::LogPlusItemLevelChaosItem
;	COMDAT ??_C@_0HO@DGIBLBAF@?$FLPlusItemLevel?0?$CFd?$FN?5?$FL?$CFs?$FN?$FL?$CFs?$FN?5CBMi@
CONST	SEGMENT
??_C@_0HO@DGIBLBAF@?$FLPlusItemLevel?0?$CFd?$FN?5?$FL?$CFs?$FN?$FL?$CFs?$FN?5CBMi@ DB '['
	DB	'PlusItemLevel,%d] [%s][%s] CBMix [%d,%s,%d,%d,%d,%d]serial:[%'
	DB	'd][%d] Ex:[%d,%d,%d,%d,%d,%d,%d] Set:[%d] 380Ex:[%d] HO:[%d,%'
	DB	'd]', 00H					; `string'
; Function compile flags: /Ogtp
CONST	ENDS
;	COMDAT ?LogPlusItemLevelChaosItem@CChaosBox@@QAEXPAUOBJECTSTRUCT@@H@Z
_TEXT	SEGMENT
_n$190275 = -20						; size = 4
_iMixLevel$ = -16					; size = 4
_ExOption$ = -12					; size = 8
__$ArrayPad$ = -4					; size = 4
_lpObj$ = 8						; size = 4
_iPlusMixLevel$ = 12					; size = 4
?LogPlusItemLevelChaosItem@CChaosBox@@QAEXPAUOBJECTSTRUCT@@H@Z PROC ; CChaosBox::LogPlusItemLevelChaosItem, COMDAT
; _this$ = ecx

; 880  : {

  00000	55		 push	 ebp
  00001	8b ec		 mov	 ebp, esp
  00003	83 ec 14	 sub	 esp, 20			; 00000014H
  00006	a1 00 00 00 00	 mov	 eax, DWORD PTR ___security_cookie
  0000b	33 c5		 xor	 eax, ebp
  0000d	89 45 fc	 mov	 DWORD PTR __$ArrayPad$[ebp], eax

; 881  : 	int iMixLevel = 0;
; 882  : 	BYTE ExOption[MAX_EXOPTION_SIZE];
; 883  : 
; 884  : 	if ( iPlusMixLevel == 3 )

  00010	8b 45 0c	 mov	 eax, DWORD PTR _iPlusMixLevel$[ebp]
  00013	53		 push	 ebx
  00014	8b 5d 08	 mov	 ebx, DWORD PTR _lpObj$[ebp]
  00017	56		 push	 esi
  00018	57		 push	 edi
  00019	33 ff		 xor	 edi, edi
  0001b	89 7d f0	 mov	 DWORD PTR _iMixLevel$[ebp], edi
  0001e	83 f8 03	 cmp	 eax, 3
  00021	75 09		 jne	 SHORT $LN15@LogPlusIte

; 885  : 		iMixLevel = 1;

  00023	c7 45 f0 01 00
	00 00		 mov	 DWORD PTR _iMixLevel$[ebp], 1
  0002a	eb 44		 jmp	 SHORT $LN20@LogPlusIte
$LN15@LogPlusIte:

; 886  : 	else if ( iPlusMixLevel == 4 )

  0002c	83 f8 04	 cmp	 eax, 4
  0002f	75 09		 jne	 SHORT $LN13@LogPlusIte

; 887  : 		iMixLevel = 2;

  00031	c7 45 f0 02 00
	00 00		 mov	 DWORD PTR _iMixLevel$[ebp], 2
  00038	eb 36		 jmp	 SHORT $LN20@LogPlusIte
$LN13@LogPlusIte:

; 888  : 	else if ( iPlusMixLevel == 22 )

  0003a	83 f8 16	 cmp	 eax, 22			; 00000016H
  0003d	75 09		 jne	 SHORT $LN11@LogPlusIte

; 889  : 		iMixLevel = 3;

  0003f	c7 45 f0 03 00
	00 00		 mov	 DWORD PTR _iMixLevel$[ebp], 3
  00046	eb 28		 jmp	 SHORT $LN20@LogPlusIte
$LN11@LogPlusIte:

; 890  : 	else if ( iPlusMixLevel == 23 )

  00048	83 f8 17	 cmp	 eax, 23			; 00000017H
  0004b	75 09		 jne	 SHORT $LN9@LogPlusIte

; 891  : 		iMixLevel = 4;

  0004d	c7 45 f0 04 00
	00 00		 mov	 DWORD PTR _iMixLevel$[ebp], 4
  00054	eb 1a		 jmp	 SHORT $LN20@LogPlusIte
$LN9@LogPlusIte:

; 892  : 	else if ( iPlusMixLevel == 49 )

  00056	83 f8 31	 cmp	 eax, 49			; 00000031H
  00059	75 09		 jne	 SHORT $LN7@LogPlusIte

; 893  : 		iMixLevel = 5;

  0005b	c7 45 f0 05 00
	00 00		 mov	 DWORD PTR _iMixLevel$[ebp], 5
  00062	eb 0c		 jmp	 SHORT $LN20@LogPlusIte
$LN7@LogPlusIte:

; 894  : 	else if ( iPlusMixLevel == 50 )

  00064	83 f8 32	 cmp	 eax, 50			; 00000032H
  00067	75 07		 jne	 SHORT $LN20@LogPlusIte

; 895  : 		iMixLevel = 6;

  00069	c7 45 f0 06 00
	00 00		 mov	 DWORD PTR _iMixLevel$[ebp], 6
$LN20@LogPlusIte:

; 896  : 
; 897  : 	for ( int n=0;n<CHAOS_BOX_SIZE;n++)

  00070	89 7d ec	 mov	 DWORD PTR _n$190275[ebp], edi
$LL4@LogPlusIte:

; 898  : 	{
; 899  : 		if ( lpObj->pChaosBox[n].IsItem() == TRUE )

  00073	8b 8b 10 12 00
	00		 mov	 ecx, DWORD PTR [ebx+4624]
  00079	03 cf		 add	 ecx, edi
  0007b	e8 00 00 00 00	 call	 ?IsItem@CItem@@QAEHXZ	; CItem::IsItem
  00080	83 f8 01	 cmp	 eax, 1
  00083	0f 85 cb 00 00
	00		 jne	 $LN3@LogPlusIte

; 900  : 		{
; 901  : 			::ItemIsBufExOption(ExOption, &lpObj->pChaosBox[n]);

  00089	8b 83 10 12 00
	00		 mov	 eax, DWORD PTR [ebx+4624]
  0008f	03 c7		 add	 eax, edi
  00091	50		 push	 eax
  00092	8d 4d f4	 lea	 ecx, DWORD PTR _ExOption$[ebp]
  00095	51		 push	 ecx
  00096	e8 00 00 00 00	 call	 ?ItemIsBufExOption@@YAXPAEPAVCItem@@@Z ; ItemIsBufExOption

; 902  : 
; 903  : 			LogAddTD("[PlusItemLevel,%d] [%s][%s] CBMix [%d,%s,%d,%d,%d,%d]serial:[%d][%d] Ex:[%d,%d,%d,%d,%d,%d,%d] Set:[%d] 380Ex:[%d] HO:[%d,%d]", iMixLevel,
; 904  : 				lpObj->AccountID, lpObj->Name, n, lpObj->pChaosBox[n].GetName(), lpObj->pChaosBox[n].m_Level,
; 905  : 				lpObj->pChaosBox[n].m_Option1, lpObj->pChaosBox[n].m_Option2, lpObj->pChaosBox[n].m_Option3, 
; 906  : 				lpObj->pChaosBox[n].m_Number, (int)lpObj->pChaosBox[n].m_Durability, 
; 907  : 				ExOption[0], ExOption[1], ExOption[2], ExOption[3], ExOption[4], ExOption[5], ExOption[6], lpObj->pChaosBox[n].m_SetOption,
; 908  : 				lpObj->pChaosBox[n].m_ItemOptionEx >> 7,
; 909  : 				g_kJewelOfHarmonySystem.GetItemOptionLevel(&lpObj->pChaosBox[n]),
; 910  : 				g_kJewelOfHarmonySystem.GetItemStrengthenOption(&lpObj->pChaosBox[n]));

  0009b	8b 93 10 12 00
	00		 mov	 edx, DWORD PTR [ebx+4624]
  000a1	8d 34 3a	 lea	 esi, DWORD PTR [edx+edi]
  000a4	83 c4 08	 add	 esp, 8
  000a7	03 d7		 add	 edx, edi
  000a9	52		 push	 edx
  000aa	b9 00 00 00 00	 mov	 ecx, OFFSET ?g_kJewelOfHarmonySystem@@3VCJewelOfHarmonySystem@@A ; g_kJewelOfHarmonySystem
  000af	e8 00 00 00 00	 call	 ?GetItemStrengthenOption@CJewelOfHarmonySystem@@QAEEPAVCItem@@@Z ; CJewelOfHarmonySystem::GetItemStrengthenOption
  000b4	8b 93 10 12 00
	00		 mov	 edx, DWORD PTR [ebx+4624]
  000ba	0f b6 c8	 movzx	 ecx, al
  000bd	51		 push	 ecx
  000be	03 d7		 add	 edx, edi
  000c0	52		 push	 edx
  000c1	b9 00 00 00 00	 mov	 ecx, OFFSET ?g_kJewelOfHarmonySystem@@3VCJewelOfHarmonySystem@@A ; g_kJewelOfHarmonySystem
  000c6	e8 00 00 00 00	 call	 ?GetItemOptionLevel@CJewelOfHarmonySystem@@QAEEPAVCItem@@@Z ; CJewelOfHarmonySystem::GetItemOptionLevel
  000cb	0f b6 8e c6 00
	00 00		 movzx	 ecx, BYTE PTR [esi+198]
  000d2	d9 46 24	 fld	 DWORD PTR [esi+36]
  000d5	0f b6 96 aa 00
	00 00		 movzx	 edx, BYTE PTR [esi+170]
  000dc	0f b6 c0	 movzx	 eax, al
  000df	50		 push	 eax
  000e0	0f b6 45 fa	 movzx	 eax, BYTE PTR _ExOption$[ebp+6]
  000e4	c1 e9 07	 shr	 ecx, 7
  000e7	51		 push	 ecx
  000e8	0f b6 4d f9	 movzx	 ecx, BYTE PTR _ExOption$[ebp+5]
  000ec	52		 push	 edx
  000ed	0f b6 55 f8	 movzx	 edx, BYTE PTR _ExOption$[ebp+4]
  000f1	50		 push	 eax
  000f2	0f b6 45 f7	 movzx	 eax, BYTE PTR _ExOption$[ebp+3]
  000f6	51		 push	 ecx
  000f7	0f b6 4d f6	 movzx	 ecx, BYTE PTR _ExOption$[ebp+2]
  000fb	52		 push	 edx
  000fc	0f b6 55 f5	 movzx	 edx, BYTE PTR _ExOption$[ebp+1]
  00100	50		 push	 eax
  00101	0f b6 45 f4	 movzx	 eax, BYTE PTR _ExOption$[ebp]
  00105	51		 push	 ecx
  00106	52		 push	 edx
  00107	50		 push	 eax
  00108	e8 00 00 00 00	 call	 __ftol2_sse
  0010d	8b 0e		 mov	 ecx, DWORD PTR [esi]
  0010f	0f b6 96 92 00
	00 00		 movzx	 edx, BYTE PTR [esi+146]
  00116	50		 push	 eax
  00117	0f b6 86 91 00
	00 00		 movzx	 eax, BYTE PTR [esi+145]
  0011e	51		 push	 ecx
  0011f	0f b6 8e 90 00
	00 00		 movzx	 ecx, BYTE PTR [esi+144]
  00126	52		 push	 edx
  00127	0f bf 56 08	 movsx	 edx, WORD PTR [esi+8]
  0012b	50		 push	 eax
  0012c	51		 push	 ecx
  0012d	52		 push	 edx
  0012e	8b ce		 mov	 ecx, esi
  00130	e8 00 00 00 00	 call	 ?GetName@CItem@@QAEPADXZ ; CItem::GetName
  00135	50		 push	 eax
  00136	8b 45 ec	 mov	 eax, DWORD PTR _n$190275[ebp]
  00139	50		 push	 eax
  0013a	8b 45 f0	 mov	 eax, DWORD PTR _iMixLevel$[ebp]
  0013d	8d 4b 5d	 lea	 ecx, DWORD PTR [ebx+93]
  00140	51		 push	 ecx
  00141	8d 53 52	 lea	 edx, DWORD PTR [ebx+82]
  00144	52		 push	 edx
  00145	50		 push	 eax
  00146	68 00 00 00 00	 push	 OFFSET ??_C@_0HO@DGIBLBAF@?$FLPlusItemLevel?0?$CFd?$FN?5?$FL?$CFs?$FN?$FL?$CFs?$FN?5CBMi@
  0014b	ff 15 00 00 00
	00		 call	 DWORD PTR ?LogAddTD@@3P6AXPADZZA ; LogAddTD
  00151	83 c4 5c	 add	 esp, 92			; 0000005cH
$LN3@LogPlusIte:

; 896  : 
; 897  : 	for ( int n=0;n<CHAOS_BOX_SIZE;n++)

  00154	ff 45 ec	 inc	 DWORD PTR _n$190275[ebp]
  00157	81 c7 d4 00 00
	00		 add	 edi, 212		; 000000d4H
  0015d	81 ff 80 1a 00
	00		 cmp	 edi, 6784		; 00001a80H
  00163	0f 8c 0a ff ff
	ff		 jl	 $LL4@LogPlusIte

; 911  : 		}
; 912  : 	}
; 913  : }

  00169	8b 4d fc	 mov	 ecx, DWORD PTR __$ArrayPad$[ebp]
  0016c	5f		 pop	 edi
  0016d	5e		 pop	 esi
  0016e	33 cd		 xor	 ecx, ebp
  00170	5b		 pop	 ebx
  00171	e8 00 00 00 00	 call	 @__security_check_cookie@4
  00176	8b e5		 mov	 esp, ebp
  00178	5d		 pop	 ebp
  00179	c2 08 00	 ret	 8
?LogPlusItemLevelChaosItem@CChaosBox@@QAEXPAUOBJECTSTRUCT@@H@Z ENDP ; CChaosBox::LogPlusItemLevelChaosItem
_TEXT	ENDS
PUBLIC	??_C@_0IF@FONACAKJ@?$FL?$CFs?$FN?5?$FL?$CFs?$FN?$FL?$CFs?$FN?5CBMix?5?$FL?$CFd?0?$CFs?0?$CFd?0?$CFd@ ; `string'
PUBLIC	_sLogType$GSCopy$
PUBLIC	__$ArrayPad$
PUBLIC	?LogChaosItem@CChaosBox@@QAEXPAUOBJECTSTRUCT@@PAD@Z ; CChaosBox::LogChaosItem
;	COMDAT ??_C@_0IF@FONACAKJ@?$FL?$CFs?$FN?5?$FL?$CFs?$FN?$FL?$CFs?$FN?5CBMix?5?$FL?$CFd?0?$CFs?0?$CFd?0?$CFd@
CONST	SEGMENT
??_C@_0IF@FONACAKJ@?$FL?$CFs?$FN?5?$FL?$CFs?$FN?$FL?$CFs?$FN?5CBMix?5?$FL?$CFd?0?$CFs?0?$CFd?0?$CFd@ DB '['
	DB	'%s] [%s][%s] CBMix [%d,%s,%d,%d,%d,%d]serial:[%u][%d] Ex:[%d,'
	DB	'%d,%d,%d,%d,%d,%d] Set:[%d] 380:[%d] HO:[%d,%d] Socket[%d,%d,'
	DB	'%d,%d,%d]', 00H				; `string'
; Function compile flags: /Ogtp
CONST	ENDS
;	COMDAT ?LogChaosItem@CChaosBox@@QAEXPAUOBJECTSTRUCT@@PAD@Z
_TEXT	SEGMENT
_sLogType$GSCopy$ = -20					; size = 4
_n$190288 = -16						; size = 4
_ExOption$ = -12					; size = 8
__$ArrayPad$ = -4					; size = 4
_lpObj$ = 8						; size = 4
_sLogType$ = 12						; size = 4
?LogChaosItem@CChaosBox@@QAEXPAUOBJECTSTRUCT@@PAD@Z PROC ; CChaosBox::LogChaosItem, COMDAT
; _this$ = ecx

; 920  : {

  00000	55		 push	 ebp
  00001	8b ec		 mov	 ebp, esp
  00003	83 ec 14	 sub	 esp, 20			; 00000014H
  00006	a1 00 00 00 00	 mov	 eax, DWORD PTR ___security_cookie
  0000b	33 c5		 xor	 eax, ebp
  0000d	89 45 fc	 mov	 DWORD PTR __$ArrayPad$[ebp], eax
  00010	8b 45 0c	 mov	 eax, DWORD PTR _sLogType$[ebp]
  00013	53		 push	 ebx
  00014	56		 push	 esi

; 921  : 	BYTE ExOption[MAX_EXOPTION_SIZE];
; 922  : 
; 923  : 	for ( int n=0;n<CHAOS_BOX_SIZE;n++)

  00015	33 db		 xor	 ebx, ebx
  00017	57		 push	 edi
  00018	8b 7d 08	 mov	 edi, DWORD PTR _lpObj$[ebp]
  0001b	89 45 ec	 mov	 DWORD PTR _sLogType$GSCopy$[ebp], eax
  0001e	89 5d f0	 mov	 DWORD PTR _n$190288[ebp], ebx
$LL4@LogChaosIt:

; 924  : 	{
; 925  : 		if ( lpObj->pChaosBox[n].IsItem() == TRUE )

  00021	8b 8f 10 12 00
	00		 mov	 ecx, DWORD PTR [edi+4624]
  00027	03 cb		 add	 ecx, ebx
  00029	e8 00 00 00 00	 call	 ?IsItem@CItem@@QAEHXZ	; CItem::IsItem
  0002e	83 f8 01	 cmp	 eax, 1
  00031	0f 85 fa 00 00
	00		 jne	 $LN3@LogChaosIt

; 926  : 		{
; 927  : 			::ItemIsBufExOption(ExOption, &lpObj->pChaosBox[n]);

  00037	8b 8f 10 12 00
	00		 mov	 ecx, DWORD PTR [edi+4624]
  0003d	03 cb		 add	 ecx, ebx
  0003f	51		 push	 ecx
  00040	8d 55 f4	 lea	 edx, DWORD PTR _ExOption$[ebp]
  00043	52		 push	 edx
  00044	e8 00 00 00 00	 call	 ?ItemIsBufExOption@@YAXPAEPAVCItem@@@Z ; ItemIsBufExOption

; 928  : 
; 929  : 			LogAddTD("[%s] [%s][%s] CBMix [%d,%s,%d,%d,%d,%d]serial:[%u][%d] Ex:[%d,%d,%d,%d,%d,%d,%d] Set:[%d] 380:[%d] HO:[%d,%d] Socket[%d,%d,%d,%d,%d]",
; 930  : 				sLogType, lpObj->AccountID, lpObj->Name, n, lpObj->pChaosBox[n].GetName(), lpObj->pChaosBox[n].m_Level,
; 931  : 				lpObj->pChaosBox[n].m_Option1, lpObj->pChaosBox[n].m_Option2, lpObj->pChaosBox[n].m_Option3, 
; 932  : 				lpObj->pChaosBox[n].m_Number, (int)lpObj->pChaosBox[n].m_Durability, 
; 933  : 				ExOption[0], ExOption[1], ExOption[2], ExOption[3], ExOption[4], ExOption[5], ExOption[6], lpObj->pChaosBox[n].m_SetOption,
; 934  : 				lpObj->pChaosBox[n].m_ItemOptionEx >> 7,
; 935  : 				g_kJewelOfHarmonySystem.GetItemStrengthenOption(&lpObj->pChaosBox[n]),
; 936  : 				g_kJewelOfHarmonySystem.GetItemOptionLevel(&lpObj->pChaosBox[n]),
; 937  : 				lpObj->pChaosBox[n].m_SocketOption[0],lpObj->pChaosBox[n].m_SocketOption[1],lpObj->pChaosBox[n].m_SocketOption[2],lpObj->pChaosBox[n].m_SocketOption[3],lpObj->pChaosBox[n].m_SocketOption[4]);

  00049	8b 87 10 12 00
	00		 mov	 eax, DWORD PTR [edi+4624]
  0004f	8b 8f 10 12 00
	00		 mov	 ecx, DWORD PTR [edi+4624]
  00055	0f b6 94 18 cc
	00 00 00	 movzx	 edx, BYTE PTR [eax+ebx+204]
  0005d	03 c3		 add	 eax, ebx
  0005f	83 c4 08	 add	 esp, 8
  00062	52		 push	 edx
  00063	0f b6 90 ca 00
	00 00		 movzx	 edx, BYTE PTR [eax+202]
  0006a	8d 34 0b	 lea	 esi, DWORD PTR [ebx+ecx]
  0006d	0f b6 88 cb 00
	00 00		 movzx	 ecx, BYTE PTR [eax+203]
  00074	51		 push	 ecx
  00075	0f b6 88 c9 00
	00 00		 movzx	 ecx, BYTE PTR [eax+201]
  0007c	52		 push	 edx
  0007d	0f b6 90 c8 00
	00 00		 movzx	 edx, BYTE PTR [eax+200]
  00084	51		 push	 ecx
  00085	52		 push	 edx
  00086	50		 push	 eax
  00087	b9 00 00 00 00	 mov	 ecx, OFFSET ?g_kJewelOfHarmonySystem@@3VCJewelOfHarmonySystem@@A ; g_kJewelOfHarmonySystem
  0008c	e8 00 00 00 00	 call	 ?GetItemOptionLevel@CJewelOfHarmonySystem@@QAEEPAVCItem@@@Z ; CJewelOfHarmonySystem::GetItemOptionLevel
  00091	8b 8f 10 12 00
	00		 mov	 ecx, DWORD PTR [edi+4624]
  00097	0f b6 c0	 movzx	 eax, al
  0009a	03 cb		 add	 ecx, ebx
  0009c	50		 push	 eax
  0009d	51		 push	 ecx
  0009e	b9 00 00 00 00	 mov	 ecx, OFFSET ?g_kJewelOfHarmonySystem@@3VCJewelOfHarmonySystem@@A ; g_kJewelOfHarmonySystem
  000a3	e8 00 00 00 00	 call	 ?GetItemStrengthenOption@CJewelOfHarmonySystem@@QAEEPAVCItem@@@Z ; CJewelOfHarmonySystem::GetItemStrengthenOption
  000a8	0f b6 8e aa 00
	00 00		 movzx	 ecx, BYTE PTR [esi+170]
  000af	d9 46 24	 fld	 DWORD PTR [esi+36]
  000b2	0f b6 d0	 movzx	 edx, al
  000b5	0f b6 86 c6 00
	00 00		 movzx	 eax, BYTE PTR [esi+198]
  000bc	52		 push	 edx
  000bd	0f b6 55 fa	 movzx	 edx, BYTE PTR _ExOption$[ebp+6]
  000c1	c1 e8 07	 shr	 eax, 7
  000c4	50		 push	 eax
  000c5	0f b6 45 f9	 movzx	 eax, BYTE PTR _ExOption$[ebp+5]
  000c9	51		 push	 ecx
  000ca	0f b6 4d f8	 movzx	 ecx, BYTE PTR _ExOption$[ebp+4]
  000ce	52		 push	 edx
  000cf	0f b6 55 f7	 movzx	 edx, BYTE PTR _ExOption$[ebp+3]
  000d3	50		 push	 eax
  000d4	0f b6 45 f6	 movzx	 eax, BYTE PTR _ExOption$[ebp+2]
  000d8	51		 push	 ecx
  000d9	0f b6 4d f5	 movzx	 ecx, BYTE PTR _ExOption$[ebp+1]
  000dd	52		 push	 edx
  000de	0f b6 55 f4	 movzx	 edx, BYTE PTR _ExOption$[ebp]
  000e2	50		 push	 eax
  000e3	51		 push	 ecx
  000e4	52		 push	 edx
  000e5	e8 00 00 00 00	 call	 __ftol2_sse
  000ea	0f b6 8e 92 00
	00 00		 movzx	 ecx, BYTE PTR [esi+146]
  000f1	0f b6 96 91 00
	00 00		 movzx	 edx, BYTE PTR [esi+145]
  000f8	50		 push	 eax
  000f9	8b 06		 mov	 eax, DWORD PTR [esi]
  000fb	50		 push	 eax
  000fc	0f b6 86 90 00
	00 00		 movzx	 eax, BYTE PTR [esi+144]
  00103	51		 push	 ecx
  00104	0f bf 4e 08	 movsx	 ecx, WORD PTR [esi+8]
  00108	52		 push	 edx
  00109	50		 push	 eax
  0010a	51		 push	 ecx
  0010b	8b ce		 mov	 ecx, esi
  0010d	e8 00 00 00 00	 call	 ?GetName@CItem@@QAEPADXZ ; CItem::GetName
  00112	8b 55 f0	 mov	 edx, DWORD PTR _n$190288[ebp]
  00115	50		 push	 eax
  00116	52		 push	 edx
  00117	8b 55 ec	 mov	 edx, DWORD PTR _sLogType$GSCopy$[ebp]
  0011a	8d 47 5d	 lea	 eax, DWORD PTR [edi+93]
  0011d	50		 push	 eax
  0011e	8d 4f 52	 lea	 ecx, DWORD PTR [edi+82]
  00121	51		 push	 ecx
  00122	52		 push	 edx
  00123	68 00 00 00 00	 push	 OFFSET ??_C@_0IF@FONACAKJ@?$FL?$CFs?$FN?5?$FL?$CFs?$FN?$FL?$CFs?$FN?5CBMix?5?$FL?$CFd?0?$CFs?0?$CFd?0?$CFd@
  00128	ff 15 00 00 00
	00		 call	 DWORD PTR ?LogAddTD@@3P6AXPADZZA ; LogAddTD
  0012e	83 c4 70	 add	 esp, 112		; 00000070H
$LN3@LogChaosIt:

; 921  : 	BYTE ExOption[MAX_EXOPTION_SIZE];
; 922  : 
; 923  : 	for ( int n=0;n<CHAOS_BOX_SIZE;n++)

  00131	ff 45 f0	 inc	 DWORD PTR _n$190288[ebp]
  00134	81 c3 d4 00 00
	00		 add	 ebx, 212		; 000000d4H
  0013a	81 fb 80 1a 00
	00		 cmp	 ebx, 6784		; 00001a80H
  00140	0f 8c db fe ff
	ff		 jl	 $LL4@LogChaosIt

; 938  : 		}
; 939  : 	}
; 940  : }

  00146	8b 4d fc	 mov	 ecx, DWORD PTR __$ArrayPad$[ebp]
  00149	5f		 pop	 edi
  0014a	5e		 pop	 esi
  0014b	33 cd		 xor	 ecx, ebp
  0014d	5b		 pop	 ebx
  0014e	e8 00 00 00 00	 call	 @__security_check_cookie@4
  00153	8b e5		 mov	 esp, ebp
  00155	5d		 pop	 ebp
  00156	c2 08 00	 ret	 8
?LogChaosItem@CChaosBox@@QAEXPAUOBJECTSTRUCT@@PAD@Z ENDP ; CChaosBox::LogChaosItem
_TEXT	ENDS
PUBLIC	?IsPlusItemJewel@CChaosBox@@QAEHH@Z		; CChaosBox::IsPlusItemJewel
; Function compile flags: /Ogtp
;	COMDAT ?IsPlusItemJewel@CChaosBox@@QAEHH@Z
_TEXT	SEGMENT
_iType$ = 8						; size = 4
?IsPlusItemJewel@CChaosBox@@QAEHH@Z PROC		; CChaosBox::IsPlusItemJewel, COMDAT
; _this$ = ecx

; 1432 : {

  00000	55		 push	 ebp
  00001	8b ec		 mov	 ebp, esp

; 1433 : 	switch( iType )

  00003	8b 45 08	 mov	 eax, DWORD PTR _iType$[ebp]
  00006	3d 35 1c 00 00	 cmp	 eax, 7221		; 00001c35H
  0000b	7f 17		 jg	 SHORT $LN7@IsPlusItem
  0000d	74 30		 je	 SHORT $LN2@IsPlusItem
  0000f	3d 0f 18 00 00	 cmp	 eax, 6159		; 0000180fH
  00014	74 29		 je	 SHORT $LN2@IsPlusItem
  00016	3d 0c 1c 00 00	 cmp	 eax, 7180		; 00001c0cH
  0001b	7e 1c		 jle	 SHORT $LN1@IsPlusItem
  0001d	3d 0e 1c 00 00	 cmp	 eax, 7182		; 00001c0eH
  00022	eb 13		 jmp	 SHORT $LN8@IsPlusItem
$LN7@IsPlusItem:
  00024	3d 60 1c 00 00	 cmp	 eax, 7264		; 00001c60H
  00029	74 14		 je	 SHORT $LN2@IsPlusItem
  0002b	3d bc 1c 00 00	 cmp	 eax, 7356		; 00001cbcH
  00030	7e 07		 jle	 SHORT $LN1@IsPlusItem
  00032	3d be 1c 00 00	 cmp	 eax, 7358		; 00001cbeH
$LN8@IsPlusItem:
  00037	7e 06		 jle	 SHORT $LN2@IsPlusItem
$LN1@IsPlusItem:

; 1443 : 	default:
; 1444 : 		return FALSE;

  00039	33 c0		 xor	 eax, eax

; 1445 : 	}
; 1446 : }

  0003b	5d		 pop	 ebp
  0003c	c2 04 00	 ret	 4
$LN2@IsPlusItem:

; 1434 : 	{
; 1435 : 	case ITEMGET(14, 53):
; 1436 : 	case ITEMGET(12, 15):
; 1437 : 	case ITEMGET(14, 13):
; 1438 : 	case ITEMGET(14, 14):
; 1439 : 	case ITEMGET(14, 96):
; 1440 : 	case ITEMGET(14, 189):
; 1441 : 	case ITEMGET(14, 190):
; 1442 : 		return TRUE;

  0003f	b8 01 00 00 00	 mov	 eax, 1

; 1445 : 	}
; 1446 : }

  00044	5d		 pop	 ebp
  00045	c2 04 00	 ret	 4
?IsPlusItemJewel@CChaosBox@@QAEHH@Z ENDP		; CChaosBox::IsPlusItemJewel
_TEXT	ENDS
PUBLIC	??_C@_0ED@JKKAJEKA@?$FLDinorantMix?$FN?5?$FL?$CFs?$FN?$FL?$CFs?$FN?5CBMix?5Fai@ ; `string'
PUBLIC	??_C@_0EG@BMPMHKIC@?$FLDinorantMix?$FN?5?$FL?$CFs?$FN?$FL?$CFs?$FN?5CBMix?5Suc@ ; `string'
PUBLIC	??_C@_0BO@BKFHPCAO@?$FLDinorantMix?$FN?5Chaos?5Mix?5Start?$AA@ ; `string'
PUBLIC	??_C@_0M@OEKEBNDM@DinorantMix?$AA@		; `string'
PUBLIC	__real@406fe00000000000
PUBLIC	__$ArrayPad$
PUBLIC	?PegasiaChaosMix@CChaosBox@@QAEHPAUOBJECTSTRUCT@@@Z ; CChaosBox::PegasiaChaosMix
EXTRN	__allmul:PROC
;	COMDAT ??_C@_0ED@JKKAJEKA@?$FLDinorantMix?$FN?5?$FL?$CFs?$FN?$FL?$CFs?$FN?5CBMix?5Fai@
CONST	SEGMENT
??_C@_0ED@JKKAJEKA@?$FLDinorantMix?$FN?5?$FL?$CFs?$FN?$FL?$CFs?$FN?5CBMix?5Fai@ DB '['
	DB	'DinorantMix] [%s][%s] CBMix Fail %d Money : %d-%d, CharmRate '
	DB	': %d', 00H					; `string'
CONST	ENDS
;	COMDAT ??_C@_0EG@BMPMHKIC@?$FLDinorantMix?$FN?5?$FL?$CFs?$FN?$FL?$CFs?$FN?5CBMix?5Suc@
CONST	SEGMENT
??_C@_0EG@BMPMHKIC@?$FLDinorantMix?$FN?5?$FL?$CFs?$FN?$FL?$CFs?$FN?5CBMix?5Suc@ DB '['
	DB	'DinorantMix] [%s][%s] CBMix Success %d Money : %d-%d, CharmRa'
	DB	'te : %d', 00H				; `string'
CONST	ENDS
;	COMDAT ??_C@_0BO@BKFHPCAO@?$FLDinorantMix?$FN?5Chaos?5Mix?5Start?$AA@
CONST	SEGMENT
??_C@_0BO@BKFHPCAO@?$FLDinorantMix?$FN?5Chaos?5Mix?5Start?$AA@ DB '[Dinor'
	DB	'antMix] Chaos Mix Start', 00H		; `string'
CONST	ENDS
;	COMDAT ??_C@_0M@OEKEBNDM@DinorantMix?$AA@
CONST	SEGMENT
??_C@_0M@OEKEBNDM@DinorantMix?$AA@ DB 'DinorantMix', 00H ; `string'
CONST	ENDS
;	COMDAT __real@406fe00000000000
CONST	SEGMENT
__real@406fe00000000000 DQ 0406fe00000000000r	; 255
; Function compile flags: /Ogtp
CONST	ENDS
;	COMDAT ?PegasiaChaosMix@CChaosBox@@QAEHPAUOBJECTSTRUCT@@@Z
_TEXT	SEGMENT
_this$ = -36						; size = 4
_UniriaCount$ = -32					; size = 4
_ChoasGemCount$ = -28					; size = 4
_iCharmOfLuckCount$ = -24				; size = 4
_pMsg$ = -20						; size = 16
__$ArrayPad$ = -4					; size = 4
_lpObj$ = 8						; size = 4
?PegasiaChaosMix@CChaosBox@@QAEHPAUOBJECTSTRUCT@@@Z PROC ; CChaosBox::PegasiaChaosMix, COMDAT
; _this$ = ecx

; 1450 : {

  00000	55		 push	 ebp
  00001	8b ec		 mov	 ebp, esp
  00003	83 ec 24	 sub	 esp, 36			; 00000024H
  00006	a1 00 00 00 00	 mov	 eax, DWORD PTR ___security_cookie
  0000b	33 c5		 xor	 eax, ebp
  0000d	89 45 fc	 mov	 DWORD PTR __$ArrayPad$[ebp], eax
  00010	53		 push	 ebx
  00011	56		 push	 esi
  00012	8b 75 08	 mov	 esi, DWORD PTR _lpObj$[ebp]
  00015	57		 push	 edi

; 1451 : 	lpObj->ChaosLock = TRUE;
; 1452 : 	int UniriaCount = 0;

  00016	33 ff		 xor	 edi, edi
  00018	89 4d dc	 mov	 DWORD PTR _this$[ebp], ecx
  0001b	c7 86 20 12 00
	00 01 00 00 00	 mov	 DWORD PTR [esi+4640], 1
  00025	89 7d e0	 mov	 DWORD PTR _UniriaCount$[ebp], edi

; 1453 : 	int ChoasGemCount = 0;

  00028	89 7d e4	 mov	 DWORD PTR _ChoasGemCount$[ebp], edi

; 1454 : 	int iCharmOfLuckCount = 0;

  0002b	33 db		 xor	 ebx, ebx
  0002d	8d 49 00	 npad	 3
$LL19@PegasiaCha:

; 1457 : 	{
; 1458 : 		if (lpObj->pChaosBox[n].IsItem() == TRUE)

  00030	8b 8e 10 12 00
	00		 mov	 ecx, DWORD PTR [esi+4624]
  00036	03 cf		 add	 ecx, edi
  00038	e8 00 00 00 00	 call	 ?IsItem@CItem@@QAEHXZ	; CItem::IsItem
  0003d	83 f8 01	 cmp	 eax, 1
  00040	75 51		 jne	 SHORT $LN18@PegasiaCha

; 1459 : 		{
; 1460 : 			if (lpObj->pChaosBox[n].m_Type == ITEMGET(13, 2) && lpObj->pChaosBox[n].m_Durability == 255.0f)	// Uniria

  00042	8b 96 10 12 00
	00		 mov	 edx, DWORD PTR [esi+4624]
  00048	0f b7 4c 3a 06	 movzx	 ecx, WORD PTR [edx+edi+6]
  0004d	b8 02 1a 00 00	 mov	 eax, 6658		; 00001a02H
  00052	66 3b c8	 cmp	 cx, ax
  00055	75 18		 jne	 SHORT $LN15@PegasiaCha
  00057	d9 44 3a 24	 fld	 DWORD PTR [edx+edi+36]
  0005b	dd 05 00 00 00
	00		 fld	 QWORD PTR __real@406fe00000000000
  00061	da e9		 fucompp
  00063	df e0		 fnstsw	 ax
  00065	f6 c4 44	 test	 ah, 68			; 00000044H
  00068	7a 05		 jp	 SHORT $LN15@PegasiaCha

; 1461 : 			{
; 1462 : 				UniriaCount++;

  0006a	ff 45 e0	 inc	 DWORD PTR _UniriaCount$[ebp]
  0006d	eb 24		 jmp	 SHORT $LN18@PegasiaCha
$LN15@PegasiaCha:

; 1463 : 			}
; 1464 : 			else if (lpObj->pChaosBox[n].m_Type == ITEMGET(12, 15)) // Chaos Gem

  0006f	b8 0f 18 00 00	 mov	 eax, 6159		; 0000180fH
  00074	66 3b c8	 cmp	 cx, ax
  00077	75 05		 jne	 SHORT $LN13@PegasiaCha

; 1465 : 			{
; 1466 : 				ChoasGemCount++;

  00079	ff 45 e4	 inc	 DWORD PTR _ChoasGemCount$[ebp]
  0007c	eb 15		 jmp	 SHORT $LN18@PegasiaCha
$LN13@PegasiaCha:

; 1467 : 			}
; 1468 : 			else if (lpObj->pChaosBox[n].m_Type == ITEMGET(14, 53))	// Charm Of Luck

  0007e	b8 35 1c 00 00	 mov	 eax, 7221		; 00001c35H
  00083	66 3b c8	 cmp	 cx, ax
  00086	75 0b		 jne	 SHORT $LN18@PegasiaCha

; 1469 : 			{
; 1470 : 				iCharmOfLuckCount += (int)lpObj->pChaosBox[n].m_Durability;

  00088	d9 44 3a 24	 fld	 DWORD PTR [edx+edi+36]
  0008c	e8 00 00 00 00	 call	 __ftol2_sse
  00091	03 d8		 add	 ebx, eax
$LN18@PegasiaCha:

; 1455 : 
; 1456 : 	for (int n = 0; n < CHAOS_BOX_SIZE; n++)

  00093	81 c7 d4 00 00
	00		 add	 edi, 212		; 000000d4H
  00099	81 ff 80 1a 00
	00		 cmp	 edi, 6784		; 00001a80H
  0009f	7c 8f		 jl	 SHORT $LL19@PegasiaCha

; 1471 : 			}
; 1472 : 		}
; 1473 : 	}
; 1474 : 
; 1475 : 	if (UniriaCount != 10 || ChoasGemCount != 1)

  000a1	83 7d e0 0a	 cmp	 DWORD PTR _UniriaCount$[ebp], 10 ; 0000000aH
  000a5	89 5d e8	 mov	 DWORD PTR _iCharmOfLuckCount$[ebp], ebx
  000a8	0f 85 4e 02 00
	00		 jne	 $LN9@PegasiaCha
  000ae	83 7d e4 01	 cmp	 DWORD PTR _ChoasGemCount$[ebp], 1
  000b2	0f 85 44 02 00
	00		 jne	 $LN9@PegasiaCha

; 1478 : 		return FALSE;
; 1479 : 	}
; 1480 : 
; 1481 : 	PMSG_CHAOSMIXRESULT pMsg;
; 1482 : 
; 1483 : 	PHeadSetB((LPBYTE)&pMsg.h, 0x86, sizeof(PMSG_CHAOSMIXRESULT));

  000b8	6a 10		 push	 16			; 00000010H
  000ba	8d 4d ec	 lea	 ecx, DWORD PTR _pMsg$[ebp]
  000bd	68 86 00 00 00	 push	 134			; 00000086H
  000c2	51		 push	 ecx
  000c3	e8 00 00 00 00	 call	 ?PHeadSetB@@YAXPAEEH@Z	; PHeadSetB
  000c8	83 c4 0c	 add	 esp, 12			; 0000000cH

; 1484 : 	pMsg.Result = CB_ERROR;

  000cb	c6 45 ef 00	 mov	 BYTE PTR _pMsg$[ebp+3], 0

; 1485 : 
; 1486 : 	if ( iCharmOfLuckCount > 10 )

  000cf	83 fb 0a	 cmp	 ebx, 10			; 0000000aH
  000d2	7e 27		 jle	 SHORT $LN8@PegasiaCha

; 1487 : 	{
; 1488 : 		lpObj->ChaosLock = FALSE;
; 1489 : 		pMsg.Result = 0xF0;
; 1490 : 		DataSend(lpObj->m_Index, (LPBYTE)&pMsg, pMsg.h.size);

  000d4	0f b6 55 ed	 movzx	 edx, BYTE PTR _pMsg$[ebp+1]
  000d8	8b 0e		 mov	 ecx, DWORD PTR [esi]
  000da	52		 push	 edx
  000db	8d 45 ec	 lea	 eax, DWORD PTR _pMsg$[ebp]
  000de	50		 push	 eax
  000df	51		 push	 ecx
  000e0	c7 86 20 12 00
	00 00 00 00 00	 mov	 DWORD PTR [esi+4640], 0
  000ea	c6 45 ef f0	 mov	 BYTE PTR _pMsg$[ebp+3], 240 ; 000000f0H
  000ee	e8 00 00 00 00	 call	 ?DataSend@@YAHHPAEK@Z	; DataSend
  000f3	83 c4 0c	 add	 esp, 12			; 0000000cH

; 1491 : 
; 1492 : 		return 0;

  000f6	e9 0b 02 00 00	 jmp	 $LN25@PegasiaCha
$LN8@PegasiaCha:

; 1493 : 	}
; 1494 : 
; 1495 : 	int nChaosNeedMoney = 500000;
; 1496 : 	int iChaosTaxMoney = (int)((__int64)nChaosNeedMoney * (__int64)g_CastleSiegeSync.GetTaxRateChaos(lpObj->m_Index) / (__int64)100);

  000fb	8b 16		 mov	 edx, DWORD PTR [esi]
  000fd	52		 push	 edx
  000fe	b9 00 00 00 00	 mov	 ecx, OFFSET ?g_CastleSiegeSync@@3VCCastleSiegeSync@@A ; g_CastleSiegeSync
  00103	e8 00 00 00 00	 call	 ?GetTaxRateChaos@CCastleSiegeSync@@QAEHH@Z ; CCastleSiegeSync::GetTaxRateChaos
  00108	6a 00		 push	 0
  0010a	99		 cdq
  0010b	68 20 a1 07 00	 push	 500000			; 0007a120H
  00110	52		 push	 edx
  00111	50		 push	 eax
  00112	e8 00 00 00 00	 call	 __allmul
  00117	6a 00		 push	 0
  00119	6a 64		 push	 100			; 00000064H
  0011b	52		 push	 edx
  0011c	50		 push	 eax
  0011d	e8 00 00 00 00	 call	 __alldiv
  00122	8b d8		 mov	 ebx, eax

; 1497 : 
; 1498 : 	if ( iChaosTaxMoney < 0 )

  00124	85 db		 test	 ebx, ebx
  00126	79 02		 jns	 SHORT $LN7@PegasiaCha

; 1499 : 	{
; 1500 : 		iChaosTaxMoney = 0;

  00128	33 db		 xor	 ebx, ebx
$LN7@PegasiaCha:

; 1501 : 	}
; 1502 : 
; 1503 : 	nChaosNeedMoney += iChaosTaxMoney;

  0012a	8d bb 20 a1 07
	00		 lea	 edi, DWORD PTR [ebx+500000]

; 1504 : 
; 1505 : 	if ( nChaosNeedMoney < 0 )

  00130	85 ff		 test	 edi, edi
  00132	79 02		 jns	 SHORT $LN6@PegasiaCha

; 1506 : 	{
; 1507 : 		nChaosNeedMoney = 0;

  00134	33 ff		 xor	 edi, edi
$LN6@PegasiaCha:

; 1508 : 	}
; 1509 : 
; 1510 : 	if ( lpObj->Money < nChaosNeedMoney )

  00136	39 be cc 00 00
	00		 cmp	 DWORD PTR [esi+204], edi
  0013c	7d 44		 jge	 SHORT $LN5@PegasiaCha

; 1511 : 	{
; 1512 : 		lpObj->ChaosLock = FALSE;
; 1513 : 		pMsg.Result = CB_NOT_ENOUGH_ZEN;
; 1514 : 		
; 1515 : 		DataSend(lpObj->m_Index, (BYTE *)&pMsg, pMsg.h.size);

  0013e	0f b6 45 ed	 movzx	 eax, BYTE PTR _pMsg$[ebp+1]
  00142	8b 16		 mov	 edx, DWORD PTR [esi]
  00144	50		 push	 eax
  00145	8d 4d ec	 lea	 ecx, DWORD PTR _pMsg$[ebp]
  00148	51		 push	 ecx
  00149	52		 push	 edx
  0014a	c7 86 20 12 00
	00 00 00 00 00	 mov	 DWORD PTR [esi+4640], 0
  00154	c6 45 ef 02	 mov	 BYTE PTR _pMsg$[ebp+3], 2
  00158	e8 00 00 00 00	 call	 ?DataSend@@YAHHPAEK@Z	; DataSend
  0015d	83 c4 0c	 add	 esp, 12			; 0000000cH
  00160	5f		 pop	 edi

; 1516 : 		lpObj->ChaosLock = FALSE;

  00161	c7 86 20 12 00
	00 00 00 00 00	 mov	 DWORD PTR [esi+4640], 0
  0016b	5e		 pop	 esi

; 1517 : 
; 1518 : 		return TRUE;

  0016c	b8 01 00 00 00	 mov	 eax, 1
  00171	5b		 pop	 ebx

; 1568 : 
; 1569 : 		lpObj->ChaosLock = FALSE;
; 1570 : 		return FALSE;
; 1571 : 	}
; 1572 : }

  00172	8b 4d fc	 mov	 ecx, DWORD PTR __$ArrayPad$[ebp]
  00175	33 cd		 xor	 ecx, ebp
  00177	e8 00 00 00 00	 call	 @__security_check_cookie@4
  0017c	8b e5		 mov	 esp, ebp
  0017e	5d		 pop	 ebp
  0017f	c2 04 00	 ret	 4
$LN5@PegasiaCha:

; 1519 : 	}
; 1520 : 
; 1521 : 	LogChaosItem(lpObj, "DinorantMix");

  00182	8b 4d dc	 mov	 ecx, DWORD PTR _this$[ebp]
  00185	68 00 00 00 00	 push	 OFFSET ??_C@_0M@OEKEBNDM@DinorantMix?$AA@
  0018a	56		 push	 esi
  0018b	e8 00 00 00 00	 call	 ?LogChaosItem@CChaosBox@@QAEXPAUOBJECTSTRUCT@@PAD@Z ; CChaosBox::LogChaosItem

; 1522 : 	LogAddTD("[DinorantMix] Chaos Mix Start");

  00190	68 00 00 00 00	 push	 OFFSET ??_C@_0BO@BKFHPCAO@?$FLDinorantMix?$FN?5Chaos?5Mix?5Start?$AA@
  00195	ff 15 00 00 00
	00		 call	 DWORD PTR ?LogAddTD@@3P6AXPADZZA ; LogAddTD

; 1523 : 	lpObj->ChaosSuccessRate = 70;	// Succes Rate for Dinorant
; 1524 : 	lpObj->ChaosSuccessRate += iCharmOfLuckCount;

  0019b	8b 45 e8	 mov	 eax, DWORD PTR _iCharmOfLuckCount$[ebp]

; 1525 : 	lpObj->Money -= nChaosNeedMoney;

  0019e	29 be cc 00 00
	00		 sub	 DWORD PTR [esi+204], edi
  001a4	83 c4 04	 add	 esp, 4
  001a7	83 c0 46	 add	 eax, 70			; 00000046H

; 1526 : 
; 1527 : 	g_CastleSiegeSync.AddTributeMoney(iChaosTaxMoney);

  001aa	53		 push	 ebx
  001ab	b9 00 00 00 00	 mov	 ecx, OFFSET ?g_CastleSiegeSync@@3VCCastleSiegeSync@@A ; g_CastleSiegeSync
  001b0	89 86 1c 12 00
	00		 mov	 DWORD PTR [esi+4636], eax
  001b6	e8 00 00 00 00	 call	 ?AddTributeMoney@CCastleSiegeSync@@QAEXH@Z ; CCastleSiegeSync::AddTributeMoney

; 1528 : 	GCMoneySend(lpObj->m_Index, lpObj->Money);

  001bb	8b 8e cc 00 00
	00		 mov	 ecx, DWORD PTR [esi+204]
  001c1	8b 16		 mov	 edx, DWORD PTR [esi]
  001c3	51		 push	 ecx
  001c4	52		 push	 edx
  001c5	e8 00 00 00 00	 call	 ?GCMoneySend@@YAXHK@Z	; GCMoneySend
  001ca	83 c4 08	 add	 esp, 8

; 1529 : 
; 1530 : 	if ( (rand()%100 ) < lpObj->ChaosSuccessRate )

  001cd	e8 00 00 00 00	 call	 _rand
  001d2	99		 cdq
  001d3	b9 64 00 00 00	 mov	 ecx, 100		; 00000064H
  001d8	f7 f9		 idiv	 ecx
  001da	3b 96 1c 12 00
	00		 cmp	 edx, DWORD PTR [esi+4636]
  001e0	0f 8d cb 00 00
	00		 jge	 $LN4@PegasiaCha

; 1531 : 	{
; 1532 : 		int Dinorant = ITEMGET(13,3);
; 1533 : 		int Option3 = 0;

  001e6	33 db		 xor	 ebx, ebx

; 1534 : 
; 1535 : 		if ( (rand()% 100) < 30 )

  001e8	e8 00 00 00 00	 call	 _rand
  001ed	99		 cdq
  001ee	b9 64 00 00 00	 mov	 ecx, 100		; 00000064H
  001f3	f7 f9		 idiv	 ecx
  001f5	83 fa 1e	 cmp	 edx, 30			; 0000001eH
  001f8	7d 3f		 jge	 SHORT $LN24@PegasiaCha

; 1536 : 		{
; 1537 : 			Option3 = 1 <<  ((rand()%3)) ;

  001fa	e8 00 00 00 00	 call	 _rand
  001ff	99		 cdq
  00200	b9 03 00 00 00	 mov	 ecx, 3
  00205	f7 f9		 idiv	 ecx
  00207	bb 01 00 00 00	 mov	 ebx, 1
  0020c	8b ca		 mov	 ecx, edx
  0020e	d3 e3		 shl	 ebx, cl

; 1538 : 
; 1539 : 			if ( (rand()%5) == 0 )

  00210	e8 00 00 00 00	 call	 _rand
  00215	99		 cdq
  00216	b9 05 00 00 00	 mov	 ecx, 5
  0021b	f7 f9		 idiv	 ecx
  0021d	85 d2		 test	 edx, edx
  0021f	75 18		 jne	 SHORT $LN24@PegasiaCha

; 1540 : 			{
; 1541 : 				Option3 |= 1 << (rand()%3);

  00221	e8 00 00 00 00	 call	 _rand
  00226	99		 cdq
  00227	b9 03 00 00 00	 mov	 ecx, 3
  0022c	f7 f9		 idiv	 ecx
  0022e	b8 01 00 00 00	 mov	 eax, 1
  00233	8b ca		 mov	 ecx, edx
  00235	d3 e0		 shl	 eax, cl
  00237	0b d8		 or	 ebx, eax
$LN24@PegasiaCha:

; 1542 : 			}
; 1543 : 		}
; 1544 : 
; 1545 : 		ItemSerialCreateSend(lpObj->m_Index, -1, 0, 0, Dinorant, 0, 255, 1, 0, Option3, -1, 0, 0);

  00239	6a 00		 push	 0
  0023b	6a 00		 push	 0
  0023d	6a 00		 push	 0
  0023f	8b 0e		 mov	 ecx, DWORD PTR [esi]
  00241	6a 00		 push	 0
  00243	6a ff		 push	 -1
  00245	53		 push	 ebx
  00246	6a 00		 push	 0
  00248	6a 01		 push	 1
  0024a	68 ff 00 00 00	 push	 255			; 000000ffH
  0024f	6a 00		 push	 0
  00251	68 03 1a 00 00	 push	 6659			; 00001a03H
  00256	6a 00		 push	 0
  00258	6a 00		 push	 0
  0025a	68 ff 00 00 00	 push	 255			; 000000ffH
  0025f	51		 push	 ecx
  00260	e8 00 00 00 00	 call	 ?ItemSerialCreateSend@@YAXHEEEHEEEEEHEEEPAE@Z ; ItemSerialCreateSend

; 1546 : 		gObjInventoryCommit(lpObj->m_Index);

  00265	8b 16		 mov	 edx, DWORD PTR [esi]
  00267	52		 push	 edx
  00268	e8 00 00 00 00	 call	 ?gObjInventoryCommit@@YAHH@Z ; gObjInventoryCommit

; 1547 : 
; 1548 : 		LogAddTD("[DinorantMix] [%s][%s] CBMix Success %d Money : %d-%d, CharmRate : %d",
; 1549 : 			lpObj->AccountID, lpObj->Name, lpObj->ChaosSuccessRate, lpObj->Money, nChaosNeedMoney, iCharmOfLuckCount);

  0026d	8b 45 e8	 mov	 eax, DWORD PTR _iCharmOfLuckCount$[ebp]
  00270	8b 8e cc 00 00
	00		 mov	 ecx, DWORD PTR [esi+204]
  00276	8b 96 1c 12 00
	00		 mov	 edx, DWORD PTR [esi+4636]
  0027c	83 c4 40	 add	 esp, 64			; 00000040H
  0027f	50		 push	 eax
  00280	57		 push	 edi
  00281	51		 push	 ecx
  00282	52		 push	 edx
  00283	8d 46 5d	 lea	 eax, DWORD PTR [esi+93]
  00286	50		 push	 eax
  00287	83 c6 52	 add	 esi, 82			; 00000052H
  0028a	56		 push	 esi
  0028b	68 00 00 00 00	 push	 OFFSET ??_C@_0EG@BMPMHKIC@?$FLDinorantMix?$FN?5?$FL?$CFs?$FN?$FL?$CFs?$FN?5CBMix?5Suc@
  00290	ff 15 00 00 00
	00		 call	 DWORD PTR ?LogAddTD@@3P6AXPADZZA ; LogAddTD
  00296	83 c4 1c	 add	 esp, 28			; 0000001cH
  00299	5f		 pop	 edi
  0029a	5e		 pop	 esi

; 1550 : 
; 1551 : #if( __4GAMERS__ == 1 )
; 1552 : 			g_Achievements.GD_UpdateMixData(lpObj, true);
; 1553 : #endif
; 1554 : 
; 1555 : 		return TRUE;

  0029b	b8 01 00 00 00	 mov	 eax, 1
  002a0	5b		 pop	 ebx

; 1568 : 
; 1569 : 		lpObj->ChaosLock = FALSE;
; 1570 : 		return FALSE;
; 1571 : 	}
; 1572 : }

  002a1	8b 4d fc	 mov	 ecx, DWORD PTR __$ArrayPad$[ebp]
  002a4	33 cd		 xor	 ecx, ebp
  002a6	e8 00 00 00 00	 call	 @__security_check_cookie@4
  002ab	8b e5		 mov	 esp, ebp
  002ad	5d		 pop	 ebp
  002ae	c2 04 00	 ret	 4
$LN4@PegasiaCha:

; 1556 : 	}
; 1557 : 	else
; 1558 : 	{
; 1559 : #if( __4GAMERS__ == 1 )
; 1560 : 			g_Achievements.GD_UpdateMixData(lpObj, false);
; 1561 : #endif
; 1562 : 		ChaosBoxInit(lpObj);	// Errase Chaos Box

  002b1	8b 4d dc	 mov	 ecx, DWORD PTR _this$[ebp]
  002b4	56		 push	 esi
  002b5	e8 00 00 00 00	 call	 ?ChaosBoxInit@CChaosBox@@QAEHPAUOBJECTSTRUCT@@@Z ; CChaosBox::ChaosBoxInit

; 1563 : 		GCUserChaosBoxSend(lpObj, 0);

  002ba	6a 00		 push	 0
  002bc	56		 push	 esi
  002bd	e8 00 00 00 00	 call	 ?GCUserChaosBoxSend@@YAXPAUOBJECTSTRUCT@@H@Z ; GCUserChaosBoxSend

; 1564 : 		DataSend(lpObj->m_Index, (BYTE *)&pMsg, pMsg.h.size);

  002c2	0f b6 4d ed	 movzx	 ecx, BYTE PTR _pMsg$[ebp+1]
  002c6	8b 06		 mov	 eax, DWORD PTR [esi]
  002c8	51		 push	 ecx
  002c9	8d 55 ec	 lea	 edx, DWORD PTR _pMsg$[ebp]
  002cc	52		 push	 edx
  002cd	50		 push	 eax
  002ce	e8 00 00 00 00	 call	 ?DataSend@@YAHHPAEK@Z	; DataSend

; 1565 : 
; 1566 : 		LogAddTD("[DinorantMix] [%s][%s] CBMix Fail %d Money : %d-%d, CharmRate : %d",
; 1567 : 			lpObj->AccountID, lpObj->Name, lpObj->ChaosSuccessRate, lpObj->Money, nChaosNeedMoney, iCharmOfLuckCount);

  002d3	8b 4d e8	 mov	 ecx, DWORD PTR _iCharmOfLuckCount$[ebp]
  002d6	8b 96 cc 00 00
	00		 mov	 edx, DWORD PTR [esi+204]
  002dc	8b 86 1c 12 00
	00		 mov	 eax, DWORD PTR [esi+4636]
  002e2	51		 push	 ecx
  002e3	57		 push	 edi
  002e4	52		 push	 edx
  002e5	50		 push	 eax
  002e6	8d 4e 5d	 lea	 ecx, DWORD PTR [esi+93]
  002e9	51		 push	 ecx
  002ea	8d 56 52	 lea	 edx, DWORD PTR [esi+82]
  002ed	52		 push	 edx
  002ee	68 00 00 00 00	 push	 OFFSET ??_C@_0ED@JKKAJEKA@?$FLDinorantMix?$FN?5?$FL?$CFs?$FN?$FL?$CFs?$FN?5CBMix?5Fai@
  002f3	ff 15 00 00 00
	00		 call	 DWORD PTR ?LogAddTD@@3P6AXPADZZA ; LogAddTD
  002f9	83 c4 30	 add	 esp, 48			; 00000030H
$LN9@PegasiaCha:

; 1476 : 	{
; 1477 : 		lpObj->ChaosLock = FALSE;

  002fc	c7 86 20 12 00
	00 00 00 00 00	 mov	 DWORD PTR [esi+4640], 0
$LN25@PegasiaCha:

; 1568 : 
; 1569 : 		lpObj->ChaosLock = FALSE;
; 1570 : 		return FALSE;
; 1571 : 	}
; 1572 : }

  00306	8b 4d fc	 mov	 ecx, DWORD PTR __$ArrayPad$[ebp]
  00309	5f		 pop	 edi
  0030a	5e		 pop	 esi
  0030b	33 cd		 xor	 ecx, ebp
  0030d	33 c0		 xor	 eax, eax
  0030f	5b		 pop	 ebx
  00310	e8 00 00 00 00	 call	 @__security_check_cookie@4
  00315	8b e5		 mov	 esp, ebp
  00317	5d		 pop	 ebp
  00318	c2 04 00	 ret	 4
?PegasiaChaosMix@CChaosBox@@QAEHPAUOBJECTSTRUCT@@@Z ENDP ; CChaosBox::PegasiaChaosMix
_TEXT	ENDS
PUBLIC	??_C@_0EB@FKBAIBLL@?$FLCircleMix?$FN?5?$FL?$CFs?$FN?$FL?$CFs?$FN?5CBMix?5Fail?5@ ; `string'
PUBLIC	??_C@_0EE@PAFLGDEL@?$FLCircleMix?$FN?5?$FL?$CFs?$FN?$FL?$CFs?$FN?5CBMix?5Succe@ ; `string'
PUBLIC	??_C@_0BM@EFIHICLO@?$FLCircleMix?$FN?5Chaos?5Mix?5Start?$AA@ ; `string'
PUBLIC	??_C@_09CKGJGION@CircleMix?$AA@			; `string'
PUBLIC	__$ArrayPad$
PUBLIC	?CircleChaosMix@CChaosBox@@QAEHPAUOBJECTSTRUCT@@@Z ; CChaosBox::CircleChaosMix
;	COMDAT ??_C@_0EB@FKBAIBLL@?$FLCircleMix?$FN?5?$FL?$CFs?$FN?$FL?$CFs?$FN?5CBMix?5Fail?5@
CONST	SEGMENT
??_C@_0EB@FKBAIBLL@?$FLCircleMix?$FN?5?$FL?$CFs?$FN?$FL?$CFs?$FN?5CBMix?5Fail?5@ DB '['
	DB	'CircleMix] [%s][%s] CBMix Fail %d Money : %d-%d, CharmRate : '
	DB	'%d', 00H					; `string'
CONST	ENDS
;	COMDAT ??_C@_0EE@PAFLGDEL@?$FLCircleMix?$FN?5?$FL?$CFs?$FN?$FL?$CFs?$FN?5CBMix?5Succe@
CONST	SEGMENT
??_C@_0EE@PAFLGDEL@?$FLCircleMix?$FN?5?$FL?$CFs?$FN?$FL?$CFs?$FN?5CBMix?5Succe@ DB '['
	DB	'CircleMix] [%s][%s] CBMix Success %d Money : %d-%d, CharmRate'
	DB	' : %d', 00H					; `string'
CONST	ENDS
;	COMDAT ??_C@_0BM@EFIHICLO@?$FLCircleMix?$FN?5Chaos?5Mix?5Start?$AA@
CONST	SEGMENT
??_C@_0BM@EFIHICLO@?$FLCircleMix?$FN?5Chaos?5Mix?5Start?$AA@ DB '[CircleM'
	DB	'ix] Chaos Mix Start', 00H			; `string'
CONST	ENDS
;	COMDAT ??_C@_09CKGJGION@CircleMix?$AA@
CONST	SEGMENT
??_C@_09CKGJGION@CircleMix?$AA@ DB 'CircleMix', 00H	; `string'
; Function compile flags: /Ogtp
CONST	ENDS
;	COMDAT ?CircleChaosMix@CChaosBox@@QAEHPAUOBJECTSTRUCT@@@Z
_TEXT	SEGMENT
_this$ = -36						; size = 4
_CreatureGemCount$ = -32				; size = 4
_ChoasGemCount$ = -28					; size = 4
_iCharmOfLuckCount$ = -24				; size = 4
_pMsg$ = -20						; size = 16
__$ArrayPad$ = -4					; size = 4
_lpObj$ = 8						; size = 4
?CircleChaosMix@CChaosBox@@QAEHPAUOBJECTSTRUCT@@@Z PROC	; CChaosBox::CircleChaosMix, COMDAT
; _this$ = ecx

; 1580 : {

  00000	55		 push	 ebp
  00001	8b ec		 mov	 ebp, esp
  00003	83 ec 24	 sub	 esp, 36			; 00000024H
  00006	a1 00 00 00 00	 mov	 eax, DWORD PTR ___security_cookie
  0000b	33 c5		 xor	 eax, ebp
  0000d	89 45 fc	 mov	 DWORD PTR __$ArrayPad$[ebp], eax
  00010	53		 push	 ebx
  00011	56		 push	 esi
  00012	8b 75 08	 mov	 esi, DWORD PTR _lpObj$[ebp]
  00015	57		 push	 edi

; 1581 : 	lpObj->ChaosLock = TRUE;
; 1582 : 
; 1583 : 	int CreatureGemCount = 0;

  00016	33 ff		 xor	 edi, edi
  00018	89 4d dc	 mov	 DWORD PTR _this$[ebp], ecx
  0001b	c7 86 20 12 00
	00 01 00 00 00	 mov	 DWORD PTR [esi+4640], 1
  00025	89 7d e0	 mov	 DWORD PTR _CreatureGemCount$[ebp], edi

; 1584 : 	int ChoasGemCount = 0;

  00028	89 7d e4	 mov	 DWORD PTR _ChoasGemCount$[ebp], edi

; 1585 : 	int iCharmOfLuckCount = 0;

  0002b	33 db		 xor	 ebx, ebx
  0002d	8d 49 00	 npad	 3
$LL26@CircleChao:

; 1588 : 	{
; 1589 : 		if ( lpObj->pChaosBox[n].IsItem() == TRUE )

  00030	8b 8e 10 12 00
	00		 mov	 ecx, DWORD PTR [esi+4624]
  00036	03 cf		 add	 ecx, edi
  00038	e8 00 00 00 00	 call	 ?IsItem@CItem@@QAEHXZ	; CItem::IsItem
  0003d	83 f8 01	 cmp	 eax, 1
  00040	75 3e		 jne	 SHORT $LN25@CircleChao

; 1590 : 		{
; 1591 : 			if ( lpObj->pChaosBox[n].m_Type == ITEMGET(14,22) )	// Jewel of Creation

  00042	8b 8e 10 12 00
	00		 mov	 ecx, DWORD PTR [esi+4624]
  00048	0f b7 44 39 06	 movzx	 eax, WORD PTR [ecx+edi+6]
  0004d	ba 16 1c 00 00	 mov	 edx, 7190		; 00001c16H
  00052	66 3b c2	 cmp	 ax, dx
  00055	75 05		 jne	 SHORT $LN22@CircleChao

; 1592 : 			{
; 1593 : 				CreatureGemCount++;

  00057	ff 45 e0	 inc	 DWORD PTR _CreatureGemCount$[ebp]
  0005a	eb 24		 jmp	 SHORT $LN25@CircleChao
$LN22@CircleChao:

; 1594 : 			}
; 1595 : 			else if ( lpObj->pChaosBox[n].m_Type == ITEMGET(12,15) ) // Chaos Gem

  0005c	ba 0f 18 00 00	 mov	 edx, 6159		; 0000180fH
  00061	66 3b c2	 cmp	 ax, dx
  00064	75 05		 jne	 SHORT $LN20@CircleChao

; 1596 : 			{
; 1597 : 				ChoasGemCount++;

  00066	ff 45 e4	 inc	 DWORD PTR _ChoasGemCount$[ebp]
  00069	eb 15		 jmp	 SHORT $LN25@CircleChao
$LN20@CircleChao:

; 1598 : 			}
; 1599 : 			else if ( lpObj->pChaosBox[n].m_Type == ITEMGET(14,53) )	// Charm Of Luck

  0006b	ba 35 1c 00 00	 mov	 edx, 7221		; 00001c35H
  00070	66 3b c2	 cmp	 ax, dx
  00073	75 0b		 jne	 SHORT $LN25@CircleChao

; 1600 : 			{
; 1601 : 				iCharmOfLuckCount += (int)lpObj->pChaosBox[n].m_Durability;

  00075	d9 44 39 24	 fld	 DWORD PTR [ecx+edi+36]
  00079	e8 00 00 00 00	 call	 __ftol2_sse
  0007e	03 d8		 add	 ebx, eax
$LN25@CircleChao:

; 1586 : 
; 1587 : 	for ( int n=0;n<CHAOS_BOX_SIZE;n++)

  00080	81 c7 d4 00 00
	00		 add	 edi, 212		; 000000d4H
  00086	81 ff 80 1a 00
	00		 cmp	 edi, 6784		; 00001a80H
  0008c	7c a2		 jl	 SHORT $LL26@CircleChao

; 1602 : 			}
; 1603 : 		}
; 1604 : 	}
; 1605 : 
; 1606 : 	if ( CreatureGemCount != 1 || ChoasGemCount != 1 )

  0008e	bf 01 00 00 00	 mov	 edi, 1
  00093	89 5d e8	 mov	 DWORD PTR _iCharmOfLuckCount$[ebp], ebx
  00096	39 7d e0	 cmp	 DWORD PTR _CreatureGemCount$[ebp], edi
  00099	0f 85 8e 02 00
	00		 jne	 $LN16@CircleChao
  0009f	39 7d e4	 cmp	 DWORD PTR _ChoasGemCount$[ebp], edi
  000a2	0f 85 85 02 00
	00		 jne	 $LN16@CircleChao

; 1607 : 	{
; 1608 : 		return FALSE;
; 1609 : 	}
; 1610 : 
; 1611 : 	PMSG_CHAOSMIXRESULT pMsg;
; 1612 : 
; 1613 : 	PHeadSetB((LPBYTE)&pMsg.h, 0x86, sizeof(PMSG_CHAOSMIXRESULT));

  000a8	6a 10		 push	 16			; 00000010H
  000aa	8d 45 ec	 lea	 eax, DWORD PTR _pMsg$[ebp]
  000ad	68 86 00 00 00	 push	 134			; 00000086H
  000b2	50		 push	 eax
  000b3	e8 00 00 00 00	 call	 ?PHeadSetB@@YAXPAEEH@Z	; PHeadSetB
  000b8	83 c4 0c	 add	 esp, 12			; 0000000cH

; 1614 : 	pMsg.Result = CB_ERROR;

  000bb	c6 45 ef 00	 mov	 BYTE PTR _pMsg$[ebp+3], 0

; 1615 : 
; 1616 : 	if ( iCharmOfLuckCount > 10 )

  000bf	83 fb 0a	 cmp	 ebx, 10			; 0000000aH
  000c2	7e 37		 jle	 SHORT $LN15@CircleChao

; 1617 : 	{
; 1618 : 		lpObj->ChaosLock = FALSE;
; 1619 : 		pMsg.Result = 0xF0;
; 1620 : 		DataSend(lpObj->m_Index, (LPBYTE)&pMsg, pMsg.h.size);

  000c4	0f b6 4d ed	 movzx	 ecx, BYTE PTR _pMsg$[ebp+1]
  000c8	8b 06		 mov	 eax, DWORD PTR [esi]
  000ca	51		 push	 ecx
  000cb	8d 55 ec	 lea	 edx, DWORD PTR _pMsg$[ebp]
  000ce	52		 push	 edx
  000cf	50		 push	 eax
  000d0	c7 86 20 12 00
	00 00 00 00 00	 mov	 DWORD PTR [esi+4640], 0
  000da	c6 45 ef f0	 mov	 BYTE PTR _pMsg$[ebp+3], 240 ; 000000f0H
  000de	e8 00 00 00 00	 call	 ?DataSend@@YAHHPAEK@Z	; DataSend
  000e3	83 c4 0c	 add	 esp, 12			; 0000000cH

; 1621 : 
; 1622 : 		return 1;

  000e6	8b c7		 mov	 eax, edi
  000e8	5f		 pop	 edi
  000e9	5e		 pop	 esi
  000ea	5b		 pop	 ebx

; 1719 : 
; 1720 : 		return FALSE;
; 1721 : 	}
; 1722 : }

  000eb	8b 4d fc	 mov	 ecx, DWORD PTR __$ArrayPad$[ebp]
  000ee	33 cd		 xor	 ecx, ebp
  000f0	e8 00 00 00 00	 call	 @__security_check_cookie@4
  000f5	8b e5		 mov	 esp, ebp
  000f7	5d		 pop	 ebp
  000f8	c2 04 00	 ret	 4
$LN15@CircleChao:

; 1623 : 	}
; 1624 : 
; 1625 : 	if ( lpObj->Level < 10 )

  000fb	66 83 be 96 00
	00 00 0a	 cmp	 WORD PTR [esi+150], 10	; 0000000aH
  00103	7d 37		 jge	 SHORT $LN14@CircleChao

; 1626 : 	{
; 1627 : 		pMsg.Result = CB_LOW_LEVEL_USER;
; 1628 : 
; 1629 : 		DataSend(lpObj->m_Index, (BYTE *)&pMsg, pMsg.h.size);

  00105	0f b6 4d ed	 movzx	 ecx, BYTE PTR _pMsg$[ebp+1]
  00109	8b 06		 mov	 eax, DWORD PTR [esi]
  0010b	51		 push	 ecx
  0010c	8d 55 ec	 lea	 edx, DWORD PTR _pMsg$[ebp]
  0010f	52		 push	 edx
  00110	50		 push	 eax
  00111	c6 45 ef 04	 mov	 BYTE PTR _pMsg$[ebp+3], 4
  00115	e8 00 00 00 00	 call	 ?DataSend@@YAHHPAEK@Z	; DataSend
  0011a	83 c4 0c	 add	 esp, 12			; 0000000cH

; 1630 : 		lpObj->ChaosLock = FALSE;
; 1631 : 
; 1632 : 		return TRUE;

  0011d	8b c7		 mov	 eax, edi
  0011f	5f		 pop	 edi
  00120	c7 86 20 12 00
	00 00 00 00 00	 mov	 DWORD PTR [esi+4640], 0
  0012a	5e		 pop	 esi
  0012b	5b		 pop	 ebx

; 1719 : 
; 1720 : 		return FALSE;
; 1721 : 	}
; 1722 : }

  0012c	8b 4d fc	 mov	 ecx, DWORD PTR __$ArrayPad$[ebp]
  0012f	33 cd		 xor	 ecx, ebp
  00131	e8 00 00 00 00	 call	 @__security_check_cookie@4
  00136	8b e5		 mov	 esp, ebp
  00138	5d		 pop	 ebp
  00139	c2 04 00	 ret	 4
$LN14@CircleChao:

; 1633 : 	}
; 1634 : 
; 1635 : 	int nChaosNeedMoney = 3000000;
; 1636 : 	int iChaosTaxMoney = (int)((__int64)nChaosNeedMoney * (__int64)g_CastleSiegeSync.GetTaxRateChaos(lpObj->m_Index) / (__int64)100);

  0013c	8b 0e		 mov	 ecx, DWORD PTR [esi]
  0013e	51		 push	 ecx
  0013f	b9 00 00 00 00	 mov	 ecx, OFFSET ?g_CastleSiegeSync@@3VCCastleSiegeSync@@A ; g_CastleSiegeSync
  00144	e8 00 00 00 00	 call	 ?GetTaxRateChaos@CCastleSiegeSync@@QAEHH@Z ; CCastleSiegeSync::GetTaxRateChaos
  00149	6a 00		 push	 0
  0014b	99		 cdq
  0014c	68 c0 c6 2d 00	 push	 3000000			; 002dc6c0H
  00151	52		 push	 edx
  00152	50		 push	 eax
  00153	e8 00 00 00 00	 call	 __allmul
  00158	6a 00		 push	 0
  0015a	6a 64		 push	 100			; 00000064H
  0015c	52		 push	 edx
  0015d	50		 push	 eax
  0015e	e8 00 00 00 00	 call	 __alldiv
  00163	8b d8		 mov	 ebx, eax

; 1637 : 
; 1638 : 	if ( iChaosTaxMoney < 0 )

  00165	85 db		 test	 ebx, ebx
  00167	79 02		 jns	 SHORT $LN13@CircleChao

; 1639 : 	{
; 1640 : 		iChaosTaxMoney = 0;

  00169	33 db		 xor	 ebx, ebx
$LN13@CircleChao:

; 1641 : 	}
; 1642 : 
; 1643 : 	nChaosNeedMoney += iChaosTaxMoney;

  0016b	8d bb c0 c6 2d
	00		 lea	 edi, DWORD PTR [ebx+3000000]

; 1644 : 
; 1645 : 	if ( nChaosNeedMoney < 0 )

  00171	85 ff		 test	 edi, edi
  00173	79 02		 jns	 SHORT $LN12@CircleChao

; 1646 : 	{
; 1647 : 		nChaosNeedMoney = 0;

  00175	33 ff		 xor	 edi, edi
$LN12@CircleChao:

; 1648 : 	}
; 1649 : 
; 1650 : 	if ( lpObj->Money < nChaosNeedMoney )

  00177	39 be cc 00 00
	00		 cmp	 DWORD PTR [esi+204], edi
  0017d	7d 44		 jge	 SHORT $LN11@CircleChao

; 1651 : 	{
; 1652 : 		lpObj->ChaosLock = FALSE;
; 1653 : 		pMsg.Result = CB_NOT_ENOUGH_ZEN;
; 1654 : 		
; 1655 : 		DataSend(lpObj->m_Index, (BYTE *)&pMsg, pMsg.h.size);

  0017f	0f b6 55 ed	 movzx	 edx, BYTE PTR _pMsg$[ebp+1]
  00183	8b 0e		 mov	 ecx, DWORD PTR [esi]
  00185	52		 push	 edx
  00186	8d 45 ec	 lea	 eax, DWORD PTR _pMsg$[ebp]
  00189	50		 push	 eax
  0018a	51		 push	 ecx
  0018b	c7 86 20 12 00
	00 00 00 00 00	 mov	 DWORD PTR [esi+4640], 0
  00195	c6 45 ef 02	 mov	 BYTE PTR _pMsg$[ebp+3], 2
  00199	e8 00 00 00 00	 call	 ?DataSend@@YAHHPAEK@Z	; DataSend
  0019e	83 c4 0c	 add	 esp, 12			; 0000000cH
  001a1	5f		 pop	 edi

; 1656 : 		lpObj->ChaosLock = FALSE;

  001a2	c7 86 20 12 00
	00 00 00 00 00	 mov	 DWORD PTR [esi+4640], 0
  001ac	5e		 pop	 esi

; 1657 : 
; 1658 : 		return TRUE;

  001ad	b8 01 00 00 00	 mov	 eax, 1
  001b2	5b		 pop	 ebx

; 1719 : 
; 1720 : 		return FALSE;
; 1721 : 	}
; 1722 : }

  001b3	8b 4d fc	 mov	 ecx, DWORD PTR __$ArrayPad$[ebp]
  001b6	33 cd		 xor	 ecx, ebp
  001b8	e8 00 00 00 00	 call	 @__security_check_cookie@4
  001bd	8b e5		 mov	 esp, ebp
  001bf	5d		 pop	 ebp
  001c0	c2 04 00	 ret	 4
$LN11@CircleChao:

; 1659 : 	}
; 1660 : 
; 1661 : 	LogChaosItem(lpObj, "CircleMix");

  001c3	8b 4d dc	 mov	 ecx, DWORD PTR _this$[ebp]
  001c6	68 00 00 00 00	 push	 OFFSET ??_C@_09CKGJGION@CircleMix?$AA@
  001cb	56		 push	 esi
  001cc	e8 00 00 00 00	 call	 ?LogChaosItem@CChaosBox@@QAEXPAUOBJECTSTRUCT@@PAD@Z ; CChaosBox::LogChaosItem

; 1662 : 	LogAddTD("[CircleMix] Chaos Mix Start");

  001d1	68 00 00 00 00	 push	 OFFSET ??_C@_0BM@EFIHICLO@?$FLCircleMix?$FN?5Chaos?5Mix?5Start?$AA@
  001d6	ff 15 00 00 00
	00		 call	 DWORD PTR ?LogAddTD@@3P6AXPADZZA ; LogAddTD

; 1663 : 	lpObj->ChaosSuccessRate = 90;	// Succes Rate for Fruit
; 1664 : 	lpObj->ChaosSuccessRate += iCharmOfLuckCount;

  001dc	8b 55 e8	 mov	 edx, DWORD PTR _iCharmOfLuckCount$[ebp]

; 1665 : 	lpObj->Money -= nChaosNeedMoney;

  001df	29 be cc 00 00
	00		 sub	 DWORD PTR [esi+204], edi
  001e5	83 c4 04	 add	 esp, 4
  001e8	83 c2 5a	 add	 edx, 90			; 0000005aH

; 1666 : 
; 1667 : 	g_CastleSiegeSync.AddTributeMoney(iChaosTaxMoney);

  001eb	53		 push	 ebx
  001ec	b9 00 00 00 00	 mov	 ecx, OFFSET ?g_CastleSiegeSync@@3VCCastleSiegeSync@@A ; g_CastleSiegeSync
  001f1	89 96 1c 12 00
	00		 mov	 DWORD PTR [esi+4636], edx
  001f7	e8 00 00 00 00	 call	 ?AddTributeMoney@CCastleSiegeSync@@QAEXH@Z ; CCastleSiegeSync::AddTributeMoney

; 1668 : 	GCMoneySend(lpObj->m_Index, lpObj->Money);

  001fc	8b 86 cc 00 00
	00		 mov	 eax, DWORD PTR [esi+204]
  00202	8b 0e		 mov	 ecx, DWORD PTR [esi]
  00204	50		 push	 eax
  00205	51		 push	 ecx
  00206	e8 00 00 00 00	 call	 ?GCMoneySend@@YAXHK@Z	; GCMoneySend
  0020b	83 c4 08	 add	 esp, 8

; 1669 : 
; 1670 : 	if ( (rand()%100 ) < lpObj->ChaosSuccessRate )

  0020e	e8 00 00 00 00	 call	 _rand
  00213	99		 cdq
  00214	b9 64 00 00 00	 mov	 ecx, 100		; 00000064H
  00219	f7 f9		 idiv	 ecx
  0021b	3b 96 1c 12 00
	00		 cmp	 edx, DWORD PTR [esi+4636]
  00221	0f 8d b1 00 00
	00		 jge	 $LN10@CircleChao

; 1671 : 	{
; 1672 : 		int Fruit = ITEMGET(13,15);	// Fruit
; 1673 : 		int FruitType;
; 1674 : 		int RandonValue = rand() % 100;

  00227	e8 00 00 00 00	 call	 _rand
  0022c	99		 cdq
  0022d	b9 64 00 00 00	 mov	 ecx, 100		; 00000064H
  00232	f7 f9		 idiv	 ecx

; 1675 : 
; 1676 : 		if ( RandonValue < 30 )

  00234	83 fa 1e	 cmp	 edx, 30			; 0000001eH
  00237	7d 04		 jge	 SHORT $LN9@CircleChao

; 1677 : 		{
; 1678 : 			FruitType = 0;

  00239	33 c0		 xor	 eax, eax
  0023b	eb 23		 jmp	 SHORT $LN3@CircleChao
$LN9@CircleChao:

; 1679 : 		}
; 1680 : 		else if ( RandonValue < 55 )

  0023d	83 fa 37	 cmp	 edx, 55			; 00000037H
  00240	7d 07		 jge	 SHORT $LN7@CircleChao

; 1681 : 		{
; 1682 : 			FruitType = 1;

  00242	b8 01 00 00 00	 mov	 eax, 1
  00247	eb 17		 jmp	 SHORT $LN3@CircleChao
$LN7@CircleChao:

; 1683 : 		}
; 1684 : 		else if ( RandonValue < 75 )

  00249	83 fa 4b	 cmp	 edx, 75			; 0000004bH
  0024c	7d 07		 jge	 SHORT $LN5@CircleChao

; 1685 : 		{
; 1686 : 			FruitType = 2;

  0024e	b8 02 00 00 00	 mov	 eax, 2
  00253	eb 0b		 jmp	 SHORT $LN3@CircleChao
$LN5@CircleChao:

; 1687 : 		}
; 1688 : 		else if ( RandonValue < 95 )

  00255	33 c0		 xor	 eax, eax
  00257	83 fa 5f	 cmp	 edx, 95			; 0000005fH
  0025a	0f 9d c0	 setge	 al
  0025d	83 c0 03	 add	 eax, 3
$LN3@CircleChao:

; 1689 : 		{
; 1690 : 			FruitType = 3;
; 1691 : 		}
; 1692 : 		else
; 1693 : 		{
; 1694 : 			FruitType = 4;
; 1695 : 		}
; 1696 : 
; 1697 : 		::ItemSerialCreateSend(lpObj->m_Index, -1, 0, 0, Fruit, FruitType, 255, 1, 0, 0, -1, 0, 0);

  00260	6a 00		 push	 0
  00262	6a 00		 push	 0
  00264	6a 00		 push	 0
  00266	8b 16		 mov	 edx, DWORD PTR [esi]
  00268	6a 00		 push	 0
  0026a	6a ff		 push	 -1
  0026c	6a 00		 push	 0
  0026e	6a 00		 push	 0
  00270	6a 01		 push	 1
  00272	68 ff 00 00 00	 push	 255			; 000000ffH
  00277	50		 push	 eax
  00278	68 0f 1a 00 00	 push	 6671			; 00001a0fH
  0027d	6a 00		 push	 0
  0027f	6a 00		 push	 0
  00281	68 ff 00 00 00	 push	 255			; 000000ffH
  00286	52		 push	 edx
  00287	e8 00 00 00 00	 call	 ?ItemSerialCreateSend@@YAXHEEEHEEEEEHEEEPAE@Z ; ItemSerialCreateSend

; 1698 : 		::gObjInventoryCommit(lpObj->m_Index);

  0028c	8b 06		 mov	 eax, DWORD PTR [esi]
  0028e	50		 push	 eax
  0028f	e8 00 00 00 00	 call	 ?gObjInventoryCommit@@YAHH@Z ; gObjInventoryCommit

; 1699 : 
; 1700 : 		LogAddTD("[CircleMix] [%s][%s] CBMix Success %d Money : %d-%d, CharmRate : %d",
; 1701 : 			lpObj->AccountID, lpObj->Name, lpObj->ChaosSuccessRate, lpObj->Money, nChaosNeedMoney, iCharmOfLuckCount);

  00294	8b 4d e8	 mov	 ecx, DWORD PTR _iCharmOfLuckCount$[ebp]
  00297	8b 96 cc 00 00
	00		 mov	 edx, DWORD PTR [esi+204]
  0029d	8b 86 1c 12 00
	00		 mov	 eax, DWORD PTR [esi+4636]
  002a3	83 c4 40	 add	 esp, 64			; 00000040H
  002a6	51		 push	 ecx
  002a7	57		 push	 edi
  002a8	52		 push	 edx
  002a9	50		 push	 eax
  002aa	8d 4e 5d	 lea	 ecx, DWORD PTR [esi+93]
  002ad	51		 push	 ecx
  002ae	83 c6 52	 add	 esi, 82			; 00000052H
  002b1	56		 push	 esi
  002b2	68 00 00 00 00	 push	 OFFSET ??_C@_0EE@PAFLGDEL@?$FLCircleMix?$FN?5?$FL?$CFs?$FN?$FL?$CFs?$FN?5CBMix?5Succe@
  002b7	ff 15 00 00 00
	00		 call	 DWORD PTR ?LogAddTD@@3P6AXPADZZA ; LogAddTD
  002bd	83 c4 1c	 add	 esp, 28			; 0000001cH
  002c0	5f		 pop	 edi
  002c1	5e		 pop	 esi

; 1702 : #if( __4GAMERS__ == 1 )
; 1703 : 			g_Achievements.GD_UpdateMixData(lpObj, true);
; 1704 : #endif
; 1705 : 		return TRUE;

  002c2	b8 01 00 00 00	 mov	 eax, 1
  002c7	5b		 pop	 ebx

; 1719 : 
; 1720 : 		return FALSE;
; 1721 : 	}
; 1722 : }

  002c8	8b 4d fc	 mov	 ecx, DWORD PTR __$ArrayPad$[ebp]
  002cb	33 cd		 xor	 ecx, ebp
  002cd	e8 00 00 00 00	 call	 @__security_check_cookie@4
  002d2	8b e5		 mov	 esp, ebp
  002d4	5d		 pop	 ebp
  002d5	c2 04 00	 ret	 4
$LN10@CircleChao:

; 1706 : 	}
; 1707 : 	else
; 1708 : 	{
; 1709 : #if( __4GAMERS__ == 1 )
; 1710 : 			g_Achievements.GD_UpdateMixData(lpObj, false);
; 1711 : #endif
; 1712 : 		ChaosBoxInit(lpObj);

  002d8	8b 4d dc	 mov	 ecx, DWORD PTR _this$[ebp]
  002db	56		 push	 esi
  002dc	e8 00 00 00 00	 call	 ?ChaosBoxInit@CChaosBox@@QAEHPAUOBJECTSTRUCT@@@Z ; CChaosBox::ChaosBoxInit

; 1713 : 		GCUserChaosBoxSend(lpObj, 0);

  002e1	6a 00		 push	 0
  002e3	56		 push	 esi
  002e4	e8 00 00 00 00	 call	 ?GCUserChaosBoxSend@@YAXPAUOBJECTSTRUCT@@H@Z ; GCUserChaosBoxSend

; 1714 : 
; 1715 : 		DataSend(lpObj->m_Index, (BYTE *)&pMsg, pMsg.h.size);

  002e9	0f b6 55 ed	 movzx	 edx, BYTE PTR _pMsg$[ebp+1]
  002ed	8b 0e		 mov	 ecx, DWORD PTR [esi]
  002ef	52		 push	 edx
  002f0	8d 45 ec	 lea	 eax, DWORD PTR _pMsg$[ebp]
  002f3	50		 push	 eax
  002f4	51		 push	 ecx
  002f5	e8 00 00 00 00	 call	 ?DataSend@@YAHHPAEK@Z	; DataSend

; 1716 : 		LogAddTD("[CircleMix] [%s][%s] CBMix Fail %d Money : %d-%d, CharmRate : %d",
; 1717 : 			lpObj->AccountID, lpObj->Name, lpObj->ChaosSuccessRate, lpObj->Money, nChaosNeedMoney, iCharmOfLuckCount);

  002fa	8b 55 e8	 mov	 edx, DWORD PTR _iCharmOfLuckCount$[ebp]
  002fd	8b 86 cc 00 00
	00		 mov	 eax, DWORD PTR [esi+204]
  00303	8b 8e 1c 12 00
	00		 mov	 ecx, DWORD PTR [esi+4636]
  00309	52		 push	 edx
  0030a	57		 push	 edi
  0030b	50		 push	 eax
  0030c	51		 push	 ecx
  0030d	8d 56 5d	 lea	 edx, DWORD PTR [esi+93]
  00310	52		 push	 edx
  00311	8d 46 52	 lea	 eax, DWORD PTR [esi+82]
  00314	50		 push	 eax
  00315	68 00 00 00 00	 push	 OFFSET ??_C@_0EB@FKBAIBLL@?$FLCircleMix?$FN?5?$FL?$CFs?$FN?$FL?$CFs?$FN?5CBMix?5Fail?5@
  0031a	ff 15 00 00 00
	00		 call	 DWORD PTR ?LogAddTD@@3P6AXPADZZA ; LogAddTD
  00320	83 c4 30	 add	 esp, 48			; 00000030H

; 1718 : 		lpObj->ChaosLock = FALSE;

  00323	c7 86 20 12 00
	00 00 00 00 00	 mov	 DWORD PTR [esi+4640], 0
$LN16@CircleChao:

; 1719 : 
; 1720 : 		return FALSE;
; 1721 : 	}
; 1722 : }

  0032d	8b 4d fc	 mov	 ecx, DWORD PTR __$ArrayPad$[ebp]
  00330	5f		 pop	 edi
  00331	5e		 pop	 esi
  00332	33 cd		 xor	 ecx, ebp
  00334	33 c0		 xor	 eax, eax
  00336	5b		 pop	 ebx
  00337	e8 00 00 00 00	 call	 @__security_check_cookie@4
  0033c	8b e5		 mov	 esp, ebp
  0033e	5d		 pop	 ebp
  0033f	c2 04 00	 ret	 4
?CircleChaosMix@CChaosBox@@QAEHPAUOBJECTSTRUCT@@@Z ENDP	; CChaosBox::CircleChaosMix
_TEXT	ENDS
PUBLIC	??_C@_0EB@GCGNBAFG@?$FLWingMix?02?$FN?5?$FL?$CFs?$FN?$FL?$CFs?$FN?5CBMix?5Fail?5@ ; `string'
PUBLIC	??_C@_0EE@BHIPJGFK@?$FLWingMix?02?$FN?5?$FL?$CFs?$FN?$FL?$CFs?$FN?5CBMix?5Succe@ ; `string'
PUBLIC	??_C@_0EI@LFGBMPMJ@?$FLMixSystem?$FN?$FLWingChaosMix?$FN?5WingCh@ ; `string'
PUBLIC	??_C@_0BM@JPABEGNL@?$FLWingMix?02?$FN?5Chaos?5Mix?5Start?$AA@ ; `string'
PUBLIC	??_C@_09GJEFJCKN@WingMix?02?$AA@		; `string'
PUBLIC	__$ArrayPad$
PUBLIC	?WingChaosMix@CChaosBox@@QAEHPAUOBJECTSTRUCT@@@Z ; CChaosBox::WingChaosMix
;	COMDAT ??_C@_0EB@GCGNBAFG@?$FLWingMix?02?$FN?5?$FL?$CFs?$FN?$FL?$CFs?$FN?5CBMix?5Fail?5@
CONST	SEGMENT
??_C@_0EB@GCGNBAFG@?$FLWingMix?02?$FN?5?$FL?$CFs?$FN?$FL?$CFs?$FN?5CBMix?5Fail?5@ DB '['
	DB	'WingMix,2] [%s][%s] CBMix Fail %d Money : %d-%d, CharmRate : '
	DB	'%d', 00H					; `string'
CONST	ENDS
;	COMDAT ??_C@_0EE@BHIPJGFK@?$FLWingMix?02?$FN?5?$FL?$CFs?$FN?$FL?$CFs?$FN?5CBMix?5Succe@
CONST	SEGMENT
??_C@_0EE@BHIPJGFK@?$FLWingMix?02?$FN?5?$FL?$CFs?$FN?$FL?$CFs?$FN?5CBMix?5Succe@ DB '['
	DB	'WingMix,2] [%s][%s] CBMix Success %d Money : %d-%d, CharmRate'
	DB	' : %d', 00H					; `string'
CONST	ENDS
;	COMDAT ??_C@_0EI@LFGBMPMJ@?$FLMixSystem?$FN?$FLWingChaosMix?$FN?5WingCh@
CONST	SEGMENT
??_C@_0EI@LFGBMPMJ@?$FLMixSystem?$FN?$FLWingChaosMix?$FN?5WingCh@ DB '[Mi'
	DB	'xSystem][WingChaosMix] WingCharmItemNum => %d , WingCharmInde'
	DB	'x => %d', 00H				; `string'
CONST	ENDS
;	COMDAT ??_C@_0BM@JPABEGNL@?$FLWingMix?02?$FN?5Chaos?5Mix?5Start?$AA@
CONST	SEGMENT
??_C@_0BM@JPABEGNL@?$FLWingMix?02?$FN?5Chaos?5Mix?5Start?$AA@ DB '[WingMi'
	DB	'x,2] Chaos Mix Start', 00H			; `string'
CONST	ENDS
;	COMDAT ??_C@_09GJEFJCKN@WingMix?02?$AA@
CONST	SEGMENT
??_C@_09GJEFJCKN@WingMix?02?$AA@ DB 'WingMix,2', 00H	; `string'
; Function compile flags: /Ogtp
CONST	ENDS
;	COMDAT ?WingChaosMix@CChaosBox@@QAEHPAUOBJECTSTRUCT@@@Z
_TEXT	SEGMENT
_iWingNum$190665 = -56					; size = 4
_this$ = -56						; size = 4
_LokesFeathersCount$ = -52				; size = 4
_iChaosMoney$ = -48					; size = 4
_iSleeveOfLord$ = -44					; size = 4
_iOption1$190666 = -40					; size = 4
_iWingChaosMoney$ = -40					; size = 4
_iCharmOfLuckCount$ = -36				; size = 4
_WingCount$ = -32					; size = 4
_iRandomValue$190670 = -28				; size = 4
_WingIndex2$ = -28					; size = 4
_nChaosNeedMoney$ = -24					; size = 4
_ChoasGemCount$ = -24					; size = 4
_pMsg$ = -20						; size = 16
__$ArrayPad$ = -4					; size = 4
_lpObj$ = 8						; size = 4
?WingChaosMix@CChaosBox@@QAEHPAUOBJECTSTRUCT@@@Z PROC	; CChaosBox::WingChaosMix, COMDAT
; _this$ = ecx

; 1727 : {

  00000	55		 push	 ebp
  00001	8b ec		 mov	 ebp, esp
  00003	83 ec 38	 sub	 esp, 56			; 00000038H
  00006	a1 00 00 00 00	 mov	 eax, DWORD PTR ___security_cookie
  0000b	33 c5		 xor	 eax, ebp
  0000d	89 45 fc	 mov	 DWORD PTR __$ArrayPad$[ebp], eax
  00010	53		 push	 ebx
  00011	56		 push	 esi
  00012	8b 75 08	 mov	 esi, DWORD PTR _lpObj$[ebp]
  00015	57		 push	 edi

; 1728 : 	lpObj->ChaosLock = TRUE;
; 1729 : 
; 1730 : 	int WingCount = 0;

  00016	33 ff		 xor	 edi, edi
  00018	89 4d c8	 mov	 DWORD PTR _this$[ebp], ecx
  0001b	c7 86 20 12 00
	00 01 00 00 00	 mov	 DWORD PTR [esi+4640], 1
  00025	89 7d e0	 mov	 DWORD PTR _WingCount$[ebp], edi

; 1731 : 	int ChoasGemCount = 0;

  00028	89 7d e8	 mov	 DWORD PTR _ChoasGemCount$[ebp], edi

; 1732 : 	int LokesFeathersCount = 0;

  0002b	89 7d cc	 mov	 DWORD PTR _LokesFeathersCount$[ebp], edi

; 1733 : 	int WingIndex = -1;
; 1734 : 	int iChaosMoney = 0;

  0002e	33 db		 xor	 ebx, ebx

; 1735 : 	int WingIndex2 = -1;

  00030	c7 45 e4 ff ff
	ff ff		 mov	 DWORD PTR _WingIndex2$[ebp], -1

; 1736 : 	int iWingChaosMoney = 0;

  00037	89 7d d8	 mov	 DWORD PTR _iWingChaosMoney$[ebp], edi

; 1737 : 	int iSleeveOfLord = 0;

  0003a	89 7d d4	 mov	 DWORD PTR _iSleeveOfLord$[ebp], edi

; 1738 : 	int iCharmOfLuckCount = 0;

  0003d	89 7d dc	 mov	 DWORD PTR _iCharmOfLuckCount$[ebp], edi
$LL72@WingChaosM:

; 1742 : 	{
; 1743 : 		if ( lpObj->pChaosBox[n].IsItem() == TRUE )

  00040	8b 8e 10 12 00
	00		 mov	 ecx, DWORD PTR [esi+4624]
  00046	03 cf		 add	 ecx, edi
  00048	e8 00 00 00 00	 call	 ?IsItem@CItem@@QAEHXZ	; CItem::IsItem
  0004d	83 f8 01	 cmp	 eax, 1
  00050	0f 85 0f 01 00
	00		 jne	 $LN71@WingChaosM

; 1744 : 		{
; 1745 : 			if ( (lpObj->pChaosBox[n].m_Type >= ITEMGET(12,3) && lpObj->pChaosBox[n].m_Type <= ITEMGET(12,6)) || lpObj->pChaosBox[n].m_Type == ITEMGET(12,42) || lpObj->pChaosBox[n].m_Type == ITEMGET(14,30) )	

  00056	8b 86 10 12 00
	00		 mov	 eax, DWORD PTR [esi+4624]
  0005c	8d 0c 07	 lea	 ecx, DWORD PTR [edi+eax]
  0005f	0f b7 41 06	 movzx	 eax, WORD PTR [ecx+6]
  00063	ba 03 18 00 00	 mov	 edx, 6147		; 00001803H
  00068	66 3b c2	 cmp	 ax, dx
  0006b	7c 0e		 jl	 SHORT $LN66@WingChaosM
  0006d	ba 06 18 00 00	 mov	 edx, 6150		; 00001806H
  00072	66 3b c2	 cmp	 ax, dx
  00075	0f 8e 32 05 00
	00		 jle	 $LN77@WingChaosM
$LN66@WingChaosM:
  0007b	ba 2a 18 00 00	 mov	 edx, 6186		; 0000182aH
  00080	66 3b c2	 cmp	 ax, dx
  00083	0f 84 24 05 00
	00		 je	 $LN77@WingChaosM
  00089	ba 1e 1c 00 00	 mov	 edx, 7198		; 00001c1eH
  0008e	66 3b c2	 cmp	 ax, dx
  00091	0f 84 16 05 00
	00		 je	 $LN77@WingChaosM

; 1746 : 			{
; 1747 : 				lpObj->ChaosLock = FALSE;
; 1748 : 
; 1749 : 				return FALSE;
; 1750 : 			}
; 1751 : 			if ( lpObj->pChaosBox[n].m_Type >= ITEMGET(12,0) && lpObj->pChaosBox[n].m_Type <= ITEMGET(12,2) ) 

  00097	ba 00 18 00 00	 mov	 edx, 6144		; 00001800H
  0009c	66 3b c2	 cmp	 ax, dx
  0009f	7c 13		 jl	 SHORT $LN65@WingChaosM
  000a1	ba 02 18 00 00	 mov	 edx, 6146		; 00001802H
  000a6	66 3b c2	 cmp	 ax, dx
  000a9	7f 09		 jg	 SHORT $LN65@WingChaosM

; 1752 : 			{
; 1753 : 				WingCount++;
; 1754 : 				WingIndex = n;
; 1755 : 				iWingChaosMoney = lpObj->pChaosBox[n].m_BuyMoney;

  000ab	8b 51 78	 mov	 edx, DWORD PTR [ecx+120]
  000ae	ff 45 e0	 inc	 DWORD PTR _WingCount$[ebp]
  000b1	89 55 d8	 mov	 DWORD PTR _iWingChaosMoney$[ebp], edx
$LN65@WingChaosM:

; 1756 : 			}
; 1757 : 			if ( lpObj->pChaosBox[n].m_Type == ITEMGET(12,41) )

  000b4	ba 29 18 00 00	 mov	 edx, 6185		; 00001829H
  000b9	66 3b c2	 cmp	 ax, dx
  000bc	75 0e		 jne	 SHORT $LN64@WingChaosM

; 1758 : 			{
; 1759 : 				WingCount++;
; 1760 : 				WingIndex = n;
; 1761 : 				iWingChaosMoney = lpObj->pChaosBox[n].m_BuyMoney;

  000be	8b 41 78	 mov	 eax, DWORD PTR [ecx+120]
  000c1	ff 45 e0	 inc	 DWORD PTR _WingCount$[ebp]
  000c4	89 45 d8	 mov	 DWORD PTR _iWingChaosMoney$[ebp], eax
  000c7	e9 99 00 00 00	 jmp	 $LN71@WingChaosM
$LN64@WingChaosM:

; 1762 : 			}
; 1763 : 			else if ( lpObj->pChaosBox[n].m_Type == ITEMGET(12,15) ) // Chaos

  000cc	ba 0f 18 00 00	 mov	 edx, 6159		; 0000180fH
  000d1	66 3b c2	 cmp	 ax, dx
  000d4	75 08		 jne	 SHORT $LN62@WingChaosM

; 1764 : 			{
; 1765 : 				ChoasGemCount++;

  000d6	ff 45 e8	 inc	 DWORD PTR _ChoasGemCount$[ebp]
  000d9	e9 87 00 00 00	 jmp	 $LN71@WingChaosM
$LN62@WingChaosM:

; 1766 : 			}
; 1767 : 			else if ( lpObj->pChaosBox[n].m_Type == ITEMGET(13,14) ) // Feather

  000de	ba 0e 1a 00 00	 mov	 edx, 6670		; 00001a0eH
  000e3	66 3b c2	 cmp	 ax, dx
  000e6	75 11		 jne	 SHORT $LN60@WingChaosM

; 1768 : 			{
; 1769 : 				if ( lpObj->pChaosBox[n].m_Level == 0 ) // Feather

  000e8	66 83 79 08 00	 cmp	 WORD PTR [ecx+8], 0
  000ed	75 05		 jne	 SHORT $LN59@WingChaosM

; 1770 : 				{
; 1771 : 					LokesFeathersCount++;

  000ef	ff 45 cc	 inc	 DWORD PTR _LokesFeathersCount$[ebp]

; 1772 : 				}
; 1773 : 				else	// Crst of Monarch

  000f2	eb 71		 jmp	 SHORT $LN71@WingChaosM
$LN59@WingChaosM:

; 1774 : 				{
; 1775 : 					iSleeveOfLord ++;

  000f4	ff 45 d4	 inc	 DWORD PTR _iSleeveOfLord$[ebp]

; 1776 : 				}

  000f7	eb 6c		 jmp	 SHORT $LN71@WingChaosM
$LN60@WingChaosM:

; 1777 : 			}
; 1778 : 			else if ( lpObj->pChaosBox[n].m_Type == ITEMGET(14,53) )	// Charm Of Luck

  000f9	ba 35 1c 00 00	 mov	 edx, 7221		; 00001c35H
  000fe	66 3b c2	 cmp	 ax, dx
  00101	75 0d		 jne	 SHORT $LN56@WingChaosM

; 1779 : 			{
; 1780 : 				iCharmOfLuckCount += (int)lpObj->pChaosBox[n].m_Durability;

  00103	d9 41 24	 fld	 DWORD PTR [ecx+36]
  00106	e8 00 00 00 00	 call	 __ftol2_sse
  0010b	01 45 dc	 add	 DWORD PTR _iCharmOfLuckCount$[ebp], eax

; 1781 : 			}
; 1782 : 			else if ( lpObj->pChaosBox[n].m_Type == ITEMGET(13,88) ||

  0010e	eb 55		 jmp	 SHORT $LN71@WingChaosM
$LN56@WingChaosM:

; 1783 : 				      lpObj->pChaosBox[n].m_Type == ITEMGET(13,89) ||
; 1784 : 					  lpObj->pChaosBox[n].m_Type == ITEMGET(13,90) ||
; 1785 : 					  lpObj->pChaosBox[n].m_Type == ITEMGET(13,91) ||
; 1786 : 					  lpObj->pChaosBox[n].m_Type == ITEMGET(13,92) )

  00110	ba 58 1a 00 00	 mov	 edx, 6744		; 00001a58H
  00115	66 3b c2	 cmp	 ax, dx
  00118	74 45		 je	 SHORT $LN53@WingChaosM
  0011a	ba 59 1a 00 00	 mov	 edx, 6745		; 00001a59H
  0011f	66 3b c2	 cmp	 ax, dx
  00122	74 3b		 je	 SHORT $LN53@WingChaosM
  00124	ba 5a 1a 00 00	 mov	 edx, 6746		; 00001a5aH
  00129	66 3b c2	 cmp	 ax, dx
  0012c	74 31		 je	 SHORT $LN53@WingChaosM
  0012e	ba 5b 1a 00 00	 mov	 edx, 6747		; 00001a5bH
  00133	66 3b c2	 cmp	 ax, dx
  00136	74 27		 je	 SHORT $LN53@WingChaosM
  00138	ba 5c 1a 00 00	 mov	 edx, 6748		; 00001a5cH
  0013d	66 3b c2	 cmp	 ax, dx
  00140	74 1d		 je	 SHORT $LN53@WingChaosM

; 1789 : 			}
; 1790 : 			else if ( lpObj->pChaosBox[n].IsExtItem() != FALSE )

  00142	e8 00 00 00 00	 call	 ?IsExtItem@CItem@@QAEHXZ ; CItem::IsExtItem
  00147	85 c0		 test	 eax, eax
  00149	74 1a		 je	 SHORT $LN71@WingChaosM

; 1791 : 			{
; 1792 : 				if ( lpObj->pChaosBox[n].m_Level >= 4 )

  0014b	8b 86 10 12 00
	00		 mov	 eax, DWORD PTR [esi+4624]
  00151	66 83 7c 38 08
	04		 cmp	 WORD PTR [eax+edi+8], 4
  00157	7c 0c		 jl	 SHORT $LN71@WingChaosM

; 1793 : 				{
; 1794 : 					iChaosMoney += lpObj->pChaosBox[n].m_BuyMoney;

  00159	03 5c 38 78	 add	 ebx, DWORD PTR [eax+edi+120]
  0015d	eb 06		 jmp	 SHORT $LN71@WingChaosM
$LN53@WingChaosM:

; 1787 : 			{
; 1788 : 				WingIndex2 = lpObj->pChaosBox[n].m_Type;

  0015f	0f bf c8	 movsx	 ecx, ax
  00162	89 4d e4	 mov	 DWORD PTR _WingIndex2$[ebp], ecx
$LN71@WingChaosM:

; 1739 : 
; 1740 : 	int n;
; 1741 : 	for ( n=0;n<CHAOS_BOX_SIZE;n++)

  00165	81 c7 d4 00 00
	00		 add	 edi, 212		; 000000d4H
  0016b	81 ff 80 1a 00
	00		 cmp	 edi, 6784		; 00001a80H
  00171	0f 8c c9 fe ff
	ff		 jl	 $LL72@WingChaosM

; 1795 : 				}
; 1796 : 			}
; 1797 : 		}
; 1798 : 	}
; 1799 : 
; 1800 : 	PMSG_CHAOSMIXRESULT pMsg;
; 1801 : 
; 1802 : 	PHeadSetB((LPBYTE)&pMsg.h, 0x86, sizeof(PMSG_CHAOSMIXRESULT));

  00177	6a 10		 push	 16			; 00000010H
  00179	8d 55 ec	 lea	 edx, DWORD PTR _pMsg$[ebp]
  0017c	68 86 00 00 00	 push	 134			; 00000086H
  00181	52		 push	 edx
  00182	89 5d d0	 mov	 DWORD PTR _iChaosMoney$[ebp], ebx
  00185	e8 00 00 00 00	 call	 ?PHeadSetB@@YAXPAEEH@Z	; PHeadSetB

; 1803 : 	pMsg.Result = CB_ERROR;
; 1804 : 
; 1805 : 	
; 1806 : 
; 1807 : 	if ( iSleeveOfLord == 1 )

  0018a	8b 45 d4	 mov	 eax, DWORD PTR _iSleeveOfLord$[ebp]
  0018d	b9 01 00 00 00	 mov	 ecx, 1
  00192	83 c4 0c	 add	 esp, 12			; 0000000cH
  00195	c6 45 ef 00	 mov	 BYTE PTR _pMsg$[ebp+3], 0
  00199	3b c1		 cmp	 eax, ecx
  0019b	75 21		 jne	 SHORT $LN49@WingChaosM

; 1808 : 	{
; 1809 : 		if ( WingCount != 1 || ChoasGemCount != 1 || LokesFeathersCount != 0 )

  0019d	39 4d e0	 cmp	 DWORD PTR _WingCount$[ebp], ecx
  001a0	75 0b		 jne	 SHORT $LN81@WingChaosM
  001a2	39 4d e8	 cmp	 DWORD PTR _ChoasGemCount$[ebp], ecx
  001a5	75 06		 jne	 SHORT $LN81@WingChaosM
  001a7	83 7d cc 00	 cmp	 DWORD PTR _LokesFeathersCount$[ebp], 0
  001ab	74 34		 je	 SHORT $LN44@WingChaosM
$LN81@WingChaosM:

; 1810 : 		{
; 1811 : 			lpObj->ChaosLock = FALSE;
; 1812 : 			pMsg.Result = CB_INCORRECT_MIX_ITEMS;
; 1813 : 			DataSend(lpObj->m_Index, (BYTE *)&pMsg, pMsg.h.size);

  001ad	0f b6 45 ed	 movzx	 eax, BYTE PTR _pMsg$[ebp+1]
  001b1	8b 16		 mov	 edx, DWORD PTR [esi]
  001b3	50		 push	 eax
  001b4	8d 4d ec	 lea	 ecx, DWORD PTR _pMsg$[ebp]
  001b7	51		 push	 ecx
  001b8	52		 push	 edx

; 1814 : 			return FALSE;

  001b9	e9 07 04 00 00	 jmp	 $LN90@WingChaosM
$LN49@WingChaosM:

; 1815 : 		}
; 1816 : 	}
; 1817 : 	else if ( LokesFeathersCount == 1 )

  001be	39 4d cc	 cmp	 DWORD PTR _LokesFeathersCount$[ebp], ecx
  001c1	0f 85 f2 03 00
	00		 jne	 $LN45@WingChaosM

; 1818 : 	{
; 1819 : 		if ( WingCount != 1 || ChoasGemCount != 1 || iSleeveOfLord != 0 )

  001c7	39 4d e0	 cmp	 DWORD PTR _WingCount$[ebp], ecx
  001ca	0f 85 f8 00 00
	00		 jne	 $LN82@WingChaosM
  001d0	39 4d e8	 cmp	 DWORD PTR _ChoasGemCount$[ebp], ecx
  001d3	0f 85 ef 00 00
	00		 jne	 $LN82@WingChaosM
  001d9	85 c0		 test	 eax, eax
  001db	0f 85 e7 00 00
	00		 jne	 $LN82@WingChaosM
$LN44@WingChaosM:

; 1833 : 
; 1834 : 		return FALSE;
; 1835 : 	}
; 1836 : 
; 1837 : 	if ( iCharmOfLuckCount > 10 )

  001e1	83 7d dc 0a	 cmp	 DWORD PTR _iCharmOfLuckCount$[ebp], 10 ; 0000000aH
  001e5	7e 22		 jle	 SHORT $LN41@WingChaosM

; 1838 : 	{
; 1839 : 		lpObj->ChaosLock = FALSE;
; 1840 : 		pMsg.Result = 0xF0;
; 1841 : 		DataSend(lpObj->m_Index, (LPBYTE)&pMsg, pMsg.h.size);

  001e7	0f b6 45 ed	 movzx	 eax, BYTE PTR _pMsg$[ebp+1]
  001eb	8b 16		 mov	 edx, DWORD PTR [esi]
  001ed	50		 push	 eax
  001ee	8d 4d ec	 lea	 ecx, DWORD PTR _pMsg$[ebp]
  001f1	51		 push	 ecx
  001f2	52		 push	 edx
  001f3	c7 86 20 12 00
	00 00 00 00 00	 mov	 DWORD PTR [esi+4640], 0
  001fd	c6 45 ef f0	 mov	 BYTE PTR _pMsg$[ebp+3], 240 ; 000000f0H
  00201	e8 00 00 00 00	 call	 ?DataSend@@YAHHPAEK@Z	; DataSend
  00206	83 c4 0c	 add	 esp, 12			; 0000000cH
$LN41@WingChaosM:

; 1842 : 	}
; 1843 : 
; 1844 : 	int nChaosNeedMoney = 5000000;
; 1845 : 	int iChaosTaxMoney = (int)((__int64)nChaosNeedMoney * (__int64)g_CastleSiegeSync.GetTaxRateChaos(lpObj->m_Index) / (__int64)100);

  00209	8b 06		 mov	 eax, DWORD PTR [esi]
  0020b	50		 push	 eax
  0020c	b9 00 00 00 00	 mov	 ecx, OFFSET ?g_CastleSiegeSync@@3VCCastleSiegeSync@@A ; g_CastleSiegeSync
  00211	e8 00 00 00 00	 call	 ?GetTaxRateChaos@CCastleSiegeSync@@QAEHH@Z ; CCastleSiegeSync::GetTaxRateChaos
  00216	6a 00		 push	 0
  00218	99		 cdq
  00219	68 40 4b 4c 00	 push	 5000000			; 004c4b40H
  0021e	52		 push	 edx
  0021f	50		 push	 eax
  00220	e8 00 00 00 00	 call	 __allmul
  00225	6a 00		 push	 0
  00227	6a 64		 push	 100			; 00000064H
  00229	52		 push	 edx
  0022a	50		 push	 eax
  0022b	e8 00 00 00 00	 call	 __alldiv
  00230	8b f8		 mov	 edi, eax

; 1846 : 
; 1847 : 	if ( iChaosTaxMoney < 0 )

  00232	85 ff		 test	 edi, edi
  00234	79 02		 jns	 SHORT $LN40@WingChaosM

; 1848 : 	{
; 1849 : 		iChaosTaxMoney = 0;

  00236	33 ff		 xor	 edi, edi
$LN40@WingChaosM:

; 1850 : 	}
; 1851 : 
; 1852 : 	nChaosNeedMoney += iChaosTaxMoney;

  00238	8d 9f 40 4b 4c
	00		 lea	 ebx, DWORD PTR [edi+5000000]
  0023e	89 5d e8	 mov	 DWORD PTR _nChaosNeedMoney$[ebp], ebx

; 1853 : 
; 1854 : 	if ( nChaosNeedMoney < 0 )

  00241	85 db		 test	 ebx, ebx
  00243	79 05		 jns	 SHORT $LN39@WingChaosM

; 1855 : 	{
; 1856 : 		nChaosNeedMoney = 0;

  00245	33 db		 xor	 ebx, ebx
  00247	89 5d e8	 mov	 DWORD PTR _nChaosNeedMoney$[ebp], ebx
$LN39@WingChaosM:

; 1857 : 	}
; 1858 : 
; 1859 : 	if ( lpObj->Money < nChaosNeedMoney )

  0024a	39 9e cc 00 00
	00		 cmp	 DWORD PTR [esi+204], ebx
  00250	7d 3a		 jge	 SHORT $LN38@WingChaosM

; 1860 : 	{
; 1861 : 		pMsg.Result = CB_NOT_ENOUGH_ZEN;
; 1862 : 		
; 1863 : 		DataSend(lpObj->m_Index, (BYTE *)&pMsg, pMsg.h.size);

  00252	0f b6 4d ed	 movzx	 ecx, BYTE PTR _pMsg$[ebp+1]
  00256	8b 06		 mov	 eax, DWORD PTR [esi]
  00258	51		 push	 ecx
  00259	8d 55 ec	 lea	 edx, DWORD PTR _pMsg$[ebp]
  0025c	52		 push	 edx
  0025d	50		 push	 eax
  0025e	c6 45 ef 02	 mov	 BYTE PTR _pMsg$[ebp+3], 2
  00262	e8 00 00 00 00	 call	 ?DataSend@@YAHHPAEK@Z	; DataSend
  00267	83 c4 0c	 add	 esp, 12			; 0000000cH
  0026a	5f		 pop	 edi

; 1864 : 		lpObj->ChaosLock = FALSE;

  0026b	c7 86 20 12 00
	00 00 00 00 00	 mov	 DWORD PTR [esi+4640], 0
  00275	5e		 pop	 esi

; 1865 : 
; 1866 : 		return TRUE;

  00276	b8 01 00 00 00	 mov	 eax, 1
  0027b	5b		 pop	 ebx

; 2049 : 	}
; 2050 : }

  0027c	8b 4d fc	 mov	 ecx, DWORD PTR __$ArrayPad$[ebp]
  0027f	33 cd		 xor	 ecx, ebp
  00281	e8 00 00 00 00	 call	 @__security_check_cookie@4
  00286	8b e5		 mov	 esp, ebp
  00288	5d		 pop	 ebp
  00289	c2 04 00	 ret	 4
$LN38@WingChaosM:

; 1867 : 	}
; 1868 : 
; 1869 : 	CItem * pWing = &lpObj->pChaosBox[WingIndex];
; 1870 : 	lpObj->ChaosSuccessRate = (DWORD)((DWORD)iWingChaosMoney / (DWORD)4000000);

  0028c	b8 83 de 1b 43	 mov	 eax, 1125899907		; 431bde83H
  00291	f7 65 d8	 mul	 DWORD PTR _iWingChaosMoney$[ebp]
  00294	8b ca		 mov	 ecx, edx

; 1871 : 	lpObj->ChaosSuccessRate += iChaosMoney / 40000;

  00296	b8 ad 8b db 68	 mov	 eax, 1759218605		; 68db8badH
  0029b	f7 6d d0	 imul	 DWORD PTR _iChaosMoney$[ebp]
  0029e	c1 fa 0e	 sar	 edx, 14			; 0000000eH
  002a1	c1 e9 14	 shr	 ecx, 20			; 00000014H
  002a4	8b c2		 mov	 eax, edx
  002a6	c1 e8 1f	 shr	 eax, 31			; 0000001fH
  002a9	03 ca		 add	 ecx, edx
  002ab	03 c1		 add	 eax, ecx
  002ad	89 86 1c 12 00
	00		 mov	 DWORD PTR [esi+4636], eax

; 1872 : 
; 1873 : 	if ( lpObj->ChaosSuccessRate < 0 )

  002b3	79 0a		 jns	 SHORT $LN37@WingChaosM

; 1874 : 	{
; 1875 : 		lpObj->ChaosSuccessRate = 100;

  002b5	c7 86 1c 12 00
	00 64 00 00 00	 mov	 DWORD PTR [esi+4636], 100 ; 00000064H
$LN37@WingChaosM:

; 1876 : 	}
; 1877 : 
; 1878 : 	if ( lpObj->ChaosSuccessRate == 0 )

  002bf	83 be 1c 12 00
	00 00		 cmp	 DWORD PTR [esi+4636], 0
  002c6	75 24		 jne	 SHORT $LN36@WingChaosM
$LN82@WingChaosM:

; 1879 : 	{
; 1880 : 		pMsg.Result = CB_INCORRECT_MIX_ITEMS;
; 1881 : 		DataSend(lpObj->m_Index, (BYTE *)&pMsg, pMsg.h.size);

  002c8	0f b6 4d ed	 movzx	 ecx, BYTE PTR _pMsg$[ebp+1]
  002cc	8b 06		 mov	 eax, DWORD PTR [esi]
  002ce	51		 push	 ecx
  002cf	8d 55 ec	 lea	 edx, DWORD PTR _pMsg$[ebp]
  002d2	52		 push	 edx
  002d3	50		 push	 eax
  002d4	c6 45 ef 07	 mov	 BYTE PTR _pMsg$[ebp+3], 7
  002d8	e8 00 00 00 00	 call	 ?DataSend@@YAHHPAEK@Z	; DataSend

; 1882 : 		lpObj->ChaosLock = FALSE;

  002dd	c7 86 20 12 00
	00 00 00 00 00	 mov	 DWORD PTR [esi+4640], 0

; 1883 : 
; 1884 : 		return FALSE;

  002e7	e9 ec 02 00 00	 jmp	 $LN91@WingChaosM
$LN36@WingChaosM:

; 1885 : 	}
; 1886 : 
; 1887 : 	LogChaosItem(lpObj, "WingMix,2");

  002ec	8b 4d c8	 mov	 ecx, DWORD PTR _this$[ebp]
  002ef	68 00 00 00 00	 push	 OFFSET ??_C@_09GJEFJCKN@WingMix?02?$AA@
  002f4	56		 push	 esi
  002f5	e8 00 00 00 00	 call	 ?LogChaosItem@CChaosBox@@QAEXPAUOBJECTSTRUCT@@PAD@Z ; CChaosBox::LogChaosItem

; 1888 : 	LogAddTD("[WingMix,2] Chaos Mix Start");

  002fa	68 00 00 00 00	 push	 OFFSET ??_C@_0BM@JPABEGNL@?$FLWingMix?02?$FN?5Chaos?5Mix?5Start?$AA@
  002ff	ff 15 00 00 00
	00		 call	 DWORD PTR ?LogAddTD@@3P6AXPADZZA ; LogAddTD

; 1889 : 
; 1890 : 	if ( lpObj->ChaosSuccessRate > 90 )

  00305	b8 5a 00 00 00	 mov	 eax, 90			; 0000005aH
  0030a	83 c4 04	 add	 esp, 4
  0030d	39 86 1c 12 00
	00		 cmp	 DWORD PTR [esi+4636], eax
  00313	7e 06		 jle	 SHORT $LN35@WingChaosM

; 1891 : 	{
; 1892 : 		lpObj->ChaosSuccessRate = 90;

  00315	89 86 1c 12 00
	00		 mov	 DWORD PTR [esi+4636], eax
$LN35@WingChaosM:

; 1893 : 	}
; 1894 : 
; 1895 : 	lpObj->ChaosSuccessRate += iCharmOfLuckCount;

  0031b	8b 4d dc	 mov	 ecx, DWORD PTR _iCharmOfLuckCount$[ebp]
  0031e	01 8e 1c 12 00
	00		 add	 DWORD PTR [esi+4636], ecx

; 1896 : 	lpObj->Money  -= nChaosNeedMoney;

  00324	29 9e cc 00 00
	00		 sub	 DWORD PTR [esi+204], ebx

; 1897 : 	g_CastleSiegeSync.AddTributeMoney(iChaosTaxMoney);

  0032a	57		 push	 edi
  0032b	b9 00 00 00 00	 mov	 ecx, OFFSET ?g_CastleSiegeSync@@3VCCastleSiegeSync@@A ; g_CastleSiegeSync
  00330	e8 00 00 00 00	 call	 ?AddTributeMoney@CCastleSiegeSync@@QAEXH@Z ; CCastleSiegeSync::AddTributeMoney

; 1898 : 	GCMoneySend(lpObj->m_Index, lpObj->Money);

  00335	8b 96 cc 00 00
	00		 mov	 edx, DWORD PTR [esi+204]
  0033b	8b 06		 mov	 eax, DWORD PTR [esi]
  0033d	52		 push	 edx
  0033e	50		 push	 eax
  0033f	e8 00 00 00 00	 call	 ?GCMoneySend@@YAXHK@Z	; GCMoneySend
  00344	83 c4 08	 add	 esp, 8

; 1899 : 
; 1900 : 	if ( (rand()%100) < lpObj->ChaosSuccessRate )

  00347	e8 00 00 00 00	 call	 _rand
  0034c	99		 cdq
  0034d	b9 64 00 00 00	 mov	 ecx, 100		; 00000064H
  00352	f7 f9		 idiv	 ecx
  00354	3b 96 1c 12 00
	00		 cmp	 edx, DWORD PTR [esi+4636]
  0035a	0f 8d e6 01 00
	00		 jge	 $LN34@WingChaosM

; 1901 : 	{
; 1902 : 		int iWingLevel = 0;
; 1903 : 		int iItemType;
; 1904 : 		int iItemSubType;
; 1905 : 
; 1906 : 		if ( iSleeveOfLord != 0 )

  00360	83 7d d4 00	 cmp	 DWORD PTR _iSleeveOfLord$[ebp], 0
  00364	74 28		 je	 SHORT $LN33@WingChaosM

; 1907 : 		{
; 1908 : 			if( rand()%2 == TRUE )

  00366	e8 00 00 00 00	 call	 _rand
  0036b	25 01 00 00 80	 and	 eax, -2147483647	; 80000001H
  00370	79 05		 jns	 SHORT $LN86@WingChaosM
  00372	48		 dec	 eax
  00373	83 c8 fe	 or	 eax, -2			; fffffffeH
  00376	40		 inc	 eax
$LN86@WingChaosM:
  00377	83 f8 01	 cmp	 eax, 1
  0037a	75 08		 jne	 SHORT $LN32@WingChaosM

; 1909 : 			{
; 1910 : 				iItemType = 12;

  0037c	8d 78 0b	 lea	 edi, DWORD PTR [eax+11]

; 1911 : 				iItemSubType = 49;

  0037f	8d 58 30	 lea	 ebx, DWORD PTR [eax+48]

; 1912 : 			}
; 1913 : 			else

  00382	eb 27		 jmp	 SHORT $LN28@WingChaosM
$LN32@WingChaosM:

; 1914 : 			{
; 1915 : 				iItemType = 13;

  00384	bf 0d 00 00 00	 mov	 edi, 13			; 0000000dH

; 1916 : 				iItemSubType = 30;

  00389	8d 5f 11	 lea	 ebx, DWORD PTR [edi+17]

; 1917 : 			}
; 1918 : 		}
; 1919 : 		else

  0038c	eb 1d		 jmp	 SHORT $LN28@WingChaosM
$LN33@WingChaosM:

; 1920 : 		{
; 1921 : 			iItemType = 12;

  0038e	bf 0c 00 00 00	 mov	 edi, 12			; 0000000cH

; 1922 : 			int iRand = rand()%5;

  00393	e8 00 00 00 00	 call	 _rand
  00398	99		 cdq
  00399	b9 05 00 00 00	 mov	 ecx, 5
  0039e	f7 f9		 idiv	 ecx

; 1923 : 
; 1924 : 			if( iRand == 4 )
; 1925 : 			{
; 1926 : 				iItemSubType = 42;

  003a0	8d 5f 1e	 lea	 ebx, DWORD PTR [edi+30]
  003a3	83 fa 04	 cmp	 edx, 4
  003a6	74 03		 je	 SHORT $LN28@WingChaosM

; 1927 : 			}
; 1928 : 			else
; 1929 : 			{
; 1930 : 				iItemSubType = iRand + 3;

  003a8	8d 5a 03	 lea	 ebx, DWORD PTR [edx+3]
$LN28@WingChaosM:

; 1931 : 			}
; 1932 : 		}
; 1933 : 
; 1934 : 		if( WingIndex2 > -1 )

  003ab	8b 45 e4	 mov	 eax, DWORD PTR _WingIndex2$[ebp]
  003ae	83 f8 ff	 cmp	 eax, -1
  003b1	7e 4a		 jle	 SHORT $LN25@WingChaosM

; 1935 : 		{
; 1936 : 			int WingCharm = WingIndex2^ITEMGET(13,0);

  003b3	35 00 1a 00 00	 xor	 eax, 6656		; 00001a00H

; 1937 : 
; 1938 : 			switch( WingCharm )

  003b8	8d 48 a8	 lea	 ecx, DWORD PTR [eax-88]
  003bb	83 f9 04	 cmp	 ecx, 4
  003be	77 2a		 ja	 SHORT $LN19@WingChaosM
  003c0	ff 24 8d 00 00
	00 00		 jmp	 DWORD PTR $LN92@WingChaosM[ecx*4]
$LN24@WingChaosM:

; 1939 : 			{
; 1940 : 			case 88:
; 1941 : 				iItemSubType = 5;

  003c7	bb 05 00 00 00	 mov	 ebx, 5

; 1942 : 				break;

  003cc	eb 2f		 jmp	 SHORT $LN25@WingChaosM
$LN23@WingChaosM:

; 1943 : 			case 89:
; 1944 : 				iItemSubType = 4;

  003ce	bb 04 00 00 00	 mov	 ebx, 4

; 1945 : 				break;

  003d3	eb 28		 jmp	 SHORT $LN25@WingChaosM
$LN22@WingChaosM:

; 1946 : 			case 90:
; 1947 : 				iItemSubType = 3;

  003d5	bb 03 00 00 00	 mov	 ebx, 3

; 1948 : 				break;

  003da	eb 21		 jmp	 SHORT $LN25@WingChaosM
$LN21@WingChaosM:

; 1949 : 			case 91:
; 1950 : 				iItemSubType = 42;

  003dc	bb 2a 00 00 00	 mov	 ebx, 42			; 0000002aH

; 1951 : 				break;

  003e1	eb 1a		 jmp	 SHORT $LN25@WingChaosM
$LN20@WingChaosM:

; 1952 : 			case 92:
; 1953 : 				iItemSubType = 6;

  003e3	bb 06 00 00 00	 mov	 ebx, 6

; 1954 : 				break;

  003e8	eb 13		 jmp	 SHORT $LN25@WingChaosM
$LN19@WingChaosM:

; 1955 : 			default:
; 1956 : 				LogAddTD("[MixSystem][WingChaosMix] WingCharmItemNum => %d , WingCharmIndex => %d",
; 1957 : 					WingIndex2,WingCharm);

  003ea	8b 55 e4	 mov	 edx, DWORD PTR _WingIndex2$[ebp]
  003ed	50		 push	 eax
  003ee	52		 push	 edx
  003ef	68 00 00 00 00	 push	 OFFSET ??_C@_0EI@LFGBMPMJ@?$FLMixSystem?$FN?$FLWingChaosMix?$FN?5WingCh@
  003f4	ff 15 00 00 00
	00		 call	 DWORD PTR ?LogAddTD@@3P6AXPADZZA ; LogAddTD
  003fa	83 c4 0c	 add	 esp, 12			; 0000000cH
$LN25@WingChaosM:

; 1958 : 				break;
; 1959 : 			}
; 1960 : 		}
; 1961 : 
; 1962 : 		int iWingNum = ITEMGET(iItemType, iItemSubType);

  003fd	c1 e7 09	 shl	 edi, 9
  00400	03 fb		 add	 edi, ebx

; 1963 : 		int iOption1 = 0;

  00402	33 db		 xor	 ebx, ebx
  00404	89 7d c8	 mov	 DWORD PTR _iWingNum$190665[ebp], edi
  00407	89 5d d8	 mov	 DWORD PTR _iOption1$190666[ebp], ebx

; 1964 : 		int iOption2 = 0;
; 1965 : 		int iOption3 = 0;

  0040a	33 ff		 xor	 edi, edi

; 1966 : 
; 1967 : 		if ( (rand()%5) == 0 )

  0040c	e8 00 00 00 00	 call	 _rand
  00411	99		 cdq
  00412	b9 05 00 00 00	 mov	 ecx, 5
  00417	f7 f9		 idiv	 ecx
  00419	85 d2		 test	 edx, edx
  0041b	75 07		 jne	 SHORT $LN80@WingChaosM

; 1968 : 		{
; 1969 : 			iOption1 = 1;

  0041d	c7 45 d8 01 00
	00 00		 mov	 DWORD PTR _iOption1$190666[ebp], 1
$LN80@WingChaosM:

; 1970 : 		}
; 1971 : 
; 1972 : 		int iRandomValue = rand() % 100;

  00424	e8 00 00 00 00	 call	 _rand
  00429	99		 cdq
  0042a	b9 64 00 00 00	 mov	 ecx, 100		; 00000064H
  0042f	f7 f9		 idiv	 ecx
  00431	89 55 e4	 mov	 DWORD PTR _iRandomValue$190670[ebp], edx

; 1973 : 		int iRandomValue2 = rand() % 3;

  00434	e8 00 00 00 00	 call	 _rand
  00439	99		 cdq
  0043a	b9 03 00 00 00	 mov	 ecx, 3
  0043f	f7 f9		 idiv	 ecx

; 1974 : 
; 1975 : 		switch ( iRandomValue2 )

  00441	2b d3		 sub	 edx, ebx
  00443	74 1e		 je	 SHORT $LN15@WingChaosM
  00445	4a		 dec	 edx
  00446	74 0e		 je	 SHORT $LN13@WingChaosM
  00448	4a		 dec	 edx
  00449	75 20		 jne	 SHORT $LN14@WingChaosM

; 1990 : 
; 1991 : 			case 2:
; 1992 : 				if ( iRandomValue < 20 )

  0044b	83 7d e4 14	 cmp	 DWORD PTR _iRandomValue$190670[ebp], 20 ; 00000014H
  0044f	7d 1a		 jge	 SHORT $LN14@WingChaosM

; 1993 : 				{
; 1994 : 					iOption2 = 1;	// +4;

  00451	8d 59 fe	 lea	 ebx, DWORD PTR [ecx-2]
  00454	eb 15		 jmp	 SHORT $LN14@WingChaosM
$LN13@WingChaosM:

; 1981 : 				}
; 1982 : 				break;
; 1983 : 
; 1984 : 			case 1:
; 1985 : 				if ( iRandomValue < 10 )

  00456	83 7d e4 0a	 cmp	 DWORD PTR _iRandomValue$190670[ebp], 10 ; 0000000aH
  0045a	7d 0f		 jge	 SHORT $LN14@WingChaosM

; 1986 : 				{
; 1987 : 					iOption2 = 2;	// +8

  0045c	bb 02 00 00 00	 mov	 ebx, 2

; 1988 : 				}
; 1989 : 				break;

  00461	eb 08		 jmp	 SHORT $LN14@WingChaosM
$LN15@WingChaosM:

; 1976 : 		{
; 1977 : 			case 0:
; 1978 : 				if ( iRandomValue < 4 )

  00463	83 7d e4 04	 cmp	 DWORD PTR _iRandomValue$190670[ebp], 4
  00467	7d 02		 jge	 SHORT $LN14@WingChaosM

; 1979 : 				{
; 1980 : 					iOption2 = 3;	// +12

  00469	8b d9		 mov	 ebx, ecx
$LN14@WingChaosM:

; 1995 : 				}
; 1996 : 		}
; 1997 : 
; 1998 : 		//int ExOption;
; 1999 : 
; 2000 : 		if ( iSleeveOfLord != FALSE )
; 2001 : 		{
; 2002 : 			if ( (rand()%5) == 0 )

  0046b	e8 00 00 00 00	 call	 _rand
  00470	99		 cdq
  00471	b9 05 00 00 00	 mov	 ecx, 5
  00476	f7 f9		 idiv	 ecx
  00478	39 7d d4	 cmp	 DWORD PTR _iSleeveOfLord$[ebp], edi
  0047b	74 21		 je	 SHORT $LN9@WingChaosM
  0047d	85 d2		 test	 edx, edx
  0047f	75 4a		 jne	 SHORT $LN8@WingChaosM

; 2003 : 			{
; 2004 : 				iOption3 = 1 << (rand()%4);

  00481	e8 00 00 00 00	 call	 _rand
  00486	8b c8		 mov	 ecx, eax
  00488	81 e1 03 00 00
	80		 and	 ecx, -2147483645	; 80000003H
  0048e	79 05		 jns	 SHORT $LN87@WingChaosM
  00490	49		 dec	 ecx
  00491	83 c9 fc	 or	 ecx, -4			; fffffffcH
  00494	41		 inc	 ecx
$LN87@WingChaosM:
  00495	bf 01 00 00 00	 mov	 edi, 1
  0049a	d3 e7		 shl	 edi, cl

; 2005 : 			}
; 2006 : 			
; 2007 : 			iOption3 |= 0x20;
; 2008 : 		}
; 2009 : 		else

  0049c	eb 2d		 jmp	 SHORT $LN8@WingChaosM
$LN9@WingChaosM:

; 2010 : 		{
; 2011 : 			if ( (rand()%5) == 0 )

  0049e	85 d2		 test	 edx, edx
  004a0	75 16		 jne	 SHORT $LN6@WingChaosM

; 2012 : 			{
; 2013 : 				iOption3 = 1 << (rand()%3);

  004a2	e8 00 00 00 00	 call	 _rand
  004a7	99		 cdq
  004a8	b9 03 00 00 00	 mov	 ecx, 3
  004ad	f7 f9		 idiv	 ecx
  004af	bf 01 00 00 00	 mov	 edi, 1
  004b4	8b ca		 mov	 ecx, edx
  004b6	d3 e7		 shl	 edi, cl
$LN6@WingChaosM:

; 2014 : 			}
; 2015 : 
; 2016 : 			if ( (rand()%2) != 0 )

  004b8	e8 00 00 00 00	 call	 _rand
  004bd	25 01 00 00 80	 and	 eax, -2147483647	; 80000001H
  004c2	79 05		 jns	 SHORT $LN88@WingChaosM
  004c4	48		 dec	 eax
  004c5	83 c8 fe	 or	 eax, -2			; fffffffeH
  004c8	40		 inc	 eax
$LN88@WingChaosM:
  004c9	74 03		 je	 SHORT $LN5@WingChaosM
$LN8@WingChaosM:

; 2017 : 			{
; 2018 : 				iOption3 |= 0x20;

  004cb	83 cf 20	 or	 edi, 32			; 00000020H
$LN5@WingChaosM:

; 2019 : 			}
; 2020 : 		}
; 2021 : 
; 2022 : 		::ItemSerialCreateSend(lpObj->m_Index, -1, 0, 0, iWingNum, iWingLevel, 0, 0, iOption1, iOption2, -1, iOption3, 0);

  004ce	8b 55 d8	 mov	 edx, DWORD PTR _iOption1$190666[ebp]
  004d1	8b 45 c8	 mov	 eax, DWORD PTR _iWingNum$190665[ebp]
  004d4	6a 00		 push	 0
  004d6	6a 00		 push	 0
  004d8	6a 00		 push	 0
  004da	8b 0e		 mov	 ecx, DWORD PTR [esi]
  004dc	57		 push	 edi
  004dd	6a ff		 push	 -1
  004df	53		 push	 ebx
  004e0	52		 push	 edx
  004e1	6a 00		 push	 0
  004e3	6a 00		 push	 0
  004e5	6a 00		 push	 0
  004e7	50		 push	 eax
  004e8	6a 00		 push	 0
  004ea	6a 00		 push	 0
  004ec	68 ff 00 00 00	 push	 255			; 000000ffH
  004f1	51		 push	 ecx
  004f2	e8 00 00 00 00	 call	 ?ItemSerialCreateSend@@YAXHEEEHEEEEEHEEEPAE@Z ; ItemSerialCreateSend

; 2023 : 		::gObjInventoryCommit(lpObj->m_Index);

  004f7	8b 16		 mov	 edx, DWORD PTR [esi]
  004f9	52		 push	 edx
  004fa	e8 00 00 00 00	 call	 ?gObjInventoryCommit@@YAHH@Z ; gObjInventoryCommit

; 2024 : 		::LogAddTD("[WingMix,2] [%s][%s] CBMix Success %d Money : %d-%d, CharmRate : %d",
; 2025 : 			lpObj->AccountID, lpObj->Name, lpObj->ChaosSuccessRate, lpObj->Money, nChaosNeedMoney, iCharmOfLuckCount);

  004ff	8b 45 dc	 mov	 eax, DWORD PTR _iCharmOfLuckCount$[ebp]
  00502	8b 4d e8	 mov	 ecx, DWORD PTR _nChaosNeedMoney$[ebp]
  00505	8b 96 cc 00 00
	00		 mov	 edx, DWORD PTR [esi+204]
  0050b	83 c4 40	 add	 esp, 64			; 00000040H
  0050e	50		 push	 eax
  0050f	8b 86 1c 12 00
	00		 mov	 eax, DWORD PTR [esi+4636]
  00515	51		 push	 ecx
  00516	52		 push	 edx
  00517	50		 push	 eax
  00518	8d 4e 5d	 lea	 ecx, DWORD PTR [esi+93]
  0051b	51		 push	 ecx
  0051c	83 c6 52	 add	 esi, 82			; 00000052H
  0051f	56		 push	 esi
  00520	68 00 00 00 00	 push	 OFFSET ??_C@_0EE@BHIPJGFK@?$FLWingMix?02?$FN?5?$FL?$CFs?$FN?$FL?$CFs?$FN?5CBMix?5Succe@
  00525	ff 15 00 00 00
	00		 call	 DWORD PTR ?LogAddTD@@3P6AXPADZZA ; LogAddTD
  0052b	83 c4 1c	 add	 esp, 28			; 0000001cH
  0052e	5f		 pop	 edi
  0052f	5e		 pop	 esi

; 2026 : #if( __4GAMERS__ == 1 )
; 2027 : 			g_Achievements.GD_UpdateMixData(lpObj, true);
; 2028 : #endif
; 2029 : 		return TRUE;

  00530	b8 01 00 00 00	 mov	 eax, 1
  00535	5b		 pop	 ebx

; 2049 : 	}
; 2050 : }

  00536	8b 4d fc	 mov	 ecx, DWORD PTR __$ArrayPad$[ebp]
  00539	33 cd		 xor	 ecx, ebp
  0053b	e8 00 00 00 00	 call	 @__security_check_cookie@4
  00540	8b e5		 mov	 esp, ebp
  00542	5d		 pop	 ebp
  00543	c2 04 00	 ret	 4
$LN34@WingChaosM:

; 2030 : 	}
; 2031 : 	else
; 2032 : 	{
; 2033 : #if( __4GAMERS__ == 1 )
; 2034 : 			g_Achievements.GD_UpdateMixData(lpObj, false);
; 2035 : #endif
; 2036 : 		for ( n=0;n<CHAOS_BOX_SIZE;n++)

  00546	33 ff		 xor	 edi, edi
  00548	eb 06 8d 9b 00
	00 00 00	 npad	 8
$LL3@WingChaosM:

; 2037 : 		{
; 2038 : 			lpObj->pChaosBox[n].Clear();

  00550	8b 8e 10 12 00
	00		 mov	 ecx, DWORD PTR [esi+4624]
  00556	03 cf		 add	 ecx, edi
  00558	e8 00 00 00 00	 call	 ?Clear@CItem@@QAEXXZ	; CItem::Clear
  0055d	81 c7 d4 00 00
	00		 add	 edi, 212		; 000000d4H
  00563	81 ff 80 1a 00
	00		 cmp	 edi, 6784		; 00001a80H
  00569	7c e5		 jl	 SHORT $LL3@WingChaosM

; 2039 : 		}
; 2040 : 
; 2041 : 		GCUserChaosBoxSend(lpObj, 0);

  0056b	6a 00		 push	 0
  0056d	56		 push	 esi
  0056e	e8 00 00 00 00	 call	 ?GCUserChaosBoxSend@@YAXPAUOBJECTSTRUCT@@H@Z ; GCUserChaosBoxSend

; 2042 : 		DataSend(lpObj->m_Index, (BYTE *)&pMsg, pMsg.h.size);

  00573	0f b6 55 ed	 movzx	 edx, BYTE PTR _pMsg$[ebp+1]
  00577	8b 0e		 mov	 ecx, DWORD PTR [esi]
  00579	52		 push	 edx
  0057a	8d 45 ec	 lea	 eax, DWORD PTR _pMsg$[ebp]
  0057d	50		 push	 eax
  0057e	51		 push	 ecx
  0057f	e8 00 00 00 00	 call	 ?DataSend@@YAHHPAEK@Z	; DataSend

; 2043 : 		::LogAddTD("[WingMix,2] [%s][%s] CBMix Fail %d Money : %d-%d, CharmRate : %d",
; 2044 : 			lpObj->AccountID, lpObj->Name, lpObj->ChaosSuccessRate, lpObj->Money, nChaosNeedMoney, iCharmOfLuckCount);

  00584	8b 55 dc	 mov	 edx, DWORD PTR _iCharmOfLuckCount$[ebp]
  00587	8b 86 cc 00 00
	00		 mov	 eax, DWORD PTR [esi+204]
  0058d	8b 8e 1c 12 00
	00		 mov	 ecx, DWORD PTR [esi+4636]
  00593	52		 push	 edx
  00594	53		 push	 ebx
  00595	50		 push	 eax
  00596	51		 push	 ecx
  00597	8d 56 5d	 lea	 edx, DWORD PTR [esi+93]
  0059a	52		 push	 edx
  0059b	8d 46 52	 lea	 eax, DWORD PTR [esi+82]
  0059e	50		 push	 eax
  0059f	68 00 00 00 00	 push	 OFFSET ??_C@_0EB@GCGNBAFG@?$FLWingMix?02?$FN?5?$FL?$CFs?$FN?$FL?$CFs?$FN?5CBMix?5Fail?5@
  005a4	ff 15 00 00 00
	00		 call	 DWORD PTR ?LogAddTD@@3P6AXPADZZA ; LogAddTD
  005aa	83 c4 30	 add	 esp, 48			; 00000030H
$LN77@WingChaosM:

; 2045 : 		
; 2046 : 		lpObj->ChaosLock = FALSE;

  005ad	c7 86 20 12 00
	00 00 00 00 00	 mov	 DWORD PTR [esi+4640], 0

; 2047 : 
; 2048 : 		return FALSE;

  005b7	eb 22		 jmp	 SHORT $LN89@WingChaosM
$LN45@WingChaosM:

; 1832 : 		DataSend(lpObj->m_Index, (BYTE *)&pMsg, pMsg.h.size);

  005b9	0f b6 4d ed	 movzx	 ecx, BYTE PTR _pMsg$[ebp+1]
  005bd	8b 06		 mov	 eax, DWORD PTR [esi]
  005bf	51		 push	 ecx
  005c0	8d 55 ec	 lea	 edx, DWORD PTR _pMsg$[ebp]
  005c3	52		 push	 edx
  005c4	50		 push	 eax
$LN90@WingChaosM:

; 1820 : 		{
; 1821 : 			pMsg.Result = CB_INCORRECT_MIX_ITEMS;
; 1822 : 			DataSend(lpObj->m_Index, (BYTE *)&pMsg, pMsg.h.size);
; 1823 : 			lpObj->ChaosLock = FALSE;
; 1824 : 
; 1825 : 			return FALSE;
; 1826 : 		}
; 1827 : 	}
; 1828 : 	else
; 1829 : 	{
; 1830 : 		lpObj->ChaosLock = FALSE;
; 1831 : 		pMsg.Result = CB_INCORRECT_MIX_ITEMS;

  005c5	c7 86 20 12 00
	00 00 00 00 00	 mov	 DWORD PTR [esi+4640], 0
  005cf	c6 45 ef 07	 mov	 BYTE PTR _pMsg$[ebp+3], 7

; 1832 : 		DataSend(lpObj->m_Index, (BYTE *)&pMsg, pMsg.h.size);

  005d3	e8 00 00 00 00	 call	 ?DataSend@@YAHHPAEK@Z	; DataSend
$LN91@WingChaosM:
  005d8	83 c4 0c	 add	 esp, 12			; 0000000cH
$LN89@WingChaosM:

; 2049 : 	}
; 2050 : }

  005db	8b 4d fc	 mov	 ecx, DWORD PTR __$ArrayPad$[ebp]
  005de	5f		 pop	 edi
  005df	5e		 pop	 esi
  005e0	33 cd		 xor	 ecx, ebp
  005e2	33 c0		 xor	 eax, eax
  005e4	5b		 pop	 ebx
  005e5	e8 00 00 00 00	 call	 @__security_check_cookie@4
  005ea	8b e5		 mov	 esp, ebp
  005ec	5d		 pop	 ebp
  005ed	c2 04 00	 ret	 4
$LN92@WingChaosM:
  005f0	00 00 00 00	 DD	 $LN24@WingChaosM
  005f4	00 00 00 00	 DD	 $LN23@WingChaosM
  005f8	00 00 00 00	 DD	 $LN22@WingChaosM
  005fc	00 00 00 00	 DD	 $LN21@WingChaosM
  00600	00 00 00 00	 DD	 $LN20@WingChaosM
?WingChaosMix@CChaosBox@@QAEHPAUOBJECTSTRUCT@@@Z ENDP	; CChaosBox::WingChaosMix
_TEXT	ENDS
PUBLIC	__$ArrayPad$
PUBLIC	?BloodCastleItemChaosMix@CChaosBox@@QAEXPAUOBJECTSTRUCT@@@Z ; CChaosBox::BloodCastleItemChaosMix
EXTRN	?BloodCastleChaosMix@CBloodCastle@@QAE_NHH@Z:PROC ; CBloodCastle::BloodCastleChaosMix
EXTRN	?GetEventMap@CBloodCastle@@QAEHH@Z:PROC		; CBloodCastle::GetEventMap
EXTRN	?CheckChoasMixItem@CBloodCastle@@QAEHH@Z:PROC	; CBloodCastle::CheckChoasMixItem
EXTRN	?g_BloodCastle@@3VCBloodCastle@@A:BYTE		; g_BloodCastle
; Function compile flags: /Ogtp
;	COMDAT ?BloodCastleItemChaosMix@CChaosBox@@QAEXPAUOBJECTSTRUCT@@@Z
_TEXT	SEGMENT
_pMsg$ = -20						; size = 16
__$ArrayPad$ = -4					; size = 4
_lpObj$ = 8						; size = 4
?BloodCastleItemChaosMix@CChaosBox@@QAEXPAUOBJECTSTRUCT@@@Z PROC ; CChaosBox::BloodCastleItemChaosMix, COMDAT
; _this$ = ecx

; 2053 : {

  00000	55		 push	 ebp
  00001	8b ec		 mov	 ebp, esp
  00003	83 ec 14	 sub	 esp, 20			; 00000014H
  00006	a1 00 00 00 00	 mov	 eax, DWORD PTR ___security_cookie
  0000b	33 c5		 xor	 eax, ebp
  0000d	89 45 fc	 mov	 DWORD PTR __$ArrayPad$[ebp], eax
  00010	53		 push	 ebx
  00011	56		 push	 esi
  00012	8b 75 08	 mov	 esi, DWORD PTR _lpObj$[ebp]
  00015	57		 push	 edi

; 2054 : 	lpObj->ChaosLock = TRUE;
; 2055 : 	
; 2056 : 	PMSG_CHAOSMIXRESULT pMsg;
; 2057 : 	PHeadSetB((LPBYTE)&pMsg.h, 0x86, sizeof(PMSG_CHAOSMIXRESULT));

  00016	6a 10		 push	 16			; 00000010H
  00018	8d 45 ec	 lea	 eax, DWORD PTR _pMsg$[ebp]
  0001b	68 86 00 00 00	 push	 134			; 00000086H
  00020	50		 push	 eax
  00021	c7 86 20 12 00
	00 01 00 00 00	 mov	 DWORD PTR [esi+4640], 1
  0002b	e8 00 00 00 00	 call	 ?PHeadSetB@@YAXPAEEH@Z	; PHeadSetB

; 2058 : 	pMsg.Result = CB_ERROR;
; 2059 : 
; 2060 : 	int aIndex = lpObj->m_Index;

  00030	8b 3e		 mov	 edi, DWORD PTR [esi]
  00032	83 c4 0c	 add	 esp, 12			; 0000000cH

; 2061 : 
; 2062 : 	int iRET_VAL = g_BloodCastle.CheckChoasMixItem(aIndex);

  00035	57		 push	 edi
  00036	b9 00 00 00 00	 mov	 ecx, OFFSET ?g_BloodCastle@@3VCBloodCastle@@A ; g_BloodCastle
  0003b	c6 45 ef 00	 mov	 BYTE PTR _pMsg$[ebp+3], 0
  0003f	e8 00 00 00 00	 call	 ?CheckChoasMixItem@CBloodCastle@@QAEHH@Z ; CBloodCastle::CheckChoasMixItem
  00044	8b d8		 mov	 ebx, eax

; 2063 : 
; 2064 : 	int iMapNumber = g_BloodCastle.GetEventMap(iRET_VAL-1);

  00046	8d 4b ff	 lea	 ecx, DWORD PTR [ebx-1]
  00049	51		 push	 ecx
  0004a	b9 00 00 00 00	 mov	 ecx, OFFSET ?g_BloodCastle@@3VCBloodCastle@@A ; g_BloodCastle
  0004f	e8 00 00 00 00	 call	 ?GetEventMap@CBloodCastle@@QAEHH@Z ; CBloodCastle::GetEventMap

; 2065 : 
; 2066 : 	if ( BC_MAP_RANGE(iMapNumber) != FALSE )

  00054	83 f8 34	 cmp	 eax, 52			; 00000034H
  00057	74 13		 je	 SHORT $LN19@BloodCastl
  00059	83 f8 0b	 cmp	 eax, 11			; 0000000bH
  0005c	7c 20		 jl	 SHORT $LN20@BloodCastl
  0005e	33 d2		 xor	 edx, edx
  00060	83 f8 11	 cmp	 eax, 17			; 00000011H
  00063	0f 9e c2	 setle	 dl
  00066	8b c2		 mov	 eax, edx
  00068	85 c0		 test	 eax, eax
  0006a	74 12		 je	 SHORT $LN20@BloodCastl
$LN19@BloodCastl:

; 2067 : 	{
; 2068 : 		if ( g_BloodCastle.BloodCastleChaosMix(aIndex, iRET_VAL) == false )

  0006c	53		 push	 ebx
  0006d	57		 push	 edi
  0006e	b9 00 00 00 00	 mov	 ecx, OFFSET ?g_BloodCastle@@3VCBloodCastle@@A ; g_BloodCastle
  00073	e8 00 00 00 00	 call	 ?BloodCastleChaosMix@CBloodCastle@@QAE_NHH@Z ; CBloodCastle::BloodCastleChaosMix
  00078	84 c0		 test	 al, al
  0007a	75 79		 jne	 SHORT $LN9@BloodCastl

; 2069 : 		{
; 2070 : 			lpObj->ChaosLock = FALSE;
; 2071 : 		}
; 2072 : 
; 2073 : 		return;

  0007c	eb 6d		 jmp	 SHORT $LN1@BloodCastl
$LN20@BloodCastl:

; 2074 : 	}
; 2075 : 
; 2076 : 	switch ( iRET_VAL )

  0007e	83 c3 f7	 add	 ebx, -9			; fffffff7H
  00081	83 fb 06	 cmp	 ebx, 6
  00084	77 65		 ja	 SHORT $LN1@BloodCastl
  00086	ff 24 9d 00 00
	00 00		 jmp	 DWORD PTR $LN23@BloodCastl[ebx*4]
$LN8@BloodCastl:

; 2077 : 	{
; 2078 : 		case 9:
; 2079 : 			pMsg.Result = CB_NO_BC_CORRECT_ITEMS	;

  0008d	c6 45 ef 0a	 mov	 BYTE PTR _pMsg$[ebp+3], 10 ; 0000000aH

; 2080 : 			DataSend(aIndex, (UCHAR*)&pMsg, pMsg.h.size);
; 2081 : 			lpObj->m_Index;
; 2082 : 			lpObj->ChaosLock = FALSE;
; 2083 : 			break;

  00091	eb 46		 jmp	 SHORT $LN21@BloodCastl
$LN7@BloodCastl:

; 2084 : 
; 2085 : 		case 10:
; 2086 : 			pMsg.Result = CB_NO_BC_CORRECT_ITEMS	;
; 2087 : 			DataSend(aIndex, (UCHAR*)&pMsg, pMsg.h.size);

  00093	0f b6 55 ed	 movzx	 edx, BYTE PTR _pMsg$[ebp+1]
  00097	52		 push	 edx
  00098	8d 45 ec	 lea	 eax, DWORD PTR _pMsg$[ebp]
  0009b	c6 45 ef 0a	 mov	 BYTE PTR _pMsg$[ebp+3], 10 ; 0000000aH
  0009f	50		 push	 eax

; 2088 : 			lpObj->m_Index;
; 2089 : 			lpObj->ChaosLock = FALSE;
; 2090 : 			break;

  000a0	eb 40		 jmp	 SHORT $LN22@BloodCastl
$LN6@BloodCastl:

; 2091 : 
; 2092 : 		case 11:
; 2093 : 			pMsg.Result = CB_NO_BC_CORRECT_ITEMS	;
; 2094 : 			DataSend(aIndex, (UCHAR*)&pMsg, pMsg.h.size);

  000a2	0f b6 4d ed	 movzx	 ecx, BYTE PTR _pMsg$[ebp+1]
  000a6	51		 push	 ecx
  000a7	8d 55 ec	 lea	 edx, DWORD PTR _pMsg$[ebp]
  000aa	c6 45 ef 0a	 mov	 BYTE PTR _pMsg$[ebp+3], 10 ; 0000000aH
  000ae	52		 push	 edx

; 2095 : 			lpObj->m_Index;
; 2096 : 			lpObj->ChaosLock = FALSE;
; 2097 : 			break;

  000af	eb 31		 jmp	 SHORT $LN22@BloodCastl
$LN5@BloodCastl:

; 2098 : 
; 2099 : 		case 12:
; 2100 : 			pMsg.Result = CB_INVALID_ITEM_LEVEL	;

  000b1	c6 45 ef 08	 mov	 BYTE PTR _pMsg$[ebp+3], 8

; 2101 : 			DataSend(aIndex, (UCHAR*)&pMsg, pMsg.h.size);
; 2102 : 			lpObj->m_Index;
; 2103 : 			lpObj->ChaosLock = FALSE;
; 2104 : 			break;

  000b5	eb 22		 jmp	 SHORT $LN21@BloodCastl
$LN4@BloodCastl:

; 2105 : 
; 2106 : 		case 13:
; 2107 : 			pMsg.Result = CB_BC_NOT_ENOUGH_ZEN	;
; 2108 : 			DataSend(aIndex, (UCHAR*)&pMsg, pMsg.h.size);

  000b7	0f b6 55 ed	 movzx	 edx, BYTE PTR _pMsg$[ebp+1]
  000bb	52		 push	 edx
  000bc	8d 45 ec	 lea	 eax, DWORD PTR _pMsg$[ebp]
  000bf	c6 45 ef 0b	 mov	 BYTE PTR _pMsg$[ebp+3], 11 ; 0000000bH
  000c3	50		 push	 eax

; 2109 : 			lpObj->m_Index;
; 2110 : 			lpObj->ChaosLock = FALSE;
; 2111 : 			break;

  000c4	eb 1c		 jmp	 SHORT $LN22@BloodCastl
$LN3@BloodCastl:

; 2112 : 
; 2113 : 		case 14:
; 2114 : 			pMsg.Result = CB_USER_CLASS_LOW_LEVEL	;
; 2115 : 			DataSend(aIndex, (UCHAR*)&pMsg, pMsg.h.size);

  000c6	0f b6 4d ed	 movzx	 ecx, BYTE PTR _pMsg$[ebp+1]
  000ca	51		 push	 ecx
  000cb	8d 55 ec	 lea	 edx, DWORD PTR _pMsg$[ebp]
  000ce	c6 45 ef 09	 mov	 BYTE PTR _pMsg$[ebp+3], 9
  000d2	52		 push	 edx

; 2116 : 			lpObj->m_Index;
; 2117 : 			lpObj->ChaosLock = FALSE;
; 2118 : 			break;

  000d3	eb 0d		 jmp	 SHORT $LN22@BloodCastl
$LN2@BloodCastl:

; 2119 : 		case 15:
; 2120 : 			pMsg.Result = 0xF0;

  000d5	c6 45 ef f0	 mov	 BYTE PTR _pMsg$[ebp+3], 240 ; 000000f0H
$LN21@BloodCastl:

; 2121 : 			DataSend(aIndex, (BYTE*)&pMsg, pMsg.h.size);

  000d9	0f b6 45 ed	 movzx	 eax, BYTE PTR _pMsg$[ebp+1]
  000dd	50		 push	 eax
  000de	8d 4d ec	 lea	 ecx, DWORD PTR _pMsg$[ebp]
  000e1	51		 push	 ecx
$LN22@BloodCastl:
  000e2	57		 push	 edi
  000e3	e8 00 00 00 00	 call	 ?DataSend@@YAHHPAEK@Z	; DataSend
  000e8	83 c4 0c	 add	 esp, 12			; 0000000cH
$LN1@BloodCastl:

; 2122 : 			lpObj->ChaosLock = FALSE;
; 2123 : 			break;
; 2124 : 		default:
; 2125 : 			lpObj->ChaosLock = FALSE;

  000eb	c7 86 20 12 00
	00 00 00 00 00	 mov	 DWORD PTR [esi+4640], 0
$LN9@BloodCastl:

; 2126 : 	}
; 2127 : 
; 2128 : }

  000f5	8b 4d fc	 mov	 ecx, DWORD PTR __$ArrayPad$[ebp]
  000f8	5f		 pop	 edi
  000f9	5e		 pop	 esi
  000fa	33 cd		 xor	 ecx, ebp
  000fc	5b		 pop	 ebx
  000fd	e8 00 00 00 00	 call	 @__security_check_cookie@4
  00102	8b e5		 mov	 esp, ebp
  00104	5d		 pop	 ebp
  00105	c2 04 00	 ret	 4
$LN23@BloodCastl:
  00108	00 00 00 00	 DD	 $LN8@BloodCastl
  0010c	00 00 00 00	 DD	 $LN7@BloodCastl
  00110	00 00 00 00	 DD	 $LN6@BloodCastl
  00114	00 00 00 00	 DD	 $LN5@BloodCastl
  00118	00 00 00 00	 DD	 $LN4@BloodCastl
  0011c	00 00 00 00	 DD	 $LN3@BloodCastl
  00120	00 00 00 00	 DD	 $LN2@BloodCastl
?BloodCastleItemChaosMix@CChaosBox@@QAEXPAUOBJECTSTRUCT@@@Z ENDP ; CChaosBox::BloodCastleItemChaosMix
_TEXT	ENDS
PUBLIC	??_C@_0DC@ILPOEBCF@?$FLSetItemMix?$FN?5?$FL?$CFs?$FN?$FL?$CFs?$FN?5CBMix?5Fail@ ; `string'
PUBLIC	??_C@_0EC@BFAACIGE@?$FLSetItemMix?$FN?5?$FL?$CFs?$FN?$FL?$CFs?$FN?5CBMix?5Succ@ ; `string'
PUBLIC	??_C@_0BN@JHMGADIL@?$FLSetItemMix?$FN?5Chaos?5Mix?5Start?$AA@ ; `string'
PUBLIC	??_C@_0L@DBFFCLIB@SetItemMix?$AA@		; `string'
PUBLIC	__$ArrayPad$
PUBLIC	?SetItemChaosMix@CChaosBox@@QAEXPAUOBJECTSTRUCT@@@Z ; CChaosBox::SetItemChaosMix
EXTRN	?GetSetOptionName@CSetItemOption@@QAEPADHH@Z:PROC ; CSetItemOption::GetSetOptionName
EXTRN	?gObjChaosItemSet@@YAXHHE@Z:PROC		; gObjChaosItemSet
EXTRN	?gObjChaosBoxInsertItemPos@@YAEHVCItem@@HH@Z:PROC ; gObjChaosBoxInsertItemPos
EXTRN	?ItemByteConvert@@YAXPAEVCItem@@@Z:PROC		; ItemByteConvert
EXTRN	?MakeSetOption@CSetItemOption@@QAEHHH@Z:PROC	; CSetItemOption::MakeSetOption
EXTRN	?CheckMixContition@CSetItemOption@@QAEHHH@Z:PROC ; CSetItemOption::CheckMixContition
EXTRN	?IsSetItem@CSetItemOption@@QAEHH@Z:PROC		; CSetItemOption::IsSetItem
EXTRN	?gSetItemOption@@3VCSetItemOption@@A:BYTE	; gSetItemOption
;	COMDAT ??_C@_0DC@ILPOEBCF@?$FLSetItemMix?$FN?5?$FL?$CFs?$FN?$FL?$CFs?$FN?5CBMix?5Fail@
CONST	SEGMENT
??_C@_0DC@ILPOEBCF@?$FLSetItemMix?$FN?5?$FL?$CFs?$FN?$FL?$CFs?$FN?5CBMix?5Fail@ DB '['
	DB	'SetItemMix] [%s][%s] CBMix Fail %d Money : %d-%d', 00H ; `string'
CONST	ENDS
;	COMDAT ??_C@_0EC@BFAACIGE@?$FLSetItemMix?$FN?5?$FL?$CFs?$FN?$FL?$CFs?$FN?5CBMix?5Succ@
CONST	SEGMENT
??_C@_0EC@BFAACIGE@?$FLSetItemMix?$FN?5?$FL?$CFs?$FN?$FL?$CFs?$FN?5CBMix?5Succ@ DB '['
	DB	'SetItemMix] [%s][%s] CBMix Success %d Money : %d-%d (SetName:'
	DB	'%s)', 00H					; `string'
CONST	ENDS
;	COMDAT ??_C@_0BN@JHMGADIL@?$FLSetItemMix?$FN?5Chaos?5Mix?5Start?$AA@
CONST	SEGMENT
??_C@_0BN@JHMGADIL@?$FLSetItemMix?$FN?5Chaos?5Mix?5Start?$AA@ DB '[SetIte'
	DB	'mMix] Chaos Mix Start', 00H			; `string'
CONST	ENDS
;	COMDAT ??_C@_0L@DBFFCLIB@SetItemMix?$AA@
CONST	SEGMENT
??_C@_0L@DBFFCLIB@SetItemMix?$AA@ DB 'SetItemMix', 00H	; `string'
; Function compile flags: /Ogtp
CONST	ENDS
;	COMDAT ?SetItemChaosMix@CChaosBox@@QAEXPAUOBJECTSTRUCT@@@Z
_TEXT	SEGMENT
_BlessGemCount$ = -272					; size = 4
_this$ = -268						; size = 4
_ChoasGemCount$ = -264					; size = 4
_SoulGemCount$ = -260					; size = 4
_n$190741 = -256					; size = 4
tv697 = -252						; size = 4
_MetalOfAncientCount$ = -252				; size = 4
_MixItemCount$ = -248					; size = 4
_setoption$ = -244					; size = 4
_iMetalOfAncientItemLevel$ = -244			; size = 4
tv797 = -240						; size = 4
_Dur$190783 = -240					; size = 4
_MixSetItemIndex$ = -240				; size = 4
_iChaosMoney$ = -236					; size = 4
_Item$190782 = -232					; size = 212
_pMsg$ = -20						; size = 16
__$ArrayPad$ = -4					; size = 4
_lpObj$ = 8						; size = 4
?SetItemChaosMix@CChaosBox@@QAEXPAUOBJECTSTRUCT@@@Z PROC ; CChaosBox::SetItemChaosMix, COMDAT
; _this$ = ecx

; 2134 : {

  00000	55		 push	 ebp
  00001	8b ec		 mov	 ebp, esp
  00003	81 ec 10 01 00
	00		 sub	 esp, 272		; 00000110H
  00009	a1 00 00 00 00	 mov	 eax, DWORD PTR ___security_cookie
  0000e	33 c5		 xor	 eax, ebp
  00010	89 45 fc	 mov	 DWORD PTR __$ArrayPad$[ebp], eax
  00013	53		 push	 ebx
  00014	8b 5d 08	 mov	 ebx, DWORD PTR _lpObj$[ebp]
  00017	56		 push	 esi
  00018	57		 push	 edi

; 2135 : 	lpObj->ChaosLock = TRUE;
; 2136 : 
; 2137 : 	int ChoasGemCount = 0;

  00019	33 f6		 xor	 esi, esi

; 2138 : 	int BlessGemCount = 0;
; 2139 : 	int SoulGemCount = 0;
; 2140 : 	int MetalOfAncientCount = 0;
; 2141 : 	int MixItemCount = 0;
; 2142 : 	int MixSetItemIndex = 0;
; 2143 : 	int iMixItemChaosMoney = 0;
; 2144 : 	int iChaosMoney = 0;
; 2145 : 	int iMetalOfAncientItemLevel = -1;
; 2146 : 
; 2147 : 	PMSG_CHAOSMIXRESULT pMsg;
; 2148 : 
; 2149 : 	PHeadSetB((LPBYTE)&pMsg.h, 0x86, sizeof(PMSG_CHAOSMIXRESULT));

  0001b	6a 10		 push	 16			; 00000010H
  0001d	8d 45 ec	 lea	 eax, DWORD PTR _pMsg$[ebp]
  00020	68 86 00 00 00	 push	 134			; 00000086H
  00025	50		 push	 eax
  00026	89 8d f4 fe ff
	ff		 mov	 DWORD PTR _this$[ebp], ecx
  0002c	c7 83 20 12 00
	00 01 00 00 00	 mov	 DWORD PTR [ebx+4640], 1
  00036	89 b5 f8 fe ff
	ff		 mov	 DWORD PTR _ChoasGemCount$[ebp], esi
  0003c	89 b5 f0 fe ff
	ff		 mov	 DWORD PTR _BlessGemCount$[ebp], esi
  00042	89 b5 fc fe ff
	ff		 mov	 DWORD PTR _SoulGemCount$[ebp], esi
  00048	89 b5 04 ff ff
	ff		 mov	 DWORD PTR _MetalOfAncientCount$[ebp], esi
  0004e	89 b5 08 ff ff
	ff		 mov	 DWORD PTR _MixItemCount$[ebp], esi
  00054	89 b5 10 ff ff
	ff		 mov	 DWORD PTR _MixSetItemIndex$[ebp], esi
  0005a	33 ff		 xor	 edi, edi
  0005c	89 b5 14 ff ff
	ff		 mov	 DWORD PTR _iChaosMoney$[ebp], esi
  00062	c7 85 0c ff ff
	ff ff ff ff ff	 mov	 DWORD PTR _iMetalOfAncientItemLevel$[ebp], -1
  0006c	e8 00 00 00 00	 call	 ?PHeadSetB@@YAXPAEEH@Z	; PHeadSetB
  00071	83 c4 0c	 add	 esp, 12			; 0000000cH

; 2150 : 	pMsg.Result = CB_ERROR;

  00074	c6 45 ef 00	 mov	 BYTE PTR _pMsg$[ebp+3], 0

; 2151 : 
; 2152 : 
; 2153 : 	for ( int n=0;n<CHAOS_BOX_SIZE;n++)

  00078	89 b5 00 ff ff
	ff		 mov	 DWORD PTR _n$190741[ebp], esi
  0007e	8b ff		 npad	 2
$LL32@SetItemCha:

; 2154 : 	{
; 2155 : 		if ( lpObj->pChaosBox[n].IsItem() == TRUE )

  00080	8b 8b 10 12 00
	00		 mov	 ecx, DWORD PTR [ebx+4624]
  00086	03 ce		 add	 ecx, esi
  00088	e8 00 00 00 00	 call	 ?IsItem@CItem@@QAEHXZ	; CItem::IsItem
  0008d	83 f8 01	 cmp	 eax, 1
  00090	0f 85 80 01 00
	00		 jne	 $LN31@SetItemCha

; 2156 : 		{
; 2157 : 			if ( lpObj->pChaosBox[n].m_Type == ITEMGET(14,13) )

  00096	8b 8b 10 12 00
	00		 mov	 ecx, DWORD PTR [ebx+4624]
  0009c	0f b7 44 31 06	 movzx	 eax, WORD PTR [ecx+esi+6]
  000a1	03 ce		 add	 ecx, esi
  000a3	ba 0d 1c 00 00	 mov	 edx, 7181		; 00001c0dH
  000a8	66 3b c2	 cmp	 ax, dx
  000ab	75 1b		 jne	 SHORT $LN37@SetItemCha

; 2158 : 			{
; 2159 : 				BlessGemCount++;

  000ad	8b 95 f0 fe ff
	ff		 mov	 edx, DWORD PTR _BlessGemCount$[ebp]
  000b3	42		 inc	 edx
  000b4	89 95 f0 fe ff
	ff		 mov	 DWORD PTR _BlessGemCount$[ebp], edx

; 2160 : 
; 2161 : 				if ( BlessGemCount > 3 )

  000ba	83 fa 03	 cmp	 edx, 3
  000bd	7e 09		 jle	 SHORT $LN37@SetItemCha

; 2162 : 				{
; 2163 : 					iChaosMoney += lpObj->pChaosBox[n].m_BuyMoney;

  000bf	8b 51 78	 mov	 edx, DWORD PTR [ecx+120]
  000c2	01 95 14 ff ff
	ff		 add	 DWORD PTR _iChaosMoney$[ebp], edx
$LN37@SetItemCha:

; 2164 : 				}
; 2165 : 			}
; 2166 : 
; 2167 : 			if ( lpObj->pChaosBox[n].m_Type == ITEMGET(14,14) )

  000c8	ba 0e 1c 00 00	 mov	 edx, 7182		; 00001c0eH
  000cd	66 3b c2	 cmp	 ax, dx
  000d0	75 1b		 jne	 SHORT $LN25@SetItemCha

; 2168 : 			{
; 2169 : 				SoulGemCount++;

  000d2	8b 95 fc fe ff
	ff		 mov	 edx, DWORD PTR _SoulGemCount$[ebp]
  000d8	42		 inc	 edx
  000d9	89 95 fc fe ff
	ff		 mov	 DWORD PTR _SoulGemCount$[ebp], edx

; 2170 : 
; 2171 : 				if ( SoulGemCount > 3 )

  000df	83 fa 03	 cmp	 edx, 3
  000e2	7e 09		 jle	 SHORT $LN25@SetItemCha

; 2172 : 				{
; 2173 : 					iChaosMoney += lpObj->pChaosBox[n].m_BuyMoney;

  000e4	8b 51 78	 mov	 edx, DWORD PTR [ecx+120]
  000e7	01 95 14 ff ff
	ff		 add	 DWORD PTR _iChaosMoney$[ebp], edx
$LN25@SetItemCha:

; 2174 : 				}
; 2175 : 			}
; 2176 : 
; 2177 : 			if ( lpObj->pChaosBox[n].m_Type == ITEMGET(14,16) )

  000ed	ba 10 1c 00 00	 mov	 edx, 7184		; 00001c10H
  000f2	66 3b c2	 cmp	 ax, dx
  000f5	75 0e		 jne	 SHORT $LN24@SetItemCha

; 2178 : 			{
; 2179 : 				iChaosMoney += lpObj->pChaosBox[n].m_BuyMoney;

  000f7	8b 41 78	 mov	 eax, DWORD PTR [ecx+120]
  000fa	01 85 14 ff ff
	ff		 add	 DWORD PTR _iChaosMoney$[ebp], eax
  00100	e9 11 01 00 00	 jmp	 $LN31@SetItemCha
$LN24@SetItemCha:

; 2180 : 			}
; 2181 : 			else if ( lpObj->pChaosBox[n].m_Type == ITEMGET(12,15) )

  00105	ba 0f 18 00 00	 mov	 edx, 6159		; 0000180fH
  0010a	66 3b c2	 cmp	 ax, dx
  0010d	75 0b		 jne	 SHORT $LN22@SetItemCha

; 2182 : 			{
; 2183 : 				ChoasGemCount++;

  0010f	ff 85 f8 fe ff
	ff		 inc	 DWORD PTR _ChoasGemCount$[ebp]
  00115	e9 fc 00 00 00	 jmp	 $LN31@SetItemCha
$LN22@SetItemCha:

; 2184 : 			}
; 2185 : 			else if ( lpObj->pChaosBox[n].m_Level >= 6 && lpObj->pChaosBox[n].IsExtItem() != FALSE)

  0011a	66 83 79 08 06	 cmp	 WORD PTR [ecx+8], 6
  0011f	7c 48		 jl	 SHORT $LN20@SetItemCha
  00121	e8 00 00 00 00	 call	 ?IsExtItem@CItem@@QAEHXZ ; CItem::IsExtItem
  00126	85 c0		 test	 eax, eax
  00128	74 3f		 je	 SHORT $LN20@SetItemCha

; 2186 : 			{
; 2187 : 				if ( gSetItemOption.IsSetItem(lpObj->pChaosBox[n].m_Type) != FALSE )

  0012a	8b 83 10 12 00
	00		 mov	 eax, DWORD PTR [ebx+4624]
  00130	0f bf 4c 06 06	 movsx	 ecx, WORD PTR [esi+eax+6]
  00135	51		 push	 ecx
  00136	b9 00 00 00 00	 mov	 ecx, OFFSET ?gSetItemOption@@3VCSetItemOption@@A ; gSetItemOption
  0013b	e8 00 00 00 00	 call	 ?IsSetItem@CSetItemOption@@QAEHH@Z ; CSetItemOption::IsSetItem
  00140	85 c0		 test	 eax, eax
  00142	0f 84 ce 00 00
	00		 je	 $LN31@SetItemCha

; 2188 : 				{
; 2189 : 					MixItemCount++;
; 2190 : 					MixSetItemIndex = n;

  00148	8b 95 00 ff ff
	ff		 mov	 edx, DWORD PTR _n$190741[ebp]

; 2191 : 					iMixItemChaosMoney += lpObj->pChaosBox[n].m_BuyMoney;

  0014e	8b 83 10 12 00
	00		 mov	 eax, DWORD PTR [ebx+4624]
  00154	ff 85 08 ff ff
	ff		 inc	 DWORD PTR _MixItemCount$[ebp]
  0015a	03 7c 06 78	 add	 edi, DWORD PTR [esi+eax+120]
  0015e	89 95 10 ff ff
	ff		 mov	 DWORD PTR _MixSetItemIndex$[ebp], edx

; 2192 : 				}
; 2193 : 			}

  00164	e9 ad 00 00 00	 jmp	 $LN31@SetItemCha
$LN20@SetItemCha:

; 2194 : 			else if ( ((lpObj->pChaosBox[n].m_Type >= ITEMGET(13,8) && lpObj->pChaosBox[n].m_Type < ITEMGET(13,14)) || (lpObj->pChaosBox[n].m_Type >= ITEMGET(13,21) && lpObj->pChaosBox[n].m_Type < ITEMGET(13,28) ) ) && ( lpObj->pChaosBox[n].m_Option3 >= 2  && lpObj->pChaosBox[n].m_Level >= 3 ) )	

  00169	8b 8b 10 12 00
	00		 mov	 ecx, DWORD PTR [ebx+4624]
  0016f	0f b7 44 31 06	 movzx	 eax, WORD PTR [ecx+esi+6]
  00174	03 ce		 add	 ecx, esi
  00176	ba 08 1a 00 00	 mov	 edx, 6664		; 00001a08H
  0017b	66 3b c2	 cmp	 ax, dx
  0017e	7c 0a		 jl	 SHORT $LN15@SetItemCha
  00180	ba 0e 1a 00 00	 mov	 edx, 6670		; 00001a0eH
  00185	66 3b c2	 cmp	 ax, dx
  00188	7c 14		 jl	 SHORT $LN16@SetItemCha
$LN15@SetItemCha:
  0018a	ba 15 1a 00 00	 mov	 edx, 6677		; 00001a15H
  0018f	66 3b c2	 cmp	 ax, dx
  00192	7c 48		 jl	 SHORT $LN17@SetItemCha
  00194	ba 1c 1a 00 00	 mov	 edx, 6684		; 00001a1cH
  00199	66 3b c2	 cmp	 ax, dx
  0019c	7d 3e		 jge	 SHORT $LN17@SetItemCha
$LN16@SetItemCha:
  0019e	80 b9 92 00 00
	00 02		 cmp	 BYTE PTR [ecx+146], 2
  001a5	72 35		 jb	 SHORT $LN17@SetItemCha
  001a7	66 83 79 08 03	 cmp	 WORD PTR [ecx+8], 3
  001ac	7c 2e		 jl	 SHORT $LN17@SetItemCha

; 2195 : 			{
; 2196 : 				if ( gSetItemOption.IsSetItem(lpObj->pChaosBox[n].m_Type ) != FALSE )

  001ae	98		 cwde
  001af	50		 push	 eax
  001b0	b9 00 00 00 00	 mov	 ecx, OFFSET ?gSetItemOption@@3VCSetItemOption@@A ; gSetItemOption
  001b5	e8 00 00 00 00	 call	 ?IsSetItem@CSetItemOption@@QAEHH@Z ; CSetItemOption::IsSetItem
  001ba	85 c0		 test	 eax, eax
  001bc	74 58		 je	 SHORT $LN31@SetItemCha

; 2197 : 				{
; 2198 : 					MixItemCount++;
; 2199 : 					MixSetItemIndex = n;

  001be	8b 8d 00 ff ff
	ff		 mov	 ecx, DWORD PTR _n$190741[ebp]

; 2200 : 					iMixItemChaosMoney += lpObj->pChaosBox[n].m_BuyMoney;

  001c4	8b 93 10 12 00
	00		 mov	 edx, DWORD PTR [ebx+4624]
  001ca	ff 85 08 ff ff
	ff		 inc	 DWORD PTR _MixItemCount$[ebp]
  001d0	03 7c 16 78	 add	 edi, DWORD PTR [esi+edx+120]
  001d4	89 8d 10 ff ff
	ff		 mov	 DWORD PTR _MixSetItemIndex$[ebp], ecx

; 2201 : 				}
; 2202 : 			}

  001da	eb 3a		 jmp	 SHORT $LN31@SetItemCha
$LN17@SetItemCha:

; 2203 : 			else if ( lpObj->pChaosBox[n].m_Type == ITEMGET(14,27) ) // Ancien Metal, Apply Deathway Fix here

  001dc	ba 1b 1c 00 00	 mov	 edx, 7195		; 00001c1bH
  001e1	66 3b c2	 cmp	 ax, dx
  001e4	75 12		 jne	 SHORT $LN12@SetItemCha

; 2204 : 			{
; 2205 : 				MetalOfAncientCount++;
; 2206 : 				iMetalOfAncientItemLevel = lpObj->pChaosBox[n].m_Level;

  001e6	0f bf 41 08	 movsx	 eax, WORD PTR [ecx+8]
  001ea	ff 85 04 ff ff
	ff		 inc	 DWORD PTR _MetalOfAncientCount$[ebp]
  001f0	89 85 0c ff ff
	ff		 mov	 DWORD PTR _iMetalOfAncientItemLevel$[ebp], eax

; 2207 : 			}
; 2208 : 			else

  001f6	eb 1e		 jmp	 SHORT $LN31@SetItemCha
$LN12@SetItemCha:

; 2209 : 			{
; 2210 : 				DataSend(lpObj->m_Index, (BYTE*)&pMsg, pMsg.h.size);

  001f8	0f b6 4d ed	 movzx	 ecx, BYTE PTR _pMsg$[ebp+1]
  001fc	8b 03		 mov	 eax, DWORD PTR [ebx]
  001fe	51		 push	 ecx
  001ff	8d 55 ec	 lea	 edx, DWORD PTR _pMsg$[ebp]
  00202	52		 push	 edx
  00203	50		 push	 eax
  00204	e8 00 00 00 00	 call	 ?DataSend@@YAHHPAEK@Z	; DataSend
  00209	83 c4 0c	 add	 esp, 12			; 0000000cH

; 2211 : 				lpObj->ChaosLock = FALSE;

  0020c	c7 83 20 12 00
	00 00 00 00 00	 mov	 DWORD PTR [ebx+4640], 0
$LN31@SetItemCha:

; 2151 : 
; 2152 : 
; 2153 : 	for ( int n=0;n<CHAOS_BOX_SIZE;n++)

  00216	b9 01 00 00 00	 mov	 ecx, 1
  0021b	01 8d 00 ff ff
	ff		 add	 DWORD PTR _n$190741[ebp], ecx
  00221	81 c6 d4 00 00
	00		 add	 esi, 212		; 000000d4H
  00227	81 fe 80 1a 00
	00		 cmp	 esi, 6784		; 00001a80H
  0022d	0f 8c 4d fe ff
	ff		 jl	 $LL32@SetItemCha

; 2212 : 			}
; 2213 : 		}
; 2214 : 	}
; 2215 : 
; 2216 : 
; 2217 : 	if ( ChoasGemCount < 1 || BlessGemCount < 3 || SoulGemCount < 3 || MetalOfAncientCount != 1 || MixItemCount != 1 )

  00233	39 8d f8 fe ff
	ff		 cmp	 DWORD PTR _ChoasGemCount$[ebp], ecx
  00239	0f 8c a2 03 00
	00		 jl	 $LN9@SetItemCha
  0023f	b8 03 00 00 00	 mov	 eax, 3
  00244	39 85 f0 fe ff
	ff		 cmp	 DWORD PTR _BlessGemCount$[ebp], eax
  0024a	0f 8c 91 03 00
	00		 jl	 $LN9@SetItemCha
  00250	39 85 fc fe ff
	ff		 cmp	 DWORD PTR _SoulGemCount$[ebp], eax
  00256	0f 8c 85 03 00
	00		 jl	 $LN9@SetItemCha
  0025c	39 8d 04 ff ff
	ff		 cmp	 DWORD PTR _MetalOfAncientCount$[ebp], ecx
  00262	0f 85 79 03 00
	00		 jne	 $LN9@SetItemCha
  00268	39 8d 08 ff ff
	ff		 cmp	 DWORD PTR _MixItemCount$[ebp], ecx
  0026e	0f 85 6d 03 00
	00		 jne	 $LN9@SetItemCha

; 2220 : 		lpObj->ChaosLock = FALSE;
; 2221 : 		return;
; 2222 : 	}
; 2223 : 
; 2224 : 	LogChaosItem(lpObj, "SetItemMix");

  00274	8b 8d f4 fe ff
	ff		 mov	 ecx, DWORD PTR _this$[ebp]
  0027a	68 00 00 00 00	 push	 OFFSET ??_C@_0L@DBFFCLIB@SetItemMix?$AA@
  0027f	53		 push	 ebx
  00280	e8 00 00 00 00	 call	 ?LogChaosItem@CChaosBox@@QAEXPAUOBJECTSTRUCT@@PAD@Z ; CChaosBox::LogChaosItem

; 2225 : 	LogAddTD("[SetItemMix] Chaos Mix Start");

  00285	68 00 00 00 00	 push	 OFFSET ??_C@_0BN@JHMGADIL@?$FLSetItemMix?$FN?5Chaos?5Mix?5Start?$AA@
  0028a	ff 15 00 00 00
	00		 call	 DWORD PTR ?LogAddTD@@3P6AXPADZZA ; LogAddTD

; 2226 : 
; 2227 : 	if ( gSetItemOption.CheckMixContition(lpObj->pChaosBox[MixSetItemIndex].m_Type, iMetalOfAncientItemLevel ) == FALSE )

  00290	8b b5 10 ff ff
	ff		 mov	 esi, DWORD PTR _MixSetItemIndex$[ebp]
  00296	8b 93 10 12 00
	00		 mov	 edx, DWORD PTR [ebx+4624]
  0029c	69 f6 d4 00 00
	00		 imul	 esi, 212		; 000000d4H
  002a2	8b 8d 0c ff ff
	ff		 mov	 ecx, DWORD PTR _iMetalOfAncientItemLevel$[ebp]
  002a8	0f bf 44 32 06	 movsx	 eax, WORD PTR [edx+esi+6]
  002ad	83 c4 04	 add	 esp, 4
  002b0	51		 push	 ecx
  002b1	50		 push	 eax
  002b2	b9 00 00 00 00	 mov	 ecx, OFFSET ?gSetItemOption@@3VCSetItemOption@@A ; gSetItemOption
  002b7	89 b5 04 ff ff
	ff		 mov	 DWORD PTR tv697[ebp], esi
  002bd	e8 00 00 00 00	 call	 ?CheckMixContition@CSetItemOption@@QAEHHH@Z ; CSetItemOption::CheckMixContition
  002c2	85 c0		 test	 eax, eax

; 2228 : 	{
; 2229 : 		DataSend(lpObj->m_Index, (BYTE*)&pMsg, pMsg.h.size);
; 2230 : 		lpObj->ChaosLock = FALSE;
; 2231 : 
; 2232 : 		return;

  002c4	74 45		 je	 SHORT $LN42@SetItemCha

; 2233 : 	}
; 2234 : 
; 2235 : 	lpObj->ChaosSuccessRate = iMixItemChaosMoney / 40000;
; 2236 : 	lpObj->ChaosSuccessRate = iChaosMoney / 400000;

  002c6	b8 89 b5 f8 14	 mov	 eax, 351843721		; 14f8b589H
  002cb	f7 ad 14 ff ff
	ff		 imul	 DWORD PTR _iChaosMoney$[ebp]
  002d1	c1 fa 0f	 sar	 edx, 15			; 0000000fH
  002d4	8b c2		 mov	 eax, edx
  002d6	c1 e8 1f	 shr	 eax, 31			; 0000001fH
  002d9	03 c2		 add	 eax, edx
  002db	89 83 1c 12 00
	00		 mov	 DWORD PTR [ebx+4636], eax

; 2237 : 
; 2238 : 	if ( lpObj->ChaosSuccessRate > 80 )

  002e1	83 f8 50	 cmp	 eax, 80			; 00000050H
  002e4	7e 0a		 jle	 SHORT $LN7@SetItemCha

; 2239 : 	{
; 2240 : 		lpObj->ChaosSuccessRate = 80;

  002e6	c7 83 1c 12 00
	00 50 00 00 00	 mov	 DWORD PTR [ebx+4636], 80 ; 00000050H
$LN7@SetItemCha:

; 2241 : 	}
; 2242 : 
; 2243 : 	int nChaosNeedMoney = (lpObj->ChaosSuccessRate - 50 ) * 1000000;

  002f0	8b bb 1c 12 00
	00		 mov	 edi, DWORD PTR [ebx+4636]
  002f6	83 ef 32	 sub	 edi, 50			; 00000032H
  002f9	69 ff 40 42 0f
	00		 imul	 edi, 1000000		; 000f4240H

; 2244 : 
; 2245 : 	if ( lpObj->Money < nChaosNeedMoney )

  002ff	39 bb cc 00 00
	00		 cmp	 DWORD PTR [ebx+204], edi
  00305	7d 15		 jge	 SHORT $LN6@SetItemCha

; 2246 : 	{
; 2247 : 		pMsg.Result = CB_NOT_ENOUGH_ZEN;

  00307	c6 45 ef 02	 mov	 BYTE PTR _pMsg$[ebp+3], 2
$LN42@SetItemCha:

; 2248 : 		DataSend(lpObj->m_Index, (BYTE*)&pMsg, pMsg.h.size);

  0030b	0f b6 4d ed	 movzx	 ecx, BYTE PTR _pMsg$[ebp+1]
  0030f	8b 03		 mov	 eax, DWORD PTR [ebx]
  00311	51		 push	 ecx
  00312	8d 55 ec	 lea	 edx, DWORD PTR _pMsg$[ebp]
  00315	52		 push	 edx
  00316	50		 push	 eax

; 2249 : 		lpObj->ChaosLock = FALSE;
; 2250 : 
; 2251 : 		return;

  00317	e9 d1 02 00 00	 jmp	 $LN40@SetItemCha
$LN6@SetItemCha:

; 2252 : 	}
; 2253 : 
; 2254 : 	int setoption = gSetItemOption.MakeSetOption(lpObj->pChaosBox[MixSetItemIndex].m_Type, iMetalOfAncientItemLevel);

  0031c	8b 93 10 12 00
	00		 mov	 edx, DWORD PTR [ebx+4624]
  00322	8b 8d 0c ff ff
	ff		 mov	 ecx, DWORD PTR _iMetalOfAncientItemLevel$[ebp]
  00328	0f bf 44 32 06	 movsx	 eax, WORD PTR [edx+esi+6]
  0032d	51		 push	 ecx
  0032e	50		 push	 eax
  0032f	b9 00 00 00 00	 mov	 ecx, OFFSET ?gSetItemOption@@3VCSetItemOption@@A ; gSetItemOption
  00334	e8 00 00 00 00	 call	 ?MakeSetOption@CSetItemOption@@QAEHHH@Z ; CSetItemOption::MakeSetOption
  00339	89 85 0c ff ff
	ff		 mov	 DWORD PTR _setoption$[ebp], eax

; 2255 : 
; 2256 : 	if ( setoption == 0 )

  0033f	85 c0		 test	 eax, eax
  00341	75 14		 jne	 SHORT $LN5@SetItemCha

; 2257 : 	{
; 2258 : 		pMsg.Result = CB_ERROR;
; 2259 : 		DataSend(lpObj->m_Index, (BYTE*)&pMsg, pMsg.h.size);

  00343	0f b6 4d ed	 movzx	 ecx, BYTE PTR _pMsg$[ebp+1]
  00347	51		 push	 ecx
  00348	8d 55 ec	 lea	 edx, DWORD PTR _pMsg$[ebp]
  0034b	88 45 ef	 mov	 BYTE PTR _pMsg$[ebp+3], al
  0034e	8b 03		 mov	 eax, DWORD PTR [ebx]
  00350	52		 push	 edx
  00351	50		 push	 eax

; 2260 : 		lpObj->ChaosLock = FALSE;
; 2261 : 
; 2262 : 		return;

  00352	e9 96 02 00 00	 jmp	 $LN40@SetItemCha
$LN5@SetItemCha:

; 2263 : 	}
; 2264 : 
; 2265 : 	lpObj->Money -= nChaosNeedMoney;

  00357	29 bb cc 00 00
	00		 sub	 DWORD PTR [ebx+204], edi
  0035d	8b 83 cc 00 00
	00		 mov	 eax, DWORD PTR [ebx+204]

; 2266 : 	GCMoneySend(lpObj->m_Index, lpObj->Money);

  00363	8b 0b		 mov	 ecx, DWORD PTR [ebx]
  00365	50		 push	 eax
  00366	51		 push	 ecx
  00367	e8 00 00 00 00	 call	 ?GCMoneySend@@YAXHK@Z	; GCMoneySend
  0036c	83 c4 08	 add	 esp, 8

; 2267 : 
; 2268 : 	if ( (rand()%100) < lpObj->ChaosSuccessRate )

  0036f	e8 00 00 00 00	 call	 _rand
  00374	99		 cdq
  00375	b9 64 00 00 00	 mov	 ecx, 100		; 00000064H
  0037a	f7 f9		 idiv	 ecx
  0037c	3b 93 1c 12 00
	00		 cmp	 edx, DWORD PTR [ebx+4636]
  00382	0f 8d 0d 02 00
	00		 jge	 $LN4@SetItemCha

; 2269 : 	{
; 2270 : 		lpObj->pChaosBox[MixSetItemIndex].m_SetOption = setoption;

  00388	8b 93 10 12 00
	00		 mov	 edx, DWORD PTR [ebx+4624]
  0038e	8a 85 0c ff ff
	ff		 mov	 al, BYTE PTR _setoption$[ebp]
  00394	88 84 32 aa 00
	00 00		 mov	 BYTE PTR [edx+esi+170], al

; 2271 : 
; 2272 : 		if ( (rand()%100 ) < 80 )

  0039b	e8 00 00 00 00	 call	 _rand
  003a0	99		 cdq
  003a1	b9 64 00 00 00	 mov	 ecx, 100		; 00000064H
  003a6	f7 f9		 idiv	 ecx
  003a8	83 fa 50	 cmp	 edx, 80			; 00000050H
  003ab	7d 17		 jge	 SHORT $LN3@SetItemCha

; 2273 : 		{
; 2274 : 			lpObj->pChaosBox[MixSetItemIndex].m_SetOption |= 4;

  003ad	8b 93 10 12 00
	00		 mov	 edx, DWORD PTR [ebx+4624]
  003b3	80 8c 32 aa 00
	00 00 04	 or	 BYTE PTR [edx+esi+170], 4
  003bb	8d 84 32 aa 00
	00 00		 lea	 eax, DWORD PTR [edx+esi+170]

; 2275 : 		}
; 2276 : 		else

  003c2	eb 15		 jmp	 SHORT $LN2@SetItemCha
$LN3@SetItemCha:

; 2277 : 		{
; 2278 : 			lpObj->pChaosBox[MixSetItemIndex].m_SetOption |= 8;

  003c4	8b 83 10 12 00
	00		 mov	 eax, DWORD PTR [ebx+4624]
  003ca	80 8c 30 aa 00
	00 00 08	 or	 BYTE PTR [eax+esi+170], 8
  003d2	8d 84 30 aa 00
	00 00		 lea	 eax, DWORD PTR [eax+esi+170]
$LN2@SetItemCha:

; 2279 : 		}
; 2280 : 
; 2281 : 		pMsg.Result = CB_SUCCESS;
; 2282 : 		CItem Item;

  003d9	8d 8d 18 ff ff
	ff		 lea	 ecx, DWORD PTR _Item$190782[ebp]
  003df	c6 45 ef 01	 mov	 BYTE PTR _pMsg$[ebp+3], 1
  003e3	e8 00 00 00 00	 call	 ??0CItem@@QAE@XZ	; CItem::CItem

; 2283 : 
; 2284 : 		float Dur = (float)ItemGetDurability(lpObj->pChaosBox[MixSetItemIndex].m_Type, lpObj->pChaosBox[MixSetItemIndex].m_Level,
; 2285 : 			lpObj->pChaosBox[MixSetItemIndex].IsExtItem(), lpObj->pChaosBox[MixSetItemIndex].IsSetItem());

  003e8	8b 8b 10 12 00
	00		 mov	 ecx, DWORD PTR [ebx+4624]
  003ee	8d 3c 31	 lea	 edi, DWORD PTR [ecx+esi]
  003f1	8d 0c 0e	 lea	 ecx, DWORD PTR [esi+ecx]
  003f4	e8 00 00 00 00	 call	 ?IsSetItem@CItem@@QAEHXZ ; CItem::IsSetItem
  003f9	8b 8b 10 12 00
	00		 mov	 ecx, DWORD PTR [ebx+4624]
  003ff	50		 push	 eax
  00400	03 ce		 add	 ecx, esi
  00402	e8 00 00 00 00	 call	 ?IsExtItem@CItem@@QAEHXZ ; CItem::IsExtItem
  00407	0f bf 57 08	 movsx	 edx, WORD PTR [edi+8]
  0040b	50		 push	 eax
  0040c	0f bf 47 06	 movsx	 eax, WORD PTR [edi+6]
  00410	52		 push	 edx
  00411	50		 push	 eax
  00412	e8 00 00 00 00	 call	 ?ItemGetDurability@@YAHHHHH@Z ; ItemGetDurability
  00417	89 85 10 ff ff
	ff		 mov	 DWORD PTR tv797[ebp], eax

; 2286 : 
; 2287 : 		Item.m_Level = lpObj->pChaosBox[MixSetItemIndex].m_Level;

  0041d	8b 83 10 12 00
	00		 mov	 eax, DWORD PTR [ebx+4624]
  00423	66 8b 54 30 08	 mov	 dx, WORD PTR [eax+esi+8]
  00428	db 85 10 ff ff
	ff		 fild	 DWORD PTR tv797[ebp]
  0042e	03 c6		 add	 eax, esi
  00430	66 89 95 20 ff
	ff ff		 mov	 WORD PTR _Item$190782[ebp+8], dx
  00437	d9 9d 10 ff ff
	ff		 fstp	 DWORD PTR _Dur$190783[ebp]
  0043d	83 c4 10	 add	 esp, 16			; 00000010H

; 2288 : 		Item.m_Durability = Dur * lpObj->pChaosBox[MixSetItemIndex].m_Durability / lpObj->pChaosBox[MixSetItemIndex].m_BaseDurability;

  00440	d9 40 24	 fld	 DWORD PTR [eax+36]

; 2289 : 		Item.m_JewelOfHarmonyOption = lpObj->pChaosBox[MixSetItemIndex].m_JewelOfHarmonyOption;
; 2290 : 		Item.m_bLOCKED = lpObj->pChaosBox[MixSetItemIndex].m_bLOCKED;
; 2291 : 
; 2292 : 		Item.Convert(lpObj->pChaosBox[MixSetItemIndex].m_Type, lpObj->pChaosBox[MixSetItemIndex].m_Option1, lpObj->pChaosBox[MixSetItemIndex].m_Option2,
; 2293 : 			lpObj->pChaosBox[MixSetItemIndex].m_Option3, lpObj->pChaosBox[MixSetItemIndex].m_NewOption, 
; 2294 : 			lpObj->pChaosBox[MixSetItemIndex].m_SetOption, lpObj->pChaosBox[MixSetItemIndex].m_ItemOptionEx, 0, -1, CURRENT_DB_VERSION);

  00443	6a 03		 push	 3
  00445	d8 8d 10 ff ff
	ff		 fmul	 DWORD PTR _Dur$190783[ebp]
  0044b	68 ff 00 00 00	 push	 255			; 000000ffH
  00450	6a 00		 push	 0
  00452	d8 70 2c	 fdiv	 DWORD PTR [eax+44]
  00455	d9 9d 3c ff ff
	ff		 fstp	 DWORD PTR _Item$190782[ebp+36]
  0045b	8a 88 c0 00 00
	00		 mov	 cl, BYTE PTR [eax+192]
  00461	88 4d d8	 mov	 BYTE PTR _Item$190782[ebp+192], cl
  00464	8a 90 d1 00 00
	00		 mov	 dl, BYTE PTR [eax+209]
  0046a	88 55 e9	 mov	 BYTE PTR _Item$190782[ebp+209], dl
  0046d	0f b6 88 c6 00
	00 00		 movzx	 ecx, BYTE PTR [eax+198]
  00474	0f b6 90 aa 00
	00 00		 movzx	 edx, BYTE PTR [eax+170]
  0047b	51		 push	 ecx
  0047c	0f b6 88 93 00
	00 00		 movzx	 ecx, BYTE PTR [eax+147]
  00483	52		 push	 edx
  00484	0f b6 90 92 00
	00 00		 movzx	 edx, BYTE PTR [eax+146]
  0048b	51		 push	 ecx
  0048c	0f b6 88 91 00
	00 00		 movzx	 ecx, BYTE PTR [eax+145]
  00493	52		 push	 edx
  00494	0f b6 90 90 00
	00 00		 movzx	 edx, BYTE PTR [eax+144]
  0049b	0f bf 40 06	 movsx	 eax, WORD PTR [eax+6]
  0049f	51		 push	 ecx
  004a0	52		 push	 edx
  004a1	50		 push	 eax
  004a2	8d 8d 18 ff ff
	ff		 lea	 ecx, DWORD PTR _Item$190782[ebp]
  004a8	e8 00 00 00 00	 call	 ?Convert@CItem@@QAEXHEEEEEEPAEEE@Z ; CItem::Convert

; 2295 : 
; 2296 : 		Item.m_Number = lpObj->pChaosBox[MixSetItemIndex].m_Number;

  004ad	8b 8b 10 12 00
	00		 mov	 ecx, DWORD PTR [ebx+4624]
  004b3	8b 14 0e	 mov	 edx, DWORD PTR [esi+ecx]

; 2297 : 
; 2298 : 		ItemByteConvert(pMsg.ItemInfo, Item);

  004b6	81 ec d4 00 00
	00		 sub	 esp, 212		; 000000d4H
  004bc	8d 45 f0	 lea	 eax, DWORD PTR _pMsg$[ebp+4]
  004bf	8b fc		 mov	 edi, esp
  004c1	89 95 18 ff ff
	ff		 mov	 DWORD PTR _Item$190782[ebp], edx
  004c7	b9 35 00 00 00	 mov	 ecx, 53			; 00000035H
  004cc	8d b5 18 ff ff
	ff		 lea	 esi, DWORD PTR _Item$190782[ebp]
  004d2	50		 push	 eax
  004d3	f3 a5		 rep movsd
  004d5	e8 00 00 00 00	 call	 ?ItemByteConvert@@YAXPAEVCItem@@@Z ; ItemByteConvert

; 2299 : 		ChaosBoxInit(lpObj);

  004da	8b 8d f4 fe ff
	ff		 mov	 ecx, DWORD PTR _this$[ebp]
  004e0	81 c4 d8 00 00
	00		 add	 esp, 216		; 000000d8H
  004e6	53		 push	 ebx
  004e7	e8 00 00 00 00	 call	 ?ChaosBoxInit@CChaosBox@@QAEHPAUOBJECTSTRUCT@@@Z ; CChaosBox::ChaosBoxInit

; 2300 : 		::gObjChaosBoxInsertItemPos(lpObj->m_Index, Item, 0, -1);

  004ec	6a ff		 push	 -1
  004ee	6a 00		 push	 0
  004f0	81 ec d4 00 00
	00		 sub	 esp, 212		; 000000d4H
  004f6	8b fc		 mov	 edi, esp
  004f8	b9 35 00 00 00	 mov	 ecx, 53			; 00000035H
  004fd	8d b5 18 ff ff
	ff		 lea	 esi, DWORD PTR _Item$190782[ebp]
  00503	f3 a5		 rep movsd
  00505	8b 0b		 mov	 ecx, DWORD PTR [ebx]
  00507	51		 push	 ecx
  00508	e8 00 00 00 00	 call	 ?gObjChaosBoxInsertItemPos@@YAEHVCItem@@HH@Z ; gObjChaosBoxInsertItemPos

; 2301 : 		gObjChaosItemSet(lpObj->m_Index, 0, 1);

  0050d	8b 13		 mov	 edx, DWORD PTR [ebx]
  0050f	6a 01		 push	 1
  00511	6a 00		 push	 0
  00513	52		 push	 edx
  00514	e8 00 00 00 00	 call	 ?gObjChaosItemSet@@YAXHHE@Z ; gObjChaosItemSet

; 2302 : 
; 2303 : 		DataSend(lpObj->m_Index, (BYTE *)&pMsg, pMsg.h.size);

  00519	0f b6 45 ed	 movzx	 eax, BYTE PTR _pMsg$[ebp+1]
  0051d	8b 13		 mov	 edx, DWORD PTR [ebx]
  0051f	81 c4 ec 00 00
	00		 add	 esp, 236		; 000000ecH
  00525	50		 push	 eax
  00526	8d 4d ec	 lea	 ecx, DWORD PTR _pMsg$[ebp]
  00529	51		 push	 ecx
  0052a	52		 push	 edx
  0052b	e8 00 00 00 00	 call	 ?DataSend@@YAHHPAEK@Z	; DataSend

; 2304 : #if( __4GAMERS__ == 1 )
; 2305 : 			g_Achievements.GD_UpdateMixData(lpObj, true);
; 2306 : #endif
; 2307 : 		LogAddTD("[SetItemMix] [%s][%s] CBMix Success %d Money : %d-%d (SetName:%s)", lpObj->AccountID, lpObj->Name, lpObj->ChaosSuccessRate,
; 2308 : 			lpObj->Money, lpObj->ChaosMoney, gSetItemOption.GetSetOptionName(lpObj->pChaosBox[MixSetItemIndex].m_Type, setoption));

