; Listing generated by Microsoft (R) Optimizing Compiler Version 16.00.40219.01 

	TITLE	C:\muserver_dev\development\MU-S8EP2-Repack\GameServer\Source\CLoginCount.cpp
	.686P
	.XMM
	include listing.inc
	.model	flat

INCLUDELIB LIBCMT
INCLUDELIB OLDNAMES

PUBLIC	??1CLoginCount@@QAE@XZ				; CLoginCount::~CLoginCount
; Function compile flags: /Ogtp
; File c:\muserver_dev\development\mu-s8ep2-repack\gameserver\source\clogincount.cpp
;	COMDAT ??1CLoginCount@@QAE@XZ
_TEXT	SEGMENT
??1CLoginCount@@QAE@XZ PROC				; CLoginCount::~CLoginCount, COMDAT
; _this$ = ecx

; 21   : 	return;
; 22   : }

  00000	c3		 ret	 0
??1CLoginCount@@QAE@XZ ENDP				; CLoginCount::~CLoginCount
_TEXT	ENDS
PUBLIC	?Init@CLoginCount@@QAEXXZ			; CLoginCount::Init
; Function compile flags: /Ogtp
;	COMDAT ?Init@CLoginCount@@QAEXXZ
_TEXT	SEGMENT
?Init@CLoginCount@@QAEXXZ PROC				; CLoginCount::Init, COMDAT
; _this$ = ecx

; 26   : 	this->m_count=0;

  00000	c7 01 00 00 00
	00		 mov	 DWORD PTR [ecx], 0

; 27   : }

  00006	c3		 ret	 0
?Init@CLoginCount@@QAEXXZ ENDP				; CLoginCount::Init
_TEXT	ENDS
PUBLIC	?Add@CLoginCount@@QAEXXZ			; CLoginCount::Add
; Function compile flags: /Ogtp
;	COMDAT ?Add@CLoginCount@@QAEXXZ
_TEXT	SEGMENT
?Add@CLoginCount@@QAEXXZ PROC				; CLoginCount::Add, COMDAT
; _this$ = ecx

; 31   : 	this->m_count++;

  00000	ff 01		 inc	 DWORD PTR [ecx]

; 32   : }

  00002	c3		 ret	 0
?Add@CLoginCount@@QAEXXZ ENDP				; CLoginCount::Add
_TEXT	ENDS
PUBLIC	?Delete@CLoginCount@@QAEXXZ			; CLoginCount::Delete
; Function compile flags: /Ogtp
;	COMDAT ?Delete@CLoginCount@@QAEXXZ
_TEXT	SEGMENT
?Delete@CLoginCount@@QAEXXZ PROC			; CLoginCount::Delete, COMDAT
; _this$ = ecx

; 36   : 	this->m_count--;

  00000	ff 09		 dec	 DWORD PTR [ecx]

; 37   : 
; 38   : 	if ( this->m_count < 0 )

  00002	79 06		 jns	 SHORT $LN1@Delete

; 39   : 	{
; 40   : 		this->m_count = 0;

  00004	c7 01 00 00 00
	00		 mov	 DWORD PTR [ecx], 0
$LN1@Delete:

; 41   : 	}
; 42   : }

  0000a	c3		 ret	 0
?Delete@CLoginCount@@QAEXXZ ENDP			; CLoginCount::Delete
_TEXT	ENDS
PUBLIC	?Get@CLoginCount@@QAEHXZ			; CLoginCount::Get
; Function compile flags: /Ogtp
;	COMDAT ?Get@CLoginCount@@QAEHXZ
_TEXT	SEGMENT
?Get@CLoginCount@@QAEHXZ PROC				; CLoginCount::Get, COMDAT
; _this$ = ecx

; 46   : 	return this->m_count;

  00000	8b 01		 mov	 eax, DWORD PTR [ecx]

; 47   : }

  00002	c3		 ret	 0
?Get@CLoginCount@@QAEHXZ ENDP				; CLoginCount::Get
_TEXT	ENDS
PUBLIC	??0CLoginCount@@QAE@XZ				; CLoginCount::CLoginCount
; Function compile flags: /Ogtp
;	COMDAT ??0CLoginCount@@QAE@XZ
_TEXT	SEGMENT
??0CLoginCount@@QAE@XZ PROC				; CLoginCount::CLoginCount, COMDAT
; _this$ = ecx

; 16   : 	this->Init();

  00000	e8 00 00 00 00	 call	 ?Init@CLoginCount@@QAEXXZ ; CLoginCount::Init

; 17   : }

  00005	8b c1		 mov	 eax, ecx
  00007	c3		 ret	 0
??0CLoginCount@@QAE@XZ ENDP				; CLoginCount::CLoginCount
_TEXT	ENDS
END
