; Listing generated by Microsoft (R) Optimizing Compiler Version 16.00.40219.01 

	TITLE	C:\muserver_dev\development\MU-S8EP2-Repack\GameServer\Source\CrywolfDarkElf.cpp
	.686P
	.XMM
	include listing.inc
	.model	flat

INCLUDELIB LIBCMT
INCLUDELIB OLDNAMES

PUBLIC	??_7CCrywolfDarkElf@@6B@			; CCrywolfDarkElf::`vftable'
PUBLIC	??0CCrywolfDarkElf@@QAE@XZ			; CCrywolfDarkElf::CCrywolfDarkElf
PUBLIC	??_R4CCrywolfDarkElf@@6B@			; CCrywolfDarkElf::`RTTI Complete Object Locator'
PUBLIC	??_R0?AVCCrywolfDarkElf@@@8			; CCrywolfDarkElf `RTTI Type Descriptor'
PUBLIC	??_R3CCrywolfDarkElf@@8				; CCrywolfDarkElf::`RTTI Class Hierarchy Descriptor'
PUBLIC	??_R2CCrywolfDarkElf@@8				; CCrywolfDarkElf::`RTTI Base Class Array'
PUBLIC	??_R1A@?0A@EA@CCrywolfDarkElf@@8		; CCrywolfDarkElf::`RTTI Base Class Descriptor at (0,-1,0,64)'
EXTRN	??_7type_info@@6B@:QWORD			; type_info::`vftable'
EXTRN	??_ECCrywolfDarkElf@@UAEPAXI@Z:PROC		; CCrywolfDarkElf::`vector deleting destructor'
;	COMDAT ??_R1A@?0A@EA@CCrywolfDarkElf@@8
; File c:\muserver_dev\development\mu-s8ep2-repack\gameserver\source\crywolfdarkelf.cpp
rdata$r	SEGMENT
??_R1A@?0A@EA@CCrywolfDarkElf@@8 DD FLAT:??_R0?AVCCrywolfDarkElf@@@8 ; CCrywolfDarkElf::`RTTI Base Class Descriptor at (0,-1,0,64)'
	DD	00H
	DD	00H
	DD	0ffffffffH
	DD	00H
	DD	040H
	DD	FLAT:??_R3CCrywolfDarkElf@@8
rdata$r	ENDS
;	COMDAT ??_R2CCrywolfDarkElf@@8
rdata$r	SEGMENT
??_R2CCrywolfDarkElf@@8 DD FLAT:??_R1A@?0A@EA@CCrywolfDarkElf@@8 ; CCrywolfDarkElf::`RTTI Base Class Array'
rdata$r	ENDS
;	COMDAT ??_R3CCrywolfDarkElf@@8
rdata$r	SEGMENT
??_R3CCrywolfDarkElf@@8 DD 00H				; CCrywolfDarkElf::`RTTI Class Hierarchy Descriptor'
	DD	00H
	DD	01H
	DD	FLAT:??_R2CCrywolfDarkElf@@8
rdata$r	ENDS
;	COMDAT ??_R0?AVCCrywolfDarkElf@@@8
_DATA	SEGMENT
??_R0?AVCCrywolfDarkElf@@@8 DD FLAT:??_7type_info@@6B@	; CCrywolfDarkElf `RTTI Type Descriptor'
	DD	00H
	DB	'.?AVCCrywolfDarkElf@@', 00H
_DATA	ENDS
;	COMDAT ??_R4CCrywolfDarkElf@@6B@
rdata$r	SEGMENT
??_R4CCrywolfDarkElf@@6B@ DD 00H			; CCrywolfDarkElf::`RTTI Complete Object Locator'
	DD	00H
	DD	00H
	DD	FLAT:??_R0?AVCCrywolfDarkElf@@@8
	DD	FLAT:??_R3CCrywolfDarkElf@@8
rdata$r	ENDS
;	COMDAT ??_7CCrywolfDarkElf@@6B@
CONST	SEGMENT
??_7CCrywolfDarkElf@@6B@ DD FLAT:??_R4CCrywolfDarkElf@@6B@ ; CCrywolfDarkElf::`vftable'
	DD	FLAT:??_ECCrywolfDarkElf@@UAEPAXI@Z
; Function compile flags: /Ogtp
CONST	ENDS
;	COMDAT ??0CCrywolfDarkElf@@QAE@XZ
_TEXT	SEGMENT
??0CCrywolfDarkElf@@QAE@XZ PROC				; CCrywolfDarkElf::CCrywolfDarkElf, COMDAT
; _this$ = ecx

; 14   : {

  00000	8b c1		 mov	 eax, ecx
  00002	c7 00 00 00 00
	00		 mov	 DWORD PTR [eax], OFFSET ??_7CCrywolfDarkElf@@6B@

; 15   : 	return;
; 16   : }

  00008	c3		 ret	 0
??0CCrywolfDarkElf@@QAE@XZ ENDP				; CCrywolfDarkElf::CCrywolfDarkElf
_TEXT	ENDS
PUBLIC	??1CCrywolfDarkElf@@UAE@XZ			; CCrywolfDarkElf::~CCrywolfDarkElf
; Function compile flags: /Ogtp
;	COMDAT ??1CCrywolfDarkElf@@UAE@XZ
_TEXT	SEGMENT
??1CCrywolfDarkElf@@UAE@XZ PROC				; CCrywolfDarkElf::~CCrywolfDarkElf, COMDAT
; _this$ = ecx

; 19   : {

  00000	c7 01 00 00 00
	00		 mov	 DWORD PTR [ecx], OFFSET ??_7CCrywolfDarkElf@@6B@

; 20   : 	return;
; 21   : }

  00006	c3		 ret	 0
??1CCrywolfDarkElf@@UAE@XZ ENDP				; CCrywolfDarkElf::~CCrywolfDarkElf
_TEXT	ENDS
PUBLIC	?CrywolfDarkElfAct@CCrywolfDarkElf@@QAEXH@Z	; CCrywolfDarkElf::CrywolfDarkElfAct
; Function compile flags: /Ogtp
;	COMDAT ?CrywolfDarkElfAct@CCrywolfDarkElf@@QAEXH@Z
_TEXT	SEGMENT
_iIndex$ = 8						; size = 4
?CrywolfDarkElfAct@CCrywolfDarkElf@@QAEXH@Z PROC	; CCrywolfDarkElf::CrywolfDarkElfAct, COMDAT
; _this$ = ecx

; 26   : 
; 27   : 	return;
; 28   : }

  00000	c2 04 00	 ret	 4
?CrywolfDarkElfAct@CCrywolfDarkElf@@QAEXH@Z ENDP	; CCrywolfDarkElf::CrywolfDarkElfAct
_TEXT	ENDS
EXTRN	??3@YAXPAX@Z:PROC				; operator delete
; Function compile flags: /Ogtp
;	COMDAT ??_GCCrywolfDarkElf@@UAEPAXI@Z
_TEXT	SEGMENT
___flags$ = 8						; size = 4
??_GCCrywolfDarkElf@@UAEPAXI@Z PROC			; CCrywolfDarkElf::`scalar deleting destructor', COMDAT
; _this$ = ecx
  00000	55		 push	 ebp
  00001	8b ec		 mov	 ebp, esp
  00003	56		 push	 esi
  00004	8b f1		 mov	 esi, ecx
  00006	e8 00 00 00 00	 call	 ??1CCrywolfDarkElf@@UAE@XZ ; CCrywolfDarkElf::~CCrywolfDarkElf
  0000b	f6 45 08 01	 test	 BYTE PTR ___flags$[ebp], 1
  0000f	74 09		 je	 SHORT $LN4@scalar
  00011	56		 push	 esi
  00012	e8 00 00 00 00	 call	 ??3@YAXPAX@Z		; operator delete
  00017	83 c4 04	 add	 esp, 4
$LN4@scalar:
  0001a	8b c6		 mov	 eax, esi
  0001c	5e		 pop	 esi
  0001d	5d		 pop	 ebp
  0001e	c2 04 00	 ret	 4
??_GCCrywolfDarkElf@@UAEPAXI@Z ENDP			; CCrywolfDarkElf::`scalar deleting destructor'
_TEXT	ENDS
EXTRN	_atexit:PROC
; Function compile flags: /Ogtp
;	COMDAT ??__Eg_CrywolfMON_DarkElf@@YAXXZ
text$yc	SEGMENT
??__Eg_CrywolfMON_DarkElf@@YAXXZ PROC			; `dynamic initializer for 'g_CrywolfMON_DarkElf'', COMDAT

; 8    : CCrywolfDarkElf g_CrywolfMON_DarkElf;

  00000	b9 00 00 00 00	 mov	 ecx, OFFSET ?g_CrywolfMON_DarkElf@@3VCCrywolfDarkElf@@A ; g_CrywolfMON_DarkElf
  00005	e8 00 00 00 00	 call	 ??0CCrywolfDarkElf@@QAE@XZ ; CCrywolfDarkElf::CCrywolfDarkElf
  0000a	68 00 00 00 00	 push	 OFFSET ??__Fg_CrywolfMON_DarkElf@@YAXXZ ; `dynamic atexit destructor for 'g_CrywolfMON_DarkElf''
  0000f	e8 00 00 00 00	 call	 _atexit
  00014	59		 pop	 ecx
  00015	c3		 ret	 0
??__Eg_CrywolfMON_DarkElf@@YAXXZ ENDP			; `dynamic initializer for 'g_CrywolfMON_DarkElf''
; Function compile flags: /Ogtp
text$yc	ENDS
;	COMDAT ??__Fg_CrywolfMON_DarkElf@@YAXXZ
text$yd	SEGMENT
??__Fg_CrywolfMON_DarkElf@@YAXXZ PROC			; `dynamic atexit destructor for 'g_CrywolfMON_DarkElf'', COMDAT
  00000	b9 00 00 00 00	 mov	 ecx, OFFSET ?g_CrywolfMON_DarkElf@@3VCCrywolfDarkElf@@A ; g_CrywolfMON_DarkElf
  00005	e9 00 00 00 00	 jmp	 ??1CCrywolfDarkElf@@UAE@XZ ; CCrywolfDarkElf::~CCrywolfDarkElf
??__Fg_CrywolfMON_DarkElf@@YAXXZ ENDP			; `dynamic atexit destructor for 'g_CrywolfMON_DarkElf''
text$yd	ENDS
PUBLIC	?g_CrywolfMON_DarkElf@@3VCCrywolfDarkElf@@A	; g_CrywolfMON_DarkElf
_BSS	SEGMENT
?g_CrywolfMON_DarkElf@@3VCCrywolfDarkElf@@A DD 01H DUP (?) ; g_CrywolfMON_DarkElf
_BSS	ENDS
CRT$XCU	SEGMENT
_g_CrywolfMON_DarkElf$initializer$ DD FLAT:??__Eg_CrywolfMON_DarkElf@@YAXXZ
CRT$XCU	ENDS
END
