; Listing generated by Microsoft (R) Optimizing Compiler Version 16.00.40219.01 

	TITLE	C:\muserver_dev\development\MU-S8EP2-Repack\GameServer\Source\CrywolfTanker.cpp
	.686P
	.XMM
	include listing.inc
	.model	flat

INCLUDELIB LIBCMT
INCLUDELIB OLDNAMES

PUBLIC	??_7CCrywolfTanker@@6B@				; CCrywolfTanker::`vftable'
PUBLIC	??0CCrywolfTanker@@QAE@XZ			; CCrywolfTanker::CCrywolfTanker
PUBLIC	??_R4CCrywolfTanker@@6B@			; CCrywolfTanker::`RTTI Complete Object Locator'
PUBLIC	??_R0?AVCCrywolfTanker@@@8			; CCrywolfTanker `RTTI Type Descriptor'
PUBLIC	??_R3CCrywolfTanker@@8				; CCrywolfTanker::`RTTI Class Hierarchy Descriptor'
PUBLIC	??_R2CCrywolfTanker@@8				; CCrywolfTanker::`RTTI Base Class Array'
PUBLIC	??_R1A@?0A@EA@CCrywolfTanker@@8			; CCrywolfTanker::`RTTI Base Class Descriptor at (0,-1,0,64)'
EXTRN	??_7type_info@@6B@:QWORD			; type_info::`vftable'
EXTRN	??_ECCrywolfTanker@@UAEPAXI@Z:PROC		; CCrywolfTanker::`vector deleting destructor'
;	COMDAT ??_R1A@?0A@EA@CCrywolfTanker@@8
; File c:\muserver_dev\development\mu-s8ep2-repack\gameserver\source\crywolftanker.cpp
rdata$r	SEGMENT
??_R1A@?0A@EA@CCrywolfTanker@@8 DD FLAT:??_R0?AVCCrywolfTanker@@@8 ; CCrywolfTanker::`RTTI Base Class Descriptor at (0,-1,0,64)'
	DD	00H
	DD	00H
	DD	0ffffffffH
	DD	00H
	DD	040H
	DD	FLAT:??_R3CCrywolfTanker@@8
rdata$r	ENDS
;	COMDAT ??_R2CCrywolfTanker@@8
rdata$r	SEGMENT
??_R2CCrywolfTanker@@8 DD FLAT:??_R1A@?0A@EA@CCrywolfTanker@@8 ; CCrywolfTanker::`RTTI Base Class Array'
rdata$r	ENDS
;	COMDAT ??_R3CCrywolfTanker@@8
rdata$r	SEGMENT
??_R3CCrywolfTanker@@8 DD 00H				; CCrywolfTanker::`RTTI Class Hierarchy Descriptor'
	DD	00H
	DD	01H
	DD	FLAT:??_R2CCrywolfTanker@@8
rdata$r	ENDS
;	COMDAT ??_R0?AVCCrywolfTanker@@@8
_DATA	SEGMENT
??_R0?AVCCrywolfTanker@@@8 DD FLAT:??_7type_info@@6B@	; CCrywolfTanker `RTTI Type Descriptor'
	DD	00H
	DB	'.?AVCCrywolfTanker@@', 00H
_DATA	ENDS
;	COMDAT ??_R4CCrywolfTanker@@6B@
rdata$r	SEGMENT
??_R4CCrywolfTanker@@6B@ DD 00H				; CCrywolfTanker::`RTTI Complete Object Locator'
	DD	00H
	DD	00H
	DD	FLAT:??_R0?AVCCrywolfTanker@@@8
	DD	FLAT:??_R3CCrywolfTanker@@8
rdata$r	ENDS
;	COMDAT ??_7CCrywolfTanker@@6B@
CONST	SEGMENT
??_7CCrywolfTanker@@6B@ DD FLAT:??_R4CCrywolfTanker@@6B@ ; CCrywolfTanker::`vftable'
	DD	FLAT:??_ECCrywolfTanker@@UAEPAXI@Z
; Function compile flags: /Ogtp
CONST	ENDS
;	COMDAT ??0CCrywolfTanker@@QAE@XZ
_TEXT	SEGMENT
??0CCrywolfTanker@@QAE@XZ PROC				; CCrywolfTanker::CCrywolfTanker, COMDAT
; _this$ = ecx

; 14   : {

  00000	8b c1		 mov	 eax, ecx
  00002	c7 00 00 00 00
	00		 mov	 DWORD PTR [eax], OFFSET ??_7CCrywolfTanker@@6B@

; 15   : 	return;
; 16   : }

  00008	c3		 ret	 0
??0CCrywolfTanker@@QAE@XZ ENDP				; CCrywolfTanker::CCrywolfTanker
_TEXT	ENDS
PUBLIC	??1CCrywolfTanker@@UAE@XZ			; CCrywolfTanker::~CCrywolfTanker
; Function compile flags: /Ogtp
;	COMDAT ??1CCrywolfTanker@@UAE@XZ
_TEXT	SEGMENT
??1CCrywolfTanker@@UAE@XZ PROC				; CCrywolfTanker::~CCrywolfTanker, COMDAT
; _this$ = ecx

; 19   : {

  00000	c7 01 00 00 00
	00		 mov	 DWORD PTR [ecx], OFFSET ??_7CCrywolfTanker@@6B@

; 20   : 	return;
; 21   : }

  00006	c3		 ret	 0
??1CCrywolfTanker@@UAE@XZ ENDP				; CCrywolfTanker::~CCrywolfTanker
_TEXT	ENDS
PUBLIC	?CrywolfTankerAct@CCrywolfTanker@@QAEXH@Z	; CCrywolfTanker::CrywolfTankerAct
; Function compile flags: /Ogtp
;	COMDAT ?CrywolfTankerAct@CCrywolfTanker@@QAEXH@Z
_TEXT	SEGMENT
_iIndex$ = 8						; size = 4
?CrywolfTankerAct@CCrywolfTanker@@QAEXH@Z PROC		; CCrywolfTanker::CrywolfTankerAct, COMDAT
; _this$ = ecx

; 26   : 
; 27   : 	return;
; 28   : }

  00000	c2 04 00	 ret	 4
?CrywolfTankerAct@CCrywolfTanker@@QAEXH@Z ENDP		; CCrywolfTanker::CrywolfTankerAct
_TEXT	ENDS
EXTRN	??3@YAXPAX@Z:PROC				; operator delete
; Function compile flags: /Ogtp
;	COMDAT ??_GCCrywolfTanker@@UAEPAXI@Z
_TEXT	SEGMENT
___flags$ = 8						; size = 4
??_GCCrywolfTanker@@UAEPAXI@Z PROC			; CCrywolfTanker::`scalar deleting destructor', COMDAT
; _this$ = ecx
  00000	55		 push	 ebp
  00001	8b ec		 mov	 ebp, esp
  00003	56		 push	 esi
  00004	8b f1		 mov	 esi, ecx
  00006	e8 00 00 00 00	 call	 ??1CCrywolfTanker@@UAE@XZ ; CCrywolfTanker::~CCrywolfTanker
  0000b	f6 45 08 01	 test	 BYTE PTR ___flags$[ebp], 1
  0000f	74 09		 je	 SHORT $LN4@scalar
  00011	56		 push	 esi
  00012	e8 00 00 00 00	 call	 ??3@YAXPAX@Z		; operator delete
  00017	83 c4 04	 add	 esp, 4
$LN4@scalar:
  0001a	8b c6		 mov	 eax, esi
  0001c	5e		 pop	 esi
  0001d	5d		 pop	 ebp
  0001e	c2 04 00	 ret	 4
??_GCCrywolfTanker@@UAEPAXI@Z ENDP			; CCrywolfTanker::`scalar deleting destructor'
_TEXT	ENDS
EXTRN	_atexit:PROC
; Function compile flags: /Ogtp
;	COMDAT ??__Eg_CrywolfMON_Tanker@@YAXXZ
text$yc	SEGMENT
??__Eg_CrywolfMON_Tanker@@YAXXZ PROC			; `dynamic initializer for 'g_CrywolfMON_Tanker'', COMDAT

; 8    : CCrywolfTanker g_CrywolfMON_Tanker;

  00000	b9 00 00 00 00	 mov	 ecx, OFFSET ?g_CrywolfMON_Tanker@@3VCCrywolfTanker@@A ; g_CrywolfMON_Tanker
  00005	e8 00 00 00 00	 call	 ??0CCrywolfTanker@@QAE@XZ ; CCrywolfTanker::CCrywolfTanker
  0000a	68 00 00 00 00	 push	 OFFSET ??__Fg_CrywolfMON_Tanker@@YAXXZ ; `dynamic atexit destructor for 'g_CrywolfMON_Tanker''
  0000f	e8 00 00 00 00	 call	 _atexit
  00014	59		 pop	 ecx
  00015	c3		 ret	 0
??__Eg_CrywolfMON_Tanker@@YAXXZ ENDP			; `dynamic initializer for 'g_CrywolfMON_Tanker''
; Function compile flags: /Ogtp
text$yc	ENDS
;	COMDAT ??__Fg_CrywolfMON_Tanker@@YAXXZ
text$yd	SEGMENT
??__Fg_CrywolfMON_Tanker@@YAXXZ PROC			; `dynamic atexit destructor for 'g_CrywolfMON_Tanker'', COMDAT
  00000	b9 00 00 00 00	 mov	 ecx, OFFSET ?g_CrywolfMON_Tanker@@3VCCrywolfTanker@@A ; g_CrywolfMON_Tanker
  00005	e9 00 00 00 00	 jmp	 ??1CCrywolfTanker@@UAE@XZ ; CCrywolfTanker::~CCrywolfTanker
??__Fg_CrywolfMON_Tanker@@YAXXZ ENDP			; `dynamic atexit destructor for 'g_CrywolfMON_Tanker''
text$yd	ENDS
PUBLIC	?g_CrywolfMON_Tanker@@3VCCrywolfTanker@@A	; g_CrywolfMON_Tanker
_BSS	SEGMENT
?g_CrywolfMON_Tanker@@3VCCrywolfTanker@@A DD 01H DUP (?) ; g_CrywolfMON_Tanker
_BSS	ENDS
CRT$XCU	SEGMENT
_g_CrywolfMON_Tanker$initializer$ DD FLAT:??__Eg_CrywolfMON_Tanker@@YAXXZ
CRT$XCU	ENDS
END
