; Listing generated by Microsoft (R) Optimizing Compiler Version 16.00.40219.01 

	TITLE	C:\muserver_dev\development\MU-S8EP2-Repack\GameServer\Source\CrywolfSync.cpp
	.686P
	.XMM
	include listing.inc
	.model	flat

INCLUDELIB LIBCMT
INCLUDELIB OLDNAMES

PUBLIC	??_7CCrywolfSync@@6B@				; CCrywolfSync::`vftable'
PUBLIC	??0CCrywolfSync@@QAE@XZ				; CCrywolfSync::CCrywolfSync
PUBLIC	??_R4CCrywolfSync@@6B@				; CCrywolfSync::`RTTI Complete Object Locator'
PUBLIC	??_R0?AVCCrywolfSync@@@8			; CCrywolfSync `RTTI Type Descriptor'
PUBLIC	??_R3CCrywolfSync@@8				; CCrywolfSync::`RTTI Class Hierarchy Descriptor'
PUBLIC	??_R2CCrywolfSync@@8				; CCrywolfSync::`RTTI Base Class Array'
PUBLIC	??_R1A@?0A@EA@CCrywolfSync@@8			; CCrywolfSync::`RTTI Base Class Descriptor at (0,-1,0,64)'
EXTRN	??_7type_info@@6B@:QWORD			; type_info::`vftable'
EXTRN	??_ECCrywolfSync@@UAEPAXI@Z:PROC		; CCrywolfSync::`vector deleting destructor'
;	COMDAT ??_R1A@?0A@EA@CCrywolfSync@@8
; File c:\muserver_dev\development\mu-s8ep2-repack\gameserver\source\crywolfsync.cpp
rdata$r	SEGMENT
??_R1A@?0A@EA@CCrywolfSync@@8 DD FLAT:??_R0?AVCCrywolfSync@@@8 ; CCrywolfSync::`RTTI Base Class Descriptor at (0,-1,0,64)'
	DD	00H
	DD	00H
	DD	0ffffffffH
	DD	00H
	DD	040H
	DD	FLAT:??_R3CCrywolfSync@@8
rdata$r	ENDS
;	COMDAT ??_R2CCrywolfSync@@8
rdata$r	SEGMENT
??_R2CCrywolfSync@@8 DD FLAT:??_R1A@?0A@EA@CCrywolfSync@@8 ; CCrywolfSync::`RTTI Base Class Array'
rdata$r	ENDS
;	COMDAT ??_R3CCrywolfSync@@8
rdata$r	SEGMENT
??_R3CCrywolfSync@@8 DD 00H				; CCrywolfSync::`RTTI Class Hierarchy Descriptor'
	DD	00H
	DD	01H
	DD	FLAT:??_R2CCrywolfSync@@8
rdata$r	ENDS
;	COMDAT ??_R0?AVCCrywolfSync@@@8
_DATA	SEGMENT
??_R0?AVCCrywolfSync@@@8 DD FLAT:??_7type_info@@6B@	; CCrywolfSync `RTTI Type Descriptor'
	DD	00H
	DB	'.?AVCCrywolfSync@@', 00H
_DATA	ENDS
;	COMDAT ??_R4CCrywolfSync@@6B@
rdata$r	SEGMENT
??_R4CCrywolfSync@@6B@ DD 00H				; CCrywolfSync::`RTTI Complete Object Locator'
	DD	00H
	DD	00H
	DD	FLAT:??_R0?AVCCrywolfSync@@@8
	DD	FLAT:??_R3CCrywolfSync@@8
rdata$r	ENDS
;	COMDAT ??_7CCrywolfSync@@6B@
CONST	SEGMENT
??_7CCrywolfSync@@6B@ DD FLAT:??_R4CCrywolfSync@@6B@	; CCrywolfSync::`vftable'
	DD	FLAT:??_ECCrywolfSync@@UAEPAXI@Z
; Function compile flags: /Ogtp
CONST	ENDS
;	COMDAT ??0CCrywolfSync@@QAE@XZ
_TEXT	SEGMENT
??0CCrywolfSync@@QAE@XZ PROC				; CCrywolfSync::CCrywolfSync, COMDAT
; _this$ = ecx

; 15   : {

  00000	8b c1		 mov	 eax, ecx

; 16   : 	this->m_bCrywolfEnable = TRUE;
; 17   : 	this->m_bApplyBenefit = FALSE;

  00002	33 c9		 xor	 ecx, ecx
  00004	ba 01 00 00 00	 mov	 edx, 1
  00009	89 48 08	 mov	 DWORD PTR [eax+8], ecx

; 18   : 	this->m_bApplyPenalty = FALSE;

  0000c	89 48 0c	 mov	 DWORD PTR [eax+12], ecx

; 19   : 	this->m_iOccupationState = 1;
; 20   : 	this->m_iCrywolfState = 0;

  0000f	89 48 10	 mov	 DWORD PTR [eax+16], ecx

; 21   : 	this->m_iPlusChaosRate = 0;

  00012	89 48 18	 mov	 DWORD PTR [eax+24], ecx

; 22   : 	this->m_iGemDropPenaltyRate = 100;

  00015	b9 64 00 00 00	 mov	 ecx, 100		; 00000064H
  0001a	c7 00 00 00 00
	00		 mov	 DWORD PTR [eax], OFFSET ??_7CCrywolfSync@@6B@
  00020	89 50 04	 mov	 DWORD PTR [eax+4], edx
  00023	89 50 14	 mov	 DWORD PTR [eax+20], edx
  00026	89 48 1c	 mov	 DWORD PTR [eax+28], ecx

; 23   : 	this->m_iGettingExpPenaltyRate = 100;

  00029	89 48 20	 mov	 DWORD PTR [eax+32], ecx

; 24   : 	this->m_iMinusMonHPBenefitRate = 100;

  0002c	89 48 24	 mov	 DWORD PTR [eax+36], ecx

; 25   : 	this->m_iKundunHPRefillState = 1;

  0002f	89 50 28	 mov	 DWORD PTR [eax+40], edx

; 26   : }

  00032	c3		 ret	 0
??0CCrywolfSync@@QAE@XZ ENDP				; CCrywolfSync::CCrywolfSync
_TEXT	ENDS
PUBLIC	??1CCrywolfSync@@UAE@XZ				; CCrywolfSync::~CCrywolfSync
; Function compile flags: /Ogtp
;	COMDAT ??1CCrywolfSync@@UAE@XZ
_TEXT	SEGMENT
??1CCrywolfSync@@UAE@XZ PROC				; CCrywolfSync::~CCrywolfSync, COMDAT
; _this$ = ecx

; 29   : {

  00000	c7 01 00 00 00
	00		 mov	 DWORD PTR [ecx], OFFSET ??_7CCrywolfSync@@6B@

; 30   : 	return;
; 31   : }

  00006	c3		 ret	 0
??1CCrywolfSync@@UAE@XZ ENDP				; CCrywolfSync::~CCrywolfSync
_TEXT	ENDS
PUBLIC	?CheckEnableCrywolf@CCrywolfSync@@QAEHXZ	; CCrywolfSync::CheckEnableCrywolf
; Function compile flags: /Ogtp
;	COMDAT ?CheckEnableCrywolf@CCrywolfSync@@QAEHXZ
_TEXT	SEGMENT
?CheckEnableCrywolf@CCrywolfSync@@QAEHXZ PROC		; CCrywolfSync::CheckEnableCrywolf, COMDAT
; _this$ = ecx

; 37   : 	return this->m_bCrywolfEnable;

  00000	8b 41 04	 mov	 eax, DWORD PTR [ecx+4]

; 38   : }

  00003	c3		 ret	 0
?CheckEnableCrywolf@CCrywolfSync@@QAEHXZ ENDP		; CCrywolfSync::CheckEnableCrywolf
_TEXT	ENDS
PUBLIC	?SetEnableCrywolf@CCrywolfSync@@QAEXH@Z		; CCrywolfSync::SetEnableCrywolf
; Function compile flags: /Ogtp
;	COMDAT ?SetEnableCrywolf@CCrywolfSync@@QAEXH@Z
_TEXT	SEGMENT
_bEnable$ = 8						; size = 4
?SetEnableCrywolf@CCrywolfSync@@QAEXH@Z PROC		; CCrywolfSync::SetEnableCrywolf, COMDAT
; _this$ = ecx

; 42   : {

  00000	55		 push	 ebp
  00001	8b ec		 mov	 ebp, esp

; 43   : 	this->m_bCrywolfEnable = bEnable;

  00003	8b 45 08	 mov	 eax, DWORD PTR _bEnable$[ebp]
  00006	89 41 04	 mov	 DWORD PTR [ecx+4], eax

; 44   : }

  00009	5d		 pop	 ebp
  0000a	c2 04 00	 ret	 4
?SetEnableCrywolf@CCrywolfSync@@QAEXH@Z ENDP		; CCrywolfSync::SetEnableCrywolf
_TEXT	ENDS
PUBLIC	?GetOccupationState@CCrywolfSync@@QAEHXZ	; CCrywolfSync::GetOccupationState
; Function compile flags: /Ogtp
;	COMDAT ?GetOccupationState@CCrywolfSync@@QAEHXZ
_TEXT	SEGMENT
?GetOccupationState@CCrywolfSync@@QAEHXZ PROC		; CCrywolfSync::GetOccupationState, COMDAT
; _this$ = ecx

; 48   : 	return this->m_iOccupationState;

  00000	8b 41 14	 mov	 eax, DWORD PTR [ecx+20]

; 49   : }

  00003	c3		 ret	 0
?GetOccupationState@CCrywolfSync@@QAEHXZ ENDP		; CCrywolfSync::GetOccupationState
_TEXT	ENDS
PUBLIC	?GetCrywolfState@CCrywolfSync@@QAEHXZ		; CCrywolfSync::GetCrywolfState
; Function compile flags: /Ogtp
;	COMDAT ?GetCrywolfState@CCrywolfSync@@QAEHXZ
_TEXT	SEGMENT
?GetCrywolfState@CCrywolfSync@@QAEHXZ PROC		; CCrywolfSync::GetCrywolfState, COMDAT
; _this$ = ecx

; 53   : 	return this->m_iCrywolfState;

  00000	8b 41 10	 mov	 eax, DWORD PTR [ecx+16]

; 54   : }

  00003	c3		 ret	 0
?GetCrywolfState@CCrywolfSync@@QAEHXZ ENDP		; CCrywolfSync::GetCrywolfState
_TEXT	ENDS
PUBLIC	?SetOccupationState@CCrywolfSync@@QAEXH@Z	; CCrywolfSync::SetOccupationState
; Function compile flags: /Ogtp
;	COMDAT ?SetOccupationState@CCrywolfSync@@QAEXH@Z
_TEXT	SEGMENT
_iOccupationState$ = 8					; size = 4
?SetOccupationState@CCrywolfSync@@QAEXH@Z PROC		; CCrywolfSync::SetOccupationState, COMDAT
; _this$ = ecx

; 57   : {

  00000	55		 push	 ebp
  00001	8b ec		 mov	 ebp, esp

; 58   : 	this->m_iOccupationState = iOccupationState;

  00003	8b 45 08	 mov	 eax, DWORD PTR _iOccupationState$[ebp]
  00006	89 41 14	 mov	 DWORD PTR [ecx+20], eax

; 59   : }

  00009	5d		 pop	 ebp
  0000a	c2 04 00	 ret	 4
?SetOccupationState@CCrywolfSync@@QAEXH@Z ENDP		; CCrywolfSync::SetOccupationState
_TEXT	ENDS
PUBLIC	?SetCrywolfState@CCrywolfSync@@QAEXH@Z		; CCrywolfSync::SetCrywolfState
; Function compile flags: /Ogtp
;	COMDAT ?SetCrywolfState@CCrywolfSync@@QAEXH@Z
_TEXT	SEGMENT
_iCrywolfState$ = 8					; size = 4
?SetCrywolfState@CCrywolfSync@@QAEXH@Z PROC		; CCrywolfSync::SetCrywolfState, COMDAT
; _this$ = ecx

; 62   : {

  00000	55		 push	 ebp
  00001	8b ec		 mov	 ebp, esp

; 63   : 	this->m_iCrywolfState = iCrywolfState;

  00003	8b 45 08	 mov	 eax, DWORD PTR _iCrywolfState$[ebp]
  00006	89 41 10	 mov	 DWORD PTR [ecx+16], eax

; 64   : }

  00009	5d		 pop	 ebp
  0000a	c2 04 00	 ret	 4
?SetCrywolfState@CCrywolfSync@@QAEXH@Z ENDP		; CCrywolfSync::SetCrywolfState
_TEXT	ENDS
PUBLIC	?GetPlusChaosRate@CCrywolfSync@@QAEHXZ		; CCrywolfSync::GetPlusChaosRate
; Function compile flags: /Ogtp
;	COMDAT ?GetPlusChaosRate@CCrywolfSync@@QAEHXZ
_TEXT	SEGMENT
?GetPlusChaosRate@CCrywolfSync@@QAEHXZ PROC		; CCrywolfSync::GetPlusChaosRate, COMDAT
; _this$ = ecx

; 68   : 	return this->m_iPlusChaosRate;

  00000	8b 41 18	 mov	 eax, DWORD PTR [ecx+24]

; 69   : }

  00003	c3		 ret	 0
?GetPlusChaosRate@CCrywolfSync@@QAEHXZ ENDP		; CCrywolfSync::GetPlusChaosRate
_TEXT	ENDS
PUBLIC	?SetPlusChaosRate@CCrywolfSync@@QAEXH@Z		; CCrywolfSync::SetPlusChaosRate
; Function compile flags: /Ogtp
;	COMDAT ?SetPlusChaosRate@CCrywolfSync@@QAEXH@Z
_TEXT	SEGMENT
_iPlusChaosRate$ = 8					; size = 4
?SetPlusChaosRate@CCrywolfSync@@QAEXH@Z PROC		; CCrywolfSync::SetPlusChaosRate, COMDAT
; _this$ = ecx

; 72   : {

  00000	55		 push	 ebp
  00001	8b ec		 mov	 ebp, esp

; 73   : 	this->m_iPlusChaosRate = iPlusChaosRate;

  00003	8b 45 08	 mov	 eax, DWORD PTR _iPlusChaosRate$[ebp]
  00006	89 41 18	 mov	 DWORD PTR [ecx+24], eax

; 74   : }

  00009	5d		 pop	 ebp
  0000a	c2 04 00	 ret	 4
?SetPlusChaosRate@CCrywolfSync@@QAEXH@Z ENDP		; CCrywolfSync::SetPlusChaosRate
_TEXT	ENDS
PUBLIC	?GetGemDropPenaltiyRate@CCrywolfSync@@QAEHXZ	; CCrywolfSync::GetGemDropPenaltiyRate
; Function compile flags: /Ogtp
;	COMDAT ?GetGemDropPenaltiyRate@CCrywolfSync@@QAEHXZ
_TEXT	SEGMENT
?GetGemDropPenaltiyRate@CCrywolfSync@@QAEHXZ PROC	; CCrywolfSync::GetGemDropPenaltiyRate, COMDAT
; _this$ = ecx

; 79   : 	return this->m_iGemDropPenaltyRate;

  00000	8b 41 1c	 mov	 eax, DWORD PTR [ecx+28]

; 80   : }

  00003	c3		 ret	 0
?GetGemDropPenaltiyRate@CCrywolfSync@@QAEHXZ ENDP	; CCrywolfSync::GetGemDropPenaltiyRate
_TEXT	ENDS
PUBLIC	?SetGemDropPenaltiyRate@CCrywolfSync@@QAEXH@Z	; CCrywolfSync::SetGemDropPenaltiyRate
; Function compile flags: /Ogtp
;	COMDAT ?SetGemDropPenaltiyRate@CCrywolfSync@@QAEXH@Z
_TEXT	SEGMENT
_iGemDropPenaltyRate$ = 8				; size = 4
?SetGemDropPenaltiyRate@CCrywolfSync@@QAEXH@Z PROC	; CCrywolfSync::SetGemDropPenaltiyRate, COMDAT
; _this$ = ecx

; 84   : {

  00000	55		 push	 ebp
  00001	8b ec		 mov	 ebp, esp

; 85   : 	this->m_iGemDropPenaltyRate = iGemDropPenaltyRate;

  00003	8b 45 08	 mov	 eax, DWORD PTR _iGemDropPenaltyRate$[ebp]
  00006	89 41 1c	 mov	 DWORD PTR [ecx+28], eax

; 86   : }

  00009	5d		 pop	 ebp
  0000a	c2 04 00	 ret	 4
?SetGemDropPenaltiyRate@CCrywolfSync@@QAEXH@Z ENDP	; CCrywolfSync::SetGemDropPenaltiyRate
_TEXT	ENDS
PUBLIC	?GetGettingExpPenaltyRate@CCrywolfSync@@QAEHXZ	; CCrywolfSync::GetGettingExpPenaltyRate
; Function compile flags: /Ogtp
;	COMDAT ?GetGettingExpPenaltyRate@CCrywolfSync@@QAEHXZ
_TEXT	SEGMENT
?GetGettingExpPenaltyRate@CCrywolfSync@@QAEHXZ PROC	; CCrywolfSync::GetGettingExpPenaltyRate, COMDAT
; _this$ = ecx

; 91   : 	return this->m_iGettingExpPenaltyRate;

  00000	8b 41 20	 mov	 eax, DWORD PTR [ecx+32]

; 92   : }

  00003	c3		 ret	 0
?GetGettingExpPenaltyRate@CCrywolfSync@@QAEHXZ ENDP	; CCrywolfSync::GetGettingExpPenaltyRate
_TEXT	ENDS
PUBLIC	?SetGettingExpPenaltyRate@CCrywolfSync@@QAEXH@Z	; CCrywolfSync::SetGettingExpPenaltyRate
; Function compile flags: /Ogtp
;	COMDAT ?SetGettingExpPenaltyRate@CCrywolfSync@@QAEXH@Z
_TEXT	SEGMENT
_iGettingExpPenaltyRate$ = 8				; size = 4
?SetGettingExpPenaltyRate@CCrywolfSync@@QAEXH@Z PROC	; CCrywolfSync::SetGettingExpPenaltyRate, COMDAT
; _this$ = ecx

; 96   : {

  00000	55		 push	 ebp
  00001	8b ec		 mov	 ebp, esp

; 97   : 	this->m_iGettingExpPenaltyRate = iGettingExpPenaltyRate;

  00003	8b 45 08	 mov	 eax, DWORD PTR _iGettingExpPenaltyRate$[ebp]
  00006	89 41 20	 mov	 DWORD PTR [ecx+32], eax

; 98   : }

  00009	5d		 pop	 ebp
  0000a	c2 04 00	 ret	 4
?SetGettingExpPenaltyRate@CCrywolfSync@@QAEXH@Z ENDP	; CCrywolfSync::SetGettingExpPenaltyRate
_TEXT	ENDS
PUBLIC	?GetMonHPBenefitRate@CCrywolfSync@@QAEHXZ	; CCrywolfSync::GetMonHPBenefitRate
; Function compile flags: /Ogtp
;	COMDAT ?GetMonHPBenefitRate@CCrywolfSync@@QAEHXZ
_TEXT	SEGMENT
?GetMonHPBenefitRate@CCrywolfSync@@QAEHXZ PROC		; CCrywolfSync::GetMonHPBenefitRate, COMDAT
; _this$ = ecx

; 103  : 	return this->m_iMinusMonHPBenefitRate;

  00000	8b 41 24	 mov	 eax, DWORD PTR [ecx+36]

; 104  : }

  00003	c3		 ret	 0
?GetMonHPBenefitRate@CCrywolfSync@@QAEHXZ ENDP		; CCrywolfSync::GetMonHPBenefitRate
_TEXT	ENDS
PUBLIC	?SetMonHPBenefitRate@CCrywolfSync@@QAEXH@Z	; CCrywolfSync::SetMonHPBenefitRate
; Function compile flags: /Ogtp
;	COMDAT ?SetMonHPBenefitRate@CCrywolfSync@@QAEXH@Z
_TEXT	SEGMENT
_iMinusMonHPBenefitRate$ = 8				; size = 4
?SetMonHPBenefitRate@CCrywolfSync@@QAEXH@Z PROC		; CCrywolfSync::SetMonHPBenefitRate, COMDAT
; _this$ = ecx

; 108  : {

  00000	55		 push	 ebp
  00001	8b ec		 mov	 ebp, esp

; 109  : 	this->m_iMinusMonHPBenefitRate = iMinusMonHPBenefitRate;

  00003	8b 45 08	 mov	 eax, DWORD PTR _iMinusMonHPBenefitRate$[ebp]
  00006	89 41 24	 mov	 DWORD PTR [ecx+36], eax

; 110  : }

  00009	5d		 pop	 ebp
  0000a	c2 04 00	 ret	 4
?SetMonHPBenefitRate@CCrywolfSync@@QAEXH@Z ENDP		; CCrywolfSync::SetMonHPBenefitRate
_TEXT	ENDS
PUBLIC	?GetKundunHPRefillState@CCrywolfSync@@QAEHXZ	; CCrywolfSync::GetKundunHPRefillState
; Function compile flags: /Ogtp
;	COMDAT ?GetKundunHPRefillState@CCrywolfSync@@QAEHXZ
_TEXT	SEGMENT
?GetKundunHPRefillState@CCrywolfSync@@QAEHXZ PROC	; CCrywolfSync::GetKundunHPRefillState, COMDAT
; _this$ = ecx

; 115  : 	return this->m_iKundunHPRefillState;

  00000	8b 41 28	 mov	 eax, DWORD PTR [ecx+40]

; 116  : }

  00003	c3		 ret	 0
?GetKundunHPRefillState@CCrywolfSync@@QAEHXZ ENDP	; CCrywolfSync::GetKundunHPRefillState
_TEXT	ENDS
PUBLIC	?SetKundunHPRefillState@CCrywolfSync@@QAEXH@Z	; CCrywolfSync::SetKundunHPRefillState
; Function compile flags: /Ogtp
;	COMDAT ?SetKundunHPRefillState@CCrywolfSync@@QAEXH@Z
_TEXT	SEGMENT
_iKundunHPRefillState$ = 8				; size = 4
?SetKundunHPRefillState@CCrywolfSync@@QAEXH@Z PROC	; CCrywolfSync::SetKundunHPRefillState, COMDAT
; _this$ = ecx

; 120  : {

  00000	55		 push	 ebp
  00001	8b ec		 mov	 ebp, esp

; 121  : 	this->m_iKundunHPRefillState = iKundunHPRefillState;

  00003	8b 45 08	 mov	 eax, DWORD PTR _iKundunHPRefillState$[ebp]
  00006	89 41 28	 mov	 DWORD PTR [ecx+40], eax

; 122  : }

  00009	5d		 pop	 ebp
  0000a	c2 04 00	 ret	 4
?SetKundunHPRefillState@CCrywolfSync@@QAEXH@Z ENDP	; CCrywolfSync::SetKundunHPRefillState
_TEXT	ENDS
EXTRN	??3@YAXPAX@Z:PROC				; operator delete
; Function compile flags: /Ogtp
;	COMDAT ??_GCCrywolfSync@@UAEPAXI@Z
_TEXT	SEGMENT
___flags$ = 8						; size = 4
??_GCCrywolfSync@@UAEPAXI@Z PROC			; CCrywolfSync::`scalar deleting destructor', COMDAT
; _this$ = ecx
  00000	55		 push	 ebp
  00001	8b ec		 mov	 ebp, esp
  00003	56		 push	 esi
  00004	8b f1		 mov	 esi, ecx
  00006	e8 00 00 00 00	 call	 ??1CCrywolfSync@@UAE@XZ	; CCrywolfSync::~CCrywolfSync
  0000b	f6 45 08 01	 test	 BYTE PTR ___flags$[ebp], 1
  0000f	74 09		 je	 SHORT $LN4@scalar
  00011	56		 push	 esi
  00012	e8 00 00 00 00	 call	 ??3@YAXPAX@Z		; operator delete
  00017	83 c4 04	 add	 esp, 4
$LN4@scalar:
  0001a	8b c6		 mov	 eax, esi
  0001c	5e		 pop	 esi
  0001d	5d		 pop	 ebp
  0001e	c2 04 00	 ret	 4
??_GCCrywolfSync@@UAEPAXI@Z ENDP			; CCrywolfSync::`scalar deleting destructor'
_TEXT	ENDS
EXTRN	_atexit:PROC
; Function compile flags: /Ogtp
;	COMDAT ??__Eg_CrywolfSync@@YAXXZ
text$yc	SEGMENT
??__Eg_CrywolfSync@@YAXXZ PROC				; `dynamic initializer for 'g_CrywolfSync'', COMDAT

; 9    : CCrywolfSync g_CrywolfSync;

  00000	b9 00 00 00 00	 mov	 ecx, OFFSET ?g_CrywolfSync@@3VCCrywolfSync@@A ; g_CrywolfSync
  00005	e8 00 00 00 00	 call	 ??0CCrywolfSync@@QAE@XZ	; CCrywolfSync::CCrywolfSync
  0000a	68 00 00 00 00	 push	 OFFSET ??__Fg_CrywolfSync@@YAXXZ ; `dynamic atexit destructor for 'g_CrywolfSync''
  0000f	e8 00 00 00 00	 call	 _atexit
  00014	59		 pop	 ecx
  00015	c3		 ret	 0
??__Eg_CrywolfSync@@YAXXZ ENDP				; `dynamic initializer for 'g_CrywolfSync''
; Function compile flags: /Ogtp
text$yc	ENDS
;	COMDAT ??__Fg_CrywolfSync@@YAXXZ
text$yd	SEGMENT
??__Fg_CrywolfSync@@YAXXZ PROC				; `dynamic atexit destructor for 'g_CrywolfSync'', COMDAT
  00000	b9 00 00 00 00	 mov	 ecx, OFFSET ?g_CrywolfSync@@3VCCrywolfSync@@A ; g_CrywolfSync
  00005	e9 00 00 00 00	 jmp	 ??1CCrywolfSync@@UAE@XZ	; CCrywolfSync::~CCrywolfSync
??__Fg_CrywolfSync@@YAXXZ ENDP				; `dynamic atexit destructor for 'g_CrywolfSync''
text$yd	ENDS
PUBLIC	?g_CrywolfSync@@3VCCrywolfSync@@A		; g_CrywolfSync
_BSS	SEGMENT
?g_CrywolfSync@@3VCCrywolfSync@@A DB 02cH DUP (?)	; g_CrywolfSync
_BSS	ENDS
CRT$XCU	SEGMENT
_g_CrywolfSync$initializer$ DD FLAT:??__Eg_CrywolfSync@@YAXXZ
CRT$XCU	ENDS
END
