; Listing generated by Microsoft (R) Optimizing Compiler Version 16.00.40219.01 

	TITLE	C:\muserver_dev\development\MU-S8EP2-Repack\GameServer\Source\CrywolfMonster.cpp
	.686P
	.XMM
	include listing.inc
	.model	flat

INCLUDELIB LIBCMT
INCLUDELIB OLDNAMES

PUBLIC	??_7CCrywolfMonster@@6B@			; CCrywolfMonster::`vftable'
PUBLIC	??0CCrywolfMonster@@QAE@XZ			; CCrywolfMonster::CCrywolfMonster
PUBLIC	??_R4CCrywolfMonster@@6B@			; CCrywolfMonster::`RTTI Complete Object Locator'
PUBLIC	??_R0?AVCCrywolfMonster@@@8			; CCrywolfMonster `RTTI Type Descriptor'
PUBLIC	??_R3CCrywolfMonster@@8				; CCrywolfMonster::`RTTI Class Hierarchy Descriptor'
PUBLIC	??_R2CCrywolfMonster@@8				; CCrywolfMonster::`RTTI Base Class Array'
PUBLIC	??_R1A@?0A@EA@CCrywolfMonster@@8		; CCrywolfMonster::`RTTI Base Class Descriptor at (0,-1,0,64)'
EXTRN	??_7type_info@@6B@:QWORD			; type_info::`vftable'
EXTRN	??_ECCrywolfMonster@@UAEPAXI@Z:PROC		; CCrywolfMonster::`vector deleting destructor'
;	COMDAT ??_R1A@?0A@EA@CCrywolfMonster@@8
; File c:\muserver_dev\development\mu-s8ep2-repack\gameserver\source\crywolfmonster.cpp
rdata$r	SEGMENT
??_R1A@?0A@EA@CCrywolfMonster@@8 DD FLAT:??_R0?AVCCrywolfMonster@@@8 ; CCrywolfMonster::`RTTI Base Class Descriptor at (0,-1,0,64)'
	DD	00H
	DD	00H
	DD	0ffffffffH
	DD	00H
	DD	040H
	DD	FLAT:??_R3CCrywolfMonster@@8
rdata$r	ENDS
;	COMDAT ??_R2CCrywolfMonster@@8
rdata$r	SEGMENT
??_R2CCrywolfMonster@@8 DD FLAT:??_R1A@?0A@EA@CCrywolfMonster@@8 ; CCrywolfMonster::`RTTI Base Class Array'
rdata$r	ENDS
;	COMDAT ??_R3CCrywolfMonster@@8
rdata$r	SEGMENT
??_R3CCrywolfMonster@@8 DD 00H				; CCrywolfMonster::`RTTI Class Hierarchy Descriptor'
	DD	00H
	DD	01H
	DD	FLAT:??_R2CCrywolfMonster@@8
rdata$r	ENDS
;	COMDAT ??_R0?AVCCrywolfMonster@@@8
_DATA	SEGMENT
??_R0?AVCCrywolfMonster@@@8 DD FLAT:??_7type_info@@6B@	; CCrywolfMonster `RTTI Type Descriptor'
	DD	00H
	DB	'.?AVCCrywolfMonster@@', 00H
_DATA	ENDS
;	COMDAT ??_R4CCrywolfMonster@@6B@
rdata$r	SEGMENT
??_R4CCrywolfMonster@@6B@ DD 00H			; CCrywolfMonster::`RTTI Complete Object Locator'
	DD	00H
	DD	00H
	DD	FLAT:??_R0?AVCCrywolfMonster@@@8
	DD	FLAT:??_R3CCrywolfMonster@@8
rdata$r	ENDS
;	COMDAT ??_7CCrywolfMonster@@6B@
CONST	SEGMENT
??_7CCrywolfMonster@@6B@ DD FLAT:??_R4CCrywolfMonster@@6B@ ; CCrywolfMonster::`vftable'
	DD	FLAT:??_ECCrywolfMonster@@UAEPAXI@Z
; Function compile flags: /Ogtp
CONST	ENDS
;	COMDAT ??0CCrywolfMonster@@QAE@XZ
_TEXT	SEGMENT
??0CCrywolfMonster@@QAE@XZ PROC				; CCrywolfMonster::CCrywolfMonster, COMDAT
; _this$ = ecx

; 13   : {

  00000	8b c1		 mov	 eax, ecx
  00002	c7 00 00 00 00
	00		 mov	 DWORD PTR [eax], OFFSET ??_7CCrywolfMonster@@6B@

; 14   : 	return;
; 15   : }

  00008	c3		 ret	 0
??0CCrywolfMonster@@QAE@XZ ENDP				; CCrywolfMonster::CCrywolfMonster
_TEXT	ENDS
PUBLIC	??1CCrywolfMonster@@UAE@XZ			; CCrywolfMonster::~CCrywolfMonster
; Function compile flags: /Ogtp
;	COMDAT ??1CCrywolfMonster@@UAE@XZ
_TEXT	SEGMENT
??1CCrywolfMonster@@UAE@XZ PROC				; CCrywolfMonster::~CCrywolfMonster, COMDAT
; _this$ = ecx

; 18   : {

  00000	c7 01 00 00 00
	00		 mov	 DWORD PTR [ecx], OFFSET ??_7CCrywolfMonster@@6B@

; 19   : 	return;
; 20   : }

  00006	c3		 ret	 0
??1CCrywolfMonster@@UAE@XZ ENDP				; CCrywolfMonster::~CCrywolfMonster
_TEXT	ENDS
EXTRN	??3@YAXPAX@Z:PROC				; operator delete
; Function compile flags: /Ogtp
;	COMDAT ??_GCCrywolfMonster@@UAEPAXI@Z
_TEXT	SEGMENT
___flags$ = 8						; size = 4
??_GCCrywolfMonster@@UAEPAXI@Z PROC			; CCrywolfMonster::`scalar deleting destructor', COMDAT
; _this$ = ecx
  00000	55		 push	 ebp
  00001	8b ec		 mov	 ebp, esp
  00003	56		 push	 esi
  00004	8b f1		 mov	 esi, ecx
  00006	e8 00 00 00 00	 call	 ??1CCrywolfMonster@@UAE@XZ ; CCrywolfMonster::~CCrywolfMonster
  0000b	f6 45 08 01	 test	 BYTE PTR ___flags$[ebp], 1
  0000f	74 09		 je	 SHORT $LN4@scalar
  00011	56		 push	 esi
  00012	e8 00 00 00 00	 call	 ??3@YAXPAX@Z		; operator delete
  00017	83 c4 04	 add	 esp, 4
$LN4@scalar:
  0001a	8b c6		 mov	 eax, esi
  0001c	5e		 pop	 esi
  0001d	5d		 pop	 ebp
  0001e	c2 04 00	 ret	 4
??_GCCrywolfMonster@@UAEPAXI@Z ENDP			; CCrywolfMonster::`scalar deleting destructor'
_TEXT	ENDS
END
