; Listing generated by Microsoft (R) Optimizing Compiler Version 16.00.40219.01 

	TITLE	C:\muserver_dev\development\MU-S8EP2-Repack\GameServer\Source\DirPath.cpp
	.686P
	.XMM
	include listing.inc
	.model	flat

INCLUDELIB LIBCMT
INCLUDELIB OLDNAMES

PUBLIC	??_7CDirPath@@6B@				; CDirPath::`vftable'
PUBLIC	??0CDirPath@@QAE@XZ				; CDirPath::CDirPath
PUBLIC	??_R4CDirPath@@6B@				; CDirPath::`RTTI Complete Object Locator'
PUBLIC	??_R0?AVCDirPath@@@8				; CDirPath `RTTI Type Descriptor'
PUBLIC	??_R3CDirPath@@8				; CDirPath::`RTTI Class Hierarchy Descriptor'
PUBLIC	??_R2CDirPath@@8				; CDirPath::`RTTI Base Class Array'
PUBLIC	??_R1A@?0A@EA@CDirPath@@8			; CDirPath::`RTTI Base Class Descriptor at (0,-1,0,64)'
EXTRN	??_7type_info@@6B@:QWORD			; type_info::`vftable'
EXTRN	??_ECDirPath@@UAEPAXI@Z:PROC			; CDirPath::`vector deleting destructor'
;	COMDAT ??_R1A@?0A@EA@CDirPath@@8
; File c:\muserver_dev\development\mu-s8ep2-repack\gameserver\source\dirpath.cpp
rdata$r	SEGMENT
??_R1A@?0A@EA@CDirPath@@8 DD FLAT:??_R0?AVCDirPath@@@8	; CDirPath::`RTTI Base Class Descriptor at (0,-1,0,64)'
	DD	00H
	DD	00H
	DD	0ffffffffH
	DD	00H
	DD	040H
	DD	FLAT:??_R3CDirPath@@8
rdata$r	ENDS
;	COMDAT ??_R2CDirPath@@8
rdata$r	SEGMENT
??_R2CDirPath@@8 DD FLAT:??_R1A@?0A@EA@CDirPath@@8	; CDirPath::`RTTI Base Class Array'
rdata$r	ENDS
;	COMDAT ??_R3CDirPath@@8
rdata$r	SEGMENT
??_R3CDirPath@@8 DD 00H					; CDirPath::`RTTI Class Hierarchy Descriptor'
	DD	00H
	DD	01H
	DD	FLAT:??_R2CDirPath@@8
rdata$r	ENDS
;	COMDAT ??_R0?AVCDirPath@@@8
_DATA	SEGMENT
??_R0?AVCDirPath@@@8 DD FLAT:??_7type_info@@6B@		; CDirPath `RTTI Type Descriptor'
	DD	00H
	DB	'.?AVCDirPath@@', 00H
_DATA	ENDS
;	COMDAT ??_R4CDirPath@@6B@
rdata$r	SEGMENT
??_R4CDirPath@@6B@ DD 00H				; CDirPath::`RTTI Complete Object Locator'
	DD	00H
	DD	00H
	DD	FLAT:??_R0?AVCDirPath@@@8
	DD	FLAT:??_R3CDirPath@@8
rdata$r	ENDS
;	COMDAT ??_7CDirPath@@6B@
CONST	SEGMENT
??_7CDirPath@@6B@ DD FLAT:??_R4CDirPath@@6B@		; CDirPath::`vftable'
	DD	FLAT:??_ECDirPath@@UAEPAXI@Z
; Function compile flags: /Ogtp
CONST	ENDS
;	COMDAT ??0CDirPath@@QAE@XZ
_TEXT	SEGMENT
??0CDirPath@@QAE@XZ PROC				; CDirPath::CDirPath, COMDAT
; _this$ = ecx

; 13   : {

  00000	8b c1		 mov	 eax, ecx
  00002	c7 00 00 00 00
	00		 mov	 DWORD PTR [eax], OFFSET ??_7CDirPath@@6B@

; 14   : 
; 15   : }

  00008	c3		 ret	 0
??0CDirPath@@QAE@XZ ENDP				; CDirPath::CDirPath
_TEXT	ENDS
PUBLIC	??1CDirPath@@UAE@XZ				; CDirPath::~CDirPath
; Function compile flags: /Ogtp
;	COMDAT ??1CDirPath@@UAE@XZ
_TEXT	SEGMENT
??1CDirPath@@UAE@XZ PROC				; CDirPath::~CDirPath, COMDAT
; _this$ = ecx

; 18   : {

  00000	c7 01 00 00 00
	00		 mov	 DWORD PTR [ecx], OFFSET ??_7CDirPath@@6B@

; 19   : 
; 20   : }

  00006	c3		 ret	 0
??1CDirPath@@UAE@XZ ENDP				; CDirPath::~CDirPath
_TEXT	ENDS
PUBLIC	?SetFirstPath@CDirPath@@QAEXPAD@Z		; CDirPath::SetFirstPath
; Function compile flags: /Ogtp
;	COMDAT ?SetFirstPath@CDirPath@@QAEXPAD@Z
_TEXT	SEGMENT
_dir_path$ = 8						; size = 4
?SetFirstPath@CDirPath@@QAEXPAD@Z PROC			; CDirPath::SetFirstPath, COMDAT
; _this$ = ecx

; 23   : {

  00000	55		 push	 ebp
  00001	8b ec		 mov	 ebp, esp

; 24   : 	strcpy(this->m_path ,dir_path);

  00003	8b 45 08	 mov	 eax, DWORD PTR _dir_path$[ebp]
  00006	8d 51 04	 lea	 edx, DWORD PTR [ecx+4]
  00009	2b d0		 sub	 edx, eax
  0000b	eb 03 8d 49 00	 npad	 5
$LL3@SetFirstPa:
  00010	8a 08		 mov	 cl, BYTE PTR [eax]
  00012	88 0c 02	 mov	 BYTE PTR [edx+eax], cl
  00015	40		 inc	 eax
  00016	84 c9		 test	 cl, cl
  00018	75 f6		 jne	 SHORT $LL3@SetFirstPa

; 25   : }

  0001a	5d		 pop	 ebp
  0001b	c2 04 00	 ret	 4
?SetFirstPath@CDirPath@@QAEXPAD@Z ENDP			; CDirPath::SetFirstPath
_TEXT	ENDS
PUBLIC	?GetNewPath@CDirPath@@QAEPADPAD@Z		; CDirPath::GetNewPath
; Function compile flags: /Ogtp
;	COMDAT ?GetNewPath@CDirPath@@QAEPADPAD@Z
_TEXT	SEGMENT
_npath$ = 8						; size = 4
?GetNewPath@CDirPath@@QAEPADPAD@Z PROC			; CDirPath::GetNewPath, COMDAT
; _this$ = ecx

; 28   : {

  00000	55		 push	 ebp
  00001	8b ec		 mov	 ebp, esp
  00003	56		 push	 esi

; 29   : 	strcpy(this->m_newpath ,this->m_path);	// NULL

  00004	8d 81 08 01 00
	00		 lea	 eax, DWORD PTR [ecx+264]
  0000a	8d 51 04	 lea	 edx, DWORD PTR [ecx+4]
  0000d	8b f0		 mov	 esi, eax
  0000f	57		 push	 edi
  00010	2b f2		 sub	 esi, edx
$LL3@GetNewPath:
  00012	8a 0a		 mov	 cl, BYTE PTR [edx]
  00014	88 0c 16	 mov	 BYTE PTR [esi+edx], cl
  00017	42		 inc	 edx
  00018	84 c9		 test	 cl, cl
  0001a	75 f6		 jne	 SHORT $LL3@GetNewPath

; 30   : 	strcat(this->m_newpath,npath);	// Derived Path

  0001c	8b 4d 08	 mov	 ecx, DWORD PTR _npath$[ebp]
  0001f	8b f1		 mov	 esi, ecx
$LL5@GetNewPath:
  00021	8a 11		 mov	 dl, BYTE PTR [ecx]
  00023	41		 inc	 ecx
  00024	84 d2		 test	 dl, dl
  00026	75 f9		 jne	 SHORT $LL5@GetNewPath
  00028	2b ce		 sub	 ecx, esi
  0002a	8b d1		 mov	 edx, ecx
  0002c	8d 78 ff	 lea	 edi, DWORD PTR [eax-1]
  0002f	90		 npad	 1
$LL6@GetNewPath:
  00030	8a 4f 01	 mov	 cl, BYTE PTR [edi+1]
  00033	47		 inc	 edi
  00034	84 c9		 test	 cl, cl
  00036	75 f8		 jne	 SHORT $LL6@GetNewPath
  00038	8b ca		 mov	 ecx, edx
  0003a	c1 e9 02	 shr	 ecx, 2
  0003d	f3 a5		 rep movsd
  0003f	8b ca		 mov	 ecx, edx
  00041	83 e1 03	 and	 ecx, 3
  00044	f3 a4		 rep movsb
  00046	5f		 pop	 edi
  00047	5e		 pop	 esi

; 31   : 
; 32   : 	return this->m_newpath;
; 33   : }

  00048	5d		 pop	 ebp
  00049	c2 04 00	 ret	 4
?GetNewPath@CDirPath@@QAEPADPAD@Z ENDP			; CDirPath::GetNewPath
_TEXT	ENDS
EXTRN	??3@YAXPAX@Z:PROC				; operator delete
; Function compile flags: /Ogtp
;	COMDAT ??_GCDirPath@@UAEPAXI@Z
_TEXT	SEGMENT
___flags$ = 8						; size = 4
??_GCDirPath@@UAEPAXI@Z PROC				; CDirPath::`scalar deleting destructor', COMDAT
; _this$ = ecx
  00000	55		 push	 ebp
  00001	8b ec		 mov	 ebp, esp
  00003	56		 push	 esi
  00004	8b f1		 mov	 esi, ecx
  00006	e8 00 00 00 00	 call	 ??1CDirPath@@UAE@XZ	; CDirPath::~CDirPath
  0000b	f6 45 08 01	 test	 BYTE PTR ___flags$[ebp], 1
  0000f	74 09		 je	 SHORT $LN4@scalar
  00011	56		 push	 esi
  00012	e8 00 00 00 00	 call	 ??3@YAXPAX@Z		; operator delete
  00017	83 c4 04	 add	 esp, 4
$LN4@scalar:
  0001a	8b c6		 mov	 eax, esi
  0001c	5e		 pop	 esi
  0001d	5d		 pop	 ebp
  0001e	c2 04 00	 ret	 4
??_GCDirPath@@UAEPAXI@Z ENDP				; CDirPath::`scalar deleting destructor'
_TEXT	ENDS
END
