; Listing generated by Microsoft (R) Optimizing Compiler Version 16.00.40219.01 

	TITLE	C:\muserver_dev\development\MU-S8EP2-Repack\GameServer\Source\ItemPrice.cpp
	.686P
	.XMM
	include listing.inc
	.model	flat

INCLUDELIB LIBCMT
INCLUDELIB OLDNAMES

PUBLIC	?BLOCKSIZE@?$FixedBlockSize@$07@CryptoPP@@2HB	; CryptoPP::FixedBlockSize<8>::BLOCKSIZE
PUBLIC	?KEYLENGTH@?$FixedKeyLength@$07$03$0A@@CryptoPP@@2HB ; CryptoPP::FixedKeyLength<8,4,0>::KEYLENGTH
PUBLIC	?MIN_KEYLENGTH@?$FixedKeyLength@$07$03$0A@@CryptoPP@@2HB ; CryptoPP::FixedKeyLength<8,4,0>::MIN_KEYLENGTH
PUBLIC	?MAX_KEYLENGTH@?$FixedKeyLength@$07$03$0A@@CryptoPP@@2HB ; CryptoPP::FixedKeyLength<8,4,0>::MAX_KEYLENGTH
PUBLIC	?DEFAULT_KEYLENGTH@?$FixedKeyLength@$07$03$0A@@CryptoPP@@2HB ; CryptoPP::FixedKeyLength<8,4,0>::DEFAULT_KEYLENGTH
PUBLIC	?IV_REQUIREMENT@?$FixedKeyLength@$07$03$0A@@CryptoPP@@2HB ; CryptoPP::FixedKeyLength<8,4,0>::IV_REQUIREMENT
PUBLIC	?IV_LENGTH@?$FixedKeyLength@$07$03$0A@@CryptoPP@@2HB ; CryptoPP::FixedKeyLength<8,4,0>::IV_LENGTH
PUBLIC	?KEYLENGTH@?$FixedKeyLength@$0BA@$03$0A@@CryptoPP@@2HB ; CryptoPP::FixedKeyLength<16,4,0>::KEYLENGTH
PUBLIC	?MIN_KEYLENGTH@?$FixedKeyLength@$0BA@$03$0A@@CryptoPP@@2HB ; CryptoPP::FixedKeyLength<16,4,0>::MIN_KEYLENGTH
PUBLIC	?MAX_KEYLENGTH@?$FixedKeyLength@$0BA@$03$0A@@CryptoPP@@2HB ; CryptoPP::FixedKeyLength<16,4,0>::MAX_KEYLENGTH
PUBLIC	?DEFAULT_KEYLENGTH@?$FixedKeyLength@$0BA@$03$0A@@CryptoPP@@2HB ; CryptoPP::FixedKeyLength<16,4,0>::DEFAULT_KEYLENGTH
PUBLIC	?IV_REQUIREMENT@?$FixedKeyLength@$0BA@$03$0A@@CryptoPP@@2HB ; CryptoPP::FixedKeyLength<16,4,0>::IV_REQUIREMENT
PUBLIC	?IV_LENGTH@?$FixedKeyLength@$0BA@$03$0A@@CryptoPP@@2HB ; CryptoPP::FixedKeyLength<16,4,0>::IV_LENGTH
PUBLIC	?KEYLENGTH@?$FixedKeyLength@$0BI@$03$0A@@CryptoPP@@2HB ; CryptoPP::FixedKeyLength<24,4,0>::KEYLENGTH
PUBLIC	?MIN_KEYLENGTH@?$FixedKeyLength@$0BI@$03$0A@@CryptoPP@@2HB ; CryptoPP::FixedKeyLength<24,4,0>::MIN_KEYLENGTH
PUBLIC	?MAX_KEYLENGTH@?$FixedKeyLength@$0BI@$03$0A@@CryptoPP@@2HB ; CryptoPP::FixedKeyLength<24,4,0>::MAX_KEYLENGTH
PUBLIC	?DEFAULT_KEYLENGTH@?$FixedKeyLength@$0BI@$03$0A@@CryptoPP@@2HB ; CryptoPP::FixedKeyLength<24,4,0>::DEFAULT_KEYLENGTH
PUBLIC	?IV_REQUIREMENT@?$FixedKeyLength@$0BI@$03$0A@@CryptoPP@@2HB ; CryptoPP::FixedKeyLength<24,4,0>::IV_REQUIREMENT
PUBLIC	?IV_LENGTH@?$FixedKeyLength@$0BI@$03$0A@@CryptoPP@@2HB ; CryptoPP::FixedKeyLength<24,4,0>::IV_LENGTH
;	COMDAT ?IV_LENGTH@?$FixedKeyLength@$0BI@$03$0A@@CryptoPP@@2HB
CONST	SEGMENT
?IV_LENGTH@?$FixedKeyLength@$0BI@$03$0A@@CryptoPP@@2HB DD 00H ; CryptoPP::FixedKeyLength<24,4,0>::IV_LENGTH
CONST	ENDS
;	COMDAT ?IV_REQUIREMENT@?$FixedKeyLength@$0BI@$03$0A@@CryptoPP@@2HB
CONST	SEGMENT
?IV_REQUIREMENT@?$FixedKeyLength@$0BI@$03$0A@@CryptoPP@@2HB DD 04H ; CryptoPP::FixedKeyLength<24,4,0>::IV_REQUIREMENT
CONST	ENDS
;	COMDAT ?DEFAULT_KEYLENGTH@?$FixedKeyLength@$0BI@$03$0A@@CryptoPP@@2HB
CONST	SEGMENT
?DEFAULT_KEYLENGTH@?$FixedKeyLength@$0BI@$03$0A@@CryptoPP@@2HB DD 018H ; CryptoPP::FixedKeyLength<24,4,0>::DEFAULT_KEYLENGTH
CONST	ENDS
;	COMDAT ?MAX_KEYLENGTH@?$FixedKeyLength@$0BI@$03$0A@@CryptoPP@@2HB
CONST	SEGMENT
?MAX_KEYLENGTH@?$FixedKeyLength@$0BI@$03$0A@@CryptoPP@@2HB DD 018H ; CryptoPP::FixedKeyLength<24,4,0>::MAX_KEYLENGTH
CONST	ENDS
;	COMDAT ?MIN_KEYLENGTH@?$FixedKeyLength@$0BI@$03$0A@@CryptoPP@@2HB
CONST	SEGMENT
?MIN_KEYLENGTH@?$FixedKeyLength@$0BI@$03$0A@@CryptoPP@@2HB DD 018H ; CryptoPP::FixedKeyLength<24,4,0>::MIN_KEYLENGTH
CONST	ENDS
;	COMDAT ?KEYLENGTH@?$FixedKeyLength@$0BI@$03$0A@@CryptoPP@@2HB
CONST	SEGMENT
?KEYLENGTH@?$FixedKeyLength@$0BI@$03$0A@@CryptoPP@@2HB DD 018H ; CryptoPP::FixedKeyLength<24,4,0>::KEYLENGTH
CONST	ENDS
;	COMDAT ?IV_LENGTH@?$FixedKeyLength@$0BA@$03$0A@@CryptoPP@@2HB
CONST	SEGMENT
?IV_LENGTH@?$FixedKeyLength@$0BA@$03$0A@@CryptoPP@@2HB DD 00H ; CryptoPP::FixedKeyLength<16,4,0>::IV_LENGTH
CONST	ENDS
;	COMDAT ?IV_REQUIREMENT@?$FixedKeyLength@$0BA@$03$0A@@CryptoPP@@2HB
CONST	SEGMENT
?IV_REQUIREMENT@?$FixedKeyLength@$0BA@$03$0A@@CryptoPP@@2HB DD 04H ; CryptoPP::FixedKeyLength<16,4,0>::IV_REQUIREMENT
CONST	ENDS
;	COMDAT ?DEFAULT_KEYLENGTH@?$FixedKeyLength@$0BA@$03$0A@@CryptoPP@@2HB
CONST	SEGMENT
?DEFAULT_KEYLENGTH@?$FixedKeyLength@$0BA@$03$0A@@CryptoPP@@2HB DD 010H ; CryptoPP::FixedKeyLength<16,4,0>::DEFAULT_KEYLENGTH
CONST	ENDS
;	COMDAT ?MAX_KEYLENGTH@?$FixedKeyLength@$0BA@$03$0A@@CryptoPP@@2HB
CONST	SEGMENT
?MAX_KEYLENGTH@?$FixedKeyLength@$0BA@$03$0A@@CryptoPP@@2HB DD 010H ; CryptoPP::FixedKeyLength<16,4,0>::MAX_KEYLENGTH
CONST	ENDS
;	COMDAT ?MIN_KEYLENGTH@?$FixedKeyLength@$0BA@$03$0A@@CryptoPP@@2HB
CONST	SEGMENT
?MIN_KEYLENGTH@?$FixedKeyLength@$0BA@$03$0A@@CryptoPP@@2HB DD 010H ; CryptoPP::FixedKeyLength<16,4,0>::MIN_KEYLENGTH
CONST	ENDS
;	COMDAT ?KEYLENGTH@?$FixedKeyLength@$0BA@$03$0A@@CryptoPP@@2HB
CONST	SEGMENT
?KEYLENGTH@?$FixedKeyLength@$0BA@$03$0A@@CryptoPP@@2HB DD 010H ; CryptoPP::FixedKeyLength<16,4,0>::KEYLENGTH
CONST	ENDS
;	COMDAT ?IV_LENGTH@?$FixedKeyLength@$07$03$0A@@CryptoPP@@2HB
CONST	SEGMENT
?IV_LENGTH@?$FixedKeyLength@$07$03$0A@@CryptoPP@@2HB DD 00H ; CryptoPP::FixedKeyLength<8,4,0>::IV_LENGTH
CONST	ENDS
;	COMDAT ?IV_REQUIREMENT@?$FixedKeyLength@$07$03$0A@@CryptoPP@@2HB
CONST	SEGMENT
?IV_REQUIREMENT@?$FixedKeyLength@$07$03$0A@@CryptoPP@@2HB DD 04H ; CryptoPP::FixedKeyLength<8,4,0>::IV_REQUIREMENT
CONST	ENDS
;	COMDAT ?DEFAULT_KEYLENGTH@?$FixedKeyLength@$07$03$0A@@CryptoPP@@2HB
CONST	SEGMENT
?DEFAULT_KEYLENGTH@?$FixedKeyLength@$07$03$0A@@CryptoPP@@2HB DD 08H ; CryptoPP::FixedKeyLength<8,4,0>::DEFAULT_KEYLENGTH
CONST	ENDS
;	COMDAT ?MAX_KEYLENGTH@?$FixedKeyLength@$07$03$0A@@CryptoPP@@2HB
CONST	SEGMENT
?MAX_KEYLENGTH@?$FixedKeyLength@$07$03$0A@@CryptoPP@@2HB DD 08H ; CryptoPP::FixedKeyLength<8,4,0>::MAX_KEYLENGTH
CONST	ENDS
;	COMDAT ?MIN_KEYLENGTH@?$FixedKeyLength@$07$03$0A@@CryptoPP@@2HB
CONST	SEGMENT
?MIN_KEYLENGTH@?$FixedKeyLength@$07$03$0A@@CryptoPP@@2HB DD 08H ; CryptoPP::FixedKeyLength<8,4,0>::MIN_KEYLENGTH
CONST	ENDS
;	COMDAT ?KEYLENGTH@?$FixedKeyLength@$07$03$0A@@CryptoPP@@2HB
CONST	SEGMENT
?KEYLENGTH@?$FixedKeyLength@$07$03$0A@@CryptoPP@@2HB DD 08H ; CryptoPP::FixedKeyLength<8,4,0>::KEYLENGTH
CONST	ENDS
;	COMDAT ?BLOCKSIZE@?$FixedBlockSize@$07@CryptoPP@@2HB
CONST	SEGMENT
?BLOCKSIZE@?$FixedBlockSize@$07@CryptoPP@@2HB DD 08H	; CryptoPP::FixedBlockSize<8>::BLOCKSIZE
CONST	ENDS
PUBLIC	??2@YAPAXIPAX@Z					; operator new
; Function compile flags: /Ogtp
; File c:\program files (x86)\microsoft visual studio 10.0\vc\include\new.h
;	COMDAT ??2@YAPAXIPAX@Z
_TEXT	SEGMENT
___formal$ = 8						; size = 4
__Where$ = 12						; size = 4
??2@YAPAXIPAX@Z PROC					; operator new, COMDAT

; 81   :         {return (_Where); }

  00000	55		 push	 ebp
  00001	8b ec		 mov	 ebp, esp
  00003	8b 45 0c	 mov	 eax, DWORD PTR __Where$[ebp]
  00006	5d		 pop	 ebp
  00007	c3		 ret	 0
??2@YAPAXIPAX@Z ENDP					; operator new
_TEXT	ENDS
PUBLIC	??3@YAXPAX0@Z					; operator delete
; Function compile flags: /Ogtp
;	COMDAT ??3@YAXPAX0@Z
_TEXT	SEGMENT
___formal$ = 8						; size = 4
___formal$ = 12						; size = 4
??3@YAXPAX0@Z PROC					; operator delete, COMDAT

; 83   :         {return; }

  00000	c3		 ret	 0
??3@YAXPAX0@Z ENDP					; operator delete
_TEXT	ENDS
PUBLIC	??1OBJECTSTRUCT@@QAE@XZ				; OBJECTSTRUCT::~OBJECTSTRUCT
EXTRN	??1CSkillDelay@@UAE@XZ:PROC			; CSkillDelay::~CSkillDelay
EXTRN	??1TMonsterAIAgro@@UAE@XZ:PROC			; TMonsterAIAgro::~TMonsterAIAgro
EXTRN	___security_cookie:DWORD
EXTRN	___CxxFrameHandler3:PROC
EXTRN	@__security_check_cookie@4:PROC
;	COMDAT xdata$x
xdata$x	SEGMENT
__unwindtable$??1OBJECTSTRUCT@@QAE@XZ DD 0ffffffffH
	DD	FLAT:__unwindfunclet$??1OBJECTSTRUCT@@QAE@XZ$0
__ehfuncinfo$??1OBJECTSTRUCT@@QAE@XZ DD 019930522H
	DD	01H
	DD	FLAT:__unwindtable$??1OBJECTSTRUCT@@QAE@XZ
	DD	2 DUP(00H)
	DD	2 DUP(00H)
	DD	00H
	DD	01H
; Function compile flags: /Ogtp
xdata$x	ENDS
;	COMDAT ??1OBJECTSTRUCT@@QAE@XZ
_TEXT	SEGMENT
_this$ = -16						; size = 4
__$EHRec$ = -12						; size = 12
??1OBJECTSTRUCT@@QAE@XZ PROC				; OBJECTSTRUCT::~OBJECTSTRUCT, COMDAT
; _this$ = ecx
  00000	55		 push	 ebp
  00001	8b ec		 mov	 ebp, esp
  00003	6a ff		 push	 -1
  00005	68 00 00 00 00	 push	 __ehhandler$??1OBJECTSTRUCT@@QAE@XZ
  0000a	64 a1 00 00 00
	00		 mov	 eax, DWORD PTR fs:0
  00010	50		 push	 eax
  00011	51		 push	 ecx
  00012	56		 push	 esi
  00013	a1 00 00 00 00	 mov	 eax, DWORD PTR ___security_cookie
  00018	33 c5		 xor	 eax, ebp
  0001a	50		 push	 eax
  0001b	8d 45 f4	 lea	 eax, DWORD PTR __$EHRec$[ebp]
  0001e	64 a3 00 00 00
	00		 mov	 DWORD PTR fs:0, eax
  00024	8b f1		 mov	 esi, ecx
  00026	89 75 f0	 mov	 DWORD PTR _this$[ebp], esi
  00029	8d 8e ec 20 00
	00		 lea	 ecx, DWORD PTR [esi+8428]
  0002f	c7 45 fc 00 00
	00 00		 mov	 DWORD PTR __$EHRec$[ebp+8], 0
  00036	e8 00 00 00 00	 call	 ??1TMonsterAIAgro@@UAE@XZ ; TMonsterAIAgro::~TMonsterAIAgro
  0003b	8d 8e 0c 16 00
	00		 lea	 ecx, DWORD PTR [esi+5644]
  00041	c7 45 fc ff ff
	ff ff		 mov	 DWORD PTR __$EHRec$[ebp+8], -1
  00048	e8 00 00 00 00	 call	 ??1CSkillDelay@@UAE@XZ	; CSkillDelay::~CSkillDelay
  0004d	8b 4d f4	 mov	 ecx, DWORD PTR __$EHRec$[ebp]
  00050	64 89 0d 00 00
	00 00		 mov	 DWORD PTR fs:0, ecx
  00057	59		 pop	 ecx
  00058	5e		 pop	 esi
  00059	8b e5		 mov	 esp, ebp
  0005b	5d		 pop	 ebp
  0005c	c3		 ret	 0
_TEXT	ENDS
;	COMDAT text$x
text$x	SEGMENT
__unwindfunclet$??1OBJECTSTRUCT@@QAE@XZ$0:
  00000	8b 4d f0	 mov	 ecx, DWORD PTR _this$[ebp]
  00003	81 c1 0c 16 00
	00		 add	 ecx, 5644		; 0000160cH
  00009	e9 00 00 00 00	 jmp	 ??1CSkillDelay@@UAE@XZ	; CSkillDelay::~CSkillDelay
__ehhandler$??1OBJECTSTRUCT@@QAE@XZ:
  0000e	8b 54 24 08	 mov	 edx, DWORD PTR [esp+8]
  00012	8d 42 0c	 lea	 eax, DWORD PTR [edx+12]
  00015	8b 4a f4	 mov	 ecx, DWORD PTR [edx-12]
  00018	33 c8		 xor	 ecx, eax
  0001a	e8 00 00 00 00	 call	 @__security_check_cookie@4
  0001f	b8 00 00 00 00	 mov	 eax, OFFSET __ehfuncinfo$??1OBJECTSTRUCT@@QAE@XZ
  00024	e9 00 00 00 00	 jmp	 ___CxxFrameHandler3
text$x	ENDS
??1OBJECTSTRUCT@@QAE@XZ ENDP				; OBJECTSTRUCT::~OBJECTSTRUCT
PUBLIC	?capacity@?$vector@UItemPriceInfo@@V?$allocator@UItemPriceInfo@@@std@@@std@@QBEIXZ ; std::vector<ItemPriceInfo,std::allocator<ItemPriceInfo> >::capacity
; Function compile flags: /Ogtp
; File c:\program files (x86)\microsoft visual studio 10.0\vc\include\vector
;	COMDAT ?capacity@?$vector@UItemPriceInfo@@V?$allocator@UItemPriceInfo@@@std@@@std@@QBEIXZ
_TEXT	SEGMENT
?capacity@?$vector@UItemPriceInfo@@V?$allocator@UItemPriceInfo@@@std@@@std@@QBEIXZ PROC ; std::vector<ItemPriceInfo,std::allocator<ItemPriceInfo> >::capacity, COMDAT
; _this$ = ecx

; 777  : 		return (this->_Myend - this->_Myfirst);

  00000	8b 51 08	 mov	 edx, DWORD PTR [ecx+8]
  00003	2b 11		 sub	 edx, DWORD PTR [ecx]
  00005	b8 ab aa aa 2a	 mov	 eax, 715827883		; 2aaaaaabH
  0000a	f7 ea		 imul	 edx
  0000c	d1 fa		 sar	 edx, 1
  0000e	8b c2		 mov	 eax, edx
  00010	c1 e8 1f	 shr	 eax, 31			; 0000001fH
  00013	03 c2		 add	 eax, edx

; 778  : 		}

  00015	c3		 ret	 0
?capacity@?$vector@UItemPriceInfo@@V?$allocator@UItemPriceInfo@@@std@@@std@@QBEIXZ ENDP ; std::vector<ItemPriceInfo,std::allocator<ItemPriceInfo> >::capacity
_TEXT	ENDS
PUBLIC	?size@?$vector@UItemPriceInfo@@V?$allocator@UItemPriceInfo@@@std@@@std@@QBEIXZ ; std::vector<ItemPriceInfo,std::allocator<ItemPriceInfo> >::size
; Function compile flags: /Ogtp
;	COMDAT ?size@?$vector@UItemPriceInfo@@V?$allocator@UItemPriceInfo@@@std@@@std@@QBEIXZ
_TEXT	SEGMENT
?size@?$vector@UItemPriceInfo@@V?$allocator@UItemPriceInfo@@@std@@@std@@QBEIXZ PROC ; std::vector<ItemPriceInfo,std::allocator<ItemPriceInfo> >::size, COMDAT
; _this$ = ecx

; 879  : 		return (this->_Mylast - this->_Myfirst);

  00000	8b 51 04	 mov	 edx, DWORD PTR [ecx+4]
  00003	2b 11		 sub	 edx, DWORD PTR [ecx]
  00005	b8 ab aa aa 2a	 mov	 eax, 715827883		; 2aaaaaabH
  0000a	f7 ea		 imul	 edx
  0000c	d1 fa		 sar	 edx, 1
  0000e	8b c2		 mov	 eax, edx
  00010	c1 e8 1f	 shr	 eax, 31			; 0000001fH
  00013	03 c2		 add	 eax, edx

; 880  : 		}

  00015	c3		 ret	 0
?size@?$vector@UItemPriceInfo@@V?$allocator@UItemPriceInfo@@@std@@@std@@QBEIXZ ENDP ; std::vector<ItemPriceInfo,std::allocator<ItemPriceInfo> >::size
_TEXT	ENDS
PUBLIC	??A?$vector@UItemPriceInfo@@V?$allocator@UItemPriceInfo@@@std@@@std@@QAEAAUItemPriceInfo@@I@Z ; std::vector<ItemPriceInfo,std::allocator<ItemPriceInfo> >::operator[]
; Function compile flags: /Ogtp
;	COMDAT ??A?$vector@UItemPriceInfo@@V?$allocator@UItemPriceInfo@@@std@@@std@@QAEAAUItemPriceInfo@@I@Z
_TEXT	SEGMENT
__Pos$ = 8						; size = 4
??A?$vector@UItemPriceInfo@@V?$allocator@UItemPriceInfo@@@std@@@std@@QAEAAUItemPriceInfo@@I@Z PROC ; std::vector<ItemPriceInfo,std::allocator<ItemPriceInfo> >::operator[], COMDAT
; _this$ = ecx

; 928  : 		{	// subscript mutable sequence

  00000	55		 push	 ebp
  00001	8b ec		 mov	 ebp, esp

; 929  :  #if _ITERATOR_DEBUG_LEVEL == 2
; 930  : 		if (size() <= _Pos)
; 931  : 			{	// report error
; 932  : 			_DEBUG_ERROR("vector subscript out of range");
; 933  : 			_SCL_SECURE_OUT_OF_RANGE;
; 934  : 			}
; 935  : 
; 936  :  #elif _ITERATOR_DEBUG_LEVEL == 1
; 937  : 		_SCL_SECURE_VALIDATE_RANGE(_Pos < size());
; 938  :  #endif /* _ITERATOR_DEBUG_LEVEL */
; 939  : 
; 940  : 		return (*(this->_Myfirst + _Pos));

  00003	8b 45 08	 mov	 eax, DWORD PTR __Pos$[ebp]
  00006	8b 09		 mov	 ecx, DWORD PTR [ecx]
  00008	8d 04 40	 lea	 eax, DWORD PTR [eax+eax*2]
  0000b	8d 04 81	 lea	 eax, DWORD PTR [ecx+eax*4]

; 941  : 		}

  0000e	5d		 pop	 ebp
  0000f	c2 04 00	 ret	 4
??A?$vector@UItemPriceInfo@@V?$allocator@UItemPriceInfo@@@std@@@std@@QAEAAUItemPriceInfo@@I@Z ENDP ; std::vector<ItemPriceInfo,std::allocator<ItemPriceInfo> >::operator[]
_TEXT	ENDS
PUBLIC	?_Inside@?$vector@UItemPriceInfo@@V?$allocator@UItemPriceInfo@@@std@@@std@@IBE_NPBUItemPriceInfo@@@Z ; std::vector<ItemPriceInfo,std::allocator<ItemPriceInfo> >::_Inside
; Function compile flags: /Ogtp
;	COMDAT ?_Inside@?$vector@UItemPriceInfo@@V?$allocator@UItemPriceInfo@@@std@@@std@@IBE_NPBUItemPriceInfo@@@Z
_TEXT	SEGMENT
__Ptr$ = 8						; size = 4
?_Inside@?$vector@UItemPriceInfo@@V?$allocator@UItemPriceInfo@@@std@@@std@@IBE_NPBUItemPriceInfo@@@Z PROC ; std::vector<ItemPriceInfo,std::allocator<ItemPriceInfo> >::_Inside, COMDAT
; _this$ = ecx

; 1285 : 		{	// test if _Ptr points inside vector

  00000	55		 push	 ebp
  00001	8b ec		 mov	 ebp, esp

; 1286 : 		return (_Ptr < this->_Mylast && this->_Myfirst <= _Ptr);

  00003	8b 45 08	 mov	 eax, DWORD PTR __Ptr$[ebp]
  00006	3b 41 04	 cmp	 eax, DWORD PTR [ecx+4]
  00009	73 0d		 jae	 SHORT $LN3@Inside
  0000b	39 01		 cmp	 DWORD PTR [ecx], eax
  0000d	77 09		 ja	 SHORT $LN3@Inside
  0000f	b8 01 00 00 00	 mov	 eax, 1

; 1287 : 		}

  00014	5d		 pop	 ebp
  00015	c2 04 00	 ret	 4
$LN3@Inside:

; 1286 : 		return (_Ptr < this->_Mylast && this->_Myfirst <= _Ptr);

  00018	33 c0		 xor	 eax, eax

; 1287 : 		}

  0001a	5d		 pop	 ebp
  0001b	c2 04 00	 ret	 4
?_Inside@?$vector@UItemPriceInfo@@V?$allocator@UItemPriceInfo@@@std@@@std@@IBE_NPBUItemPriceInfo@@@Z ENDP ; std::vector<ItemPriceInfo,std::allocator<ItemPriceInfo> >::_Inside
_TEXT	ENDS
PUBLIC	?_Orphan_range@?$vector@UItemPriceInfo@@V?$allocator@UItemPriceInfo@@@std@@@std@@IBEXPAUItemPriceInfo@@0@Z ; std::vector<ItemPriceInfo,std::allocator<ItemPriceInfo> >::_Orphan_range
; Function compile flags: /Ogtp
;	COMDAT ?_Orphan_range@?$vector@UItemPriceInfo@@V?$allocator@UItemPriceInfo@@@std@@@std@@IBEXPAUItemPriceInfo@@0@Z
_TEXT	SEGMENT
___formal$ = 8						; size = 4
___formal$ = 12						; size = 4
?_Orphan_range@?$vector@UItemPriceInfo@@V?$allocator@UItemPriceInfo@@@std@@@std@@IBEXPAUItemPriceInfo@@0@Z PROC ; std::vector<ItemPriceInfo,std::allocator<ItemPriceInfo> >::_Orphan_range, COMDAT
; _this$ = ecx

; 1454 : 		}

  00000	c2 08 00	 ret	 8
?_Orphan_range@?$vector@UItemPriceInfo@@V?$allocator@UItemPriceInfo@@@std@@@std@@IBEXPAUItemPriceInfo@@0@Z ENDP ; std::vector<ItemPriceInfo,std::allocator<ItemPriceInfo> >::_Orphan_range
_TEXT	ENDS
PUBLIC	??1?$_Vector_val@UItemPriceInfo@@V?$allocator@UItemPriceInfo@@@std@@@std@@QAE@XZ ; std::_Vector_val<ItemPriceInfo,std::allocator<ItemPriceInfo> >::~_Vector_val<ItemPriceInfo,std::allocator<ItemPriceInfo> >
; Function compile flags: /Ogtp
;	COMDAT ??1?$_Vector_val@UItemPriceInfo@@V?$allocator@UItemPriceInfo@@@std@@@std@@QAE@XZ
_TEXT	SEGMENT
??1?$_Vector_val@UItemPriceInfo@@V?$allocator@UItemPriceInfo@@@std@@@std@@QAE@XZ PROC ; std::_Vector_val<ItemPriceInfo,std::allocator<ItemPriceInfo> >::~_Vector_val<ItemPriceInfo,std::allocator<ItemPriceInfo> >, COMDAT
; _this$ = ecx

; 434  : 		}

  00000	c3		 ret	 0
??1?$_Vector_val@UItemPriceInfo@@V?$allocator@UItemPriceInfo@@@std@@@std@@QAE@XZ ENDP ; std::_Vector_val<ItemPriceInfo,std::allocator<ItemPriceInfo> >::~_Vector_val<ItemPriceInfo,std::allocator<ItemPriceInfo> >
_TEXT	ENDS
PUBLIC	??0?$allocator@UItemPriceInfo@@@std@@QAE@XZ	; std::allocator<ItemPriceInfo>::allocator<ItemPriceInfo>
; Function compile flags: /Ogtp
; File c:\program files (x86)\microsoft visual studio 10.0\vc\include\xmemory
;	COMDAT ??0?$allocator@UItemPriceInfo@@@std@@QAE@XZ
_TEXT	SEGMENT
??0?$allocator@UItemPriceInfo@@@std@@QAE@XZ PROC	; std::allocator<ItemPriceInfo>::allocator<ItemPriceInfo>, COMDAT
; _this$ = ecx

; 161  : 	_ALLOCATOR() _THROW0()

  00000	8b c1		 mov	 eax, ecx

; 162  : 		{	// construct default allocator (do nothing)
; 163  : 		}

  00002	c3		 ret	 0
??0?$allocator@UItemPriceInfo@@@std@@QAE@XZ ENDP	; std::allocator<ItemPriceInfo>::allocator<ItemPriceInfo>
_TEXT	ENDS
PUBLIC	??_C@_0BD@OLBABOEK@vector?$DMT?$DO?5too?5long?$AA@ ; `string'
PUBLIC	?_Xlen@?$vector@UItemPriceInfo@@V?$allocator@UItemPriceInfo@@@std@@@std@@IBEXXZ ; std::vector<ItemPriceInfo,std::allocator<ItemPriceInfo> >::_Xlen
EXTRN	?_Xlength_error@std@@YAXPBD@Z:PROC		; std::_Xlength_error
;	COMDAT ??_C@_0BD@OLBABOEK@vector?$DMT?$DO?5too?5long?$AA@
; File c:\program files (x86)\microsoft visual studio 10.0\vc\include\vector
CONST	SEGMENT
??_C@_0BD@OLBABOEK@vector?$DMT?$DO?5too?5long?$AA@ DB 'vector<T> too long'
	DB	00H						; `string'
; Function compile flags: /Ogtp
CONST	ENDS
;	COMDAT ?_Xlen@?$vector@UItemPriceInfo@@V?$allocator@UItemPriceInfo@@@std@@@std@@IBEXXZ
_TEXT	SEGMENT
?_Xlen@?$vector@UItemPriceInfo@@V?$allocator@UItemPriceInfo@@@std@@@std@@IBEXXZ PROC ; std::vector<ItemPriceInfo,std::allocator<ItemPriceInfo> >::_Xlen, COMDAT
; _this$ = ecx

; 1427 : 		_Xlength_error("vector<T> too long");

  00000	68 00 00 00 00	 push	 OFFSET ??_C@_0BD@OLBABOEK@vector?$DMT?$DO?5too?5long?$AA@
  00005	e8 00 00 00 00	 call	 ?_Xlength_error@std@@YAXPBD@Z ; std::_Xlength_error
$LN4@Xlen:
$LN3@Xlen:
  0000a	cc		 int	 3
?_Xlen@?$vector@UItemPriceInfo@@V?$allocator@UItemPriceInfo@@@std@@@std@@IBEXXZ ENDP ; std::vector<ItemPriceInfo,std::allocator<ItemPriceInfo> >::_Xlen
_TEXT	ENDS
PUBLIC	??0?$allocator@UItemPriceInfo@@@std@@QAE@ABV01@@Z ; std::allocator<ItemPriceInfo>::allocator<ItemPriceInfo>
; Function compile flags: /Ogtp
; File c:\program files (x86)\microsoft visual studio 10.0\vc\include\xmemory
;	COMDAT ??0?$allocator@UItemPriceInfo@@@std@@QAE@ABV01@@Z
_TEXT	SEGMENT
___formal$ = 8						; size = 4
??0?$allocator@UItemPriceInfo@@@std@@QAE@ABV01@@Z PROC	; std::allocator<ItemPriceInfo>::allocator<ItemPriceInfo>, COMDAT
; _this$ = ecx

; 165  : 	_ALLOCATOR(const _ALLOCATOR<_Ty>&) _THROW0()

  00000	8b c1		 mov	 eax, ecx

; 166  : 		{	// construct by copying (do nothing)
; 167  : 		}

  00002	c2 04 00	 ret	 4
??0?$allocator@UItemPriceInfo@@@std@@QAE@ABV01@@Z ENDP	; std::allocator<ItemPriceInfo>::allocator<ItemPriceInfo>
_TEXT	ENDS
PUBLIC	?deallocate@?$allocator@UItemPriceInfo@@@std@@QAEXPAUItemPriceInfo@@I@Z ; std::allocator<ItemPriceInfo>::deallocate
EXTRN	??3@YAXPAX@Z:PROC				; operator delete
; Function compile flags: /Ogtp
;	COMDAT ?deallocate@?$allocator@UItemPriceInfo@@@std@@QAEXPAUItemPriceInfo@@I@Z
_TEXT	SEGMENT
__Ptr$ = 8						; size = 4
___formal$ = 12						; size = 4
?deallocate@?$allocator@UItemPriceInfo@@@std@@QAEXPAUItemPriceInfo@@I@Z PROC ; std::allocator<ItemPriceInfo>::deallocate, COMDAT
; _this$ = ecx

; 181  : 		{	// deallocate object at _Ptr, ignore size

  00000	55		 push	 ebp
  00001	8b ec		 mov	 ebp, esp

; 182  : 		::operator delete(_Ptr);

  00003	8b 45 08	 mov	 eax, DWORD PTR __Ptr$[ebp]
  00006	50		 push	 eax
  00007	e8 00 00 00 00	 call	 ??3@YAXPAX@Z		; operator delete
  0000c	83 c4 04	 add	 esp, 4

; 183  : 		}

  0000f	5d		 pop	 ebp
  00010	c2 08 00	 ret	 8
?deallocate@?$allocator@UItemPriceInfo@@@std@@QAEXPAUItemPriceInfo@@I@Z ENDP ; std::allocator<ItemPriceInfo>::deallocate
_TEXT	ENDS
PUBLIC	?get_allocator@?$vector@UItemPriceInfo@@V?$allocator@UItemPriceInfo@@@std@@@std@@QBE?AV?$allocator@UItemPriceInfo@@@2@XZ ; std::vector<ItemPriceInfo,std::allocator<ItemPriceInfo> >::get_allocator
; Function compile flags: /Ogtp
; File c:\program files (x86)\microsoft visual studio 10.0\vc\include\vector
;	COMDAT ?get_allocator@?$vector@UItemPriceInfo@@V?$allocator@UItemPriceInfo@@@std@@@std@@QBE?AV?$allocator@UItemPriceInfo@@@2@XZ
_TEXT	SEGMENT
___$ReturnUdt$ = 8					; size = 4
?get_allocator@?$vector@UItemPriceInfo@@V?$allocator@UItemPriceInfo@@@std@@@std@@QBE?AV?$allocator@UItemPriceInfo@@@2@XZ PROC ; std::vector<ItemPriceInfo,std::allocator<ItemPriceInfo> >::get_allocator, COMDAT
; _this$ = ecx

; 893  : 		{	// return allocator object for values

  00000	55		 push	 ebp
  00001	8b ec		 mov	 ebp, esp

; 894  : 		return (this->_Alval);

  00003	8b 45 08	 mov	 eax, DWORD PTR ___$ReturnUdt$[ebp]

; 895  : 		}

  00006	5d		 pop	 ebp
  00007	c2 04 00	 ret	 4
?get_allocator@?$vector@UItemPriceInfo@@V?$allocator@UItemPriceInfo@@@std@@@std@@QBE?AV?$allocator@UItemPriceInfo@@@2@XZ ENDP ; std::vector<ItemPriceInfo,std::allocator<ItemPriceInfo> >::get_allocator
_TEXT	ENDS
PUBLIC	?max_size@?$allocator@UItemPriceInfo@@@std@@QBEIXZ ; std::allocator<ItemPriceInfo>::max_size
; Function compile flags: /Ogtp
; File c:\program files (x86)\microsoft visual studio 10.0\vc\include\xmemory
;	COMDAT ?max_size@?$allocator@UItemPriceInfo@@@std@@QBEIXZ
_TEXT	SEGMENT
?max_size@?$allocator@UItemPriceInfo@@@std@@QBEIXZ PROC	; std::allocator<ItemPriceInfo>::max_size, COMDAT
; _this$ = ecx

; 218  : 		_SIZT _Count = (_SIZT)(-1) / sizeof (_Ty);
; 219  : 		return (0 < _Count ? _Count : 1);

  00000	b8 55 55 55 15	 mov	 eax, 357913941		; 15555555H

; 220  : 		}

  00005	c3		 ret	 0
?max_size@?$allocator@UItemPriceInfo@@@std@@QBEIXZ ENDP	; std::allocator<ItemPriceInfo>::max_size
_TEXT	ENDS
PUBLIC	??D?$_Vector_const_iterator@V?$_Vector_val@UItemPriceInfo@@V?$allocator@UItemPriceInfo@@@std@@@std@@@std@@QBEABUItemPriceInfo@@XZ ; std::_Vector_const_iterator<std::_Vector_val<ItemPriceInfo,std::allocator<ItemPriceInfo> > >::operator*
; Function compile flags: /Ogtp
; File c:\program files (x86)\microsoft visual studio 10.0\vc\include\vector
;	COMDAT ??D?$_Vector_const_iterator@V?$_Vector_val@UItemPriceInfo@@V?$allocator@UItemPriceInfo@@@std@@@std@@@std@@QBEABUItemPriceInfo@@XZ
_TEXT	SEGMENT
??D?$_Vector_const_iterator@V?$_Vector_val@UItemPriceInfo@@V?$allocator@UItemPriceInfo@@@std@@@std@@@std@@QBEABUItemPriceInfo@@XZ PROC ; std::_Vector_const_iterator<std::_Vector_val<ItemPriceInfo,std::allocator<ItemPriceInfo> > >::operator*, COMDAT
; _this$ = ecx

; 64   :  #if _ITERATOR_DEBUG_LEVEL == 2
; 65   : 		if (this->_Getcont() == 0
; 66   : 			|| this->_Ptr == 0
; 67   : 			|| this->_Ptr < ((_Myvec *)this->_Getcont())->_Myfirst
; 68   : 			|| ((_Myvec *)this->_Getcont())->_Mylast <= this->_Ptr)
; 69   : 			{	// report error
; 70   : 			_DEBUG_ERROR("vector iterator not dereferencable");
; 71   : 			_SCL_SECURE_OUT_OF_RANGE;
; 72   : 			}
; 73   : 
; 74   :  #elif _ITERATOR_DEBUG_LEVEL == 1
; 75   : 		_SCL_SECURE_VALIDATE(this->_Getcont() != 0);
; 76   : 		_SCL_SECURE_VALIDATE_RANGE(
; 77   : 			this->_Ptr != 0
; 78   : 			&& ((_Myvec *)this->_Getcont())->_Myfirst <= this->_Ptr
; 79   : 			&& this->_Ptr < ((_Myvec *)this->_Getcont())->_Mylast);
; 80   :  #endif /* _ITERATOR_DEBUG_LEVEL */
; 81   : 
; 82   : 		__analysis_assume(this->_Ptr != 0);
; 83   : 
; 84   : 		return (*this->_Ptr);

  00000	8b 01		 mov	 eax, DWORD PTR [ecx]

; 85   : 		}

  00002	c3		 ret	 0
??D?$_Vector_const_iterator@V?$_Vector_val@UItemPriceInfo@@V?$allocator@UItemPriceInfo@@@std@@@std@@@std@@QBEABUItemPriceInfo@@XZ ENDP ; std::_Vector_const_iterator<std::_Vector_val<ItemPriceInfo,std::allocator<ItemPriceInfo> > >::operator*
_TEXT	ENDS
PUBLIC	??E?$_Vector_const_iterator@V?$_Vector_val@UItemPriceInfo@@V?$allocator@UItemPriceInfo@@@std@@@std@@@std@@QAEAAV01@XZ ; std::_Vector_const_iterator<std::_Vector_val<ItemPriceInfo,std::allocator<ItemPriceInfo> > >::operator++
; Function compile flags: /Ogtp
;	COMDAT ??E?$_Vector_const_iterator@V?$_Vector_val@UItemPriceInfo@@V?$allocator@UItemPriceInfo@@@std@@@std@@@std@@QAEAAV01@XZ
_TEXT	SEGMENT
??E?$_Vector_const_iterator@V?$_Vector_val@UItemPriceInfo@@V?$allocator@UItemPriceInfo@@@std@@@std@@@std@@QAEAAV01@XZ PROC ; std::_Vector_const_iterator<std::_Vector_val<ItemPriceInfo,std::allocator<ItemPriceInfo> > >::operator++, COMDAT
; _this$ = ecx

; 93   : 		{	// preincrement

  00000	8b c1		 mov	 eax, ecx

; 94   :  #if _ITERATOR_DEBUG_LEVEL == 2
; 95   : 		if (this->_Getcont() == 0
; 96   : 			|| this->_Ptr == 0
; 97   : 			|| ((_Myvec *)this->_Getcont())->_Mylast <= this->_Ptr)
; 98   : 			{	// report error
; 99   : 			_DEBUG_ERROR("vector iterator not incrementable");
; 100  : 			_SCL_SECURE_OUT_OF_RANGE;
; 101  : 			}
; 102  : 
; 103  :  #elif _ITERATOR_DEBUG_LEVEL == 1
; 104  : 		_SCL_SECURE_VALIDATE(this->_Getcont() != 0);
; 105  : 		_SCL_SECURE_VALIDATE_RANGE(
; 106  : 			this->_Ptr != 0
; 107  : 			&& this->_Ptr < ((_Myvec *)this->_Getcont())->_Mylast);
; 108  :  #endif /* _ITERATOR_DEBUG_LEVEL */
; 109  : 
; 110  : 		++this->_Ptr;

  00002	83 00 0c	 add	 DWORD PTR [eax], 12	; 0000000cH

; 111  : 		return (*this);
; 112  : 		}

  00005	c3		 ret	 0
??E?$_Vector_const_iterator@V?$_Vector_val@UItemPriceInfo@@V?$allocator@UItemPriceInfo@@@std@@@std@@@std@@QAEAAV01@XZ ENDP ; std::_Vector_const_iterator<std::_Vector_val<ItemPriceInfo,std::allocator<ItemPriceInfo> > >::operator++
_TEXT	ENDS
PUBLIC	?_Compat@?$_Vector_const_iterator@V?$_Vector_val@UItemPriceInfo@@V?$allocator@UItemPriceInfo@@@std@@@std@@@std@@QBEXABV12@@Z ; std::_Vector_const_iterator<std::_Vector_val<ItemPriceInfo,std::allocator<ItemPriceInfo> > >::_Compat
; Function compile flags: /Ogtp
;	COMDAT ?_Compat@?$_Vector_const_iterator@V?$_Vector_val@UItemPriceInfo@@V?$allocator@UItemPriceInfo@@@std@@@std@@@std@@QBEXABV12@@Z
_TEXT	SEGMENT
___formal$ = 8						; size = 4
?_Compat@?$_Vector_const_iterator@V?$_Vector_val@UItemPriceInfo@@V?$allocator@UItemPriceInfo@@@std@@@std@@@std@@QBEXABV12@@Z PROC ; std::_Vector_const_iterator<std::_Vector_val<ItemPriceInfo,std::allocator<ItemPriceInfo> > >::_Compat, COMDAT
; _this$ = ecx

; 253  : 		}

  00000	c2 04 00	 ret	 4
?_Compat@?$_Vector_const_iterator@V?$_Vector_val@UItemPriceInfo@@V?$allocator@UItemPriceInfo@@@std@@@std@@@std@@QBEXABV12@@Z ENDP ; std::_Vector_const_iterator<std::_Vector_val<ItemPriceInfo,std::allocator<ItemPriceInfo> > >::_Compat
_TEXT	ENDS
PUBLIC	??$addressof@$$CBUItemPriceInfo@@@std@@YAPBUItemPriceInfo@@ABU1@@Z ; std::addressof<ItemPriceInfo const >
; Function compile flags: /Ogtp
; File c:\program files (x86)\microsoft visual studio 10.0\vc\include\xmemory
;	COMDAT ??$addressof@$$CBUItemPriceInfo@@@std@@YAPBUItemPriceInfo@@ABU1@@Z
_TEXT	SEGMENT
__Val$ = 8						; size = 4
??$addressof@$$CBUItemPriceInfo@@@std@@YAPBUItemPriceInfo@@ABU1@@Z PROC ; std::addressof<ItemPriceInfo const >, COMDAT

; 110  : 	{	// return address of _Val

  00000	55		 push	 ebp
  00001	8b ec		 mov	 ebp, esp

; 111  : 	return ((_Ty *) &(char&)_Val);

  00003	8b 45 08	 mov	 eax, DWORD PTR __Val$[ebp]

; 112  : 	}

  00006	5d		 pop	 ebp
  00007	c3		 ret	 0
??$addressof@$$CBUItemPriceInfo@@@std@@YAPBUItemPriceInfo@@ABU1@@Z ENDP ; std::addressof<ItemPriceInfo const >
_TEXT	ENDS
PUBLIC	??$?8UItemPriceInfo@@U0@@std@@YA_NABV?$allocator@UItemPriceInfo@@@0@0@Z ; std::operator==<ItemPriceInfo,ItemPriceInfo>
; Function compile flags: /Ogtp
;	COMDAT ??$?8UItemPriceInfo@@U0@@std@@YA_NABV?$allocator@UItemPriceInfo@@@0@0@Z
_TEXT	SEGMENT
___formal$ = 8						; size = 4
___formal$ = 12						; size = 4
??$?8UItemPriceInfo@@U0@@std@@YA_NABV?$allocator@UItemPriceInfo@@@0@0@Z PROC ; std::operator==<ItemPriceInfo,ItemPriceInfo>, COMDAT

; 263  : 	return (true);

  00000	b0 01		 mov	 al, 1

; 264  : 	}

  00002	c3		 ret	 0
??$?8UItemPriceInfo@@U0@@std@@YA_NABV?$allocator@UItemPriceInfo@@@0@0@Z ENDP ; std::operator==<ItemPriceInfo,ItemPriceInfo>
_TEXT	ENDS
PUBLIC	??$_Move@AAV?$vector@UItemPriceInfo@@V?$allocator@UItemPriceInfo@@@std@@@std@@@std@@YA$$QAV?$vector@UItemPriceInfo@@V?$allocator@UItemPriceInfo@@@std@@@0@AAV10@@Z ; std::_Move<std::vector<ItemPriceInfo,std::allocator<ItemPriceInfo> > &>
; Function compile flags: /Ogtp
; File c:\program files (x86)\microsoft visual studio 10.0\vc\include\utility
;	COMDAT ??$_Move@AAV?$vector@UItemPriceInfo@@V?$allocator@UItemPriceInfo@@@std@@@std@@@std@@YA$$QAV?$vector@UItemPriceInfo@@V?$allocator@UItemPriceInfo@@@std@@@0@AAV10@@Z
_TEXT	SEGMENT
__Arg$ = 8						; size = 4
??$_Move@AAV?$vector@UItemPriceInfo@@V?$allocator@UItemPriceInfo@@@std@@@std@@@std@@YA$$QAV?$vector@UItemPriceInfo@@V?$allocator@UItemPriceInfo@@@std@@@0@AAV10@@Z PROC ; std::_Move<std::vector<ItemPriceInfo,std::allocator<ItemPriceInfo> > &>, COMDAT

; 94   : 	{	// forward _Arg as movable

  00000	55		 push	 ebp
  00001	8b ec		 mov	 ebp, esp

; 95   : 	return ((typename tr1::_Remove_reference<_Ty>::_Type&&)_Arg);

  00003	8b 45 08	 mov	 eax, DWORD PTR __Arg$[ebp]

; 96   : 	}

  00006	5d		 pop	 ebp
  00007	c3		 ret	 0
??$_Move@AAV?$vector@UItemPriceInfo@@V?$allocator@UItemPriceInfo@@@std@@@std@@@std@@YA$$QAV?$vector@UItemPriceInfo@@V?$allocator@UItemPriceInfo@@@std@@@0@AAV10@@Z ENDP ; std::_Move<std::vector<ItemPriceInfo,std::allocator<ItemPriceInfo> > &>
_TEXT	ENDS
PUBLIC	??$forward@V?$vector@UItemPriceInfo@@V?$allocator@UItemPriceInfo@@@std@@@std@@@std@@YA$$QAV?$vector@UItemPriceInfo@@V?$allocator@UItemPriceInfo@@@std@@@0@AAV10@@Z ; std::forward<std::vector<ItemPriceInfo,std::allocator<ItemPriceInfo> > >
; Function compile flags: /Ogtp
;	COMDAT ??$forward@V?$vector@UItemPriceInfo@@V?$allocator@UItemPriceInfo@@@std@@@std@@@std@@YA$$QAV?$vector@UItemPriceInfo@@V?$allocator@UItemPriceInfo@@@std@@@0@AAV10@@Z
_TEXT	SEGMENT
__Arg$ = 8						; size = 4
??$forward@V?$vector@UItemPriceInfo@@V?$allocator@UItemPriceInfo@@@std@@@std@@@std@@YA$$QAV?$vector@UItemPriceInfo@@V?$allocator@UItemPriceInfo@@@std@@@0@AAV10@@Z PROC ; std::forward<std::vector<ItemPriceInfo,std::allocator<ItemPriceInfo> > >, COMDAT

; 78   : 	{	// forward _Arg, given explicitly specified type parameter

  00000	55		 push	 ebp
  00001	8b ec		 mov	 ebp, esp

; 79   : 	return ((_Ty&&)_Arg);

  00003	8b 45 08	 mov	 eax, DWORD PTR __Arg$[ebp]

; 80   : 	}

  00006	5d		 pop	 ebp
  00007	c3		 ret	 0
??$forward@V?$vector@UItemPriceInfo@@V?$allocator@UItemPriceInfo@@@std@@@std@@@std@@YA$$QAV?$vector@UItemPriceInfo@@V?$allocator@UItemPriceInfo@@@std@@@0@AAV10@@Z ENDP ; std::forward<std::vector<ItemPriceInfo,std::allocator<ItemPriceInfo> > >
_TEXT	ENDS
PUBLIC	??$?9UItemPriceInfo@@U0@@std@@YA_NABV?$allocator@UItemPriceInfo@@@0@0@Z ; std::operator!=<ItemPriceInfo,ItemPriceInfo>
; Function compile flags: /Ogtp
; File c:\program files (x86)\microsoft visual studio 10.0\vc\include\xmemory
;	COMDAT ??$?9UItemPriceInfo@@U0@@std@@YA_NABV?$allocator@UItemPriceInfo@@@0@0@Z
_TEXT	SEGMENT
__Left$ = 8						; size = 4
__Right$ = 12						; size = 4
??$?9UItemPriceInfo@@U0@@std@@YA_NABV?$allocator@UItemPriceInfo@@@0@0@Z PROC ; std::operator!=<ItemPriceInfo,ItemPriceInfo>, COMDAT

; 271  : 	return (!(_Left == _Right));

  00000	32 c0		 xor	 al, al

; 272  : 	}

  00002	c3		 ret	 0
??$?9UItemPriceInfo@@U0@@std@@YA_NABV?$allocator@UItemPriceInfo@@@0@0@Z ENDP ; std::operator!=<ItemPriceInfo,ItemPriceInfo>
_TEXT	ENDS
PUBLIC	??$forward@UItemPriceInfo@@@std@@YA$$QAUItemPriceInfo@@AAU1@@Z ; std::forward<ItemPriceInfo>
; Function compile flags: /Ogtp
; File c:\program files (x86)\microsoft visual studio 10.0\vc\include\utility
;	COMDAT ??$forward@UItemPriceInfo@@@std@@YA$$QAUItemPriceInfo@@AAU1@@Z
_TEXT	SEGMENT
__Arg$ = 8						; size = 4
??$forward@UItemPriceInfo@@@std@@YA$$QAUItemPriceInfo@@AAU1@@Z PROC ; std::forward<ItemPriceInfo>, COMDAT

; 78   : 	{	// forward _Arg, given explicitly specified type parameter

  00000	55		 push	 ebp
  00001	8b ec		 mov	 ebp, esp

; 79   : 	return ((_Ty&&)_Arg);

  00003	8b 45 08	 mov	 eax, DWORD PTR __Arg$[ebp]

; 80   : 	}

  00006	5d		 pop	 ebp
  00007	c3		 ret	 0
??$forward@UItemPriceInfo@@@std@@YA$$QAUItemPriceInfo@@AAU1@@Z ENDP ; std::forward<ItemPriceInfo>
_TEXT	ENDS
PUBLIC	??$addressof@UItemPriceInfo@@@std@@YAPAUItemPriceInfo@@AAU1@@Z ; std::addressof<ItemPriceInfo>
; Function compile flags: /Ogtp
; File c:\program files (x86)\microsoft visual studio 10.0\vc\include\xmemory
;	COMDAT ??$addressof@UItemPriceInfo@@@std@@YAPAUItemPriceInfo@@AAU1@@Z
_TEXT	SEGMENT
__Val$ = 8						; size = 4
??$addressof@UItemPriceInfo@@@std@@YAPAUItemPriceInfo@@AAU1@@Z PROC ; std::addressof<ItemPriceInfo>, COMDAT

; 110  : 	{	// return address of _Val

  00000	55		 push	 ebp
  00001	8b ec		 mov	 ebp, esp

; 111  : 	return ((_Ty *) &(char&)_Val);

  00003	8b 45 08	 mov	 eax, DWORD PTR __Val$[ebp]

; 112  : 	}

  00006	5d		 pop	 ebp
  00007	c3		 ret	 0
??$addressof@UItemPriceInfo@@@std@@YAPAUItemPriceInfo@@AAU1@@Z ENDP ; std::addressof<ItemPriceInfo>
_TEXT	ENDS
PUBLIC	?construct@?$allocator@UItemPriceInfo@@@std@@QAEXPAUItemPriceInfo@@$$QAU3@@Z ; std::allocator<ItemPriceInfo>::construct
; Function compile flags: /Ogtp
;	COMDAT ?construct@?$allocator@UItemPriceInfo@@@std@@QAEXPAUItemPriceInfo@@$$QAU3@@Z
_TEXT	SEGMENT
__Ptr$ = 8						; size = 4
__Val$ = 12						; size = 4
?construct@?$allocator@UItemPriceInfo@@@std@@QAEXPAUItemPriceInfo@@$$QAU3@@Z PROC ; std::allocator<ItemPriceInfo>::construct, COMDAT
; _this$ = ecx

; 201  : 		{	// construct object at _Ptr with value _Val

  00000	55		 push	 ebp
  00001	8b ec		 mov	 ebp, esp

; 202  : 		::new ((void _FARQ *)_Ptr) _Ty(_STD forward<_Ty>(_Val));

  00003	8b 45 08	 mov	 eax, DWORD PTR __Ptr$[ebp]
  00006	85 c0		 test	 eax, eax
  00008	74 13		 je	 SHORT $LN3@construct
  0000a	8b 4d 0c	 mov	 ecx, DWORD PTR __Val$[ebp]
  0000d	8b 11		 mov	 edx, DWORD PTR [ecx]
  0000f	89 10		 mov	 DWORD PTR [eax], edx
  00011	8b 51 04	 mov	 edx, DWORD PTR [ecx+4]
  00014	89 50 04	 mov	 DWORD PTR [eax+4], edx
  00017	8b 49 08	 mov	 ecx, DWORD PTR [ecx+8]
  0001a	89 48 08	 mov	 DWORD PTR [eax+8], ecx
$LN3@construct:

; 203  : 		}

  0001d	5d		 pop	 ebp
  0001e	c2 08 00	 ret	 8
?construct@?$allocator@UItemPriceInfo@@@std@@QAEXPAUItemPriceInfo@@$$QAU3@@Z ENDP ; std::allocator<ItemPriceInfo>::construct
_TEXT	ENDS
PUBLIC	??$forward@AAUItemPriceInfo@@@std@@YAAAUItemPriceInfo@@AAU1@@Z ; std::forward<ItemPriceInfo &>
; Function compile flags: /Ogtp
; File c:\program files (x86)\microsoft visual studio 10.0\vc\include\utility
;	COMDAT ??$forward@AAUItemPriceInfo@@@std@@YAAAUItemPriceInfo@@AAU1@@Z
_TEXT	SEGMENT
__Arg$ = 8						; size = 4
??$forward@AAUItemPriceInfo@@@std@@YAAAUItemPriceInfo@@AAU1@@Z PROC ; std::forward<ItemPriceInfo &>, COMDAT

; 78   : 	{	// forward _Arg, given explicitly specified type parameter

  00000	55		 push	 ebp
  00001	8b ec		 mov	 ebp, esp

; 79   : 	return ((_Ty&&)_Arg);

  00003	8b 45 08	 mov	 eax, DWORD PTR __Arg$[ebp]

; 80   : 	}

  00006	5d		 pop	 ebp
  00007	c3		 ret	 0
??$forward@AAUItemPriceInfo@@@std@@YAAAUItemPriceInfo@@AAU1@@Z ENDP ; std::forward<ItemPriceInfo &>
_TEXT	ENDS
PUBLIC	??$construct@AAUItemPriceInfo@@@?$allocator@UItemPriceInfo@@@std@@QAEXPAUItemPriceInfo@@AAU2@@Z ; std::allocator<ItemPriceInfo>::construct<ItemPriceInfo &>
; Function compile flags: /Ogtp
; File c:\program files (x86)\microsoft visual studio 10.0\vc\include\xmemory
;	COMDAT ??$construct@AAUItemPriceInfo@@@?$allocator@UItemPriceInfo@@@std@@QAEXPAUItemPriceInfo@@AAU2@@Z
_TEXT	SEGMENT
__Ptr$ = 8						; size = 4
__Val$ = 12						; size = 4
??$construct@AAUItemPriceInfo@@@?$allocator@UItemPriceInfo@@@std@@QAEXPAUItemPriceInfo@@AAU2@@Z PROC ; std::allocator<ItemPriceInfo>::construct<ItemPriceInfo &>, COMDAT
; _this$ = ecx

; 206  : 		void construct(pointer _Ptr, _Other&& _Val)

  00000	55		 push	 ebp
  00001	8b ec		 mov	 ebp, esp

; 207  : 		{	// construct object at _Ptr with value _Val
; 208  : 		::new ((void _FARQ *)_Ptr) _Ty(_STD forward<_Other>(_Val));

  00003	8b 45 08	 mov	 eax, DWORD PTR __Ptr$[ebp]
  00006	85 c0		 test	 eax, eax
  00008	74 13		 je	 SHORT $LN3@construct@2
  0000a	8b 4d 0c	 mov	 ecx, DWORD PTR __Val$[ebp]
  0000d	8b 11		 mov	 edx, DWORD PTR [ecx]
  0000f	89 10		 mov	 DWORD PTR [eax], edx
  00011	8b 51 04	 mov	 edx, DWORD PTR [ecx+4]
  00014	89 50 04	 mov	 DWORD PTR [eax+4], edx
  00017	8b 49 08	 mov	 ecx, DWORD PTR [ecx+8]
  0001a	89 48 08	 mov	 DWORD PTR [eax+8], ecx
$LN3@construct@2:

; 209  : 		}

  0001d	5d		 pop	 ebp
  0001e	c2 08 00	 ret	 8
??$construct@AAUItemPriceInfo@@@?$allocator@UItemPriceInfo@@@std@@QAEXPAUItemPriceInfo@@AAU2@@Z ENDP ; std::allocator<ItemPriceInfo>::construct<ItemPriceInfo &>
_TEXT	ENDS
PUBLIC	??$forward@ABUItemPriceInfo@@@std@@YAABUItemPriceInfo@@ABU1@@Z ; std::forward<ItemPriceInfo const &>
; Function compile flags: /Ogtp
; File c:\program files (x86)\microsoft visual studio 10.0\vc\include\utility
;	COMDAT ??$forward@ABUItemPriceInfo@@@std@@YAABUItemPriceInfo@@ABU1@@Z
_TEXT	SEGMENT
__Arg$ = 8						; size = 4
??$forward@ABUItemPriceInfo@@@std@@YAABUItemPriceInfo@@ABU1@@Z PROC ; std::forward<ItemPriceInfo const &>, COMDAT

; 78   : 	{	// forward _Arg, given explicitly specified type parameter

  00000	55		 push	 ebp
  00001	8b ec		 mov	 ebp, esp

; 79   : 	return ((_Ty&&)_Arg);

  00003	8b 45 08	 mov	 eax, DWORD PTR __Arg$[ebp]

; 80   : 	}

  00006	5d		 pop	 ebp
  00007	c3		 ret	 0
??$forward@ABUItemPriceInfo@@@std@@YAABUItemPriceInfo@@ABU1@@Z ENDP ; std::forward<ItemPriceInfo const &>
_TEXT	ENDS
PUBLIC	??$_Move@AAPAUItemPriceInfo@@@std@@YA$$QAPAUItemPriceInfo@@AAPAU1@@Z ; std::_Move<ItemPriceInfo * &>
; Function compile flags: /Ogtp
;	COMDAT ??$_Move@AAPAUItemPriceInfo@@@std@@YA$$QAPAUItemPriceInfo@@AAPAU1@@Z
_TEXT	SEGMENT
__Arg$ = 8						; size = 4
??$_Move@AAPAUItemPriceInfo@@@std@@YA$$QAPAUItemPriceInfo@@AAPAU1@@Z PROC ; std::_Move<ItemPriceInfo * &>, COMDAT

; 94   : 	{	// forward _Arg as movable

  00000	55		 push	 ebp
  00001	8b ec		 mov	 ebp, esp

; 95   : 	return ((typename tr1::_Remove_reference<_Ty>::_Type&&)_Arg);

  00003	8b 45 08	 mov	 eax, DWORD PTR __Arg$[ebp]

; 96   : 	}

  00006	5d		 pop	 ebp
  00007	c3		 ret	 0
??$_Move@AAPAUItemPriceInfo@@@std@@YA$$QAPAUItemPriceInfo@@AAPAU1@@Z ENDP ; std::_Move<ItemPriceInfo * &>
_TEXT	ENDS
PUBLIC	??$_Ptr_cat@UItemPriceInfo@@U1@@std@@YA?AU_Nonscalar_ptr_iterator_tag@0@PAUItemPriceInfo@@0@Z ; std::_Ptr_cat<ItemPriceInfo,ItemPriceInfo>
; Function compile flags: /Ogtp
; File c:\program files (x86)\microsoft visual studio 10.0\vc\include\xutility
;	COMDAT ??$_Ptr_cat@UItemPriceInfo@@U1@@std@@YA?AU_Nonscalar_ptr_iterator_tag@0@PAUItemPriceInfo@@0@Z
_TEXT	SEGMENT
__Cat$ = -1						; size = 1
___formal$ = 8						; size = 4
___formal$ = 12						; size = 4
??$_Ptr_cat@UItemPriceInfo@@U1@@std@@YA?AU_Nonscalar_ptr_iterator_tag@0@PAUItemPriceInfo@@0@Z PROC ; std::_Ptr_cat<ItemPriceInfo,ItemPriceInfo>, COMDAT

; 516  : 	{	// return pointer category from pointers

  00000	55		 push	 ebp
  00001	8b ec		 mov	 ebp, esp
  00003	51		 push	 ecx

; 517  : 	typename _Ptr_cat_helper<_Elem1, _Elem2>::_Type _Cat;
; 518  : 	return (_Cat);

  00004	8a 45 ff	 mov	 al, BYTE PTR __Cat$[ebp]

; 519  : 	}

  00007	8b e5		 mov	 esp, ebp
  00009	5d		 pop	 ebp
  0000a	c3		 ret	 0
??$_Ptr_cat@UItemPriceInfo@@U1@@std@@YA?AU_Nonscalar_ptr_iterator_tag@0@PAUItemPriceInfo@@0@Z ENDP ; std::_Ptr_cat<ItemPriceInfo,ItemPriceInfo>
_TEXT	ENDS
PUBLIC	??$_Construct@UItemPriceInfo@@ABU1@@std@@YAXPAUItemPriceInfo@@ABU1@@Z ; std::_Construct<ItemPriceInfo,ItemPriceInfo const &>
; Function compile flags: /Ogtp
; File c:\program files (x86)\microsoft visual studio 10.0\vc\include\xmemory
;	COMDAT ??$_Construct@UItemPriceInfo@@ABU1@@std@@YAXPAUItemPriceInfo@@ABU1@@Z
_TEXT	SEGMENT
__Ptr$ = 8						; size = 4
__Val$ = 12						; size = 4
??$_Construct@UItemPriceInfo@@ABU1@@std@@YAXPAUItemPriceInfo@@ABU1@@Z PROC ; std::_Construct<ItemPriceInfo,ItemPriceInfo const &>, COMDAT

; 46   : 	{	// construct object at _Ptr with value _Val

  00000	55		 push	 ebp
  00001	8b ec		 mov	 ebp, esp

; 47   : 	void _FARQ *_Vptr = _Ptr;
; 48   : 	::new (_Vptr) _Ty1(_STD forward<_Ty2>(_Val));

  00003	8b 45 08	 mov	 eax, DWORD PTR __Ptr$[ebp]
  00006	85 c0		 test	 eax, eax
  00008	74 13		 je	 SHORT $LN3@Construct
  0000a	8b 4d 0c	 mov	 ecx, DWORD PTR __Val$[ebp]
  0000d	8b 11		 mov	 edx, DWORD PTR [ecx]
  0000f	89 10		 mov	 DWORD PTR [eax], edx
  00011	8b 51 04	 mov	 edx, DWORD PTR [ecx+4]
  00014	89 50 04	 mov	 DWORD PTR [eax+4], edx
  00017	8b 49 08	 mov	 ecx, DWORD PTR [ecx+8]
  0001a	89 48 08	 mov	 DWORD PTR [eax+8], ecx
$LN3@Construct:

; 49   : 	}

  0001d	5d		 pop	 ebp
  0001e	c3		 ret	 0
??$_Construct@UItemPriceInfo@@ABU1@@std@@YAXPAUItemPriceInfo@@ABU1@@Z ENDP ; std::_Construct<ItemPriceInfo,ItemPriceInfo const &>
_TEXT	ENDS
PUBLIC	??$move@AAUItemPriceInfo@@@std@@YA$$QAUItemPriceInfo@@AAU1@@Z ; std::move<ItemPriceInfo &>
; Function compile flags: /Ogtp
; File c:\program files (x86)\microsoft visual studio 10.0\vc\include\utility
;	COMDAT ??$move@AAUItemPriceInfo@@@std@@YA$$QAUItemPriceInfo@@AAU1@@Z
_TEXT	SEGMENT
__Arg$ = 8						; size = 4
??$move@AAUItemPriceInfo@@@std@@YA$$QAUItemPriceInfo@@AAU1@@Z PROC ; std::move<ItemPriceInfo &>, COMDAT

; 86   : 	{	// forward _Arg as movable

  00000	55		 push	 ebp
  00001	8b ec		 mov	 ebp, esp

; 87   : 	return ((typename tr1::_Remove_reference<_Ty>::_Type&&)_Arg);

  00003	8b 45 08	 mov	 eax, DWORD PTR __Arg$[ebp]

; 88   : 	}

  00006	5d		 pop	 ebp
  00007	c3		 ret	 0
??$move@AAUItemPriceInfo@@@std@@YA$$QAUItemPriceInfo@@AAU1@@Z ENDP ; std::move<ItemPriceInfo &>
_TEXT	ENDS
PUBLIC	??$_Val_type@PAUItemPriceInfo@@@std@@YAPAUItemPriceInfo@@PAU1@@Z ; std::_Val_type<ItemPriceInfo *>
; Function compile flags: /Ogtp
; File c:\program files (x86)\microsoft visual studio 10.0\vc\include\xutility
;	COMDAT ??$_Val_type@PAUItemPriceInfo@@@std@@YAPAUItemPriceInfo@@PAU1@@Z
_TEXT	SEGMENT
___formal$ = 8						; size = 4
??$_Val_type@PAUItemPriceInfo@@@std@@YAPAUItemPriceInfo@@PAU1@@Z PROC ; std::_Val_type<ItemPriceInfo *>, COMDAT

; 790  : 	return (0);

  00000	33 c0		 xor	 eax, eax

; 791  : 	}

  00002	c3		 ret	 0
??$_Val_type@PAUItemPriceInfo@@@std@@YAPAUItemPriceInfo@@PAU1@@Z ENDP ; std::_Val_type<ItemPriceInfo *>
_TEXT	ENDS
PUBLIC	??$_Destroy@UItemPriceInfo@@@std@@YAXPAUItemPriceInfo@@@Z ; std::_Destroy<ItemPriceInfo>
; Function compile flags: /Ogtp
; File c:\program files (x86)\microsoft visual studio 10.0\vc\include\xmemory
;	COMDAT ??$_Destroy@UItemPriceInfo@@@std@@YAXPAUItemPriceInfo@@@Z
_TEXT	SEGMENT
__Ptr$ = 8						; size = 4
??$_Destroy@UItemPriceInfo@@@std@@YAXPAUItemPriceInfo@@@Z PROC ; std::_Destroy<ItemPriceInfo>, COMDAT

; 63   : 	_Ptr->~_Ty();
; 64   : 	}

  00000	c3		 ret	 0
??$_Destroy@UItemPriceInfo@@@std@@YAXPAUItemPriceInfo@@@Z ENDP ; std::_Destroy<ItemPriceInfo>
_TEXT	ENDS
PUBLIC	??_7bad_alloc@std@@6B@				; std::bad_alloc::`vftable'
PUBLIC	??0bad_alloc@std@@QAE@PBD@Z			; std::bad_alloc::bad_alloc
PUBLIC	??_R4bad_alloc@std@@6B@				; std::bad_alloc::`RTTI Complete Object Locator'
PUBLIC	??_R0?AVbad_alloc@std@@@8			; std::bad_alloc `RTTI Type Descriptor'
PUBLIC	??_R3bad_alloc@std@@8				; std::bad_alloc::`RTTI Class Hierarchy Descriptor'
PUBLIC	??_R2bad_alloc@std@@8				; std::bad_alloc::`RTTI Base Class Array'
PUBLIC	??_R1A@?0A@EA@bad_alloc@std@@8			; std::bad_alloc::`RTTI Base Class Descriptor at (0,-1,0,64)'
PUBLIC	??_R1A@?0A@EA@exception@std@@8			; std::exception::`RTTI Base Class Descriptor at (0,-1,0,64)'
PUBLIC	??_R0?AVexception@std@@@8			; std::exception `RTTI Type Descriptor'
PUBLIC	??_R3exception@std@@8				; std::exception::`RTTI Class Hierarchy Descriptor'
PUBLIC	??_R2exception@std@@8				; std::exception::`RTTI Base Class Array'
EXTRN	??0exception@std@@QAE@ABQBD@Z:PROC		; std::exception::exception
EXTRN	??_7type_info@@6B@:QWORD			; type_info::`vftable'
EXTRN	??_Ebad_alloc@std@@UAEPAXI@Z:PROC		; std::bad_alloc::`vector deleting destructor'
EXTRN	?what@exception@std@@UBEPBDXZ:PROC		; std::exception::what
;	COMDAT ??_R2exception@std@@8
; File c:\program files (x86)\microsoft visual studio 10.0\vc\include\exception
rdata$r	SEGMENT
??_R2exception@std@@8 DD FLAT:??_R1A@?0A@EA@exception@std@@8 ; std::exception::`RTTI Base Class Array'
rdata$r	ENDS
;	COMDAT ??_R3exception@std@@8
rdata$r	SEGMENT
??_R3exception@std@@8 DD 00H				; std::exception::`RTTI Class Hierarchy Descriptor'
	DD	00H
	DD	01H
	DD	FLAT:??_R2exception@std@@8
rdata$r	ENDS
;	COMDAT ??_R0?AVexception@std@@@8
_DATA	SEGMENT
??_R0?AVexception@std@@@8 DD FLAT:??_7type_info@@6B@	; std::exception `RTTI Type Descriptor'
	DD	00H
	DB	'.?AVexception@std@@', 00H
_DATA	ENDS
;	COMDAT ??_R1A@?0A@EA@exception@std@@8
rdata$r	SEGMENT
??_R1A@?0A@EA@exception@std@@8 DD FLAT:??_R0?AVexception@std@@@8 ; std::exception::`RTTI Base Class Descriptor at (0,-1,0,64)'
	DD	00H
	DD	00H
	DD	0ffffffffH
	DD	00H
	DD	040H
	DD	FLAT:??_R3exception@std@@8
rdata$r	ENDS
;	COMDAT ??_R1A@?0A@EA@bad_alloc@std@@8
rdata$r	SEGMENT
??_R1A@?0A@EA@bad_alloc@std@@8 DD FLAT:??_R0?AVbad_alloc@std@@@8 ; std::bad_alloc::`RTTI Base Class Descriptor at (0,-1,0,64)'
	DD	01H
	DD	00H
	DD	0ffffffffH
	DD	00H
	DD	040H
	DD	FLAT:??_R3bad_alloc@std@@8
rdata$r	ENDS
;	COMDAT ??_R2bad_alloc@std@@8
rdata$r	SEGMENT
??_R2bad_alloc@std@@8 DD FLAT:??_R1A@?0A@EA@bad_alloc@std@@8 ; std::bad_alloc::`RTTI Base Class Array'
	DD	FLAT:??_R1A@?0A@EA@exception@std@@8
rdata$r	ENDS
;	COMDAT ??_R3bad_alloc@std@@8
rdata$r	SEGMENT
??_R3bad_alloc@std@@8 DD 00H				; std::bad_alloc::`RTTI Class Hierarchy Descriptor'
	DD	00H
	DD	02H
	DD	FLAT:??_R2bad_alloc@std@@8
rdata$r	ENDS
;	COMDAT ??_R0?AVbad_alloc@std@@@8
_DATA	SEGMENT
??_R0?AVbad_alloc@std@@@8 DD FLAT:??_7type_info@@6B@	; std::bad_alloc `RTTI Type Descriptor'
	DD	00H
	DB	'.?AVbad_alloc@std@@', 00H
_DATA	ENDS
;	COMDAT ??_R4bad_alloc@std@@6B@
rdata$r	SEGMENT
??_R4bad_alloc@std@@6B@ DD 00H				; std::bad_alloc::`RTTI Complete Object Locator'
	DD	00H
	DD	00H
	DD	FLAT:??_R0?AVbad_alloc@std@@@8
	DD	FLAT:??_R3bad_alloc@std@@8
rdata$r	ENDS
;	COMDAT ??_7bad_alloc@std@@6B@
CONST	SEGMENT
??_7bad_alloc@std@@6B@ DD FLAT:??_R4bad_alloc@std@@6B@	; std::bad_alloc::`vftable'
	DD	FLAT:??_Ebad_alloc@std@@UAEPAXI@Z
	DD	FLAT:?what@exception@std@@UBEPBDXZ
; Function compile flags: /Ogtp
CONST	ENDS
;	COMDAT ??0bad_alloc@std@@QAE@PBD@Z
_TEXT	SEGMENT
__Message$ = 8						; size = 4
??0bad_alloc@std@@QAE@PBD@Z PROC			; std::bad_alloc::bad_alloc, COMDAT
; _this$ = ecx

; 345  : 		{	// construct from message string

  00000	55		 push	 ebp
  00001	8b ec		 mov	 ebp, esp
  00003	56		 push	 esi
  00004	8d 45 08	 lea	 eax, DWORD PTR __Message$[ebp]
  00007	50		 push	 eax
  00008	8b f1		 mov	 esi, ecx
  0000a	e8 00 00 00 00	 call	 ??0exception@std@@QAE@ABQBD@Z ; std::exception::exception
  0000f	c7 06 00 00 00
	00		 mov	 DWORD PTR [esi], OFFSET ??_7bad_alloc@std@@6B@

; 346  : 		}

  00015	8b c6		 mov	 eax, esi
  00017	5e		 pop	 esi
  00018	5d		 pop	 ebp
  00019	c2 04 00	 ret	 4
??0bad_alloc@std@@QAE@PBD@Z ENDP			; std::bad_alloc::bad_alloc
_TEXT	ENDS
PUBLIC	??1bad_alloc@std@@UAE@XZ			; std::bad_alloc::~bad_alloc
EXTRN	??1exception@std@@UAE@XZ:PROC			; std::exception::~exception
; Function compile flags: /Ogtp
;	COMDAT ??1bad_alloc@std@@UAE@XZ
_TEXT	SEGMENT
??1bad_alloc@std@@UAE@XZ PROC				; std::bad_alloc::~bad_alloc, COMDAT
; _this$ = ecx

; 354  : 		{	// destroy the object

  00000	c7 01 00 00 00
	00		 mov	 DWORD PTR [ecx], OFFSET ??_7bad_alloc@std@@6B@

; 355  : 		}

  00006	e9 00 00 00 00	 jmp	 ??1exception@std@@UAE@XZ ; std::exception::~exception
??1bad_alloc@std@@UAE@XZ ENDP				; std::bad_alloc::~bad_alloc
; Function compile flags: /Ogtp
_TEXT	ENDS
;	COMDAT ??_Gbad_alloc@std@@UAEPAXI@Z
_TEXT	SEGMENT
___flags$ = 8						; size = 4
??_Gbad_alloc@std@@UAEPAXI@Z PROC			; std::bad_alloc::`scalar deleting destructor', COMDAT
; _this$ = ecx
  00000	55		 push	 ebp
  00001	8b ec		 mov	 ebp, esp
  00003	56		 push	 esi
  00004	8b f1		 mov	 esi, ecx
  00006	c7 06 00 00 00
	00		 mov	 DWORD PTR [esi], OFFSET ??_7bad_alloc@std@@6B@
  0000c	e8 00 00 00 00	 call	 ??1exception@std@@UAE@XZ ; std::exception::~exception
  00011	f6 45 08 01	 test	 BYTE PTR ___flags$[ebp], 1
  00015	74 09		 je	 SHORT $LN6@scalar
  00017	56		 push	 esi
  00018	e8 00 00 00 00	 call	 ??3@YAXPAX@Z		; operator delete
  0001d	83 c4 04	 add	 esp, 4
$LN6@scalar:
  00020	8b c6		 mov	 eax, esi
  00022	5e		 pop	 esi
  00023	5d		 pop	 ebp
  00024	c2 04 00	 ret	 4
??_Gbad_alloc@std@@UAEPAXI@Z ENDP			; std::bad_alloc::`scalar deleting destructor'
_TEXT	ENDS
PUBLIC	?_Orphan_all@_Container_base0@std@@QAEXXZ	; std::_Container_base0::_Orphan_all
; Function compile flags: /Ogtp
; File c:\program files (x86)\microsoft visual studio 10.0\vc\include\xutility
;	COMDAT ?_Orphan_all@_Container_base0@std@@QAEXXZ
_TEXT	SEGMENT
?_Orphan_all@_Container_base0@std@@QAEXXZ PROC		; std::_Container_base0::_Orphan_all, COMDAT
; _this$ = ecx

; 38   : 		}

  00000	c3		 ret	 0
?_Orphan_all@_Container_base0@std@@QAEXXZ ENDP		; std::_Container_base0::_Orphan_all
_TEXT	ENDS
PUBLIC	?_Swap_all@_Container_base0@std@@QAEXAAU12@@Z	; std::_Container_base0::_Swap_all
; Function compile flags: /Ogtp
;	COMDAT ?_Swap_all@_Container_base0@std@@QAEXAAU12@@Z
_TEXT	SEGMENT
___formal$ = 8						; size = 4
?_Swap_all@_Container_base0@std@@QAEXAAU12@@Z PROC	; std::_Container_base0::_Swap_all, COMDAT
; _this$ = ecx

; 42   : 		}

  00000	c2 04 00	 ret	 4
?_Swap_all@_Container_base0@std@@QAEXAAU12@@Z ENDP	; std::_Container_base0::_Swap_all
_TEXT	ENDS
PUBLIC	?_Adopt@_Iterator_base0@std@@QAEXPBX@Z		; std::_Iterator_base0::_Adopt
; Function compile flags: /Ogtp
;	COMDAT ?_Adopt@_Iterator_base0@std@@QAEXPBX@Z
_TEXT	SEGMENT
___formal$ = 8						; size = 4
?_Adopt@_Iterator_base0@std@@QAEXPBX@Z PROC		; std::_Iterator_base0::_Adopt, COMDAT
; _this$ = ecx

; 49   : 		}

  00000	c2 04 00	 ret	 4
?_Adopt@_Iterator_base0@std@@QAEXPBX@Z ENDP		; std::_Iterator_base0::_Adopt
_TEXT	ENDS
PUBLIC	??_EOBJECTSTRUCT@@QAEPAXI@Z			; OBJECTSTRUCT::`vector deleting destructor'
EXTRN	??_V@YAXPAX@Z:PROC				; operator delete[]
EXTRN	??_M@YGXPAXIHP6EX0@Z@Z:PROC			; `eh vector destructor iterator'
;	COMDAT xdata$x
xdata$x	SEGMENT
__unwindtable$??_EOBJECTSTRUCT@@QAEPAXI@Z DD 0ffffffffH
	DD	FLAT:__unwindfunclet$??_EOBJECTSTRUCT@@QAEPAXI@Z$0
__ehfuncinfo$??_EOBJECTSTRUCT@@QAEPAXI@Z DD 019930522H
	DD	01H
	DD	FLAT:__unwindtable$??_EOBJECTSTRUCT@@QAEPAXI@Z
	DD	2 DUP(00H)
	DD	2 DUP(00H)
	DD	00H
	DD	01H
; Function compile flags: /Ogtp
xdata$x	ENDS
;	COMDAT ??_EOBJECTSTRUCT@@QAEPAXI@Z
_TEXT	SEGMENT
_this$ = -16						; size = 4
__$EHRec$ = -12						; size = 12
___flags$ = 8						; size = 4
??_EOBJECTSTRUCT@@QAEPAXI@Z PROC			; OBJECTSTRUCT::`vector deleting destructor', COMDAT
; _this$ = ecx
  00000	55		 push	 ebp
  00001	8b ec		 mov	 ebp, esp
  00003	6a ff		 push	 -1
  00005	68 00 00 00 00	 push	 __ehhandler$??_EOBJECTSTRUCT@@QAEPAXI@Z
  0000a	64 a1 00 00 00
	00		 mov	 eax, DWORD PTR fs:0
  00010	50		 push	 eax
  00011	51		 push	 ecx
  00012	53		 push	 ebx
  00013	56		 push	 esi
  00014	57		 push	 edi
  00015	a1 00 00 00 00	 mov	 eax, DWORD PTR ___security_cookie
  0001a	33 c5		 xor	 eax, ebp
  0001c	50		 push	 eax
  0001d	8d 45 f4	 lea	 eax, DWORD PTR __$EHRec$[ebp]
  00020	64 a3 00 00 00
	00		 mov	 DWORD PTR fs:0, eax
  00026	8b f1		 mov	 esi, ecx
  00028	89 75 f0	 mov	 DWORD PTR _this$[ebp], esi
  0002b	8a 5d 08	 mov	 bl, BYTE PTR ___flags$[ebp]
  0002e	f6 c3 02	 test	 bl, 2
  00031	74 3b		 je	 SHORT $LN3@vector
  00033	8b 46 fc	 mov	 eax, DWORD PTR [esi-4]
  00036	68 00 00 00 00	 push	 OFFSET ??1OBJECTSTRUCT@@QAE@XZ
  0003b	8d 7e fc	 lea	 edi, DWORD PTR [esi-4]
  0003e	50		 push	 eax
  0003f	68 40 27 00 00	 push	 10048			; 00002740H
  00044	56		 push	 esi
  00045	e8 00 00 00 00	 call	 ??_M@YGXPAXIHP6EX0@Z@Z
  0004a	f6 c3 01	 test	 bl, 1
  0004d	74 09		 je	 SHORT $LN2@vector
  0004f	57		 push	 edi
  00050	e8 00 00 00 00	 call	 ??_V@YAXPAX@Z		; operator delete[]
  00055	83 c4 04	 add	 esp, 4
$LN2@vector:
  00058	8b c7		 mov	 eax, edi
  0005a	8b 4d f4	 mov	 ecx, DWORD PTR __$EHRec$[ebp]
  0005d	64 89 0d 00 00
	00 00		 mov	 DWORD PTR fs:0, ecx
  00064	59		 pop	 ecx
  00065	5f		 pop	 edi
  00066	5e		 pop	 esi
  00067	5b		 pop	 ebx
  00068	8b e5		 mov	 esp, ebp
  0006a	5d		 pop	 ebp
  0006b	c2 04 00	 ret	 4
$LN3@vector:
  0006e	8d 8e ec 20 00
	00		 lea	 ecx, DWORD PTR [esi+8428]
  00074	c7 45 fc 00 00
	00 00		 mov	 DWORD PTR __$EHRec$[ebp+8], 0
  0007b	e8 00 00 00 00	 call	 ??1TMonsterAIAgro@@UAE@XZ ; TMonsterAIAgro::~TMonsterAIAgro
  00080	8d 8e 0c 16 00
	00		 lea	 ecx, DWORD PTR [esi+5644]
  00086	c7 45 fc ff ff
	ff ff		 mov	 DWORD PTR __$EHRec$[ebp+8], -1
  0008d	e8 00 00 00 00	 call	 ??1CSkillDelay@@UAE@XZ	; CSkillDelay::~CSkillDelay
  00092	f6 c3 01	 test	 bl, 1
  00095	74 09		 je	 SHORT $LN1@vector
  00097	56		 push	 esi
  00098	e8 00 00 00 00	 call	 ??3@YAXPAX@Z		; operator delete
  0009d	83 c4 04	 add	 esp, 4
$LN1@vector:
  000a0	8b c6		 mov	 eax, esi
  000a2	8b 4d f4	 mov	 ecx, DWORD PTR __$EHRec$[ebp]
  000a5	64 89 0d 00 00
	00 00		 mov	 DWORD PTR fs:0, ecx
  000ac	59		 pop	 ecx
  000ad	5f		 pop	 edi
  000ae	5e		 pop	 esi
  000af	5b		 pop	 ebx
  000b0	8b e5		 mov	 esp, ebp
  000b2	5d		 pop	 ebp
  000b3	c2 04 00	 ret	 4
_TEXT	ENDS
;	COMDAT text$x
text$x	SEGMENT
__unwindfunclet$??_EOBJECTSTRUCT@@QAEPAXI@Z$0:
  00000	8b 4d f0	 mov	 ecx, DWORD PTR _this$[ebp]
  00003	81 c1 0c 16 00
	00		 add	 ecx, 5644		; 0000160cH
  00009	e9 00 00 00 00	 jmp	 ??1CSkillDelay@@UAE@XZ	; CSkillDelay::~CSkillDelay
__ehhandler$??_EOBJECTSTRUCT@@QAEPAXI@Z:
  0000e	8b 54 24 08	 mov	 edx, DWORD PTR [esp+8]
  00012	8d 42 0c	 lea	 eax, DWORD PTR [edx+12]
  00015	8b 4a ec	 mov	 ecx, DWORD PTR [edx-20]
  00018	33 c8		 xor	 ecx, eax
  0001a	e8 00 00 00 00	 call	 @__security_check_cookie@4
  0001f	b8 00 00 00 00	 mov	 eax, OFFSET __ehfuncinfo$??_EOBJECTSTRUCT@@QAEPAXI@Z
  00024	e9 00 00 00 00	 jmp	 ___CxxFrameHandler3
text$x	ENDS
??_EOBJECTSTRUCT@@QAEPAXI@Z ENDP			; OBJECTSTRUCT::`vector deleting destructor'
PUBLIC	?GetPrice@ItemPrice@@QAE_NFGEAAKAAE@Z		; ItemPrice::GetPrice
; Function compile flags: /Ogtp
; File c:\muserver_dev\development\mu-s8ep2-repack\gameserver\source\itemprice.cpp
;	COMDAT ?GetPrice@ItemPrice@@QAE_NFGEAAKAAE@Z
_TEXT	SEGMENT
_ShopNumber$ = 8					; size = 2
_ItemCode$ = 12						; size = 2
_ItemLevel$ = 16					; size = 1
_Price$ = 20						; size = 4
_Divisor$ = 24						; size = 4
?GetPrice@ItemPrice@@QAE_NFGEAAKAAE@Z PROC		; ItemPrice::GetPrice, COMDAT
; _this$ = ecx

; 72   : {

  00000	55		 push	 ebp
  00001	8b ec		 mov	 ebp, esp

; 73   : 	for( int i = 0; i < this->m_PriceInfo.size(); i++ )

  00003	8b 51 08	 mov	 edx, DWORD PTR [ecx+8]
  00006	2b 51 04	 sub	 edx, DWORD PTR [ecx+4]
  00009	b8 ab aa aa 2a	 mov	 eax, 715827883		; 2aaaaaabH
  0000e	f7 ea		 imul	 edx
  00010	56		 push	 esi
  00011	57		 push	 edi
  00012	d1 fa		 sar	 edx, 1
  00014	8b fa		 mov	 edi, edx
  00016	c1 ef 1f	 shr	 edi, 31			; 0000001fH
  00019	33 f6		 xor	 esi, esi
  0001b	03 fa		 add	 edi, edx
  0001d	74 31		 je	 SHORT $LN6@GetPrice
  0001f	8b 41 04	 mov	 eax, DWORD PTR [ecx+4]
$LL8@GetPrice:

; 74   : 	{
; 75   : 		if( this->m_PriceInfo[i].m_ShopNumber != (short)-1 )

  00022	0f b7 50 0a	 movzx	 edx, WORD PTR [eax+10]
  00026	66 83 fa ff	 cmp	 dx, -1
  0002a	74 06		 je	 SHORT $LN4@GetPrice

; 76   : 		{
; 77   : 			if( this->m_PriceInfo[i].m_ShopNumber != ShopNumber )

  0002c	66 3b 55 08	 cmp	 dx, WORD PTR _ShopNumber$[ebp]
  00030	75 16		 jne	 SHORT $LN7@GetPrice
$LN4@GetPrice:

; 78   : 			{
; 79   : 				continue;
; 80   : 			}
; 81   : 		}
; 82   : 		// ----
; 83   : 		if( this->m_PriceInfo[i].m_ItemCode != ItemCode )

  00032	66 8b 10	 mov	 dx, WORD PTR [eax]
  00035	66 3b 55 0c	 cmp	 dx, WORD PTR _ItemCode$[ebp]
  00039	75 0d		 jne	 SHORT $LN7@GetPrice

; 84   : 		{
; 85   : 			continue;
; 86   : 		}
; 87   : 		// ----
; 88   : 		if( this->m_PriceInfo[i].m_ItemLevel != (BYTE)-1 )

  0003b	8a 50 02	 mov	 dl, BYTE PTR [eax+2]
  0003e	80 fa ff	 cmp	 dl, 255			; 000000ffH
  00041	74 15		 je	 SHORT $LN31@GetPrice

; 89   : 		{
; 90   : 			if( this->m_PriceInfo[i].m_ItemLevel != ItemLevel )

  00043	3a 55 10	 cmp	 dl, BYTE PTR _ItemLevel$[ebp]
  00046	74 10		 je	 SHORT $LN31@GetPrice
$LN7@GetPrice:

; 73   : 	for( int i = 0; i < this->m_PriceInfo.size(); i++ )

  00048	46		 inc	 esi
  00049	83 c0 0c	 add	 eax, 12			; 0000000cH
  0004c	3b f7		 cmp	 esi, edi
  0004e	72 d2		 jb	 SHORT $LL8@GetPrice
$LN6@GetPrice:
  00050	5f		 pop	 edi

; 99   : 	}
; 100  : 	// ----
; 101  : 	return false;

  00051	32 c0		 xor	 al, al
  00053	5e		 pop	 esi

; 102  : }

  00054	5d		 pop	 ebp
  00055	c2 14 00	 ret	 20			; 00000014H
$LN31@GetPrice:

; 91   : 			{
; 92   : 				continue;
; 93   : 			}
; 94   : 		}
; 95   : 		// ----
; 96   : 		Price = this->m_PriceInfo[i].m_ItemPrice;

  00058	8b 51 04	 mov	 edx, DWORD PTR [ecx+4]
  0005b	8d 04 76	 lea	 eax, DWORD PTR [esi+esi*2]
  0005e	8b 75 14	 mov	 esi, DWORD PTR _Price$[ebp]
  00061	03 c0		 add	 eax, eax
  00063	03 c0		 add	 eax, eax
  00065	8b 54 10 04	 mov	 edx, DWORD PTR [eax+edx+4]
  00069	89 16		 mov	 DWORD PTR [esi], edx

; 97   : 		Divisor = this->m_PriceInfo[i].m_Divisor;

  0006b	8b 49 04	 mov	 ecx, DWORD PTR [ecx+4]
  0006e	8a 54 08 08	 mov	 dl, BYTE PTR [eax+ecx+8]
  00072	8b 45 18	 mov	 eax, DWORD PTR _Divisor$[ebp]
  00075	5f		 pop	 edi
  00076	88 10		 mov	 BYTE PTR [eax], dl

; 98   : 		return true;

  00078	b0 01		 mov	 al, 1
  0007a	5e		 pop	 esi

; 102  : }

  0007b	5d		 pop	 ebp
  0007c	c2 14 00	 ret	 20			; 00000014H
?GetPrice@ItemPrice@@QAE_NFGEAAKAAE@Z ENDP		; ItemPrice::GetPrice
_TEXT	ENDS
PUBLIC	?GetSendPrice@ItemPrice@@QAE_NFGEAAKAAE@Z	; ItemPrice::GetSendPrice
; Function compile flags: /Ogtp
;	COMDAT ?GetSendPrice@ItemPrice@@QAE_NFGEAAKAAE@Z
_TEXT	SEGMENT
_ShopNumber$ = 8					; size = 2
_ItemCode$ = 12						; size = 2
_ItemLevel$ = 16					; size = 1
_Price$ = 20						; size = 4
_Divisor$ = 24						; size = 4
?GetSendPrice@ItemPrice@@QAE_NFGEAAKAAE@Z PROC		; ItemPrice::GetSendPrice, COMDAT
; _this$ = ecx

; 106  : {

  00000	55		 push	 ebp
  00001	8b ec		 mov	 ebp, esp

; 107  : 	for( int i = 0; i < this->m_PriceInfo.size(); i++ )

  00003	8b 51 08	 mov	 edx, DWORD PTR [ecx+8]
  00006	2b 51 04	 sub	 edx, DWORD PTR [ecx+4]
  00009	b8 ab aa aa 2a	 mov	 eax, 715827883		; 2aaaaaabH
  0000e	f7 ea		 imul	 edx
  00010	56		 push	 esi
  00011	57		 push	 edi
  00012	d1 fa		 sar	 edx, 1
  00014	8b fa		 mov	 edi, edx
  00016	c1 ef 1f	 shr	 edi, 31			; 0000001fH
  00019	33 f6		 xor	 esi, esi
  0001b	03 fa		 add	 edi, edx
  0001d	74 31		 je	 SHORT $LN6@GetSendPri
  0001f	8b 41 04	 mov	 eax, DWORD PTR [ecx+4]
$LL8@GetSendPri:

; 108  : 	{
; 109  : 		if( this->m_PriceInfo[i].m_ShopNumber != (short)-1 )

  00022	0f b7 50 0a	 movzx	 edx, WORD PTR [eax+10]
  00026	66 83 fa ff	 cmp	 dx, -1
  0002a	74 06		 je	 SHORT $LN4@GetSendPri

; 110  : 		{
; 111  : 			if( this->m_PriceInfo[i].m_ShopNumber != ShopNumber )

  0002c	66 3b 55 08	 cmp	 dx, WORD PTR _ShopNumber$[ebp]
  00030	75 16		 jne	 SHORT $LN7@GetSendPri
$LN4@GetSendPri:

; 112  : 			{
; 113  : 				continue;
; 114  : 			}
; 115  : 		}
; 116  : 		// ----
; 117  : 		if( this->m_PriceInfo[i].m_ItemCode != ItemCode )

  00032	66 8b 10	 mov	 dx, WORD PTR [eax]
  00035	66 3b 55 0c	 cmp	 dx, WORD PTR _ItemCode$[ebp]
  00039	75 0d		 jne	 SHORT $LN7@GetSendPri

; 118  : 		{
; 119  : 			continue;
; 120  : 		}
; 121  : 		// ----
; 122  : 		if( this->m_PriceInfo[i].m_ItemLevel != (BYTE)-1 )

  0003b	8a 50 02	 mov	 dl, BYTE PTR [eax+2]
  0003e	80 fa ff	 cmp	 dl, 255			; 000000ffH
  00041	74 15		 je	 SHORT $LN31@GetSendPri

; 123  : 		{
; 124  : 			if( this->m_PriceInfo[i].m_ItemLevel != ItemLevel )

  00043	3a 55 10	 cmp	 dl, BYTE PTR _ItemLevel$[ebp]
  00046	74 10		 je	 SHORT $LN31@GetSendPri
$LN7@GetSendPri:

; 107  : 	for( int i = 0; i < this->m_PriceInfo.size(); i++ )

  00048	46		 inc	 esi
  00049	83 c0 0c	 add	 eax, 12			; 0000000cH
  0004c	3b f7		 cmp	 esi, edi
  0004e	72 d2		 jb	 SHORT $LL8@GetSendPri
$LN6@GetSendPri:
  00050	5f		 pop	 edi

; 133  : 	}
; 134  : 	// ----
; 135  : 	return false;

  00051	32 c0		 xor	 al, al
  00053	5e		 pop	 esi

; 136  : }

  00054	5d		 pop	 ebp
  00055	c2 14 00	 ret	 20			; 00000014H
$LN31@GetSendPri:

; 125  : 			{
; 126  : 				continue;
; 127  : 			}
; 128  : 		}
; 129  : 		// ----
; 130  : 		Price = this->m_PriceInfo[i].m_ItemPrice;

  00058	8b 51 04	 mov	 edx, DWORD PTR [ecx+4]
  0005b	8d 04 76	 lea	 eax, DWORD PTR [esi+esi*2]
  0005e	8b 75 14	 mov	 esi, DWORD PTR _Price$[ebp]
  00061	03 c0		 add	 eax, eax
  00063	03 c0		 add	 eax, eax
  00065	8b 54 10 04	 mov	 edx, DWORD PTR [eax+edx+4]
  00069	89 16		 mov	 DWORD PTR [esi], edx

; 131  : 		Divisor = this->m_PriceInfo[i].m_Divisor;

  0006b	8b 49 04	 mov	 ecx, DWORD PTR [ecx+4]
  0006e	8a 54 08 08	 mov	 dl, BYTE PTR [eax+ecx+8]
  00072	8b 45 18	 mov	 eax, DWORD PTR _Divisor$[ebp]
  00075	5f		 pop	 edi
  00076	88 10		 mov	 BYTE PTR [eax], dl

; 132  : 		return true;

  00078	b0 01		 mov	 al, 1
  0007a	5e		 pop	 esi

; 136  : }

  0007b	5d		 pop	 ebp
  0007c	c2 14 00	 ret	 20			; 00000014H
?GetSendPrice@ItemPrice@@QAE_NFGEAAKAAE@Z ENDP		; ItemPrice::GetSendPrice
_TEXT	ENDS
PUBLIC	_ShopNumber$GSCopy$
PUBLIC	_UserIndex$GSCopy$
PUBLIC	_this$GSCopy$
PUBLIC	__$ArrayPad$
PUBLIC	?SendPrice@ItemPrice@@QAEXHH@Z			; ItemPrice::SendPrice
EXTRN	?DataSend@@YAHHPAEK@Z:PROC			; DataSend
EXTRN	?gObj@@3PAUOBJECTSTRUCT@@A:DWORD		; gObj
EXTRN	?IsItem@CItem@@QAEHXZ:PROC			; CItem::IsItem
EXTRN	?Get@ShopManager@@QAEPAVCShop@@H@Z:PROC		; ShopManager::Get
EXTRN	?g_ShopManager@@3VShopManager@@A:BYTE		; g_ShopManager
EXTRN	?gObjIsConnected@@YAHH@Z:PROC			; gObjIsConnected
EXTRN	_memset:PROC
; Function compile flags: /Ogtp
;	COMDAT ?SendPrice@ItemPrice@@QAEXHH@Z
_TEXT	SEGMENT
_ShopNumber$GSCopy$ = -2904				; size = 4
_UserIndex$GSCopy$ = -2900				; size = 4
_this$GSCopy$ = -2896					; size = 4
tv357 = -2892						; size = 4
tv148 = -2892						; size = 4
_Offset$ = -2888					; size = 4
_lpAnswerCount$ = -2884					; size = 7
_lpAnswerInfo$180782 = -2876				; size = 8
_lpAnswerInfo$180760 = -2876				; size = 8
_Buffer$ = -2868					; size = 2863
__$ArrayPad$ = -4					; size = 4
_UserIndex$ = 8						; size = 4
_ShopNumber$ = 12					; size = 4
?SendPrice@ItemPrice@@QAEXHH@Z PROC			; ItemPrice::SendPrice, COMDAT
; _this$ = ecx

; 140  : {

  00000	55		 push	 ebp
  00001	8b ec		 mov	 ebp, esp
  00003	81 ec 58 0b 00
	00		 sub	 esp, 2904		; 00000b58H
  00009	a1 00 00 00 00	 mov	 eax, DWORD PTR ___security_cookie
  0000e	33 c5		 xor	 eax, ebp
  00010	89 45 fc	 mov	 DWORD PTR __$ArrayPad$[ebp], eax
  00013	8b 45 08	 mov	 eax, DWORD PTR _UserIndex$[ebp]
  00016	56		 push	 esi
  00017	8b 75 0c	 mov	 esi, DWORD PTR _ShopNumber$[ebp]

; 141  : 	if( !gObjIsConnected(UserIndex) || ShopNumber < 0 )

  0001a	50		 push	 eax
  0001b	89 8d b0 f4 ff
	ff		 mov	 DWORD PTR _this$GSCopy$[ebp], ecx

; 218  : 		{
; 219  : 			continue;
; 220  : 		}
; 221  : 		// ----
; 222  : 		bool AlreadyInUse = false;
; 223  : 		// ----
; 224  : 		for( int ItemCount = 0; ItemCount < lpAnswerCount.Count; ItemCount++ )

  00021	89 85 ac f4 ff
	ff		 mov	 DWORD PTR _UserIndex$GSCopy$[ebp], eax
  00027	89 b5 a8 f4 ff
	ff		 mov	 DWORD PTR _ShopNumber$GSCopy$[ebp], esi
  0002d	e8 00 00 00 00	 call	 ?gObjIsConnected@@YAHH@Z ; gObjIsConnected
  00032	83 c4 04	 add	 esp, 4
  00035	85 c0		 test	 eax, eax
  00037	0f 84 c7 02 00
	00		 je	 $LN22@SendPrice

; 141  : 	if( !gObjIsConnected(UserIndex) || ShopNumber < 0 )

  0003d	85 f6		 test	 esi, esi
  0003f	0f 88 bf 02 00
	00		 js	 $LN22@SendPrice

; 142  : 	{
; 143  : 		return;
; 144  : 	}
; 145  : 	// ----
; 146  : 	const int Size = sizeof(ITEMPRICE_ANS_COUNT) 
; 147  : 		+ (sizeof(ITEMPRICE_ANS_INFO) * MAX_ITEM_IN_SHOP) 
; 148  : 		+ (sizeof(ITEMPRICE_ANS_INFO) * INVENTORY_SIZE);
; 149  : 	BYTE Buffer[Size] = { 0 };

  00045	53		 push	 ebx
  00046	68 2e 0b 00 00	 push	 2862			; 00000b2eH
  0004b	8d 85 cd f4 ff
	ff		 lea	 eax, DWORD PTR _Buffer$[ebp+1]
  00051	6a 00		 push	 0
  00053	50		 push	 eax
  00054	c6 85 cc f4 ff
	ff 00		 mov	 BYTE PTR _Buffer$[ebp], 0
  0005b	e8 00 00 00 00	 call	 _memset

; 150  : 	ITEMPRICE_ANS_COUNT lpAnswerCount = { 0 };

  00060	33 c0		 xor	 eax, eax
  00062	83 c4 0c	 add	 esp, 12			; 0000000cH
  00065	66 8b d8	 mov	 bx, ax
  00068	89 85 bd f4 ff
	ff		 mov	 DWORD PTR _lpAnswerCount$[ebp+1], eax

; 151  : 	lpAnswerCount.h.c			= 0xC2;
; 152  : 	lpAnswerCount.h.headcode	= 0xFD;
; 153  : 	lpAnswerCount.h.subcode		= 0x00; 
; 154  : 	int Offset = sizeof(ITEMPRICE_ANS_COUNT);
; 155  : 	// ----
; 156  : 	CShop* lpShop = g_ShopManager.Get(ShopNumber);

  0006e	56		 push	 esi
  0006f	b9 00 00 00 00	 mov	 ecx, OFFSET ?g_ShopManager@@3VShopManager@@A ; g_ShopManager
  00074	66 89 9d c1 f4
	ff ff		 mov	 WORD PTR _lpAnswerCount$[ebp+5], bx
  0007b	c6 85 bc f4 ff
	ff c2		 mov	 BYTE PTR _lpAnswerCount$[ebp], 194 ; 000000c2H
  00082	66 c7 85 bf f4
	ff ff fd 00	 mov	 WORD PTR _lpAnswerCount$[ebp+3], 253 ; 000000fdH
  0008b	c7 85 b8 f4 ff
	ff 07 00 00 00	 mov	 DWORD PTR _Offset$[ebp], 7
  00095	e8 00 00 00 00	 call	 ?Get@ShopManager@@QAEPAVCShop@@H@Z ; ShopManager::Get

; 157  : 	if( !lpShop )

  0009a	85 c0		 test	 eax, eax
  0009c	0f 84 61 02 00
	00		 je	 $LN41@SendPrice

; 158  : 	{
; 159  : 		return;
; 160  : 	}
; 161  : 	// ----
; 162  : 	for( int i = 0; i < MAX_ITEM_IN_SHOP; i++ )

  000a2	57		 push	 edi
  000a3	8d bd d3 f4 ff
	ff		 lea	 edi, DWORD PTR _Buffer$[ebp+7]
  000a9	8d b0 8e 00 00
	00		 lea	 esi, DWORD PTR [eax+142]
  000af	c7 85 b4 f4 ff
	ff 78 00 00 00	 mov	 DWORD PTR tv148[ebp], 120 ; 00000078H
  000b9	8d a4 24 00 00
	00 00		 npad	 7
$LL20@SendPrice:

; 163  : 	{
; 164  : 		if( !lpShop->m_item[i].IsItem() )

  000c0	8d 4e fa	 lea	 ecx, DWORD PTR [esi-6]
  000c3	e8 00 00 00 00	 call	 ?IsItem@CItem@@QAEHXZ	; CItem::IsItem
  000c8	85 c0		 test	 eax, eax
  000ca	0f 84 a2 00 00
	00		 je	 $LN19@SendPrice

; 165  : 		{
; 166  : 			continue;
; 167  : 		}
; 168  : 		// ----
; 169  : 		ITEMPRICE_ANS_INFO lpAnswerInfo = { 0 };
; 170  : 		lpAnswerInfo.ItemCode = lpShop->m_item[i].m_Type;

  000d0	66 8b 0e	 mov	 cx, WORD PTR [esi]

; 171  : 		lpAnswerInfo.ItemLevel = lpShop->m_item[i].m_Level;

  000d3	8a 56 02	 mov	 dl, BYTE PTR [esi+2]
  000d6	33 c0		 xor	 eax, eax
  000d8	89 85 c6 f4 ff
	ff		 mov	 DWORD PTR _lpAnswerInfo$180760[ebp+2], eax
  000de	66 89 85 ca f4
	ff ff		 mov	 WORD PTR _lpAnswerInfo$180760[ebp+6], ax
  000e5	66 89 8d c4 f4
	ff ff		 mov	 WORD PTR _lpAnswerInfo$180760[ebp], cx

; 172  : 		// ----
; 173  : 		if( !this->GetSendPrice(ShopNumber, lpAnswerInfo.ItemCode, lpAnswerInfo.ItemLevel, 
; 174  : 			lpAnswerInfo.ItemPrice, lpAnswerInfo.Divisor) )

  000ec	8d 85 cb f4 ff
	ff		 lea	 eax, DWORD PTR _lpAnswerInfo$180760[ebp+7]
  000f2	50		 push	 eax
  000f3	88 95 c6 f4 ff
	ff		 mov	 BYTE PTR _lpAnswerInfo$180760[ebp+2], dl
  000f9	8b 95 c6 f4 ff
	ff		 mov	 edx, DWORD PTR _lpAnswerInfo$180760[ebp+2]
  000ff	8b 85 c4 f4 ff
	ff		 mov	 eax, DWORD PTR _lpAnswerInfo$180760[ebp]
  00105	8d 8d c7 f4 ff
	ff		 lea	 ecx, DWORD PTR _lpAnswerInfo$180760[ebp+3]
  0010b	51		 push	 ecx
  0010c	8b 8d a8 f4 ff
	ff		 mov	 ecx, DWORD PTR _ShopNumber$GSCopy$[ebp]
  00112	52		 push	 edx
  00113	50		 push	 eax
  00114	51		 push	 ecx
  00115	8b 8d b0 f4 ff
	ff		 mov	 ecx, DWORD PTR _this$GSCopy$[ebp]
  0011b	e8 00 00 00 00	 call	 ?GetSendPrice@ItemPrice@@QAE_NFGEAAKAAE@Z ; ItemPrice::GetSendPrice
  00120	84 c0		 test	 al, al
  00122	74 4e		 je	 SHORT $LN19@SendPrice

; 175  : 		{
; 176  : 			continue;
; 177  : 		}
; 178  : 		// ----
; 179  : 		bool AlreadyInUse = false;
; 180  : 		// ----
; 181  : 		for( int ItemCount = 0; ItemCount < lpAnswerCount.Count; ItemCount++ )

  00124	0f bf cb	 movsx	 ecx, bx
  00127	33 c0		 xor	 eax, eax
  00129	85 c9		 test	 ecx, ecx
  0012b	7e 28		 jle	 SHORT $LN36@SendPrice
  0012d	8d 49 00	 npad	 3
$LL15@SendPrice:

; 182  : 		{
; 183  : 			int PosOffset = sizeof(ITEMPRICE_ANS_COUNT) + ItemCount * sizeof(ITEMPRICE_ANS_INFO);
; 184  : 			ITEMPRICE_ANS_INFO* lpItem = (ITEMPRICE_ANS_INFO*)&Buffer[PosOffset];
; 185  : 			// ----
; 186  : 			if(		lpItem->ItemCode == lpAnswerInfo.ItemCode 
; 187  : 				&&	lpItem->ItemLevel == lpAnswerInfo.ItemLevel )

  00130	66 8b 94 c5 d3
	f4 ff ff	 mov	 dx, WORD PTR _Buffer$[ebp+eax*8+7]
  00138	66 3b 95 c4 f4
	ff ff		 cmp	 dx, WORD PTR _lpAnswerInfo$180760[ebp]
  0013f	75 0f		 jne	 SHORT $LN14@SendPrice
  00141	8a 95 c6 f4 ff
	ff		 mov	 dl, BYTE PTR _lpAnswerInfo$180760[ebp+2]
  00147	38 94 c5 d5 f4
	ff ff		 cmp	 BYTE PTR _Buffer$[ebp+eax*8+9], dl
  0014e	74 22		 je	 SHORT $LN19@SendPrice
$LN14@SendPrice:

; 175  : 		{
; 176  : 			continue;
; 177  : 		}
; 178  : 		// ----
; 179  : 		bool AlreadyInUse = false;
; 180  : 		// ----
; 181  : 		for( int ItemCount = 0; ItemCount < lpAnswerCount.Count; ItemCount++ )

  00150	40		 inc	 eax
  00151	3b c1		 cmp	 eax, ecx
  00153	7c db		 jl	 SHORT $LL15@SendPrice
$LN36@SendPrice:

; 188  : 			{
; 189  : 				AlreadyInUse = true;
; 190  : 				break;
; 191  : 			}
; 192  : 		}
; 193  : 		// ----
; 194  : 		if( AlreadyInUse )
; 195  : 		{
; 196  : 			continue;
; 197  : 		}
; 198  : 		// ----
; 199  : 		memcpy(&Buffer[Offset], (LPBYTE)&lpAnswerInfo, sizeof(ITEMPRICE_ANS_INFO));

  00155	8b 85 c4 f4 ff
	ff		 mov	 eax, DWORD PTR _lpAnswerInfo$180760[ebp]
  0015b	8b 8d c8 f4 ff
	ff		 mov	 ecx, DWORD PTR _lpAnswerInfo$180760[ebp+4]

; 200  : 		Offset += sizeof(ITEMPRICE_ANS_INFO);

  00161	83 85 b8 f4 ff
	ff 08		 add	 DWORD PTR _Offset$[ebp], 8
  00168	89 07		 mov	 DWORD PTR [edi], eax
  0016a	89 4f 04	 mov	 DWORD PTR [edi+4], ecx
  0016d	83 c7 08	 add	 edi, 8

; 201  : 		lpAnswerCount.Count++;

  00170	66 43		 inc	 bx
$LN19@SendPrice:

; 158  : 	{
; 159  : 		return;
; 160  : 	}
; 161  : 	// ----
; 162  : 	for( int i = 0; i < MAX_ITEM_IN_SHOP; i++ )

  00172	81 c6 d4 00 00
	00		 add	 esi, 212		; 000000d4H
  00178	ff 8d b4 f4 ff
	ff		 dec	 DWORD PTR tv148[ebp]
  0017e	0f 85 3c ff ff
	ff		 jne	 $LL20@SendPrice
  00184	8b 95 ac f4 ff
	ff		 mov	 edx, DWORD PTR _UserIndex$GSCopy$[ebp]

; 202  : 	}
; 203  : 	// ----
; 204  : 	for( int n = 0; n < INVENTORY_SIZE; n++ )

  0018a	8b bd b8 f4 ff
	ff		 mov	 edi, DWORD PTR _Offset$[ebp]
  00190	69 d2 40 27 00
	00		 imul	 edx, 10048		; 00002740H

; 205  : 	{
; 206  : 		if( !gObj[UserIndex].pInventory[n].IsItem() )

  00196	81 c2 c0 11 00
	00		 add	 edx, 4544		; 000011c0H
  0019c	66 89 9d c1 f4
	ff ff		 mov	 WORD PTR _lpAnswerCount$[ebp+5], bx
  001a3	89 95 b4 f4 ff
	ff		 mov	 DWORD PTR tv357[ebp], edx
  001a9	8d bc 3d cc f4
	ff ff		 lea	 edi, DWORD PTR _Buffer$[ebp+edi]
  001b0	33 f6		 xor	 esi, esi
$LL40@SendPrice:
  001b2	a1 00 00 00 00	 mov	 eax, DWORD PTR ?gObj@@3PAUOBJECTSTRUCT@@A ; gObj
  001b7	8b 8d b4 f4 ff
	ff		 mov	 ecx, DWORD PTR tv357[ebp]
  001bd	8b 0c 01	 mov	 ecx, DWORD PTR [ecx+eax]
  001c0	03 ce		 add	 ecx, esi
  001c2	e8 00 00 00 00	 call	 ?IsItem@CItem@@QAEHXZ	; CItem::IsItem
  001c7	85 c0		 test	 eax, eax
  001c9	0f 84 cd 00 00
	00		 je	 $LN9@SendPrice

; 207  : 		{
; 208  : 			continue;
; 209  : 		}
; 210  : 		// ----
; 211  : 		ITEMPRICE_ANS_INFO lpAnswerInfo = { 0 };
; 212  : 		lpAnswerInfo.ItemCode = gObj[UserIndex].pInventory[n].m_Type;

  001cf	8b 15 00 00 00
	00		 mov	 edx, DWORD PTR ?gObj@@3PAUOBJECTSTRUCT@@A ; gObj
  001d5	33 c0		 xor	 eax, eax
  001d7	89 85 c6 f4 ff
	ff		 mov	 DWORD PTR _lpAnswerInfo$180782[ebp+2], eax
  001dd	66 89 85 ca f4
	ff ff		 mov	 WORD PTR _lpAnswerInfo$180782[ebp+6], ax
  001e4	8b 85 b4 f4 ff
	ff		 mov	 eax, DWORD PTR tv357[ebp]
  001ea	8b 04 10	 mov	 eax, DWORD PTR [eax+edx]
  001ed	66 8b 54 30 06	 mov	 dx, WORD PTR [eax+esi+6]

; 213  : 		lpAnswerInfo.ItemLevel = gObj[UserIndex].pInventory[n].m_Level;

  001f2	8a 44 30 08	 mov	 al, BYTE PTR [eax+esi+8]
  001f6	66 89 95 c4 f4
	ff ff		 mov	 WORD PTR _lpAnswerInfo$180782[ebp], dx

; 214  : 		// ----
; 215  : 		if( !this->GetSendPrice(ShopNumber, 
; 216  : 			lpAnswerInfo.ItemCode, lpAnswerInfo.ItemLevel, 
; 217  : 			lpAnswerInfo.ItemPrice, lpAnswerInfo.Divisor) )

  001fd	8d 8d cb f4 ff
	ff		 lea	 ecx, DWORD PTR _lpAnswerInfo$180782[ebp+7]
  00203	51		 push	 ecx
  00204	88 85 c6 f4 ff
	ff		 mov	 BYTE PTR _lpAnswerInfo$180782[ebp+2], al
  0020a	8b 85 c6 f4 ff
	ff		 mov	 eax, DWORD PTR _lpAnswerInfo$180782[ebp+2]
  00210	8b 8d c4 f4 ff
	ff		 mov	 ecx, DWORD PTR _lpAnswerInfo$180782[ebp]
  00216	8d 95 c7 f4 ff
	ff		 lea	 edx, DWORD PTR _lpAnswerInfo$180782[ebp+3]
  0021c	52		 push	 edx
  0021d	8b 95 a8 f4 ff
	ff		 mov	 edx, DWORD PTR _ShopNumber$GSCopy$[ebp]
  00223	50		 push	 eax
  00224	51		 push	 ecx
  00225	8b 8d b0 f4 ff
	ff		 mov	 ecx, DWORD PTR _this$GSCopy$[ebp]
  0022b	52		 push	 edx
  0022c	e8 00 00 00 00	 call	 ?GetSendPrice@ItemPrice@@QAE_NFGEAAKAAE@Z ; ItemPrice::GetSendPrice
  00231	84 c0		 test	 al, al
  00233	74 67		 je	 SHORT $LN9@SendPrice

; 218  : 		{
; 219  : 			continue;
; 220  : 		}
; 221  : 		// ----
; 222  : 		bool AlreadyInUse = false;
; 223  : 		// ----
; 224  : 		for( int ItemCount = 0; ItemCount < lpAnswerCount.Count; ItemCount++ )

  00235	0f bf cb	 movsx	 ecx, bx
  00238	33 c0		 xor	 eax, eax
  0023a	85 c9		 test	 ecx, ecx
  0023c	7e 31		 jle	 SHORT $LN37@SendPrice
  0023e	8a 95 c6 f4 ff
	ff		 mov	 dl, BYTE PTR _lpAnswerInfo$180782[ebp+2]
  00244	66 8b 9d c4 f4
	ff ff		 mov	 bx, WORD PTR _lpAnswerInfo$180782[ebp]
  0024b	eb 03 8d 49 00	 npad	 5
$LL5@SendPrice:

; 225  : 		{
; 226  : 			int PosOffset = sizeof(ITEMPRICE_ANS_COUNT) + ItemCount * sizeof(ITEMPRICE_ANS_INFO);
; 227  : 			ITEMPRICE_ANS_INFO* lpItem = (ITEMPRICE_ANS_INFO*)&Buffer[PosOffset];
; 228  : 			// ----
; 229  : 			if(		lpItem->ItemCode == lpAnswerInfo.ItemCode 
; 230  : 				&&	lpItem->ItemLevel == lpAnswerInfo.ItemLevel )

  00250	66 39 9c c5 d3
	f4 ff ff	 cmp	 WORD PTR _Buffer$[ebp+eax*8+7], bx
  00258	75 09		 jne	 SHORT $LN4@SendPrice
  0025a	38 94 c5 d5 f4
	ff ff		 cmp	 BYTE PTR _Buffer$[ebp+eax*8+9], dl
  00261	74 32		 je	 SHORT $LN38@SendPrice
$LN4@SendPrice:

; 218  : 		{
; 219  : 			continue;
; 220  : 		}
; 221  : 		// ----
; 222  : 		bool AlreadyInUse = false;
; 223  : 		// ----
; 224  : 		for( int ItemCount = 0; ItemCount < lpAnswerCount.Count; ItemCount++ )

  00263	40		 inc	 eax
  00264	3b c1		 cmp	 eax, ecx
  00266	7c e8		 jl	 SHORT $LL5@SendPrice
  00268	66 8b 9d c1 f4
	ff ff		 mov	 bx, WORD PTR _lpAnswerCount$[ebp+5]
$LN37@SendPrice:

; 231  : 			{
; 232  : 				AlreadyInUse = true;
; 233  : 				break;
; 234  : 			}
; 235  : 		}
; 236  : 		// ----
; 237  : 		if( AlreadyInUse )
; 238  : 		{
; 239  : 			continue;
; 240  : 		}
; 241  : 		// ----
; 242  : 		memcpy(&Buffer[Offset], (LPBYTE)&lpAnswerInfo, sizeof(ITEMPRICE_ANS_INFO));

  0026f	8b 85 c4 f4 ff
	ff		 mov	 eax, DWORD PTR _lpAnswerInfo$180782[ebp]
  00275	8b 8d c8 f4 ff
	ff		 mov	 ecx, DWORD PTR _lpAnswerInfo$180782[ebp+4]

; 243  : 		Offset += sizeof(ITEMPRICE_ANS_INFO);

  0027b	83 85 b8 f4 ff
	ff 08		 add	 DWORD PTR _Offset$[ebp], 8
  00282	89 07		 mov	 DWORD PTR [edi], eax
  00284	89 4f 04	 mov	 DWORD PTR [edi+4], ecx
  00287	83 c7 08	 add	 edi, 8

; 244  : 		lpAnswerCount.Count++;

  0028a	66 43		 inc	 bx
  0028c	66 89 9d c1 f4
	ff ff		 mov	 WORD PTR _lpAnswerCount$[ebp+5], bx
  00293	eb 07		 jmp	 SHORT $LN9@SendPrice
$LN38@SendPrice:
  00295	66 8b 9d c1 f4
	ff ff		 mov	 bx, WORD PTR _lpAnswerCount$[ebp+5]
$LN9@SendPrice:

; 202  : 	}
; 203  : 	// ----
; 204  : 	for( int n = 0; n < INVENTORY_SIZE; n++ )

  0029c	81 c6 d4 00 00
	00		 add	 esi, 212		; 000000d4H
  002a2	81 fe 44 c4 00
	00		 cmp	 esi, 50244		; 0000c444H
  002a8	0f 8c 04 ff ff
	ff		 jl	 $LL40@SendPrice

; 245  : 	}
; 246  : 	// ----
; 247  : 	lpAnswerCount.h.sizeH = SET_NUMBERH(Offset);

  002ae	8b 85 b8 f4 ff
	ff		 mov	 eax, DWORD PTR _Offset$[ebp]
  002b4	8b d0		 mov	 edx, eax
  002b6	c1 ea 08	 shr	 edx, 8
  002b9	88 95 bd f4 ff
	ff		 mov	 BYTE PTR _lpAnswerCount$[ebp+1], dl

; 248  : 	lpAnswerCount.h.sizeL = SET_NUMBERL(Offset);
; 249  : 	memcpy(Buffer, (LPBYTE)&lpAnswerCount, sizeof(ITEMPRICE_ANS_COUNT));

  002bf	66 8b 95 c0 f4
	ff ff		 mov	 dx, WORD PTR _lpAnswerCount$[ebp+4]
  002c6	88 85 be f4 ff
	ff		 mov	 BYTE PTR _lpAnswerCount$[ebp+2], al
  002cc	8b 8d bc f4 ff
	ff		 mov	 ecx, DWORD PTR _lpAnswerCount$[ebp]

; 250  : 	DataSend(UserIndex, Buffer, Offset);

  002d2	50		 push	 eax
  002d3	8b 85 ac f4 ff
	ff		 mov	 eax, DWORD PTR _UserIndex$GSCopy$[ebp]
  002d9	66 89 95 d0 f4
	ff ff		 mov	 WORD PTR _Buffer$[ebp+4], dx
  002e0	8d 95 cc f4 ff
	ff		 lea	 edx, DWORD PTR _Buffer$[ebp]
  002e6	89 8d cc f4 ff
	ff		 mov	 DWORD PTR _Buffer$[ebp], ecx
  002ec	8a 8d c2 f4 ff
	ff		 mov	 cl, BYTE PTR _lpAnswerCount$[ebp+6]
  002f2	52		 push	 edx
  002f3	50		 push	 eax
  002f4	88 8d d2 f4 ff
	ff		 mov	 BYTE PTR _Buffer$[ebp+6], cl
  002fa	e8 00 00 00 00	 call	 ?DataSend@@YAHHPAEK@Z	; DataSend
  002ff	83 c4 0c	 add	 esp, 12			; 0000000cH
  00302	5f		 pop	 edi
$LN41@SendPrice:
  00303	5b		 pop	 ebx
$LN22@SendPrice:

; 251  : }

  00304	8b 4d fc	 mov	 ecx, DWORD PTR __$ArrayPad$[ebp]
  00307	33 cd		 xor	 ecx, ebp
  00309	5e		 pop	 esi
  0030a	e8 00 00 00 00	 call	 @__security_check_cookie@4
  0030f	8b e5		 mov	 esp, ebp
  00311	5d		 pop	 ebp
  00312	c2 08 00	 ret	 8
?SendPrice@ItemPrice@@QAEXHH@Z ENDP			; ItemPrice::SendPrice
_TEXT	ENDS
PUBLIC	??0?$_Vector_val@UItemPriceInfo@@V?$allocator@UItemPriceInfo@@@std@@@std@@QAE@V?$allocator@UItemPriceInfo@@@1@@Z ; std::_Vector_val<ItemPriceInfo,std::allocator<ItemPriceInfo> >::_Vector_val<ItemPriceInfo,std::allocator<ItemPriceInfo> >
; Function compile flags: /Ogtp
; File c:\program files (x86)\microsoft visual studio 10.0\vc\include\vector
;	COMDAT ??0?$_Vector_val@UItemPriceInfo@@V?$allocator@UItemPriceInfo@@@std@@@std@@QAE@V?$allocator@UItemPriceInfo@@@1@@Z
_TEXT	SEGMENT
__Al$ = 8						; size = 1
??0?$_Vector_val@UItemPriceInfo@@V?$allocator@UItemPriceInfo@@@std@@@std@@QAE@V?$allocator@UItemPriceInfo@@@1@@Z PROC ; std::_Vector_val<ItemPriceInfo,std::allocator<ItemPriceInfo> >::_Vector_val<ItemPriceInfo,std::allocator<ItemPriceInfo> >, COMDAT
; _this$ = ecx

; 426  : 		{	// construct allocator from _Al

  00000	8b c1		 mov	 eax, ecx

; 427  : 		_Myfirst = 0;

  00002	33 c9		 xor	 ecx, ecx
  00004	89 08		 mov	 DWORD PTR [eax], ecx

; 428  : 		_Mylast = 0;

  00006	89 48 04	 mov	 DWORD PTR [eax+4], ecx

; 429  : 		_Myend = 0;

  00009	89 48 08	 mov	 DWORD PTR [eax+8], ecx

; 430  : 		}

  0000c	c2 04 00	 ret	 4
??0?$_Vector_val@UItemPriceInfo@@V?$allocator@UItemPriceInfo@@@std@@@std@@QAE@V?$allocator@UItemPriceInfo@@@1@@Z ENDP ; std::_Vector_val<ItemPriceInfo,std::allocator<ItemPriceInfo> >::_Vector_val<ItemPriceInfo,std::allocator<ItemPriceInfo> >
_TEXT	ENDS
PUBLIC	?max_size@?$vector@UItemPriceInfo@@V?$allocator@UItemPriceInfo@@@std@@@std@@QBEIXZ ; std::vector<ItemPriceInfo,std::allocator<ItemPriceInfo> >::max_size
; Function compile flags: /Ogtp
;	COMDAT ?max_size@?$vector@UItemPriceInfo@@V?$allocator@UItemPriceInfo@@@std@@@std@@QBEIXZ
_TEXT	SEGMENT
?max_size@?$vector@UItemPriceInfo@@V?$allocator@UItemPriceInfo@@@std@@@std@@QBEIXZ PROC ; std::vector<ItemPriceInfo,std::allocator<ItemPriceInfo> >::max_size, COMDAT
; _this$ = ecx

; 884  : 		return (this->_Alval.max_size());

  00000	b8 55 55 55 15	 mov	 eax, 357913941		; 15555555H

; 885  : 		}

  00005	c3		 ret	 0
?max_size@?$vector@UItemPriceInfo@@V?$allocator@UItemPriceInfo@@@std@@@std@@QBEIXZ ENDP ; std::vector<ItemPriceInfo,std::allocator<ItemPriceInfo> >::max_size
_TEXT	ENDS
PUBLIC	?_Grow_to@?$vector@UItemPriceInfo@@V?$allocator@UItemPriceInfo@@@std@@@std@@IBEII@Z ; std::vector<ItemPriceInfo,std::allocator<ItemPriceInfo> >::_Grow_to
; Function compile flags: /Ogtp
;	COMDAT ?_Grow_to@?$vector@UItemPriceInfo@@V?$allocator@UItemPriceInfo@@@std@@@std@@IBEII@Z
_TEXT	SEGMENT
__Count$ = 8						; size = 4
?_Grow_to@?$vector@UItemPriceInfo@@V?$allocator@UItemPriceInfo@@@std@@@std@@IBEII@Z PROC ; std::vector<ItemPriceInfo,std::allocator<ItemPriceInfo> >::_Grow_to, COMDAT
; _this$ = ecx

; 1274 : 		{	// grow by 50% or at least to _Count

  00000	55		 push	 ebp
  00001	8b ec		 mov	 ebp, esp

; 1275 : 		size_type _Capacity = capacity();

  00003	8b 51 08	 mov	 edx, DWORD PTR [ecx+8]
  00006	2b 11		 sub	 edx, DWORD PTR [ecx]
  00008	b8 ab aa aa 2a	 mov	 eax, 715827883		; 2aaaaaabH
  0000d	f7 ea		 imul	 edx
  0000f	d1 fa		 sar	 edx, 1
  00011	8b c2		 mov	 eax, edx
  00013	c1 e8 1f	 shr	 eax, 31			; 0000001fH
  00016	03 c2		 add	 eax, edx

; 1276 : 
; 1277 : 		_Capacity = max_size() - _Capacity / 2 < _Capacity
; 1278 : 			? 0 : _Capacity + _Capacity / 2;	// try to grow by 50%

  00018	8b c8		 mov	 ecx, eax
  0001a	d1 e9		 shr	 ecx, 1
  0001c	ba 55 55 55 15	 mov	 edx, 357913941		; 15555555H
  00021	2b d1		 sub	 edx, ecx
  00023	3b d0		 cmp	 edx, eax
  00025	73 04		 jae	 SHORT $LN4@Grow_to
  00027	33 c0		 xor	 eax, eax
  00029	eb 02		 jmp	 SHORT $LN5@Grow_to
$LN4@Grow_to:
  0002b	03 c1		 add	 eax, ecx
$LN5@Grow_to:

; 1279 : 		if (_Capacity < _Count)

  0002d	8b 4d 08	 mov	 ecx, DWORD PTR __Count$[ebp]
  00030	3b c1		 cmp	 eax, ecx
  00032	73 02		 jae	 SHORT $LN1@Grow_to

; 1280 : 			_Capacity = _Count;
; 1281 : 		return (_Capacity);

  00034	8b c1		 mov	 eax, ecx
$LN1@Grow_to:

; 1282 : 		}

  00036	5d		 pop	 ebp
  00037	c2 04 00	 ret	 4
?_Grow_to@?$vector@UItemPriceInfo@@V?$allocator@UItemPriceInfo@@@std@@@std@@IBEII@Z ENDP ; std::vector<ItemPriceInfo,std::allocator<ItemPriceInfo> >::_Grow_to
_TEXT	ENDS
PUBLIC	??D?$_Vector_iterator@V?$_Vector_val@UItemPriceInfo@@V?$allocator@UItemPriceInfo@@@std@@@std@@@std@@QBEAAUItemPriceInfo@@XZ ; std::_Vector_iterator<std::_Vector_val<ItemPriceInfo,std::allocator<ItemPriceInfo> > >::operator*
; Function compile flags: /Ogtp
;	COMDAT ??D?$_Vector_iterator@V?$_Vector_val@UItemPriceInfo@@V?$allocator@UItemPriceInfo@@@std@@@std@@@std@@QBEAAUItemPriceInfo@@XZ
_TEXT	SEGMENT
??D?$_Vector_iterator@V?$_Vector_val@UItemPriceInfo@@V?$allocator@UItemPriceInfo@@@std@@@std@@@std@@QBEAAUItemPriceInfo@@XZ PROC ; std::_Vector_iterator<std::_Vector_val<ItemPriceInfo,std::allocator<ItemPriceInfo> > >::operator*, COMDAT
; _this$ = ecx

; 322  : 		return ((reference)**(_Mybase *)this);

  00000	8b 01		 mov	 eax, DWORD PTR [ecx]

; 323  : 		}

  00002	c3		 ret	 0
??D?$_Vector_iterator@V?$_Vector_val@UItemPriceInfo@@V?$allocator@UItemPriceInfo@@@std@@@std@@@std@@QBEAAUItemPriceInfo@@XZ ENDP ; std::_Vector_iterator<std::_Vector_val<ItemPriceInfo,std::allocator<ItemPriceInfo> > >::operator*
_TEXT	ENDS
PUBLIC	??E?$_Vector_iterator@V?$_Vector_val@UItemPriceInfo@@V?$allocator@UItemPriceInfo@@@std@@@std@@@std@@QAEAAV01@XZ ; std::_Vector_iterator<std::_Vector_val<ItemPriceInfo,std::allocator<ItemPriceInfo> > >::operator++
; Function compile flags: /Ogtp
;	COMDAT ??E?$_Vector_iterator@V?$_Vector_val@UItemPriceInfo@@V?$allocator@UItemPriceInfo@@@std@@@std@@@std@@QAEAAV01@XZ
_TEXT	SEGMENT
??E?$_Vector_iterator@V?$_Vector_val@UItemPriceInfo@@V?$allocator@UItemPriceInfo@@@std@@@std@@@std@@QAEAAV01@XZ PROC ; std::_Vector_iterator<std::_Vector_val<ItemPriceInfo,std::allocator<ItemPriceInfo> > >::operator++, COMDAT
; _this$ = ecx

; 331  : 		{	// preincrement

  00000	8b c1		 mov	 eax, ecx

; 332  : 		++*(_Mybase *)this;

  00002	83 00 0c	 add	 DWORD PTR [eax], 12	; 0000000cH

; 333  : 		return (*this);
; 334  : 		}

  00005	c3		 ret	 0
??E?$_Vector_iterator@V?$_Vector_val@UItemPriceInfo@@V?$allocator@UItemPriceInfo@@@std@@@std@@@std@@QAEAAV01@XZ ENDP ; std::_Vector_iterator<std::_Vector_val<ItemPriceInfo,std::allocator<ItemPriceInfo> > >::operator++
_TEXT	ENDS
PUBLIC	??0?$_Vector_const_iterator@V?$_Vector_val@UItemPriceInfo@@V?$allocator@UItemPriceInfo@@@std@@@std@@@std@@QAE@PAUItemPriceInfo@@PBU_Container_base0@1@@Z ; std::_Vector_const_iterator<std::_Vector_val<ItemPriceInfo,std::allocator<ItemPriceInfo> > >::_Vector_const_iterator<std::_Vector_val<ItemPriceInfo,std::allocator<ItemPriceInfo> > >
; Function compile flags: /Ogtp
;	COMDAT ??0?$_Vector_const_iterator@V?$_Vector_val@UItemPriceInfo@@V?$allocator@UItemPriceInfo@@@std@@@std@@@std@@QAE@PAUItemPriceInfo@@PBU_Container_base0@1@@Z
_TEXT	SEGMENT
__Parg$ = 8						; size = 4
__Pvector$ = 12						; size = 4
??0?$_Vector_const_iterator@V?$_Vector_val@UItemPriceInfo@@V?$allocator@UItemPriceInfo@@@std@@@std@@@std@@QAE@PAUItemPriceInfo@@PBU_Container_base0@1@@Z PROC ; std::_Vector_const_iterator<std::_Vector_val<ItemPriceInfo,std::allocator<ItemPriceInfo> > >::_Vector_const_iterator<std::_Vector_val<ItemPriceInfo,std::allocator<ItemPriceInfo> > >, COMDAT
; _this$ = ecx

; 45   : 		{	// construct with pointer _Parg

  00000	55		 push	 ebp
  00001	8b ec		 mov	 ebp, esp
  00003	8b c1		 mov	 eax, ecx
  00005	8b 4d 08	 mov	 ecx, DWORD PTR __Parg$[ebp]
  00008	89 08		 mov	 DWORD PTR [eax], ecx

; 46   : 		this->_Adopt(_Pvector);
; 47   : 		}

  0000a	5d		 pop	 ebp
  0000b	c2 08 00	 ret	 8
??0?$_Vector_const_iterator@V?$_Vector_val@UItemPriceInfo@@V?$allocator@UItemPriceInfo@@@std@@@std@@@std@@QAE@PAUItemPriceInfo@@PBU_Container_base0@1@@Z ENDP ; std::_Vector_const_iterator<std::_Vector_val<ItemPriceInfo,std::allocator<ItemPriceInfo> > >::_Vector_const_iterator<std::_Vector_val<ItemPriceInfo,std::allocator<ItemPriceInfo> > >
_TEXT	ENDS
PUBLIC	??8?$_Vector_const_iterator@V?$_Vector_val@UItemPriceInfo@@V?$allocator@UItemPriceInfo@@@std@@@std@@@std@@QBE_NABV01@@Z ; std::_Vector_const_iterator<std::_Vector_val<ItemPriceInfo,std::allocator<ItemPriceInfo> > >::operator==
; Function compile flags: /Ogtp
;	COMDAT ??8?$_Vector_const_iterator@V?$_Vector_val@UItemPriceInfo@@V?$allocator@UItemPriceInfo@@@std@@@std@@@std@@QBE_NABV01@@Z
_TEXT	SEGMENT
__Right$ = 8						; size = 4
??8?$_Vector_const_iterator@V?$_Vector_val@UItemPriceInfo@@V?$allocator@UItemPriceInfo@@@std@@@std@@@std@@QBE_NABV01@@Z PROC ; std::_Vector_const_iterator<std::_Vector_val<ItemPriceInfo,std::allocator<ItemPriceInfo> > >::operator==, COMDAT
; _this$ = ecx

; 201  : 		{	// test for iterator equality

  00000	55		 push	 ebp
  00001	8b ec		 mov	 ebp, esp

; 202  : 		_Compat(_Right);
; 203  : 		return (this->_Ptr == _Right._Ptr);

  00003	8b 01		 mov	 eax, DWORD PTR [ecx]
  00005	8b 55 08	 mov	 edx, DWORD PTR __Right$[ebp]
  00008	33 c9		 xor	 ecx, ecx
  0000a	3b 02		 cmp	 eax, DWORD PTR [edx]
  0000c	0f 94 c0	 sete	 al

; 204  : 		}

  0000f	5d		 pop	 ebp
  00010	c2 04 00	 ret	 4
??8?$_Vector_const_iterator@V?$_Vector_val@UItemPriceInfo@@V?$allocator@UItemPriceInfo@@@std@@@std@@@std@@QBE_NABV01@@Z ENDP ; std::_Vector_const_iterator<std::_Vector_val<ItemPriceInfo,std::allocator<ItemPriceInfo> > >::operator==
_TEXT	ENDS
PUBLIC	??$_Cons_val@V?$allocator@UItemPriceInfo@@@std@@UItemPriceInfo@@AAU3@@std@@YAXAAV?$allocator@UItemPriceInfo@@@0@PAUItemPriceInfo@@AAU2@@Z ; std::_Cons_val<std::allocator<ItemPriceInfo>,ItemPriceInfo,ItemPriceInfo &>
; Function compile flags: /Ogtp
; File c:\program files (x86)\microsoft visual studio 10.0\vc\include\xmemory
;	COMDAT ??$_Cons_val@V?$allocator@UItemPriceInfo@@@std@@UItemPriceInfo@@AAU3@@std@@YAXAAV?$allocator@UItemPriceInfo@@@0@PAUItemPriceInfo@@AAU2@@Z
_TEXT	SEGMENT
__Alval$ = 8						; size = 4
__Pdest$ = 12						; size = 4
__Src$ = 16						; size = 4
??$_Cons_val@V?$allocator@UItemPriceInfo@@@std@@UItemPriceInfo@@AAU3@@std@@YAXAAV?$allocator@UItemPriceInfo@@@0@PAUItemPriceInfo@@AAU2@@Z PROC ; std::_Cons_val<std::allocator<ItemPriceInfo>,ItemPriceInfo,ItemPriceInfo &>, COMDAT

; 279  : 	{	// construct using allocator

  00000	55		 push	 ebp
  00001	8b ec		 mov	 ebp, esp

; 280  : 	_Alval.construct(_Pdest, _STD forward<_Ty2>(_Src));

  00003	8b 45 0c	 mov	 eax, DWORD PTR __Pdest$[ebp]
  00006	85 c0		 test	 eax, eax
  00008	74 13		 je	 SHORT $LN7@Cons_val
  0000a	8b 4d 10	 mov	 ecx, DWORD PTR __Src$[ebp]
  0000d	8b 11		 mov	 edx, DWORD PTR [ecx]
  0000f	89 10		 mov	 DWORD PTR [eax], edx
  00011	8b 51 04	 mov	 edx, DWORD PTR [ecx+4]
  00014	89 50 04	 mov	 DWORD PTR [eax+4], edx
  00017	8b 49 08	 mov	 ecx, DWORD PTR [ecx+8]
  0001a	89 48 08	 mov	 DWORD PTR [eax+8], ecx
$LN7@Cons_val:

; 281  : 	}

  0001d	5d		 pop	 ebp
  0001e	c3		 ret	 0
??$_Cons_val@V?$allocator@UItemPriceInfo@@@std@@UItemPriceInfo@@AAU3@@std@@YAXAAV?$allocator@UItemPriceInfo@@@0@PAUItemPriceInfo@@AAU2@@Z ENDP ; std::_Cons_val<std::allocator<ItemPriceInfo>,ItemPriceInfo,ItemPriceInfo &>
_TEXT	ENDS
PUBLIC	??$swap@PAUItemPriceInfo@@@std@@YAXAAPAUItemPriceInfo@@0@Z ; std::swap<ItemPriceInfo *>
; Function compile flags: /Ogtp
; File c:\program files (x86)\microsoft visual studio 10.0\vc\include\utility
;	COMDAT ??$swap@PAUItemPriceInfo@@@std@@YAXAAPAUItemPriceInfo@@0@Z
_TEXT	SEGMENT
__Left$ = 8						; size = 4
__Right$ = 12						; size = 4
??$swap@PAUItemPriceInfo@@@std@@YAXAAPAUItemPriceInfo@@0@Z PROC ; std::swap<ItemPriceInfo *>, COMDAT

; 101  : 	{	// exchange values stored at _Left and _Right

  00000	55		 push	 ebp
  00001	8b ec		 mov	 ebp, esp

; 102  : 	_Ty _Tmp = _Move(_Left);
; 103  : 	_Left = _Move(_Right);

  00003	8b 55 0c	 mov	 edx, DWORD PTR __Right$[ebp]
  00006	8b 45 08	 mov	 eax, DWORD PTR __Left$[ebp]
  00009	8b 08		 mov	 ecx, DWORD PTR [eax]
  0000b	56		 push	 esi
  0000c	8b 32		 mov	 esi, DWORD PTR [edx]
  0000e	89 30		 mov	 DWORD PTR [eax], esi

; 104  : 	_Right = _Move(_Tmp);

  00010	89 0a		 mov	 DWORD PTR [edx], ecx
  00012	5e		 pop	 esi

; 105  : 	}

  00013	5d		 pop	 ebp
  00014	c3		 ret	 0
??$swap@PAUItemPriceInfo@@@std@@YAXAAPAUItemPriceInfo@@0@Z ENDP ; std::swap<ItemPriceInfo *>
_TEXT	ENDS
PUBLIC	??$_Cons_val@V?$allocator@UItemPriceInfo@@@std@@UItemPriceInfo@@U3@@std@@YAXAAV?$allocator@UItemPriceInfo@@@0@PAUItemPriceInfo@@$$QAU2@@Z ; std::_Cons_val<std::allocator<ItemPriceInfo>,ItemPriceInfo,ItemPriceInfo>
; Function compile flags: /Ogtp
; File c:\program files (x86)\microsoft visual studio 10.0\vc\include\xmemory
;	COMDAT ??$_Cons_val@V?$allocator@UItemPriceInfo@@@std@@UItemPriceInfo@@U3@@std@@YAXAAV?$allocator@UItemPriceInfo@@@0@PAUItemPriceInfo@@$$QAU2@@Z
_TEXT	SEGMENT
__Alval$ = 8						; size = 4
__Pdest$ = 12						; size = 4
__Src$ = 16						; size = 4
??$_Cons_val@V?$allocator@UItemPriceInfo@@@std@@UItemPriceInfo@@U3@@std@@YAXAAV?$allocator@UItemPriceInfo@@@0@PAUItemPriceInfo@@$$QAU2@@Z PROC ; std::_Cons_val<std::allocator<ItemPriceInfo>,ItemPriceInfo,ItemPriceInfo>, COMDAT

; 279  : 	{	// construct using allocator

  00000	55		 push	 ebp
  00001	8b ec		 mov	 ebp, esp

; 280  : 	_Alval.construct(_Pdest, _STD forward<_Ty2>(_Src));

  00003	8b 45 0c	 mov	 eax, DWORD PTR __Pdest$[ebp]
  00006	85 c0		 test	 eax, eax
  00008	74 13		 je	 SHORT $LN7@Cons_val@2
  0000a	8b 4d 10	 mov	 ecx, DWORD PTR __Src$[ebp]
  0000d	8b 11		 mov	 edx, DWORD PTR [ecx]
  0000f	89 10		 mov	 DWORD PTR [eax], edx
  00011	8b 51 04	 mov	 edx, DWORD PTR [ecx+4]
  00014	89 50 04	 mov	 DWORD PTR [eax+4], edx
  00017	8b 49 08	 mov	 ecx, DWORD PTR [ecx+8]
  0001a	89 48 08	 mov	 DWORD PTR [eax+8], ecx
$LN7@Cons_val@2:

; 281  : 	}

  0001d	5d		 pop	 ebp
  0001e	c3		 ret	 0
??$_Cons_val@V?$allocator@UItemPriceInfo@@@std@@UItemPriceInfo@@U3@@std@@YAXAAV?$allocator@UItemPriceInfo@@@0@PAUItemPriceInfo@@$$QAU2@@Z ENDP ; std::_Cons_val<std::allocator<ItemPriceInfo>,ItemPriceInfo,ItemPriceInfo>
_TEXT	ENDS
PUBLIC	__TI2?AVbad_alloc@std@@
PUBLIC	??$_Allocate@UItemPriceInfo@@@std@@YAPAUItemPriceInfo@@IPAU1@@Z ; std::_Allocate<ItemPriceInfo>
PUBLIC	__CTA2?AVbad_alloc@std@@
PUBLIC	__CT??_R0?AVbad_alloc@std@@@8??0bad_alloc@std@@QAE@ABV01@@Z12
PUBLIC	??0bad_alloc@std@@QAE@ABV01@@Z			; std::bad_alloc::bad_alloc
PUBLIC	__CT??_R0?AVexception@std@@@8??0exception@std@@QAE@ABV01@@Z12
EXTRN	??2@YAPAXI@Z:PROC				; operator new
EXTRN	__CxxThrowException@8:PROC
EXTRN	??0exception@std@@QAE@ABV01@@Z:PROC		; std::exception::exception
;	COMDAT __CT??_R0?AVexception@std@@@8??0exception@std@@QAE@ABV01@@Z12
; File c:\program files (x86)\microsoft visual studio 10.0\vc\include\exception
xdata$x	SEGMENT
__CT??_R0?AVexception@std@@@8??0exception@std@@QAE@ABV01@@Z12 DD 00H
	DD	FLAT:??_R0?AVexception@std@@@8
	DD	00H
	DD	0ffffffffH
	ORG $+4
	DD	0cH
	DD	FLAT:??0exception@std@@QAE@ABV01@@Z
xdata$x	ENDS
;	COMDAT __CT??_R0?AVbad_alloc@std@@@8??0bad_alloc@std@@QAE@ABV01@@Z12
xdata$x	SEGMENT
__CT??_R0?AVbad_alloc@std@@@8??0bad_alloc@std@@QAE@ABV01@@Z12 DD 00H
	DD	FLAT:??_R0?AVbad_alloc@std@@@8
	DD	00H
	DD	0ffffffffH
	ORG $+4
	DD	0cH
	DD	FLAT:??0bad_alloc@std@@QAE@ABV01@@Z
xdata$x	ENDS
;	COMDAT __CTA2?AVbad_alloc@std@@
xdata$x	SEGMENT
__CTA2?AVbad_alloc@std@@ DD 02H
	DD	FLAT:__CT??_R0?AVbad_alloc@std@@@8??0bad_alloc@std@@QAE@ABV01@@Z12
	DD	FLAT:__CT??_R0?AVexception@std@@@8??0exception@std@@QAE@ABV01@@Z12
xdata$x	ENDS
;	COMDAT __TI2?AVbad_alloc@std@@
xdata$x	SEGMENT
__TI2?AVbad_alloc@std@@ DD 00H
	DD	FLAT:??1bad_alloc@std@@UAE@XZ
	DD	00H
	DD	FLAT:__CTA2?AVbad_alloc@std@@
; Function compile flags: /Ogtp
; File c:\program files (x86)\microsoft visual studio 10.0\vc\include\xmemory
xdata$x	ENDS
;	COMDAT ??$_Allocate@UItemPriceInfo@@@std@@YAPAUItemPriceInfo@@IPAU1@@Z
_TEXT	SEGMENT
$T185788 = -12						; size = 12
$T185793 = 8						; size = 4
__Count$ = 8						; size = 4
___formal$ = 12						; size = 4
??$_Allocate@UItemPriceInfo@@@std@@YAPAUItemPriceInfo@@IPAU1@@Z PROC ; std::_Allocate<ItemPriceInfo>, COMDAT

; 30   : 	{	// allocate storage for _Count elements of type _Ty

  00000	55		 push	 ebp
  00001	8b ec		 mov	 ebp, esp

; 31   : 	void *_Ptr = 0;
; 32   : 
; 33   : 	if (_Count <= 0)

  00003	8b 4d 08	 mov	 ecx, DWORD PTR __Count$[ebp]
  00006	83 ec 0c	 sub	 esp, 12			; 0000000cH
  00009	33 c0		 xor	 eax, eax
  0000b	85 c9		 test	 ecx, ecx

; 34   : 		_Count = 0;
; 35   : 	else if (((_SIZT)(-1) / sizeof (_Ty) < _Count)

  0000d	74 44		 je	 SHORT $LN5@Allocate

; 36   : 		|| (_Ptr = ::operator new(_Count * sizeof (_Ty))) == 0)

  0000f	81 f9 55 55 55
	15		 cmp	 ecx, 357913941		; 15555555H
  00015	77 14		 ja	 SHORT $LN1@Allocate
  00017	8d 04 49	 lea	 eax, DWORD PTR [ecx+ecx*2]
  0001a	03 c0		 add	 eax, eax
  0001c	03 c0		 add	 eax, eax
  0001e	50		 push	 eax
  0001f	e8 00 00 00 00	 call	 ??2@YAPAXI@Z		; operator new
  00024	83 c4 04	 add	 esp, 4
  00027	85 c0		 test	 eax, eax

; 38   : 
; 39   : 	return ((_Ty _FARQ *)_Ptr);

  00029	75 28		 jne	 SHORT $LN5@Allocate
$LN1@Allocate:

; 37   : 		_THROW_NCEE(bad_alloc, 0);

  0002b	8d 4d 08	 lea	 ecx, DWORD PTR $T185793[ebp]
  0002e	51		 push	 ecx
  0002f	8d 4d f4	 lea	 ecx, DWORD PTR $T185788[ebp]
  00032	c7 45 08 00 00
	00 00		 mov	 DWORD PTR $T185793[ebp], 0
  00039	e8 00 00 00 00	 call	 ??0exception@std@@QAE@ABQBD@Z ; std::exception::exception
  0003e	68 00 00 00 00	 push	 OFFSET __TI2?AVbad_alloc@std@@
  00043	8d 55 f4	 lea	 edx, DWORD PTR $T185788[ebp]
  00046	52		 push	 edx
  00047	c7 45 f4 00 00
	00 00		 mov	 DWORD PTR $T185788[ebp], OFFSET ??_7bad_alloc@std@@6B@
  0004e	e8 00 00 00 00	 call	 __CxxThrowException@8
$LN10@Allocate:
$LN5@Allocate:

; 40   : 	}

  00053	8b e5		 mov	 esp, ebp
  00055	5d		 pop	 ebp
  00056	c3		 ret	 0
$LN9@Allocate:
??$_Allocate@UItemPriceInfo@@@std@@YAPAUItemPriceInfo@@IPAU1@@Z ENDP ; std::_Allocate<ItemPriceInfo>
; Function compile flags: /Ogtp
_TEXT	ENDS
;	COMDAT ??0bad_alloc@std@@QAE@ABV01@@Z
_TEXT	SEGMENT
___that$ = 8						; size = 4
??0bad_alloc@std@@QAE@ABV01@@Z PROC			; std::bad_alloc::bad_alloc, COMDAT
; _this$ = ecx
  00000	55		 push	 ebp
  00001	8b ec		 mov	 ebp, esp
  00003	8b 45 08	 mov	 eax, DWORD PTR ___that$[ebp]
  00006	56		 push	 esi
  00007	50		 push	 eax
  00008	8b f1		 mov	 esi, ecx
  0000a	e8 00 00 00 00	 call	 ??0exception@std@@QAE@ABV01@@Z ; std::exception::exception
  0000f	c7 06 00 00 00
	00		 mov	 DWORD PTR [esi], OFFSET ??_7bad_alloc@std@@6B@
  00015	8b c6		 mov	 eax, esi
  00017	5e		 pop	 esi
  00018	5d		 pop	 ebp
  00019	c2 04 00	 ret	 4
??0bad_alloc@std@@QAE@ABV01@@Z ENDP			; std::bad_alloc::bad_alloc
_TEXT	ENDS
PUBLIC	?construct@?$allocator@UItemPriceInfo@@@std@@QAEXPAUItemPriceInfo@@ABU3@@Z ; std::allocator<ItemPriceInfo>::construct
; Function compile flags: /Ogtp
;	COMDAT ?construct@?$allocator@UItemPriceInfo@@@std@@QAEXPAUItemPriceInfo@@ABU3@@Z
_TEXT	SEGMENT
__Ptr$ = 8						; size = 4
__Val$ = 12						; size = 4
?construct@?$allocator@UItemPriceInfo@@@std@@QAEXPAUItemPriceInfo@@ABU3@@Z PROC ; std::allocator<ItemPriceInfo>::construct, COMDAT
; _this$ = ecx

; 196  : 		{	// construct object at _Ptr with value _Val

  00000	55		 push	 ebp
  00001	8b ec		 mov	 ebp, esp

; 197  : 		_Construct(_Ptr, _Val);

  00003	8b 45 08	 mov	 eax, DWORD PTR __Ptr$[ebp]
  00006	85 c0		 test	 eax, eax
  00008	74 13		 je	 SHORT $LN5@construct@3
  0000a	8b 4d 0c	 mov	 ecx, DWORD PTR __Val$[ebp]
  0000d	8b 11		 mov	 edx, DWORD PTR [ecx]
  0000f	89 10		 mov	 DWORD PTR [eax], edx
  00011	8b 51 04	 mov	 edx, DWORD PTR [ecx+4]
  00014	89 50 04	 mov	 DWORD PTR [eax+4], edx
  00017	8b 49 08	 mov	 ecx, DWORD PTR [ecx+8]
  0001a	89 48 08	 mov	 DWORD PTR [eax+8], ecx
$LN5@construct@3:

; 198  : 		}

  0001d	5d		 pop	 ebp
  0001e	c2 08 00	 ret	 8
?construct@?$allocator@UItemPriceInfo@@@std@@QAEXPAUItemPriceInfo@@ABU3@@Z ENDP ; std::allocator<ItemPriceInfo>::construct
_TEXT	ENDS
PUBLIC	??$_Move@PAUItemPriceInfo@@PAU1@@std@@YAPAUItemPriceInfo@@PAU1@00U_Nonscalar_ptr_iterator_tag@0@@Z ; std::_Move<ItemPriceInfo *,ItemPriceInfo *>
; Function compile flags: /Ogtp
; File c:\program files (x86)\microsoft visual studio 10.0\vc\include\xutility
;	COMDAT ??$_Move@PAUItemPriceInfo@@PAU1@@std@@YAPAUItemPriceInfo@@PAU1@00U_Nonscalar_ptr_iterator_tag@0@@Z
_TEXT	SEGMENT
__First$ = 8						; size = 4
__Last$ = 12						; size = 4
__Dest$ = 16						; size = 4
___formal$ = 20						; size = 1
??$_Move@PAUItemPriceInfo@@PAU1@@std@@YAPAUItemPriceInfo@@PAU1@00U_Nonscalar_ptr_iterator_tag@0@@Z PROC ; std::_Move<ItemPriceInfo *,ItemPriceInfo *>, COMDAT

; 2512 : 	{	// move [_First, _Last) to [_Dest, ...), arbitrary iterators

  00000	55		 push	 ebp
  00001	8b ec		 mov	 ebp, esp

; 2513 : 	for (; _First != _Last; ++_Dest, ++_First)

  00003	8b 4d 08	 mov	 ecx, DWORD PTR __First$[ebp]
  00006	8b 55 0c	 mov	 edx, DWORD PTR __Last$[ebp]
  00009	8b 45 10	 mov	 eax, DWORD PTR __Dest$[ebp]
  0000c	3b ca		 cmp	 ecx, edx
  0000e	74 1c		 je	 SHORT $LN1@Move
  00010	56		 push	 esi
$LL3@Move:

; 2514 : 		*_Dest = _STD move(*_First);

  00011	8b 31		 mov	 esi, DWORD PTR [ecx]
  00013	89 30		 mov	 DWORD PTR [eax], esi
  00015	8b 71 04	 mov	 esi, DWORD PTR [ecx+4]
  00018	89 70 04	 mov	 DWORD PTR [eax+4], esi
  0001b	8b 71 08	 mov	 esi, DWORD PTR [ecx+8]
  0001e	89 70 08	 mov	 DWORD PTR [eax+8], esi
  00021	83 c1 0c	 add	 ecx, 12			; 0000000cH
  00024	83 c0 0c	 add	 eax, 12			; 0000000cH
  00027	3b ca		 cmp	 ecx, edx
  00029	75 e6		 jne	 SHORT $LL3@Move
  0002b	5e		 pop	 esi
$LN1@Move:

; 2515 : 	return (_Dest);
; 2516 : 	}

  0002c	5d		 pop	 ebp
  0002d	c3		 ret	 0
??$_Move@PAUItemPriceInfo@@PAU1@@std@@YAPAUItemPriceInfo@@PAU1@00U_Nonscalar_ptr_iterator_tag@0@@Z ENDP ; std::_Move<ItemPriceInfo *,ItemPriceInfo *>
_TEXT	ENDS
PUBLIC	?destroy@?$allocator@UItemPriceInfo@@@std@@QAEXPAUItemPriceInfo@@@Z ; std::allocator<ItemPriceInfo>::destroy
; Function compile flags: /Ogtp
; File c:\program files (x86)\microsoft visual studio 10.0\vc\include\xmemory
;	COMDAT ?destroy@?$allocator@UItemPriceInfo@@@std@@QAEXPAUItemPriceInfo@@@Z
_TEXT	SEGMENT
__Ptr$ = 8						; size = 4
?destroy@?$allocator@UItemPriceInfo@@@std@@QAEXPAUItemPriceInfo@@@Z PROC ; std::allocator<ItemPriceInfo>::destroy, COMDAT
; _this$ = ecx

; 213  : 		_Destroy(_Ptr);
; 214  : 		}

  00000	c2 04 00	 ret	 4
?destroy@?$allocator@UItemPriceInfo@@@std@@QAEXPAUItemPriceInfo@@@Z ENDP ; std::allocator<ItemPriceInfo>::destroy
_TEXT	ENDS
PUBLIC	??0?$vector@UItemPriceInfo@@V?$allocator@UItemPriceInfo@@@std@@@std@@QAE@XZ ; std::vector<ItemPriceInfo,std::allocator<ItemPriceInfo> >::vector<ItemPriceInfo,std::allocator<ItemPriceInfo> >
; Function compile flags: /Ogtp
; File c:\program files (x86)\microsoft visual studio 10.0\vc\include\vector
;	COMDAT ??0?$vector@UItemPriceInfo@@V?$allocator@UItemPriceInfo@@@std@@@std@@QAE@XZ
_TEXT	SEGMENT
??0?$vector@UItemPriceInfo@@V?$allocator@UItemPriceInfo@@@std@@@std@@QAE@XZ PROC ; std::vector<ItemPriceInfo,std::allocator<ItemPriceInfo> >::vector<ItemPriceInfo,std::allocator<ItemPriceInfo> >, COMDAT
; _this$ = ecx

; 507  : 		{	// construct empty vector

  00000	8b c1		 mov	 eax, ecx
  00002	33 c9		 xor	 ecx, ecx
  00004	89 08		 mov	 DWORD PTR [eax], ecx
  00006	89 48 04	 mov	 DWORD PTR [eax+4], ecx
  00009	89 48 08	 mov	 DWORD PTR [eax+8], ecx

; 508  : 		}

  0000c	c3		 ret	 0
??0?$vector@UItemPriceInfo@@V?$allocator@UItemPriceInfo@@@std@@@std@@QAE@XZ ENDP ; std::vector<ItemPriceInfo,std::allocator<ItemPriceInfo> >::vector<ItemPriceInfo,std::allocator<ItemPriceInfo> >
_TEXT	ENDS
PUBLIC	??0?$_Vector_iterator@V?$_Vector_val@UItemPriceInfo@@V?$allocator@UItemPriceInfo@@@std@@@std@@@std@@QAE@PAUItemPriceInfo@@PBU_Container_base0@1@@Z ; std::_Vector_iterator<std::_Vector_val<ItemPriceInfo,std::allocator<ItemPriceInfo> > >::_Vector_iterator<std::_Vector_val<ItemPriceInfo,std::allocator<ItemPriceInfo> > >
; Function compile flags: /Ogtp
;	COMDAT ??0?$_Vector_iterator@V?$_Vector_val@UItemPriceInfo@@V?$allocator@UItemPriceInfo@@@std@@@std@@@std@@QAE@PAUItemPriceInfo@@PBU_Container_base0@1@@Z
_TEXT	SEGMENT
__Parg$ = 8						; size = 4
__Pvector$ = 12						; size = 4
??0?$_Vector_iterator@V?$_Vector_val@UItemPriceInfo@@V?$allocator@UItemPriceInfo@@@std@@@std@@@std@@QAE@PAUItemPriceInfo@@PBU_Container_base0@1@@Z PROC ; std::_Vector_iterator<std::_Vector_val<ItemPriceInfo,std::allocator<ItemPriceInfo> > >::_Vector_iterator<std::_Vector_val<ItemPriceInfo,std::allocator<ItemPriceInfo> > >, COMDAT
; _this$ = ecx

; 304  : 		{	// construct with pointer _Parg

  00000	55		 push	 ebp
  00001	8b ec		 mov	 ebp, esp
  00003	8b c1		 mov	 eax, ecx
  00005	8b 4d 08	 mov	 ecx, DWORD PTR __Parg$[ebp]
  00008	89 08		 mov	 DWORD PTR [eax], ecx

; 305  : 		}

  0000a	5d		 pop	 ebp
  0000b	c2 08 00	 ret	 8
??0?$_Vector_iterator@V?$_Vector_val@UItemPriceInfo@@V?$allocator@UItemPriceInfo@@@std@@@std@@@std@@QAE@PAUItemPriceInfo@@PBU_Container_base0@1@@Z ENDP ; std::_Vector_iterator<std::_Vector_val<ItemPriceInfo,std::allocator<ItemPriceInfo> > >::_Vector_iterator<std::_Vector_val<ItemPriceInfo,std::allocator<ItemPriceInfo> > >
_TEXT	ENDS
PUBLIC	??9?$_Vector_const_iterator@V?$_Vector_val@UItemPriceInfo@@V?$allocator@UItemPriceInfo@@@std@@@std@@@std@@QBE_NABV01@@Z ; std::_Vector_const_iterator<std::_Vector_val<ItemPriceInfo,std::allocator<ItemPriceInfo> > >::operator!=
; Function compile flags: /Ogtp
;	COMDAT ??9?$_Vector_const_iterator@V?$_Vector_val@UItemPriceInfo@@V?$allocator@UItemPriceInfo@@@std@@@std@@@std@@QBE_NABV01@@Z
_TEXT	SEGMENT
__Right$ = 8						; size = 4
??9?$_Vector_const_iterator@V?$_Vector_val@UItemPriceInfo@@V?$allocator@UItemPriceInfo@@@std@@@std@@@std@@QBE_NABV01@@Z PROC ; std::_Vector_const_iterator<std::_Vector_val<ItemPriceInfo,std::allocator<ItemPriceInfo> > >::operator!=, COMDAT
; _this$ = ecx

; 207  : 		{	// test for iterator inequality

  00000	55		 push	 ebp
  00001	8b ec		 mov	 ebp, esp

; 208  : 		return (!(*this == _Right));

  00003	8b 01		 mov	 eax, DWORD PTR [ecx]
  00005	8b 55 08	 mov	 edx, DWORD PTR __Right$[ebp]
  00008	33 c9		 xor	 ecx, ecx
  0000a	3b 02		 cmp	 eax, DWORD PTR [edx]
  0000c	0f 95 c0	 setne	 al

; 209  : 		}

  0000f	5d		 pop	 ebp
  00010	c2 04 00	 ret	 4
??9?$_Vector_const_iterator@V?$_Vector_val@UItemPriceInfo@@V?$allocator@UItemPriceInfo@@@std@@@std@@@std@@QBE_NABV01@@Z ENDP ; std::_Vector_const_iterator<std::_Vector_val<ItemPriceInfo,std::allocator<ItemPriceInfo> > >::operator!=
_TEXT	ENDS
PUBLIC	?allocate@?$allocator@UItemPriceInfo@@@std@@QAEPAUItemPriceInfo@@I@Z ; std::allocator<ItemPriceInfo>::allocate
; Function compile flags: /Ogtp
; File c:\program files (x86)\microsoft visual studio 10.0\vc\include\xmemory
;	COMDAT ?allocate@?$allocator@UItemPriceInfo@@@std@@QAEPAUItemPriceInfo@@I@Z
_TEXT	SEGMENT
$T185883 = -12						; size = 12
$T185881 = 8						; size = 4
__Count$ = 8						; size = 4
?allocate@?$allocator@UItemPriceInfo@@@std@@QAEPAUItemPriceInfo@@I@Z PROC ; std::allocator<ItemPriceInfo>::allocate, COMDAT
; _this$ = ecx

; 186  : 		{	// allocate array of _Count elements

  00000	55		 push	 ebp
  00001	8b ec		 mov	 ebp, esp

; 187  : 		return (_Allocate(_Count, (pointer)0));

  00003	8b 4d 08	 mov	 ecx, DWORD PTR __Count$[ebp]
  00006	83 ec 0c	 sub	 esp, 12			; 0000000cH
  00009	33 c0		 xor	 eax, eax
  0000b	85 c9		 test	 ecx, ecx
  0000d	74 44		 je	 SHORT $LN1@allocate
  0000f	81 f9 55 55 55
	15		 cmp	 ecx, 357913941		; 15555555H
  00015	77 14		 ja	 SHORT $LN3@allocate
  00017	8d 04 49	 lea	 eax, DWORD PTR [ecx+ecx*2]
  0001a	03 c0		 add	 eax, eax
  0001c	03 c0		 add	 eax, eax
  0001e	50		 push	 eax
  0001f	e8 00 00 00 00	 call	 ??2@YAPAXI@Z		; operator new
  00024	83 c4 04	 add	 esp, 4
  00027	85 c0		 test	 eax, eax
  00029	75 28		 jne	 SHORT $LN1@allocate
$LN3@allocate:
  0002b	8d 4d 08	 lea	 ecx, DWORD PTR $T185881[ebp]
  0002e	51		 push	 ecx
  0002f	8d 4d f4	 lea	 ecx, DWORD PTR $T185883[ebp]
  00032	c7 45 08 00 00
	00 00		 mov	 DWORD PTR $T185881[ebp], 0
  00039	e8 00 00 00 00	 call	 ??0exception@std@@QAE@ABQBD@Z ; std::exception::exception
  0003e	68 00 00 00 00	 push	 OFFSET __TI2?AVbad_alloc@std@@
  00043	8d 55 f4	 lea	 edx, DWORD PTR $T185883[ebp]
  00046	52		 push	 edx
  00047	c7 45 f4 00 00
	00 00		 mov	 DWORD PTR $T185883[ebp], OFFSET ??_7bad_alloc@std@@6B@
  0004e	e8 00 00 00 00	 call	 __CxxThrowException@8
$LN13@allocate:
$LN1@allocate:

; 188  : 		}

  00053	8b e5		 mov	 esp, ebp
  00055	5d		 pop	 ebp
  00056	c2 04 00	 ret	 4
$LN12@allocate:
?allocate@?$allocator@UItemPriceInfo@@@std@@QAEPAUItemPriceInfo@@I@Z ENDP ; std::allocator<ItemPriceInfo>::allocate
_TEXT	ENDS
PUBLIC	??$_Cons_val@V?$allocator@UItemPriceInfo@@@std@@UItemPriceInfo@@ABU3@@std@@YAXAAV?$allocator@UItemPriceInfo@@@0@PAUItemPriceInfo@@ABU2@@Z ; std::_Cons_val<std::allocator<ItemPriceInfo>,ItemPriceInfo,ItemPriceInfo const &>
; Function compile flags: /Ogtp
;	COMDAT ??$_Cons_val@V?$allocator@UItemPriceInfo@@@std@@UItemPriceInfo@@ABU3@@std@@YAXAAV?$allocator@UItemPriceInfo@@@0@PAUItemPriceInfo@@ABU2@@Z
_TEXT	SEGMENT
__Alval$ = 8						; size = 4
__Pdest$ = 12						; size = 4
__Src$ = 16						; size = 4
??$_Cons_val@V?$allocator@UItemPriceInfo@@@std@@UItemPriceInfo@@ABU3@@std@@YAXAAV?$allocator@UItemPriceInfo@@@0@PAUItemPriceInfo@@ABU2@@Z PROC ; std::_Cons_val<std::allocator<ItemPriceInfo>,ItemPriceInfo,ItemPriceInfo const &>, COMDAT

; 279  : 	{	// construct using allocator

  00000	55		 push	 ebp
  00001	8b ec		 mov	 ebp, esp

; 280  : 	_Alval.construct(_Pdest, _STD forward<_Ty2>(_Src));

  00003	8b 45 0c	 mov	 eax, DWORD PTR __Pdest$[ebp]
  00006	85 c0		 test	 eax, eax
  00008	74 13		 je	 SHORT $LN9@Cons_val@3
  0000a	8b 4d 10	 mov	 ecx, DWORD PTR __Src$[ebp]
  0000d	8b 11		 mov	 edx, DWORD PTR [ecx]
  0000f	89 10		 mov	 DWORD PTR [eax], edx
  00011	8b 51 04	 mov	 edx, DWORD PTR [ecx+4]
  00014	89 50 04	 mov	 DWORD PTR [eax+4], edx
  00017	8b 49 08	 mov	 ecx, DWORD PTR [ecx+8]
  0001a	89 48 08	 mov	 DWORD PTR [eax+8], ecx
$LN9@Cons_val@3:

; 281  : 	}

  0001d	5d		 pop	 ebp
  0001e	c3		 ret	 0
??$_Cons_val@V?$allocator@UItemPriceInfo@@@std@@UItemPriceInfo@@ABU3@@std@@YAXAAV?$allocator@UItemPriceInfo@@@0@PAUItemPriceInfo@@ABU2@@Z ENDP ; std::_Cons_val<std::allocator<ItemPriceInfo>,ItemPriceInfo,ItemPriceInfo const &>
_TEXT	ENDS
PUBLIC	??$_Move@PAUItemPriceInfo@@PAU1@@std@@YAPAUItemPriceInfo@@PAU1@00@Z ; std::_Move<ItemPriceInfo *,ItemPriceInfo *>
; Function compile flags: /Ogtp
; File c:\program files (x86)\microsoft visual studio 10.0\vc\include\xutility
;	COMDAT ??$_Move@PAUItemPriceInfo@@PAU1@@std@@YAPAUItemPriceInfo@@PAU1@00@Z
_TEXT	SEGMENT
__First$ = 8						; size = 4
__Last$ = 12						; size = 4
__Dest$ = 16						; size = 4
??$_Move@PAUItemPriceInfo@@PAU1@@std@@YAPAUItemPriceInfo@@PAU1@00@Z PROC ; std::_Move<ItemPriceInfo *,ItemPriceInfo *>, COMDAT

; 2533 : 	{	// move [_First, _Last) to [_Dest, ...), unchecked

  00000	55		 push	 ebp
  00001	8b ec		 mov	 ebp, esp

; 2534 : 	return (_Move(_First, _Last,
; 2535 : 		_Dest, _Ptr_cat(_First, _Dest)));

  00003	8b 4d 08	 mov	 ecx, DWORD PTR __First$[ebp]
  00006	8b 55 0c	 mov	 edx, DWORD PTR __Last$[ebp]
  00009	8b 45 10	 mov	 eax, DWORD PTR __Dest$[ebp]
  0000c	3b ca		 cmp	 ecx, edx
  0000e	74 1c		 je	 SHORT $LN5@Move@2
  00010	56		 push	 esi
$LL7@Move@2:
  00011	8b 31		 mov	 esi, DWORD PTR [ecx]
  00013	89 30		 mov	 DWORD PTR [eax], esi
  00015	8b 71 04	 mov	 esi, DWORD PTR [ecx+4]
  00018	89 70 04	 mov	 DWORD PTR [eax+4], esi
  0001b	8b 71 08	 mov	 esi, DWORD PTR [ecx+8]
  0001e	89 70 08	 mov	 DWORD PTR [eax+8], esi
  00021	83 c1 0c	 add	 ecx, 12			; 0000000cH
  00024	83 c0 0c	 add	 eax, 12			; 0000000cH
  00027	3b ca		 cmp	 ecx, edx
  00029	75 e6		 jne	 SHORT $LL7@Move@2
  0002b	5e		 pop	 esi
$LN5@Move@2:

; 2536 : 	}

  0002c	5d		 pop	 ebp
  0002d	c3		 ret	 0
??$_Move@PAUItemPriceInfo@@PAU1@@std@@YAPAUItemPriceInfo@@PAU1@00@Z ENDP ; std::_Move<ItemPriceInfo *,ItemPriceInfo *>
_TEXT	ENDS
PUBLIC	??$_Dest_val@V?$allocator@UItemPriceInfo@@@std@@UItemPriceInfo@@@std@@YAXAAV?$allocator@UItemPriceInfo@@@0@PAUItemPriceInfo@@@Z ; std::_Dest_val<std::allocator<ItemPriceInfo>,ItemPriceInfo>
; Function compile flags: /Ogtp
; File c:\program files (x86)\microsoft visual studio 10.0\vc\include\xmemory
;	COMDAT ??$_Dest_val@V?$allocator@UItemPriceInfo@@@std@@UItemPriceInfo@@@std@@YAXAAV?$allocator@UItemPriceInfo@@@0@PAUItemPriceInfo@@@Z
_TEXT	SEGMENT
__Alval$ = 8						; size = 4
__Pdest$ = 12						; size = 4
??$_Dest_val@V?$allocator@UItemPriceInfo@@@std@@UItemPriceInfo@@@std@@YAXAAV?$allocator@UItemPriceInfo@@@0@PAUItemPriceInfo@@@Z PROC ; std::_Dest_val<std::allocator<ItemPriceInfo>,ItemPriceInfo>, COMDAT

; 287  : 	_Alval.destroy(_Pdest);
; 288  : 	}

  00000	c3		 ret	 0
??$_Dest_val@V?$allocator@UItemPriceInfo@@@std@@UItemPriceInfo@@@std@@YAXAAV?$allocator@UItemPriceInfo@@@0@PAUItemPriceInfo@@@Z ENDP ; std::_Dest_val<std::allocator<ItemPriceInfo>,ItemPriceInfo>
_TEXT	ENDS
PUBLIC	?begin@?$vector@UItemPriceInfo@@V?$allocator@UItemPriceInfo@@@std@@@std@@QAE?AV?$_Vector_iterator@V?$_Vector_val@UItemPriceInfo@@V?$allocator@UItemPriceInfo@@@std@@@std@@@2@XZ ; std::vector<ItemPriceInfo,std::allocator<ItemPriceInfo> >::begin
; Function compile flags: /Ogtp
; File c:\program files (x86)\microsoft visual studio 10.0\vc\include\vector
;	COMDAT ?begin@?$vector@UItemPriceInfo@@V?$allocator@UItemPriceInfo@@@std@@@std@@QAE?AV?$_Vector_iterator@V?$_Vector_val@UItemPriceInfo@@V?$allocator@UItemPriceInfo@@@std@@@std@@@2@XZ
_TEXT	SEGMENT
___$ReturnUdt$ = 8					; size = 4
?begin@?$vector@UItemPriceInfo@@V?$allocator@UItemPriceInfo@@@std@@@std@@QAE?AV?$_Vector_iterator@V?$_Vector_val@UItemPriceInfo@@V?$allocator@UItemPriceInfo@@@std@@@std@@@2@XZ PROC ; std::vector<ItemPriceInfo,std::allocator<ItemPriceInfo> >::begin, COMDAT
; _this$ = ecx

; 781  : 		{	// return iterator for beginning of mutable sequence

  00000	55		 push	 ebp
  00001	8b ec		 mov	 ebp, esp

; 782  : 		return (iterator(this->_Myfirst, this));

  00003	8b 09		 mov	 ecx, DWORD PTR [ecx]
  00005	8b 45 08	 mov	 eax, DWORD PTR ___$ReturnUdt$[ebp]
  00008	89 08		 mov	 DWORD PTR [eax], ecx

; 783  : 		}

  0000a	5d		 pop	 ebp
  0000b	c2 04 00	 ret	 4
?begin@?$vector@UItemPriceInfo@@V?$allocator@UItemPriceInfo@@@std@@@std@@QAE?AV?$_Vector_iterator@V?$_Vector_val@UItemPriceInfo@@V?$allocator@UItemPriceInfo@@@std@@@std@@@2@XZ ENDP ; std::vector<ItemPriceInfo,std::allocator<ItemPriceInfo> >::begin
_TEXT	ENDS
PUBLIC	?end@?$vector@UItemPriceInfo@@V?$allocator@UItemPriceInfo@@@std@@@std@@QAE?AV?$_Vector_iterator@V?$_Vector_val@UItemPriceInfo@@V?$allocator@UItemPriceInfo@@@std@@@std@@@2@XZ ; std::vector<ItemPriceInfo,std::allocator<ItemPriceInfo> >::end
; Function compile flags: /Ogtp
;	COMDAT ?end@?$vector@UItemPriceInfo@@V?$allocator@UItemPriceInfo@@@std@@@std@@QAE?AV?$_Vector_iterator@V?$_Vector_val@UItemPriceInfo@@V?$allocator@UItemPriceInfo@@@std@@@std@@@2@XZ
_TEXT	SEGMENT
___$ReturnUdt$ = 8					; size = 4
?end@?$vector@UItemPriceInfo@@V?$allocator@UItemPriceInfo@@@std@@@std@@QAE?AV?$_Vector_iterator@V?$_Vector_val@UItemPriceInfo@@V?$allocator@UItemPriceInfo@@@std@@@std@@@2@XZ PROC ; std::vector<ItemPriceInfo,std::allocator<ItemPriceInfo> >::end, COMDAT
; _this$ = ecx

; 791  : 		{	// return iterator for end of mutable sequence

  00000	55		 push	 ebp
  00001	8b ec		 mov	 ebp, esp

; 792  : 		return (iterator(this->_Mylast, this));

  00003	8b 49 04	 mov	 ecx, DWORD PTR [ecx+4]
  00006	8b 45 08	 mov	 eax, DWORD PTR ___$ReturnUdt$[ebp]
  00009	89 08		 mov	 DWORD PTR [eax], ecx

; 793  : 		}

  0000b	5d		 pop	 ebp
  0000c	c2 04 00	 ret	 4
?end@?$vector@UItemPriceInfo@@V?$allocator@UItemPriceInfo@@@std@@@std@@QAE?AV?$_Vector_iterator@V?$_Vector_val@UItemPriceInfo@@V?$allocator@UItemPriceInfo@@@std@@@std@@@2@XZ ENDP ; std::vector<ItemPriceInfo,std::allocator<ItemPriceInfo> >::end
_TEXT	ENDS
PUBLIC	?_Make_iter@?$vector@UItemPriceInfo@@V?$allocator@UItemPriceInfo@@@std@@@std@@QBE?AV?$_Vector_iterator@V?$_Vector_val@UItemPriceInfo@@V?$allocator@UItemPriceInfo@@@std@@@std@@@2@V?$_Vector_const_iterator@V?$_Vector_val@UItemPriceInfo@@V?$allocator@UItemPriceInfo@@@std@@@std@@@2@@Z ; std::vector<ItemPriceInfo,std::allocator<ItemPriceInfo> >::_Make_iter
; Function compile flags: /Ogtp
;	COMDAT ?_Make_iter@?$vector@UItemPriceInfo@@V?$allocator@UItemPriceInfo@@@std@@@std@@QBE?AV?$_Vector_iterator@V?$_Vector_val@UItemPriceInfo@@V?$allocator@UItemPriceInfo@@@std@@@std@@@2@V?$_Vector_const_iterator@V?$_Vector_val@UItemPriceInfo@@V?$allocator@UItemPriceInfo@@@std@@@std@@@2@@Z
_TEXT	SEGMENT
___$ReturnUdt$ = 8					; size = 4
__Where$ = 12						; size = 4
?_Make_iter@?$vector@UItemPriceInfo@@V?$allocator@UItemPriceInfo@@@std@@@std@@QBE?AV?$_Vector_iterator@V?$_Vector_val@UItemPriceInfo@@V?$allocator@UItemPriceInfo@@@std@@@std@@@2@V?$_Vector_const_iterator@V?$_Vector_val@UItemPriceInfo@@V?$allocator@UItemPriceInfo@@@std@@@std@@@2@@Z PROC ; std::vector<ItemPriceInfo,std::allocator<ItemPriceInfo> >::_Make_iter, COMDAT
; _this$ = ecx

; 801  : 		{	// make iterator from const_iterator

  00000	55		 push	 ebp
  00001	8b ec		 mov	 ebp, esp

; 802  : 		return (iterator(_Where._Ptr, this));

  00003	8b 45 08	 mov	 eax, DWORD PTR ___$ReturnUdt$[ebp]
  00006	8b 4d 0c	 mov	 ecx, DWORD PTR __Where$[ebp]
  00009	89 08		 mov	 DWORD PTR [eax], ecx

; 803  : 		}

  0000b	5d		 pop	 ebp
  0000c	c2 08 00	 ret	 8
?_Make_iter@?$vector@UItemPriceInfo@@V?$allocator@UItemPriceInfo@@@std@@@std@@QBE?AV?$_Vector_iterator@V?$_Vector_val@UItemPriceInfo@@V?$allocator@UItemPriceInfo@@@std@@@std@@@2@V?$_Vector_const_iterator@V?$_Vector_val@UItemPriceInfo@@V?$allocator@UItemPriceInfo@@@std@@@std@@@2@@Z ENDP ; std::vector<ItemPriceInfo,std::allocator<ItemPriceInfo> >::_Make_iter
_TEXT	ENDS
PUBLIC	??$_Destroy_range@V?$allocator@UItemPriceInfo@@@std@@@std@@YAXPAUItemPriceInfo@@0AAV?$allocator@UItemPriceInfo@@@0@U_Nonscalar_ptr_iterator_tag@0@@Z ; std::_Destroy_range<std::allocator<ItemPriceInfo> >
; Function compile flags: /Ogtp
; File c:\program files (x86)\microsoft visual studio 10.0\vc\include\xmemory
;	COMDAT ??$_Destroy_range@V?$allocator@UItemPriceInfo@@@std@@@std@@YAXPAUItemPriceInfo@@0AAV?$allocator@UItemPriceInfo@@@0@U_Nonscalar_ptr_iterator_tag@0@@Z
_TEXT	SEGMENT
__First$ = 8						; size = 4
__Last$ = 12						; size = 4
__Al$ = 16						; size = 4
___formal$ = 20						; size = 1
??$_Destroy_range@V?$allocator@UItemPriceInfo@@@std@@@std@@YAXPAUItemPriceInfo@@0AAV?$allocator@UItemPriceInfo@@@0@U_Nonscalar_ptr_iterator_tag@0@@Z PROC ; std::_Destroy_range<std::allocator<ItemPriceInfo> >, COMDAT

; 96   : 	for (; _First != _Last; ++_First)
; 97   : 		_Dest_val(_Al, _First);
; 98   : 	}

  00000	c3		 ret	 0
??$_Destroy_range@V?$allocator@UItemPriceInfo@@@std@@@std@@YAXPAUItemPriceInfo@@0AAV?$allocator@UItemPriceInfo@@@0@U_Nonscalar_ptr_iterator_tag@0@@Z ENDP ; std::_Destroy_range<std::allocator<ItemPriceInfo> >
_TEXT	ENDS
PUBLIC	??$_Uninit_move@PAUItemPriceInfo@@PAU1@V?$allocator@UItemPriceInfo@@@std@@U1@@std@@YAPAUItemPriceInfo@@PAU1@00AAV?$allocator@UItemPriceInfo@@@0@0U_Nonscalar_ptr_iterator_tag@0@@Z ; std::_Uninit_move<ItemPriceInfo *,ItemPriceInfo *,std::allocator<ItemPriceInfo>,ItemPriceInfo>
; Function compile flags: /Ogtp
; File c:\program files (x86)\microsoft visual studio 10.0\vc\include\memory
;	COMDAT ??$_Uninit_move@PAUItemPriceInfo@@PAU1@V?$allocator@UItemPriceInfo@@@std@@U1@@std@@YAPAUItemPriceInfo@@PAU1@00AAV?$allocator@UItemPriceInfo@@@0@0U_Nonscalar_ptr_iterator_tag@0@@Z
_TEXT	SEGMENT
__First$ = 8						; size = 4
__Last$ = 12						; size = 4
__Dest$ = 16						; size = 4
__Al$ = 20						; size = 4
___formal$ = 24						; size = 4
___formal$ = 28						; size = 1
??$_Uninit_move@PAUItemPriceInfo@@PAU1@V?$allocator@UItemPriceInfo@@@std@@U1@@std@@YAPAUItemPriceInfo@@PAU1@00AAV?$allocator@UItemPriceInfo@@@0@0U_Nonscalar_ptr_iterator_tag@0@@Z PROC ; std::_Uninit_move<ItemPriceInfo *,ItemPriceInfo *,std::allocator<ItemPriceInfo>,ItemPriceInfo>, COMDAT

; 424  : 	{	// move [_First, _Last) to raw _Dest, using _Al, arbitrary type

  00000	55		 push	 ebp
  00001	8b ec		 mov	 ebp, esp
  00003	53		 push	 ebx

; 425  : 	_DEBUG_RANGE(_First, _Last);
; 426  : 	_DEBUG_POINTER(_Dest);
; 427  : 	_FwdIt _Next = _Dest;
; 428  : 
; 429  : 	_TRY_BEGIN
; 430  : 	for (; _First != _Last; ++_Dest, ++_First)

  00004	8b 5d 0c	 mov	 ebx, DWORD PTR __Last$[ebp]
  00007	56		 push	 esi
  00008	8b 75 08	 mov	 esi, DWORD PTR __First$[ebp]
  0000b	3b f3		 cmp	 esi, ebx
  0000d	74 23		 je	 SHORT $LN17@Uninit_mov
  0000f	57		 push	 edi
  00010	8b 7d 10	 mov	 edi, DWORD PTR __Dest$[ebp]
$LL6@Uninit_mov:

; 431  : 		_Cons_val(_Al, _Dest, (_Valty &&)*_First);

  00013	8b 45 14	 mov	 eax, DWORD PTR __Al$[ebp]
  00016	56		 push	 esi
  00017	57		 push	 edi
  00018	50		 push	 eax
  00019	e8 00 00 00 00	 call	 ??$_Cons_val@V?$allocator@UItemPriceInfo@@@std@@UItemPriceInfo@@U3@@std@@YAXAAV?$allocator@UItemPriceInfo@@@0@PAUItemPriceInfo@@$$QAU2@@Z ; std::_Cons_val<std::allocator<ItemPriceInfo>,ItemPriceInfo,ItemPriceInfo>
  0001e	83 c6 0c	 add	 esi, 12			; 0000000cH
  00021	83 c4 0c	 add	 esp, 12			; 0000000cH
  00024	83 c7 0c	 add	 edi, 12			; 0000000cH
  00027	3b f3		 cmp	 esi, ebx
  00029	75 e8		 jne	 SHORT $LL6@Uninit_mov

; 432  : 	_CATCH_ALL
; 433  : 	for (; _Next != _Dest; ++_Next)
; 434  : 		_Dest_val(_Al, _Next);
; 435  : 	_RERAISE;
; 436  : 	_CATCH_END
; 437  : 	return (_Dest);

  0002b	8b c7		 mov	 eax, edi
  0002d	5f		 pop	 edi
  0002e	5e		 pop	 esi
  0002f	5b		 pop	 ebx

; 438  : 	}

  00030	5d		 pop	 ebp
  00031	c3		 ret	 0
$LN17@Uninit_mov:

; 432  : 	_CATCH_ALL
; 433  : 	for (; _Next != _Dest; ++_Next)
; 434  : 		_Dest_val(_Al, _Next);
; 435  : 	_RERAISE;
; 436  : 	_CATCH_END
; 437  : 	return (_Dest);

  00032	8b 45 10	 mov	 eax, DWORD PTR __Dest$[ebp]
  00035	5e		 pop	 esi
  00036	5b		 pop	 ebx

; 438  : 	}

  00037	5d		 pop	 ebp
  00038	c3		 ret	 0
??$_Uninit_move@PAUItemPriceInfo@@PAU1@V?$allocator@UItemPriceInfo@@@std@@U1@@std@@YAPAUItemPriceInfo@@PAU1@00AAV?$allocator@UItemPriceInfo@@@0@0U_Nonscalar_ptr_iterator_tag@0@@Z ENDP ; std::_Uninit_move<ItemPriceInfo *,ItemPriceInfo *,std::allocator<ItemPriceInfo>,ItemPriceInfo>
_TEXT	ENDS
PUBLIC	??$_Destroy_range@V?$allocator@UItemPriceInfo@@@std@@@std@@YAXPAUItemPriceInfo@@0AAV?$allocator@UItemPriceInfo@@@0@@Z ; std::_Destroy_range<std::allocator<ItemPriceInfo> >
; Function compile flags: /Ogtp
; File c:\program files (x86)\microsoft visual studio 10.0\vc\include\xmemory
;	COMDAT ??$_Destroy_range@V?$allocator@UItemPriceInfo@@@std@@@std@@YAXPAUItemPriceInfo@@0AAV?$allocator@UItemPriceInfo@@@0@@Z
_TEXT	SEGMENT
__First$ = 8						; size = 4
__Last$ = 12						; size = 4
__Al$ = 16						; size = 4
??$_Destroy_range@V?$allocator@UItemPriceInfo@@@std@@@std@@YAXPAUItemPriceInfo@@0AAV?$allocator@UItemPriceInfo@@@0@@Z PROC ; std::_Destroy_range<std::allocator<ItemPriceInfo> >, COMDAT

; 88   : 	_Destroy_range(_First, _Last, _Al, _Ptr_cat(_First, _Last));
; 89   : 	}

  00000	c3		 ret	 0
??$_Destroy_range@V?$allocator@UItemPriceInfo@@@std@@@std@@YAXPAUItemPriceInfo@@0AAV?$allocator@UItemPriceInfo@@@0@@Z ENDP ; std::_Destroy_range<std::allocator<ItemPriceInfo> >
_TEXT	ENDS
PUBLIC	??$_Uninitialized_move@PAUItemPriceInfo@@PAU1@V?$allocator@UItemPriceInfo@@@std@@@std@@YAPAUItemPriceInfo@@PAU1@00AAV?$allocator@UItemPriceInfo@@@0@@Z ; std::_Uninitialized_move<ItemPriceInfo *,ItemPriceInfo *,std::allocator<ItemPriceInfo> >
; Function compile flags: /Ogtp
; File c:\program files (x86)\microsoft visual studio 10.0\vc\include\memory
;	COMDAT ??$_Uninitialized_move@PAUItemPriceInfo@@PAU1@V?$allocator@UItemPriceInfo@@@std@@@std@@YAPAUItemPriceInfo@@PAU1@00AAV?$allocator@UItemPriceInfo@@@0@@Z
_TEXT	SEGMENT
__Cat$186047 = -4					; size = 1
__First$ = 8						; size = 4
__Last$ = 12						; size = 4
__Dest$ = 16						; size = 4
__Al$ = 20						; size = 4
??$_Uninitialized_move@PAUItemPriceInfo@@PAU1@V?$allocator@UItemPriceInfo@@@std@@@std@@YAPAUItemPriceInfo@@PAU1@00AAV?$allocator@UItemPriceInfo@@@0@@Z PROC ; std::_Uninitialized_move<ItemPriceInfo *,ItemPriceInfo *,std::allocator<ItemPriceInfo> >, COMDAT

; 469  : 	{	// move [_First, _Last) to raw _Dest, using _Al

  00000	55		 push	 ebp
  00001	8b ec		 mov	 ebp, esp
  00003	51		 push	 ecx

; 470  : 	return (_Uninit_move(_First, _Last, _Dest, _Al,
; 471  : 		_Val_type(_First), _Ptr_cat(_First, _Dest)));

  00004	8b 45 fc	 mov	 eax, DWORD PTR __Cat$186047[ebp]
  00007	8b 4d 14	 mov	 ecx, DWORD PTR __Al$[ebp]
  0000a	8b 55 10	 mov	 edx, DWORD PTR __Dest$[ebp]
  0000d	50		 push	 eax
  0000e	8b 45 0c	 mov	 eax, DWORD PTR __Last$[ebp]
  00011	6a 00		 push	 0
  00013	51		 push	 ecx
  00014	8b 4d 08	 mov	 ecx, DWORD PTR __First$[ebp]
  00017	52		 push	 edx
  00018	50		 push	 eax
  00019	51		 push	 ecx
  0001a	e8 00 00 00 00	 call	 ??$_Uninit_move@PAUItemPriceInfo@@PAU1@V?$allocator@UItemPriceInfo@@@std@@U1@@std@@YAPAUItemPriceInfo@@PAU1@00AAV?$allocator@UItemPriceInfo@@@0@0U_Nonscalar_ptr_iterator_tag@0@@Z ; std::_Uninit_move<ItemPriceInfo *,ItemPriceInfo *,std::allocator<ItemPriceInfo>,ItemPriceInfo>
  0001f	83 c4 18	 add	 esp, 24			; 00000018H

; 472  : 	}

  00022	8b e5		 mov	 esp, ebp
  00024	5d		 pop	 ebp
  00025	c3		 ret	 0
??$_Uninitialized_move@PAUItemPriceInfo@@PAU1@V?$allocator@UItemPriceInfo@@@std@@@std@@YAPAUItemPriceInfo@@PAU1@00AAV?$allocator@UItemPriceInfo@@@0@@Z ENDP ; std::_Uninitialized_move<ItemPriceInfo *,ItemPriceInfo *,std::allocator<ItemPriceInfo> >
_TEXT	ENDS
PUBLIC	?_Destroy@?$vector@UItemPriceInfo@@V?$allocator@UItemPriceInfo@@@std@@@std@@IAEXPAUItemPriceInfo@@0@Z ; std::vector<ItemPriceInfo,std::allocator<ItemPriceInfo> >::_Destroy
; Function compile flags: /Ogtp
; File c:\program files (x86)\microsoft visual studio 10.0\vc\include\vector
;	COMDAT ?_Destroy@?$vector@UItemPriceInfo@@V?$allocator@UItemPriceInfo@@@std@@@std@@IAEXPAUItemPriceInfo@@0@Z
_TEXT	SEGMENT
__First$ = 8						; size = 4
__Last$ = 12						; size = 4
?_Destroy@?$vector@UItemPriceInfo@@V?$allocator@UItemPriceInfo@@@std@@@std@@IAEXPAUItemPriceInfo@@0@Z PROC ; std::vector<ItemPriceInfo,std::allocator<ItemPriceInfo> >::_Destroy, COMDAT
; _this$ = ecx

; 1270 : 		_Destroy_range(_First, _Last, this->_Alval);
; 1271 : 		}

  00000	c2 08 00	 ret	 8
?_Destroy@?$vector@UItemPriceInfo@@V?$allocator@UItemPriceInfo@@@std@@@std@@IAEXPAUItemPriceInfo@@0@Z ENDP ; std::vector<ItemPriceInfo,std::allocator<ItemPriceInfo> >::_Destroy
_TEXT	ENDS
PUBLIC	??$_Umove@PAUItemPriceInfo@@@?$vector@UItemPriceInfo@@V?$allocator@UItemPriceInfo@@@std@@@std@@IAEPAUItemPriceInfo@@PAU2@00@Z ; std::vector<ItemPriceInfo,std::allocator<ItemPriceInfo> >::_Umove<ItemPriceInfo *>
; Function compile flags: /Ogtp
;	COMDAT ??$_Umove@PAUItemPriceInfo@@@?$vector@UItemPriceInfo@@V?$allocator@UItemPriceInfo@@@std@@@std@@IAEPAUItemPriceInfo@@PAU2@00@Z
_TEXT	SEGMENT
__First$ = 8						; size = 4
__Last$ = 12						; size = 4
__Cat$186070 = 16					; size = 1
__Ptr$ = 16						; size = 4
??$_Umove@PAUItemPriceInfo@@@?$vector@UItemPriceInfo@@V?$allocator@UItemPriceInfo@@@std@@@std@@IAEPAUItemPriceInfo@@PAU2@00@Z PROC ; std::vector<ItemPriceInfo,std::allocator<ItemPriceInfo> >::_Umove<ItemPriceInfo *>, COMDAT
; _this$ = ecx

; 1322 : 		pointer _Umove(_Iter _First, _Iter _Last, pointer _Ptr)

  00000	55		 push	 ebp
  00001	8b ec		 mov	 ebp, esp

; 1323 : 		{	// move initializing [_First, _Last), using allocator
; 1324 : 		return (_Uninitialized_move(_First, _Last,
; 1325 : 			_Ptr, this->_Alval));

  00003	8b 45 10	 mov	 eax, DWORD PTR __Cat$186070[ebp]
  00006	8b 55 0c	 mov	 edx, DWORD PTR __Last$[ebp]
  00009	50		 push	 eax
  0000a	8b 45 08	 mov	 eax, DWORD PTR __First$[ebp]
  0000d	6a 00		 push	 0
  0000f	83 c1 0c	 add	 ecx, 12			; 0000000cH
  00012	51		 push	 ecx
  00013	8b 4d 10	 mov	 ecx, DWORD PTR __Ptr$[ebp]
  00016	51		 push	 ecx
  00017	52		 push	 edx
  00018	50		 push	 eax
  00019	e8 00 00 00 00	 call	 ??$_Uninit_move@PAUItemPriceInfo@@PAU1@V?$allocator@UItemPriceInfo@@@std@@U1@@std@@YAPAUItemPriceInfo@@PAU1@00AAV?$allocator@UItemPriceInfo@@@0@0U_Nonscalar_ptr_iterator_tag@0@@Z ; std::_Uninit_move<ItemPriceInfo *,ItemPriceInfo *,std::allocator<ItemPriceInfo>,ItemPriceInfo>
  0001e	83 c4 18	 add	 esp, 24			; 00000018H

; 1326 : 		}

  00021	5d		 pop	 ebp
  00022	c2 0c 00	 ret	 12			; 0000000cH
??$_Umove@PAUItemPriceInfo@@@?$vector@UItemPriceInfo@@V?$allocator@UItemPriceInfo@@@std@@@std@@IAEPAUItemPriceInfo@@PAU2@00@Z ENDP ; std::vector<ItemPriceInfo,std::allocator<ItemPriceInfo> >::_Umove<ItemPriceInfo *>
_TEXT	ENDS
PUBLIC	?erase@?$vector@UItemPriceInfo@@V?$allocator@UItemPriceInfo@@@std@@@std@@QAE?AV?$_Vector_iterator@V?$_Vector_val@UItemPriceInfo@@V?$allocator@UItemPriceInfo@@@std@@@std@@@2@V?$_Vector_const_iterator@V?$_Vector_val@UItemPriceInfo@@V?$allocator@UItemPriceInfo@@@std@@@std@@@2@0@Z ; std::vector<ItemPriceInfo,std::allocator<ItemPriceInfo> >::erase
; Function compile flags: /Ogtp
;	COMDAT ?erase@?$vector@UItemPriceInfo@@V?$allocator@UItemPriceInfo@@@std@@@std@@QAE?AV?$_Vector_iterator@V?$_Vector_val@UItemPriceInfo@@V?$allocator@UItemPriceInfo@@@std@@@std@@@2@V?$_Vector_const_iterator@V?$_Vector_val@UItemPriceInfo@@V?$allocator@UItemPriceInfo@@@std@@@std@@@2@0@Z
_TEXT	SEGMENT
___$ReturnUdt$ = 8					; size = 4
__First_arg$ = 12					; size = 4
__Last_arg$ = 16					; size = 4
?erase@?$vector@UItemPriceInfo@@V?$allocator@UItemPriceInfo@@@std@@@std@@QAE?AV?$_Vector_iterator@V?$_Vector_val@UItemPriceInfo@@V?$allocator@UItemPriceInfo@@@std@@@std@@@2@V?$_Vector_const_iterator@V?$_Vector_val@UItemPriceInfo@@V?$allocator@UItemPriceInfo@@@std@@@std@@@2@0@Z PROC ; std::vector<ItemPriceInfo,std::allocator<ItemPriceInfo> >::erase, COMDAT
; _this$ = ecx

; 1190 : 		{	// erase [_First, _Last)

  00000	55		 push	 ebp
  00001	8b ec		 mov	 ebp, esp

; 1191 : 		iterator _First = _Make_iter(_First_arg);

  00003	8b 55 0c	 mov	 edx, DWORD PTR __First_arg$[ebp]

; 1192 : 		iterator _Last = _Make_iter(_Last_arg);
; 1193 : 
; 1194 : 		if (_First != _Last)

  00006	8b 45 10	 mov	 eax, DWORD PTR __Last_arg$[ebp]
  00009	57		 push	 edi
  0000a	8b fa		 mov	 edi, edx
  0000c	3b d0		 cmp	 edx, eax
  0000e	74 2f		 je	 SHORT $LN47@erase

; 1195 : 			{	// worth doing, copy down over hole
; 1196 :  #if _ITERATOR_DEBUG_LEVEL == 2
; 1197 : 			if (_Last < _First || _VICONT(_First) != this
; 1198 : 				|| _VIPTR(_First) < this->_Myfirst
; 1199 : 				|| this->_Mylast < _VIPTR(_Last))
; 1200 : 				_DEBUG_ERROR("vector erase iterator outside range");
; 1201 : 			pointer _Ptr = _Move(_VIPTR(_Last), this->_Mylast,
; 1202 : 				_VIPTR(_First));
; 1203 : 			_Orphan_range(_VIPTR(_First), this->_Mylast);
; 1204 : 
; 1205 :  #else /* _ITERATOR_DEBUG_LEVEL == 2 */
; 1206 : 			pointer _Ptr = _Move(_VIPTR(_Last), this->_Mylast,
; 1207 : 				_VIPTR(_First));

  00010	56		 push	 esi
  00011	8b 71 04	 mov	 esi, DWORD PTR [ecx+4]
  00014	3b c6		 cmp	 eax, esi
  00016	74 23		 je	 SHORT $LN30@erase
  00018	53		 push	 ebx
  00019	8d a4 24 00 00
	00 00		 npad	 7
$LL32@erase:
  00020	8b 18		 mov	 ebx, DWORD PTR [eax]
  00022	89 1a		 mov	 DWORD PTR [edx], ebx
  00024	8b 58 04	 mov	 ebx, DWORD PTR [eax+4]
  00027	89 5a 04	 mov	 DWORD PTR [edx+4], ebx
  0002a	8b 58 08	 mov	 ebx, DWORD PTR [eax+8]
  0002d	89 5a 08	 mov	 DWORD PTR [edx+8], ebx
  00030	83 c0 0c	 add	 eax, 12			; 0000000cH
  00033	83 c2 0c	 add	 edx, 12			; 0000000cH
  00036	3b c6		 cmp	 eax, esi
  00038	75 e6		 jne	 SHORT $LL32@erase
  0003a	5b		 pop	 ebx
$LN30@erase:

; 1208 :  #endif /* _ITERATOR_DEBUG_LEVEL == 2 */
; 1209 : 
; 1210 : 			_Destroy(_Ptr, this->_Mylast);
; 1211 : 			this->_Mylast = _Ptr;

  0003b	89 51 04	 mov	 DWORD PTR [ecx+4], edx
  0003e	5e		 pop	 esi
$LN47@erase:

; 1212 : 			}
; 1213 : 		return (_Make_iter(_First));

  0003f	8b 45 08	 mov	 eax, DWORD PTR ___$ReturnUdt$[ebp]
  00042	89 38		 mov	 DWORD PTR [eax], edi
  00044	5f		 pop	 edi

; 1214 : 		}

  00045	5d		 pop	 ebp
  00046	c2 0c 00	 ret	 12			; 0000000cH
?erase@?$vector@UItemPriceInfo@@V?$allocator@UItemPriceInfo@@@std@@@std@@QAE?AV?$_Vector_iterator@V?$_Vector_val@UItemPriceInfo@@V?$allocator@UItemPriceInfo@@@std@@@std@@@2@V?$_Vector_const_iterator@V?$_Vector_val@UItemPriceInfo@@V?$allocator@UItemPriceInfo@@@std@@@std@@@2@0@Z ENDP ; std::vector<ItemPriceInfo,std::allocator<ItemPriceInfo> >::erase
_TEXT	ENDS
PUBLIC	?_Tidy@?$vector@UItemPriceInfo@@V?$allocator@UItemPriceInfo@@@std@@@std@@IAEXXZ ; std::vector<ItemPriceInfo,std::allocator<ItemPriceInfo> >::_Tidy
; Function compile flags: /Ogtp
;	COMDAT ?_Tidy@?$vector@UItemPriceInfo@@V?$allocator@UItemPriceInfo@@@std@@@std@@IAEXXZ
_TEXT	SEGMENT
?_Tidy@?$vector@UItemPriceInfo@@V?$allocator@UItemPriceInfo@@@std@@@std@@IAEXXZ PROC ; std::vector<ItemPriceInfo,std::allocator<ItemPriceInfo> >::_Tidy, COMDAT
; _this$ = ecx

; 1301 : 		{	// free all storage

  00000	56		 push	 esi
  00001	8b f1		 mov	 esi, ecx

; 1302 : 		if (this->_Myfirst != 0)

  00003	8b 06		 mov	 eax, DWORD PTR [esi]
  00005	85 c0		 test	 eax, eax
  00007	74 09		 je	 SHORT $LN6@Tidy

; 1303 : 			{	// something to free, destroy and deallocate it
; 1304 : 			this->_Orphan_all();
; 1305 : 			_Destroy(this->_Myfirst, this->_Mylast);
; 1306 : 			this->_Alval.deallocate(this->_Myfirst,
; 1307 : 				this->_Myend - this->_Myfirst);

  00009	50		 push	 eax
  0000a	e8 00 00 00 00	 call	 ??3@YAXPAX@Z		; operator delete
  0000f	83 c4 04	 add	 esp, 4
$LN6@Tidy:

; 1308 : 			}
; 1309 : 		this->_Myfirst = 0;

  00012	c7 06 00 00 00
	00		 mov	 DWORD PTR [esi], 0

; 1310 : 		this->_Mylast = 0;

  00018	c7 46 04 00 00
	00 00		 mov	 DWORD PTR [esi+4], 0

; 1311 : 		this->_Myend = 0;

  0001f	c7 46 08 00 00
	00 00		 mov	 DWORD PTR [esi+8], 0
  00026	5e		 pop	 esi

; 1312 : 		}

  00027	c3		 ret	 0
?_Tidy@?$vector@UItemPriceInfo@@V?$allocator@UItemPriceInfo@@@std@@@std@@IAEXXZ ENDP ; std::vector<ItemPriceInfo,std::allocator<ItemPriceInfo> >::_Tidy
_TEXT	ENDS
PUBLIC	?reserve@?$vector@UItemPriceInfo@@V?$allocator@UItemPriceInfo@@@std@@@std@@QAEXI@Z ; std::vector<ItemPriceInfo,std::allocator<ItemPriceInfo> >::reserve
;	COMDAT xdata$x
; File c:\program files (x86)\microsoft visual studio 10.0\vc\include\xutility
xdata$x	SEGMENT
__catchsym$?reserve@?$vector@UItemPriceInfo@@V?$allocator@UItemPriceInfo@@@std@@@std@@QAEXI@Z$2 DD 040H
	DD	00H
	DD	00H
	DD	FLAT:__catch$?reserve@?$vector@UItemPriceInfo@@V?$allocator@UItemPriceInfo@@@std@@@std@@QAEXI@Z$0
__unwindtable$?reserve@?$vector@UItemPriceInfo@@V?$allocator@UItemPriceInfo@@@std@@@std@@QAEXI@Z DD 0ffffffffH
	DD	00H
	DD	0ffffffffH
	DD	00H
__tryblocktable$?reserve@?$vector@UItemPriceInfo@@V?$allocator@UItemPriceInfo@@@std@@@std@@QAEXI@Z DD 00H
	DD	00H
	DD	01H
	DD	01H
	DD	FLAT:__catchsym$?reserve@?$vector@UItemPriceInfo@@V?$allocator@UItemPriceInfo@@@std@@@std@@QAEXI@Z$2
__ehfuncinfo$?reserve@?$vector@UItemPriceInfo@@V?$allocator@UItemPriceInfo@@@std@@@std@@QAEXI@Z DD 019930522H
	DD	02H
	DD	FLAT:__unwindtable$?reserve@?$vector@UItemPriceInfo@@V?$allocator@UItemPriceInfo@@@std@@@std@@QAEXI@Z
	DD	01H
	DD	FLAT:__tryblocktable$?reserve@?$vector@UItemPriceInfo@@V?$allocator@UItemPriceInfo@@@std@@@std@@QAEXI@Z
	DD	2 DUP(00H)
	DD	00H
	DD	01H
; Function compile flags: /Ogtp
; File c:\program files (x86)\microsoft visual studio 10.0\vc\include\vector
xdata$x	ENDS
;	COMDAT ?reserve@?$vector@UItemPriceInfo@@V?$allocator@UItemPriceInfo@@@std@@@std@@QAEXI@Z
_TEXT	SEGMENT
__Ptr$182181 = -20					; size = 4
__$EHRec$ = -16						; size = 16
__Cat$186265 = 8					; size = 1
__Count$ = 8						; size = 4
?reserve@?$vector@UItemPriceInfo@@V?$allocator@UItemPriceInfo@@@std@@@std@@QAEXI@Z PROC ; std::vector<ItemPriceInfo,std::allocator<ItemPriceInfo> >::reserve, COMDAT
; _this$ = ecx

; 746  : 		{	// determine new minimum length of allocated storage

  00000	55		 push	 ebp
  00001	8b ec		 mov	 ebp, esp
  00003	6a ff		 push	 -1
  00005	68 00 00 00 00	 push	 __ehhandler$?reserve@?$vector@UItemPriceInfo@@V?$allocator@UItemPriceInfo@@@std@@@std@@QAEXI@Z
  0000a	64 a1 00 00 00
	00		 mov	 eax, DWORD PTR fs:0
  00010	50		 push	 eax
  00011	83 ec 08	 sub	 esp, 8
  00014	53		 push	 ebx
  00015	56		 push	 esi
  00016	57		 push	 edi
  00017	a1 00 00 00 00	 mov	 eax, DWORD PTR ___security_cookie
  0001c	33 c5		 xor	 eax, ebp
  0001e	50		 push	 eax
  0001f	8d 45 f4	 lea	 eax, DWORD PTR __$EHRec$[ebp+4]
  00022	64 a3 00 00 00
	00		 mov	 DWORD PTR fs:0, eax
  00028	89 65 f0	 mov	 DWORD PTR __$EHRec$[ebp], esp
  0002b	8b f1		 mov	 esi, ecx

; 747  : 		if (max_size() < _Count)

  0002d	8b 5d 08	 mov	 ebx, DWORD PTR __Count$[ebp]
  00030	81 fb 55 55 55
	15		 cmp	 ebx, 357913941		; 15555555H
  00036	76 0a		 jbe	 SHORT $LN5@reserve

; 748  : 			_Xlen();	// result too long

  00038	68 00 00 00 00	 push	 OFFSET ??_C@_0BD@OLBABOEK@vector?$DMT?$DO?5too?5long?$AA@
  0003d	e8 00 00 00 00	 call	 ?_Xlength_error@std@@YAXPBD@Z ; std::_Xlength_error
$LN42@reserve:
$LN5@reserve:

; 749  : 		else if (capacity() < _Count)

  00042	8b 4e 08	 mov	 ecx, DWORD PTR [esi+8]
  00045	2b 0e		 sub	 ecx, DWORD PTR [esi]
  00047	b8 ab aa aa 2a	 mov	 eax, 715827883		; 2aaaaaabH
  0004c	f7 e9		 imul	 ecx
  0004e	d1 fa		 sar	 edx, 1
  00050	8b c2		 mov	 eax, edx
  00052	c1 e8 1f	 shr	 eax, 31			; 0000001fH
  00055	03 c2		 add	 eax, edx
  00057	3b c3		 cmp	 eax, ebx
  00059	73 6a		 jae	 SHORT $LN3@reserve

; 750  : 			{	// not enough room, reallocate
; 751  : 			pointer _Ptr = this->_Alval.allocate(_Count);

  0005b	8d 7e 0c	 lea	 edi, DWORD PTR [esi+12]
  0005e	53		 push	 ebx
  0005f	8b cf		 mov	 ecx, edi
  00061	e8 00 00 00 00	 call	 ?allocate@?$allocator@UItemPriceInfo@@@std@@QAEPAUItemPriceInfo@@I@Z ; std::allocator<ItemPriceInfo>::allocate

; 752  : 
; 753  : 			_TRY_BEGIN
; 754  : 			_Umove(this->_Myfirst, this->_Mylast, _Ptr);

  00066	8b 5d 08	 mov	 ebx, DWORD PTR __Cat$186265[ebp]
  00069	8b 4e 04	 mov	 ecx, DWORD PTR [esi+4]
  0006c	8b 16		 mov	 edx, DWORD PTR [esi]
  0006e	53		 push	 ebx
  0006f	6a 00		 push	 0
  00071	57		 push	 edi
  00072	50		 push	 eax
  00073	51		 push	 ecx
  00074	52		 push	 edx
  00075	89 45 ec	 mov	 DWORD PTR __Ptr$182181[ebp], eax
  00078	c7 45 fc 00 00
	00 00		 mov	 DWORD PTR __$EHRec$[ebp+12], 0
  0007f	e8 00 00 00 00	 call	 ??$_Uninit_move@PAUItemPriceInfo@@PAU1@V?$allocator@UItemPriceInfo@@@std@@U1@@std@@YAPAUItemPriceInfo@@PAU1@00AAV?$allocator@UItemPriceInfo@@@0@0U_Nonscalar_ptr_iterator_tag@0@@Z ; std::_Uninit_move<ItemPriceInfo *,ItemPriceInfo *,std::allocator<ItemPriceInfo>,ItemPriceInfo>

; 758  : 			_CATCH_END
; 759  : 
; 760  : 			size_type _Size = size();

  00084	8b 1e		 mov	 ebx, DWORD PTR [esi]
  00086	8b 4e 04	 mov	 ecx, DWORD PTR [esi+4]
  00089	2b cb		 sub	 ecx, ebx
  0008b	b8 ab aa aa 2a	 mov	 eax, 715827883		; 2aaaaaabH
  00090	f7 e9		 imul	 ecx
  00092	d1 fa		 sar	 edx, 1
  00094	8b fa		 mov	 edi, edx
  00096	c1 ef 1f	 shr	 edi, 31			; 0000001fH
  00099	83 c4 18	 add	 esp, 24			; 00000018H
  0009c	03 fa		 add	 edi, edx

; 761  : 			if (this->_Myfirst != 0)

  0009e	85 db		 test	 ebx, ebx
  000a0	74 09		 je	 SHORT $LN35@reserve

; 762  : 				{	// destroy and deallocate old array
; 763  : 				_Destroy(this->_Myfirst, this->_Mylast);
; 764  : 				this->_Alval.deallocate(this->_Myfirst,
; 765  : 					this->_Myend - this->_Myfirst);

  000a2	53		 push	 ebx
  000a3	e8 00 00 00 00	 call	 ??3@YAXPAX@Z		; operator delete
  000a8	83 c4 04	 add	 esp, 4
$LN35@reserve:

; 766  : 				}
; 767  : 
; 768  : 			this->_Orphan_all();
; 769  : 			this->_Myend = _Ptr + _Count;

  000ab	8b 45 08	 mov	 eax, DWORD PTR __Count$[ebp]
  000ae	8d 0c 40	 lea	 ecx, DWORD PTR [eax+eax*2]
  000b1	8b 45 ec	 mov	 eax, DWORD PTR __Ptr$182181[ebp]
  000b4	8d 14 88	 lea	 edx, DWORD PTR [eax+ecx*4]

; 770  : 			this->_Mylast = _Ptr + _Size;

  000b7	8d 0c 7f	 lea	 ecx, DWORD PTR [edi+edi*2]
  000ba	89 56 08	 mov	 DWORD PTR [esi+8], edx
  000bd	8d 14 88	 lea	 edx, DWORD PTR [eax+ecx*4]
  000c0	89 56 04	 mov	 DWORD PTR [esi+4], edx

; 771  : 			this->_Myfirst = _Ptr;

  000c3	89 06		 mov	 DWORD PTR [esi], eax
$LN3@reserve:

; 772  : 			}
; 773  : 		}

  000c5	8b 4d f4	 mov	 ecx, DWORD PTR __$EHRec$[ebp+4]
  000c8	64 89 0d 00 00
	00 00		 mov	 DWORD PTR fs:0, ecx
  000cf	59		 pop	 ecx
  000d0	5f		 pop	 edi
  000d1	5e		 pop	 esi
  000d2	5b		 pop	 ebx
  000d3	8b e5		 mov	 esp, ebp
  000d5	5d		 pop	 ebp
  000d6	c2 04 00	 ret	 4
__catch$?reserve@?$vector@UItemPriceInfo@@V?$allocator@UItemPriceInfo@@@std@@@std@@QAEXI@Z$0:

; 755  : 			_CATCH_ALL
; 756  : 			this->_Alval.deallocate(_Ptr, _Count);

  000d9	8b 45 ec	 mov	 eax, DWORD PTR __Ptr$182181[ebp]
  000dc	50		 push	 eax
  000dd	e8 00 00 00 00	 call	 ??3@YAXPAX@Z		; operator delete
  000e2	83 c4 04	 add	 esp, 4

; 757  : 			_RERAISE;

  000e5	6a 00		 push	 0
  000e7	6a 00		 push	 0
  000e9	e8 00 00 00 00	 call	 __CxxThrowException@8
$LN43@reserve:
$LN41@reserve:
  000ee	cc		 int	 3
_TEXT	ENDS
;	COMDAT text$x
text$x	SEGMENT
__ehhandler$?reserve@?$vector@UItemPriceInfo@@V?$allocator@UItemPriceInfo@@@std@@@std@@QAEXI@Z:
  00000	8b 54 24 08	 mov	 edx, DWORD PTR [esp+8]
  00004	8d 42 0c	 lea	 eax, DWORD PTR [edx+12]
  00007	8b 4a e8	 mov	 ecx, DWORD PTR [edx-24]
  0000a	33 c8		 xor	 ecx, eax
  0000c	e8 00 00 00 00	 call	 @__security_check_cookie@4
  00011	b8 00 00 00 00	 mov	 eax, OFFSET __ehfuncinfo$?reserve@?$vector@UItemPriceInfo@@V?$allocator@UItemPriceInfo@@@std@@@std@@QAEXI@Z
  00016	e9 00 00 00 00	 jmp	 ___CxxFrameHandler3
text$x	ENDS
?reserve@?$vector@UItemPriceInfo@@V?$allocator@UItemPriceInfo@@@std@@@std@@QAEXI@Z ENDP ; std::vector<ItemPriceInfo,std::allocator<ItemPriceInfo> >::reserve
PUBLIC	??1?$vector@UItemPriceInfo@@V?$allocator@UItemPriceInfo@@@std@@@std@@QAE@XZ ; std::vector<ItemPriceInfo,std::allocator<ItemPriceInfo> >::~vector<ItemPriceInfo,std::allocator<ItemPriceInfo> >
; Function compile flags: /Ogtp
;	COMDAT ??1?$vector@UItemPriceInfo@@V?$allocator@UItemPriceInfo@@@std@@@std@@QAE@XZ
_TEXT	SEGMENT
??1?$vector@UItemPriceInfo@@V?$allocator@UItemPriceInfo@@@std@@@std@@QAE@XZ PROC ; std::vector<ItemPriceInfo,std::allocator<ItemPriceInfo> >::~vector<ItemPriceInfo,std::allocator<ItemPriceInfo> >, COMDAT
; _this$ = ecx

; 704  : 		{	// destroy the object

  00000	56		 push	 esi
  00001	8b f1		 mov	 esi, ecx

; 705  : 		_Tidy();

  00003	8b 06		 mov	 eax, DWORD PTR [esi]
  00005	85 c0		 test	 eax, eax
  00007	74 09		 je	 SHORT $LN8@vector@2
  00009	50		 push	 eax
  0000a	e8 00 00 00 00	 call	 ??3@YAXPAX@Z		; operator delete
  0000f	83 c4 04	 add	 esp, 4
$LN8@vector@2:
  00012	c7 06 00 00 00
	00		 mov	 DWORD PTR [esi], 0
  00018	c7 46 04 00 00
	00 00		 mov	 DWORD PTR [esi+4], 0
  0001f	c7 46 08 00 00
	00 00		 mov	 DWORD PTR [esi+8], 0
  00026	5e		 pop	 esi

; 706  : 		}

  00027	c3		 ret	 0
??1?$vector@UItemPriceInfo@@V?$allocator@UItemPriceInfo@@@std@@@std@@QAE@XZ ENDP ; std::vector<ItemPriceInfo,std::allocator<ItemPriceInfo> >::~vector<ItemPriceInfo,std::allocator<ItemPriceInfo> >
_TEXT	ENDS
PUBLIC	?clear@?$vector@UItemPriceInfo@@V?$allocator@UItemPriceInfo@@@std@@@std@@QAEXXZ ; std::vector<ItemPriceInfo,std::allocator<ItemPriceInfo> >::clear
; Function compile flags: /Ogtp
;	COMDAT ?clear@?$vector@UItemPriceInfo@@V?$allocator@UItemPriceInfo@@@std@@@std@@QAEXXZ
_TEXT	SEGMENT
?clear@?$vector@UItemPriceInfo@@V?$allocator@UItemPriceInfo@@@std@@@std@@QAEXXZ PROC ; std::vector<ItemPriceInfo,std::allocator<ItemPriceInfo> >::clear, COMDAT
; _this$ = ecx

; 1218 : 		erase(begin(), end());

  00000	8b 11		 mov	 edx, DWORD PTR [ecx]
  00002	56		 push	 esi
  00003	8b 71 04	 mov	 esi, DWORD PTR [ecx+4]
  00006	3b d6		 cmp	 edx, esi
  00008	74 25		 je	 SHORT $LN19@clear
  0000a	8b c6		 mov	 eax, esi
  0000c	3b f6		 cmp	 esi, esi
  0000e	74 1c		 je	 SHORT $LN48@clear
  00010	57		 push	 edi
$LL50@clear:
  00011	8b 38		 mov	 edi, DWORD PTR [eax]
  00013	89 3a		 mov	 DWORD PTR [edx], edi
  00015	8b 78 04	 mov	 edi, DWORD PTR [eax+4]
  00018	89 7a 04	 mov	 DWORD PTR [edx+4], edi
  0001b	8b 78 08	 mov	 edi, DWORD PTR [eax+8]
  0001e	89 7a 08	 mov	 DWORD PTR [edx+8], edi
  00021	83 c0 0c	 add	 eax, 12			; 0000000cH
  00024	83 c2 0c	 add	 edx, 12			; 0000000cH
  00027	3b c6		 cmp	 eax, esi
  00029	75 e6		 jne	 SHORT $LL50@clear
  0002b	5f		 pop	 edi
$LN48@clear:
  0002c	89 51 04	 mov	 DWORD PTR [ecx+4], edx
$LN19@clear:
  0002f	5e		 pop	 esi

; 1219 : 		}

  00030	c3		 ret	 0
?clear@?$vector@UItemPriceInfo@@V?$allocator@UItemPriceInfo@@@std@@@std@@QAEXXZ ENDP ; std::vector<ItemPriceInfo,std::allocator<ItemPriceInfo> >::clear
_TEXT	ENDS
PUBLIC	?_Reserve@?$vector@UItemPriceInfo@@V?$allocator@UItemPriceInfo@@@std@@@std@@IAEXI@Z ; std::vector<ItemPriceInfo,std::allocator<ItemPriceInfo> >::_Reserve
; Function compile flags: /Ogtp
;	COMDAT ?_Reserve@?$vector@UItemPriceInfo@@V?$allocator@UItemPriceInfo@@@std@@@std@@IAEXI@Z
_TEXT	SEGMENT
__Count$ = 8						; size = 4
?_Reserve@?$vector@UItemPriceInfo@@V?$allocator@UItemPriceInfo@@@std@@@std@@IAEXI@Z PROC ; std::vector<ItemPriceInfo,std::allocator<ItemPriceInfo> >::_Reserve, COMDAT
; _this$ = ecx

; 1290 : 		{	// ensure room for _Count new elements, grow exponentially

  00000	55		 push	 ebp
  00001	8b ec		 mov	 ebp, esp

; 1291 : 		size_type _Size = size();

  00003	8b 51 04	 mov	 edx, DWORD PTR [ecx+4]
  00006	56		 push	 esi
  00007	57		 push	 edi
  00008	8b 39		 mov	 edi, DWORD PTR [ecx]
  0000a	2b d7		 sub	 edx, edi
  0000c	b8 ab aa aa 2a	 mov	 eax, 715827883		; 2aaaaaabH
  00011	f7 ea		 imul	 edx

; 1292 : 		if (max_size() - _Count < _Size)

  00013	8b 45 08	 mov	 eax, DWORD PTR __Count$[ebp]
  00016	d1 fa		 sar	 edx, 1
  00018	8b f2		 mov	 esi, edx
  0001a	c1 ee 1f	 shr	 esi, 31			; 0000001fH
  0001d	03 f2		 add	 esi, edx
  0001f	ba 55 55 55 15	 mov	 edx, 357913941		; 15555555H
  00024	2b d0		 sub	 edx, eax
  00026	3b d6		 cmp	 edx, esi
  00028	73 0a		 jae	 SHORT $LN4@Reserve

; 1293 : 			_Xlen();

  0002a	68 00 00 00 00	 push	 OFFSET ??_C@_0BD@OLBABOEK@vector?$DMT?$DO?5too?5long?$AA@
  0002f	e8 00 00 00 00	 call	 ?_Xlength_error@std@@YAXPBD@Z ; std::_Xlength_error
$LN34@Reserve:
$LN4@Reserve:

; 1294 : 		else if ((_Size += _Count) <= capacity())

  00034	8b 51 08	 mov	 edx, DWORD PTR [ecx+8]
  00037	03 f0		 add	 esi, eax
  00039	2b d7		 sub	 edx, edi
  0003b	b8 ab aa aa 2a	 mov	 eax, 715827883		; 2aaaaaabH
  00040	f7 ea		 imul	 edx
  00042	d1 fa		 sar	 edx, 1
  00044	8b c2		 mov	 eax, edx
  00046	c1 e8 1f	 shr	 eax, 31			; 0000001fH
  00049	03 c2		 add	 eax, edx
  0004b	3b f0		 cmp	 esi, eax
  0004d	76 21		 jbe	 SHORT $LN1@Reserve

; 1295 : 			;
; 1296 : 		else
; 1297 : 			reserve(_Grow_to(_Size));

  0004f	8b d0		 mov	 edx, eax
  00051	d1 ea		 shr	 edx, 1
  00053	bf 55 55 55 15	 mov	 edi, 357913941		; 15555555H
  00058	2b fa		 sub	 edi, edx
  0005a	3b f8		 cmp	 edi, eax
  0005c	73 04		 jae	 SHORT $LN23@Reserve
  0005e	33 c0		 xor	 eax, eax
  00060	eb 02		 jmp	 SHORT $LN24@Reserve
$LN23@Reserve:
  00062	03 c2		 add	 eax, edx
$LN24@Reserve:
  00064	3b c6		 cmp	 eax, esi
  00066	73 02		 jae	 SHORT $LN20@Reserve
  00068	8b c6		 mov	 eax, esi
$LN20@Reserve:
  0006a	50		 push	 eax
  0006b	e8 00 00 00 00	 call	 ?reserve@?$vector@UItemPriceInfo@@V?$allocator@UItemPriceInfo@@@std@@@std@@QAEXI@Z ; std::vector<ItemPriceInfo,std::allocator<ItemPriceInfo> >::reserve
$LN1@Reserve:
  00070	5f		 pop	 edi
  00071	5e		 pop	 esi

; 1298 : 		}

  00072	5d		 pop	 ebp
  00073	c2 04 00	 ret	 4
$LN33@Reserve:
?_Reserve@?$vector@UItemPriceInfo@@V?$allocator@UItemPriceInfo@@@std@@@std@@IAEXI@Z ENDP ; std::vector<ItemPriceInfo,std::allocator<ItemPriceInfo> >::_Reserve
_TEXT	ENDS
PUBLIC	?push_back@?$vector@UItemPriceInfo@@V?$allocator@UItemPriceInfo@@@std@@@std@@QAEX$$QAUItemPriceInfo@@@Z ; std::vector<ItemPriceInfo,std::allocator<ItemPriceInfo> >::push_back
; Function compile flags: /Ogtp
;	COMDAT ?push_back@?$vector@UItemPriceInfo@@V?$allocator@UItemPriceInfo@@@std@@@std@@QAEX$$QAUItemPriceInfo@@@Z
_TEXT	SEGMENT
__Val$ = 8						; size = 4
?push_back@?$vector@UItemPriceInfo@@V?$allocator@UItemPriceInfo@@@std@@@std@@QAEX$$QAUItemPriceInfo@@@Z PROC ; std::vector<ItemPriceInfo,std::allocator<ItemPriceInfo> >::push_back, COMDAT
; _this$ = ecx

; 631  : 		{	// insert element at end

  00000	55		 push	 ebp
  00001	8b ec		 mov	 ebp, esp
  00003	56		 push	 esi
  00004	8b f1		 mov	 esi, ecx

; 632  : 		if (_Inside(_STD addressof(_Val)))

  00006	8b 4e 04	 mov	 ecx, DWORD PTR [esi+4]
  00009	57		 push	 edi
  0000a	8b 7d 08	 mov	 edi, DWORD PTR __Val$[ebp]
  0000d	3b f9		 cmp	 edi, ecx
  0000f	73 49		 jae	 SHORT $LN4@push_back
  00011	8b 06		 mov	 eax, DWORD PTR [esi]
  00013	3b c7		 cmp	 eax, edi
  00015	77 43		 ja	 SHORT $LN4@push_back

; 633  : 			{	// push back an element
; 634  : 			size_type _Idx = _STD addressof(_Val) - this->_Myfirst;

  00017	2b f8		 sub	 edi, eax
  00019	b8 ab aa aa 2a	 mov	 eax, 715827883		; 2aaaaaabH
  0001e	f7 ef		 imul	 edi
  00020	d1 fa		 sar	 edx, 1
  00022	8b fa		 mov	 edi, edx
  00024	c1 ef 1f	 shr	 edi, 31			; 0000001fH
  00027	03 fa		 add	 edi, edx

; 635  : 			if (this->_Mylast == this->_Myend)

  00029	3b 4e 08	 cmp	 ecx, DWORD PTR [esi+8]
  0002c	75 09		 jne	 SHORT $LN3@push_back

; 636  : 				_Reserve(1);

  0002e	6a 01		 push	 1
  00030	8b ce		 mov	 ecx, esi
  00032	e8 00 00 00 00	 call	 ?_Reserve@?$vector@UItemPriceInfo@@V?$allocator@UItemPriceInfo@@@std@@@std@@IAEXI@Z ; std::vector<ItemPriceInfo,std::allocator<ItemPriceInfo> >::_Reserve
$LN3@push_back:

; 637  : 			_Orphan_range(this->_Mylast, this->_Mylast);
; 638  : 			_Cons_val(this->_Alval,
; 639  : 				this->_Mylast,
; 640  : 				_STD forward<_Ty>(this->_Myfirst[_Idx]));

  00037	8b 0e		 mov	 ecx, DWORD PTR [esi]
  00039	8d 04 7f	 lea	 eax, DWORD PTR [edi+edi*2]
  0003c	8d 14 81	 lea	 edx, DWORD PTR [ecx+eax*4]
  0003f	8b 46 04	 mov	 eax, DWORD PTR [esi+4]
  00042	52		 push	 edx
  00043	50		 push	 eax
  00044	8d 4e 0c	 lea	 ecx, DWORD PTR [esi+12]
  00047	51		 push	 ecx

; 647  : 			_Orphan_range(this->_Mylast, this->_Mylast);
; 648  : 			_Cons_val(this->_Alval,
; 649  : 				this->_Mylast,
; 650  : 				_STD forward<_Ty>(_Val));

  00048	e8 00 00 00 00	 call	 ??$_Cons_val@V?$allocator@UItemPriceInfo@@@std@@UItemPriceInfo@@U3@@std@@YAXAAV?$allocator@UItemPriceInfo@@@0@PAUItemPriceInfo@@$$QAU2@@Z ; std::_Cons_val<std::allocator<ItemPriceInfo>,ItemPriceInfo,ItemPriceInfo>
  0004d	83 c4 0c	 add	 esp, 12			; 0000000cH

; 651  : 			++this->_Mylast;

  00050	83 46 04 0c	 add	 DWORD PTR [esi+4], 12	; 0000000cH
  00054	5f		 pop	 edi
  00055	5e		 pop	 esi

; 652  : 			}
; 653  : 		}

  00056	5d		 pop	 ebp
  00057	c2 04 00	 ret	 4
$LN4@push_back:

; 641  : 			++this->_Mylast;
; 642  : 			}
; 643  : 		else
; 644  : 			{	// push back a non-element
; 645  : 			if (this->_Mylast == this->_Myend)

  0005a	3b 4e 08	 cmp	 ecx, DWORD PTR [esi+8]
  0005d	75 09		 jne	 SHORT $LN1@push_back

; 646  : 				_Reserve(1);

  0005f	6a 01		 push	 1
  00061	8b ce		 mov	 ecx, esi
  00063	e8 00 00 00 00	 call	 ?_Reserve@?$vector@UItemPriceInfo@@V?$allocator@UItemPriceInfo@@@std@@@std@@IAEXI@Z ; std::vector<ItemPriceInfo,std::allocator<ItemPriceInfo> >::_Reserve
$LN1@push_back:

; 647  : 			_Orphan_range(this->_Mylast, this->_Mylast);
; 648  : 			_Cons_val(this->_Alval,
; 649  : 				this->_Mylast,
; 650  : 				_STD forward<_Ty>(_Val));

  00068	8b 56 04	 mov	 edx, DWORD PTR [esi+4]
  0006b	57		 push	 edi
  0006c	52		 push	 edx
  0006d	8d 46 0c	 lea	 eax, DWORD PTR [esi+12]
  00070	50		 push	 eax
  00071	e8 00 00 00 00	 call	 ??$_Cons_val@V?$allocator@UItemPriceInfo@@@std@@UItemPriceInfo@@U3@@std@@YAXAAV?$allocator@UItemPriceInfo@@@0@PAUItemPriceInfo@@$$QAU2@@Z ; std::_Cons_val<std::allocator<ItemPriceInfo>,ItemPriceInfo,ItemPriceInfo>
  00076	83 c4 0c	 add	 esp, 12			; 0000000cH

; 651  : 			++this->_Mylast;

  00079	83 46 04 0c	 add	 DWORD PTR [esi+4], 12	; 0000000cH
  0007d	5f		 pop	 edi
  0007e	5e		 pop	 esi

; 652  : 			}
; 653  : 		}

  0007f	5d		 pop	 ebp
  00080	c2 04 00	 ret	 4
?push_back@?$vector@UItemPriceInfo@@V?$allocator@UItemPriceInfo@@@std@@@std@@QAEX$$QAUItemPriceInfo@@@Z ENDP ; std::vector<ItemPriceInfo,std::allocator<ItemPriceInfo> >::push_back
_TEXT	ENDS
PUBLIC	??_7ItemPrice@@6B@				; ItemPrice::`vftable'
PUBLIC	??0ItemPrice@@QAE@XZ				; ItemPrice::ItemPrice
PUBLIC	??_R4ItemPrice@@6B@				; ItemPrice::`RTTI Complete Object Locator'
PUBLIC	??_R0?AVItemPrice@@@8				; ItemPrice `RTTI Type Descriptor'
PUBLIC	??_R3ItemPrice@@8				; ItemPrice::`RTTI Class Hierarchy Descriptor'
PUBLIC	??_R2ItemPrice@@8				; ItemPrice::`RTTI Base Class Array'
PUBLIC	??_R1A@?0A@EA@ItemPrice@@8			; ItemPrice::`RTTI Base Class Descriptor at (0,-1,0,64)'
EXTRN	??_EItemPrice@@UAEPAXI@Z:PROC			; ItemPrice::`vector deleting destructor'
;	COMDAT ??_R1A@?0A@EA@ItemPrice@@8
; File c:\program files (x86)\microsoft visual studio 10.0\vc\include\xmemory
rdata$r	SEGMENT
??_R1A@?0A@EA@ItemPrice@@8 DD FLAT:??_R0?AVItemPrice@@@8 ; ItemPrice::`RTTI Base Class Descriptor at (0,-1,0,64)'
	DD	00H
	DD	00H
	DD	0ffffffffH
	DD	00H
	DD	040H
	DD	FLAT:??_R3ItemPrice@@8
rdata$r	ENDS
;	COMDAT ??_R2ItemPrice@@8
rdata$r	SEGMENT
??_R2ItemPrice@@8 DD FLAT:??_R1A@?0A@EA@ItemPrice@@8	; ItemPrice::`RTTI Base Class Array'
rdata$r	ENDS
;	COMDAT ??_R3ItemPrice@@8
rdata$r	SEGMENT
??_R3ItemPrice@@8 DD 00H				; ItemPrice::`RTTI Class Hierarchy Descriptor'
	DD	00H
	DD	01H
	DD	FLAT:??_R2ItemPrice@@8
rdata$r	ENDS
;	COMDAT ??_R0?AVItemPrice@@@8
_DATA	SEGMENT
??_R0?AVItemPrice@@@8 DD FLAT:??_7type_info@@6B@	; ItemPrice `RTTI Type Descriptor'
	DD	00H
	DB	'.?AVItemPrice@@', 00H
_DATA	ENDS
;	COMDAT ??_R4ItemPrice@@6B@
rdata$r	SEGMENT
??_R4ItemPrice@@6B@ DD 00H				; ItemPrice::`RTTI Complete Object Locator'
	DD	00H
	DD	00H
	DD	FLAT:??_R0?AVItemPrice@@@8
	DD	FLAT:??_R3ItemPrice@@8
rdata$r	ENDS
;	COMDAT ??_7ItemPrice@@6B@
CONST	SEGMENT
??_7ItemPrice@@6B@ DD FLAT:??_R4ItemPrice@@6B@		; ItemPrice::`vftable'
	DD	FLAT:??_EItemPrice@@UAEPAXI@Z
; Function compile flags: /Ogtp
; File c:\muserver_dev\development\mu-s8ep2-repack\gameserver\source\itemprice.cpp
CONST	ENDS
;	COMDAT ??0ItemPrice@@QAE@XZ
_TEXT	SEGMENT
??0ItemPrice@@QAE@XZ PROC				; ItemPrice::ItemPrice, COMDAT
; _this$ = ecx

; 13   : {

  00000	8b c1		 mov	 eax, ecx
  00002	33 c9		 xor	 ecx, ecx
  00004	c7 00 00 00 00
	00		 mov	 DWORD PTR [eax], OFFSET ??_7ItemPrice@@6B@
  0000a	89 48 04	 mov	 DWORD PTR [eax+4], ecx
  0000d	89 48 08	 mov	 DWORD PTR [eax+8], ecx
  00010	89 48 0c	 mov	 DWORD PTR [eax+12], ecx

; 14   : 
; 15   : }

  00013	c3		 ret	 0
??0ItemPrice@@QAE@XZ ENDP				; ItemPrice::ItemPrice
_TEXT	ENDS
PUBLIC	??1ItemPrice@@UAE@XZ				; ItemPrice::~ItemPrice
; Function compile flags: /Ogtp
;	COMDAT ??1ItemPrice@@UAE@XZ
_TEXT	SEGMENT
??1ItemPrice@@UAE@XZ PROC				; ItemPrice::~ItemPrice, COMDAT
; _this$ = ecx

; 19   : {

  00000	56		 push	 esi
  00001	8b f1		 mov	 esi, ecx
  00003	c7 06 00 00 00
	00		 mov	 DWORD PTR [esi], OFFSET ??_7ItemPrice@@6B@

; 20   : 
; 21   : }

  00009	8b 46 04	 mov	 eax, DWORD PTR [esi+4]
  0000c	85 c0		 test	 eax, eax
  0000e	74 09		 je	 SHORT $LN11@ItemPrice
  00010	50		 push	 eax
  00011	e8 00 00 00 00	 call	 ??3@YAXPAX@Z		; operator delete
  00016	83 c4 04	 add	 esp, 4
$LN11@ItemPrice:
  00019	c7 46 04 00 00
	00 00		 mov	 DWORD PTR [esi+4], 0
  00020	c7 46 08 00 00
	00 00		 mov	 DWORD PTR [esi+8], 0
  00027	c7 46 0c 00 00
	00 00		 mov	 DWORD PTR [esi+12], 0
  0002e	5e		 pop	 esi
  0002f	c3		 ret	 0
??1ItemPrice@@UAE@XZ ENDP				; ItemPrice::~ItemPrice
_TEXT	ENDS
PUBLIC	?push_back@?$vector@UItemPriceInfo@@V?$allocator@UItemPriceInfo@@@std@@@std@@QAEXABUItemPriceInfo@@@Z ; std::vector<ItemPriceInfo,std::allocator<ItemPriceInfo> >::push_back
; Function compile flags: /Ogtp
; File c:\program files (x86)\microsoft visual studio 10.0\vc\include\vector
;	COMDAT ?push_back@?$vector@UItemPriceInfo@@V?$allocator@UItemPriceInfo@@@std@@@std@@QAEXABUItemPriceInfo@@@Z
_TEXT	SEGMENT
__Val$ = 8						; size = 4
?push_back@?$vector@UItemPriceInfo@@V?$allocator@UItemPriceInfo@@@std@@@std@@QAEXABUItemPriceInfo@@@Z PROC ; std::vector<ItemPriceInfo,std::allocator<ItemPriceInfo> >::push_back, COMDAT
; _this$ = ecx

; 976  : 		{	// insert element at end

  00000	55		 push	 ebp
  00001	8b ec		 mov	 ebp, esp
  00003	56		 push	 esi
  00004	8b f1		 mov	 esi, ecx

; 977  : 		if (_Inside(_STD addressof(_Val)))

  00006	8b 4e 04	 mov	 ecx, DWORD PTR [esi+4]
  00009	57		 push	 edi
  0000a	8b 7d 08	 mov	 edi, DWORD PTR __Val$[ebp]
  0000d	3b f9		 cmp	 edi, ecx
  0000f	73 49		 jae	 SHORT $LN4@push_back@2
  00011	8b 06		 mov	 eax, DWORD PTR [esi]
  00013	3b c7		 cmp	 eax, edi
  00015	77 43		 ja	 SHORT $LN4@push_back@2

; 978  : 			{	// push back an element
; 979  : 			size_type _Idx = _STD addressof(_Val) - this->_Myfirst;

  00017	2b f8		 sub	 edi, eax
  00019	b8 ab aa aa 2a	 mov	 eax, 715827883		; 2aaaaaabH
  0001e	f7 ef		 imul	 edi
  00020	d1 fa		 sar	 edx, 1
  00022	8b fa		 mov	 edi, edx
  00024	c1 ef 1f	 shr	 edi, 31			; 0000001fH
  00027	03 fa		 add	 edi, edx

; 980  : 			if (this->_Mylast == this->_Myend)

  00029	3b 4e 08	 cmp	 ecx, DWORD PTR [esi+8]
  0002c	75 09		 jne	 SHORT $LN3@push_back@2

; 981  : 				_Reserve(1);

  0002e	6a 01		 push	 1
  00030	8b ce		 mov	 ecx, esi
  00032	e8 00 00 00 00	 call	 ?_Reserve@?$vector@UItemPriceInfo@@V?$allocator@UItemPriceInfo@@@std@@@std@@IAEXI@Z ; std::vector<ItemPriceInfo,std::allocator<ItemPriceInfo> >::_Reserve
$LN3@push_back@2:

; 982  : 			_Orphan_range(this->_Mylast, this->_Mylast);
; 983  : 			_Cons_val(this->_Alval,
; 984  : 				this->_Mylast,
; 985  : 				this->_Myfirst[_Idx]);

  00037	8b 0e		 mov	 ecx, DWORD PTR [esi]
  00039	8d 04 7f	 lea	 eax, DWORD PTR [edi+edi*2]
  0003c	8d 14 81	 lea	 edx, DWORD PTR [ecx+eax*4]
  0003f	8b 46 04	 mov	 eax, DWORD PTR [esi+4]
  00042	52		 push	 edx
  00043	50		 push	 eax
  00044	8d 4e 0c	 lea	 ecx, DWORD PTR [esi+12]
  00047	51		 push	 ecx
  00048	e8 00 00 00 00	 call	 ??$_Cons_val@V?$allocator@UItemPriceInfo@@@std@@UItemPriceInfo@@AAU3@@std@@YAXAAV?$allocator@UItemPriceInfo@@@0@PAUItemPriceInfo@@AAU2@@Z ; std::_Cons_val<std::allocator<ItemPriceInfo>,ItemPriceInfo,ItemPriceInfo &>

; 992  : 			_Orphan_range(this->_Mylast, this->_Mylast);
; 993  : 			_Cons_val(this->_Alval,
; 994  : 				this->_Mylast,
; 995  : 				_Val);

  0004d	83 c4 0c	 add	 esp, 12			; 0000000cH

; 996  : 			++this->_Mylast;

  00050	83 46 04 0c	 add	 DWORD PTR [esi+4], 12	; 0000000cH
  00054	5f		 pop	 edi
  00055	5e		 pop	 esi

; 997  : 			}
; 998  : 		}

  00056	5d		 pop	 ebp
  00057	c2 04 00	 ret	 4
$LN4@push_back@2:

; 986  : 			++this->_Mylast;
; 987  : 			}
; 988  : 		else
; 989  : 			{	// push back a non-element
; 990  : 			if (this->_Mylast == this->_Myend)

  0005a	3b 4e 08	 cmp	 ecx, DWORD PTR [esi+8]
  0005d	75 09		 jne	 SHORT $LN1@push_back@2

; 991  : 				_Reserve(1);

  0005f	6a 01		 push	 1
  00061	8b ce		 mov	 ecx, esi
  00063	e8 00 00 00 00	 call	 ?_Reserve@?$vector@UItemPriceInfo@@V?$allocator@UItemPriceInfo@@@std@@@std@@IAEXI@Z ; std::vector<ItemPriceInfo,std::allocator<ItemPriceInfo> >::_Reserve
$LN1@push_back@2:

; 992  : 			_Orphan_range(this->_Mylast, this->_Mylast);
; 993  : 			_Cons_val(this->_Alval,
; 994  : 				this->_Mylast,
; 995  : 				_Val);

  00068	8b 56 04	 mov	 edx, DWORD PTR [esi+4]
  0006b	57		 push	 edi
  0006c	52		 push	 edx
  0006d	8d 46 0c	 lea	 eax, DWORD PTR [esi+12]
  00070	50		 push	 eax
  00071	e8 00 00 00 00	 call	 ??$_Cons_val@V?$allocator@UItemPriceInfo@@@std@@UItemPriceInfo@@ABU3@@std@@YAXAAV?$allocator@UItemPriceInfo@@@0@PAUItemPriceInfo@@ABU2@@Z ; std::_Cons_val<std::allocator<ItemPriceInfo>,ItemPriceInfo,ItemPriceInfo const &>
  00076	83 c4 0c	 add	 esp, 12			; 0000000cH

; 996  : 			++this->_Mylast;

  00079	83 46 04 0c	 add	 DWORD PTR [esi+4], 12	; 0000000cH
  0007d	5f		 pop	 edi
  0007e	5e		 pop	 esi

; 997  : 			}
; 998  : 		}

  0007f	5d		 pop	 ebp
  00080	c2 04 00	 ret	 4
?push_back@?$vector@UItemPriceInfo@@V?$allocator@UItemPriceInfo@@@std@@@std@@QAEXABUItemPriceInfo@@@Z ENDP ; std::vector<ItemPriceInfo,std::allocator<ItemPriceInfo> >::push_back
_TEXT	ENDS
PUBLIC	?_Assign_rv@?$vector@UItemPriceInfo@@V?$allocator@UItemPriceInfo@@@std@@@std@@QAEX$$QAV12@@Z ; std::vector<ItemPriceInfo,std::allocator<ItemPriceInfo> >::_Assign_rv
; Function compile flags: /Ogtp
;	COMDAT ?_Assign_rv@?$vector@UItemPriceInfo@@V?$allocator@UItemPriceInfo@@@std@@@std@@QAEX$$QAV12@@Z
_TEXT	SEGMENT
__Right$ = 8						; size = 4
?_Assign_rv@?$vector@UItemPriceInfo@@V?$allocator@UItemPriceInfo@@@std@@@std@@QAEX$$QAV12@@Z PROC ; std::vector<ItemPriceInfo,std::allocator<ItemPriceInfo> >::_Assign_rv, COMDAT
; _this$ = ecx

; 606  : 		{	// assign by moving _Right

  00000	55		 push	 ebp
  00001	8b ec		 mov	 ebp, esp
  00003	56		 push	 esi
  00004	57		 push	 edi

; 607  : 		if (this == &_Right)

  00005	8b 7d 08	 mov	 edi, DWORD PTR __Right$[ebp]
  00008	8b f1		 mov	 esi, ecx
  0000a	3b f7		 cmp	 esi, edi
  0000c	74 33		 je	 SHORT $LN1@Assign_rv

; 608  : 			;
; 609  : 		else if (get_allocator() != _Right.get_allocator())
; 610  : 			{	// move construct a copy
; 611  : 			clear();
; 612  : 			for (iterator _Next = _Right.begin(); _Next != _Right.end();
; 613  : 				++_Next)
; 614  : 				push_back(_STD forward<_Ty>(*_Next));
; 615  : 			}
; 616  : 		else
; 617  : 			{	// clear this and steal from _Right
; 618  : 			_Tidy();

  0000e	8b 06		 mov	 eax, DWORD PTR [esi]
  00010	53		 push	 ebx
  00011	33 db		 xor	 ebx, ebx
  00013	3b c3		 cmp	 eax, ebx
  00015	74 09		 je	 SHORT $LN124@Assign_rv
  00017	50		 push	 eax
  00018	e8 00 00 00 00	 call	 ??3@YAXPAX@Z		; operator delete
  0001d	83 c4 04	 add	 esp, 4
$LN124@Assign_rv:
  00020	89 1e		 mov	 DWORD PTR [esi], ebx
  00022	89 5e 04	 mov	 DWORD PTR [esi+4], ebx
  00025	89 5e 08	 mov	 DWORD PTR [esi+8], ebx

; 619  : 			this->_Swap_all((_Myt&)_Right);
; 620  : 			this->_Myfirst = _Right._Myfirst;

  00028	8b 07		 mov	 eax, DWORD PTR [edi]
  0002a	89 06		 mov	 DWORD PTR [esi], eax

; 621  : 			this->_Mylast = _Right._Mylast;

  0002c	8b 4f 04	 mov	 ecx, DWORD PTR [edi+4]
  0002f	89 4e 04	 mov	 DWORD PTR [esi+4], ecx

; 622  : 			this->_Myend = _Right._Myend;

  00032	8b 57 08	 mov	 edx, DWORD PTR [edi+8]
  00035	89 56 08	 mov	 DWORD PTR [esi+8], edx

; 623  : 
; 624  : 			_Right._Myfirst = 0;

  00038	89 1f		 mov	 DWORD PTR [edi], ebx

; 625  : 			_Right._Mylast = 0;

  0003a	89 5f 04	 mov	 DWORD PTR [edi+4], ebx

; 626  : 			_Right._Myend = 0;

  0003d	89 5f 08	 mov	 DWORD PTR [edi+8], ebx
  00040	5b		 pop	 ebx
$LN1@Assign_rv:
  00041	5f		 pop	 edi
  00042	5e		 pop	 esi

; 627  : 			}
; 628  : 		}

  00043	5d		 pop	 ebp
  00044	c2 04 00	 ret	 4
?_Assign_rv@?$vector@UItemPriceInfo@@V?$allocator@UItemPriceInfo@@@std@@@std@@QAEX$$QAV12@@Z ENDP ; std::vector<ItemPriceInfo,std::allocator<ItemPriceInfo> >::_Assign_rv
; Function compile flags: /Ogtp
_TEXT	ENDS
;	COMDAT ??_GItemPrice@@UAEPAXI@Z
_TEXT	SEGMENT
___flags$ = 8						; size = 4
??_GItemPrice@@UAEPAXI@Z PROC				; ItemPrice::`scalar deleting destructor', COMDAT
; _this$ = ecx
  00000	55		 push	 ebp
  00001	8b ec		 mov	 ebp, esp
  00003	56		 push	 esi
  00004	8b f1		 mov	 esi, ecx
  00006	e8 00 00 00 00	 call	 ??1ItemPrice@@UAE@XZ	; ItemPrice::~ItemPrice
  0000b	f6 45 08 01	 test	 BYTE PTR ___flags$[ebp], 1
  0000f	74 09		 je	 SHORT $LN4@scalar@2
  00011	56		 push	 esi
  00012	e8 00 00 00 00	 call	 ??3@YAXPAX@Z		; operator delete
  00017	83 c4 04	 add	 esp, 4
$LN4@scalar@2:
  0001a	8b c6		 mov	 eax, esi
  0001c	5e		 pop	 esi
  0001d	5d		 pop	 ebp
  0001e	c2 04 00	 ret	 4
??_GItemPrice@@UAEPAXI@Z ENDP				; ItemPrice::`scalar deleting destructor'
_TEXT	ENDS
PUBLIC	??_C@_04BFIJLIPK@shop?$AA@			; `string'
PUBLIC	??_C@_07LOADOEBK@divisor?$AA@			; `string'
PUBLIC	??_C@_05NCDILCCA@price?$AA@			; `string'
PUBLIC	??_C@_05KJNJLLGA@level?$AA@			; `string'
PUBLIC	??_C@_05FKHKFDID@index?$AA@			; `string'
PUBLIC	??_C@_04GPMDFGEJ@type?$AA@			; `string'
PUBLIC	??_C@_04NHONDGDE@item?$AA@			; `string'
PUBLIC	??_C@_09HCKHEFGM@itemprice?$AA@			; `string'
PUBLIC	??_C@_0BP@FIKPEDIE@?$FLItemPrice?$FN?5File?5?$CFs?5not?5found?$CB?$AA@ ; `string'
PUBLIC	__$ArrayPad$
PUBLIC	?Read@ItemPrice@@QAEXPAD@Z			; ItemPrice::Read
EXTRN	??1xml_document@pugi@@QAE@XZ:PROC		; pugi::xml_document::~xml_document
EXTRN	?next_sibling@xml_node@pugi@@QBE?AV12@XZ:PROC	; pugi::xml_node::next_sibling
EXTRN	?as_uint@xml_attribute@pugi@@QBEII@Z:PROC	; pugi::xml_attribute::as_uint
EXTRN	?as_int@xml_attribute@pugi@@QBEHH@Z:PROC	; pugi::xml_attribute::as_int
EXTRN	?attribute@xml_node@pugi@@QBE?AVxml_attribute@2@PBD@Z:PROC ; pugi::xml_node::attribute
EXTRN	??Bxml_node@pugi@@QBEP6AXPAPAPAV01@@ZXZ:PROC	; pugi::xml_node::operator void (__cdecl*)(pugi::xml_node * * *)
EXTRN	?child@xml_node@pugi@@QBE?AV12@PBD@Z:PROC	; pugi::xml_node::child
EXTRN	?MsgBox@@YAXPADZZ:PROC				; MsgBox
EXTRN	?load_file@xml_document@pugi@@QAE?AUxml_parse_result@2@PBDIW4xml_encoding@2@@Z:PROC ; pugi::xml_document::load_file
EXTRN	??0xml_document@pugi@@QAE@XZ:PROC		; pugi::xml_document::xml_document
;	COMDAT ??_C@_04BFIJLIPK@shop?$AA@
; File c:\muserver_dev\development\mu-s8ep2-repack\gameserver\source\itemprice.cpp
CONST	SEGMENT
??_C@_04BFIJLIPK@shop?$AA@ DB 'shop', 00H		; `string'
CONST	ENDS
;	COMDAT ??_C@_07LOADOEBK@divisor?$AA@
CONST	SEGMENT
??_C@_07LOADOEBK@divisor?$AA@ DB 'divisor', 00H		; `string'
CONST	ENDS
;	COMDAT ??_C@_05NCDILCCA@price?$AA@
CONST	SEGMENT
??_C@_05NCDILCCA@price?$AA@ DB 'price', 00H		; `string'
CONST	ENDS
;	COMDAT ??_C@_05KJNJLLGA@level?$AA@
CONST	SEGMENT
??_C@_05KJNJLLGA@level?$AA@ DB 'level', 00H		; `string'
CONST	ENDS
;	COMDAT ??_C@_05FKHKFDID@index?$AA@
CONST	SEGMENT
??_C@_05FKHKFDID@index?$AA@ DB 'index', 00H		; `string'
CONST	ENDS
;	COMDAT ??_C@_04GPMDFGEJ@type?$AA@
CONST	SEGMENT
??_C@_04GPMDFGEJ@type?$AA@ DB 'type', 00H		; `string'
CONST	ENDS
;	COMDAT ??_C@_04NHONDGDE@item?$AA@
CONST	SEGMENT
??_C@_04NHONDGDE@item?$AA@ DB 'item', 00H		; `string'
CONST	ENDS
;	COMDAT ??_C@_09HCKHEFGM@itemprice?$AA@
CONST	SEGMENT
??_C@_09HCKHEFGM@itemprice?$AA@ DB 'itemprice', 00H	; `string'
CONST	ENDS
;	COMDAT ??_C@_0BP@FIKPEDIE@?$FLItemPrice?$FN?5File?5?$CFs?5not?5found?$CB?$AA@
CONST	SEGMENT
??_C@_0BP@FIKPEDIE@?$FLItemPrice?$FN?5File?5?$CFs?5not?5found?$CB?$AA@ DB '['
	DB	'ItemPrice] File %s not found!', 00H		; `string'
CONST	ENDS
;	COMDAT xdata$x
xdata$x	SEGMENT
__unwindtable$?Read@ItemPrice@@QAEXPAD@Z DD 0ffffffffH
	DD	FLAT:__unwindfunclet$?Read@ItemPrice@@QAEXPAD@Z$0
__ehfuncinfo$?Read@ItemPrice@@QAEXPAD@Z DD 019930522H
	DD	01H
	DD	FLAT:__unwindtable$?Read@ItemPrice@@QAEXPAD@Z
	DD	2 DUP(00H)
	DD	2 DUP(00H)
	DD	00H
	DD	01H
; Function compile flags: /Ogtp
xdata$x	ENDS
;	COMDAT ?Read@ItemPrice@@QAEXPAD@Z
_TEXT	SEGMENT
_Result$ = -276						; size = 12
$T187194 = -264						; size = 4
$T187192 = -260						; size = 4
$T187195 = -256						; size = 4
$T187191 = -252						; size = 4
$T187190 = -248						; size = 4
$T187189 = -244						; size = 4
$T187193 = -240						; size = 4
_ItemPrice$ = -236					; size = 4
_Item$180678 = -232					; size = 4
_Document$ = -228					; size = 200
_lpItem$180685 = -28					; size = 12
__$ArrayPad$ = -16					; size = 4
__$EHRec$ = -12						; size = 12
_File$ = 8						; size = 4
?Read@ItemPrice@@QAEXPAD@Z PROC				; ItemPrice::Read, COMDAT
; _this$ = ecx

; 42   : {

  00000	55		 push	 ebp
  00001	8b ec		 mov	 ebp, esp
  00003	6a ff		 push	 -1
  00005	68 00 00 00 00	 push	 __ehhandler$?Read@ItemPrice@@QAEXPAD@Z
  0000a	64 a1 00 00 00
	00		 mov	 eax, DWORD PTR fs:0
  00010	50		 push	 eax
  00011	81 ec 08 01 00
	00		 sub	 esp, 264		; 00000108H
  00017	a1 00 00 00 00	 mov	 eax, DWORD PTR ___security_cookie
  0001c	33 c5		 xor	 eax, ebp
  0001e	89 45 f0	 mov	 DWORD PTR __$ArrayPad$[ebp], eax
  00021	53		 push	 ebx
  00022	56		 push	 esi
  00023	57		 push	 edi
  00024	50		 push	 eax
  00025	8d 45 f4	 lea	 eax, DWORD PTR __$EHRec$[ebp]
  00028	64 a3 00 00 00
	00		 mov	 DWORD PTR fs:0, eax
  0002e	8b 75 08	 mov	 esi, DWORD PTR _File$[ebp]
  00031	8b f9		 mov	 edi, ecx

; 43   : 	xml_document Document;

  00033	8d 8d 1c ff ff
	ff		 lea	 ecx, DWORD PTR _Document$[ebp]
  00039	e8 00 00 00 00	 call	 ??0xml_document@pugi@@QAE@XZ ; pugi::xml_document::xml_document

; 44   : 	xml_parse_result Result = Document.load_file(File);

  0003e	6a 00		 push	 0
  00040	6a 74		 push	 116			; 00000074H
  00042	56		 push	 esi
  00043	8d 85 ec fe ff
	ff		 lea	 eax, DWORD PTR _Result$[ebp]
  00049	50		 push	 eax
  0004a	8d 8d 1c ff ff
	ff		 lea	 ecx, DWORD PTR _Document$[ebp]
  00050	c7 45 fc 00 00
	00 00		 mov	 DWORD PTR __$EHRec$[ebp+8], 0
  00057	e8 00 00 00 00	 call	 ?load_file@xml_document@pugi@@QAE?AUxml_parse_result@2@PBDIW4xml_encoding@2@@Z ; pugi::xml_document::load_file

; 45   : 	// ----
; 46   : 	if( Result.status != status_ok )

  0005c	83 bd ec fe ff
	ff 00		 cmp	 DWORD PTR _Result$[ebp], 0
  00063	74 13		 je	 SHORT $LN5@Read

; 47   : 	{
; 48   : 		MsgBox("[ItemPrice] File %s not found!", File);

  00065	56		 push	 esi
  00066	68 00 00 00 00	 push	 OFFSET ??_C@_0BP@FIKPEDIE@?$FLItemPrice?$FN?5File?5?$CFs?5not?5found?$CB?$AA@
  0006b	e8 00 00 00 00	 call	 ?MsgBox@@YAXPADZZ	; MsgBox
  00070	83 c4 08	 add	 esp, 8

; 49   : 		return;

  00073	e9 5c 01 00 00	 jmp	 $LN2@Read
$LN5@Read:

; 50   : 	}
; 51   : 	// ----
; 52   : 	xml_node ItemPrice = Document.child("itemprice");

  00078	68 00 00 00 00	 push	 OFFSET ??_C@_09HCKHEFGM@itemprice?$AA@
  0007d	8d 8d 14 ff ff
	ff		 lea	 ecx, DWORD PTR _ItemPrice$[ebp]
  00083	51		 push	 ecx
  00084	8d 8d 1c ff ff
	ff		 lea	 ecx, DWORD PTR _Document$[ebp]
  0008a	e8 00 00 00 00	 call	 ?child@xml_node@pugi@@QBE?AV12@PBD@Z ; pugi::xml_node::child

; 53   : 	// ----
; 54   : 	for( xml_node Item = ItemPrice.child("item"); Item; Item = Item.next_sibling() )

  0008f	68 00 00 00 00	 push	 OFFSET ??_C@_04NHONDGDE@item?$AA@
  00094	8d 95 18 ff ff
	ff		 lea	 edx, DWORD PTR _Item$180678[ebp]
  0009a	52		 push	 edx
  0009b	8d 8d 14 ff ff
	ff		 lea	 ecx, DWORD PTR _ItemPrice$[ebp]
  000a1	e8 00 00 00 00	 call	 ?child@xml_node@pugi@@QBE?AV12@PBD@Z ; pugi::xml_node::child
  000a6	8d 8d 18 ff ff
	ff		 lea	 ecx, DWORD PTR _Item$180678[ebp]
  000ac	e8 00 00 00 00	 call	 ??Bxml_node@pugi@@QBEP6AXPAPAPAV01@@ZXZ ; pugi::xml_node::operator void (__cdecl*)(pugi::xml_node * * *)
  000b1	85 c0		 test	 eax, eax
  000b3	0f 84 1b 01 00
	00		 je	 $LN2@Read
$LN4@Read:

; 55   : 	{
; 56   : 		ItemPriceInfo lpItem;
; 57   : 		lpItem.m_ItemCode = ITEMGET(Item.attribute("type").as_int(), Item.attribute("index").as_int());

  000b9	6a 00		 push	 0
  000bb	68 00 00 00 00	 push	 OFFSET ??_C@_04GPMDFGEJ@type?$AA@
  000c0	8d 85 08 ff ff
	ff		 lea	 eax, DWORD PTR $T187190[ebp]
  000c6	50		 push	 eax
  000c7	8d 8d 18 ff ff
	ff		 lea	 ecx, DWORD PTR _Item$180678[ebp]
  000cd	e8 00 00 00 00	 call	 ?attribute@xml_node@pugi@@QBE?AVxml_attribute@2@PBD@Z ; pugi::xml_node::attribute
  000d2	8b c8		 mov	 ecx, eax
  000d4	e8 00 00 00 00	 call	 ?as_int@xml_attribute@pugi@@QBEHH@Z ; pugi::xml_attribute::as_int
  000d9	6a 00		 push	 0
  000db	68 00 00 00 00	 push	 OFFSET ??_C@_05FKHKFDID@index?$AA@
  000e0	8d 8d 04 ff ff
	ff		 lea	 ecx, DWORD PTR $T187191[ebp]
  000e6	8b f0		 mov	 esi, eax
  000e8	51		 push	 ecx
  000e9	8d 8d 18 ff ff
	ff		 lea	 ecx, DWORD PTR _Item$180678[ebp]
  000ef	c1 e6 09	 shl	 esi, 9
  000f2	e8 00 00 00 00	 call	 ?attribute@xml_node@pugi@@QBE?AVxml_attribute@2@PBD@Z ; pugi::xml_node::attribute
  000f7	8b c8		 mov	 ecx, eax
  000f9	e8 00 00 00 00	 call	 ?as_int@xml_attribute@pugi@@QBEHH@Z ; pugi::xml_attribute::as_int

; 58   : 		lpItem.m_ItemLevel = (BYTE)Item.attribute("level").as_int(-1);

  000fe	6a ff		 push	 -1
  00100	68 00 00 00 00	 push	 OFFSET ??_C@_05KJNJLLGA@level?$AA@
  00105	8d 95 fc fe ff
	ff		 lea	 edx, DWORD PTR $T187192[ebp]
  0010b	03 c6		 add	 eax, esi
  0010d	52		 push	 edx
  0010e	8d 8d 18 ff ff
	ff		 lea	 ecx, DWORD PTR _Item$180678[ebp]
  00114	66 89 45 e4	 mov	 WORD PTR _lpItem$180685[ebp], ax
  00118	e8 00 00 00 00	 call	 ?attribute@xml_node@pugi@@QBE?AVxml_attribute@2@PBD@Z ; pugi::xml_node::attribute
  0011d	8b c8		 mov	 ecx, eax
  0011f	e8 00 00 00 00	 call	 ?as_int@xml_attribute@pugi@@QBEHH@Z ; pugi::xml_attribute::as_int

; 59   : 		lpItem.m_ItemPrice = Item.attribute("price").as_uint();

  00124	6a 00		 push	 0
  00126	88 45 e6	 mov	 BYTE PTR _lpItem$180685[ebp+2], al
  00129	68 00 00 00 00	 push	 OFFSET ??_C@_05NCDILCCA@price?$AA@
  0012e	8d 85 10 ff ff
	ff		 lea	 eax, DWORD PTR $T187193[ebp]
  00134	50		 push	 eax
  00135	8d 8d 18 ff ff
	ff		 lea	 ecx, DWORD PTR _Item$180678[ebp]
  0013b	e8 00 00 00 00	 call	 ?attribute@xml_node@pugi@@QBE?AVxml_attribute@2@PBD@Z ; pugi::xml_node::attribute
  00140	8b c8		 mov	 ecx, eax
  00142	e8 00 00 00 00	 call	 ?as_uint@xml_attribute@pugi@@QBEII@Z ; pugi::xml_attribute::as_uint

; 60   : 		lpItem.m_Divisor = Item.attribute("divisor").as_int();

  00147	6a 00		 push	 0
  00149	68 00 00 00 00	 push	 OFFSET ??_C@_07LOADOEBK@divisor?$AA@
  0014e	8d 8d f8 fe ff
	ff		 lea	 ecx, DWORD PTR $T187194[ebp]
  00154	51		 push	 ecx
  00155	8d 8d 18 ff ff
	ff		 lea	 ecx, DWORD PTR _Item$180678[ebp]
  0015b	89 45 e8	 mov	 DWORD PTR _lpItem$180685[ebp+4], eax
  0015e	e8 00 00 00 00	 call	 ?attribute@xml_node@pugi@@QBE?AVxml_attribute@2@PBD@Z ; pugi::xml_node::attribute
  00163	8b c8		 mov	 ecx, eax
  00165	e8 00 00 00 00	 call	 ?as_int@xml_attribute@pugi@@QBEHH@Z ; pugi::xml_attribute::as_int

; 61   : 		lpItem.m_ShopNumber = Item.attribute("shop").as_int();

  0016a	6a 00		 push	 0
  0016c	68 00 00 00 00	 push	 OFFSET ??_C@_04BFIJLIPK@shop?$AA@
  00171	8d 95 00 ff ff
	ff		 lea	 edx, DWORD PTR $T187195[ebp]
  00177	8a d8		 mov	 bl, al
  00179	52		 push	 edx
  0017a	8d 8d 18 ff ff
	ff		 lea	 ecx, DWORD PTR _Item$180678[ebp]
  00180	88 5d ec	 mov	 BYTE PTR _lpItem$180685[ebp+8], bl
  00183	e8 00 00 00 00	 call	 ?attribute@xml_node@pugi@@QBE?AVxml_attribute@2@PBD@Z ; pugi::xml_node::attribute
  00188	8b c8		 mov	 ecx, eax
  0018a	e8 00 00 00 00	 call	 ?as_int@xml_attribute@pugi@@QBEHH@Z ; pugi::xml_attribute::as_int
  0018f	66 89 45 ee	 mov	 WORD PTR _lpItem$180685[ebp+10], ax

; 62   : 		if( lpItem.m_Divisor <= 0 )

  00193	84 db		 test	 bl, bl
  00195	75 04		 jne	 SHORT $LN1@Read

; 63   : 		{
; 64   : 			lpItem.m_Divisor = 1;

  00197	c6 45 ec 01	 mov	 BYTE PTR _lpItem$180685[ebp+8], 1
$LN1@Read:

; 65   : 		}
; 66   : 		this->m_PriceInfo.push_back(lpItem);

  0019b	8d 45 e4	 lea	 eax, DWORD PTR _lpItem$180685[ebp]
  0019e	50		 push	 eax
  0019f	8d 4f 04	 lea	 ecx, DWORD PTR [edi+4]
  001a2	e8 00 00 00 00	 call	 ?push_back@?$vector@UItemPriceInfo@@V?$allocator@UItemPriceInfo@@@std@@@std@@QAEXABUItemPriceInfo@@@Z ; std::vector<ItemPriceInfo,std::allocator<ItemPriceInfo> >::push_back
  001a7	8d 8d 0c ff ff
	ff		 lea	 ecx, DWORD PTR $T187189[ebp]
  001ad	51		 push	 ecx
  001ae	8d 8d 18 ff ff
	ff		 lea	 ecx, DWORD PTR _Item$180678[ebp]
  001b4	e8 00 00 00 00	 call	 ?next_sibling@xml_node@pugi@@QBE?AV12@XZ ; pugi::xml_node::next_sibling
  001b9	8b 10		 mov	 edx, DWORD PTR [eax]
  001bb	8d 8d 18 ff ff
	ff		 lea	 ecx, DWORD PTR _Item$180678[ebp]
  001c1	89 95 18 ff ff
	ff		 mov	 DWORD PTR _Item$180678[ebp], edx
  001c7	e8 00 00 00 00	 call	 ??Bxml_node@pugi@@QBEP6AXPAPAPAV01@@ZXZ ; pugi::xml_node::operator void (__cdecl*)(pugi::xml_node * * *)
  001cc	85 c0		 test	 eax, eax
  001ce	0f 85 e5 fe ff
	ff		 jne	 $LN4@Read
$LN2@Read:

; 67   : 	}
; 68   : }

  001d4	8d 8d 1c ff ff
	ff		 lea	 ecx, DWORD PTR _Document$[ebp]
  001da	c7 45 fc ff ff
	ff ff		 mov	 DWORD PTR __$EHRec$[ebp+8], -1
  001e1	e8 00 00 00 00	 call	 ??1xml_document@pugi@@QAE@XZ ; pugi::xml_document::~xml_document
  001e6	8b 4d f4	 mov	 ecx, DWORD PTR __$EHRec$[ebp]
  001e9	64 89 0d 00 00
	00 00		 mov	 DWORD PTR fs:0, ecx
  001f0	59		 pop	 ecx
  001f1	5f		 pop	 edi
  001f2	5e		 pop	 esi
  001f3	5b		 pop	 ebx
  001f4	8b 4d f0	 mov	 ecx, DWORD PTR __$ArrayPad$[ebp]
  001f7	33 cd		 xor	 ecx, ebp
  001f9	e8 00 00 00 00	 call	 @__security_check_cookie@4
  001fe	8b e5		 mov	 esp, ebp
  00200	5d		 pop	 ebp
  00201	c2 04 00	 ret	 4
_TEXT	ENDS
;	COMDAT text$x
text$x	SEGMENT
__unwindfunclet$?Read@ItemPrice@@QAEXPAD@Z$0:
  00000	8d 8d 1c ff ff
	ff		 lea	 ecx, DWORD PTR _Document$[ebp]
  00006	e9 00 00 00 00	 jmp	 ??1xml_document@pugi@@QAE@XZ ; pugi::xml_document::~xml_document
__ehhandler$?Read@ItemPrice@@QAEXPAD@Z:
  0000b	8b 54 24 08	 mov	 edx, DWORD PTR [esp+8]
  0000f	8d 42 0c	 lea	 eax, DWORD PTR [edx+12]
  00012	8b 8a e8 fe ff
	ff		 mov	 ecx, DWORD PTR [edx-280]
  00018	33 c8		 xor	 ecx, eax
  0001a	e8 00 00 00 00	 call	 @__security_check_cookie@4
  0001f	8b 4a fc	 mov	 ecx, DWORD PTR [edx-4]
  00022	33 c8		 xor	 ecx, eax
  00024	e8 00 00 00 00	 call	 @__security_check_cookie@4
  00029	b8 00 00 00 00	 mov	 eax, OFFSET __ehfuncinfo$?Read@ItemPrice@@QAEXPAD@Z
  0002e	e9 00 00 00 00	 jmp	 ___CxxFrameHandler3
text$x	ENDS
?Read@ItemPrice@@QAEXPAD@Z ENDP				; ItemPrice::Read
PUBLIC	??0?$vector@UItemPriceInfo@@V?$allocator@UItemPriceInfo@@@std@@@std@@QAE@$$QAV01@@Z ; std::vector<ItemPriceInfo,std::allocator<ItemPriceInfo> >::vector<ItemPriceInfo,std::allocator<ItemPriceInfo> >
; Function compile flags: /Ogtp
; File c:\program files (x86)\microsoft visual studio 10.0\vc\include\vector
;	COMDAT ??0?$vector@UItemPriceInfo@@V?$allocator@UItemPriceInfo@@@std@@@std@@QAE@$$QAV01@@Z
_TEXT	SEGMENT
__Right$ = 8						; size = 4
??0?$vector@UItemPriceInfo@@V?$allocator@UItemPriceInfo@@@std@@@std@@QAE@$$QAV01@@Z PROC ; std::vector<ItemPriceInfo,std::allocator<ItemPriceInfo> >::vector<ItemPriceInfo,std::allocator<ItemPriceInfo> >, COMDAT
; _this$ = ecx

; 595  : 		{	// construct by moving _Right

  00000	55		 push	 ebp
  00001	8b ec		 mov	 ebp, esp
  00003	8b c1		 mov	 eax, ecx

; 596  : 		_Assign_rv(_STD forward<_Myt>(_Right));

  00005	8b 4d 08	 mov	 ecx, DWORD PTR __Right$[ebp]
  00008	33 d2		 xor	 edx, edx
  0000a	89 10		 mov	 DWORD PTR [eax], edx
  0000c	89 50 04	 mov	 DWORD PTR [eax+4], edx
  0000f	89 50 08	 mov	 DWORD PTR [eax+8], edx
  00012	3b c1		 cmp	 eax, ecx
  00014	74 22		 je	 SHORT $LN11@vector@3
  00016	89 10		 mov	 DWORD PTR [eax], edx
  00018	89 50 04	 mov	 DWORD PTR [eax+4], edx
  0001b	89 50 08	 mov	 DWORD PTR [eax+8], edx
  0001e	56		 push	 esi
  0001f	8b 31		 mov	 esi, DWORD PTR [ecx]
  00021	89 30		 mov	 DWORD PTR [eax], esi
  00023	8b 71 04	 mov	 esi, DWORD PTR [ecx+4]
  00026	89 70 04	 mov	 DWORD PTR [eax+4], esi
  00029	8b 71 08	 mov	 esi, DWORD PTR [ecx+8]
  0002c	89 70 08	 mov	 DWORD PTR [eax+8], esi
  0002f	89 11		 mov	 DWORD PTR [ecx], edx
  00031	89 51 04	 mov	 DWORD PTR [ecx+4], edx
  00034	89 51 08	 mov	 DWORD PTR [ecx+8], edx
  00037	5e		 pop	 esi
$LN11@vector@3:

; 597  : 		}

  00038	5d		 pop	 ebp
  00039	c2 04 00	 ret	 4
??0?$vector@UItemPriceInfo@@V?$allocator@UItemPriceInfo@@@std@@@std@@QAE@$$QAV01@@Z ENDP ; std::vector<ItemPriceInfo,std::allocator<ItemPriceInfo> >::vector<ItemPriceInfo,std::allocator<ItemPriceInfo> >
_TEXT	ENDS
PUBLIC	??4?$vector@UItemPriceInfo@@V?$allocator@UItemPriceInfo@@@std@@@std@@QAEAAV01@$$QAV01@@Z ; std::vector<ItemPriceInfo,std::allocator<ItemPriceInfo> >::operator=
; Function compile flags: /Ogtp
;	COMDAT ??4?$vector@UItemPriceInfo@@V?$allocator@UItemPriceInfo@@@std@@@std@@QAEAAV01@$$QAV01@@Z
_TEXT	SEGMENT
__Right$ = 8						; size = 4
??4?$vector@UItemPriceInfo@@V?$allocator@UItemPriceInfo@@@std@@@std@@QAEAAV01@$$QAV01@@Z PROC ; std::vector<ItemPriceInfo,std::allocator<ItemPriceInfo> >::operator=, COMDAT
; _this$ = ecx

; 600  : 		{	// assign by moving _Right

  00000	55		 push	 ebp
  00001	8b ec		 mov	 ebp, esp
  00003	56		 push	 esi
  00004	57		 push	 edi

; 601  : 		_Assign_rv(_STD forward<_Myt>(_Right));

  00005	8b 7d 08	 mov	 edi, DWORD PTR __Right$[ebp]
  00008	8b f1		 mov	 esi, ecx
  0000a	3b f7		 cmp	 esi, edi
  0000c	74 33		 je	 SHORT $LN136@operator
  0000e	8b 06		 mov	 eax, DWORD PTR [esi]
  00010	53		 push	 ebx
  00011	33 db		 xor	 ebx, ebx
  00013	3b c3		 cmp	 eax, ebx
  00015	74 09		 je	 SHORT $LN128@operator
  00017	50		 push	 eax
  00018	e8 00 00 00 00	 call	 ??3@YAXPAX@Z		; operator delete
  0001d	83 c4 04	 add	 esp, 4
$LN128@operator:
  00020	89 1e		 mov	 DWORD PTR [esi], ebx
  00022	89 5e 04	 mov	 DWORD PTR [esi+4], ebx
  00025	89 5e 08	 mov	 DWORD PTR [esi+8], ebx
  00028	8b 07		 mov	 eax, DWORD PTR [edi]
  0002a	89 06		 mov	 DWORD PTR [esi], eax
  0002c	8b 4f 04	 mov	 ecx, DWORD PTR [edi+4]
  0002f	89 4e 04	 mov	 DWORD PTR [esi+4], ecx
  00032	8b 57 08	 mov	 edx, DWORD PTR [edi+8]
  00035	89 56 08	 mov	 DWORD PTR [esi+8], edx
  00038	89 1f		 mov	 DWORD PTR [edi], ebx
  0003a	89 5f 04	 mov	 DWORD PTR [edi+4], ebx
  0003d	89 5f 08	 mov	 DWORD PTR [edi+8], ebx
  00040	5b		 pop	 ebx
$LN136@operator:

; 602  : 		return (*this);

  00041	5f		 pop	 edi
  00042	8b c6		 mov	 eax, esi
  00044	5e		 pop	 esi

; 603  : 		}

  00045	5d		 pop	 ebp
  00046	c2 04 00	 ret	 4
??4?$vector@UItemPriceInfo@@V?$allocator@UItemPriceInfo@@@std@@@std@@QAEAAV01@$$QAV01@@Z ENDP ; std::vector<ItemPriceInfo,std::allocator<ItemPriceInfo> >::operator=
_TEXT	ENDS
PUBLIC	?swap@?$vector@UItemPriceInfo@@V?$allocator@UItemPriceInfo@@@std@@@std@@QAEXAAV12@@Z ; std::vector<ItemPriceInfo,std::allocator<ItemPriceInfo> >::swap
;	COMDAT xdata$x
xdata$x	SEGMENT
__unwindtable$?swap@?$vector@UItemPriceInfo@@V?$allocator@UItemPriceInfo@@@std@@@std@@QAEXAAV12@@Z DD 0ffffffffH
	DD	00H
__ehfuncinfo$?swap@?$vector@UItemPriceInfo@@V?$allocator@UItemPriceInfo@@@std@@@std@@QAEXAAV12@@Z DD 019930522H
	DD	01H
	DD	FLAT:__unwindtable$?swap@?$vector@UItemPriceInfo@@V?$allocator@UItemPriceInfo@@@std@@@std@@QAEXAAV12@@Z
	DD	2 DUP(00H)
	DD	2 DUP(00H)
	DD	00H
	DD	01H
; Function compile flags: /Ogtp
xdata$x	ENDS
;	COMDAT ?swap@?$vector@UItemPriceInfo@@V?$allocator@UItemPriceInfo@@@std@@@std@@QAEXAAV12@@Z
_TEXT	SEGMENT
__$EHRec$ = -12						; size = 12
__Right$ = 8						; size = 4
?swap@?$vector@UItemPriceInfo@@V?$allocator@UItemPriceInfo@@@std@@@std@@QAEXAAV12@@Z PROC ; std::vector<ItemPriceInfo,std::allocator<ItemPriceInfo> >::swap, COMDAT
; _this$ = ecx

; 1222 : 		{	// exchange contents with _Right

  00000	55		 push	 ebp
  00001	8b ec		 mov	 ebp, esp
  00003	6a ff		 push	 -1
  00005	68 00 00 00 00	 push	 __ehhandler$?swap@?$vector@UItemPriceInfo@@V?$allocator@UItemPriceInfo@@@std@@@std@@QAEXAAV12@@Z
  0000a	64 a1 00 00 00
	00		 mov	 eax, DWORD PTR fs:0
  00010	50		 push	 eax
  00011	56		 push	 esi
  00012	a1 00 00 00 00	 mov	 eax, DWORD PTR ___security_cookie
  00017	33 c5		 xor	 eax, ebp
  00019	50		 push	 eax
  0001a	8d 45 f4	 lea	 eax, DWORD PTR __$EHRec$[ebp]
  0001d	64 a3 00 00 00
	00		 mov	 DWORD PTR fs:0, eax

; 1223 : 		if (this == &_Right)

  00023	8b 45 08	 mov	 eax, DWORD PTR __Right$[ebp]
  00026	3b c8		 cmp	 ecx, eax
  00028	74 26		 je	 SHORT $LL118@swap

; 1224 : 			;	// same object, do nothing
; 1225 : 		else if (this->_Alval == _Right._Alval)
; 1226 : 			{	// same allocator, swap control information
; 1227 : 			this->_Swap_all(_Right);
; 1228 : 			_STD swap(this->_Myfirst, _Right._Myfirst);

  0002a	8b 30		 mov	 esi, DWORD PTR [eax]
  0002c	8b 11		 mov	 edx, DWORD PTR [ecx]
  0002e	89 31		 mov	 DWORD PTR [ecx], esi
  00030	89 10		 mov	 DWORD PTR [eax], edx

; 1229 : 			_STD swap(this->_Mylast, _Right._Mylast);

  00032	8b 70 04	 mov	 esi, DWORD PTR [eax+4]
  00035	8b 51 04	 mov	 edx, DWORD PTR [ecx+4]
  00038	89 71 04	 mov	 DWORD PTR [ecx+4], esi
  0003b	89 50 04	 mov	 DWORD PTR [eax+4], edx

; 1230 : 			_STD swap(this->_Myend, _Right._Myend);

  0003e	8b 70 08	 mov	 esi, DWORD PTR [eax+8]
  00041	8b 51 08	 mov	 edx, DWORD PTR [ecx+8]
  00044	89 71 08	 mov	 DWORD PTR [ecx+8], esi
  00047	89 50 08	 mov	 DWORD PTR [eax+8], edx
  0004a	8d 9b 00 00 00
	00		 npad	 6

; 1231 : 			}
; 1232 : 		else
; 1233 : 			{	// different allocator, do multiple assigns
; 1234 : 			_Myt _Ts = _Move(*this);

$LL118@swap:

; 1235 : 
; 1236 : 			*this = _Move(_Right);
; 1237 : 			_Right = _Move(_Ts);
; 1238 : 			}
; 1239 : 		}

  00050	8b 4d f4	 mov	 ecx, DWORD PTR __$EHRec$[ebp]
  00053	64 89 0d 00 00
	00 00		 mov	 DWORD PTR fs:0, ecx
  0005a	59		 pop	 ecx
  0005b	5e		 pop	 esi
  0005c	8b e5		 mov	 esp, ebp
  0005e	5d		 pop	 ebp
  0005f	c2 04 00	 ret	 4
_TEXT	ENDS
;	COMDAT text$x
text$x	SEGMENT
__ehhandler$?swap@?$vector@UItemPriceInfo@@V?$allocator@UItemPriceInfo@@@std@@@std@@QAEXAAV12@@Z:
  00000	8b 54 24 08	 mov	 edx, DWORD PTR [esp+8]
  00004	8d 42 0c	 lea	 eax, DWORD PTR [edx+12]
  00007	8b 4a f8	 mov	 ecx, DWORD PTR [edx-8]
  0000a	33 c8		 xor	 ecx, eax
  0000c	e8 00 00 00 00	 call	 @__security_check_cookie@4
  00011	b8 00 00 00 00	 mov	 eax, OFFSET __ehfuncinfo$?swap@?$vector@UItemPriceInfo@@V?$allocator@UItemPriceInfo@@@std@@@std@@QAEXAAV12@@Z
  00016	e9 00 00 00 00	 jmp	 ___CxxFrameHandler3
text$x	ENDS
?swap@?$vector@UItemPriceInfo@@V?$allocator@UItemPriceInfo@@@std@@@std@@QAEXAAV12@@Z ENDP ; std::vector<ItemPriceInfo,std::allocator<ItemPriceInfo> >::swap
PUBLIC	?Init@ItemPrice@@QAEXXZ				; ItemPrice::Init
;	COMDAT xdata$x
xdata$x	SEGMENT
__unwindtable$?Init@ItemPrice@@QAEXXZ DD 0ffffffffH
	DD	FLAT:__unwindfunclet$?Init@ItemPrice@@QAEXXZ$0
	DD	00H
	DD	00H
__ehfuncinfo$?Init@ItemPrice@@QAEXXZ DD 019930522H
	DD	02H
	DD	FLAT:__unwindtable$?Init@ItemPrice@@QAEXXZ
	DD	2 DUP(00H)
	DD	2 DUP(00H)
	DD	00H
	DD	01H
; Function compile flags: /Ogtp
; File c:\muserver_dev\development\mu-s8ep2-repack\gameserver\source\itemprice.cpp
xdata$x	ENDS
;	COMDAT ?Init@ItemPrice@@QAEXXZ
_TEXT	SEGMENT
$T190754 = -28						; size = 16
__$EHRec$ = -12						; size = 12
?Init@ItemPrice@@QAEXXZ PROC				; ItemPrice::Init, COMDAT
; _this$ = ecx

; 25   : {

  00000	55		 push	 ebp
  00001	8b ec		 mov	 ebp, esp
  00003	6a ff		 push	 -1
  00005	68 00 00 00 00	 push	 __ehhandler$?Init@ItemPrice@@QAEXXZ
  0000a	64 a1 00 00 00
	00		 mov	 eax, DWORD PTR fs:0
  00010	50		 push	 eax
  00011	83 ec 10	 sub	 esp, 16			; 00000010H
  00014	56		 push	 esi
  00015	57		 push	 edi
  00016	a1 00 00 00 00	 mov	 eax, DWORD PTR ___security_cookie
  0001b	33 c5		 xor	 eax, ebp
  0001d	50		 push	 eax
  0001e	8d 45 f4	 lea	 eax, DWORD PTR __$EHRec$[ebp]
  00021	64 a3 00 00 00
	00		 mov	 DWORD PTR fs:0, eax

; 26   : 	this->m_PriceInfo.clear();

  00027	8b 51 08	 mov	 edx, DWORD PTR [ecx+8]
  0002a	8d 71 04	 lea	 esi, DWORD PTR [ecx+4]
  0002d	8b 0e		 mov	 ecx, DWORD PTR [esi]
  0002f	3b ca		 cmp	 ecx, edx
  00031	74 2a		 je	 SHORT $LN23@Init
  00033	8b c2		 mov	 eax, edx
  00035	3b d2		 cmp	 edx, edx
  00037	74 21		 je	 SHORT $LN52@Init
  00039	8d a4 24 00 00
	00 00		 npad	 7
$LL54@Init:
  00040	8b 38		 mov	 edi, DWORD PTR [eax]
  00042	89 39		 mov	 DWORD PTR [ecx], edi
  00044	8b 78 04	 mov	 edi, DWORD PTR [eax+4]
  00047	89 79 04	 mov	 DWORD PTR [ecx+4], edi
  0004a	8b 78 08	 mov	 edi, DWORD PTR [eax+8]
  0004d	89 79 08	 mov	 DWORD PTR [ecx+8], edi
  00050	83 c0 0c	 add	 eax, 12			; 0000000cH
  00053	83 c1 0c	 add	 ecx, 12			; 0000000cH
  00056	3b c2		 cmp	 eax, edx
  00058	75 e6		 jne	 SHORT $LL54@Init
$LN52@Init:
  0005a	89 4e 04	 mov	 DWORD PTR [esi+4], ecx
$LN23@Init:

; 27   : 	if( this->m_PriceInfo.capacity() > 0 )

  0005d	8b 4e 08	 mov	 ecx, DWORD PTR [esi+8]
  00060	2b 0e		 sub	 ecx, DWORD PTR [esi]
  00062	b8 ab aa aa 2a	 mov	 eax, 715827883		; 2aaaaaabH
  00067	f7 e9		 imul	 ecx
  00069	d1 fa		 sar	 edx, 1
  0006b	8b c2		 mov	 eax, edx
  0006d	c1 e8 1f	 shr	 eax, 31			; 0000001fH
  00070	03 c2		 add	 eax, edx
  00072	74 20		 je	 SHORT $LN535@Init

; 28   : 	{
; 29   : 		std::vector<ItemPriceInfo>().swap(this->m_PriceInfo);

  00074	8d 4d e4	 lea	 ecx, DWORD PTR $T190754[ebp]
  00077	3b ce		 cmp	 ecx, esi
  00079	74 19		 je	 SHORT $LN535@Init
  0007b	8b 06		 mov	 eax, DWORD PTR [esi]
  0007d	33 c9		 xor	 ecx, ecx
  0007f	89 0e		 mov	 DWORD PTR [esi], ecx
  00081	89 4e 04	 mov	 DWORD PTR [esi+4], ecx
  00084	89 4e 08	 mov	 DWORD PTR [esi+8], ecx
  00087	3b c1		 cmp	 eax, ecx
  00089	74 09		 je	 SHORT $LN535@Init
  0008b	50		 push	 eax
  0008c	e8 00 00 00 00	 call	 ??3@YAXPAX@Z		; operator delete
  00091	83 c4 04	 add	 esp, 4
$LN535@Init:

; 30   : 	}
; 31   : }

  00094	8b 4d f4	 mov	 ecx, DWORD PTR __$EHRec$[ebp]
  00097	64 89 0d 00 00
	00 00		 mov	 DWORD PTR fs:0, ecx
  0009e	59		 pop	 ecx
  0009f	5f		 pop	 edi
  000a0	5e		 pop	 esi
  000a1	8b e5		 mov	 esp, ebp
  000a3	5d		 pop	 ebp
  000a4	c3		 ret	 0
_TEXT	ENDS
;	COMDAT text$x
text$x	SEGMENT
__unwindfunclet$?Init@ItemPrice@@QAEXXZ$0:
  00000	8d 4d e4	 lea	 ecx, DWORD PTR $T190754[ebp]
  00003	e9 00 00 00 00	 jmp	 ??1?$vector@UItemPriceInfo@@V?$allocator@UItemPriceInfo@@@std@@@std@@QAE@XZ ; std::vector<ItemPriceInfo,std::allocator<ItemPriceInfo> >::~vector<ItemPriceInfo,std::allocator<ItemPriceInfo> >
__ehhandler$?Init@ItemPrice@@QAEXXZ:
  00008	8b 54 24 08	 mov	 edx, DWORD PTR [esp+8]
  0000c	8d 42 0c	 lea	 eax, DWORD PTR [edx+12]
  0000f	8b 4a e4	 mov	 ecx, DWORD PTR [edx-28]
  00012	33 c8		 xor	 ecx, eax
  00014	e8 00 00 00 00	 call	 @__security_check_cookie@4
  00019	b8 00 00 00 00	 mov	 eax, OFFSET __ehfuncinfo$?Init@ItemPrice@@QAEXXZ
  0001e	e9 00 00 00 00	 jmp	 ___CxxFrameHandler3
text$x	ENDS
?Init@ItemPrice@@QAEXXZ ENDP				; ItemPrice::Init
PUBLIC	??_C@_0BF@CPLIFJBD@Custom?2ItemPrice?4xml?$AA@	; `string'
PUBLIC	?Load@ItemPrice@@QAEXXZ				; ItemPrice::Load
EXTRN	?GetNewPath@CDirPath@@QAEPADPAD@Z:PROC		; CDirPath::GetNewPath
EXTRN	?gDirPath@@3VCDirPath@@A:BYTE			; gDirPath
;	COMDAT ??_C@_0BF@CPLIFJBD@Custom?2ItemPrice?4xml?$AA@
CONST	SEGMENT
??_C@_0BF@CPLIFJBD@Custom?2ItemPrice?4xml?$AA@ DB 'Custom\ItemPrice.xml', 00H ; `string'
; Function compile flags: /Ogtp
CONST	ENDS
;	COMDAT ?Load@ItemPrice@@QAEXXZ
_TEXT	SEGMENT
?Load@ItemPrice@@QAEXXZ PROC				; ItemPrice::Load, COMDAT
; _this$ = ecx

; 35   : {

  00000	56		 push	 esi
  00001	8b f1		 mov	 esi, ecx

; 36   : 	this->Init();

  00003	e8 00 00 00 00	 call	 ?Init@ItemPrice@@QAEXXZ	; ItemPrice::Init

; 37   : 	this->Read(gDirPath.GetNewPath(FILE_CUSTOM_ITEMPRICE));

  00008	68 00 00 00 00	 push	 OFFSET ??_C@_0BF@CPLIFJBD@Custom?2ItemPrice?4xml?$AA@
  0000d	b9 00 00 00 00	 mov	 ecx, OFFSET ?gDirPath@@3VCDirPath@@A ; gDirPath
  00012	e8 00 00 00 00	 call	 ?GetNewPath@CDirPath@@QAEPADPAD@Z ; CDirPath::GetNewPath
  00017	50		 push	 eax
  00018	8b ce		 mov	 ecx, esi
  0001a	e8 00 00 00 00	 call	 ?Read@ItemPrice@@QAEXPAD@Z ; ItemPrice::Read
  0001f	5e		 pop	 esi

; 38   : }

  00020	c3		 ret	 0
?Load@ItemPrice@@QAEXXZ ENDP				; ItemPrice::Load
_TEXT	ENDS
EXTRN	_atexit:PROC
; Function compile flags: /Ogtp
;	COMDAT ??__Eg_ItemPrice@@YAXXZ
text$yc	SEGMENT
??__Eg_ItemPrice@@YAXXZ PROC				; `dynamic initializer for 'g_ItemPrice'', COMDAT

; 9    : ItemPrice g_ItemPrice;

  00000	b9 00 00 00 00	 mov	 ecx, OFFSET ?g_ItemPrice@@3VItemPrice@@A ; g_ItemPrice
  00005	e8 00 00 00 00	 call	 ??0ItemPrice@@QAE@XZ	; ItemPrice::ItemPrice
  0000a	68 00 00 00 00	 push	 OFFSET ??__Fg_ItemPrice@@YAXXZ ; `dynamic atexit destructor for 'g_ItemPrice''
  0000f	e8 00 00 00 00	 call	 _atexit
  00014	59		 pop	 ecx
  00015	c3		 ret	 0
??__Eg_ItemPrice@@YAXXZ ENDP				; `dynamic initializer for 'g_ItemPrice''
; Function compile flags: /Ogtp
text$yc	ENDS
;	COMDAT ??__Fg_ItemPrice@@YAXXZ
text$yd	SEGMENT
??__Fg_ItemPrice@@YAXXZ PROC				; `dynamic atexit destructor for 'g_ItemPrice'', COMDAT
  00000	b9 00 00 00 00	 mov	 ecx, OFFSET ?g_ItemPrice@@3VItemPrice@@A ; g_ItemPrice
  00005	e9 00 00 00 00	 jmp	 ??1ItemPrice@@UAE@XZ	; ItemPrice::~ItemPrice
??__Fg_ItemPrice@@YAXXZ ENDP				; `dynamic atexit destructor for 'g_ItemPrice''
text$yd	ENDS
PUBLIC	?g_ItemPrice@@3VItemPrice@@A			; g_ItemPrice
_BSS	SEGMENT
?g_ItemPrice@@3VItemPrice@@A DB 014H DUP (?)		; g_ItemPrice
_BSS	ENDS
CRT$XCU	SEGMENT
_g_ItemPrice$initializer$ DD FLAT:??__Eg_ItemPrice@@YAXXZ
CRT$XCU	ENDS
END
