; Listing generated by Microsoft (R) Optimizing Compiler Version 16.00.40219.01 

	TITLE	C:\muserver_dev\development\MU-S8EP2-Repack\GameServer\Source\KanturuStateInfo.cpp
	.686P
	.XMM
	include listing.inc
	.model	flat

INCLUDELIB LIBCMT
INCLUDELIB OLDNAMES

PUBLIC	?SetStateInfo@CKanturuStateInfo@@QAEXH@Z	; CKanturuStateInfo::SetStateInfo
; Function compile flags: /Ogtp
; File c:\muserver_dev\development\mu-s8ep2-repack\gameserver\source\kanturustateinfo.h
;	COMDAT ?SetStateInfo@CKanturuStateInfo@@QAEXH@Z
_TEXT	SEGMENT
_iStateTimeInfo$ = 8					; size = 4
?SetStateInfo@CKanturuStateInfo@@QAEXH@Z PROC		; CKanturuStateInfo::SetStateInfo, COMDAT
; _this$ = ecx

; 29   : 	{

  00000	55		 push	 ebp
  00001	8b ec		 mov	 ebp, esp

; 30   : 		this->m_iState = iStateTimeInfo;

  00003	8b 45 08	 mov	 eax, DWORD PTR _iStateTimeInfo$[ebp]
  00006	89 41 04	 mov	 DWORD PTR [ecx+4], eax

; 31   : 	}

  00009	5d		 pop	 ebp
  0000a	c2 04 00	 ret	 4
?SetStateInfo@CKanturuStateInfo@@QAEXH@Z ENDP		; CKanturuStateInfo::SetStateInfo
_TEXT	ENDS
PUBLIC	?SetCondition@CKanturuStateInfo@@QAEXH@Z	; CKanturuStateInfo::SetCondition
; Function compile flags: /Ogtp
;	COMDAT ?SetCondition@CKanturuStateInfo@@QAEXH@Z
_TEXT	SEGMENT
_iCondition$ = 8					; size = 4
?SetCondition@CKanturuStateInfo@@QAEXH@Z PROC		; CKanturuStateInfo::SetCondition, COMDAT
; _this$ = ecx

; 35   : 	{

  00000	55		 push	 ebp
  00001	8b ec		 mov	 ebp, esp

; 36   : 		this->m_iCondition = iCondition;

  00003	8b 45 08	 mov	 eax, DWORD PTR _iCondition$[ebp]
  00006	89 41 08	 mov	 DWORD PTR [ecx+8], eax

; 37   : 	}

  00009	5d		 pop	 ebp
  0000a	c2 04 00	 ret	 4
?SetCondition@CKanturuStateInfo@@QAEXH@Z ENDP		; CKanturuStateInfo::SetCondition
_TEXT	ENDS
PUBLIC	?SetValue@CKanturuStateInfo@@QAEXH@Z		; CKanturuStateInfo::SetValue
; Function compile flags: /Ogtp
;	COMDAT ?SetValue@CKanturuStateInfo@@QAEXH@Z
_TEXT	SEGMENT
_iValue$ = 8						; size = 4
?SetValue@CKanturuStateInfo@@QAEXH@Z PROC		; CKanturuStateInfo::SetValue, COMDAT
; _this$ = ecx

; 46   : 	{

  00000	55		 push	 ebp
  00001	8b ec		 mov	 ebp, esp

; 47   : 		this->m_iValue = iValue;

  00003	8b 45 08	 mov	 eax, DWORD PTR _iValue$[ebp]
  00006	89 41 0c	 mov	 DWORD PTR [ecx+12], eax

; 48   : 	}

  00009	5d		 pop	 ebp
  0000a	c2 04 00	 ret	 4
?SetValue@CKanturuStateInfo@@QAEXH@Z ENDP		; CKanturuStateInfo::SetValue
_TEXT	ENDS
PUBLIC	??_7CKanturuStateInfo@@6B@			; CKanturuStateInfo::`vftable'
PUBLIC	??1CKanturuStateInfo@@UAE@XZ			; CKanturuStateInfo::~CKanturuStateInfo
PUBLIC	??_R4CKanturuStateInfo@@6B@			; CKanturuStateInfo::`RTTI Complete Object Locator'
PUBLIC	??_R0?AVCKanturuStateInfo@@@8			; CKanturuStateInfo `RTTI Type Descriptor'
PUBLIC	??_R3CKanturuStateInfo@@8			; CKanturuStateInfo::`RTTI Class Hierarchy Descriptor'
PUBLIC	??_R2CKanturuStateInfo@@8			; CKanturuStateInfo::`RTTI Base Class Array'
PUBLIC	??_R1A@?0A@EA@CKanturuStateInfo@@8		; CKanturuStateInfo::`RTTI Base Class Descriptor at (0,-1,0,64)'
EXTRN	??_7type_info@@6B@:QWORD			; type_info::`vftable'
EXTRN	??_ECKanturuStateInfo@@UAEPAXI@Z:PROC		; CKanturuStateInfo::`vector deleting destructor'
;	COMDAT ??_R1A@?0A@EA@CKanturuStateInfo@@8
; File c:\muserver_dev\development\mu-s8ep2-repack\gameserver\source\kanturustateinfo.cpp
rdata$r	SEGMENT
??_R1A@?0A@EA@CKanturuStateInfo@@8 DD FLAT:??_R0?AVCKanturuStateInfo@@@8 ; CKanturuStateInfo::`RTTI Base Class Descriptor at (0,-1,0,64)'
	DD	00H
	DD	00H
	DD	0ffffffffH
	DD	00H
	DD	040H
	DD	FLAT:??_R3CKanturuStateInfo@@8
rdata$r	ENDS
;	COMDAT ??_R2CKanturuStateInfo@@8
rdata$r	SEGMENT
??_R2CKanturuStateInfo@@8 DD FLAT:??_R1A@?0A@EA@CKanturuStateInfo@@8 ; CKanturuStateInfo::`RTTI Base Class Array'
rdata$r	ENDS
;	COMDAT ??_R3CKanturuStateInfo@@8
rdata$r	SEGMENT
??_R3CKanturuStateInfo@@8 DD 00H			; CKanturuStateInfo::`RTTI Class Hierarchy Descriptor'
	DD	00H
	DD	01H
	DD	FLAT:??_R2CKanturuStateInfo@@8
rdata$r	ENDS
;	COMDAT ??_R0?AVCKanturuStateInfo@@@8
_DATA	SEGMENT
??_R0?AVCKanturuStateInfo@@@8 DD FLAT:??_7type_info@@6B@ ; CKanturuStateInfo `RTTI Type Descriptor'
	DD	00H
	DB	'.?AVCKanturuStateInfo@@', 00H
_DATA	ENDS
;	COMDAT ??_R4CKanturuStateInfo@@6B@
rdata$r	SEGMENT
??_R4CKanturuStateInfo@@6B@ DD 00H			; CKanturuStateInfo::`RTTI Complete Object Locator'
	DD	00H
	DD	00H
	DD	FLAT:??_R0?AVCKanturuStateInfo@@@8
	DD	FLAT:??_R3CKanturuStateInfo@@8
rdata$r	ENDS
;	COMDAT ??_7CKanturuStateInfo@@6B@
CONST	SEGMENT
??_7CKanturuStateInfo@@6B@ DD FLAT:??_R4CKanturuStateInfo@@6B@ ; CKanturuStateInfo::`vftable'
	DD	FLAT:??_ECKanturuStateInfo@@UAEPAXI@Z
; Function compile flags: /Ogtp
CONST	ENDS
;	COMDAT ??1CKanturuStateInfo@@UAE@XZ
_TEXT	SEGMENT
??1CKanturuStateInfo@@UAE@XZ PROC			; CKanturuStateInfo::~CKanturuStateInfo, COMDAT
; _this$ = ecx

; 18   : {

  00000	c7 01 00 00 00
	00		 mov	 DWORD PTR [ecx], OFFSET ??_7CKanturuStateInfo@@6B@

; 19   : 	return;
; 20   : }

  00006	c3		 ret	 0
??1CKanturuStateInfo@@UAE@XZ ENDP			; CKanturuStateInfo::~CKanturuStateInfo
_TEXT	ENDS
PUBLIC	?ResetTimeInfo@CKanturuStateInfo@@QAEXXZ	; CKanturuStateInfo::ResetTimeInfo
; Function compile flags: /Ogtp
; File c:\muserver_dev\development\mu-s8ep2-repack\gameserver\source\kanturustateinfo.h
;	COMDAT ?ResetTimeInfo@CKanturuStateInfo@@QAEXXZ
_TEXT	SEGMENT
?ResetTimeInfo@CKanturuStateInfo@@QAEXXZ PROC		; CKanturuStateInfo::ResetTimeInfo, COMDAT
; _this$ = ecx

; 22   : 		this->SetStateInfo(0);

  00000	33 c0		 xor	 eax, eax
  00002	89 41 04	 mov	 DWORD PTR [ecx+4], eax

; 23   : 		this->SetCondition(0);

  00005	89 41 08	 mov	 DWORD PTR [ecx+8], eax

; 24   : 		this->SetValue(0);

  00008	89 41 0c	 mov	 DWORD PTR [ecx+12], eax

; 25   : 	}

  0000b	c3		 ret	 0
?ResetTimeInfo@CKanturuStateInfo@@QAEXXZ ENDP		; CKanturuStateInfo::ResetTimeInfo
_TEXT	ENDS
PUBLIC	??0CKanturuStateInfo@@QAE@XZ			; CKanturuStateInfo::CKanturuStateInfo
; Function compile flags: /Ogtp
; File c:\muserver_dev\development\mu-s8ep2-repack\gameserver\source\kanturustateinfo.cpp
;	COMDAT ??0CKanturuStateInfo@@QAE@XZ
_TEXT	SEGMENT
??0CKanturuStateInfo@@QAE@XZ PROC			; CKanturuStateInfo::CKanturuStateInfo, COMDAT
; _this$ = ecx

; 13   : {

  00000	8b c1		 mov	 eax, ecx

; 14   : 	this->ResetTimeInfo();

  00002	33 c9		 xor	 ecx, ecx
  00004	c7 00 00 00 00
	00		 mov	 DWORD PTR [eax], OFFSET ??_7CKanturuStateInfo@@6B@
  0000a	89 48 04	 mov	 DWORD PTR [eax+4], ecx
  0000d	89 48 08	 mov	 DWORD PTR [eax+8], ecx
  00010	89 48 0c	 mov	 DWORD PTR [eax+12], ecx

; 15   : }

  00013	c3		 ret	 0
??0CKanturuStateInfo@@QAE@XZ ENDP			; CKanturuStateInfo::CKanturuStateInfo
_TEXT	ENDS
EXTRN	??3@YAXPAX@Z:PROC				; operator delete
; Function compile flags: /Ogtp
;	COMDAT ??_GCKanturuStateInfo@@UAEPAXI@Z
_TEXT	SEGMENT
___flags$ = 8						; size = 4
??_GCKanturuStateInfo@@UAEPAXI@Z PROC			; CKanturuStateInfo::`scalar deleting destructor', COMDAT
; _this$ = ecx
  00000	55		 push	 ebp
  00001	8b ec		 mov	 ebp, esp
  00003	56		 push	 esi
  00004	8b f1		 mov	 esi, ecx
  00006	e8 00 00 00 00	 call	 ??1CKanturuStateInfo@@UAE@XZ ; CKanturuStateInfo::~CKanturuStateInfo
  0000b	f6 45 08 01	 test	 BYTE PTR ___flags$[ebp], 1
  0000f	74 09		 je	 SHORT $LN4@scalar
  00011	56		 push	 esi
  00012	e8 00 00 00 00	 call	 ??3@YAXPAX@Z		; operator delete
  00017	83 c4 04	 add	 esp, 4
$LN4@scalar:
  0001a	8b c6		 mov	 eax, esi
  0001c	5e		 pop	 esi
  0001d	5d		 pop	 ebp
  0001e	c2 04 00	 ret	 4
??_GCKanturuStateInfo@@UAEPAXI@Z ENDP			; CKanturuStateInfo::`scalar deleting destructor'
_TEXT	ENDS
END
