; Listing generated by Microsoft (R) Optimizing Compiler Version 16.00.40219.01 

	TITLE	C:\muserver_dev\development\MU-S8EP2-Repack\GameServer\Source\KanturuNightmare.cpp
	.686P
	.XMM
	include listing.inc
	.model	flat

INCLUDELIB LIBCMT
INCLUDELIB OLDNAMES

PUBLIC	??_7CKanturuNightmare@@6B@			; CKanturuNightmare::`vftable'
PUBLIC	??0CKanturuNightmare@@QAE@XZ			; CKanturuNightmare::CKanturuNightmare
PUBLIC	??_R4CKanturuNightmare@@6B@			; CKanturuNightmare::`RTTI Complete Object Locator'
PUBLIC	??_R0?AVCKanturuNightmare@@@8			; CKanturuNightmare `RTTI Type Descriptor'
PUBLIC	??_R3CKanturuNightmare@@8			; CKanturuNightmare::`RTTI Class Hierarchy Descriptor'
PUBLIC	??_R2CKanturuNightmare@@8			; CKanturuNightmare::`RTTI Base Class Array'
PUBLIC	??_R1A@?0A@EA@CKanturuNightmare@@8		; CKanturuNightmare::`RTTI Base Class Descriptor at (0,-1,0,64)'
EXTRN	??_7type_info@@6B@:QWORD			; type_info::`vftable'
EXTRN	??_ECKanturuNightmare@@UAEPAXI@Z:PROC		; CKanturuNightmare::`vector deleting destructor'
;	COMDAT ??_R1A@?0A@EA@CKanturuNightmare@@8
; File c:\muserver_dev\development\mu-s8ep2-repack\gameserver\source\kanturunightmare.cpp
rdata$r	SEGMENT
??_R1A@?0A@EA@CKanturuNightmare@@8 DD FLAT:??_R0?AVCKanturuNightmare@@@8 ; CKanturuNightmare::`RTTI Base Class Descriptor at (0,-1,0,64)'
	DD	00H
	DD	00H
	DD	0ffffffffH
	DD	00H
	DD	040H
	DD	FLAT:??_R3CKanturuNightmare@@8
rdata$r	ENDS
;	COMDAT ??_R2CKanturuNightmare@@8
rdata$r	SEGMENT
??_R2CKanturuNightmare@@8 DD FLAT:??_R1A@?0A@EA@CKanturuNightmare@@8 ; CKanturuNightmare::`RTTI Base Class Array'
rdata$r	ENDS
;	COMDAT ??_R3CKanturuNightmare@@8
rdata$r	SEGMENT
??_R3CKanturuNightmare@@8 DD 00H			; CKanturuNightmare::`RTTI Class Hierarchy Descriptor'
	DD	00H
	DD	01H
	DD	FLAT:??_R2CKanturuNightmare@@8
rdata$r	ENDS
;	COMDAT ??_R0?AVCKanturuNightmare@@@8
_DATA	SEGMENT
??_R0?AVCKanturuNightmare@@@8 DD FLAT:??_7type_info@@6B@ ; CKanturuNightmare `RTTI Type Descriptor'
	DD	00H
	DB	'.?AVCKanturuNightmare@@', 00H
_DATA	ENDS
;	COMDAT ??_R4CKanturuNightmare@@6B@
rdata$r	SEGMENT
??_R4CKanturuNightmare@@6B@ DD 00H			; CKanturuNightmare::`RTTI Complete Object Locator'
	DD	00H
	DD	00H
	DD	FLAT:??_R0?AVCKanturuNightmare@@@8
	DD	FLAT:??_R3CKanturuNightmare@@8
rdata$r	ENDS
;	COMDAT ??_7CKanturuNightmare@@6B@
CONST	SEGMENT
??_7CKanturuNightmare@@6B@ DD FLAT:??_R4CKanturuNightmare@@6B@ ; CKanturuNightmare::`vftable'
	DD	FLAT:??_ECKanturuNightmare@@UAEPAXI@Z
; Function compile flags: /Ogtp
CONST	ENDS
;	COMDAT ??0CKanturuNightmare@@QAE@XZ
_TEXT	SEGMENT
??0CKanturuNightmare@@QAE@XZ PROC			; CKanturuNightmare::CKanturuNightmare, COMDAT
; _this$ = ecx

; 13   : {

  00000	8b c1		 mov	 eax, ecx
  00002	c7 00 00 00 00
	00		 mov	 DWORD PTR [eax], OFFSET ??_7CKanturuNightmare@@6B@

; 14   : 	return;
; 15   : }

  00008	c3		 ret	 0
??0CKanturuNightmare@@QAE@XZ ENDP			; CKanturuNightmare::CKanturuNightmare
_TEXT	ENDS
PUBLIC	??1CKanturuNightmare@@UAE@XZ			; CKanturuNightmare::~CKanturuNightmare
; Function compile flags: /Ogtp
;	COMDAT ??1CKanturuNightmare@@UAE@XZ
_TEXT	SEGMENT
??1CKanturuNightmare@@UAE@XZ PROC			; CKanturuNightmare::~CKanturuNightmare, COMDAT
; _this$ = ecx

; 18   : {

  00000	c7 01 00 00 00
	00		 mov	 DWORD PTR [ecx], OFFSET ??_7CKanturuNightmare@@6B@

; 19   : 	return;
; 20   : }

  00006	c3		 ret	 0
??1CKanturuNightmare@@UAE@XZ ENDP			; CKanturuNightmare::~CKanturuNightmare
_TEXT	ENDS
EXTRN	??3@YAXPAX@Z:PROC				; operator delete
; Function compile flags: /Ogtp
;	COMDAT ??_GCKanturuNightmare@@UAEPAXI@Z
_TEXT	SEGMENT
___flags$ = 8						; size = 4
??_GCKanturuNightmare@@UAEPAXI@Z PROC			; CKanturuNightmare::`scalar deleting destructor', COMDAT
; _this$ = ecx
  00000	55		 push	 ebp
  00001	8b ec		 mov	 ebp, esp
  00003	56		 push	 esi
  00004	8b f1		 mov	 esi, ecx
  00006	e8 00 00 00 00	 call	 ??1CKanturuNightmare@@UAE@XZ ; CKanturuNightmare::~CKanturuNightmare
  0000b	f6 45 08 01	 test	 BYTE PTR ___flags$[ebp], 1
  0000f	74 09		 je	 SHORT $LN4@scalar
  00011	56		 push	 esi
  00012	e8 00 00 00 00	 call	 ??3@YAXPAX@Z		; operator delete
  00017	83 c4 04	 add	 esp, 4
$LN4@scalar:
  0001a	8b c6		 mov	 eax, esi
  0001c	5e		 pop	 esi
  0001d	5d		 pop	 ebp
  0001e	c2 04 00	 ret	 4
??_GCKanturuNightmare@@UAEPAXI@Z ENDP			; CKanturuNightmare::`scalar deleting destructor'
_TEXT	ENDS
END
