; Listing generated by Microsoft (R) Optimizing Compiler Version 16.00.40219.01 

	TITLE	C:\muserver_dev\development\MU-S8EP2-Repack\GameServer\Source\LuckyItem.cpp
	.686P
	.XMM
	include listing.inc
	.model	flat

INCLUDELIB LIBCMT
INCLUDELIB OLDNAMES

PUBLIC	?g_LuckyItemDurabilityTime@@3HA			; g_LuckyItemDurabilityTime
PUBLIC	?BLOCKSIZE@?$FixedBlockSize@$07@CryptoPP@@2HB	; CryptoPP::FixedBlockSize<8>::BLOCKSIZE
PUBLIC	?KEYLENGTH@?$FixedKeyLength@$07$03$0A@@CryptoPP@@2HB ; CryptoPP::FixedKeyLength<8,4,0>::KEYLENGTH
PUBLIC	?MIN_KEYLENGTH@?$FixedKeyLength@$07$03$0A@@CryptoPP@@2HB ; CryptoPP::FixedKeyLength<8,4,0>::MIN_KEYLENGTH
PUBLIC	?MAX_KEYLENGTH@?$FixedKeyLength@$07$03$0A@@CryptoPP@@2HB ; CryptoPP::FixedKeyLength<8,4,0>::MAX_KEYLENGTH
PUBLIC	?DEFAULT_KEYLENGTH@?$FixedKeyLength@$07$03$0A@@CryptoPP@@2HB ; CryptoPP::FixedKeyLength<8,4,0>::DEFAULT_KEYLENGTH
PUBLIC	?IV_REQUIREMENT@?$FixedKeyLength@$07$03$0A@@CryptoPP@@2HB ; CryptoPP::FixedKeyLength<8,4,0>::IV_REQUIREMENT
PUBLIC	?IV_LENGTH@?$FixedKeyLength@$07$03$0A@@CryptoPP@@2HB ; CryptoPP::FixedKeyLength<8,4,0>::IV_LENGTH
PUBLIC	?KEYLENGTH@?$FixedKeyLength@$0BA@$03$0A@@CryptoPP@@2HB ; CryptoPP::FixedKeyLength<16,4,0>::KEYLENGTH
PUBLIC	?MIN_KEYLENGTH@?$FixedKeyLength@$0BA@$03$0A@@CryptoPP@@2HB ; CryptoPP::FixedKeyLength<16,4,0>::MIN_KEYLENGTH
PUBLIC	?MAX_KEYLENGTH@?$FixedKeyLength@$0BA@$03$0A@@CryptoPP@@2HB ; CryptoPP::FixedKeyLength<16,4,0>::MAX_KEYLENGTH
PUBLIC	?DEFAULT_KEYLENGTH@?$FixedKeyLength@$0BA@$03$0A@@CryptoPP@@2HB ; CryptoPP::FixedKeyLength<16,4,0>::DEFAULT_KEYLENGTH
PUBLIC	?IV_REQUIREMENT@?$FixedKeyLength@$0BA@$03$0A@@CryptoPP@@2HB ; CryptoPP::FixedKeyLength<16,4,0>::IV_REQUIREMENT
PUBLIC	?IV_LENGTH@?$FixedKeyLength@$0BA@$03$0A@@CryptoPP@@2HB ; CryptoPP::FixedKeyLength<16,4,0>::IV_LENGTH
PUBLIC	?KEYLENGTH@?$FixedKeyLength@$0BI@$03$0A@@CryptoPP@@2HB ; CryptoPP::FixedKeyLength<24,4,0>::KEYLENGTH
PUBLIC	?MIN_KEYLENGTH@?$FixedKeyLength@$0BI@$03$0A@@CryptoPP@@2HB ; CryptoPP::FixedKeyLength<24,4,0>::MIN_KEYLENGTH
PUBLIC	?MAX_KEYLENGTH@?$FixedKeyLength@$0BI@$03$0A@@CryptoPP@@2HB ; CryptoPP::FixedKeyLength<24,4,0>::MAX_KEYLENGTH
PUBLIC	?DEFAULT_KEYLENGTH@?$FixedKeyLength@$0BI@$03$0A@@CryptoPP@@2HB ; CryptoPP::FixedKeyLength<24,4,0>::DEFAULT_KEYLENGTH
PUBLIC	?IV_REQUIREMENT@?$FixedKeyLength@$0BI@$03$0A@@CryptoPP@@2HB ; CryptoPP::FixedKeyLength<24,4,0>::IV_REQUIREMENT
PUBLIC	?IV_LENGTH@?$FixedKeyLength@$0BI@$03$0A@@CryptoPP@@2HB ; CryptoPP::FixedKeyLength<24,4,0>::IV_LENGTH
_BSS	SEGMENT
?g_LuckyItemDurabilityTime@@3HA DD 01H DUP (?)		; g_LuckyItemDurabilityTime
_BSS	ENDS
;	COMDAT ?IV_LENGTH@?$FixedKeyLength@$0BI@$03$0A@@CryptoPP@@2HB
CONST	SEGMENT
?IV_LENGTH@?$FixedKeyLength@$0BI@$03$0A@@CryptoPP@@2HB DD 00H ; CryptoPP::FixedKeyLength<24,4,0>::IV_LENGTH
CONST	ENDS
;	COMDAT ?IV_REQUIREMENT@?$FixedKeyLength@$0BI@$03$0A@@CryptoPP@@2HB
CONST	SEGMENT
?IV_REQUIREMENT@?$FixedKeyLength@$0BI@$03$0A@@CryptoPP@@2HB DD 04H ; CryptoPP::FixedKeyLength<24,4,0>::IV_REQUIREMENT
CONST	ENDS
;	COMDAT ?DEFAULT_KEYLENGTH@?$FixedKeyLength@$0BI@$03$0A@@CryptoPP@@2HB
CONST	SEGMENT
?DEFAULT_KEYLENGTH@?$FixedKeyLength@$0BI@$03$0A@@CryptoPP@@2HB DD 018H ; CryptoPP::FixedKeyLength<24,4,0>::DEFAULT_KEYLENGTH
CONST	ENDS
;	COMDAT ?MAX_KEYLENGTH@?$FixedKeyLength@$0BI@$03$0A@@CryptoPP@@2HB
CONST	SEGMENT
?MAX_KEYLENGTH@?$FixedKeyLength@$0BI@$03$0A@@CryptoPP@@2HB DD 018H ; CryptoPP::FixedKeyLength<24,4,0>::MAX_KEYLENGTH
CONST	ENDS
;	COMDAT ?MIN_KEYLENGTH@?$FixedKeyLength@$0BI@$03$0A@@CryptoPP@@2HB
CONST	SEGMENT
?MIN_KEYLENGTH@?$FixedKeyLength@$0BI@$03$0A@@CryptoPP@@2HB DD 018H ; CryptoPP::FixedKeyLength<24,4,0>::MIN_KEYLENGTH
CONST	ENDS
;	COMDAT ?KEYLENGTH@?$FixedKeyLength@$0BI@$03$0A@@CryptoPP@@2HB
CONST	SEGMENT
?KEYLENGTH@?$FixedKeyLength@$0BI@$03$0A@@CryptoPP@@2HB DD 018H ; CryptoPP::FixedKeyLength<24,4,0>::KEYLENGTH
CONST	ENDS
;	COMDAT ?IV_LENGTH@?$FixedKeyLength@$0BA@$03$0A@@CryptoPP@@2HB
CONST	SEGMENT
?IV_LENGTH@?$FixedKeyLength@$0BA@$03$0A@@CryptoPP@@2HB DD 00H ; CryptoPP::FixedKeyLength<16,4,0>::IV_LENGTH
CONST	ENDS
;	COMDAT ?IV_REQUIREMENT@?$FixedKeyLength@$0BA@$03$0A@@CryptoPP@@2HB
CONST	SEGMENT
?IV_REQUIREMENT@?$FixedKeyLength@$0BA@$03$0A@@CryptoPP@@2HB DD 04H ; CryptoPP::FixedKeyLength<16,4,0>::IV_REQUIREMENT
CONST	ENDS
;	COMDAT ?DEFAULT_KEYLENGTH@?$FixedKeyLength@$0BA@$03$0A@@CryptoPP@@2HB
CONST	SEGMENT
?DEFAULT_KEYLENGTH@?$FixedKeyLength@$0BA@$03$0A@@CryptoPP@@2HB DD 010H ; CryptoPP::FixedKeyLength<16,4,0>::DEFAULT_KEYLENGTH
CONST	ENDS
;	COMDAT ?MAX_KEYLENGTH@?$FixedKeyLength@$0BA@$03$0A@@CryptoPP@@2HB
CONST	SEGMENT
?MAX_KEYLENGTH@?$FixedKeyLength@$0BA@$03$0A@@CryptoPP@@2HB DD 010H ; CryptoPP::FixedKeyLength<16,4,0>::MAX_KEYLENGTH
CONST	ENDS
;	COMDAT ?MIN_KEYLENGTH@?$FixedKeyLength@$0BA@$03$0A@@CryptoPP@@2HB
CONST	SEGMENT
?MIN_KEYLENGTH@?$FixedKeyLength@$0BA@$03$0A@@CryptoPP@@2HB DD 010H ; CryptoPP::FixedKeyLength<16,4,0>::MIN_KEYLENGTH
CONST	ENDS
;	COMDAT ?KEYLENGTH@?$FixedKeyLength@$0BA@$03$0A@@CryptoPP@@2HB
CONST	SEGMENT
?KEYLENGTH@?$FixedKeyLength@$0BA@$03$0A@@CryptoPP@@2HB DD 010H ; CryptoPP::FixedKeyLength<16,4,0>::KEYLENGTH
CONST	ENDS
;	COMDAT ?IV_LENGTH@?$FixedKeyLength@$07$03$0A@@CryptoPP@@2HB
CONST	SEGMENT
?IV_LENGTH@?$FixedKeyLength@$07$03$0A@@CryptoPP@@2HB DD 00H ; CryptoPP::FixedKeyLength<8,4,0>::IV_LENGTH
CONST	ENDS
;	COMDAT ?IV_REQUIREMENT@?$FixedKeyLength@$07$03$0A@@CryptoPP@@2HB
CONST	SEGMENT
?IV_REQUIREMENT@?$FixedKeyLength@$07$03$0A@@CryptoPP@@2HB DD 04H ; CryptoPP::FixedKeyLength<8,4,0>::IV_REQUIREMENT
CONST	ENDS
;	COMDAT ?DEFAULT_KEYLENGTH@?$FixedKeyLength@$07$03$0A@@CryptoPP@@2HB
CONST	SEGMENT
?DEFAULT_KEYLENGTH@?$FixedKeyLength@$07$03$0A@@CryptoPP@@2HB DD 08H ; CryptoPP::FixedKeyLength<8,4,0>::DEFAULT_KEYLENGTH
CONST	ENDS
;	COMDAT ?MAX_KEYLENGTH@?$FixedKeyLength@$07$03$0A@@CryptoPP@@2HB
CONST	SEGMENT
?MAX_KEYLENGTH@?$FixedKeyLength@$07$03$0A@@CryptoPP@@2HB DD 08H ; CryptoPP::FixedKeyLength<8,4,0>::MAX_KEYLENGTH
CONST	ENDS
;	COMDAT ?MIN_KEYLENGTH@?$FixedKeyLength@$07$03$0A@@CryptoPP@@2HB
CONST	SEGMENT
?MIN_KEYLENGTH@?$FixedKeyLength@$07$03$0A@@CryptoPP@@2HB DD 08H ; CryptoPP::FixedKeyLength<8,4,0>::MIN_KEYLENGTH
CONST	ENDS
;	COMDAT ?KEYLENGTH@?$FixedKeyLength@$07$03$0A@@CryptoPP@@2HB
CONST	SEGMENT
?KEYLENGTH@?$FixedKeyLength@$07$03$0A@@CryptoPP@@2HB DD 08H ; CryptoPP::FixedKeyLength<8,4,0>::KEYLENGTH
CONST	ENDS
;	COMDAT ?BLOCKSIZE@?$FixedBlockSize@$07@CryptoPP@@2HB
CONST	SEGMENT
?BLOCKSIZE@?$FixedBlockSize@$07@CryptoPP@@2HB DD 08H	; CryptoPP::FixedBlockSize<8>::BLOCKSIZE
CONST	ENDS
PUBLIC	__$ArrayPad$
EXTRN	_isalnum:PROC
EXTRN	_isalpha:PROC
EXTRN	_atof:PROC
EXTRN	_isdigit:PROC
EXTRN	_getc:PROC
EXTRN	_ungetc:PROC
EXTRN	_isspace:PROC
EXTRN	_fgetc:PROC
EXTRN	___security_cookie:DWORD
EXTRN	__fltused:DWORD
EXTRN	@__security_check_cookie@4:PROC
_BSS	SEGMENT
_CurrentToken DD 01H DUP (?)
_TokenNumber DD	01H DUP (?)
_SMDFile DD	01H DUP (?)
_TokenString DB	064H DUP (?)
; Function compile flags: /Ogtp
; File c:\muserver_dev\development\mu-s8ep2-repack\gameserver\include\readscript.h
_BSS	ENDS
;	COMDAT ?GetToken@@YA?AW4SMDToken@@XZ
_TEXT	SEGMENT
_TempString$ = -104					; size = 100
__$ArrayPad$ = -4					; size = 4
?GetToken@@YA?AW4SMDToken@@XZ PROC			; GetToken, COMDAT

; 24   : {

  00000	55		 push	 ebp
  00001	8b ec		 mov	 ebp, esp
  00003	83 ec 68	 sub	 esp, 104		; 00000068H
  00006	a1 00 00 00 00	 mov	 eax, DWORD PTR ___security_cookie
  0000b	33 c5		 xor	 eax, ebp
  0000d	89 45 fc	 mov	 DWORD PTR __$ArrayPad$[ebp], eax

; 25   : 	int ch;
; 26   : 	char* p;
; 27   : 	char TempString[100];
; 28   : 
; 29   : 	TokenString[0]=0;

  00010	c6 05 00 00 00
	00 00		 mov	 BYTE PTR _TokenString, 0
  00017	53		 push	 ebx
  00018	eb 06 8d 9b 00
	00 00 00	 npad	 8
$LL31@GetToken:

; 30   : 
; 31   : 	do
; 32   : 	{
; 33   : 		if ((ch=fgetc(SMDFile)) == -1)

  00020	a1 00 00 00 00	 mov	 eax, DWORD PTR _SMDFile
  00025	50		 push	 eax
  00026	e8 00 00 00 00	 call	 _fgetc
  0002b	8b d8		 mov	 ebx, eax
  0002d	83 c4 04	 add	 esp, 4
  00030	83 fb ff	 cmp	 ebx, -1
  00033	74 5e		 je	 SHORT $LN39@GetToken

; 36   : 		}
; 37   : 		else
; 38   : 		{	
; 39   : 			if (ch=='/')		// this is /

  00035	83 fb 2f	 cmp	 ebx, 47			; 0000002fH
  00038	75 31		 jne	 SHORT $LN30@GetToken

; 40   : 			{
; 41   : 				if((ch=fgetc(SMDFile)) == '/')

  0003a	8b 0d 00 00 00
	00		 mov	 ecx, DWORD PTR _SMDFile
  00040	51		 push	 ecx
  00041	e8 00 00 00 00	 call	 _fgetc
  00046	8b d8		 mov	 ebx, eax
  00048	83 c4 04	 add	 esp, 4
  0004b	83 fb 2f	 cmp	 ebx, 47			; 0000002fH
  0004e	75 1b		 jne	 SHORT $LN30@GetToken
$LL24@GetToken:

; 42   : 				{
; 43   : 					while ((ch != '\n') && (ch != -1))	// End of Line (EOL)

  00050	83 fb ff	 cmp	 ebx, -1
  00053	74 3e		 je	 SHORT $LN39@GetToken

; 44   : 					{
; 45   : 						ch=fgetc(SMDFile);

  00055	8b 15 00 00 00
	00		 mov	 edx, DWORD PTR _SMDFile
  0005b	52		 push	 edx
  0005c	e8 00 00 00 00	 call	 _fgetc
  00061	8b d8		 mov	 ebx, eax
  00063	83 c4 04	 add	 esp, 4
  00066	83 fb 0a	 cmp	 ebx, 10			; 0000000aH
  00069	75 e5		 jne	 SHORT $LL24@GetToken
$LN30@GetToken:

; 46   : 					}
; 47   : 	
; 48   : 					if (ch == -1)
; 49   : 					{
; 50   : 						return END;	// End of FILE
; 51   : 					}
; 52   : 				}
; 53   : 			}
; 54   : 		}
; 55   : 	}
; 56   : 	while (isspace(ch) != 0);

  0006b	53		 push	 ebx
  0006c	e8 00 00 00 00	 call	 _isspace
  00071	83 c4 04	 add	 esp, 4
  00074	85 c0		 test	 eax, eax
  00076	75 a8		 jne	 SHORT $LL31@GetToken

; 57   : 
; 58   : 	
; 59   : 	switch(ch)

  00078	8d 43 de	 lea	 eax, DWORD PTR [ebx-34]
  0007b	56		 push	 esi
  0007c	83 f8 5b	 cmp	 eax, 91			; 0000005bH
  0007f	0f 87 29 01 00
	00		 ja	 $LN6@GetToken
  00085	0f b6 80 00 00
	00 00		 movzx	 eax, BYTE PTR $LN46@GetToken[eax]
  0008c	ff 24 85 00 00
	00 00		 jmp	 DWORD PTR $LN50@GetToken[eax*4]
$LN39@GetToken:

; 34   : 		{
; 35   : 			return END;	// End of FILE (EOF)

  00093	b8 02 00 00 00	 mov	 eax, 2
  00098	5b		 pop	 ebx

; 147  : 		}
; 148  : 		break;
; 149  : 
; 150  : 	}
; 151  : 
; 152  : 	return NAME;
; 153  : }

  00099	8b 4d fc	 mov	 ecx, DWORD PTR __$ArrayPad$[ebp]
  0009c	33 cd		 xor	 ecx, ebp
  0009e	e8 00 00 00 00	 call	 @__security_check_cookie@4
  000a3	8b e5		 mov	 esp, ebp
  000a5	5d		 pop	 ebp
  000a6	c3		 ret	 0
$LN19@GetToken:

; 60   : 	{
; 61   : 
; 62   : 	case 0x23:	// #
; 63   : 		return CurrentToken=COMMAND;

  000a7	b8 23 00 00 00	 mov	 eax, 35			; 00000023H
  000ac	e9 92 01 00 00	 jmp	 $LN48@GetToken
$LN18@GetToken:

; 64   : 		break;
; 65   : 	
; 66   : 	case 0x3B:	// ;
; 67   : 		return CurrentToken=SEMICOLON;

  000b1	b8 3b 00 00 00	 mov	 eax, 59			; 0000003bH
  000b6	e9 88 01 00 00	 jmp	 $LN48@GetToken
$LN17@GetToken:

; 68   : 		break;
; 69   : 	
; 70   : 	case 0x2C:	// ,
; 71   : 
; 72   : 		return CurrentToken=COMMA;

  000bb	b8 2c 00 00 00	 mov	 eax, 44			; 0000002cH
  000c0	e9 7e 01 00 00	 jmp	 $LN48@GetToken
$LN16@GetToken:

; 73   : 		break;
; 74   : 	
; 75   : 	case 0x7B:	// {
; 76   : 		return CurrentToken = LP;

  000c5	b8 7b 00 00 00	 mov	 eax, 123		; 0000007bH
  000ca	e9 74 01 00 00	 jmp	 $LN48@GetToken
$LN15@GetToken:

; 77   : 		break;
; 78   : 
; 79   : 	case 0x7D:	// }
; 80   : 		return CurrentToken = RP;

  000cf	b8 7d 00 00 00	 mov	 eax, 125		; 0000007dH
  000d4	e9 6a 01 00 00	 jmp	 $LN48@GetToken
$LN14@GetToken:

; 81   : 		break;
; 82   : 	// Nice Index Table :)	by Deathway
; 83   : 	// Numbers Case
; 84   : 	case 0x2D:	//-
; 85   : 	case 0x2E:	//.
; 86   : 	case '0':	//0
; 87   : 	case '1':	//1
; 88   : 	case '2':	//2
; 89   : 	case '3':	//3
; 90   : 	case '4':	//4		
; 91   : 	case '5':	//5
; 92   : 	case '6':	//6
; 93   : 	case '7':	//7
; 94   : 	case '8':	//8
; 95   : 	case '9':	//9
; 96   : 		ungetc(ch, SMDFile);

  000d9	8b 0d 00 00 00
	00		 mov	 ecx, DWORD PTR _SMDFile
  000df	51		 push	 ecx
  000e0	53		 push	 ebx
  000e1	e8 00 00 00 00	 call	 _ungetc

; 97   : 		p = TempString;
; 98   : 		
; 99   : 		while (((ch=getc(SMDFile)) != -1) && ((ch == 0x2E) || (isdigit(ch) != 0) || (ch == 0x2D)))  // 2e '.'  2D '-'

  000e6	8b 15 00 00 00
	00		 mov	 edx, DWORD PTR _SMDFile
  000ec	52		 push	 edx
  000ed	8d 75 98	 lea	 esi, DWORD PTR _TempString$[ebp]
  000f0	e8 00 00 00 00	 call	 _getc
  000f5	8b d8		 mov	 ebx, eax
  000f7	83 c4 0c	 add	 esp, 12			; 0000000cH
  000fa	83 fb ff	 cmp	 ebx, -1
  000fd	74 30		 je	 SHORT $LN12@GetToken
  000ff	90		 npad	 1
$LL13@GetToken:
  00100	83 fb 2e	 cmp	 ebx, 46			; 0000002eH
  00103	74 12		 je	 SHORT $LN11@GetToken
  00105	53		 push	 ebx
  00106	e8 00 00 00 00	 call	 _isdigit
  0010b	83 c4 04	 add	 esp, 4
  0010e	85 c0		 test	 eax, eax
  00110	75 05		 jne	 SHORT $LN11@GetToken
  00112	83 fb 2d	 cmp	 ebx, 45			; 0000002dH
  00115	75 18		 jne	 SHORT $LN12@GetToken
$LN11@GetToken:
  00117	a1 00 00 00 00	 mov	 eax, DWORD PTR _SMDFile

; 100  : 		{
; 101  : 			*p = ch;	// Construct a String

  0011c	88 1e		 mov	 BYTE PTR [esi], bl
  0011e	50		 push	 eax

; 102  : 			p++;

  0011f	46		 inc	 esi
  00120	e8 00 00 00 00	 call	 _getc
  00125	8b d8		 mov	 ebx, eax
  00127	83 c4 04	 add	 esp, 4
  0012a	83 fb ff	 cmp	 ebx, -1
  0012d	75 d1		 jne	 SHORT $LL13@GetToken
$LN12@GetToken:

; 103  : 		}		
; 104  : 		*p = 0;
; 105  : 		TokenNumber = (float)atof( TempString);	// Select the first Byte as Main ID

  0012f	8d 4d 98	 lea	 ecx, DWORD PTR _TempString$[ebp]
  00132	51		 push	 ecx
  00133	c6 06 00	 mov	 BYTE PTR [esi], 0
  00136	e8 00 00 00 00	 call	 _atof
  0013b	d9 1d 00 00 00
	00		 fstp	 DWORD PTR _TokenNumber
  00141	83 c4 04	 add	 esp, 4
  00144	5e		 pop	 esi

; 106  : 		return CurrentToken  = NUMBER ;

  00145	c7 05 00 00 00
	00 01 00 00 00	 mov	 DWORD PTR _CurrentToken, 1
  0014f	b8 01 00 00 00	 mov	 eax, 1
  00154	5b		 pop	 ebx

; 147  : 		}
; 148  : 		break;
; 149  : 
; 150  : 	}
; 151  : 
; 152  : 	return NAME;
; 153  : }

  00155	8b 4d fc	 mov	 ecx, DWORD PTR __$ArrayPad$[ebp]
  00158	33 cd		 xor	 ecx, ebp
  0015a	e8 00 00 00 00	 call	 @__security_check_cookie@4
  0015f	8b e5		 mov	 esp, ebp
  00161	5d		 pop	 ebp
  00162	c3		 ret	 0
$LN10@GetToken:

; 107  : 		break;
; 108  : 
; 109  : 	case '\"':	// "	String Case
; 110  : 		p=&TokenString[0];
; 111  : 		
; 112  : 		while (((ch=getc(SMDFile)) != -1 ) && (ch != 0x22))	// nice

  00163	8b 15 00 00 00
	00		 mov	 edx, DWORD PTR _SMDFile
  00169	52		 push	 edx
  0016a	be 00 00 00 00	 mov	 esi, OFFSET _TokenString
  0016f	e8 00 00 00 00	 call	 _getc
  00174	83 c4 04	 add	 esp, 4
  00177	83 f8 ff	 cmp	 eax, -1
  0017a	74 23		 je	 SHORT $LN8@GetToken
  0017c	8d 64 24 00	 npad	 4
$LL9@GetToken:
  00180	83 f8 22	 cmp	 eax, 34			; 00000022H
  00183	0f 84 96 00 00
	00		 je	 $LN7@GetToken

; 113  : 		{
; 114  : 			*p = ch;

  00189	88 06		 mov	 BYTE PTR [esi], al
  0018b	a1 00 00 00 00	 mov	 eax, DWORD PTR _SMDFile
  00190	50		 push	 eax

; 115  : 			p++;

  00191	46		 inc	 esi
  00192	e8 00 00 00 00	 call	 _getc
  00197	83 c4 04	 add	 esp, 4
  0019a	83 f8 ff	 cmp	 eax, -1
  0019d	75 e1		 jne	 SHORT $LL9@GetToken
$LN8@GetToken:

; 116  : 		}
; 117  : 		if (ch != 0x22 )

  0019f	83 f8 22	 cmp	 eax, 34			; 00000022H
  001a2	74 7b		 je	 SHORT $LN7@GetToken

; 118  : 		{
; 119  : 			ungetc(ch, SMDFile);

  001a4	8b 0d 00 00 00
	00		 mov	 ecx, DWORD PTR _SMDFile
  001aa	51		 push	 ecx
  001ab	50		 push	 eax

; 120  : 		}
; 121  : 		*p = 0;
; 122  : 		return CurrentToken = NAME;

  001ac	eb 69		 jmp	 SHORT $LN49@GetToken
$LN6@GetToken:

; 123  : 		break;
; 124  : 
; 125  : 	default:	// Others
; 126  : 		if (isalpha(ch))

  001ae	53		 push	 ebx
  001af	e8 00 00 00 00	 call	 _isalpha
  001b4	83 c4 04	 add	 esp, 4
  001b7	85 c0		 test	 eax, eax
  001b9	0f 84 7f 00 00
	00		 je	 $LN5@GetToken

; 127  : 		{
; 128  : 			p=&TokenString[0];
; 129  : 			*p=ch;
; 130  : 			p++;
; 131  : 
; 132  : 			while ( ((ch=getc(SMDFile)) != -1) && ( (ch == 0x2E) || (ch == 0x5F) || (isalnum(ch) != 0) ) )

  001bf	8b 15 00 00 00
	00		 mov	 edx, DWORD PTR _SMDFile
  001c5	52		 push	 edx
  001c6	88 1d 00 00 00
	00		 mov	 BYTE PTR _TokenString, bl
  001cc	be 01 00 00 00	 mov	 esi, OFFSET _TokenString+1
  001d1	e8 00 00 00 00	 call	 _getc
  001d6	8b d8		 mov	 ebx, eax
  001d8	83 c4 04	 add	 esp, 4
  001db	83 fb ff	 cmp	 ebx, -1
  001de	74 2f		 je	 SHORT $LN3@GetToken
$LL4@GetToken:
  001e0	83 fb 2e	 cmp	 ebx, 46			; 0000002eH
  001e3	74 12		 je	 SHORT $LN2@GetToken
  001e5	83 fb 5f	 cmp	 ebx, 95			; 0000005fH
  001e8	74 0d		 je	 SHORT $LN2@GetToken
  001ea	53		 push	 ebx
  001eb	e8 00 00 00 00	 call	 _isalnum
  001f0	83 c4 04	 add	 esp, 4
  001f3	85 c0		 test	 eax, eax
  001f5	74 18		 je	 SHORT $LN3@GetToken
$LN2@GetToken:
  001f7	a1 00 00 00 00	 mov	 eax, DWORD PTR _SMDFile

; 133  : 			{
; 134  : 				*p=ch;

  001fc	88 1e		 mov	 BYTE PTR [esi], bl
  001fe	50		 push	 eax

; 135  : 				p++;

  001ff	46		 inc	 esi
  00200	e8 00 00 00 00	 call	 _getc
  00205	8b d8		 mov	 ebx, eax
  00207	83 c4 04	 add	 esp, 4
  0020a	83 fb ff	 cmp	 ebx, -1
  0020d	75 d1		 jne	 SHORT $LL4@GetToken
$LN3@GetToken:

; 136  : 				
; 137  : 			}
; 138  : 
; 139  : 			ungetc(ch, SMDFile);

  0020f	8b 0d 00 00 00
	00		 mov	 ecx, DWORD PTR _SMDFile
  00215	51		 push	 ecx
  00216	53		 push	 ebx
$LN49@GetToken:
  00217	e8 00 00 00 00	 call	 _ungetc
  0021c	83 c4 08	 add	 esp, 8
$LN7@GetToken:

; 140  : 			*p=0;

  0021f	c6 06 00	 mov	 BYTE PTR [esi], 0
  00222	5e		 pop	 esi

; 141  : 			CurrentToken=NAME;

  00223	c7 05 00 00 00
	00 00 00 00 00	 mov	 DWORD PTR _CurrentToken, 0

; 142  : 			return CurrentToken;

  0022d	33 c0		 xor	 eax, eax
  0022f	5b		 pop	 ebx

; 147  : 		}
; 148  : 		break;
; 149  : 
; 150  : 	}
; 151  : 
; 152  : 	return NAME;
; 153  : }

  00230	8b 4d fc	 mov	 ecx, DWORD PTR __$ArrayPad$[ebp]
  00233	33 cd		 xor	 ecx, ebp
  00235	e8 00 00 00 00	 call	 @__security_check_cookie@4
  0023a	8b e5		 mov	 esp, ebp
  0023c	5d		 pop	 ebp
  0023d	c3		 ret	 0
$LN5@GetToken:

; 143  : 		}
; 144  : 		else
; 145  : 		{
; 146  : 			return CurrentToken = SMD_ERROR; // '<'

  0023e	b8 3c 00 00 00	 mov	 eax, 60			; 0000003cH
$LN48@GetToken:

; 147  : 		}
; 148  : 		break;
; 149  : 
; 150  : 	}
; 151  : 
; 152  : 	return NAME;
; 153  : }

  00243	8b 4d fc	 mov	 ecx, DWORD PTR __$ArrayPad$[ebp]
  00246	5e		 pop	 esi
  00247	33 cd		 xor	 ecx, ebp
  00249	a3 00 00 00 00	 mov	 DWORD PTR _CurrentToken, eax
  0024e	5b		 pop	 ebx
  0024f	e8 00 00 00 00	 call	 @__security_check_cookie@4
  00254	8b e5		 mov	 esp, ebp
  00256	5d		 pop	 ebp
  00257	c3		 ret	 0
$LN50@GetToken:
  00258	00 00 00 00	 DD	 $LN10@GetToken
  0025c	00 00 00 00	 DD	 $LN19@GetToken
  00260	00 00 00 00	 DD	 $LN17@GetToken
  00264	00 00 00 00	 DD	 $LN14@GetToken
  00268	00 00 00 00	 DD	 $LN18@GetToken
  0026c	00 00 00 00	 DD	 $LN16@GetToken
  00270	00 00 00 00	 DD	 $LN15@GetToken
  00274	00 00 00 00	 DD	 $LN6@GetToken
$LN46@GetToken:
  00278	00		 DB	 0
  00279	01		 DB	 1
  0027a	07		 DB	 7
  0027b	07		 DB	 7
  0027c	07		 DB	 7
  0027d	07		 DB	 7
  0027e	07		 DB	 7
  0027f	07		 DB	 7
  00280	07		 DB	 7
  00281	07		 DB	 7
  00282	02		 DB	 2
  00283	03		 DB	 3
  00284	03		 DB	 3
  00285	07		 DB	 7
  00286	03		 DB	 3
  00287	03		 DB	 3
  00288	03		 DB	 3
  00289	03		 DB	 3
  0028a	03		 DB	 3
  0028b	03		 DB	 3
  0028c	03		 DB	 3
  0028d	03		 DB	 3
  0028e	03		 DB	 3
  0028f	03		 DB	 3
  00290	07		 DB	 7
  00291	04		 DB	 4
  00292	07		 DB	 7
  00293	07		 DB	 7
  00294	07		 DB	 7
  00295	07		 DB	 7
  00296	07		 DB	 7
  00297	07		 DB	 7
  00298	07		 DB	 7
  00299	07		 DB	 7
  0029a	07		 DB	 7
  0029b	07		 DB	 7
  0029c	07		 DB	 7
  0029d	07		 DB	 7
  0029e	07		 DB	 7
  0029f	07		 DB	 7
  002a0	07		 DB	 7
  002a1	07		 DB	 7
  002a2	07		 DB	 7
  002a3	07		 DB	 7
  002a4	07		 DB	 7
  002a5	07		 DB	 7
  002a6	07		 DB	 7
  002a7	07		 DB	 7
  002a8	07		 DB	 7
  002a9	07		 DB	 7
  002aa	07		 DB	 7
  002ab	07		 DB	 7
  002ac	07		 DB	 7
  002ad	07		 DB	 7
  002ae	07		 DB	 7
  002af	07		 DB	 7
  002b0	07		 DB	 7
  002b1	07		 DB	 7
  002b2	07		 DB	 7
  002b3	07		 DB	 7
  002b4	07		 DB	 7
  002b5	07		 DB	 7
  002b6	07		 DB	 7
  002b7	07		 DB	 7
  002b8	07		 DB	 7
  002b9	07		 DB	 7
  002ba	07		 DB	 7
  002bb	07		 DB	 7
  002bc	07		 DB	 7
  002bd	07		 DB	 7
  002be	07		 DB	 7
  002bf	07		 DB	 7
  002c0	07		 DB	 7
  002c1	07		 DB	 7
  002c2	07		 DB	 7
  002c3	07		 DB	 7
  002c4	07		 DB	 7
  002c5	07		 DB	 7
  002c6	07		 DB	 7
  002c7	07		 DB	 7
  002c8	07		 DB	 7
  002c9	07		 DB	 7
  002ca	07		 DB	 7
  002cb	07		 DB	 7
  002cc	07		 DB	 7
  002cd	07		 DB	 7
  002ce	07		 DB	 7
  002cf	07		 DB	 7
  002d0	07		 DB	 7
  002d1	05		 DB	 5
  002d2	07		 DB	 7
  002d3	06		 DB	 6
?GetToken@@YA?AW4SMDToken@@XZ ENDP			; GetToken
_TEXT	ENDS
PUBLIC	??1OBJECTSTRUCT@@QAE@XZ				; OBJECTSTRUCT::~OBJECTSTRUCT
EXTRN	??1CSkillDelay@@UAE@XZ:PROC			; CSkillDelay::~CSkillDelay
EXTRN	??1TMonsterAIAgro@@UAE@XZ:PROC			; TMonsterAIAgro::~TMonsterAIAgro
EXTRN	___CxxFrameHandler3:PROC
;	COMDAT xdata$x
xdata$x	SEGMENT
__unwindtable$??1OBJECTSTRUCT@@QAE@XZ DD 0ffffffffH
	DD	FLAT:__unwindfunclet$??1OBJECTSTRUCT@@QAE@XZ$0
__ehfuncinfo$??1OBJECTSTRUCT@@QAE@XZ DD 019930522H
	DD	01H
	DD	FLAT:__unwindtable$??1OBJECTSTRUCT@@QAE@XZ
	DD	2 DUP(00H)
	DD	2 DUP(00H)
	DD	00H
	DD	01H
; Function compile flags: /Ogtp
xdata$x	ENDS
;	COMDAT ??1OBJECTSTRUCT@@QAE@XZ
_TEXT	SEGMENT
_this$ = -16						; size = 4
__$EHRec$ = -12						; size = 12
??1OBJECTSTRUCT@@QAE@XZ PROC				; OBJECTSTRUCT::~OBJECTSTRUCT, COMDAT
; _this$ = ecx
  00000	55		 push	 ebp
  00001	8b ec		 mov	 ebp, esp
  00003	6a ff		 push	 -1
  00005	68 00 00 00 00	 push	 __ehhandler$??1OBJECTSTRUCT@@QAE@XZ
  0000a	64 a1 00 00 00
	00		 mov	 eax, DWORD PTR fs:0
  00010	50		 push	 eax
  00011	51		 push	 ecx
  00012	56		 push	 esi
  00013	a1 00 00 00 00	 mov	 eax, DWORD PTR ___security_cookie
  00018	33 c5		 xor	 eax, ebp
  0001a	50		 push	 eax
  0001b	8d 45 f4	 lea	 eax, DWORD PTR __$EHRec$[ebp]
  0001e	64 a3 00 00 00
	00		 mov	 DWORD PTR fs:0, eax
  00024	8b f1		 mov	 esi, ecx
  00026	89 75 f0	 mov	 DWORD PTR _this$[ebp], esi
  00029	8d 8e ec 20 00
	00		 lea	 ecx, DWORD PTR [esi+8428]
  0002f	c7 45 fc 00 00
	00 00		 mov	 DWORD PTR __$EHRec$[ebp+8], 0
  00036	e8 00 00 00 00	 call	 ??1TMonsterAIAgro@@UAE@XZ ; TMonsterAIAgro::~TMonsterAIAgro
  0003b	8d 8e 0c 16 00
	00		 lea	 ecx, DWORD PTR [esi+5644]
  00041	c7 45 fc ff ff
	ff ff		 mov	 DWORD PTR __$EHRec$[ebp+8], -1
  00048	e8 00 00 00 00	 call	 ??1CSkillDelay@@UAE@XZ	; CSkillDelay::~CSkillDelay
  0004d	8b 4d f4	 mov	 ecx, DWORD PTR __$EHRec$[ebp]
  00050	64 89 0d 00 00
	00 00		 mov	 DWORD PTR fs:0, ecx
  00057	59		 pop	 ecx
  00058	5e		 pop	 esi
  00059	8b e5		 mov	 esp, ebp
  0005b	5d		 pop	 ebp
  0005c	c3		 ret	 0
_TEXT	ENDS
;	COMDAT text$x
text$x	SEGMENT
__unwindfunclet$??1OBJECTSTRUCT@@QAE@XZ$0:
  00000	8b 4d f0	 mov	 ecx, DWORD PTR _this$[ebp]
  00003	81 c1 0c 16 00
	00		 add	 ecx, 5644		; 0000160cH
  00009	e9 00 00 00 00	 jmp	 ??1CSkillDelay@@UAE@XZ	; CSkillDelay::~CSkillDelay
__ehhandler$??1OBJECTSTRUCT@@QAE@XZ:
  0000e	8b 54 24 08	 mov	 edx, DWORD PTR [esp+8]
  00012	8d 42 0c	 lea	 eax, DWORD PTR [edx+12]
  00015	8b 4a f4	 mov	 ecx, DWORD PTR [edx-12]
  00018	33 c8		 xor	 ecx, eax
  0001a	e8 00 00 00 00	 call	 @__security_check_cookie@4
  0001f	b8 00 00 00 00	 mov	 eax, OFFSET __ehfuncinfo$??1OBJECTSTRUCT@@QAE@XZ
  00024	e9 00 00 00 00	 jmp	 ___CxxFrameHandler3
text$x	ENDS
??1OBJECTSTRUCT@@QAE@XZ ENDP				; OBJECTSTRUCT::~OBJECTSTRUCT
PUBLIC	??0_ITEM_LEVEL_RATE@@QAE@XZ			; _ITEM_LEVEL_RATE::_ITEM_LEVEL_RATE
; Function compile flags: /Ogtp
; File c:\muserver_dev\development\mu-s8ep2-repack\gameserver\source\luckyitem.h
;	COMDAT ??0_ITEM_LEVEL_RATE@@QAE@XZ
_TEXT	SEGMENT
??0_ITEM_LEVEL_RATE@@QAE@XZ PROC			; _ITEM_LEVEL_RATE::_ITEM_LEVEL_RATE, COMDAT
; _this$ = ecx

; 22   : 	{

  00000	8b c1		 mov	 eax, ecx

; 23   : 		this->m_Level	= 0;

  00002	c7 00 00 00 00
	00		 mov	 DWORD PTR [eax], 0

; 24   : 		this->m_Rate	= 0;

  00008	c7 40 04 00 00
	00 00		 mov	 DWORD PTR [eax+4], 0

; 25   : 	}

  0000f	c3		 ret	 0
??0_ITEM_LEVEL_RATE@@QAE@XZ ENDP			; _ITEM_LEVEL_RATE::_ITEM_LEVEL_RATE
_TEXT	ENDS
PUBLIC	??0_LUCKY_ITEM_EQUIPMENT@@QAE@XZ		; _LUCKY_ITEM_EQUIPMENT::_LUCKY_ITEM_EQUIPMENT
; Function compile flags: /Ogtp
;	COMDAT ??0_LUCKY_ITEM_EQUIPMENT@@QAE@XZ
_TEXT	SEGMENT
??0_LUCKY_ITEM_EQUIPMENT@@QAE@XZ PROC			; _LUCKY_ITEM_EQUIPMENT::_LUCKY_ITEM_EQUIPMENT, COMDAT
; _this$ = ecx

; 38   : 	{

  00000	8b c1		 mov	 eax, ecx

; 39   : 		this->m_Index	= -1;
; 40   : 		this->m_Skill	= 0;

  00002	33 c9		 xor	 ecx, ecx
  00004	c7 00 ff ff ff
	ff		 mov	 DWORD PTR [eax], -1
  0000a	89 48 04	 mov	 DWORD PTR [eax+4], ecx

; 41   : 		this->m_Luck	= 0;

  0000d	89 48 08	 mov	 DWORD PTR [eax+8], ecx

; 42   : 		this->m_Option	= 0;

  00010	89 48 0c	 mov	 DWORD PTR [eax+12], ecx

; 43   : 		this->m_Class	= -1;

  00013	c7 40 10 ff ff
	ff ff		 mov	 DWORD PTR [eax+16], -1

; 44   : 	}

  0001a	c3		 ret	 0
??0_LUCKY_ITEM_EQUIPMENT@@QAE@XZ ENDP			; _LUCKY_ITEM_EQUIPMENT::_LUCKY_ITEM_EQUIPMENT
_TEXT	ENDS
PUBLIC	??0_SMELT_RATE@@QAE@XZ				; _SMELT_RATE::_SMELT_RATE
; Function compile flags: /Ogtp
;	COMDAT ??0_SMELT_RATE@@QAE@XZ
_TEXT	SEGMENT
??0_SMELT_RATE@@QAE@XZ PROC				; _SMELT_RATE::_SMELT_RATE, COMDAT
; _this$ = ecx

; 55   : 	{

  00000	8b c1		 mov	 eax, ecx

; 56   : 		this->MinDur	= 0;

  00002	33 c9		 xor	 ecx, ecx
  00004	89 08		 mov	 DWORD PTR [eax], ecx

; 57   : 		this->MaxDur	= 0;

  00006	89 48 04	 mov	 DWORD PTR [eax+4], ecx

; 58   : 		this->SmeltRate	= 0;

  00009	89 48 08	 mov	 DWORD PTR [eax+8], ecx

; 59   : 	}

  0000c	c3		 ret	 0
??0_SMELT_RATE@@QAE@XZ ENDP				; _SMELT_RATE::_SMELT_RATE
_TEXT	ENDS
PUBLIC	??_H@YGXPAXIHP6EPAX0@Z@Z			; `vector constructor iterator'
; Function compile flags: /Ogtp
;	COMDAT ??_H@YGXPAXIHP6EPAX0@Z@Z
_TEXT	SEGMENT
___t$ = 8						; size = 4
___s$ = 12						; size = 4
___n$ = 16						; size = 4
___f$ = 20						; size = 4
??_H@YGXPAXIHP6EPAX0@Z@Z PROC				; `vector constructor iterator', COMDAT
  00000	55		 push	 ebp
  00001	8b ec		 mov	 ebp, esp
  00003	57		 push	 edi
  00004	8b 7d 10	 mov	 edi, DWORD PTR ___n$[ebp]
  00007	4f		 dec	 edi
  00008	78 14		 js	 SHORT $LN1@vector
  0000a	53		 push	 ebx
  0000b	8b 5d 14	 mov	 ebx, DWORD PTR ___f$[ebp]
  0000e	56		 push	 esi
  0000f	8b 75 08	 mov	 esi, DWORD PTR ___t$[ebp]
$LL2@vector:
  00012	8b ce		 mov	 ecx, esi
  00014	ff d3		 call	 ebx
  00016	03 75 0c	 add	 esi, DWORD PTR ___s$[ebp]
  00019	4f		 dec	 edi
  0001a	79 f6		 jns	 SHORT $LL2@vector
  0001c	5e		 pop	 esi
  0001d	5b		 pop	 ebx
$LN1@vector:
  0001e	5f		 pop	 edi
  0001f	5d		 pop	 ebp
  00020	c2 10 00	 ret	 16			; 00000010H
??_H@YGXPAXIHP6EPAX0@Z@Z ENDP				; `vector constructor iterator'
_TEXT	ENDS
PUBLIC	??_C@_03JBJLGPFL@end?$AA@			; `string'
PUBLIC	??_C@_0CI@HCFDEEDK@Load?5LuckyItem?5Script?5Error?5Item@ ; `string'
PUBLIC	?LoadLuckyItemEquipment@LuckyItemManager@@QAEHHPAU_LUCKY_ITEM_INFO@@@Z ; LuckyItemManager::LoadLuckyItemEquipment
EXTRN	?MsgBox@@YAXPADZZ:PROC				; MsgBox
EXTRN	__ftol2_sse:PROC
;	COMDAT ??_C@_03JBJLGPFL@end?$AA@
; File c:\muserver_dev\development\mu-s8ep2-repack\gameserver\source\luckyitem.cpp
CONST	SEGMENT
??_C@_03JBJLGPFL@end?$AA@ DB 'end', 00H			; `string'
CONST	ENDS
;	COMDAT ??_C@_0CI@HCFDEEDK@Load?5LuckyItem?5Script?5Error?5Item@
CONST	SEGMENT
??_C@_0CI@HCFDEEDK@Load?5LuckyItem?5Script?5Error?5Item@ DB 'Load LuckyIt'
	DB	'em Script Error ItemType %d', 00H		; `string'
; Function compile flags: /Ogtp
CONST	ENDS
;	COMDAT ?LoadLuckyItemEquipment@LuckyItemManager@@QAEHHPAU_LUCKY_ITEM_INFO@@@Z
_TEXT	SEGMENT
_iType$ = 8						; size = 4
_pLuckyItemInfo$ = 12					; size = 4
?LoadLuckyItemEquipment@LuckyItemManager@@QAEHHPAU_LUCKY_ITEM_INFO@@@Z PROC ; LuckyItemManager::LoadLuckyItemEquipment, COMDAT
; _this$ = ecx

; 39   : {

  00000	55		 push	 ebp
  00001	8b ec		 mov	 ebp, esp
  00003	8b 09		 mov	 ecx, DWORD PTR [ecx]

; 41   : 	int iItemKind								= iType;	//ebp-0c
; 42   : 	_LUCKY_ITEM_EQUIPMENT * pLuckyItemEquipment = 0;		//ebp-10
; 43   : 	// ----
; 44   : 	for( int i = 0; i < this->TicketCount; i++ )			//ebp-18

  00005	8b 55 08	 mov	 edx, DWORD PTR _iType$[ebp]
  00008	56		 push	 esi
  00009	33 f6		 xor	 esi, esi
  0000b	85 c9		 test	 ecx, ecx
  0000d	7e 1e		 jle	 SHORT $LN19@LoadLuckyI

; 40   : 	int counter									= 0;		//ebp-8

  0000f	8b 45 0c	 mov	 eax, DWORD PTR _pLuckyItemInfo$[ebp]
  00012	05 a0 00 00 00	 add	 eax, 160		; 000000a0H
$LL9@LoadLuckyI:

; 45   : 	{
; 46   : 		if( pLuckyItemInfo[i].ItemKind == iItemKind )

  00017	39 90 64 ff ff
	ff		 cmp	 DWORD PTR [eax-156], edx
  0001d	75 02		 jne	 SHORT $LN8@LoadLuckyI

; 47   : 		{
; 48   : 			pLuckyItemEquipment = pLuckyItemInfo[i].m_ItemEquipment;

  0001f	8b f0		 mov	 esi, eax
$LN8@LoadLuckyI:

; 41   : 	int iItemKind								= iType;	//ebp-0c
; 42   : 	_LUCKY_ITEM_EQUIPMENT * pLuckyItemEquipment = 0;		//ebp-10
; 43   : 	// ----
; 44   : 	for( int i = 0; i < this->TicketCount; i++ )			//ebp-18

  00021	05 a4 01 00 00	 add	 eax, 420		; 000001a4H
  00026	49		 dec	 ecx
  00027	75 ee		 jne	 SHORT $LL9@LoadLuckyI

; 49   : 		}
; 50   : 	}
; 51   : 	// ----
; 52   : 	if( !pLuckyItemEquipment )

  00029	85 f6		 test	 esi, esi
  0002b	75 15		 jne	 SHORT $LN14@LoadLuckyI
$LN19@LoadLuckyI:

; 53   : 	{
; 54   : 		MsgBox("Load LuckyItem Script Error ItemType %d", iItemKind);

  0002d	52		 push	 edx
  0002e	68 00 00 00 00	 push	 OFFSET ??_C@_0CI@HCFDEEDK@Load?5LuckyItem?5Script?5Error?5Item@
  00033	e8 00 00 00 00	 call	 ?MsgBox@@YAXPADZZ	; MsgBox
  00038	83 c4 08	 add	 esp, 8

; 55   : 		return false;

  0003b	33 c0		 xor	 eax, eax
  0003d	5e		 pop	 esi

; 91   : }

  0003e	5d		 pop	 ebp
  0003f	c2 08 00	 ret	 8
$LN14@LoadLuckyI:

; 56   : 	}
; 57   : 	// ----
; 58   : 	while(true)
; 59   : 	{
; 60   : 		SMDToken Token = GetToken();

  00042	e8 00 00 00 00	 call	 ?GetToken@@YA?AW4SMDToken@@XZ ; GetToken

; 61   : 		// ----
; 62   : 		if( Token == NAME )

  00047	85 c0		 test	 eax, eax
  00049	0f 84 bf 00 00
	00		 je	 $LN15@LoadLuckyI

; 56   : 	}
; 57   : 	// ----
; 58   : 	while(true)
; 59   : 	{
; 60   : 		SMDToken Token = GetToken();

  0004f	57		 push	 edi
  00050	8d 7e 08	 lea	 edi, DWORD PTR [esi+8]
$LL4@LoadLuckyI:

; 63   : 		{
; 64   : 			break;
; 65   : 		}
; 66   : 		// ----
; 67   : 		if( !strcmp("end", TokenString) )

  00053	b9 00 00 00 00	 mov	 ecx, OFFSET _TokenString
  00058	b8 00 00 00 00	 mov	 eax, OFFSET ??_C@_03JBJLGPFL@end?$AA@
  0005d	8d 49 00	 npad	 3
$LL20@LoadLuckyI:
  00060	8a 10		 mov	 dl, BYTE PTR [eax]
  00062	3a 11		 cmp	 dl, BYTE PTR [ecx]
  00064	75 1a		 jne	 SHORT $LN21@LoadLuckyI
  00066	84 d2		 test	 dl, dl
  00068	74 12		 je	 SHORT $LN22@LoadLuckyI
  0006a	8a 50 01	 mov	 dl, BYTE PTR [eax+1]
  0006d	3a 51 01	 cmp	 dl, BYTE PTR [ecx+1]
  00070	75 0e		 jne	 SHORT $LN21@LoadLuckyI
  00072	83 c0 02	 add	 eax, 2
  00075	83 c1 02	 add	 ecx, 2
  00078	84 d2		 test	 dl, dl
  0007a	75 e4		 jne	 SHORT $LL20@LoadLuckyI
$LN22@LoadLuckyI:
  0007c	33 c0		 xor	 eax, eax
  0007e	eb 05		 jmp	 SHORT $LN23@LoadLuckyI
$LN21@LoadLuckyI:
  00080	1b c0		 sbb	 eax, eax
  00082	83 d8 ff	 sbb	 eax, -1
$LN23@LoadLuckyI:
  00085	85 c0		 test	 eax, eax
  00087	0f 84 80 00 00
	00		 je	 $LN24@LoadLuckyI

; 68   : 		{
; 69   : 			break;
; 70   : 		}
; 71   : 		// ----
; 72   : 		int iType	= TokenNumber;

  0008d	d9 05 00 00 00
	00		 fld	 DWORD PTR _TokenNumber
  00093	e8 00 00 00 00	 call	 __ftol2_sse
  00098	8b f0		 mov	 esi, eax

; 73   : 		Token		= GetToken();		

  0009a	e8 00 00 00 00	 call	 ?GetToken@@YA?AW4SMDToken@@XZ ; GetToken

; 74   : 		int iIndex	= TokenNumber;
; 75   : 		// ----
; 76   : 		pLuckyItemEquipment[counter].m_Index = ITEMGET(iType, iIndex);

  0009f	d9 05 00 00 00
	00		 fld	 DWORD PTR _TokenNumber
  000a5	c1 e6 09	 shl	 esi, 9
  000a8	e8 00 00 00 00	 call	 __ftol2_sse
  000ad	03 f0		 add	 esi, eax
  000af	89 77 f8	 mov	 DWORD PTR [edi-8], esi

; 77   : 		// ----
; 78   : 		Token = GetToken();		

  000b2	e8 00 00 00 00	 call	 ?GetToken@@YA?AW4SMDToken@@XZ ; GetToken

; 79   : 		pLuckyItemEquipment[counter].m_Skill = TokenNumber;

  000b7	d9 05 00 00 00
	00		 fld	 DWORD PTR _TokenNumber
  000bd	e8 00 00 00 00	 call	 __ftol2_sse
  000c2	89 47 fc	 mov	 DWORD PTR [edi-4], eax

; 80   : 		Token = GetToken();		

  000c5	e8 00 00 00 00	 call	 ?GetToken@@YA?AW4SMDToken@@XZ ; GetToken

; 81   : 		pLuckyItemEquipment[counter].m_Luck = TokenNumber;

  000ca	d9 05 00 00 00
	00		 fld	 DWORD PTR _TokenNumber
  000d0	e8 00 00 00 00	 call	 __ftol2_sse
  000d5	89 07		 mov	 DWORD PTR [edi], eax

; 82   : 		Token = GetToken();		

  000d7	e8 00 00 00 00	 call	 ?GetToken@@YA?AW4SMDToken@@XZ ; GetToken

; 83   : 		pLuckyItemEquipment[counter].m_Option = TokenNumber;

  000dc	d9 05 00 00 00
	00		 fld	 DWORD PTR _TokenNumber
  000e2	e8 00 00 00 00	 call	 __ftol2_sse
  000e7	89 47 04	 mov	 DWORD PTR [edi+4], eax

; 84   : 		Token = GetToken();		

  000ea	e8 00 00 00 00	 call	 ?GetToken@@YA?AW4SMDToken@@XZ ; GetToken

; 85   : 		pLuckyItemEquipment[counter].m_Class = TokenNumber;

  000ef	d9 05 00 00 00
	00		 fld	 DWORD PTR _TokenNumber
  000f5	e8 00 00 00 00	 call	 __ftol2_sse
  000fa	89 47 08	 mov	 DWORD PTR [edi+8], eax

; 86   : 		// ----
; 87   : 		counter++;

  000fd	83 c7 14	 add	 edi, 20			; 00000014H
  00100	e8 00 00 00 00	 call	 ?GetToken@@YA?AW4SMDToken@@XZ ; GetToken
  00105	85 c0		 test	 eax, eax
  00107	0f 85 46 ff ff
	ff		 jne	 $LL4@LoadLuckyI
$LN24@LoadLuckyI:
  0010d	5f		 pop	 edi
$LN15@LoadLuckyI:

; 88   : 	}
; 89   : 	// ----
; 90   : 	return true;

  0010e	b8 01 00 00 00	 mov	 eax, 1
  00113	5e		 pop	 esi

; 91   : }

  00114	5d		 pop	 ebp
  00115	c2 08 00	 ret	 8
?LoadLuckyItemEquipment@LuckyItemManager@@QAEHHPAU_LUCKY_ITEM_INFO@@@Z ENDP ; LuckyItemManager::LoadLuckyItemEquipment
_TEXT	ENDS
PUBLIC	?AddLuckyItemInfo@LuckyItemManager@@QAEXPAU_LUCKY_ITEM_INFO@@H@Z ; LuckyItemManager::AddLuckyItemInfo
; Function compile flags: /Ogtp
;	COMDAT ?AddLuckyItemInfo@LuckyItemManager@@QAEXPAU_LUCKY_ITEM_INFO@@H@Z
_TEXT	SEGMENT
_pLuckyItemInfo$ = 8					; size = 4
_iItemCnt$ = 12						; size = 4
?AddLuckyItemInfo@LuckyItemManager@@QAEXPAU_LUCKY_ITEM_INFO@@H@Z PROC ; LuckyItemManager::AddLuckyItemInfo, COMDAT
; _this$ = ecx

; 293  : {

  00000	55		 push	 ebp
  00001	8b ec		 mov	 ebp, esp

; 294  : 	for( int i = 0; i < iItemCnt; i++ )

  00003	8b 55 0c	 mov	 edx, DWORD PTR _iItemCnt$[ebp]
  00006	85 d2		 test	 edx, edx
  00008	7e 26		 jle	 SHORT $LN1@AddLuckyIt
  0000a	8b 45 08	 mov	 eax, DWORD PTR _pLuckyItemInfo$[ebp]
  0000d	56		 push	 esi
  0000e	8b ff		 npad	 2
$LL3@AddLuckyIt:

; 295  : 	{
; 296  : 		int iIndexID = pLuckyItemInfo[i].ItemIndex;
; 297  : 		memcpy(&LuckyItemInfo, &pLuckyItemInfo[i], sizeof(LuckyItemInfo));

  00010	8b 30		 mov	 esi, DWORD PTR [eax]
  00012	89 71 04	 mov	 DWORD PTR [ecx+4], esi
  00015	8b 70 04	 mov	 esi, DWORD PTR [eax+4]
  00018	89 71 08	 mov	 DWORD PTR [ecx+8], esi
  0001b	8b 70 08	 mov	 esi, DWORD PTR [eax+8]
  0001e	89 71 0c	 mov	 DWORD PTR [ecx+12], esi
  00021	8b 70 0c	 mov	 esi, DWORD PTR [eax+12]
  00024	05 a4 01 00 00	 add	 eax, 420		; 000001a4H
  00029	4a		 dec	 edx
  0002a	89 71 10	 mov	 DWORD PTR [ecx+16], esi
  0002d	75 e1		 jne	 SHORT $LL3@AddLuckyIt
  0002f	5e		 pop	 esi
$LN1@AddLuckyIt:

; 298  : 	}
; 299  : }

  00030	5d		 pop	 ebp
  00031	c2 08 00	 ret	 8
?AddLuckyItemInfo@LuckyItemManager@@QAEXPAU_LUCKY_ITEM_INFO@@H@Z ENDP ; LuckyItemManager::AddLuckyItemInfo
_TEXT	ENDS
PUBLIC	?GetLuckyItemEquipment@LuckyItemManager@@QAEPAU_LUCKY_ITEM_EQUIPMENT@@PAU_LUCKY_ITEM_INFO@@H@Z ; LuckyItemManager::GetLuckyItemEquipment
; Function compile flags: /Ogtp
;	COMDAT ?GetLuckyItemEquipment@LuckyItemManager@@QAEPAU_LUCKY_ITEM_EQUIPMENT@@PAU_LUCKY_ITEM_INFO@@H@Z
_TEXT	SEGMENT
_pLuckyItemInfo$ = 8					; size = 4
_iCharClass$ = 12					; size = 4
?GetLuckyItemEquipment@LuckyItemManager@@QAEPAU_LUCKY_ITEM_EQUIPMENT@@PAU_LUCKY_ITEM_INFO@@H@Z PROC ; LuckyItemManager::GetLuckyItemEquipment, COMDAT
; _this$ = ecx

; 345  : {

  00000	55		 push	 ebp
  00001	8b ec		 mov	 ebp, esp
  00003	56		 push	 esi

; 346  : 	if( !pLuckyItemInfo )

  00004	8b 75 08	 mov	 esi, DWORD PTR _pLuckyItemInfo$[ebp]

; 347  : 	{
; 348  : 		return 0;

  00007	33 c0		 xor	 eax, eax
  00009	85 f6		 test	 esi, esi
  0000b	74 18		 je	 SHORT $LN6@GetLuckyIt

; 349  : 	}
; 350  : 	// ----
; 351  : 	for( int i = 0; i < MAX_LUCKYINFO_ITEMEQUIPMENT; i++ )

  0000d	8b 55 0c	 mov	 edx, DWORD PTR _iCharClass$[ebp]
  00010	8d 8e b0 00 00
	00		 lea	 ecx, DWORD PTR [esi+176]
$LL4@GetLuckyIt:

; 352  : 	{
; 353  : 		if( pLuckyItemInfo->m_ItemEquipment[i].m_Class == iCharClass )

  00016	39 11		 cmp	 DWORD PTR [ecx], edx
  00018	74 10		 je	 SHORT $LN9@GetLuckyIt

; 349  : 	}
; 350  : 	// ----
; 351  : 	for( int i = 0; i < MAX_LUCKYINFO_ITEMEQUIPMENT; i++ )

  0001a	40		 inc	 eax
  0001b	83 c1 14	 add	 ecx, 20			; 00000014H
  0001e	83 f8 07	 cmp	 eax, 7
  00021	7c f3		 jl	 SHORT $LL4@GetLuckyIt

; 356  : 		}
; 357  : 	}
; 358  : 	// ----
; 359  : 	return 0;

  00023	33 c0		 xor	 eax, eax
$LN6@GetLuckyIt:
  00025	5e		 pop	 esi

; 360  : }

  00026	5d		 pop	 ebp
  00027	c2 08 00	 ret	 8
$LN9@GetLuckyIt:

; 354  : 		{
; 355  : 			return &pLuckyItemInfo->m_ItemEquipment[i];

  0002a	8d 44 80 28	 lea	 eax, DWORD PTR [eax+eax*4+40]
  0002e	8d 04 86	 lea	 eax, DWORD PTR [esi+eax*4]
  00031	5e		 pop	 esi

; 360  : }

  00032	5d		 pop	 ebp
  00033	c2 08 00	 ret	 8
?GetLuckyItemEquipment@LuckyItemManager@@QAEPAU_LUCKY_ITEM_EQUIPMENT@@PAU_LUCKY_ITEM_INFO@@H@Z ENDP ; LuckyItemManager::GetLuckyItemEquipment
_TEXT	ENDS
PUBLIC	?LuckyItemTicketExchange@LuckyItemManager@@QAEXPAUOBJECTSTRUCT@@@Z ; LuckyItemManager::LuckyItemTicketExchange
; Function compile flags: /Ogtp
;	COMDAT ?LuckyItemTicketExchange@LuckyItemManager@@QAEXPAUOBJECTSTRUCT@@@Z
_TEXT	SEGMENT
_lpObj$ = 8						; size = 4
?LuckyItemTicketExchange@LuckyItemManager@@QAEXPAUOBJECTSTRUCT@@@Z PROC ; LuckyItemManager::LuckyItemTicketExchange, COMDAT
; _this$ = ecx

; 435  : 	/*
; 436  : 	int iValidItemCount		= 0;	//ebp-8
; 437  : 	int iInvalidItemCount	= 0;	//ebp-0c
; 438  : 	CItem NewItem;
; 439  : 	// ----
; 440  : 	PMSG_CHAOSMIXRESULT pMsg;
; 441  : 	PHeadSetB((LPBYTE)&pMsg.h, 0x86, sizeof(PMSG_CHAOSMIXRESULT));
; 442  : 	pMsg.Result = CB_ERROR;
; 443  : 	// ----
; 444  : 	lpObj->ChaosLock = true;
; 445  : 	// ----
; 446  : 	_LUCKY_ITEM_INFO * pLuckyItemInfo				= 0;	//ebp-e4
; 447  : 	_ITEM_LEVEL_RATE * pItemLevelRandRate			= 0;	//ebp-e8
; 448  : 	_LUCKY_ITEM_EQUIPMENT * pLuckyItemEquipment		= 0;	//ebp-ec
; 449  : 	int pAddOpt3Rate[4]								= { 0 };
; 450  : 	int piAddSetOptRate[2]							= { 0 };
; 451  : 	int iItemPos									= -1;
; 452  : 	int iItemHeight									= 4;
; 453  : 	int iItemWidth									= 4;
; 454  : 	// ----
; 455  : 	if( !CheckInventoryEmptySpace(lpObj, iItemHeight, iItemWidth) )	//CheckInventoryEmptySpace_
; 456  : 	{
; 457  : 		LogAddTD("[LuckyItem] - Fail - Not Empty Inventory [%s][%s] CharClass[%d]", lpObj->AccountID, lpObj->Name, lpObj->Class);
; 458  : 		pMsg.Result = 0xF1;
; 459  : 		DataSend(lpObj->m_Index, (LPBYTE)&pMsg, pMsg.h.size);
; 460  : 		lpObj->ChaosLock = false;
; 461  : 		return;
; 462  : 	}
; 463  : 	// ----
; 464  : 	for( int i = 0; i < CHAOS_BOX_SIZE; i++ )
; 465  : 	{
; 466  : 		if( lpObj->pChaosBox[i].IsItem() )
; 467  : 		{
; 468  : 			pLuckyItemInfo = this->GetCharClassLuckyItemInfo(lpObj->pChaosBox[i].m_Type, lpObj->Class);
; 469  : 			// -----
; 470  : 			if( pLuckyItemInfo == NULL )
; 471  : 			{
; 472  : 				iInvalidItemCount++;
; 473  : 				iItemPos = i;
; 474  : 			}
; 475  : 			else
; 476  : 			{
; 477  : 				iValidItemCount++;
; 478  : 				iItemPos = i;
; 479  : 			}
; 480  : 		}
; 481  : 	}
; 482  : 	// ----
; 483  : 	if( iValidItemCount != 1 || iInvalidItemCount != 0 || iItemPos == -1 )
; 484  : 	{
; 485  : 		LogAddTD("[LuckyItem] - Can Not be Exchanged [%s][%s] CharClass[%d] ItemNum[%d] ItemName[%s]", lpObj->AccountID, lpObj->Name, lpObj->Class,
; 486  : 			lpObj->pChaosBox[iItemPos].m_Type, ItemAttribute[lpObj->pChaosBox[iItemPos].m_Type].Name);
; 487  : 		pMsg.Result = 0x20;
; 488  : 		DataSend(lpObj->m_Index, (LPBYTE)&pMsg, pMsg.h.size);
; 489  : 		lpObj->ChaosLock = false;
; 490  : 		return;
; 491  : 	}
; 492  : 	// ----
; 493  : 	g_MixSystem.LogChaosItem(lpObj, "[LuckyItem] Item Exchange");
; 494  : 	LogAddTD("[LuckyItem] - Exchange Start");
; 495  : 	// ----
; 496  : 	int	iCharType		= 0;
; 497  : 	int Type			= 0;
; 498  : 	BYTE level			= 0;
; 499  : 	BYTE dur			= 0xFF;
; 500  : 	BYTE Op1			= 0;
; 501  : 	BYTE Op2			= 0;
; 502  : 	BYTE Op3			= 0;
; 503  : 	BYTE ExOption		= 0;
; 504  : 	int iMinLv			= 0;
; 505  : 	int iMaxLv			= 0;
; 506  : 	int SetOption		= 0;
; 507  : 	pItemLevelRandRate	= pLuckyItemInfo->m_ItemLevelRandRate;
; 508  : 	pLuckyItemEquipment = this->GetLuckyItemEquipment(pLuckyItemInfo, lpObj->Class);
; 509  : 	pAddOpt3Rate[0]		= pLuckyItemInfo->AddOpt3Rate[0];
; 510  : 	piAddSetOptRate[0]	= pLuckyItemInfo->AddSetOptRate[0];
; 511  : 	// ----
; 512  : 	if( pLuckyItemEquipment == 0 || pItemLevelRandRate == 0 || piAddSetOptRate == 0 || pAddOpt3Rate	== 0 )
; 513  : 	{
; 514  : 		LogAddTD("[LuckyItem] --- Error --- [%s][%s] CharClass[%d] ItemNum[%d] ItemName[%s]", lpObj->AccountID, lpObj->Name, lpObj->Class,
; 515  : 			lpObj->pChaosBox[iItemPos].m_Type, ItemAttribute[lpObj->pChaosBox[iItemPos].m_Type].Name);
; 516  : 		DataSend(lpObj->m_Index, (LPBYTE)&pMsg, pMsg.h.size);
; 517  : 		lpObj->ChaosLock = false;
; 518  : 		return;
; 519  : 	}
; 520  : 	// ----
; 521  : 	Type		= pLuckyItemEquipment->m_Index;
; 522  : 	SetOption	= gSetItemOption.LuckyItemGenSetOption(Type, piAddSetOptRate);
; 523  : 	level		= this->GambleGetLevel(pItemLevelRandRate, lpObj->m_Index);
; 524  : 	// ----
; 525  : 	if( pLuckyItemEquipment->m_Skill )
; 526  : 	{
; 527  : 		Op1 = 1;
; 528  : 	}
; 529  : 	// ----
; 530  : 	if( pLuckyItemEquipment->m_Luck )
; 531  : 	{
; 532  : 		Op2 = 0;
; 533  : 		// ----
; 534  : 		if( !(rand() % 2) )
; 535  : 		{
; 536  : 			Op2 = 1;
; 537  : 		}
; 538  : 	}
; 539  : 	// ----
; 540  : 	DWORD dwOptionTemp = GetLargeRand() % 1000000;
; 541  : 	// ----
; 542  : 	if( pLuckyItemEquipment->m_Option )
; 543  : 	{
; 544  : 		if( dwOptionTemp <= (DWORD)pAddOpt3Rate[0] )
; 545  : 		{
; 546  : 			Op3 = 0;
; 547  : 		}
; 548  : 		// ----
; 549  : 		if( dwOptionTemp <= (DWORD)(pAddOpt3Rate[0] + pAddOpt3Rate[1]) )
; 550  : 		{
; 551  : 			Op3 = 1;
; 552  : 		}
; 553  : 		// ----
; 554  : 		if( dwOptionTemp <= (DWORD)(pAddOpt3Rate[0] + pAddOpt3Rate[1] + pAddOpt3Rate[2]) )
; 555  : 		{
; 556  : 			Op3 = 2;
; 557  : 		}
; 558  : 		// ----
; 559  : 		if( dwOptionTemp <= (DWORD)(pAddOpt3Rate[0] + pAddOpt3Rate[1] + pAddOpt3Rate[2] + pAddOpt3Rate[3]) )
; 560  : 		{
; 561  : 			Op3 = 3;
; 562  : 		}
; 563  : 	}
; 564  : 	// ----
; 565  : #pragma message("#### FIX ME ####")
; 566  : 	//ItemSerialCreateSend(lpObj->m_Index, 0xFF, 0, 0, Type, level, dur, Op1, Op2, Op3, lpObj->m_Index, ExOption, SetOption, 0, 0, 0);
; 567  : 	ItemSerialCreateSend(lpObj->m_Index, 0xFF, 0, 0, Type, level, dur, Op1, Op2, Op3, lpObj->m_Index, ExOption, SetOption);
; 568  : 	// ----
; 569  : 	int	tmpSetOption = 0;
; 570  : 	// ----
; 571  : 	if( (SetOption & 0x01) != 0 )
; 572  : 	{
; 573  : 		tmpSetOption = 1;
; 574  : 	}
; 575  : 	else if( (SetOption & 0x02) != 0 )
; 576  : 	{
; 577  : 		tmpSetOption = 2;
; 578  : 	}
; 579  : 	// ----
; 580  : 	char szSetItemName[48] = { 0 };
; 581  : 	strcpy(szSetItemName, gSetItemOption.GetSetOptionName(Type, tmpSetOption));
; 582  : 	strcat(szSetItemName, ItemAttribute[pLuckyItemEquipment->m_Index].Name);
; 583  : 	LogAddTD("[LuckyItem] - Exchange End [%s][%s][%d] ItemName[%s] ItemNum[%d] Level[%d] Dur[%d] skill[%d] luck[%d] option[%d] ExOpt[%d] SetOption[%d]",
; 584  : 		lpObj->AccountID, lpObj->Name, lpObj->Class, szSetItemName, Type, level, dur, Op1, Op2, Op3, ExOption, SetOption);
; 585  : 	gObjInventoryCommit(lpObj->m_Index);
; 586  : 	*/
; 587  : }

  00000	c2 04 00	 ret	 4
?LuckyItemTicketExchange@LuckyItemManager@@QAEXPAUOBJECTSTRUCT@@@Z ENDP ; LuckyItemManager::LuckyItemTicketExchange
_TEXT	ENDS
PUBLIC	?GambleGetLevel@LuckyItemManager@@QAEEPAU_ITEM_LEVEL_RATE@@H@Z ; LuckyItemManager::GambleGetLevel
EXTRN	?GetLargeRand@@YAKXZ:PROC			; GetLargeRand
; Function compile flags: /Ogtp
;	COMDAT ?GambleGetLevel@LuckyItemManager@@QAEEPAU_ITEM_LEVEL_RATE@@H@Z
_TEXT	SEGMENT
_pItemLevelRandRate$ = 8				; size = 4
_iIndex$ = 12						; size = 4
?GambleGetLevel@LuckyItemManager@@QAEEPAU_ITEM_LEVEL_RATE@@H@Z PROC ; LuckyItemManager::GambleGetLevel, COMDAT
; _this$ = ecx

; 592  : {

  00000	55		 push	 ebp
  00001	8b ec		 mov	 ebp, esp
  00003	53		 push	 ebx
  00004	56		 push	 esi

; 593  : 	BYTE level			= 0; //ebp-8

  00005	32 db		 xor	 bl, bl

; 594  : 	long dwRandRate		= GetLargeRand() % 1000000; //ebp-0c

  00007	e8 00 00 00 00	 call	 ?GetLargeRand@@YAKXZ	; GetLargeRand
  0000c	33 d2		 xor	 edx, edx
  0000e	b9 40 42 0f 00	 mov	 ecx, 1000000		; 000f4240H
  00013	f7 f1		 div	 ecx
  00015	8b 4d 08	 mov	 ecx, DWORD PTR _pItemLevelRandRate$[ebp]

; 595  : 	long dwLevelTemp	= 0; //ebp-10

  00018	33 c0		 xor	 eax, eax
  0001a	83 c1 0c	 add	 ecx, 12			; 0000000cH
  0001d	8b f2		 mov	 esi, edx
  0001f	8d 50 04	 lea	 edx, DWORD PTR [eax+4]
$LL4@GambleGetL:

; 598  : 	{
; 599  : 		dwLevelTemp += pItemLevelRandRate[i].m_Rate;

  00022	03 41 f8	 add	 eax, DWORD PTR [ecx-8]

; 600  : 		// ----
; 601  : 		if( dwRandRate <= dwLevelTemp )

  00025	3b f0		 cmp	 esi, eax
  00027	7f 03		 jg	 SHORT $LN3@GambleGetL

; 602  : 		{
; 603  : 			level = (BYTE)pItemLevelRandRate[i].m_Level;

  00029	8a 59 f4	 mov	 bl, BYTE PTR [ecx-12]
$LN3@GambleGetL:

; 598  : 	{
; 599  : 		dwLevelTemp += pItemLevelRandRate[i].m_Rate;

  0002c	03 01		 add	 eax, DWORD PTR [ecx]

; 600  : 		// ----
; 601  : 		if( dwRandRate <= dwLevelTemp )

  0002e	3b f0		 cmp	 esi, eax
  00030	7f 03		 jg	 SHORT $LN10@GambleGetL

; 602  : 		{
; 603  : 			level = (BYTE)pItemLevelRandRate[i].m_Level;

  00032	8a 59 fc	 mov	 bl, BYTE PTR [ecx-4]
$LN10@GambleGetL:

; 598  : 	{
; 599  : 		dwLevelTemp += pItemLevelRandRate[i].m_Rate;

  00035	03 41 08	 add	 eax, DWORD PTR [ecx+8]

; 600  : 		// ----
; 601  : 		if( dwRandRate <= dwLevelTemp )

  00038	3b f0		 cmp	 esi, eax
  0003a	7f 03		 jg	 SHORT $LN11@GambleGetL

; 602  : 		{
; 603  : 			level = (BYTE)pItemLevelRandRate[i].m_Level;

  0003c	8a 59 04	 mov	 bl, BYTE PTR [ecx+4]
$LN11@GambleGetL:

; 598  : 	{
; 599  : 		dwLevelTemp += pItemLevelRandRate[i].m_Rate;

  0003f	03 41 10	 add	 eax, DWORD PTR [ecx+16]

; 600  : 		// ----
; 601  : 		if( dwRandRate <= dwLevelTemp )

  00042	3b f0		 cmp	 esi, eax
  00044	7f 03		 jg	 SHORT $LN12@GambleGetL

; 602  : 		{
; 603  : 			level = (BYTE)pItemLevelRandRate[i].m_Level;

  00046	8a 59 0c	 mov	 bl, BYTE PTR [ecx+12]
$LN12@GambleGetL:

; 593  : 	BYTE level			= 0; //ebp-8

  00049	83 c1 20	 add	 ecx, 32			; 00000020H

; 596  : 	// ----
; 597  : 	for( int i = 0; i < MAX_LUCKYINFO_LEVELRATE; i++ ) //ebp-14

  0004c	4a		 dec	 edx
  0004d	75 d3		 jne	 SHORT $LL4@GambleGetL

; 604  : 		}
; 605  : 	}
; 606  : 	// ----
; 607  : 	return level;

  0004f	5e		 pop	 esi
  00050	8a c3		 mov	 al, bl
  00052	5b		 pop	 ebx

; 608  : }

  00053	5d		 pop	 ebp
  00054	c2 08 00	 ret	 8
?GambleGetLevel@LuckyItemManager@@QAEEPAU_ITEM_LEVEL_RATE@@H@Z ENDP ; LuckyItemManager::GambleGetLevel
_TEXT	ENDS
PUBLIC	?LuckyItemSmelting@LuckyItemManager@@QAEXPAUOBJECTSTRUCT@@@Z ; LuckyItemManager::LuckyItemSmelting
; Function compile flags: /Ogtp
;	COMDAT ?LuckyItemSmelting@LuckyItemManager@@QAEXPAUOBJECTSTRUCT@@@Z
_TEXT	SEGMENT
_lpObj$ = 8						; size = 4
?LuckyItemSmelting@LuckyItemManager@@QAEXPAUOBJECTSTRUCT@@@Z PROC ; LuckyItemManager::LuckyItemSmelting, COMDAT
; _this$ = ecx

; 614  : 	/*
; 615  : 	int iValidItemCount		= 0;
; 616  : 	BYTE iInvalidItemCount	= 0;
; 617  : 	// ----
; 618  : 	CItem NewItem;
; 619  : 	PMSG_CHAOSMIXRESULT pMsg;
; 620  : 	PHeadSetB((LPBYTE)&pMsg, 0x86, sizeof(PMSG_CHAOSMIXRESULT));
; 621  : 	// ----
; 622  : 	pMsg.Result			= CB_ERROR;
; 623  : 	lpObj->ChaosLock	= true;
; 624  : 	int iItemPos		= -1;
; 625  : 	// ----
; 626  : 	for( int i = 0; i < CHAOS_BOX_SIZE; i++ )
; 627  : 	{
; 628  : 		if( lpObj->pChaosBox[i].IsItem() )
; 629  : 		{
; 630  : 			int bLuckyItemEquipment = this->IsLuckyItemEquipment(lpObj->pChaosBox[i].m_Type);
; 631  : 			// ----
; 632  : 			if( !bLuckyItemEquipment )
; 633  : 			{
; 634  : 				iInvalidItemCount++;
; 635  : 			}
; 636  : 			else
; 637  : 			{
; 638  : 				iValidItemCount++;
; 639  : 				iItemPos = i;
; 640  : 			}
; 641  : 		}
; 642  : 	}
; 643  : 	// ----
; 644  : 	if( iValidItemCount != 1 || iInvalidItemCount != 0 || iItemPos == -1 )
; 645  : 	{
; 646  : 		DataSend(lpObj->m_Index, (LPBYTE)&pMsg, pMsg.h.size);
; 647  : 		lpObj->ChaosLock = false;
; 648  : 		return;
; 649  : 	}
; 650  : 	else
; 651  : 	{
; 652  : 		LogAddTD("[LuckyItemSmelting] - Smelting Start");
; 653  : 		g_MixSystem.LogChaosItem(lpObj, "[LuckyItem] Item Smelting");
; 654  : 		// ----
; 655  : 		int bGambleLuckyItemSmelting = this->GambleLuckyItemSmelting(lpObj->pChaosBox[iItemPos].m_Type, (int)lpObj->pChaosBox[iItemPos].m_Durability);
; 656  : 		this->GDReqLuckyItemDelete(lpObj->pChaosBox[iItemPos].m_Type, lpObj->pChaosBox[iItemPos].m_Number, lpObj->m_Index);
; 657  : 		// ----
; 658  : 		int iCharType	= 0;
; 659  : 		int Type		= ITEMGET(14, 160);
; 660  : 		BYTE level		= 0;
; 661  : 		BYTE dur		= 0;
; 662  : 		BYTE Op1		= 0;
; 663  : 		BYTE Op2		= 0;
; 664  : 		BYTE Op3		= 0;
; 665  : 		BYTE ExOption	= 0;
; 666  : 		// ----
; 667  : 		if( !bGambleLuckyItemSmelting )
; 668  : 		{
; 669  : 			g_MixSystem.ChaosBoxInit(lpObj);
; 670  : 			GCUserChaosBoxSend(lpObj, 0);
; 671  : 			DataSend(lpObj->m_Index, (LPBYTE)&pMsg, pMsg.h.size);
; 672  : 			// ----
; 673  : 			LogAddTD("[LuckyItem][Smelt Item Mix] Mix Fail [%s][%s] ", lpObj->AccountID, lpObj->Name);
; 674  : 			// ----
; 675  : 			GCServerMsgStringSend(lMsg.Get(3375), lpObj->m_Index, 0x01);
; 676  : 			lpObj->ChaosLock = false;
; 677  : 			return;
; 678  : 		}
; 679  : 		else
; 680  : 		{
; 681  : #pragma message("#### FIX ME ####")
; 682  : 			//ItemSerialCreateSend(lpObj->m_Index, 0xFF, 0, 0, Type, level, 1, Op1, Op2, Op3, lpObj->m_Index, ExOption, 0, 0, 0, 0);
; 683  : 			ItemSerialCreateSend(lpObj->m_Index, 0xFF, 0, 0, Type, level, 1, Op1, Op2, Op3, lpObj->m_Index, ExOption, 0);			
; 684  : 		}
; 685  : 		// ----
; 686  : 		LogAddTD("[LuckyItem][Smelt Item Mix] Mix Success [%s][%s] ItemName[%s] ItemNum[%d] Level[%d] Dur[%d] skill[%d] luck[%d] option[%d] ExOpt[%d]",
; 687  : 			lpObj->AccountID, lpObj->Name, ItemAttribute[Type].Name, Type, level, dur, Op1, Op2, Op3, ExOption);
; 688  : 		// ----
; 689  : 		gObjInventoryCommit(lpObj->m_Index);
; 690  : 		GCServerMsgStringSend(lMsg.Get(3376), lpObj->m_Index, 0x01);
; 691  : 		return;
; 692  : 	}
; 693  : 	*/
; 694  : }

  00000	c2 04 00	 ret	 4
?LuckyItemSmelting@LuckyItemManager@@QAEXPAUOBJECTSTRUCT@@@Z ENDP ; LuckyItemManager::LuckyItemSmelting
_TEXT	ENDS
PUBLIC	?GetLuckyItemDurabilityTime@LuckyItemManager@@QAEHXZ ; LuckyItemManager::GetLuckyItemDurabilityTime
; Function compile flags: /Ogtp
;	COMDAT ?GetLuckyItemDurabilityTime@LuckyItemManager@@QAEHXZ
_TEXT	SEGMENT
?GetLuckyItemDurabilityTime@LuckyItemManager@@QAEHXZ PROC ; LuckyItemManager::GetLuckyItemDurabilityTime, COMDAT
; _this$ = ecx

; 727  : 	//2400 = default
; 728  : 	return 2400;//g_LuckyItemDurabilityTime;

  00000	b8 60 09 00 00	 mov	 eax, 2400		; 00000960H

; 729  : }

  00005	c3		 ret	 0
?GetLuckyItemDurabilityTime@LuckyItemManager@@QAEHXZ ENDP ; LuckyItemManager::GetLuckyItemDurabilityTime
_TEXT	ENDS
PUBLIC	?GetLevel@LuckyItemManager@@QAEEHH@Z		; LuckyItemManager::GetLevel
EXTRN	_rand:PROC
; Function compile flags: /Ogtp
;	COMDAT ?GetLevel@LuckyItemManager@@QAEEHH@Z
_TEXT	SEGMENT
_iMinLv$ = 8						; size = 4
_iMaxLv$ = 12						; size = 4
?GetLevel@LuckyItemManager@@QAEEHH@Z PROC		; LuckyItemManager::GetLevel, COMDAT
; _this$ = ecx

; 734  : {

  00000	55		 push	 ebp
  00001	8b ec		 mov	 ebp, esp
  00003	53		 push	 ebx

; 735  : 	if( iMinLv == iMaxLv )

  00004	8b 5d 08	 mov	 ebx, DWORD PTR _iMinLv$[ebp]
  00007	56		 push	 esi
  00008	8b 75 0c	 mov	 esi, DWORD PTR _iMaxLv$[ebp]
  0000b	3b de		 cmp	 ebx, esi
  0000d	75 08		 jne	 SHORT $LN1@GetLevel

; 736  : 	{
; 737  : 		return iMinLv;

  0000f	5e		 pop	 esi
  00010	8a c3		 mov	 al, bl
  00012	5b		 pop	 ebx

; 744  : }

  00013	5d		 pop	 ebp
  00014	c2 08 00	 ret	 8
$LN1@GetLevel:

; 738  : 	}
; 739  : 	// ----
; 740  : 	int sub		= iMaxLv - iMinLv + 1;		//ebp-8
; 741  : 	int level	= rand() % sub + iMinLv;	//ebp-0c

  00017	e8 00 00 00 00	 call	 _rand

; 742  : 	// ----
; 743  : 	return level;

  0001c	2b f3		 sub	 esi, ebx
  0001e	99		 cdq
  0001f	46		 inc	 esi
  00020	f7 fe		 idiv	 esi
  00022	5e		 pop	 esi
  00023	8d 04 13	 lea	 eax, DWORD PTR [ebx+edx]
  00026	5b		 pop	 ebx

; 744  : }

  00027	5d		 pop	 ebp
  00028	c2 08 00	 ret	 8
?GetLevel@LuckyItemManager@@QAEEHH@Z ENDP		; LuckyItemManager::GetLevel
_TEXT	ENDS
PUBLIC	__$ArrayPad$
PUBLIC	?GDReqLuckyItemInsert@LuckyItemManager@@QAEHFJFH@Z ; LuckyItemManager::GDReqLuckyItemInsert
EXTRN	?Send@DBSockMng@@QAEHPADH@Z:PROC		; DBSockMng::Send
EXTRN	?cDBSMng@@3VDBSockMng@@A:BYTE			; cDBSMng
EXTRN	?PHeadSubSetB@@YAXPAEEEH@Z:PROC			; PHeadSubSetB
EXTRN	?gObj@@3PAUOBJECTSTRUCT@@A:DWORD		; gObj
; Function compile flags: /Ogtp
;	COMDAT ?GDReqLuckyItemInsert@LuckyItemManager@@QAEHFJFH@Z
_TEXT	SEGMENT
_pMsg$ = -36						; size = 32
__$ArrayPad$ = -4					; size = 4
_wItemCode$ = 8						; size = 2
_dwSerial$ = 12						; size = 4
_wDurabilitySmall$ = 16					; size = 2
_iObjIndex$ = 20					; size = 4
?GDReqLuckyItemInsert@LuckyItemManager@@QAEHFJFH@Z PROC	; LuckyItemManager::GDReqLuckyItemInsert, COMDAT
; _this$ = ecx

; 827  : {

  00000	55		 push	 ebp
  00001	8b ec		 mov	 ebp, esp
  00003	83 ec 24	 sub	 esp, 36			; 00000024H
  00006	a1 00 00 00 00	 mov	 eax, DWORD PTR ___security_cookie
  0000b	33 c5		 xor	 eax, ebp
  0000d	89 45 fc	 mov	 DWORD PTR __$ArrayPad$[ebp], eax
  00010	8b 45 14	 mov	 eax, DWORD PTR _iObjIndex$[ebp]

; 828  : 	LPOBJ lpObj = &gObj[iObjIndex];

  00013	69 c0 40 27 00
	00		 imul	 eax, 10048		; 00002740H
  00019	03 05 00 00 00
	00		 add	 eax, DWORD PTR ?gObj@@3PAUOBJECTSTRUCT@@A ; gObj

; 829  : 	PMSG_REQ_LUCKYITEM_INSERT pMsg;
; 830  : 	// ----
; 831  : 	pMsg.dwUserGuid	= lpObj->DBNumber;
; 832  : 	memcpy(pMsg.szCharName, lpObj->Name, sizeof(pMsg.szCharName));
; 833  : 	pMsg.LuckyItemDBInfo.wItemCode			= wItemCode;
; 834  : 	pMsg.LuckyItemDBInfo.dwSerial			= dwSerial;
; 835  : 	pMsg.LuckyItemDBInfo.wDurabilitySmall	= wDurabilitySmall;
; 836  : 	// ----
; 837  : 	PHeadSubSetB((LPBYTE)&pMsg, 0xD1, 0x22, sizeof(PMSG_REQ_LUCKYITEM_INSERT));

  0001f	6a 20		 push	 32			; 00000020H
  00021	8b 48 30	 mov	 ecx, DWORD PTR [eax+48]
  00024	89 4d e0	 mov	 DWORD PTR _pMsg$[ebp+4], ecx
  00027	8b 50 5d	 mov	 edx, DWORD PTR [eax+93]
  0002a	89 55 e4	 mov	 DWORD PTR _pMsg$[ebp+8], edx
  0002d	8b 48 61	 mov	 ecx, DWORD PTR [eax+97]
  00030	89 4d e8	 mov	 DWORD PTR _pMsg$[ebp+12], ecx
  00033	66 8b 50 65	 mov	 dx, WORD PTR [eax+101]
  00037	66 8b 4d 08	 mov	 cx, WORD PTR _wItemCode$[ebp]
  0003b	66 89 55 ec	 mov	 WORD PTR _pMsg$[ebp+16], dx
  0003f	8a 40 67	 mov	 al, BYTE PTR [eax+103]
  00042	8b 55 0c	 mov	 edx, DWORD PTR _dwSerial$[ebp]
  00045	6a 22		 push	 34			; 00000022H
  00047	66 89 4d f0	 mov	 WORD PTR _pMsg$[ebp+20], cx
  0004b	88 45 ee	 mov	 BYTE PTR _pMsg$[ebp+18], al
  0004e	66 8b 45 10	 mov	 ax, WORD PTR _wDurabilitySmall$[ebp]
  00052	8d 4d dc	 lea	 ecx, DWORD PTR _pMsg$[ebp]
  00055	68 d1 00 00 00	 push	 209			; 000000d1H
  0005a	51		 push	 ecx
  0005b	89 55 f4	 mov	 DWORD PTR _pMsg$[ebp+24], edx
  0005e	66 89 45 f8	 mov	 WORD PTR _pMsg$[ebp+28], ax
  00062	e8 00 00 00 00	 call	 ?PHeadSubSetB@@YAXPAEEEH@Z ; PHeadSubSetB

; 838  : 	cDBSMng.Send((char *)&pMsg, pMsg.head.size);

  00067	0f b6 55 dd	 movzx	 edx, BYTE PTR _pMsg$[ebp+1]
  0006b	83 c4 10	 add	 esp, 16			; 00000010H
  0006e	52		 push	 edx
  0006f	8d 45 dc	 lea	 eax, DWORD PTR _pMsg$[ebp]
  00072	50		 push	 eax
  00073	b9 00 00 00 00	 mov	 ecx, OFFSET ?cDBSMng@@3VDBSockMng@@A ; cDBSMng
  00078	e8 00 00 00 00	 call	 ?Send@DBSockMng@@QAEHPADH@Z ; DBSockMng::Send

; 839  : 	return true;
; 840  : }

  0007d	8b 4d fc	 mov	 ecx, DWORD PTR __$ArrayPad$[ebp]
  00080	33 cd		 xor	 ecx, ebp
  00082	b8 01 00 00 00	 mov	 eax, 1
  00087	e8 00 00 00 00	 call	 @__security_check_cookie@4
  0008c	8b e5		 mov	 esp, ebp
  0008e	5d		 pop	 ebp
  0008f	c2 10 00	 ret	 16			; 00000010H
?GDReqLuckyItemInsert@LuckyItemManager@@QAEHFJFH@Z ENDP	; LuckyItemManager::GDReqLuckyItemInsert
_TEXT	ENDS
PUBLIC	??_C@_0EC@NOONGDMI@?$FLLuckyItem?$FN?5GDReqLuckyItemDelete@ ; `string'
PUBLIC	__$ArrayPad$
PUBLIC	?GDReqLuckyItemDelete@LuckyItemManager@@QAEXFJH@Z ; LuckyItemManager::GDReqLuckyItemDelete
EXTRN	?LogAddTD@@3P6AXPADZZA:DWORD			; LogAddTD
;	COMDAT ??_C@_0EC@NOONGDMI@?$FLLuckyItem?$FN?5GDReqLuckyItemDelete@
CONST	SEGMENT
??_C@_0EC@NOONGDMI@?$FLLuckyItem?$FN?5GDReqLuckyItemDelete@ DB '[LuckyIte'
	DB	'm] GDReqLuckyItemDelete [%s][%s] ItemCode[%d] Serial[%u]', 00H ; `string'
; Function compile flags: /Ogtp
CONST	ENDS
;	COMDAT ?GDReqLuckyItemDelete@LuckyItemManager@@QAEXFJH@Z
_TEXT	SEGMENT
_pMsg$ = -28						; size = 24
__$ArrayPad$ = -4					; size = 4
_wItemCode$ = 8						; size = 2
_dwSerial$ = 12						; size = 4
_iObjIndex$ = 16					; size = 4
?GDReqLuckyItemDelete@LuckyItemManager@@QAEXFJH@Z PROC	; LuckyItemManager::GDReqLuckyItemDelete, COMDAT
; _this$ = ecx

; 883  : {

  00000	55		 push	 ebp
  00001	8b ec		 mov	 ebp, esp
  00003	83 ec 1c	 sub	 esp, 28			; 0000001cH
  00006	a1 00 00 00 00	 mov	 eax, DWORD PTR ___security_cookie
  0000b	33 c5		 xor	 eax, ebp
  0000d	89 45 fc	 mov	 DWORD PTR __$ArrayPad$[ebp], eax
  00010	53		 push	 ebx
  00011	56		 push	 esi
  00012	57		 push	 edi
  00013	8b 7d 10	 mov	 edi, DWORD PTR _iObjIndex$[ebp]

; 884  : 	LPOBJ lpObj = &gObj[iObjIndex];
; 885  : 	PMSG_REQ_LUCKYITEM_DELETE pMsg;
; 886  : 	// ----
; 887  : 	pMsg.wUserIndex = lpObj->m_Index;
; 888  : 	memcpy(pMsg.szCharName, lpObj->Name, sizeof(pMsg.szCharName));
; 889  : 	pMsg.wItemCode	= wItemCode;

  00016	66 8b 5d 08	 mov	 bx, WORD PTR _wItemCode$[ebp]
  0001a	69 ff 40 27 00
	00		 imul	 edi, 10048		; 00002740H
  00020	03 3d 00 00 00
	00		 add	 edi, DWORD PTR ?gObj@@3PAUOBJECTSTRUCT@@A ; gObj

; 890  : 	pMsg.dwSerial	= dwSerial;
; 891  : 	// ----
; 892  : 	PHeadSubSetB((LPBYTE)&pMsg, 0xD1, 0x23, sizeof(PMSG_REQ_LUCKYITEM_DELETE));

  00026	6a 18		 push	 24			; 00000018H
  00028	0f b7 07	 movzx	 eax, WORD PTR [edi]
  0002b	66 89 45 e8	 mov	 WORD PTR _pMsg$[ebp+4], ax
  0002f	8b 4f 5d	 mov	 ecx, DWORD PTR [edi+93]
  00032	8d 77 5d	 lea	 esi, DWORD PTR [edi+93]
  00035	89 4d ea	 mov	 DWORD PTR _pMsg$[ebp+6], ecx
  00038	8b 56 04	 mov	 edx, DWORD PTR [esi+4]
  0003b	89 55 ee	 mov	 DWORD PTR _pMsg$[ebp+10], edx
  0003e	0f b7 46 08	 movzx	 eax, WORD PTR [esi+8]
  00042	8b 55 0c	 mov	 edx, DWORD PTR _dwSerial$[ebp]
  00045	66 89 45 f2	 mov	 WORD PTR _pMsg$[ebp+14], ax
  00049	8a 4e 0a	 mov	 cl, BYTE PTR [esi+10]
  0004c	6a 23		 push	 35			; 00000023H
  0004e	8d 45 e4	 lea	 eax, DWORD PTR _pMsg$[ebp]
  00051	68 d1 00 00 00	 push	 209			; 000000d1H
  00056	50		 push	 eax
  00057	88 4d f4	 mov	 BYTE PTR _pMsg$[ebp+16], cl
  0005a	66 89 5d f6	 mov	 WORD PTR _pMsg$[ebp+18], bx
  0005e	89 55 f8	 mov	 DWORD PTR _pMsg$[ebp+20], edx
  00061	e8 00 00 00 00	 call	 ?PHeadSubSetB@@YAXPAEEEH@Z ; PHeadSubSetB

; 893  : 	cDBSMng.Send((char *)&pMsg, pMsg.head.size);

  00066	0f b6 4d e5	 movzx	 ecx, BYTE PTR _pMsg$[ebp+1]
  0006a	83 c4 10	 add	 esp, 16			; 00000010H
  0006d	51		 push	 ecx
  0006e	8d 55 e4	 lea	 edx, DWORD PTR _pMsg$[ebp]
  00071	52		 push	 edx
  00072	b9 00 00 00 00	 mov	 ecx, OFFSET ?cDBSMng@@3VDBSockMng@@A ; cDBSMng
  00077	e8 00 00 00 00	 call	 ?Send@DBSockMng@@QAEHPADH@Z ; DBSockMng::Send

; 894  : 	// ----
; 895  : 	LogAddTD("[LuckyItem] GDReqLuckyItemDelete [%s][%s] ItemCode[%d] Serial[%u]",
; 896  : 		lpObj->AccountID, lpObj->Name, wItemCode, dwSerial);

  0007c	8b 45 0c	 mov	 eax, DWORD PTR _dwSerial$[ebp]
  0007f	50		 push	 eax
  00080	0f bf cb	 movsx	 ecx, bx
  00083	51		 push	 ecx
  00084	56		 push	 esi
  00085	83 c7 52	 add	 edi, 82			; 00000052H
  00088	57		 push	 edi
  00089	68 00 00 00 00	 push	 OFFSET ??_C@_0EC@NOONGDMI@?$FLLuckyItem?$FN?5GDReqLuckyItemDelete@
  0008e	ff 15 00 00 00
	00		 call	 DWORD PTR ?LogAddTD@@3P6AXPADZZA ; LogAddTD

; 897  : }

  00094	8b 4d fc	 mov	 ecx, DWORD PTR __$ArrayPad$[ebp]
  00097	83 c4 14	 add	 esp, 20			; 00000014H
  0009a	5f		 pop	 edi
  0009b	5e		 pop	 esi
  0009c	33 cd		 xor	 ecx, ebp
  0009e	5b		 pop	 ebx
  0009f	e8 00 00 00 00	 call	 @__security_check_cookie@4
  000a4	8b e5		 mov	 esp, ebp
  000a6	5d		 pop	 ebp
  000a7	c2 0c 00	 ret	 12			; 0000000cH
?GDReqLuckyItemDelete@LuckyItemManager@@QAEXFJH@Z ENDP	; LuckyItemManager::GDReqLuckyItemDelete
_TEXT	ENDS
PUBLIC	__$ArrayPad$
PUBLIC	?DGAnsLuckyItemList@LuckyItemManager@@QAEXPAUPMSG_ANS_LUCKYITEM_SELECT@@@Z ; LuckyItemManager::DGAnsLuckyItemList
EXTRN	?IsItem@CItem@@QAEHXZ:PROC			; CItem::IsItem
EXTRN	?gObjIsConnected@@YAHH@Z:PROC			; gObjIsConnected
EXTRN	_memcpy:PROC
; Function compile flags: /Ogtp
;	COMDAT ?DGAnsLuckyItemList@LuckyItemManager@@QAEXPAUPMSG_ANS_LUCKYITEM_SELECT@@@Z
_TEXT	SEGMENT
_pItem$181049 = -280					; size = 212
_this$ = -68						; size = 4
tv208 = -64						; size = 4
_iObjIndex$ = -60					; size = 4
tv350 = -56						; size = 4
tv311 = -56						; size = 4
_iDeleteItemList$ = -52					; size = 48
__$ArrayPad$ = -4					; size = 4
_lpRecv$ = 8						; size = 4
?DGAnsLuckyItemList@LuckyItemManager@@QAEXPAUPMSG_ANS_LUCKYITEM_SELECT@@@Z PROC ; LuckyItemManager::DGAnsLuckyItemList, COMDAT
; _this$ = ecx

; 902  : {

  00000	55		 push	 ebp
  00001	8b ec		 mov	 ebp, esp
  00003	81 ec 18 01 00
	00		 sub	 esp, 280		; 00000118H
  00009	a1 00 00 00 00	 mov	 eax, DWORD PTR ___security_cookie
  0000e	33 c5		 xor	 eax, ebp
  00010	89 45 fc	 mov	 DWORD PTR __$ArrayPad$[ebp], eax
  00013	53		 push	 ebx
  00014	56		 push	 esi
  00015	8b 75 08	 mov	 esi, DWORD PTR _lpRecv$[ebp]

; 903  : 	int iItemCnt	= lpRecv->btItemCnt;	//ebp-8

  00018	0f b6 5e 07	 movzx	 ebx, BYTE PTR [esi+7]
  0001c	57		 push	 edi

; 904  : 	int iObjIndex	= lpRecv->wUserIndex;	//ebp-0c

  0001d	0f b7 7e 04	 movzx	 edi, WORD PTR [esi+4]
  00021	89 4d bc	 mov	 DWORD PTR _this$[ebp], ecx
  00024	89 7d c4	 mov	 DWORD PTR _iObjIndex$[ebp], edi

; 905  : 	// -----
; 906  : 	if( iItemCnt < 0 )

  00027	85 db		 test	 ebx, ebx
  00029	0f 88 0f 01 00
	00		 js	 $LN13@DGAnsLucky

; 907  : 	{
; 908  : 		return;
; 909  : 	}
; 910  : 	// ----
; 911  : 	if( !OBJMAX_RANGE(iObjIndex) || !gObjIsConnected(iObjIndex) )

  0002f	85 ff		 test	 edi, edi
  00031	0f 88 07 01 00
	00		 js	 $LN13@DGAnsLucky
  00037	33 c0		 xor	 eax, eax
  00039	81 ff eb 2c 00
	00		 cmp	 edi, 11499		; 00002cebH
  0003f	0f 9e c0	 setle	 al
  00042	85 c0		 test	 eax, eax
  00044	0f 84 f4 00 00
	00		 je	 $LN13@DGAnsLucky
  0004a	57		 push	 edi
  0004b	e8 00 00 00 00	 call	 ?gObjIsConnected@@YAHH@Z ; gObjIsConnected
  00050	83 c4 04	 add	 esp, 4
  00053	85 c0		 test	 eax, eax
  00055	0f 84 e3 00 00
	00		 je	 $LN13@DGAnsLucky

; 912  : 	{
; 913  : 		return;
; 914  : 	}
; 915  : 	// ----
; 916  : 	int iDeleteItemList[12];
; 917  : 	memcpy(iDeleteItemList, lpRecv, iItemCnt * 12);	//wtf, why 12 * X...

  0005b	8d 04 5b	 lea	 eax, DWORD PTR [ebx+ebx*2]
  0005e	03 c0		 add	 eax, eax
  00060	03 c0		 add	 eax, eax
  00062	50		 push	 eax
  00063	8d 4d cc	 lea	 ecx, DWORD PTR _iDeleteItemList$[ebp]
  00066	56		 push	 esi
  00067	51		 push	 ecx
  00068	e8 00 00 00 00	 call	 _memcpy
  0006d	69 ff 40 27 00
	00		 imul	 edi, 10048		; 00002740H
  00073	8d b7 c0 11 00
	00		 lea	 esi, DWORD PTR [edi+4544]
  00079	83 c4 0c	 add	 esp, 12			; 0000000cH
  0007c	33 ff		 xor	 edi, edi
  0007e	89 75 c0	 mov	 DWORD PTR tv208[ebp], esi
  00081	89 7d c8	 mov	 DWORD PTR tv311[ebp], edi
  00084	eb 0d		 jmp	 SHORT $LN12@DGAnsLucky
  00086	eb 08 8d a4 24
	00 00 00 00 90	 npad	 10
$LL28@DGAnsLucky:
  00090	8b 75 c0	 mov	 esi, DWORD PTR tv208[ebp]
$LN12@DGAnsLucky:

; 923  : 	{
; 924  : 		if( gObj[iObjIndex].pInventory[i].IsItem() )

  00093	8b 15 00 00 00
	00		 mov	 edx, DWORD PTR ?gObj@@3PAUOBJECTSTRUCT@@A ; gObj
  00099	8b 0c 16	 mov	 ecx, DWORD PTR [esi+edx]
  0009c	03 cf		 add	 ecx, edi
  0009e	e8 00 00 00 00	 call	 ?IsItem@CItem@@QAEHXZ	; CItem::IsItem
  000a3	85 c0		 test	 eax, eax
  000a5	74 4c		 je	 SHORT $LN11@DGAnsLucky

; 925  : 		{
; 926  : 			CItem pItem = gObj[iObjIndex].pInventory[i];

  000a7	a1 00 00 00 00	 mov	 eax, DWORD PTR ?gObj@@3PAUOBJECTSTRUCT@@A ; gObj
  000ac	8b 34 06	 mov	 esi, DWORD PTR [esi+eax]
  000af	03 f7		 add	 esi, edi
  000b1	b9 35 00 00 00	 mov	 ecx, 53			; 00000035H
  000b6	8d bd e8 fe ff
	ff		 lea	 edi, DWORD PTR _pItem$181049[ebp]

; 927  : 			// -----
; 928  : 			for( int j = 0; j < iItemCnt; j++ )	//not "j"

  000bc	33 c0		 xor	 eax, eax
  000be	f3 a5		 rep movsd
  000c0	85 db		 test	 ebx, ebx
  000c2	7e 2f		 jle	 SHORT $LN11@DGAnsLucky
  000c4	0f bf bd ee fe
	ff ff		 movsx	 edi, WORD PTR _pItem$181049[ebp+6]
  000cb	8b 95 e8 fe ff
	ff		 mov	 edx, DWORD PTR _pItem$181049[ebp]
  000d1	8d 75 cc	 lea	 esi, DWORD PTR _iDeleteItemList$[ebp]
  000d4	8b ce		 mov	 ecx, esi
$LL8@DGAnsLucky:

; 929  : 			{
; 930  : 				if( pItem.m_Type == iDeleteItemList[6 * j] && pItem.m_Number == iDeleteItemList[3 * j] )

  000d6	3b 39		 cmp	 edi, DWORD PTR [ecx]
  000d8	75 04		 jne	 SHORT $LN7@DGAnsLucky
  000da	3b 16		 cmp	 edx, DWORD PTR [esi]
  000dc	74 0d		 je	 SHORT $LN23@DGAnsLucky
$LN7@DGAnsLucky:

; 927  : 			// -----
; 928  : 			for( int j = 0; j < iItemCnt; j++ )	//not "j"

  000de	40		 inc	 eax
  000df	83 c1 18	 add	 ecx, 24			; 00000018H
  000e2	83 c6 0c	 add	 esi, 12			; 0000000cH
  000e5	3b c3		 cmp	 eax, ebx
  000e7	7c ed		 jl	 SHORT $LL8@DGAnsLucky

; 929  : 			{
; 930  : 				if( pItem.m_Type == iDeleteItemList[6 * j] && pItem.m_Number == iDeleteItemList[3 * j] )

  000e9	eb 08		 jmp	 SHORT $LN11@DGAnsLucky
$LN23@DGAnsLucky:

; 931  : 				{
; 932  : 					pItem.m_DurabilitySmall = iDeleteItemList[6 * j];
; 933  : 					iDeleteItemList[j]		= 1;

  000eb	c7 44 85 cc 01
	00 00 00	 mov	 DWORD PTR _iDeleteItemList$[ebp+eax*4], 1
$LN11@DGAnsLucky:

; 918  : 	int iInven = 0;
; 919  : 	// ----
; 920  : 
; 921  : 	int i;
; 922  : 	for( i = 0; i < MAIN_INVENTORY_SIZE; i++ )

  000f3	8b 7d c8	 mov	 edi, DWORD PTR tv311[ebp]
  000f6	81 c7 d4 00 00
	00		 add	 edi, 212		; 000000d4H
  000fc	89 7d c8	 mov	 DWORD PTR tv311[ebp], edi
  000ff	81 ff f0 a8 00
	00		 cmp	 edi, 43248		; 0000a8f0H
  00105	7c 89		 jl	 SHORT $LL28@DGAnsLucky

; 934  : 					break;
; 935  : 				}
; 936  : 			}
; 937  : 		}
; 938  : 	}
; 939  : 	// ----
; 940  : 	for( i = 0; i < iItemCnt; i++ )

  00107	33 f6		 xor	 esi, esi
  00109	85 db		 test	 ebx, ebx
  0010b	7e 31		 jle	 SHORT $LN13@DGAnsLucky
  0010d	8d 4d cc	 lea	 ecx, DWORD PTR _iDeleteItemList$[ebp]
  00110	89 4d c8	 mov	 DWORD PTR tv350[ebp], ecx
  00113	8b f9		 mov	 edi, ecx
$LL4@DGAnsLucky:

; 941  : 	{
; 942  : 		if( iDeleteItemList[i] == 0 )

  00115	83 7c b5 cc 00	 cmp	 DWORD PTR _iDeleteItemList$[ebp+esi*4], 0
  0011a	75 16		 jne	 SHORT $LN3@DGAnsLucky

; 943  : 		{
; 944  : 			this->GDReqLuckyItemDelete(iDeleteItemList[6 * i], iDeleteItemList[3 * i], iObjIndex);

  0011c	8b 55 c4	 mov	 edx, DWORD PTR _iObjIndex$[ebp]
  0011f	8b 4d c8	 mov	 ecx, DWORD PTR tv350[ebp]
  00122	8b 07		 mov	 eax, DWORD PTR [edi]
  00124	52		 push	 edx
  00125	0f b7 11	 movzx	 edx, WORD PTR [ecx]
  00128	8b 4d bc	 mov	 ecx, DWORD PTR _this$[ebp]
  0012b	50		 push	 eax
  0012c	52		 push	 edx
  0012d	e8 00 00 00 00	 call	 ?GDReqLuckyItemDelete@LuckyItemManager@@QAEXFJH@Z ; LuckyItemManager::GDReqLuckyItemDelete
$LN3@DGAnsLucky:

; 934  : 					break;
; 935  : 				}
; 936  : 			}
; 937  : 		}
; 938  : 	}
; 939  : 	// ----
; 940  : 	for( i = 0; i < iItemCnt; i++ )

  00132	83 45 c8 18	 add	 DWORD PTR tv350[ebp], 24 ; 00000018H
  00136	46		 inc	 esi
  00137	83 c7 0c	 add	 edi, 12			; 0000000cH
  0013a	3b f3		 cmp	 esi, ebx
  0013c	7c d7		 jl	 SHORT $LL4@DGAnsLucky
$LN13@DGAnsLucky:

; 945  : 		}
; 946  : 	}
; 947  : }

  0013e	8b 4d fc	 mov	 ecx, DWORD PTR __$ArrayPad$[ebp]
  00141	5f		 pop	 edi
  00142	5e		 pop	 esi
  00143	33 cd		 xor	 ecx, ebp
  00145	5b		 pop	 ebx
  00146	e8 00 00 00 00	 call	 @__security_check_cookie@4
  0014b	8b e5		 mov	 esp, ebp
  0014d	5d		 pop	 ebp
  0014e	c2 04 00	 ret	 4
?DGAnsLuckyItemList@LuckyItemManager@@QAEXPAUPMSG_ANS_LUCKYITEM_SELECT@@@Z ENDP ; LuckyItemManager::DGAnsLuckyItemList
_TEXT	ENDS
PUBLIC	__$ArrayPad$
PUBLIC	?GDReqLuckyItemSelect@LuckyItemManager@@QAEXPAUOBJECTSTRUCT@@@Z ; LuckyItemManager::GDReqLuckyItemSelect
; Function compile flags: /Ogtp
;	COMDAT ?GDReqLuckyItemSelect@LuckyItemManager@@QAEXPAUOBJECTSTRUCT@@@Z
_TEXT	SEGMENT
_pMsg$ = -24						; size = 18
__$ArrayPad$ = -4					; size = 4
_lpObj$ = 8						; size = 4
?GDReqLuckyItemSelect@LuckyItemManager@@QAEXPAUOBJECTSTRUCT@@@Z PROC ; LuckyItemManager::GDReqLuckyItemSelect, COMDAT
; _this$ = ecx

; 952  : {

  00000	55		 push	 ebp
  00001	8b ec		 mov	 ebp, esp
  00003	83 ec 18	 sub	 esp, 24			; 00000018H
  00006	a1 00 00 00 00	 mov	 eax, DWORD PTR ___security_cookie
  0000b	33 c5		 xor	 eax, ebp
  0000d	89 45 fc	 mov	 DWORD PTR __$ArrayPad$[ebp], eax
  00010	8b 45 08	 mov	 eax, DWORD PTR _lpObj$[ebp]

; 953  : 	PMSG_REQ_LUCKYITEM_SELECT pMsg;
; 954  : 	// ----
; 955  : 	pMsg.wUserIndex = lpObj->m_Index;

  00013	66 8b 08	 mov	 cx, WORD PTR [eax]

; 956  : 	memcpy(pMsg.chCharacterName, lpObj->Name, sizeof(pMsg.chCharacterName));

  00016	8b 50 5d	 mov	 edx, DWORD PTR [eax+93]
  00019	66 89 4d ec	 mov	 WORD PTR _pMsg$[ebp+4], cx
  0001d	8b 48 61	 mov	 ecx, DWORD PTR [eax+97]

; 957  : 	// ----
; 958  : 	PHeadSubSetB((LPBYTE)&pMsg, 0xD1, 0x20, sizeof(PMSG_REQ_LUCKYITEM_SELECT));

  00020	6a 12		 push	 18			; 00000012H
  00022	6a 20		 push	 32			; 00000020H
  00024	89 55 ee	 mov	 DWORD PTR _pMsg$[ebp+6], edx
  00027	66 8b 50 65	 mov	 dx, WORD PTR [eax+101]
  0002b	8a 40 67	 mov	 al, BYTE PTR [eax+103]
  0002e	89 4d f2	 mov	 DWORD PTR _pMsg$[ebp+10], ecx
  00031	8d 4d e8	 lea	 ecx, DWORD PTR _pMsg$[ebp]
  00034	68 d1 00 00 00	 push	 209			; 000000d1H
  00039	51		 push	 ecx
  0003a	66 89 55 f6	 mov	 WORD PTR _pMsg$[ebp+14], dx
  0003e	88 45 f8	 mov	 BYTE PTR _pMsg$[ebp+16], al
  00041	e8 00 00 00 00	 call	 ?PHeadSubSetB@@YAXPAEEEH@Z ; PHeadSubSetB

; 959  : 	cDBSMng.Send((char *)&pMsg, pMsg.head.size);

  00046	0f b6 55 e9	 movzx	 edx, BYTE PTR _pMsg$[ebp+1]
  0004a	83 c4 10	 add	 esp, 16			; 00000010H
  0004d	52		 push	 edx
  0004e	8d 45 e8	 lea	 eax, DWORD PTR _pMsg$[ebp]
  00051	50		 push	 eax
  00052	b9 00 00 00 00	 mov	 ecx, OFFSET ?cDBSMng@@3VDBSockMng@@A ; cDBSMng
  00057	e8 00 00 00 00	 call	 ?Send@DBSockMng@@QAEHPADH@Z ; DBSockMng::Send

; 960  : }

  0005c	8b 4d fc	 mov	 ecx, DWORD PTR __$ArrayPad$[ebp]
  0005f	33 cd		 xor	 ecx, ebp
  00061	e8 00 00 00 00	 call	 @__security_check_cookie@4
  00066	8b e5		 mov	 esp, ebp
  00068	5d		 pop	 ebp
  00069	c2 04 00	 ret	 4
?GDReqLuckyItemSelect@LuckyItemManager@@QAEXPAUOBJECTSTRUCT@@@Z ENDP ; LuckyItemManager::GDReqLuckyItemSelect
_TEXT	ENDS
PUBLIC	??8?$_Tree_const_iterator@V?$_Tree_val@V?$_Tmap_traits@HU_LUCKY_ITEM_INFO@@U?$less@H@std@@V?$allocator@U?$pair@$$CBHU_LUCKY_ITEM_INFO@@@std@@@3@$0A@@std@@@std@@@std@@QBE_NABV01@@Z ; std::_Tree_const_iterator<std::_Tree_val<std::_Tmap_traits<int,_LUCKY_ITEM_INFO,std::less<int>,std::allocator<std::pair<int const ,_LUCKY_ITEM_INFO> >,0> > >::operator==
; Function compile flags: /Ogtp
; File c:\program files (x86)\microsoft visual studio 10.0\vc\include\xtree
;	COMDAT ??8?$_Tree_const_iterator@V?$_Tree_val@V?$_Tmap_traits@HU_LUCKY_ITEM_INFO@@U?$less@H@std@@V?$allocator@U?$pair@$$CBHU_LUCKY_ITEM_INFO@@@std@@@3@$0A@@std@@@std@@@std@@QBE_NABV01@@Z
_TEXT	SEGMENT
__Right$ = 8						; size = 4
??8?$_Tree_const_iterator@V?$_Tree_val@V?$_Tmap_traits@HU_LUCKY_ITEM_INFO@@U?$less@H@std@@V?$allocator@U?$pair@$$CBHU_LUCKY_ITEM_INFO@@@std@@@3@$0A@@std@@@std@@@std@@QBE_NABV01@@Z PROC ; std::_Tree_const_iterator<std::_Tree_val<std::_Tmap_traits<int,_LUCKY_ITEM_INFO,std::less<int>,std::allocator<std::pair<int const ,_LUCKY_ITEM_INFO> >,0> > >::operator==, COMDAT
; _this$ = ecx

; 316  : 		{	// test for iterator equality

  00000	55		 push	 ebp
  00001	8b ec		 mov	 ebp, esp

; 317  :  #if _ITERATOR_DEBUG_LEVEL == 2
; 318  : 		if (this->_Getcont() == 0
; 319  : 			|| this->_Getcont() != _Right._Getcont())
; 320  : 			{	// report error
; 321  : 			_DEBUG_ERROR("map/set iterators incompatible");
; 322  : 			_SCL_SECURE_INVALID_ARGUMENT;
; 323  : 			}
; 324  : 
; 325  :  #elif _ITERATOR_DEBUG_LEVEL == 1
; 326  : 		_SCL_SECURE_VALIDATE(this->_Getcont() != 0
; 327  : 			&& this->_Getcont() == _Right._Getcont());
; 328  :  #endif /* _ITERATOR_DEBUG_LEVEL */
; 329  : 
; 330  : 		return (this->_Ptr == _Right._Ptr);

  00003	8b 01		 mov	 eax, DWORD PTR [ecx]
  00005	8b 55 08	 mov	 edx, DWORD PTR __Right$[ebp]
  00008	33 c9		 xor	 ecx, ecx
  0000a	3b 02		 cmp	 eax, DWORD PTR [edx]
  0000c	0f 94 c0	 sete	 al

; 331  : 		}

  0000f	5d		 pop	 ebp
  00010	c2 04 00	 ret	 4
??8?$_Tree_const_iterator@V?$_Tree_val@V?$_Tmap_traits@HU_LUCKY_ITEM_INFO@@U?$less@H@std@@V?$allocator@U?$pair@$$CBHU_LUCKY_ITEM_INFO@@@std@@@3@$0A@@std@@@std@@@std@@QBE_NABV01@@Z ENDP ; std::_Tree_const_iterator<std::_Tree_val<std::_Tmap_traits<int,_LUCKY_ITEM_INFO,std::less<int>,std::allocator<std::pair<int const ,_LUCKY_ITEM_INFO> >,0> > >::operator==
_TEXT	ENDS
PUBLIC	??9?$_Tree_const_iterator@V?$_Tree_val@V?$_Tmap_traits@HU_LUCKY_ITEM_INFO@@U?$less@H@std@@V?$allocator@U?$pair@$$CBHU_LUCKY_ITEM_INFO@@@std@@@3@$0A@@std@@@std@@@std@@QBE_NABV01@@Z ; std::_Tree_const_iterator<std::_Tree_val<std::_Tmap_traits<int,_LUCKY_ITEM_INFO,std::less<int>,std::allocator<std::pair<int const ,_LUCKY_ITEM_INFO> >,0> > >::operator!=
; Function compile flags: /Ogtp
;	COMDAT ??9?$_Tree_const_iterator@V?$_Tree_val@V?$_Tmap_traits@HU_LUCKY_ITEM_INFO@@U?$less@H@std@@V?$allocator@U?$pair@$$CBHU_LUCKY_ITEM_INFO@@@std@@@3@$0A@@std@@@std@@@std@@QBE_NABV01@@Z
_TEXT	SEGMENT
__Right$ = 8						; size = 4
??9?$_Tree_const_iterator@V?$_Tree_val@V?$_Tmap_traits@HU_LUCKY_ITEM_INFO@@U?$less@H@std@@V?$allocator@U?$pair@$$CBHU_LUCKY_ITEM_INFO@@@std@@@3@$0A@@std@@@std@@@std@@QBE_NABV01@@Z PROC ; std::_Tree_const_iterator<std::_Tree_val<std::_Tmap_traits<int,_LUCKY_ITEM_INFO,std::less<int>,std::allocator<std::pair<int const ,_LUCKY_ITEM_INFO> >,0> > >::operator!=, COMDAT
; _this$ = ecx

; 334  : 		{	// test for iterator inequality

  00000	55		 push	 ebp
  00001	8b ec		 mov	 ebp, esp

; 335  : 		return (!(*this == _Right));

  00003	8b 01		 mov	 eax, DWORD PTR [ecx]
  00005	8b 55 08	 mov	 edx, DWORD PTR __Right$[ebp]
  00008	33 c9		 xor	 ecx, ecx
  0000a	3b 02		 cmp	 eax, DWORD PTR [edx]
  0000c	0f 95 c0	 setne	 al

; 336  : 		}

  0000f	5d		 pop	 ebp
  00010	c2 04 00	 ret	 4
??9?$_Tree_const_iterator@V?$_Tree_val@V?$_Tmap_traits@HU_LUCKY_ITEM_INFO@@U?$less@H@std@@V?$allocator@U?$pair@$$CBHU_LUCKY_ITEM_INFO@@@std@@@3@$0A@@std@@@std@@@std@@QBE_NABV01@@Z ENDP ; std::_Tree_const_iterator<std::_Tree_val<std::_Tmap_traits<int,_LUCKY_ITEM_INFO,std::less<int>,std::allocator<std::pair<int const ,_LUCKY_ITEM_INFO> >,0> > >::operator!=
_TEXT	ENDS
PUBLIC	??R?$less@H@std@@QBE_NABH0@Z			; std::less<int>::operator()
; Function compile flags: /Ogtp
; File c:\program files (x86)\microsoft visual studio 10.0\vc\include\xfunctional
;	COMDAT ??R?$less@H@std@@QBE_NABH0@Z
_TEXT	SEGMENT
__Left$ = 8						; size = 4
__Right$ = 12						; size = 4
??R?$less@H@std@@QBE_NABH0@Z PROC			; std::less<int>::operator(), COMDAT
; _this$ = ecx

; 124  : 		{	// apply operator< to operands

  00000	55		 push	 ebp
  00001	8b ec		 mov	 ebp, esp

; 125  : 		return (_Left < _Right);

  00003	8b 45 08	 mov	 eax, DWORD PTR __Left$[ebp]
  00006	8b 08		 mov	 ecx, DWORD PTR [eax]
  00008	8b 55 0c	 mov	 edx, DWORD PTR __Right$[ebp]
  0000b	33 c0		 xor	 eax, eax
  0000d	3b 0a		 cmp	 ecx, DWORD PTR [edx]
  0000f	0f 9c c0	 setl	 al

; 126  : 		}

  00012	5d		 pop	 ebp
  00013	c2 08 00	 ret	 8
??R?$less@H@std@@QBE_NABH0@Z ENDP			; std::less<int>::operator()
_TEXT	ENDS
PUBLIC	??0?$allocator@U?$pair@$$CBHU_LUCKY_ITEM_INFO@@@std@@@std@@QAE@XZ ; std::allocator<std::pair<int const ,_LUCKY_ITEM_INFO> >::allocator<std::pair<int const ,_LUCKY_ITEM_INFO> >
; Function compile flags: /Ogtp
; File c:\program files (x86)\microsoft visual studio 10.0\vc\include\xmemory
;	COMDAT ??0?$allocator@U?$pair@$$CBHU_LUCKY_ITEM_INFO@@@std@@@std@@QAE@XZ
_TEXT	SEGMENT
??0?$allocator@U?$pair@$$CBHU_LUCKY_ITEM_INFO@@@std@@@std@@QAE@XZ PROC ; std::allocator<std::pair<int const ,_LUCKY_ITEM_INFO> >::allocator<std::pair<int const ,_LUCKY_ITEM_INFO> >, COMDAT
; _this$ = ecx

; 161  : 	_ALLOCATOR() _THROW0()

  00000	8b c1		 mov	 eax, ecx

; 162  : 		{	// construct default allocator (do nothing)
; 163  : 		}

  00002	c3		 ret	 0
??0?$allocator@U?$pair@$$CBHU_LUCKY_ITEM_INFO@@@std@@@std@@QAE@XZ ENDP ; std::allocator<std::pair<int const ,_LUCKY_ITEM_INFO> >::allocator<std::pair<int const ,_LUCKY_ITEM_INFO> >
_TEXT	ENDS
PUBLIC	?_Mynode@?$_Tree_unchecked_const_iterator@V?$_Tree_val@V?$_Tmap_traits@HU_LUCKY_ITEM_INFO@@U?$less@H@std@@V?$allocator@U?$pair@$$CBHU_LUCKY_ITEM_INFO@@@std@@@3@$0A@@std@@@std@@U_Iterator_base0@2@@std@@QBEPAU_Node@?$_Tree_nod@V?$_Tmap_traits@HU_LUCKY_ITEM_INFO@@U?$less@H@std@@V?$allocator@U?$pair@$$CBHU_LUCKY_ITEM_INFO@@@std@@@3@$0A@@std@@@2@XZ ; std::_Tree_unchecked_const_iterator<std::_Tree_val<std::_Tmap_traits<int,_LUCKY_ITEM_INFO,std::less<int>,std::allocator<std::pair<int const ,_LUCKY_ITEM_INFO> >,0> >,std::_Iterator_base0>::_Mynode
; Function compile flags: /Ogtp
; File c:\program files (x86)\microsoft visual studio 10.0\vc\include\xtree
;	COMDAT ?_Mynode@?$_Tree_unchecked_const_iterator@V?$_Tree_val@V?$_Tmap_traits@HU_LUCKY_ITEM_INFO@@U?$less@H@std@@V?$allocator@U?$pair@$$CBHU_LUCKY_ITEM_INFO@@@std@@@3@$0A@@std@@@std@@U_Iterator_base0@2@@std@@QBEPAU_Node@?$_Tree_nod@V?$_Tmap_traits@HU_LUCKY_ITEM_INFO@@U?$less@H@std@@V?$allocator@U?$pair@$$CBHU_LUCKY_ITEM_INFO@@@std@@@3@$0A@@std@@@2@XZ
_TEXT	SEGMENT
?_Mynode@?$_Tree_unchecked_const_iterator@V?$_Tree_val@V?$_Tmap_traits@HU_LUCKY_ITEM_INFO@@U?$less@H@std@@V?$allocator@U?$pair@$$CBHU_LUCKY_ITEM_INFO@@@std@@@3@$0A@@std@@@std@@U_Iterator_base0@2@@std@@QBEPAU_Node@?$_Tree_nod@V?$_Tmap_traits@HU_LUCKY_ITEM_INFO@@U?$less@H@std@@V?$allocator@U?$pair@$$CBHU_LUCKY_ITEM_INFO@@@std@@@3@$0A@@std@@@2@XZ PROC ; std::_Tree_unchecked_const_iterator<std::_Tree_val<std::_Tmap_traits<int,_LUCKY_ITEM_INFO,std::less<int>,std::allocator<std::pair<int const ,_LUCKY_ITEM_INFO> >,0> >,std::_Iterator_base0>::_Mynode, COMDAT
; _this$ = ecx

; 122  : 		return (_Ptr);

  00000	8b 01		 mov	 eax, DWORD PTR [ecx]

; 123  : 		}

  00002	c3		 ret	 0
?_Mynode@?$_Tree_unchecked_const_iterator@V?$_Tree_val@V?$_Tmap_traits@HU_LUCKY_ITEM_INFO@@U?$less@H@std@@V?$allocator@U?$pair@$$CBHU_LUCKY_ITEM_INFO@@@std@@@3@$0A@@std@@@std@@U_Iterator_base0@2@@std@@QBEPAU_Node@?$_Tree_nod@V?$_Tmap_traits@HU_LUCKY_ITEM_INFO@@U?$less@H@std@@V?$allocator@U?$pair@$$CBHU_LUCKY_ITEM_INFO@@@std@@@3@$0A@@std@@@2@XZ ENDP ; std::_Tree_unchecked_const_iterator<std::_Tree_val<std::_Tmap_traits<int,_LUCKY_ITEM_INFO,std::less<int>,std::allocator<std::pair<int const ,_LUCKY_ITEM_INFO> >,0> >,std::_Iterator_base0>::_Mynode
_TEXT	ENDS
PUBLIC	?_Left@?$_Tree_val@V?$_Tmap_traits@HU_LUCKY_ITEM_INFO@@U?$less@H@std@@V?$allocator@U?$pair@$$CBHU_LUCKY_ITEM_INFO@@@std@@@3@$0A@@std@@@std@@SAAAPAU_Node@?$_Tree_nod@V?$_Tmap_traits@HU_LUCKY_ITEM_INFO@@U?$less@H@std@@V?$allocator@U?$pair@$$CBHU_LUCKY_ITEM_INFO@@@std@@@3@$0A@@std@@@2@PAU342@@Z ; std::_Tree_val<std::_Tmap_traits<int,_LUCKY_ITEM_INFO,std::less<int>,std::allocator<std::pair<int const ,_LUCKY_ITEM_INFO> >,0> >::_Left
; Function compile flags: /Ogtp
;	COMDAT ?_Left@?$_Tree_val@V?$_Tmap_traits@HU_LUCKY_ITEM_INFO@@U?$less@H@std@@V?$allocator@U?$pair@$$CBHU_LUCKY_ITEM_INFO@@@std@@@3@$0A@@std@@@std@@SAAAPAU_Node@?$_Tree_nod@V?$_Tmap_traits@HU_LUCKY_ITEM_INFO@@U?$less@H@std@@V?$allocator@U?$pair@$$CBHU_LUCKY_ITEM_INFO@@@std@@@3@$0A@@std@@@2@PAU342@@Z
_TEXT	SEGMENT
__Pnode$ = 8						; size = 4
?_Left@?$_Tree_val@V?$_Tmap_traits@HU_LUCKY_ITEM_INFO@@U?$less@H@std@@V?$allocator@U?$pair@$$CBHU_LUCKY_ITEM_INFO@@@std@@@3@$0A@@std@@@std@@SAAAPAU_Node@?$_Tree_nod@V?$_Tmap_traits@HU_LUCKY_ITEM_INFO@@U?$less@H@std@@V?$allocator@U?$pair@$$CBHU_LUCKY_ITEM_INFO@@@std@@@3@$0A@@std@@@2@PAU342@@Z PROC ; std::_Tree_val<std::_Tmap_traits<int,_LUCKY_ITEM_INFO,std::less<int>,std::allocator<std::pair<int const ,_LUCKY_ITEM_INFO> >,0> >::_Left, COMDAT

; 621  : 		{	// return reference to left pointer in node

  00000	55		 push	 ebp
  00001	8b ec		 mov	 ebp, esp

; 622  : 		return ((_Nodepref)(*_Pnode)._Left);

  00003	8b 45 08	 mov	 eax, DWORD PTR __Pnode$[ebp]

; 623  : 		}

  00006	5d		 pop	 ebp
  00007	c3		 ret	 0
?_Left@?$_Tree_val@V?$_Tmap_traits@HU_LUCKY_ITEM_INFO@@U?$less@H@std@@V?$allocator@U?$pair@$$CBHU_LUCKY_ITEM_INFO@@@std@@@3@$0A@@std@@@std@@SAAAPAU_Node@?$_Tree_nod@V?$_Tmap_traits@HU_LUCKY_ITEM_INFO@@U?$less@H@std@@V?$allocator@U?$pair@$$CBHU_LUCKY_ITEM_INFO@@@std@@@3@$0A@@std@@@2@PAU342@@Z ENDP ; std::_Tree_val<std::_Tmap_traits<int,_LUCKY_ITEM_INFO,std::less<int>,std::allocator<std::pair<int const ,_LUCKY_ITEM_INFO> >,0> >::_Left
_TEXT	ENDS
PUBLIC	?_Myval@?$_Tree_val@V?$_Tmap_traits@HU_LUCKY_ITEM_INFO@@U?$less@H@std@@V?$allocator@U?$pair@$$CBHU_LUCKY_ITEM_INFO@@@std@@@3@$0A@@std@@@std@@SAAAU?$pair@$$CBHU_LUCKY_ITEM_INFO@@@2@PAU_Node@?$_Tree_nod@V?$_Tmap_traits@HU_LUCKY_ITEM_INFO@@U?$less@H@std@@V?$allocator@U?$pair@$$CBHU_LUCKY_ITEM_INFO@@@std@@@3@$0A@@std@@@2@@Z ; std::_Tree_val<std::_Tmap_traits<int,_LUCKY_ITEM_INFO,std::less<int>,std::allocator<std::pair<int const ,_LUCKY_ITEM_INFO> >,0> >::_Myval
; Function compile flags: /Ogtp
;	COMDAT ?_Myval@?$_Tree_val@V?$_Tmap_traits@HU_LUCKY_ITEM_INFO@@U?$less@H@std@@V?$allocator@U?$pair@$$CBHU_LUCKY_ITEM_INFO@@@std@@@3@$0A@@std@@@std@@SAAAU?$pair@$$CBHU_LUCKY_ITEM_INFO@@@2@PAU_Node@?$_Tree_nod@V?$_Tmap_traits@HU_LUCKY_ITEM_INFO@@U?$less@H@std@@V?$allocator@U?$pair@$$CBHU_LUCKY_ITEM_INFO@@@std@@@3@$0A@@std@@@2@@Z
_TEXT	SEGMENT
__Pnode$ = 8						; size = 4
?_Myval@?$_Tree_val@V?$_Tmap_traits@HU_LUCKY_ITEM_INFO@@U?$less@H@std@@V?$allocator@U?$pair@$$CBHU_LUCKY_ITEM_INFO@@@std@@@3@$0A@@std@@@std@@SAAAU?$pair@$$CBHU_LUCKY_ITEM_INFO@@@2@PAU_Node@?$_Tree_nod@V?$_Tmap_traits@HU_LUCKY_ITEM_INFO@@U?$less@H@std@@V?$allocator@U?$pair@$$CBHU_LUCKY_ITEM_INFO@@@std@@@3@$0A@@std@@@2@@Z PROC ; std::_Tree_val<std::_Tmap_traits<int,_LUCKY_ITEM_INFO,std::less<int>,std::allocator<std::pair<int const ,_LUCKY_ITEM_INFO> >,0> >::_Myval, COMDAT

; 636  : 		{	// return reference to value in node

  00000	55		 push	 ebp
  00001	8b ec		 mov	 ebp, esp

; 637  : 		return ((reference)(*_Pnode)._Myval);

  00003	8b 45 08	 mov	 eax, DWORD PTR __Pnode$[ebp]
  00006	83 c0 0c	 add	 eax, 12			; 0000000cH

; 638  : 		}

  00009	5d		 pop	 ebp
  0000a	c3		 ret	 0
?_Myval@?$_Tree_val@V?$_Tmap_traits@HU_LUCKY_ITEM_INFO@@U?$less@H@std@@V?$allocator@U?$pair@$$CBHU_LUCKY_ITEM_INFO@@@std@@@3@$0A@@std@@@std@@SAAAU?$pair@$$CBHU_LUCKY_ITEM_INFO@@@2@PAU_Node@?$_Tree_nod@V?$_Tmap_traits@HU_LUCKY_ITEM_INFO@@U?$less@H@std@@V?$allocator@U?$pair@$$CBHU_LUCKY_ITEM_INFO@@@std@@@3@$0A@@std@@@2@@Z ENDP ; std::_Tree_val<std::_Tmap_traits<int,_LUCKY_ITEM_INFO,std::less<int>,std::allocator<std::pair<int const ,_LUCKY_ITEM_INFO> >,0> >::_Myval
_TEXT	ENDS
PUBLIC	??0?$allocator@U?$pair@$$CBHU_LUCKY_ITEM_INFO@@@std@@@std@@QAE@ABV01@@Z ; std::allocator<std::pair<int const ,_LUCKY_ITEM_INFO> >::allocator<std::pair<int const ,_LUCKY_ITEM_INFO> >
; Function compile flags: /Ogtp
; File c:\program files (x86)\microsoft visual studio 10.0\vc\include\xmemory
;	COMDAT ??0?$allocator@U?$pair@$$CBHU_LUCKY_ITEM_INFO@@@std@@@std@@QAE@ABV01@@Z
_TEXT	SEGMENT
___formal$ = 8						; size = 4
??0?$allocator@U?$pair@$$CBHU_LUCKY_ITEM_INFO@@@std@@@std@@QAE@ABV01@@Z PROC ; std::allocator<std::pair<int const ,_LUCKY_ITEM_INFO> >::allocator<std::pair<int const ,_LUCKY_ITEM_INFO> >, COMDAT
; _this$ = ecx

; 165  : 	_ALLOCATOR(const _ALLOCATOR<_Ty>&) _THROW0()

  00000	8b c1		 mov	 eax, ecx

; 166  : 		{	// construct by copying (do nothing)
; 167  : 		}

  00002	c2 04 00	 ret	 4
??0?$allocator@U?$pair@$$CBHU_LUCKY_ITEM_INFO@@@std@@@std@@QAE@ABV01@@Z ENDP ; std::allocator<std::pair<int const ,_LUCKY_ITEM_INFO> >::allocator<std::pair<int const ,_LUCKY_ITEM_INFO> >
_TEXT	ENDS
PUBLIC	?deallocate@?$allocator@U_Node@?$_Tree_nod@V?$_Tmap_traits@HU_LUCKY_ITEM_INFO@@U?$less@H@std@@V?$allocator@U?$pair@$$CBHU_LUCKY_ITEM_INFO@@@std@@@3@$0A@@std@@@std@@@std@@QAEXPAU_Node@?$_Tree_nod@V?$_Tmap_traits@HU_LUCKY_ITEM_INFO@@U?$less@H@std@@V?$allocator@U?$pair@$$CBHU_LUCKY_ITEM_INFO@@@std@@@3@$0A@@std@@@2@I@Z ; std::allocator<std::_Tree_nod<std::_Tmap_traits<int,_LUCKY_ITEM_INFO,std::less<int>,std::allocator<std::pair<int const ,_LUCKY_ITEM_INFO> >,0> >::_Node>::deallocate
EXTRN	??3@YAXPAX@Z:PROC				; operator delete
; Function compile flags: /Ogtp
;	COMDAT ?deallocate@?$allocator@U_Node@?$_Tree_nod@V?$_Tmap_traits@HU_LUCKY_ITEM_INFO@@U?$less@H@std@@V?$allocator@U?$pair@$$CBHU_LUCKY_ITEM_INFO@@@std@@@3@$0A@@std@@@std@@@std@@QAEXPAU_Node@?$_Tree_nod@V?$_Tmap_traits@HU_LUCKY_ITEM_INFO@@U?$less@H@std@@V?$allocator@U?$pair@$$CBHU_LUCKY_ITEM_INFO@@@std@@@3@$0A@@std@@@2@I@Z
_TEXT	SEGMENT
__Ptr$ = 8						; size = 4
___formal$ = 12						; size = 4
?deallocate@?$allocator@U_Node@?$_Tree_nod@V?$_Tmap_traits@HU_LUCKY_ITEM_INFO@@U?$less@H@std@@V?$allocator@U?$pair@$$CBHU_LUCKY_ITEM_INFO@@@std@@@3@$0A@@std@@@std@@@std@@QAEXPAU_Node@?$_Tree_nod@V?$_Tmap_traits@HU_LUCKY_ITEM_INFO@@U?$less@H@std@@V?$allocator@U?$pair@$$CBHU_LUCKY_ITEM_INFO@@@std@@@3@$0A@@std@@@2@I@Z PROC ; std::allocator<std::_Tree_nod<std::_Tmap_traits<int,_LUCKY_ITEM_INFO,std::less<int>,std::allocator<std::pair<int const ,_LUCKY_ITEM_INFO> >,0> >::_Node>::deallocate, COMDAT
; _this$ = ecx

; 181  : 		{	// deallocate object at _Ptr, ignore size

  00000	55		 push	 ebp
  00001	8b ec		 mov	 ebp, esp

; 182  : 		::operator delete(_Ptr);

  00003	8b 45 08	 mov	 eax, DWORD PTR __Ptr$[ebp]
  00006	50		 push	 eax
  00007	e8 00 00 00 00	 call	 ??3@YAXPAX@Z		; operator delete
  0000c	83 c4 04	 add	 esp, 4

; 183  : 		}

  0000f	5d		 pop	 ebp
  00010	c2 08 00	 ret	 8
?deallocate@?$allocator@U_Node@?$_Tree_nod@V?$_Tmap_traits@HU_LUCKY_ITEM_INFO@@U?$less@H@std@@V?$allocator@U?$pair@$$CBHU_LUCKY_ITEM_INFO@@@std@@@3@$0A@@std@@@std@@@std@@QAEXPAU_Node@?$_Tree_nod@V?$_Tmap_traits@HU_LUCKY_ITEM_INFO@@U?$less@H@std@@V?$allocator@U?$pair@$$CBHU_LUCKY_ITEM_INFO@@@std@@@3@$0A@@std@@@2@I@Z ENDP ; std::allocator<std::_Tree_nod<std::_Tmap_traits<int,_LUCKY_ITEM_INFO,std::less<int>,std::allocator<std::pair<int const ,_LUCKY_ITEM_INFO> >,0> >::_Node>::deallocate
_TEXT	ENDS
PUBLIC	??D?$_Tree_const_iterator@V?$_Tree_val@V?$_Tmap_traits@HU_LUCKY_ITEM_INFO@@U?$less@H@std@@V?$allocator@U?$pair@$$CBHU_LUCKY_ITEM_INFO@@@std@@@3@$0A@@std@@@std@@@std@@QBEABU?$pair@$$CBHU_LUCKY_ITEM_INFO@@@1@XZ ; std::_Tree_const_iterator<std::_Tree_val<std::_Tmap_traits<int,_LUCKY_ITEM_INFO,std::less<int>,std::allocator<std::pair<int const ,_LUCKY_ITEM_INFO> >,0> > >::operator*
; Function compile flags: /Ogtp
; File c:\program files (x86)\microsoft visual studio 10.0\vc\include\xtree
;	COMDAT ??D?$_Tree_const_iterator@V?$_Tree_val@V?$_Tmap_traits@HU_LUCKY_ITEM_INFO@@U?$less@H@std@@V?$allocator@U?$pair@$$CBHU_LUCKY_ITEM_INFO@@@std@@@3@$0A@@std@@@std@@@std@@QBEABU?$pair@$$CBHU_LUCKY_ITEM_INFO@@@1@XZ
_TEXT	SEGMENT
??D?$_Tree_const_iterator@V?$_Tree_val@V?$_Tmap_traits@HU_LUCKY_ITEM_INFO@@U?$less@H@std@@V?$allocator@U?$pair@$$CBHU_LUCKY_ITEM_INFO@@@std@@@3@$0A@@std@@@std@@@std@@QBEABU?$pair@$$CBHU_LUCKY_ITEM_INFO@@@1@XZ PROC ; std::_Tree_const_iterator<std::_Tree_val<std::_Tmap_traits<int,_LUCKY_ITEM_INFO,std::less<int>,std::allocator<std::pair<int const ,_LUCKY_ITEM_INFO> >,0> > >::operator*, COMDAT
; _this$ = ecx

; 231  :  #if _ITERATOR_DEBUG_LEVEL == 2
; 232  : 		if (this->_Getcont() == 0
; 233  : 			|| this->_Ptr == 0
; 234  : 			|| this->_Ptr == ((_Mytree *)this->_Getcont())->_Myhead)
; 235  : 			{	// report error
; 236  : 			_DEBUG_ERROR("map/set iterator not dereferencable");
; 237  : 			_SCL_SECURE_OUT_OF_RANGE;
; 238  : 			}
; 239  : 
; 240  :  #elif _ITERATOR_DEBUG_LEVEL == 1
; 241  : 		_SCL_SECURE_VALIDATE(this->_Getcont() != 0 && this->_Ptr != 0);
; 242  : 		_SCL_SECURE_VALIDATE_RANGE(this->_Ptr !=
; 243  : 			((_Mytree *)this->_Getcont())->_Myhead);
; 244  :  #endif /* _ITERATOR_DEBUG_LEVEL */
; 245  : 
; 246  : 		return (_Mytree::_Myval(this->_Ptr));

  00000	8b 01		 mov	 eax, DWORD PTR [ecx]
  00002	83 c0 0c	 add	 eax, 12			; 0000000cH

; 247  : 		}

  00005	c3		 ret	 0
??D?$_Tree_const_iterator@V?$_Tree_val@V?$_Tmap_traits@HU_LUCKY_ITEM_INFO@@U?$less@H@std@@V?$allocator@U?$pair@$$CBHU_LUCKY_ITEM_INFO@@@std@@@3@$0A@@std@@@std@@@std@@QBEABU?$pair@$$CBHU_LUCKY_ITEM_INFO@@@1@XZ ENDP ; std::_Tree_const_iterator<std::_Tree_val<std::_Tmap_traits<int,_LUCKY_ITEM_INFO,std::less<int>,std::allocator<std::pair<int const ,_LUCKY_ITEM_INFO> >,0> > >::operator*
_TEXT	ENDS
PUBLIC	?_Color@?$_Tree_val@V?$_Tmap_traits@HU_LUCKY_ITEM_INFO@@U?$less@H@std@@V?$allocator@U?$pair@$$CBHU_LUCKY_ITEM_INFO@@@std@@@3@$0A@@std@@@std@@SAAADPAU_Node@?$_Tree_nod@V?$_Tmap_traits@HU_LUCKY_ITEM_INFO@@U?$less@H@std@@V?$allocator@U?$pair@$$CBHU_LUCKY_ITEM_INFO@@@std@@@3@$0A@@std@@@2@@Z ; std::_Tree_val<std::_Tmap_traits<int,_LUCKY_ITEM_INFO,std::less<int>,std::allocator<std::pair<int const ,_LUCKY_ITEM_INFO> >,0> >::_Color
; Function compile flags: /Ogtp
;	COMDAT ?_Color@?$_Tree_val@V?$_Tmap_traits@HU_LUCKY_ITEM_INFO@@U?$less@H@std@@V?$allocator@U?$pair@$$CBHU_LUCKY_ITEM_INFO@@@std@@@3@$0A@@std@@@std@@SAAADPAU_Node@?$_Tree_nod@V?$_Tmap_traits@HU_LUCKY_ITEM_INFO@@U?$less@H@std@@V?$allocator@U?$pair@$$CBHU_LUCKY_ITEM_INFO@@@std@@@3@$0A@@std@@@2@@Z
_TEXT	SEGMENT
__Pnode$ = 8						; size = 4
?_Color@?$_Tree_val@V?$_Tmap_traits@HU_LUCKY_ITEM_INFO@@U?$less@H@std@@V?$allocator@U?$pair@$$CBHU_LUCKY_ITEM_INFO@@@std@@@3@$0A@@std@@@std@@SAAADPAU_Node@?$_Tree_nod@V?$_Tmap_traits@HU_LUCKY_ITEM_INFO@@U?$less@H@std@@V?$allocator@U?$pair@$$CBHU_LUCKY_ITEM_INFO@@@std@@@3@$0A@@std@@@2@@Z PROC ; std::_Tree_val<std::_Tmap_traits<int,_LUCKY_ITEM_INFO,std::less<int>,std::allocator<std::pair<int const ,_LUCKY_ITEM_INFO> >,0> >::_Color, COMDAT

; 606  : 		{	// return reference to color in node

  00000	55		 push	 ebp
  00001	8b ec		 mov	 ebp, esp

; 607  : 		return ((char&)(*_Pnode)._Color);

  00003	8b 45 08	 mov	 eax, DWORD PTR __Pnode$[ebp]
  00006	05 b4 01 00 00	 add	 eax, 436		; 000001b4H

; 608  : 		}

  0000b	5d		 pop	 ebp
  0000c	c3		 ret	 0
?_Color@?$_Tree_val@V?$_Tmap_traits@HU_LUCKY_ITEM_INFO@@U?$less@H@std@@V?$allocator@U?$pair@$$CBHU_LUCKY_ITEM_INFO@@@std@@@3@$0A@@std@@@std@@SAAADPAU_Node@?$_Tree_nod@V?$_Tmap_traits@HU_LUCKY_ITEM_INFO@@U?$less@H@std@@V?$allocator@U?$pair@$$CBHU_LUCKY_ITEM_INFO@@@std@@@3@$0A@@std@@@2@@Z ENDP ; std::_Tree_val<std::_Tmap_traits<int,_LUCKY_ITEM_INFO,std::less<int>,std::allocator<std::pair<int const ,_LUCKY_ITEM_INFO> >,0> >::_Color
_TEXT	ENDS
PUBLIC	?_Isnil@?$_Tree_val@V?$_Tmap_traits@HU_LUCKY_ITEM_INFO@@U?$less@H@std@@V?$allocator@U?$pair@$$CBHU_LUCKY_ITEM_INFO@@@std@@@3@$0A@@std@@@std@@SAAADPAU_Node@?$_Tree_nod@V?$_Tmap_traits@HU_LUCKY_ITEM_INFO@@U?$less@H@std@@V?$allocator@U?$pair@$$CBHU_LUCKY_ITEM_INFO@@@std@@@3@$0A@@std@@@2@@Z ; std::_Tree_val<std::_Tmap_traits<int,_LUCKY_ITEM_INFO,std::less<int>,std::allocator<std::pair<int const ,_LUCKY_ITEM_INFO> >,0> >::_Isnil
; Function compile flags: /Ogtp
;	COMDAT ?_Isnil@?$_Tree_val@V?$_Tmap_traits@HU_LUCKY_ITEM_INFO@@U?$less@H@std@@V?$allocator@U?$pair@$$CBHU_LUCKY_ITEM_INFO@@@std@@@3@$0A@@std@@@std@@SAAADPAU_Node@?$_Tree_nod@V?$_Tmap_traits@HU_LUCKY_ITEM_INFO@@U?$less@H@std@@V?$allocator@U?$pair@$$CBHU_LUCKY_ITEM_INFO@@@std@@@3@$0A@@std@@@2@@Z
_TEXT	SEGMENT
__Pnode$ = 8						; size = 4
?_Isnil@?$_Tree_val@V?$_Tmap_traits@HU_LUCKY_ITEM_INFO@@U?$less@H@std@@V?$allocator@U?$pair@$$CBHU_LUCKY_ITEM_INFO@@@std@@@3@$0A@@std@@@std@@SAAADPAU_Node@?$_Tree_nod@V?$_Tmap_traits@HU_LUCKY_ITEM_INFO@@U?$less@H@std@@V?$allocator@U?$pair@$$CBHU_LUCKY_ITEM_INFO@@@std@@@3@$0A@@std@@@2@@Z PROC ; std::_Tree_val<std::_Tmap_traits<int,_LUCKY_ITEM_INFO,std::less<int>,std::allocator<std::pair<int const ,_LUCKY_ITEM_INFO> >,0> >::_Isnil, COMDAT

; 611  : 		{	// return reference to nil flag in node

  00000	55		 push	 ebp
  00001	8b ec		 mov	 ebp, esp

; 612  : 		return ((char&)(*_Pnode)._Isnil);

  00003	8b 45 08	 mov	 eax, DWORD PTR __Pnode$[ebp]
  00006	05 b5 01 00 00	 add	 eax, 437		; 000001b5H

; 613  : 		}

  0000b	5d		 pop	 ebp
  0000c	c3		 ret	 0
?_Isnil@?$_Tree_val@V?$_Tmap_traits@HU_LUCKY_ITEM_INFO@@U?$less@H@std@@V?$allocator@U?$pair@$$CBHU_LUCKY_ITEM_INFO@@@std@@@3@$0A@@std@@@std@@SAAADPAU_Node@?$_Tree_nod@V?$_Tmap_traits@HU_LUCKY_ITEM_INFO@@U?$less@H@std@@V?$allocator@U?$pair@$$CBHU_LUCKY_ITEM_INFO@@@std@@@3@$0A@@std@@@2@@Z ENDP ; std::_Tree_val<std::_Tmap_traits<int,_LUCKY_ITEM_INFO,std::less<int>,std::allocator<std::pair<int const ,_LUCKY_ITEM_INFO> >,0> >::_Isnil
_TEXT	ENDS
PUBLIC	?_Parent@?$_Tree_val@V?$_Tmap_traits@HU_LUCKY_ITEM_INFO@@U?$less@H@std@@V?$allocator@U?$pair@$$CBHU_LUCKY_ITEM_INFO@@@std@@@3@$0A@@std@@@std@@SAAAPAU_Node@?$_Tree_nod@V?$_Tmap_traits@HU_LUCKY_ITEM_INFO@@U?$less@H@std@@V?$allocator@U?$pair@$$CBHU_LUCKY_ITEM_INFO@@@std@@@3@$0A@@std@@@2@PAU342@@Z ; std::_Tree_val<std::_Tmap_traits<int,_LUCKY_ITEM_INFO,std::less<int>,std::allocator<std::pair<int const ,_LUCKY_ITEM_INFO> >,0> >::_Parent
; Function compile flags: /Ogtp
;	COMDAT ?_Parent@?$_Tree_val@V?$_Tmap_traits@HU_LUCKY_ITEM_INFO@@U?$less@H@std@@V?$allocator@U?$pair@$$CBHU_LUCKY_ITEM_INFO@@@std@@@3@$0A@@std@@@std@@SAAAPAU_Node@?$_Tree_nod@V?$_Tmap_traits@HU_LUCKY_ITEM_INFO@@U?$less@H@std@@V?$allocator@U?$pair@$$CBHU_LUCKY_ITEM_INFO@@@std@@@3@$0A@@std@@@2@PAU342@@Z
_TEXT	SEGMENT
__Pnode$ = 8						; size = 4
?_Parent@?$_Tree_val@V?$_Tmap_traits@HU_LUCKY_ITEM_INFO@@U?$less@H@std@@V?$allocator@U?$pair@$$CBHU_LUCKY_ITEM_INFO@@@std@@@3@$0A@@std@@@std@@SAAAPAU_Node@?$_Tree_nod@V?$_Tmap_traits@HU_LUCKY_ITEM_INFO@@U?$less@H@std@@V?$allocator@U?$pair@$$CBHU_LUCKY_ITEM_INFO@@@std@@@3@$0A@@std@@@2@PAU342@@Z PROC ; std::_Tree_val<std::_Tmap_traits<int,_LUCKY_ITEM_INFO,std::less<int>,std::allocator<std::pair<int const ,_LUCKY_ITEM_INFO> >,0> >::_Parent, COMDAT

; 626  : 		{	// return reference to parent pointer in node

  00000	55		 push	 ebp
  00001	8b ec		 mov	 ebp, esp

; 627  : 		return ((_Nodepref)(*_Pnode)._Parent);

  00003	8b 45 08	 mov	 eax, DWORD PTR __Pnode$[ebp]
  00006	83 c0 04	 add	 eax, 4

; 628  : 		}

  00009	5d		 pop	 ebp
  0000a	c3		 ret	 0
?_Parent@?$_Tree_val@V?$_Tmap_traits@HU_LUCKY_ITEM_INFO@@U?$less@H@std@@V?$allocator@U?$pair@$$CBHU_LUCKY_ITEM_INFO@@@std@@@3@$0A@@std@@@std@@SAAAPAU_Node@?$_Tree_nod@V?$_Tmap_traits@HU_LUCKY_ITEM_INFO@@U?$less@H@std@@V?$allocator@U?$pair@$$CBHU_LUCKY_ITEM_INFO@@@std@@@3@$0A@@std@@@2@PAU342@@Z ENDP ; std::_Tree_val<std::_Tmap_traits<int,_LUCKY_ITEM_INFO,std::less<int>,std::allocator<std::pair<int const ,_LUCKY_ITEM_INFO> >,0> >::_Parent
_TEXT	ENDS
PUBLIC	?_Right@?$_Tree_val@V?$_Tmap_traits@HU_LUCKY_ITEM_INFO@@U?$less@H@std@@V?$allocator@U?$pair@$$CBHU_LUCKY_ITEM_INFO@@@std@@@3@$0A@@std@@@std@@SAAAPAU_Node@?$_Tree_nod@V?$_Tmap_traits@HU_LUCKY_ITEM_INFO@@U?$less@H@std@@V?$allocator@U?$pair@$$CBHU_LUCKY_ITEM_INFO@@@std@@@3@$0A@@std@@@2@PAU342@@Z ; std::_Tree_val<std::_Tmap_traits<int,_LUCKY_ITEM_INFO,std::less<int>,std::allocator<std::pair<int const ,_LUCKY_ITEM_INFO> >,0> >::_Right
; Function compile flags: /Ogtp
;	COMDAT ?_Right@?$_Tree_val@V?$_Tmap_traits@HU_LUCKY_ITEM_INFO@@U?$less@H@std@@V?$allocator@U?$pair@$$CBHU_LUCKY_ITEM_INFO@@@std@@@3@$0A@@std@@@std@@SAAAPAU_Node@?$_Tree_nod@V?$_Tmap_traits@HU_LUCKY_ITEM_INFO@@U?$less@H@std@@V?$allocator@U?$pair@$$CBHU_LUCKY_ITEM_INFO@@@std@@@3@$0A@@std@@@2@PAU342@@Z
_TEXT	SEGMENT
__Pnode$ = 8						; size = 4
?_Right@?$_Tree_val@V?$_Tmap_traits@HU_LUCKY_ITEM_INFO@@U?$less@H@std@@V?$allocator@U?$pair@$$CBHU_LUCKY_ITEM_INFO@@@std@@@3@$0A@@std@@@std@@SAAAPAU_Node@?$_Tree_nod@V?$_Tmap_traits@HU_LUCKY_ITEM_INFO@@U?$less@H@std@@V?$allocator@U?$pair@$$CBHU_LUCKY_ITEM_INFO@@@std@@@3@$0A@@std@@@2@PAU342@@Z PROC ; std::_Tree_val<std::_Tmap_traits<int,_LUCKY_ITEM_INFO,std::less<int>,std::allocator<std::pair<int const ,_LUCKY_ITEM_INFO> >,0> >::_Right, COMDAT

; 631  : 		{	// return reference to right pointer in node

  00000	55		 push	 ebp
  00001	8b ec		 mov	 ebp, esp

; 632  : 		return ((_Nodepref)(*_Pnode)._Right);

  00003	8b 45 08	 mov	 eax, DWORD PTR __Pnode$[ebp]
  00006	83 c0 08	 add	 eax, 8

; 633  : 		}

  00009	5d		 pop	 ebp
  0000a	c3		 ret	 0
?_Right@?$_Tree_val@V?$_Tmap_traits@HU_LUCKY_ITEM_INFO@@U?$less@H@std@@V?$allocator@U?$pair@$$CBHU_LUCKY_ITEM_INFO@@@std@@@3@$0A@@std@@@std@@SAAAPAU_Node@?$_Tree_nod@V?$_Tmap_traits@HU_LUCKY_ITEM_INFO@@U?$less@H@std@@V?$allocator@U?$pair@$$CBHU_LUCKY_ITEM_INFO@@@std@@@3@$0A@@std@@@2@PAU342@@Z ENDP ; std::_Tree_val<std::_Tmap_traits<int,_LUCKY_ITEM_INFO,std::less<int>,std::allocator<std::pair<int const ,_LUCKY_ITEM_INFO> >,0> >::_Right
_TEXT	ENDS
PUBLIC	?_Rmost@?$_Tree@V?$_Tmap_traits@HU_LUCKY_ITEM_INFO@@U?$less@H@std@@V?$allocator@U?$pair@$$CBHU_LUCKY_ITEM_INFO@@@std@@@3@$0A@@std@@@std@@IBEAAPAU_Node@?$_Tree_nod@V?$_Tmap_traits@HU_LUCKY_ITEM_INFO@@U?$less@H@std@@V?$allocator@U?$pair@$$CBHU_LUCKY_ITEM_INFO@@@std@@@3@$0A@@std@@@2@XZ ; std::_Tree<std::_Tmap_traits<int,_LUCKY_ITEM_INFO,std::less<int>,std::allocator<std::pair<int const ,_LUCKY_ITEM_INFO> >,0> >::_Rmost
; Function compile flags: /Ogtp
;	COMDAT ?_Rmost@?$_Tree@V?$_Tmap_traits@HU_LUCKY_ITEM_INFO@@U?$less@H@std@@V?$allocator@U?$pair@$$CBHU_LUCKY_ITEM_INFO@@@std@@@3@$0A@@std@@@std@@IBEAAPAU_Node@?$_Tree_nod@V?$_Tmap_traits@HU_LUCKY_ITEM_INFO@@U?$less@H@std@@V?$allocator@U?$pair@$$CBHU_LUCKY_ITEM_INFO@@@std@@@3@$0A@@std@@@2@XZ
_TEXT	SEGMENT
?_Rmost@?$_Tree@V?$_Tmap_traits@HU_LUCKY_ITEM_INFO@@U?$less@H@std@@V?$allocator@U?$pair@$$CBHU_LUCKY_ITEM_INFO@@@std@@@3@$0A@@std@@@std@@IBEAAPAU_Node@?$_Tree_nod@V?$_Tmap_traits@HU_LUCKY_ITEM_INFO@@U?$less@H@std@@V?$allocator@U?$pair@$$CBHU_LUCKY_ITEM_INFO@@@std@@@3@$0A@@std@@@2@XZ PROC ; std::_Tree<std::_Tmap_traits<int,_LUCKY_ITEM_INFO,std::less<int>,std::allocator<std::pair<int const ,_LUCKY_ITEM_INFO> >,0> >::_Rmost, COMDAT
; _this$ = ecx

; 1784 : 		return (this->_Right(this->_Myhead));

  00000	8b 41 04	 mov	 eax, DWORD PTR [ecx+4]
  00003	83 c0 08	 add	 eax, 8

; 1785 : 		}

  00006	c3		 ret	 0
?_Rmost@?$_Tree@V?$_Tmap_traits@HU_LUCKY_ITEM_INFO@@U?$less@H@std@@V?$allocator@U?$pair@$$CBHU_LUCKY_ITEM_INFO@@@std@@@3@$0A@@std@@@std@@IBEAAPAU_Node@?$_Tree_nod@V?$_Tmap_traits@HU_LUCKY_ITEM_INFO@@U?$less@H@std@@V?$allocator@U?$pair@$$CBHU_LUCKY_ITEM_INFO@@@std@@@3@$0A@@std@@@2@XZ ENDP ; std::_Tree<std::_Tmap_traits<int,_LUCKY_ITEM_INFO,std::less<int>,std::allocator<std::pair<int const ,_LUCKY_ITEM_INFO> >,0> >::_Rmost
_TEXT	ENDS
PUBLIC	?_Max@?$_Tree_val@V?$_Tmap_traits@HU_LUCKY_ITEM_INFO@@U?$less@H@std@@V?$allocator@U?$pair@$$CBHU_LUCKY_ITEM_INFO@@@std@@@3@$0A@@std@@@std@@SAPAU_Node@?$_Tree_nod@V?$_Tmap_traits@HU_LUCKY_ITEM_INFO@@U?$less@H@std@@V?$allocator@U?$pair@$$CBHU_LUCKY_ITEM_INFO@@@std@@@3@$0A@@std@@@2@PAU342@@Z ; std::_Tree_val<std::_Tmap_traits<int,_LUCKY_ITEM_INFO,std::less<int>,std::allocator<std::pair<int const ,_LUCKY_ITEM_INFO> >,0> >::_Max
; Function compile flags: /Ogtp
;	COMDAT ?_Max@?$_Tree_val@V?$_Tmap_traits@HU_LUCKY_ITEM_INFO@@U?$less@H@std@@V?$allocator@U?$pair@$$CBHU_LUCKY_ITEM_INFO@@@std@@@3@$0A@@std@@@std@@SAPAU_Node@?$_Tree_nod@V?$_Tmap_traits@HU_LUCKY_ITEM_INFO@@U?$less@H@std@@V?$allocator@U?$pair@$$CBHU_LUCKY_ITEM_INFO@@@std@@@3@$0A@@std@@@2@PAU342@@Z
_TEXT	SEGMENT
__Pnode$ = 8						; size = 4
?_Max@?$_Tree_val@V?$_Tmap_traits@HU_LUCKY_ITEM_INFO@@U?$less@H@std@@V?$allocator@U?$pair@$$CBHU_LUCKY_ITEM_INFO@@@std@@@3@$0A@@std@@@std@@SAPAU_Node@?$_Tree_nod@V?$_Tmap_traits@HU_LUCKY_ITEM_INFO@@U?$less@H@std@@V?$allocator@U?$pair@$$CBHU_LUCKY_ITEM_INFO@@@std@@@3@$0A@@std@@@2@PAU342@@Z PROC ; std::_Tree_val<std::_Tmap_traits<int,_LUCKY_ITEM_INFO,std::less<int>,std::allocator<std::pair<int const ,_LUCKY_ITEM_INFO> >,0> >::_Max, COMDAT

; 641  : 		{	// return rightmost node in subtree at _Pnode

  00000	55		 push	 ebp
  00001	8b ec		 mov	 ebp, esp

; 642  : 		while (!_Isnil(_Right(_Pnode)))

  00003	8b 45 08	 mov	 eax, DWORD PTR __Pnode$[ebp]
  00006	8b 48 08	 mov	 ecx, DWORD PTR [eax+8]
  00009	80 b9 b5 01 00
	00 00		 cmp	 BYTE PTR [ecx+437], 0
  00010	75 0e		 jne	 SHORT $LN1@Max
$LL2@Max:

; 643  : 			_Pnode = _Right(_Pnode);

  00012	8b c1		 mov	 eax, ecx
  00014	8b 48 08	 mov	 ecx, DWORD PTR [eax+8]
  00017	80 b9 b5 01 00
	00 00		 cmp	 BYTE PTR [ecx+437], 0
  0001e	74 f2		 je	 SHORT $LL2@Max
$LN1@Max:

; 644  : 		return (_Pnode);
; 645  : 		}

  00020	5d		 pop	 ebp
  00021	c3		 ret	 0
?_Max@?$_Tree_val@V?$_Tmap_traits@HU_LUCKY_ITEM_INFO@@U?$less@H@std@@V?$allocator@U?$pair@$$CBHU_LUCKY_ITEM_INFO@@@std@@@3@$0A@@std@@@std@@SAPAU_Node@?$_Tree_nod@V?$_Tmap_traits@HU_LUCKY_ITEM_INFO@@U?$less@H@std@@V?$allocator@U?$pair@$$CBHU_LUCKY_ITEM_INFO@@@std@@@3@$0A@@std@@@2@PAU342@@Z ENDP ; std::_Tree_val<std::_Tmap_traits<int,_LUCKY_ITEM_INFO,std::less<int>,std::allocator<std::pair<int const ,_LUCKY_ITEM_INFO> >,0> >::_Max
_TEXT	ENDS
PUBLIC	?_Min@?$_Tree_val@V?$_Tmap_traits@HU_LUCKY_ITEM_INFO@@U?$less@H@std@@V?$allocator@U?$pair@$$CBHU_LUCKY_ITEM_INFO@@@std@@@3@$0A@@std@@@std@@SAPAU_Node@?$_Tree_nod@V?$_Tmap_traits@HU_LUCKY_ITEM_INFO@@U?$less@H@std@@V?$allocator@U?$pair@$$CBHU_LUCKY_ITEM_INFO@@@std@@@3@$0A@@std@@@2@PAU342@@Z ; std::_Tree_val<std::_Tmap_traits<int,_LUCKY_ITEM_INFO,std::less<int>,std::allocator<std::pair<int const ,_LUCKY_ITEM_INFO> >,0> >::_Min
; Function compile flags: /Ogtp
;	COMDAT ?_Min@?$_Tree_val@V?$_Tmap_traits@HU_LUCKY_ITEM_INFO@@U?$less@H@std@@V?$allocator@U?$pair@$$CBHU_LUCKY_ITEM_INFO@@@std@@@3@$0A@@std@@@std@@SAPAU_Node@?$_Tree_nod@V?$_Tmap_traits@HU_LUCKY_ITEM_INFO@@U?$less@H@std@@V?$allocator@U?$pair@$$CBHU_LUCKY_ITEM_INFO@@@std@@@3@$0A@@std@@@2@PAU342@@Z
_TEXT	SEGMENT
__Pnode$ = 8						; size = 4
?_Min@?$_Tree_val@V?$_Tmap_traits@HU_LUCKY_ITEM_INFO@@U?$less@H@std@@V?$allocator@U?$pair@$$CBHU_LUCKY_ITEM_INFO@@@std@@@3@$0A@@std@@@std@@SAPAU_Node@?$_Tree_nod@V?$_Tmap_traits@HU_LUCKY_ITEM_INFO@@U?$less@H@std@@V?$allocator@U?$pair@$$CBHU_LUCKY_ITEM_INFO@@@std@@@3@$0A@@std@@@2@PAU342@@Z PROC ; std::_Tree_val<std::_Tmap_traits<int,_LUCKY_ITEM_INFO,std::less<int>,std::allocator<std::pair<int const ,_LUCKY_ITEM_INFO> >,0> >::_Min, COMDAT

; 648  : 		{	// return leftmost node in subtree at _Pnode

  00000	55		 push	 ebp
  00001	8b ec		 mov	 ebp, esp

; 649  : 		while (!_Isnil(_Left(_Pnode)))

  00003	8b 45 08	 mov	 eax, DWORD PTR __Pnode$[ebp]
  00006	8b 08		 mov	 ecx, DWORD PTR [eax]
  00008	80 b9 b5 01 00
	00 00		 cmp	 BYTE PTR [ecx+437], 0
  0000f	75 0d		 jne	 SHORT $LN1@Min
$LL2@Min:

; 650  : 			_Pnode = _Left(_Pnode);

  00011	8b c1		 mov	 eax, ecx
  00013	8b 08		 mov	 ecx, DWORD PTR [eax]
  00015	80 b9 b5 01 00
	00 00		 cmp	 BYTE PTR [ecx+437], 0
  0001c	74 f3		 je	 SHORT $LL2@Min
$LN1@Min:

; 651  : 		return (_Pnode);
; 652  : 		}

  0001e	5d		 pop	 ebp
  0001f	c3		 ret	 0
?_Min@?$_Tree_val@V?$_Tmap_traits@HU_LUCKY_ITEM_INFO@@U?$less@H@std@@V?$allocator@U?$pair@$$CBHU_LUCKY_ITEM_INFO@@@std@@@3@$0A@@std@@@std@@SAPAU_Node@?$_Tree_nod@V?$_Tmap_traits@HU_LUCKY_ITEM_INFO@@U?$less@H@std@@V?$allocator@U?$pair@$$CBHU_LUCKY_ITEM_INFO@@@std@@@3@$0A@@std@@@2@PAU342@@Z ENDP ; std::_Tree_val<std::_Tmap_traits<int,_LUCKY_ITEM_INFO,std::less<int>,std::allocator<std::pair<int const ,_LUCKY_ITEM_INFO> >,0> >::_Min
_TEXT	ENDS
PUBLIC	??0?$_Tmap_traits@HU_LUCKY_ITEM_INFO@@U?$less@H@std@@V?$allocator@U?$pair@$$CBHU_LUCKY_ITEM_INFO@@@std@@@3@$0A@@std@@QAE@U?$less@H@1@@Z ; std::_Tmap_traits<int,_LUCKY_ITEM_INFO,std::less<int>,std::allocator<std::pair<int const ,_LUCKY_ITEM_INFO> >,0>::_Tmap_traits<int,_LUCKY_ITEM_INFO,std::less<int>,std::allocator<std::pair<int const ,_LUCKY_ITEM_INFO> >,0>
; Function compile flags: /Ogtp
; File c:\program files (x86)\microsoft visual studio 10.0\vc\include\map
;	COMDAT ??0?$_Tmap_traits@HU_LUCKY_ITEM_INFO@@U?$less@H@std@@V?$allocator@U?$pair@$$CBHU_LUCKY_ITEM_INFO@@@std@@@3@$0A@@std@@QAE@U?$less@H@1@@Z
_TEXT	SEGMENT
__Parg$ = 8						; size = 1
??0?$_Tmap_traits@HU_LUCKY_ITEM_INFO@@U?$less@H@std@@V?$allocator@U?$pair@$$CBHU_LUCKY_ITEM_INFO@@@std@@@3@$0A@@std@@QAE@U?$less@H@1@@Z PROC ; std::_Tmap_traits<int,_LUCKY_ITEM_INFO,std::less<int>,std::allocator<std::pair<int const ,_LUCKY_ITEM_INFO> >,0>::_Tmap_traits<int,_LUCKY_ITEM_INFO,std::less<int>,std::allocator<std::pair<int const ,_LUCKY_ITEM_INFO> >,0>, COMDAT
; _this$ = ecx

; 40   : 		{	// construct with specified comparator

  00000	8b c1		 mov	 eax, ecx

; 41   : 		}

  00002	c2 04 00	 ret	 4
??0?$_Tmap_traits@HU_LUCKY_ITEM_INFO@@U?$less@H@std@@V?$allocator@U?$pair@$$CBHU_LUCKY_ITEM_INFO@@@std@@@3@$0A@@std@@QAE@U?$less@H@1@@Z ENDP ; std::_Tmap_traits<int,_LUCKY_ITEM_INFO,std::less<int>,std::allocator<std::pair<int const ,_LUCKY_ITEM_INFO> >,0>::_Tmap_traits<int,_LUCKY_ITEM_INFO,std::less<int>,std::allocator<std::pair<int const ,_LUCKY_ITEM_INFO> >,0>
_TEXT	ENDS
PUBLIC	??$_Kfn@$$CBHU_LUCKY_ITEM_INFO@@@?$_Tmap_traits@HU_LUCKY_ITEM_INFO@@U?$less@H@std@@V?$allocator@U?$pair@$$CBHU_LUCKY_ITEM_INFO@@@std@@@3@$0A@@std@@SAABHABU?$pair@$$CBHU_LUCKY_ITEM_INFO@@@1@@Z ; std::_Tmap_traits<int,_LUCKY_ITEM_INFO,std::less<int>,std::allocator<std::pair<int const ,_LUCKY_ITEM_INFO> >,0>::_Kfn<int const ,_LUCKY_ITEM_INFO>
; Function compile flags: /Ogtp
;	COMDAT ??$_Kfn@$$CBHU_LUCKY_ITEM_INFO@@@?$_Tmap_traits@HU_LUCKY_ITEM_INFO@@U?$less@H@std@@V?$allocator@U?$pair@$$CBHU_LUCKY_ITEM_INFO@@@std@@@3@$0A@@std@@SAABHABU?$pair@$$CBHU_LUCKY_ITEM_INFO@@@1@@Z
_TEXT	SEGMENT
__Val$ = 8						; size = 4
??$_Kfn@$$CBHU_LUCKY_ITEM_INFO@@@?$_Tmap_traits@HU_LUCKY_ITEM_INFO@@U?$less@H@std@@V?$allocator@U?$pair@$$CBHU_LUCKY_ITEM_INFO@@@std@@@3@$0A@@std@@SAABHABU?$pair@$$CBHU_LUCKY_ITEM_INFO@@@1@@Z PROC ; std::_Tmap_traits<int,_LUCKY_ITEM_INFO,std::less<int>,std::allocator<std::pair<int const ,_LUCKY_ITEM_INFO> >,0>::_Kfn<int const ,_LUCKY_ITEM_INFO>, COMDAT

; 66   : 		static const _Kty& _Kfn(const _STD pair<_Ty1, _Ty2>& _Val)

  00000	55		 push	 ebp
  00001	8b ec		 mov	 ebp, esp

; 67   : 		{	// extract key from element value
; 68   : 		return (_Val.first);

  00003	8b 45 08	 mov	 eax, DWORD PTR __Val$[ebp]

; 69   : 		}

  00006	5d		 pop	 ebp
  00007	c3		 ret	 0
??$_Kfn@$$CBHU_LUCKY_ITEM_INFO@@@?$_Tmap_traits@HU_LUCKY_ITEM_INFO@@U?$less@H@std@@V?$allocator@U?$pair@$$CBHU_LUCKY_ITEM_INFO@@@std@@@3@$0A@@std@@SAABHABU?$pair@$$CBHU_LUCKY_ITEM_INFO@@@1@@Z ENDP ; std::_Tmap_traits<int,_LUCKY_ITEM_INFO,std::less<int>,std::allocator<std::pair<int const ,_LUCKY_ITEM_INFO> >,0>::_Kfn<int const ,_LUCKY_ITEM_INFO>
_TEXT	ENDS
PUBLIC	??$addressof@U?$pair@$$CBHU_LUCKY_ITEM_INFO@@@std@@@std@@YAPAU?$pair@$$CBHU_LUCKY_ITEM_INFO@@@0@AAU10@@Z ; std::addressof<std::pair<int const ,_LUCKY_ITEM_INFO> >
; Function compile flags: /Ogtp
; File c:\program files (x86)\microsoft visual studio 10.0\vc\include\xmemory
;	COMDAT ??$addressof@U?$pair@$$CBHU_LUCKY_ITEM_INFO@@@std@@@std@@YAPAU?$pair@$$CBHU_LUCKY_ITEM_INFO@@@0@AAU10@@Z
_TEXT	SEGMENT
__Val$ = 8						; size = 4
??$addressof@U?$pair@$$CBHU_LUCKY_ITEM_INFO@@@std@@@std@@YAPAU?$pair@$$CBHU_LUCKY_ITEM_INFO@@@0@AAU10@@Z PROC ; std::addressof<std::pair<int const ,_LUCKY_ITEM_INFO> >, COMDAT

; 110  : 	{	// return address of _Val

  00000	55		 push	 ebp
  00001	8b ec		 mov	 ebp, esp

; 111  : 	return ((_Ty *) &(char&)_Val);

  00003	8b 45 08	 mov	 eax, DWORD PTR __Val$[ebp]

; 112  : 	}

  00006	5d		 pop	 ebp
  00007	c3		 ret	 0
??$addressof@U?$pair@$$CBHU_LUCKY_ITEM_INFO@@@std@@@std@@YAPAU?$pair@$$CBHU_LUCKY_ITEM_INFO@@@0@AAU10@@Z ENDP ; std::addressof<std::pair<int const ,_LUCKY_ITEM_INFO> >
_TEXT	ENDS
PUBLIC	??$?0U?$pair@$$CBHU_LUCKY_ITEM_INFO@@@std@@@?$allocator@U_Node@?$_Tree_nod@V?$_Tmap_traits@HU_LUCKY_ITEM_INFO@@U?$less@H@std@@V?$allocator@U?$pair@$$CBHU_LUCKY_ITEM_INFO@@@std@@@3@$0A@@std@@@std@@@std@@QAE@ABV?$allocator@U?$pair@$$CBHU_LUCKY_ITEM_INFO@@@std@@@1@@Z ; std::allocator<std::_Tree_nod<std::_Tmap_traits<int,_LUCKY_ITEM_INFO,std::less<int>,std::allocator<std::pair<int const ,_LUCKY_ITEM_INFO> >,0> >::_Node>::allocator<std::_Tree_nod<std::_Tmap_traits<int,_LUCKY_ITEM_INFO,std::less<int>,std::allocator<std::pair<int const ,_LUCKY_ITEM_INFO> >,0> >::_Node><std::pair<int const ,_LUCKY_ITEM_INFO> >
; Function compile flags: /Ogtp
;	COMDAT ??$?0U?$pair@$$CBHU_LUCKY_ITEM_INFO@@@std@@@?$allocator@U_Node@?$_Tree_nod@V?$_Tmap_traits@HU_LUCKY_ITEM_INFO@@U?$less@H@std@@V?$allocator@U?$pair@$$CBHU_LUCKY_ITEM_INFO@@@std@@@3@$0A@@std@@@std@@@std@@QAE@ABV?$allocator@U?$pair@$$CBHU_LUCKY_ITEM_INFO@@@std@@@1@@Z
_TEXT	SEGMENT
___formal$ = 8						; size = 4
??$?0U?$pair@$$CBHU_LUCKY_ITEM_INFO@@@std@@@?$allocator@U_Node@?$_Tree_nod@V?$_Tmap_traits@HU_LUCKY_ITEM_INFO@@U?$less@H@std@@V?$allocator@U?$pair@$$CBHU_LUCKY_ITEM_INFO@@@std@@@3@$0A@@std@@@std@@@std@@QAE@ABV?$allocator@U?$pair@$$CBHU_LUCKY_ITEM_INFO@@@std@@@1@@Z PROC ; std::allocator<std::_Tree_nod<std::_Tmap_traits<int,_LUCKY_ITEM_INFO,std::less<int>,std::allocator<std::pair<int const ,_LUCKY_ITEM_INFO> >,0> >::_Node>::allocator<std::_Tree_nod<std::_Tmap_traits<int,_LUCKY_ITEM_INFO,std::less<int>,std::allocator<std::pair<int const ,_LUCKY_ITEM_INFO> >,0> >::_Node><std::pair<int const ,_LUCKY_ITEM_INFO> >, COMDAT
; _this$ = ecx

; 170  : 		_ALLOCATOR(const _ALLOCATOR<_Other>&) _THROW0()

  00000	8b c1		 mov	 eax, ecx

; 171  : 		{	// construct from a related allocator (do nothing)
; 172  : 		}

  00002	c2 04 00	 ret	 4
??$?0U?$pair@$$CBHU_LUCKY_ITEM_INFO@@@std@@@?$allocator@U_Node@?$_Tree_nod@V?$_Tmap_traits@HU_LUCKY_ITEM_INFO@@U?$less@H@std@@V?$allocator@U?$pair@$$CBHU_LUCKY_ITEM_INFO@@@std@@@3@$0A@@std@@@std@@@std@@QAE@ABV?$allocator@U?$pair@$$CBHU_LUCKY_ITEM_INFO@@@std@@@1@@Z ENDP ; std::allocator<std::_Tree_nod<std::_Tmap_traits<int,_LUCKY_ITEM_INFO,std::less<int>,std::allocator<std::pair<int const ,_LUCKY_ITEM_INFO> >,0> >::_Node>::allocator<std::_Tree_nod<std::_Tmap_traits<int,_LUCKY_ITEM_INFO,std::less<int>,std::allocator<std::pair<int const ,_LUCKY_ITEM_INFO> >,0> >::_Node><std::pair<int const ,_LUCKY_ITEM_INFO> >
_TEXT	ENDS
PUBLIC	??$_Move@AAD@std@@YA$$QADAAD@Z			; std::_Move<char &>
; Function compile flags: /Ogtp
; File c:\program files (x86)\microsoft visual studio 10.0\vc\include\utility
;	COMDAT ??$_Move@AAD@std@@YA$$QADAAD@Z
_TEXT	SEGMENT
__Arg$ = 8						; size = 4
??$_Move@AAD@std@@YA$$QADAAD@Z PROC			; std::_Move<char &>, COMDAT

; 94   : 	{	// forward _Arg as movable

  00000	55		 push	 ebp
  00001	8b ec		 mov	 ebp, esp

; 95   : 	return ((typename tr1::_Remove_reference<_Ty>::_Type&&)_Arg);

  00003	8b 45 08	 mov	 eax, DWORD PTR __Arg$[ebp]

; 96   : 	}

  00006	5d		 pop	 ebp
  00007	c3		 ret	 0
??$_Move@AAD@std@@YA$$QADAAD@Z ENDP			; std::_Move<char &>
_TEXT	ENDS
PUBLIC	??$_Destroy@U?$pair@$$CBHU_LUCKY_ITEM_INFO@@@std@@@std@@YAXPAU?$pair@$$CBHU_LUCKY_ITEM_INFO@@@0@@Z ; std::_Destroy<std::pair<int const ,_LUCKY_ITEM_INFO> >
; Function compile flags: /Ogtp
; File c:\program files (x86)\microsoft visual studio 10.0\vc\include\xmemory
;	COMDAT ??$_Destroy@U?$pair@$$CBHU_LUCKY_ITEM_INFO@@@std@@@std@@YAXPAU?$pair@$$CBHU_LUCKY_ITEM_INFO@@@0@@Z
_TEXT	SEGMENT
__Ptr$ = 8						; size = 4
??$_Destroy@U?$pair@$$CBHU_LUCKY_ITEM_INFO@@@std@@@std@@YAXPAU?$pair@$$CBHU_LUCKY_ITEM_INFO@@@0@@Z PROC ; std::_Destroy<std::pair<int const ,_LUCKY_ITEM_INFO> >, COMDAT

; 63   : 	_Ptr->~_Ty();
; 64   : 	}

  00000	c3		 ret	 0
??$_Destroy@U?$pair@$$CBHU_LUCKY_ITEM_INFO@@@std@@@std@@YAXPAU?$pair@$$CBHU_LUCKY_ITEM_INFO@@@0@@Z ENDP ; std::_Destroy<std::pair<int const ,_LUCKY_ITEM_INFO> >
_TEXT	ENDS
PUBLIC	??_7bad_alloc@std@@6B@				; std::bad_alloc::`vftable'
PUBLIC	??0bad_alloc@std@@QAE@PBD@Z			; std::bad_alloc::bad_alloc
PUBLIC	??_R4bad_alloc@std@@6B@				; std::bad_alloc::`RTTI Complete Object Locator'
PUBLIC	??_R0?AVbad_alloc@std@@@8			; std::bad_alloc `RTTI Type Descriptor'
PUBLIC	??_R3bad_alloc@std@@8				; std::bad_alloc::`RTTI Class Hierarchy Descriptor'
PUBLIC	??_R2bad_alloc@std@@8				; std::bad_alloc::`RTTI Base Class Array'
PUBLIC	??_R1A@?0A@EA@bad_alloc@std@@8			; std::bad_alloc::`RTTI Base Class Descriptor at (0,-1,0,64)'
PUBLIC	??_R1A@?0A@EA@exception@std@@8			; std::exception::`RTTI Base Class Descriptor at (0,-1,0,64)'
PUBLIC	??_R0?AVexception@std@@@8			; std::exception `RTTI Type Descriptor'
PUBLIC	??_R3exception@std@@8				; std::exception::`RTTI Class Hierarchy Descriptor'
PUBLIC	??_R2exception@std@@8				; std::exception::`RTTI Base Class Array'
EXTRN	??0exception@std@@QAE@ABQBD@Z:PROC		; std::exception::exception
EXTRN	??_7type_info@@6B@:QWORD			; type_info::`vftable'
EXTRN	??_Ebad_alloc@std@@UAEPAXI@Z:PROC		; std::bad_alloc::`vector deleting destructor'
EXTRN	?what@exception@std@@UBEPBDXZ:PROC		; std::exception::what
;	COMDAT ??_R2exception@std@@8
; File c:\program files (x86)\microsoft visual studio 10.0\vc\include\exception
rdata$r	SEGMENT
??_R2exception@std@@8 DD FLAT:??_R1A@?0A@EA@exception@std@@8 ; std::exception::`RTTI Base Class Array'
rdata$r	ENDS
;	COMDAT ??_R3exception@std@@8
rdata$r	SEGMENT
??_R3exception@std@@8 DD 00H				; std::exception::`RTTI Class Hierarchy Descriptor'
	DD	00H
	DD	01H
	DD	FLAT:??_R2exception@std@@8
rdata$r	ENDS
;	COMDAT ??_R0?AVexception@std@@@8
_DATA	SEGMENT
??_R0?AVexception@std@@@8 DD FLAT:??_7type_info@@6B@	; std::exception `RTTI Type Descriptor'
	DD	00H
	DB	'.?AVexception@std@@', 00H
_DATA	ENDS
;	COMDAT ??_R1A@?0A@EA@exception@std@@8
rdata$r	SEGMENT
??_R1A@?0A@EA@exception@std@@8 DD FLAT:??_R0?AVexception@std@@@8 ; std::exception::`RTTI Base Class Descriptor at (0,-1,0,64)'
	DD	00H
	DD	00H
	DD	0ffffffffH
	DD	00H
	DD	040H
	DD	FLAT:??_R3exception@std@@8
rdata$r	ENDS
;	COMDAT ??_R1A@?0A@EA@bad_alloc@std@@8
rdata$r	SEGMENT
??_R1A@?0A@EA@bad_alloc@std@@8 DD FLAT:??_R0?AVbad_alloc@std@@@8 ; std::bad_alloc::`RTTI Base Class Descriptor at (0,-1,0,64)'
	DD	01H
	DD	00H
	DD	0ffffffffH
	DD	00H
	DD	040H
	DD	FLAT:??_R3bad_alloc@std@@8
rdata$r	ENDS
;	COMDAT ??_R2bad_alloc@std@@8
rdata$r	SEGMENT
??_R2bad_alloc@std@@8 DD FLAT:??_R1A@?0A@EA@bad_alloc@std@@8 ; std::bad_alloc::`RTTI Base Class Array'
	DD	FLAT:??_R1A@?0A@EA@exception@std@@8
rdata$r	ENDS
;	COMDAT ??_R3bad_alloc@std@@8
rdata$r	SEGMENT
??_R3bad_alloc@std@@8 DD 00H				; std::bad_alloc::`RTTI Class Hierarchy Descriptor'
	DD	00H
	DD	02H
	DD	FLAT:??_R2bad_alloc@std@@8
rdata$r	ENDS
;	COMDAT ??_R0?AVbad_alloc@std@@@8
_DATA	SEGMENT
??_R0?AVbad_alloc@std@@@8 DD FLAT:??_7type_info@@6B@	; std::bad_alloc `RTTI Type Descriptor'
	DD	00H
	DB	'.?AVbad_alloc@std@@', 00H
_DATA	ENDS
;	COMDAT ??_R4bad_alloc@std@@6B@
rdata$r	SEGMENT
??_R4bad_alloc@std@@6B@ DD 00H				; std::bad_alloc::`RTTI Complete Object Locator'
	DD	00H
	DD	00H
	DD	FLAT:??_R0?AVbad_alloc@std@@@8
	DD	FLAT:??_R3bad_alloc@std@@8
rdata$r	ENDS
;	COMDAT ??_7bad_alloc@std@@6B@
CONST	SEGMENT
??_7bad_alloc@std@@6B@ DD FLAT:??_R4bad_alloc@std@@6B@	; std::bad_alloc::`vftable'
	DD	FLAT:??_Ebad_alloc@std@@UAEPAXI@Z
	DD	FLAT:?what@exception@std@@UBEPBDXZ
; Function compile flags: /Ogtp
CONST	ENDS
;	COMDAT ??0bad_alloc@std@@QAE@PBD@Z
_TEXT	SEGMENT
__Message$ = 8						; size = 4
??0bad_alloc@std@@QAE@PBD@Z PROC			; std::bad_alloc::bad_alloc, COMDAT
; _this$ = ecx

; 345  : 		{	// construct from message string

  00000	55		 push	 ebp
  00001	8b ec		 mov	 ebp, esp
  00003	56		 push	 esi
  00004	8d 45 08	 lea	 eax, DWORD PTR __Message$[ebp]
  00007	50		 push	 eax
  00008	8b f1		 mov	 esi, ecx
  0000a	e8 00 00 00 00	 call	 ??0exception@std@@QAE@ABQBD@Z ; std::exception::exception
  0000f	c7 06 00 00 00
	00		 mov	 DWORD PTR [esi], OFFSET ??_7bad_alloc@std@@6B@

; 346  : 		}

  00015	8b c6		 mov	 eax, esi
  00017	5e		 pop	 esi
  00018	5d		 pop	 ebp
  00019	c2 04 00	 ret	 4
??0bad_alloc@std@@QAE@PBD@Z ENDP			; std::bad_alloc::bad_alloc
_TEXT	ENDS
PUBLIC	??1bad_alloc@std@@UAE@XZ			; std::bad_alloc::~bad_alloc
EXTRN	??1exception@std@@UAE@XZ:PROC			; std::exception::~exception
; Function compile flags: /Ogtp
;	COMDAT ??1bad_alloc@std@@UAE@XZ
_TEXT	SEGMENT
??1bad_alloc@std@@UAE@XZ PROC				; std::bad_alloc::~bad_alloc, COMDAT
; _this$ = ecx

; 354  : 		{	// destroy the object

  00000	c7 01 00 00 00
	00		 mov	 DWORD PTR [ecx], OFFSET ??_7bad_alloc@std@@6B@

; 355  : 		}

  00006	e9 00 00 00 00	 jmp	 ??1exception@std@@UAE@XZ ; std::exception::~exception
??1bad_alloc@std@@UAE@XZ ENDP				; std::bad_alloc::~bad_alloc
; Function compile flags: /Ogtp
_TEXT	ENDS
;	COMDAT ??_Gbad_alloc@std@@UAEPAXI@Z
_TEXT	SEGMENT
___flags$ = 8						; size = 4
??_Gbad_alloc@std@@UAEPAXI@Z PROC			; std::bad_alloc::`scalar deleting destructor', COMDAT
; _this$ = ecx
  00000	55		 push	 ebp
  00001	8b ec		 mov	 ebp, esp
  00003	56		 push	 esi
  00004	8b f1		 mov	 esi, ecx
  00006	c7 06 00 00 00
	00		 mov	 DWORD PTR [esi], OFFSET ??_7bad_alloc@std@@6B@
  0000c	e8 00 00 00 00	 call	 ??1exception@std@@UAE@XZ ; std::exception::~exception
  00011	f6 45 08 01	 test	 BYTE PTR ___flags$[ebp], 1
  00015	74 09		 je	 SHORT $LN6@scalar
  00017	56		 push	 esi
  00018	e8 00 00 00 00	 call	 ??3@YAXPAX@Z		; operator delete
  0001d	83 c4 04	 add	 esp, 4
$LN6@scalar:
  00020	8b c6		 mov	 eax, esi
  00022	5e		 pop	 esi
  00023	5d		 pop	 ebp
  00024	c2 04 00	 ret	 4
??_Gbad_alloc@std@@UAEPAXI@Z ENDP			; std::bad_alloc::`scalar deleting destructor'
_TEXT	ENDS
PUBLIC	?_Adopt@_Iterator_base0@std@@QAEXPBX@Z		; std::_Iterator_base0::_Adopt
; Function compile flags: /Ogtp
; File c:\program files (x86)\microsoft visual studio 10.0\vc\include\xutility
;	COMDAT ?_Adopt@_Iterator_base0@std@@QAEXPBX@Z
_TEXT	SEGMENT
___formal$ = 8						; size = 4
?_Adopt@_Iterator_base0@std@@QAEXPBX@Z PROC		; std::_Iterator_base0::_Adopt, COMDAT
; _this$ = ecx

; 49   : 		}

  00000	c2 04 00	 ret	 4
?_Adopt@_Iterator_base0@std@@QAEXPBX@Z ENDP		; std::_Iterator_base0::_Adopt
_TEXT	ENDS
PUBLIC	??_EOBJECTSTRUCT@@QAEPAXI@Z			; OBJECTSTRUCT::`vector deleting destructor'
EXTRN	??_V@YAXPAX@Z:PROC				; operator delete[]
EXTRN	??_M@YGXPAXIHP6EX0@Z@Z:PROC			; `eh vector destructor iterator'
;	COMDAT xdata$x
xdata$x	SEGMENT
__unwindtable$??_EOBJECTSTRUCT@@QAEPAXI@Z DD 0ffffffffH
	DD	FLAT:__unwindfunclet$??_EOBJECTSTRUCT@@QAEPAXI@Z$0
__ehfuncinfo$??_EOBJECTSTRUCT@@QAEPAXI@Z DD 019930522H
	DD	01H
	DD	FLAT:__unwindtable$??_EOBJECTSTRUCT@@QAEPAXI@Z
	DD	2 DUP(00H)
	DD	2 DUP(00H)
	DD	00H
	DD	01H
; Function compile flags: /Ogtp
xdata$x	ENDS
;	COMDAT ??_EOBJECTSTRUCT@@QAEPAXI@Z
_TEXT	SEGMENT
_this$ = -16						; size = 4
__$EHRec$ = -12						; size = 12
___flags$ = 8						; size = 4
??_EOBJECTSTRUCT@@QAEPAXI@Z PROC			; OBJECTSTRUCT::`vector deleting destructor', COMDAT
; _this$ = ecx
  00000	55		 push	 ebp
  00001	8b ec		 mov	 ebp, esp
  00003	6a ff		 push	 -1
  00005	68 00 00 00 00	 push	 __ehhandler$??_EOBJECTSTRUCT@@QAEPAXI@Z
  0000a	64 a1 00 00 00
	00		 mov	 eax, DWORD PTR fs:0
  00010	50		 push	 eax
  00011	51		 push	 ecx
  00012	53		 push	 ebx
  00013	56		 push	 esi
  00014	57		 push	 edi
  00015	a1 00 00 00 00	 mov	 eax, DWORD PTR ___security_cookie
  0001a	33 c5		 xor	 eax, ebp
  0001c	50		 push	 eax
  0001d	8d 45 f4	 lea	 eax, DWORD PTR __$EHRec$[ebp]
  00020	64 a3 00 00 00
	00		 mov	 DWORD PTR fs:0, eax
  00026	8b f1		 mov	 esi, ecx
  00028	89 75 f0	 mov	 DWORD PTR _this$[ebp], esi
  0002b	8a 5d 08	 mov	 bl, BYTE PTR ___flags$[ebp]
  0002e	f6 c3 02	 test	 bl, 2
  00031	74 3b		 je	 SHORT $LN3@vector@2
  00033	8b 46 fc	 mov	 eax, DWORD PTR [esi-4]
  00036	68 00 00 00 00	 push	 OFFSET ??1OBJECTSTRUCT@@QAE@XZ
  0003b	8d 7e fc	 lea	 edi, DWORD PTR [esi-4]
  0003e	50		 push	 eax
  0003f	68 40 27 00 00	 push	 10048			; 00002740H
  00044	56		 push	 esi
  00045	e8 00 00 00 00	 call	 ??_M@YGXPAXIHP6EX0@Z@Z
  0004a	f6 c3 01	 test	 bl, 1
  0004d	74 09		 je	 SHORT $LN2@vector@2
  0004f	57		 push	 edi
  00050	e8 00 00 00 00	 call	 ??_V@YAXPAX@Z		; operator delete[]
  00055	83 c4 04	 add	 esp, 4
$LN2@vector@2:
  00058	8b c7		 mov	 eax, edi
  0005a	8b 4d f4	 mov	 ecx, DWORD PTR __$EHRec$[ebp]
  0005d	64 89 0d 00 00
	00 00		 mov	 DWORD PTR fs:0, ecx
  00064	59		 pop	 ecx
  00065	5f		 pop	 edi
  00066	5e		 pop	 esi
  00067	5b		 pop	 ebx
  00068	8b e5		 mov	 esp, ebp
  0006a	5d		 pop	 ebp
  0006b	c2 04 00	 ret	 4
$LN3@vector@2:
  0006e	8d 8e ec 20 00
	00		 lea	 ecx, DWORD PTR [esi+8428]
  00074	c7 45 fc 00 00
	00 00		 mov	 DWORD PTR __$EHRec$[ebp+8], 0
  0007b	e8 00 00 00 00	 call	 ??1TMonsterAIAgro@@UAE@XZ ; TMonsterAIAgro::~TMonsterAIAgro
  00080	8d 8e 0c 16 00
	00		 lea	 ecx, DWORD PTR [esi+5644]
  00086	c7 45 fc ff ff
	ff ff		 mov	 DWORD PTR __$EHRec$[ebp+8], -1
  0008d	e8 00 00 00 00	 call	 ??1CSkillDelay@@UAE@XZ	; CSkillDelay::~CSkillDelay
  00092	f6 c3 01	 test	 bl, 1
  00095	74 09		 je	 SHORT $LN1@vector@2
  00097	56		 push	 esi
  00098	e8 00 00 00 00	 call	 ??3@YAXPAX@Z		; operator delete
  0009d	83 c4 04	 add	 esp, 4
$LN1@vector@2:
  000a0	8b c6		 mov	 eax, esi
  000a2	8b 4d f4	 mov	 ecx, DWORD PTR __$EHRec$[ebp]
  000a5	64 89 0d 00 00
	00 00		 mov	 DWORD PTR fs:0, ecx
  000ac	59		 pop	 ecx
  000ad	5f		 pop	 edi
  000ae	5e		 pop	 esi
  000af	5b		 pop	 ebx
  000b0	8b e5		 mov	 esp, ebp
  000b2	5d		 pop	 ebp
  000b3	c2 04 00	 ret	 4
_TEXT	ENDS
;	COMDAT text$x
text$x	SEGMENT
__unwindfunclet$??_EOBJECTSTRUCT@@QAEPAXI@Z$0:
  00000	8b 4d f0	 mov	 ecx, DWORD PTR _this$[ebp]
  00003	81 c1 0c 16 00
	00		 add	 ecx, 5644		; 0000160cH
  00009	e9 00 00 00 00	 jmp	 ??1CSkillDelay@@UAE@XZ	; CSkillDelay::~CSkillDelay
__ehhandler$??_EOBJECTSTRUCT@@QAEPAXI@Z:
  0000e	8b 54 24 08	 mov	 edx, DWORD PTR [esp+8]
  00012	8d 42 0c	 lea	 eax, DWORD PTR [edx+12]
  00015	8b 4a ec	 mov	 ecx, DWORD PTR [edx-20]
  00018	33 c8		 xor	 ecx, eax
  0001a	e8 00 00 00 00	 call	 @__security_check_cookie@4
  0001f	b8 00 00 00 00	 mov	 eax, OFFSET __ehfuncinfo$??_EOBJECTSTRUCT@@QAEPAXI@Z
  00024	e9 00 00 00 00	 jmp	 ___CxxFrameHandler3
text$x	ENDS
??_EOBJECTSTRUCT@@QAEPAXI@Z ENDP			; OBJECTSTRUCT::`vector deleting destructor'
PUBLIC	??0_LUCKY_ITEM_INFO@@QAE@XZ			; _LUCKY_ITEM_INFO::_LUCKY_ITEM_INFO
; Function compile flags: /Ogtp
; File c:\muserver_dev\development\mu-s8ep2-repack\gameserver\source\luckyitem.h
;	COMDAT ??0_LUCKY_ITEM_INFO@@QAE@XZ
_TEXT	SEGMENT
??0_LUCKY_ITEM_INFO@@QAE@XZ PROC			; _LUCKY_ITEM_INFO::_LUCKY_ITEM_INFO, COMDAT
; _this$ = ecx

; 74   : 	{

  00000	8b c1		 mov	 eax, ecx
  00002	56		 push	 esi
  00003	8d 50 20	 lea	 edx, DWORD PTR [eax+32]
  00006	be 0f 00 00 00	 mov	 esi, 15			; 0000000fH
  0000b	33 c9		 xor	 ecx, ecx
  0000d	8d 49 00	 npad	 3
$LL4@LUCKY_ITEM:
  00010	89 0a		 mov	 DWORD PTR [edx], ecx
  00012	89 4a 04	 mov	 DWORD PTR [edx+4], ecx
  00015	83 c2 08	 add	 edx, 8
  00018	4e		 dec	 esi
  00019	79 f5		 jns	 SHORT $LL4@LUCKY_ITEM
  0001b	89 88 a4 00 00
	00		 mov	 DWORD PTR [eax+164], ecx
  00021	89 88 a8 00 00
	00		 mov	 DWORD PTR [eax+168], ecx
  00027	89 88 ac 00 00
	00		 mov	 DWORD PTR [eax+172], ecx
  0002d	89 88 b8 00 00
	00		 mov	 DWORD PTR [eax+184], ecx
  00033	89 88 bc 00 00
	00		 mov	 DWORD PTR [eax+188], ecx
  00039	89 88 c0 00 00
	00		 mov	 DWORD PTR [eax+192], ecx
  0003f	89 88 cc 00 00
	00		 mov	 DWORD PTR [eax+204], ecx
  00045	89 88 d0 00 00
	00		 mov	 DWORD PTR [eax+208], ecx
  0004b	89 88 d4 00 00
	00		 mov	 DWORD PTR [eax+212], ecx
  00051	89 88 e0 00 00
	00		 mov	 DWORD PTR [eax+224], ecx
  00057	89 88 e4 00 00
	00		 mov	 DWORD PTR [eax+228], ecx
  0005d	89 88 e8 00 00
	00		 mov	 DWORD PTR [eax+232], ecx
  00063	89 88 f4 00 00
	00		 mov	 DWORD PTR [eax+244], ecx
  00069	89 88 f8 00 00
	00		 mov	 DWORD PTR [eax+248], ecx
  0006f	89 88 fc 00 00
	00		 mov	 DWORD PTR [eax+252], ecx
  00075	89 88 08 01 00
	00		 mov	 DWORD PTR [eax+264], ecx
  0007b	89 88 0c 01 00
	00		 mov	 DWORD PTR [eax+268], ecx
  00081	89 88 10 01 00
	00		 mov	 DWORD PTR [eax+272], ecx
  00087	89 88 1c 01 00
	00		 mov	 DWORD PTR [eax+284], ecx
  0008d	89 88 20 01 00
	00		 mov	 DWORD PTR [eax+288], ecx
  00093	89 88 24 01 00
	00		 mov	 DWORD PTR [eax+292], ecx
  00099	83 ca ff	 or	 edx, -1
  0009c	89 90 a0 00 00
	00		 mov	 DWORD PTR [eax+160], edx
  000a2	89 90 b0 00 00
	00		 mov	 DWORD PTR [eax+176], edx
  000a8	89 90 b4 00 00
	00		 mov	 DWORD PTR [eax+180], edx
  000ae	89 90 c4 00 00
	00		 mov	 DWORD PTR [eax+196], edx
  000b4	89 90 c8 00 00
	00		 mov	 DWORD PTR [eax+200], edx
  000ba	89 90 d8 00 00
	00		 mov	 DWORD PTR [eax+216], edx
  000c0	89 90 dc 00 00
	00		 mov	 DWORD PTR [eax+220], edx
  000c6	89 90 ec 00 00
	00		 mov	 DWORD PTR [eax+236], edx
  000cc	89 90 f0 00 00
	00		 mov	 DWORD PTR [eax+240], edx
  000d2	89 90 00 01 00
	00		 mov	 DWORD PTR [eax+256], edx
  000d8	89 90 04 01 00
	00		 mov	 DWORD PTR [eax+260], edx
  000de	89 90 14 01 00
	00		 mov	 DWORD PTR [eax+276], edx
  000e4	89 90 18 01 00
	00		 mov	 DWORD PTR [eax+280], edx
  000ea	89 90 28 01 00
	00		 mov	 DWORD PTR [eax+296], edx
  000f0	89 88 2c 01 00
	00		 mov	 DWORD PTR [eax+300], ecx
  000f6	89 88 30 01 00
	00		 mov	 DWORD PTR [eax+304], ecx
  000fc	89 88 34 01 00
	00		 mov	 DWORD PTR [eax+308], ecx
  00102	89 88 38 01 00
	00		 mov	 DWORD PTR [eax+312], ecx
  00108	89 88 3c 01 00
	00		 mov	 DWORD PTR [eax+316], ecx
  0010e	89 88 40 01 00
	00		 mov	 DWORD PTR [eax+320], ecx
  00114	89 88 44 01 00
	00		 mov	 DWORD PTR [eax+324], ecx
  0011a	89 88 48 01 00
	00		 mov	 DWORD PTR [eax+328], ecx
  00120	89 88 4c 01 00
	00		 mov	 DWORD PTR [eax+332], ecx
  00126	89 88 50 01 00
	00		 mov	 DWORD PTR [eax+336], ecx
  0012c	89 88 54 01 00
	00		 mov	 DWORD PTR [eax+340], ecx
  00132	89 88 58 01 00
	00		 mov	 DWORD PTR [eax+344], ecx
  00138	89 88 5c 01 00
	00		 mov	 DWORD PTR [eax+348], ecx
  0013e	89 88 60 01 00
	00		 mov	 DWORD PTR [eax+352], ecx
  00144	89 88 64 01 00
	00		 mov	 DWORD PTR [eax+356], ecx
  0014a	89 88 68 01 00
	00		 mov	 DWORD PTR [eax+360], ecx
  00150	89 88 6c 01 00
	00		 mov	 DWORD PTR [eax+364], ecx
  00156	89 88 70 01 00
	00		 mov	 DWORD PTR [eax+368], ecx
  0015c	89 88 74 01 00
	00		 mov	 DWORD PTR [eax+372], ecx
  00162	89 88 78 01 00
	00		 mov	 DWORD PTR [eax+376], ecx
  00168	89 88 7c 01 00
	00		 mov	 DWORD PTR [eax+380], ecx
  0016e	89 88 80 01 00
	00		 mov	 DWORD PTR [eax+384], ecx
  00174	89 88 84 01 00
	00		 mov	 DWORD PTR [eax+388], ecx
  0017a	89 88 88 01 00
	00		 mov	 DWORD PTR [eax+392], ecx
  00180	89 88 8c 01 00
	00		 mov	 DWORD PTR [eax+396], ecx
  00186	89 88 90 01 00
	00		 mov	 DWORD PTR [eax+400], ecx
  0018c	89 88 94 01 00
	00		 mov	 DWORD PTR [eax+404], ecx
  00192	89 88 98 01 00
	00		 mov	 DWORD PTR [eax+408], ecx
  00198	89 88 9c 01 00
	00		 mov	 DWORD PTR [eax+412], ecx
  0019e	89 88 a0 01 00
	00		 mov	 DWORD PTR [eax+416], ecx

; 75   : 		this->ItemIndex	= -1;

  001a4	89 10		 mov	 DWORD PTR [eax], edx

; 76   : 		this->ItemKind	= -1;

  001a6	89 50 04	 mov	 DWORD PTR [eax+4], edx

; 77   : 		memset(this->AddOpt3Rate, 0, sizeof(AddOpt3Rate));

  001a9	89 48 08	 mov	 DWORD PTR [eax+8], ecx
  001ac	89 48 0c	 mov	 DWORD PTR [eax+12], ecx
  001af	89 48 10	 mov	 DWORD PTR [eax+16], ecx
  001b2	89 48 14	 mov	 DWORD PTR [eax+20], ecx
  001b5	5e		 pop	 esi

; 78   : 	}

  001b6	c3		 ret	 0
??0_LUCKY_ITEM_INFO@@QAE@XZ ENDP			; _LUCKY_ITEM_INFO::_LUCKY_ITEM_INFO
_TEXT	ENDS
PUBLIC	??_C@_0BP@OIMJHLAA@MoveCommand?5?$CFs?5File?5Load?5Error?$AA@ ; `string'
PUBLIC	_this$GSCopy$
PUBLIC	??_C@_01KDCPPGHE@r?$AA@				; `string'
PUBLIC	__$ArrayPad$
PUBLIC	?LoadLuckyItemInfo@LuckyItemManager@@QAEHPAD@Z	; LuckyItemManager::LoadLuckyItemInfo
EXTRN	_fclose:PROC
EXTRN	_fopen:PROC
;	COMDAT ??_C@_0BP@OIMJHLAA@MoveCommand?5?$CFs?5File?5Load?5Error?$AA@
; File c:\muserver_dev\development\mu-s8ep2-repack\gameserver\source\spe.h
CONST	SEGMENT
??_C@_0BP@OIMJHLAA@MoveCommand?5?$CFs?5File?5Load?5Error?$AA@ DB 'MoveCom'
	DB	'mand %s File Load Error', 00H		; `string'
CONST	ENDS
;	COMDAT ??_C@_01KDCPPGHE@r?$AA@
CONST	SEGMENT
??_C@_01KDCPPGHE@r?$AA@ DB 'r', 00H			; `string'
; Function compile flags: /Ogtp
; File c:\muserver_dev\development\mu-s8ep2-repack\gameserver\source\luckyitem.cpp
CONST	ENDS
;	COMDAT ?LoadLuckyItemInfo@LuckyItemManager@@QAEHPAD@Z
_TEXT	SEGMENT
_this$GSCopy$ = -2108					; size = 4
_LuckyItemInfo$ = -2104					; size = 2100
__$ArrayPad$ = -4					; size = 4
_lpszFileName$ = 8					; size = 4
?LoadLuckyItemInfo@LuckyItemManager@@QAEHPAD@Z PROC	; LuckyItemManager::LoadLuckyItemInfo, COMDAT
; _this$ = ecx

; 96   : {

  00000	55		 push	 ebp
  00001	8b ec		 mov	 ebp, esp
  00003	81 ec 3c 08 00
	00		 sub	 esp, 2108		; 0000083cH
  00009	a1 00 00 00 00	 mov	 eax, DWORD PTR ___security_cookie
  0000e	33 c5		 xor	 eax, ebp
  00010	89 45 fc	 mov	 DWORD PTR __$ArrayPad$[ebp], eax
  00013	56		 push	 esi
  00014	8b 75 08	 mov	 esi, DWORD PTR _lpszFileName$[ebp]

; 97   : 	SMDFile = fopen(lpszFileName, "r");

  00017	68 00 00 00 00	 push	 OFFSET ??_C@_01KDCPPGHE@r?$AA@
  0001c	56		 push	 esi
  0001d	89 8d c4 f7 ff
	ff		 mov	 DWORD PTR _this$GSCopy$[ebp], ecx
  00023	e8 00 00 00 00	 call	 _fopen
  00028	83 c4 08	 add	 esp, 8
  0002b	a3 00 00 00 00	 mov	 DWORD PTR _SMDFile, eax

; 98   : 	// ----
; 99   : 	if( !SMDFile )

  00030	85 c0		 test	 eax, eax
  00032	75 21		 jne	 SHORT $LN56@LoadLuckyI@2

; 100  : 	{
; 101  : 		MsgBox("MoveCommand %s File Load Error", lpszFileName);	//;D

  00034	56		 push	 esi
  00035	68 00 00 00 00	 push	 OFFSET ??_C@_0BP@OIMJHLAA@MoveCommand?5?$CFs?5File?5Load?5Error?$AA@
  0003a	e8 00 00 00 00	 call	 ?MsgBox@@YAXPADZZ	; MsgBox
  0003f	83 c4 08	 add	 esp, 8

; 102  : 		return false;

  00042	33 c0		 xor	 eax, eax
  00044	5e		 pop	 esi

; 288  : }

  00045	8b 4d fc	 mov	 ecx, DWORD PTR __$ArrayPad$[ebp]
  00048	33 cd		 xor	 ecx, ebp
  0004a	e8 00 00 00 00	 call	 @__security_check_cookie@4
  0004f	8b e5		 mov	 esp, ebp
  00051	5d		 pop	 ebp
  00052	c2 04 00	 ret	 4
$LN56@LoadLuckyI@2:

; 103  : 	}
; 104  : 	// ----
; 105  : 	SMDToken Token;
; 106  : 	int i 								= 0;
; 107  : 	int	iCount							= 0;
; 108  : 	int iTicketCount					= 0;
; 109  : 	this->TicketCount					= 0;

  00055	8b 85 c4 f7 ff
	ff		 mov	 eax, DWORD PTR _this$GSCopy$[ebp]
  0005b	53		 push	 ebx
  0005c	33 db		 xor	 ebx, ebx
  0005e	57		 push	 edi
  0005f	89 18		 mov	 DWORD PTR [eax], ebx

; 110  : 	_LUCKY_ITEM_INFO LuckyItemInfo[5];

  00061	8d b5 c8 f7 ff
	ff		 lea	 esi, DWORD PTR _LuckyItemInfo$[ebp]
  00067	8d 7b 04	 lea	 edi, DWORD PTR [ebx+4]
  0006a	8d 9b 00 00 00
	00		 npad	 6
$LL60@LoadLuckyI@2:
  00070	8b ce		 mov	 ecx, esi
  00072	e8 00 00 00 00	 call	 ??0_LUCKY_ITEM_INFO@@QAE@XZ ; _LUCKY_ITEM_INFO::_LUCKY_ITEM_INFO
  00077	81 c6 a4 01 00
	00		 add	 esi, 420		; 000001a4H
  0007d	4f		 dec	 edi
  0007e	79 f0		 jns	 SHORT $LL60@LoadLuckyI@2

; 111  : 
; 112  : 	// ----
; 113  : 	while(true)
; 114  : 	{
; 115  : 		Token = GetToken();

  00080	e8 00 00 00 00	 call	 ?GetToken@@YA?AW4SMDToken@@XZ ; GetToken

; 116  : 		// ----
; 117  : 		if( Token == END )

  00085	83 f8 02	 cmp	 eax, 2
  00088	0f 84 29 01 00
	00		 je	 $LN111@LoadLuckyI@2
  0008e	8b ff		 npad	 2
$LL55@LoadLuckyI@2:

; 118  : 		{
; 119  : 			break;
; 120  : 		}
; 121  : 		// ----
; 122  : 		if( Token == NUMBER )

  00090	83 f8 01	 cmp	 eax, 1
  00093	0f 85 10 01 00
	00		 jne	 $LN116@LoadLuckyI@2

; 123  : 		{
; 124  : 			int Type = TokenNumber;

  00099	d9 05 00 00 00
	00		 fld	 DWORD PTR _TokenNumber
  0009f	e8 00 00 00 00	 call	 __ftol2_sse

; 125  : 			// ----
; 126  : 			if( Type == 0 )	//-> Tickets

  000a4	85 c0		 test	 eax, eax
  000a6	0f 85 9f 00 00
	00		 jne	 $LN51@LoadLuckyI@2

; 123  : 		{
; 124  : 			int Type = TokenNumber;

  000ac	8b cb		 mov	 ecx, ebx
  000ae	69 c9 a4 01 00
	00		 imul	 ecx, 420		; 000001a4H
  000b4	8d bc 0d cc f7
	ff ff		 lea	 edi, DWORD PTR _LuckyItemInfo$[ebp+ecx+4]
  000bb	eb 03 8d 49 00	 npad	 5
$LL50@LoadLuckyI@2:

; 127  : 			{
; 128  : 				while(true)
; 129  : 				{
; 130  : 					Token = GetToken();

  000c0	e8 00 00 00 00	 call	 ?GetToken@@YA?AW4SMDToken@@XZ ; GetToken

; 131  : 					// ----
; 132  : 					if( Token == NAME && !strcmp("end", TokenString) )

  000c5	85 c0		 test	 eax, eax
  000c7	75 37		 jne	 SHORT $LN48@LoadLuckyI@2
  000c9	b9 00 00 00 00	 mov	 ecx, OFFSET _TokenString
  000ce	b8 00 00 00 00	 mov	 eax, OFFSET ??_C@_03JBJLGPFL@end?$AA@
$LL91@LoadLuckyI@2:
  000d3	8a 10		 mov	 dl, BYTE PTR [eax]
  000d5	3a 11		 cmp	 dl, BYTE PTR [ecx]
  000d7	75 1a		 jne	 SHORT $LN92@LoadLuckyI@2
  000d9	84 d2		 test	 dl, dl
  000db	74 12		 je	 SHORT $LN118@LoadLuckyI@2
  000dd	8a 50 01	 mov	 dl, BYTE PTR [eax+1]
  000e0	3a 51 01	 cmp	 dl, BYTE PTR [ecx+1]
  000e3	75 0e		 jne	 SHORT $LN92@LoadLuckyI@2
  000e5	83 c0 02	 add	 eax, 2
  000e8	83 c1 02	 add	 ecx, 2
  000eb	84 d2		 test	 dl, dl
  000ed	75 e4		 jne	 SHORT $LL91@LoadLuckyI@2
$LN118@LoadLuckyI@2:
  000ef	33 c0		 xor	 eax, eax
  000f1	eb 05		 jmp	 SHORT $LN94@LoadLuckyI@2
$LN92@LoadLuckyI@2:
  000f3	1b c0		 sbb	 eax, eax
  000f5	83 d8 ff	 sbb	 eax, -1
$LN94@LoadLuckyI@2:
  000f8	85 c0		 test	 eax, eax
  000fa	0f 84 a9 00 00
	00		 je	 $LN116@LoadLuckyI@2
$LN48@LoadLuckyI@2:

; 133  : 					{
; 134  : 						break;
; 135  : 					}
; 136  : 					// ----
; 137  : 					int iType	= TokenNumber;

  00100	d9 05 00 00 00
	00		 fld	 DWORD PTR _TokenNumber
  00106	e8 00 00 00 00	 call	 __ftol2_sse
  0010b	8b f0		 mov	 esi, eax

; 138  : 					Token		= GetToken();		

  0010d	e8 00 00 00 00	 call	 ?GetToken@@YA?AW4SMDToken@@XZ ; GetToken

; 139  : 					int iIndex	= TokenNumber;
; 140  : 					// ----
; 141  : 					LuckyItemInfo[iTicketCount].ItemIndex	= ITEMGET(iType, iIndex);	//Fixed

  00112	d9 05 00 00 00
	00		 fld	 DWORD PTR _TokenNumber
  00118	c1 e6 09	 shl	 esi, 9
  0011b	e8 00 00 00 00	 call	 __ftol2_sse
  00120	03 f0		 add	 esi, eax
  00122	89 77 fc	 mov	 DWORD PTR [edi-4], esi

; 142  : 					// ----
; 143  : 					Token = GetToken();		

  00125	e8 00 00 00 00	 call	 ?GetToken@@YA?AW4SMDToken@@XZ ; GetToken

; 144  : 					LuckyItemInfo[iTicketCount].ItemKind	= TokenNumber;	//Fixed

  0012a	d9 05 00 00 00
	00		 fld	 DWORD PTR _TokenNumber
  00130	e8 00 00 00 00	 call	 __ftol2_sse

; 145  : 					// ----
; 146  : 					iTicketCount++;
; 147  : 					// ----
; 148  : 					this->TicketCount = iTicketCount;

  00135	8b 95 c4 f7 ff
	ff		 mov	 edx, DWORD PTR _this$GSCopy$[ebp]
  0013b	43		 inc	 ebx
  0013c	89 07		 mov	 DWORD PTR [edi], eax
  0013e	81 c7 a4 01 00
	00		 add	 edi, 420		; 000001a4H
  00144	89 1a		 mov	 DWORD PTR [edx], ebx

; 149  : 				}

  00146	e9 75 ff ff ff	 jmp	 $LL50@LoadLuckyI@2
$LN51@LoadLuckyI@2:

; 150  : 			}
; 151  : 			else if( Type == 2 )	//-> Helm

  0014b	83 f8 02	 cmp	 eax, 2
  0014e	75 0b		 jne	 SHORT $LN46@LoadLuckyI@2

; 152  : 			{
; 153  : 				if( !this->LoadLuckyItemEquipment(Type, &LuckyItemInfo[0]) )

  00150	8d 85 c8 f7 ff
	ff		 lea	 eax, DWORD PTR _LuckyItemInfo$[ebp]
  00156	50		 push	 eax
  00157	6a 02		 push	 2

; 154  : 				{
; 155  : 					return false;
; 156  : 				}
; 157  : 			}

  00159	eb 3b		 jmp	 SHORT $LN126@LoadLuckyI@2
$LN46@LoadLuckyI@2:

; 158  : 			else if( Type == 3 )	//-> Armor

  0015b	83 f8 03	 cmp	 eax, 3
  0015e	75 0a		 jne	 SHORT $LN43@LoadLuckyI@2

; 159  : 			{
; 160  : 				if( !this->LoadLuckyItemEquipment(Type, &LuckyItemInfo[0]) )

  00160	8d 8d c8 f7 ff
	ff		 lea	 ecx, DWORD PTR _LuckyItemInfo$[ebp]
  00166	51		 push	 ecx
  00167	50		 push	 eax

; 161  : 				{
; 162  : 					return false;
; 163  : 				}
; 164  : 			}

  00168	eb 2c		 jmp	 SHORT $LN126@LoadLuckyI@2
$LN43@LoadLuckyI@2:

; 165  : 			else if( Type == 4 )	//-> Pants

  0016a	83 f8 04	 cmp	 eax, 4
  0016d	75 0a		 jne	 SHORT $LN40@LoadLuckyI@2

; 166  : 			{
; 167  : 				if( !this->LoadLuckyItemEquipment(Type, &LuckyItemInfo[0]) )

  0016f	8d 95 c8 f7 ff
	ff		 lea	 edx, DWORD PTR _LuckyItemInfo$[ebp]
  00175	52		 push	 edx
  00176	50		 push	 eax

; 168  : 				{
; 169  : 					return false;
; 170  : 				}
; 171  : 			}

  00177	eb 1d		 jmp	 SHORT $LN126@LoadLuckyI@2
$LN40@LoadLuckyI@2:

; 172  : 			else if( Type == 5 )	//-> Gloves

  00179	83 f8 05	 cmp	 eax, 5
  0017c	75 0b		 jne	 SHORT $LN37@LoadLuckyI@2

; 173  : 			{
; 174  : 				if( !this->LoadLuckyItemEquipment(Type, &LuckyItemInfo[0]) )

  0017e	8d 85 c8 f7 ff
	ff		 lea	 eax, DWORD PTR _LuckyItemInfo$[ebp]
  00184	50		 push	 eax
  00185	6a 05		 push	 5

; 175  : 				{
; 176  : 					return false;
; 177  : 				}
; 178  : 			}

  00187	eb 0d		 jmp	 SHORT $LN126@LoadLuckyI@2
$LN37@LoadLuckyI@2:

; 179  : 			else if( Type == 6 )	//-> Boots

  00189	83 f8 06	 cmp	 eax, 6
  0018c	75 63		 jne	 SHORT $LN34@LoadLuckyI@2

; 180  : 			{
; 181  : 				if( !this->LoadLuckyItemEquipment(Type, &LuckyItemInfo[0]) )

  0018e	8d 8d c8 f7 ff
	ff		 lea	 ecx, DWORD PTR _LuckyItemInfo$[ebp]
  00194	51		 push	 ecx
  00195	50		 push	 eax
$LN126@LoadLuckyI@2:
  00196	8b 8d c4 f7 ff
	ff		 mov	 ecx, DWORD PTR _this$GSCopy$[ebp]
  0019c	e8 00 00 00 00	 call	 ?LoadLuckyItemEquipment@LuckyItemManager@@QAEHHPAU_LUCKY_ITEM_INFO@@@Z ; LuckyItemManager::LoadLuckyItemEquipment
  001a1	85 c0		 test	 eax, eax
  001a3	0f 84 8d 02 00
	00		 je	 $LN85@LoadLuckyI@2
$LN116@LoadLuckyI@2:

; 111  : 
; 112  : 	// ----
; 113  : 	while(true)
; 114  : 	{
; 115  : 		Token = GetToken();

  001a9	e8 00 00 00 00	 call	 ?GetToken@@YA?AW4SMDToken@@XZ ; GetToken

; 116  : 		// ----
; 117  : 		if( Token == END )

  001ae	83 f8 02	 cmp	 eax, 2
  001b1	0f 85 d9 fe ff
	ff		 jne	 $LL55@LoadLuckyI@2
$LN111@LoadLuckyI@2:

; 280  : 			}
; 281  : 		}
; 282  : 	}
; 283  : 	// ----
; 284  : 	fclose(SMDFile);

  001b7	8b 15 00 00 00
	00		 mov	 edx, DWORD PTR _SMDFile
  001bd	52		 push	 edx
  001be	e8 00 00 00 00	 call	 _fclose

; 285  : 	this->AddLuckyItemInfo(&LuckyItemInfo[0], iTicketCount);

  001c3	8b 8d c4 f7 ff
	ff		 mov	 ecx, DWORD PTR _this$GSCopy$[ebp]
  001c9	83 c4 04	 add	 esp, 4
  001cc	53		 push	 ebx
  001cd	8d 85 c8 f7 ff
	ff		 lea	 eax, DWORD PTR _LuckyItemInfo$[ebp]
  001d3	50		 push	 eax
  001d4	e8 00 00 00 00	 call	 ?AddLuckyItemInfo@LuckyItemManager@@QAEXPAU_LUCKY_ITEM_INFO@@H@Z ; LuckyItemManager::AddLuckyItemInfo
  001d9	5f		 pop	 edi
  001da	5b		 pop	 ebx

; 286  : 	// ----
; 287  : 	return true;

  001db	b8 01 00 00 00	 mov	 eax, 1
  001e0	5e		 pop	 esi

; 288  : }

  001e1	8b 4d fc	 mov	 ecx, DWORD PTR __$ArrayPad$[ebp]
  001e4	33 cd		 xor	 ecx, ebp
  001e6	e8 00 00 00 00	 call	 @__security_check_cookie@4
  001eb	8b e5		 mov	 esp, ebp
  001ed	5d		 pop	 ebp
  001ee	c2 04 00	 ret	 4
$LN34@LoadLuckyI@2:

; 182  : 				{
; 183  : 					return false;
; 184  : 				}
; 185  : 			}
; 186  : 			else if( Type == 20 )	//-> ItemLevelRandRate

  001f1	83 f8 14	 cmp	 eax, 20			; 00000014H
  001f4	0f 85 91 00 00
	00		 jne	 $LN31@LoadLuckyI@2
  001fa	8d 9b 00 00 00
	00		 npad	 6
$LL30@LoadLuckyI@2:

; 187  : 			{
; 188  : 				iCount = 0;
; 189  : 				// ----
; 190  : 				while(true)
; 191  : 				{
; 192  : 					Token = GetToken();

  00200	e8 00 00 00 00	 call	 ?GetToken@@YA?AW4SMDToken@@XZ ; GetToken

; 193  : 					// ----
; 194  : 					if( Token == NAME && !strcmp("end", TokenString) )

  00205	85 c0		 test	 eax, eax
  00207	75 37		 jne	 SHORT $LN112@LoadLuckyI@2
  00209	b9 00 00 00 00	 mov	 ecx, OFFSET _TokenString
  0020e	b8 00 00 00 00	 mov	 eax, OFFSET ??_C@_03JBJLGPFL@end?$AA@
$LL95@LoadLuckyI@2:
  00213	8a 10		 mov	 dl, BYTE PTR [eax]
  00215	3a 11		 cmp	 dl, BYTE PTR [ecx]
  00217	75 1a		 jne	 SHORT $LN96@LoadLuckyI@2
  00219	84 d2		 test	 dl, dl
  0021b	74 12		 je	 SHORT $LN119@LoadLuckyI@2
  0021d	8a 50 01	 mov	 dl, BYTE PTR [eax+1]
  00220	3a 51 01	 cmp	 dl, BYTE PTR [ecx+1]
  00223	75 0e		 jne	 SHORT $LN96@LoadLuckyI@2
  00225	83 c0 02	 add	 eax, 2
  00228	83 c1 02	 add	 ecx, 2
  0022b	84 d2		 test	 dl, dl
  0022d	75 e4		 jne	 SHORT $LL95@LoadLuckyI@2
$LN119@LoadLuckyI@2:
  0022f	33 c0		 xor	 eax, eax
  00231	eb 05		 jmp	 SHORT $LN98@LoadLuckyI@2
$LN96@LoadLuckyI@2:
  00233	1b c0		 sbb	 eax, eax
  00235	83 d8 ff	 sbb	 eax, -1
$LN98@LoadLuckyI@2:
  00238	85 c0		 test	 eax, eax
  0023a	0f 84 69 ff ff
	ff		 je	 $LN116@LoadLuckyI@2
$LN112@LoadLuckyI@2:

; 195  : 					{
; 196  : 						break;
; 197  : 					}
; 198  : 					// ----
; 199  : 					int iIndex = TokenNumber;

  00240	d9 05 00 00 00
	00		 fld	 DWORD PTR _TokenNumber
  00246	e8 00 00 00 00	 call	 __ftol2_sse

; 200  : 					// ----
; 201  : 					for( int i = 0; i < iTicketCount; i++ )	//-> Error? bcz it will be from 0 to 15........

  0024b	85 db		 test	 ebx, ebx
  0024d	7e b1		 jle	 SHORT $LL30@LoadLuckyI@2

; 195  : 					{
; 196  : 						break;
; 197  : 					}
; 198  : 					// ----
; 199  : 					int iIndex = TokenNumber;

  0024f	8d b4 c5 ec f7
	ff ff		 lea	 esi, DWORD PTR _LuckyItemInfo$[ebp+eax*8+36]
  00256	8b fb		 mov	 edi, ebx
$LL27@LoadLuckyI@2:

; 202  : 					{
; 203  : 						Token = GetToken();		

  00258	e8 00 00 00 00	 call	 ?GetToken@@YA?AW4SMDToken@@XZ ; GetToken

; 204  : 						LuckyItemInfo[i].m_ItemLevelRandRate[iIndex].m_Level	= TokenNumber;

  0025d	d9 05 00 00 00
	00		 fld	 DWORD PTR _TokenNumber
  00263	e8 00 00 00 00	 call	 __ftol2_sse
  00268	89 46 fc	 mov	 DWORD PTR [esi-4], eax

; 205  : 						// ----
; 206  : 						Token = GetToken();		

  0026b	e8 00 00 00 00	 call	 ?GetToken@@YA?AW4SMDToken@@XZ ; GetToken

; 207  : 						LuckyItemInfo[i].m_ItemLevelRandRate[iIndex].m_Rate		= TokenNumber;

  00270	d9 05 00 00 00
	00		 fld	 DWORD PTR _TokenNumber
  00276	e8 00 00 00 00	 call	 __ftol2_sse
  0027b	89 06		 mov	 DWORD PTR [esi], eax
  0027d	81 c6 a4 01 00
	00		 add	 esi, 420		; 000001a4H
  00283	4f		 dec	 edi
  00284	75 d2		 jne	 SHORT $LL27@LoadLuckyI@2

; 208  : 					}
; 209  : 				}

  00286	e9 75 ff ff ff	 jmp	 $LL30@LoadLuckyI@2
$LN31@LoadLuckyI@2:

; 210  : 			}
; 211  : 			else if( Type == 21 )	//-> AddOpt3Rate

  0028b	83 f8 15	 cmp	 eax, 21			; 00000015H
  0028e	75 75		 jne	 SHORT $LN23@LoadLuckyI@2
$LL22@LoadLuckyI@2:

; 212  : 			{
; 213  : 				iCount = 0;
; 214  : 				// ----
; 215  : 				while(true)
; 216  : 				{
; 217  : 					Token = GetToken();

  00290	e8 00 00 00 00	 call	 ?GetToken@@YA?AW4SMDToken@@XZ ; GetToken

; 218  : 					// ----
; 219  : 					if( Token == NAME && !strcmp("end", TokenString) )

  00295	85 c0		 test	 eax, eax
  00297	75 37		 jne	 SHORT $LN113@LoadLuckyI@2
  00299	b9 00 00 00 00	 mov	 ecx, OFFSET _TokenString
  0029e	b8 00 00 00 00	 mov	 eax, OFFSET ??_C@_03JBJLGPFL@end?$AA@
$LL99@LoadLuckyI@2:
  002a3	8a 10		 mov	 dl, BYTE PTR [eax]
  002a5	3a 11		 cmp	 dl, BYTE PTR [ecx]
  002a7	75 1a		 jne	 SHORT $LN100@LoadLuckyI@2
  002a9	84 d2		 test	 dl, dl
  002ab	74 12		 je	 SHORT $LN120@LoadLuckyI@2
  002ad	8a 50 01	 mov	 dl, BYTE PTR [eax+1]
  002b0	3a 51 01	 cmp	 dl, BYTE PTR [ecx+1]
  002b3	75 0e		 jne	 SHORT $LN100@LoadLuckyI@2
  002b5	83 c0 02	 add	 eax, 2
  002b8	83 c1 02	 add	 ecx, 2
  002bb	84 d2		 test	 dl, dl
  002bd	75 e4		 jne	 SHORT $LL99@LoadLuckyI@2
$LN120@LoadLuckyI@2:
  002bf	33 c0		 xor	 eax, eax
  002c1	eb 05		 jmp	 SHORT $LN102@LoadLuckyI@2
$LN100@LoadLuckyI@2:
  002c3	1b c0		 sbb	 eax, eax
  002c5	83 d8 ff	 sbb	 eax, -1
$LN102@LoadLuckyI@2:
  002c8	85 c0		 test	 eax, eax
  002ca	0f 84 d9 fe ff
	ff		 je	 $LN116@LoadLuckyI@2
$LN113@LoadLuckyI@2:

; 220  : 					{
; 221  : 						break;
; 222  : 					}
; 223  : 					// ----
; 224  : 					int iIndex = TokenNumber;

  002d0	d9 05 00 00 00
	00		 fld	 DWORD PTR _TokenNumber
  002d6	e8 00 00 00 00	 call	 __ftol2_sse

; 225  : 					// ----
; 226  : 					for( int i = 0; i < iTicketCount; i++ )	//-> too error...

  002db	85 db		 test	 ebx, ebx
  002dd	7e b1		 jle	 SHORT $LL22@LoadLuckyI@2

; 220  : 					{
; 221  : 						break;
; 222  : 					}
; 223  : 					// ----
; 224  : 					int iIndex = TokenNumber;

  002df	8d b4 85 d0 f7
	ff ff		 lea	 esi, DWORD PTR _LuckyItemInfo$[ebp+eax*4+8]
  002e6	8b fb		 mov	 edi, ebx
$LL19@LoadLuckyI@2:

; 227  : 					{
; 228  : 						Token = GetToken();		

  002e8	e8 00 00 00 00	 call	 ?GetToken@@YA?AW4SMDToken@@XZ ; GetToken

; 229  : 						LuckyItemInfo[i].AddOpt3Rate[iIndex] = TokenNumber;

  002ed	d9 05 00 00 00
	00		 fld	 DWORD PTR _TokenNumber
  002f3	e8 00 00 00 00	 call	 __ftol2_sse
  002f8	89 06		 mov	 DWORD PTR [esi], eax
  002fa	81 c6 a4 01 00
	00		 add	 esi, 420		; 000001a4H
  00300	4f		 dec	 edi
  00301	75 e5		 jne	 SHORT $LL19@LoadLuckyI@2

; 230  : 					}
; 231  : 				}

  00303	eb 8b		 jmp	 SHORT $LL22@LoadLuckyI@2
$LN23@LoadLuckyI@2:

; 232  : 			}
; 233  : 			else if( Type == 22 )	//-> AddSetOptRate

  00305	83 f8 16	 cmp	 eax, 22			; 00000016H
  00308	75 7b		 jne	 SHORT $LN15@LoadLuckyI@2
  0030a	8d 9b 00 00 00
	00		 npad	 6
$LL14@LoadLuckyI@2:

; 234  : 			{
; 235  : 				iCount = 0;
; 236  : 				// ----
; 237  : 				while(true)
; 238  : 				{
; 239  : 					Token = GetToken();

  00310	e8 00 00 00 00	 call	 ?GetToken@@YA?AW4SMDToken@@XZ ; GetToken

; 240  : 					// -----
; 241  : 					if( Token == NAME && !strcmp("end", TokenString) )

  00315	85 c0		 test	 eax, eax
  00317	75 37		 jne	 SHORT $LN114@LoadLuckyI@2
  00319	b9 00 00 00 00	 mov	 ecx, OFFSET _TokenString
  0031e	b8 00 00 00 00	 mov	 eax, OFFSET ??_C@_03JBJLGPFL@end?$AA@
$LL103@LoadLuckyI@2:
  00323	8a 10		 mov	 dl, BYTE PTR [eax]
  00325	3a 11		 cmp	 dl, BYTE PTR [ecx]
  00327	75 1a		 jne	 SHORT $LN104@LoadLuckyI@2
  00329	84 d2		 test	 dl, dl
  0032b	74 12		 je	 SHORT $LN121@LoadLuckyI@2
  0032d	8a 50 01	 mov	 dl, BYTE PTR [eax+1]
  00330	3a 51 01	 cmp	 dl, BYTE PTR [ecx+1]
  00333	75 0e		 jne	 SHORT $LN104@LoadLuckyI@2
  00335	83 c0 02	 add	 eax, 2
  00338	83 c1 02	 add	 ecx, 2
  0033b	84 d2		 test	 dl, dl
  0033d	75 e4		 jne	 SHORT $LL103@LoadLuckyI@2
$LN121@LoadLuckyI@2:
  0033f	33 c0		 xor	 eax, eax
  00341	eb 05		 jmp	 SHORT $LN106@LoadLuckyI@2
$LN104@LoadLuckyI@2:
  00343	1b c0		 sbb	 eax, eax
  00345	83 d8 ff	 sbb	 eax, -1
$LN106@LoadLuckyI@2:
  00348	85 c0		 test	 eax, eax
  0034a	0f 84 59 fe ff
	ff		 je	 $LN116@LoadLuckyI@2
$LN114@LoadLuckyI@2:

; 242  : 					{
; 243  : 						break;
; 244  : 					}
; 245  : 					// ----
; 246  : 					int iIndex = TokenNumber;

  00350	d9 05 00 00 00
	00		 fld	 DWORD PTR _TokenNumber
  00356	e8 00 00 00 00	 call	 __ftol2_sse

; 247  : 					// ----
; 248  : 					for( int i = 0; i < iTicketCount; i++ )

  0035b	85 db		 test	 ebx, ebx
  0035d	7e b1		 jle	 SHORT $LL14@LoadLuckyI@2

; 242  : 					{
; 243  : 						break;
; 244  : 					}
; 245  : 					// ----
; 246  : 					int iIndex = TokenNumber;

  0035f	8d b4 85 e0 f7
	ff ff		 lea	 esi, DWORD PTR _LuckyItemInfo$[ebp+eax*4+24]
  00366	8b fb		 mov	 edi, ebx
$LL11@LoadLuckyI@2:

; 249  : 					{
; 250  : 						Token = GetToken();		

  00368	e8 00 00 00 00	 call	 ?GetToken@@YA?AW4SMDToken@@XZ ; GetToken

; 251  : 						LuckyItemInfo[i].AddSetOptRate[iIndex] = TokenNumber;

  0036d	d9 05 00 00 00
	00		 fld	 DWORD PTR _TokenNumber
  00373	e8 00 00 00 00	 call	 __ftol2_sse
  00378	89 06		 mov	 DWORD PTR [esi], eax
  0037a	81 c6 a4 01 00
	00		 add	 esi, 420		; 000001a4H
  00380	4f		 dec	 edi
  00381	75 e5		 jne	 SHORT $LL11@LoadLuckyI@2

; 252  : 					}
; 253  : 				}

  00383	eb 8b		 jmp	 SHORT $LL14@LoadLuckyI@2
$LN15@LoadLuckyI@2:

; 254  : 			}
; 255  : 			else if( Type == 23 )	//-> ItemSmeltRate

  00385	83 f8 17	 cmp	 eax, 23			; 00000017H
  00388	0f 85 1b fe ff
	ff		 jne	 $LN116@LoadLuckyI@2
  0038e	8b ff		 npad	 2
$LL6@LoadLuckyI@2:

; 256  : 			{
; 257  : 				iCount = 0;
; 258  : 				// -----
; 259  : 				while(true)
; 260  : 				{
; 261  : 					Token = GetToken();

  00390	e8 00 00 00 00	 call	 ?GetToken@@YA?AW4SMDToken@@XZ ; GetToken

; 262  : 					// ----
; 263  : 					if( Token == NAME && !strcmp("end", TokenString) )

  00395	85 c0		 test	 eax, eax
  00397	75 37		 jne	 SHORT $LN115@LoadLuckyI@2
  00399	b9 00 00 00 00	 mov	 ecx, OFFSET _TokenString
  0039e	b8 00 00 00 00	 mov	 eax, OFFSET ??_C@_03JBJLGPFL@end?$AA@
$LL107@LoadLuckyI@2:
  003a3	8a 10		 mov	 dl, BYTE PTR [eax]
  003a5	3a 11		 cmp	 dl, BYTE PTR [ecx]
  003a7	75 1a		 jne	 SHORT $LN108@LoadLuckyI@2
  003a9	84 d2		 test	 dl, dl
  003ab	74 12		 je	 SHORT $LN122@LoadLuckyI@2
  003ad	8a 50 01	 mov	 dl, BYTE PTR [eax+1]
  003b0	3a 51 01	 cmp	 dl, BYTE PTR [ecx+1]
  003b3	75 0e		 jne	 SHORT $LN108@LoadLuckyI@2
  003b5	83 c0 02	 add	 eax, 2
  003b8	83 c1 02	 add	 ecx, 2
  003bb	84 d2		 test	 dl, dl
  003bd	75 e4		 jne	 SHORT $LL107@LoadLuckyI@2
$LN122@LoadLuckyI@2:
  003bf	33 c0		 xor	 eax, eax
  003c1	eb 05		 jmp	 SHORT $LN110@LoadLuckyI@2
$LN108@LoadLuckyI@2:
  003c3	1b c0		 sbb	 eax, eax
  003c5	83 d8 ff	 sbb	 eax, -1
$LN110@LoadLuckyI@2:
  003c8	85 c0		 test	 eax, eax
  003ca	0f 84 d9 fd ff
	ff		 je	 $LN116@LoadLuckyI@2
$LN115@LoadLuckyI@2:

; 264  : 					{
; 265  : 						break;
; 266  : 					}
; 267  : 					// ----
; 268  : 					int iIndex = TokenNumber;

  003d0	d9 05 00 00 00
	00		 fld	 DWORD PTR _TokenNumber
  003d6	e8 00 00 00 00	 call	 __ftol2_sse

; 269  : 					// ----
; 270  : 					for( int i = 0; i < iTicketCount; i++ )

  003db	85 db		 test	 ebx, ebx
  003dd	7e b1		 jle	 SHORT $LL6@LoadLuckyI@2

; 264  : 					{
; 265  : 						break;
; 266  : 					}
; 267  : 					// ----
; 268  : 					int iIndex = TokenNumber;

  003df	8d 34 40	 lea	 esi, DWORD PTR [eax+eax*2]
  003e2	8d b4 b5 f8 f8
	ff ff		 lea	 esi, DWORD PTR _LuckyItemInfo$[ebp+esi*4+304]
  003e9	8b fb		 mov	 edi, ebx
  003eb	eb 03 8d 49 00	 npad	 5
$LL3@LoadLuckyI@2:

; 271  : 					{
; 272  : 						Token = GetToken();		

  003f0	e8 00 00 00 00	 call	 ?GetToken@@YA?AW4SMDToken@@XZ ; GetToken

; 273  : 						LuckyItemInfo[i].m_ItemSmeltRate[iIndex].MinDur		= TokenNumber;

  003f5	d9 05 00 00 00
	00		 fld	 DWORD PTR _TokenNumber
  003fb	e8 00 00 00 00	 call	 __ftol2_sse
  00400	89 46 fc	 mov	 DWORD PTR [esi-4], eax

; 274  : 						Token = GetToken();		

  00403	e8 00 00 00 00	 call	 ?GetToken@@YA?AW4SMDToken@@XZ ; GetToken

; 275  : 						LuckyItemInfo[i].m_ItemSmeltRate[iIndex].MaxDur		= TokenNumber;

  00408	d9 05 00 00 00
	00		 fld	 DWORD PTR _TokenNumber
  0040e	e8 00 00 00 00	 call	 __ftol2_sse
  00413	89 06		 mov	 DWORD PTR [esi], eax

; 276  : 						Token = GetToken();		

  00415	e8 00 00 00 00	 call	 ?GetToken@@YA?AW4SMDToken@@XZ ; GetToken

; 277  : 						LuckyItemInfo[i].m_ItemSmeltRate[iIndex].SmeltRate	= TokenNumber;

  0041a	d9 05 00 00 00
	00		 fld	 DWORD PTR _TokenNumber
  00420	e8 00 00 00 00	 call	 __ftol2_sse
  00425	89 46 04	 mov	 DWORD PTR [esi+4], eax
  00428	81 c6 a4 01 00
	00		 add	 esi, 420		; 000001a4H
  0042e	4f		 dec	 edi
  0042f	75 bf		 jne	 SHORT $LL3@LoadLuckyI@2

; 278  : 					}
; 279  : 				}

  00431	e9 5a ff ff ff	 jmp	 $LL6@LoadLuckyI@2
$LN85@LoadLuckyI@2:

; 288  : }

  00436	8b 4d fc	 mov	 ecx, DWORD PTR __$ArrayPad$[ebp]
  00439	5f		 pop	 edi
  0043a	5b		 pop	 ebx
  0043b	33 cd		 xor	 ecx, ebp
  0043d	33 c0		 xor	 eax, eax
  0043f	5e		 pop	 esi
  00440	e8 00 00 00 00	 call	 @__security_check_cookie@4
  00445	8b e5		 mov	 esp, ebp
  00447	5d		 pop	 ebp
  00448	c2 04 00	 ret	 4
?LoadLuckyItemInfo@LuckyItemManager@@QAEHPAD@Z ENDP	; LuckyItemManager::LoadLuckyItemInfo
_TEXT	ENDS
PUBLIC	?GDReqLuckyItemInsert@LuckyItemManager@@QAEHPAVCItem@@H@Z ; LuckyItemManager::GDReqLuckyItemInsert
; Function compile flags: /Ogtp
;	COMDAT ?GDReqLuckyItemInsert@LuckyItemManager@@QAEHPAVCItem@@H@Z
_TEXT	SEGMENT
_pItem$ = 8						; size = 4
_iObjIndex$ = 12					; size = 4
?GDReqLuckyItemInsert@LuckyItemManager@@QAEHPAVCItem@@H@Z PROC ; LuckyItemManager::GDReqLuckyItemInsert, COMDAT
; _this$ = ecx

; 816  : {

  00000	55		 push	 ebp
  00001	8b ec		 mov	 ebp, esp

; 817  : 	WORD wItemCode			= pItem->m_Type;	//ebp-8

  00003	8b 45 08	 mov	 eax, DWORD PTR _pItem$[ebp]
  00006	0f b7 50 06	 movzx	 edx, WORD PTR [eax+6]
  0000a	56		 push	 esi

; 818  : 	long dwSerial			= pItem->m_serial;	//ebp-0c

  0000b	0f be 70 04	 movsx	 esi, BYTE PTR [eax+4]

; 819  : 	WORD wDurabilitySmall	= pItem->m_DurabilitySmall;	//ebp-10

  0000f	0f b7 40 28	 movzx	 eax, WORD PTR [eax+40]
  00013	57		 push	 edi

; 820  : 	// ----
; 821  : 	return this->GDReqLuckyItemInsert(wItemCode, dwSerial, wDurabilitySmall, iObjIndex);

  00014	8b 7d 0c	 mov	 edi, DWORD PTR _iObjIndex$[ebp]
  00017	57		 push	 edi
  00018	50		 push	 eax
  00019	56		 push	 esi
  0001a	52		 push	 edx
  0001b	e8 00 00 00 00	 call	 ?GDReqLuckyItemInsert@LuckyItemManager@@QAEHFJFH@Z ; LuckyItemManager::GDReqLuckyItemInsert
  00020	5f		 pop	 edi
  00021	5e		 pop	 esi

; 822  : }

  00022	5d		 pop	 ebp
  00023	c2 08 00	 ret	 8
?GDReqLuckyItemInsert@LuckyItemManager@@QAEHPAVCItem@@H@Z ENDP ; LuckyItemManager::GDReqLuckyItemInsert
_TEXT	ENDS
PUBLIC	?_Lmost@?$_Tree@V?$_Tmap_traits@HU_LUCKY_ITEM_INFO@@U?$less@H@std@@V?$allocator@U?$pair@$$CBHU_LUCKY_ITEM_INFO@@@std@@@3@$0A@@std@@@std@@IBEAAPAU_Node@?$_Tree_nod@V?$_Tmap_traits@HU_LUCKY_ITEM_INFO@@U?$less@H@std@@V?$allocator@U?$pair@$$CBHU_LUCKY_ITEM_INFO@@@std@@@3@$0A@@std@@@2@XZ ; std::_Tree<std::_Tmap_traits<int,_LUCKY_ITEM_INFO,std::less<int>,std::allocator<std::pair<int const ,_LUCKY_ITEM_INFO> >,0> >::_Lmost
; Function compile flags: /Ogtp
; File c:\program files (x86)\microsoft visual studio 10.0\vc\include\xtree
;	COMDAT ?_Lmost@?$_Tree@V?$_Tmap_traits@HU_LUCKY_ITEM_INFO@@U?$less@H@std@@V?$allocator@U?$pair@$$CBHU_LUCKY_ITEM_INFO@@@std@@@3@$0A@@std@@@std@@IBEAAPAU_Node@?$_Tree_nod@V?$_Tmap_traits@HU_LUCKY_ITEM_INFO@@U?$less@H@std@@V?$allocator@U?$pair@$$CBHU_LUCKY_ITEM_INFO@@@std@@@3@$0A@@std@@@2@XZ
_TEXT	SEGMENT
?_Lmost@?$_Tree@V?$_Tmap_traits@HU_LUCKY_ITEM_INFO@@U?$less@H@std@@V?$allocator@U?$pair@$$CBHU_LUCKY_ITEM_INFO@@@std@@@3@$0A@@std@@@std@@IBEAAPAU_Node@?$_Tree_nod@V?$_Tmap_traits@HU_LUCKY_ITEM_INFO@@U?$less@H@std@@V?$allocator@U?$pair@$$CBHU_LUCKY_ITEM_INFO@@@std@@@3@$0A@@std@@@2@XZ PROC ; std::_Tree<std::_Tmap_traits<int,_LUCKY_ITEM_INFO,std::less<int>,std::allocator<std::pair<int const ,_LUCKY_ITEM_INFO> >,0> >::_Lmost, COMDAT
; _this$ = ecx

; 1759 : 		return (this->_Left(this->_Myhead));

  00000	8b 41 04	 mov	 eax, DWORD PTR [ecx+4]

; 1760 : 		}

  00003	c3		 ret	 0
?_Lmost@?$_Tree@V?$_Tmap_traits@HU_LUCKY_ITEM_INFO@@U?$less@H@std@@V?$allocator@U?$pair@$$CBHU_LUCKY_ITEM_INFO@@@std@@@3@$0A@@std@@@std@@IBEAAPAU_Node@?$_Tree_nod@V?$_Tmap_traits@HU_LUCKY_ITEM_INFO@@U?$less@H@std@@V?$allocator@U?$pair@$$CBHU_LUCKY_ITEM_INFO@@@std@@@3@$0A@@std@@@2@XZ ENDP ; std::_Tree<std::_Tmap_traits<int,_LUCKY_ITEM_INFO,std::less<int>,std::allocator<std::pair<int const ,_LUCKY_ITEM_INFO> >,0> >::_Lmost
_TEXT	ENDS
PUBLIC	??1?$_Tree_val@V?$_Tmap_traits@HU_LUCKY_ITEM_INFO@@U?$less@H@std@@V?$allocator@U?$pair@$$CBHU_LUCKY_ITEM_INFO@@@std@@@3@$0A@@std@@@std@@QAE@XZ ; std::_Tree_val<std::_Tmap_traits<int,_LUCKY_ITEM_INFO,std::less<int>,std::allocator<std::pair<int const ,_LUCKY_ITEM_INFO> >,0> >::~_Tree_val<std::_Tmap_traits<int,_LUCKY_ITEM_INFO,std::less<int>,std::allocator<std::pair<int const ,_LUCKY_ITEM_INFO> >,0> >
; Function compile flags: /Ogtp
;	COMDAT ??1?$_Tree_val@V?$_Tmap_traits@HU_LUCKY_ITEM_INFO@@U?$less@H@std@@V?$allocator@U?$pair@$$CBHU_LUCKY_ITEM_INFO@@@std@@@3@$0A@@std@@@std@@QAE@XZ
_TEXT	SEGMENT
??1?$_Tree_val@V?$_Tmap_traits@HU_LUCKY_ITEM_INFO@@U?$less@H@std@@V?$allocator@U?$pair@$$CBHU_LUCKY_ITEM_INFO@@@std@@@3@$0A@@std@@@std@@QAE@XZ PROC ; std::_Tree_val<std::_Tmap_traits<int,_LUCKY_ITEM_INFO,std::less<int>,std::allocator<std::pair<int const ,_LUCKY_ITEM_INFO> >,0> >::~_Tree_val<std::_Tmap_traits<int,_LUCKY_ITEM_INFO,std::less<int>,std::allocator<std::pair<int const ,_LUCKY_ITEM_INFO> >,0> >, COMDAT
; _this$ = ecx

; 555  : 		this->_Alnod.deallocate(this->_Myhead, 1);

  00000	8b 41 04	 mov	 eax, DWORD PTR [ecx+4]
  00003	50		 push	 eax
  00004	e8 00 00 00 00	 call	 ??3@YAXPAX@Z		; operator delete
  00009	59		 pop	 ecx

; 556  : 		}

  0000a	c3		 ret	 0
??1?$_Tree_val@V?$_Tmap_traits@HU_LUCKY_ITEM_INFO@@U?$less@H@std@@V?$allocator@U?$pair@$$CBHU_LUCKY_ITEM_INFO@@@std@@@3@$0A@@std@@@std@@QAE@XZ ENDP ; std::_Tree_val<std::_Tmap_traits<int,_LUCKY_ITEM_INFO,std::less<int>,std::allocator<std::pair<int const ,_LUCKY_ITEM_INFO> >,0> >::~_Tree_val<std::_Tmap_traits<int,_LUCKY_ITEM_INFO,std::less<int>,std::allocator<std::pair<int const ,_LUCKY_ITEM_INFO> >,0> >
_TEXT	ENDS
PUBLIC	?_Key@?$_Tree_val@V?$_Tmap_traits@HU_LUCKY_ITEM_INFO@@U?$less@H@std@@V?$allocator@U?$pair@$$CBHU_LUCKY_ITEM_INFO@@@std@@@3@$0A@@std@@@std@@SAAAHPAU_Node@?$_Tree_nod@V?$_Tmap_traits@HU_LUCKY_ITEM_INFO@@U?$less@H@std@@V?$allocator@U?$pair@$$CBHU_LUCKY_ITEM_INFO@@@std@@@3@$0A@@std@@@2@@Z ; std::_Tree_val<std::_Tmap_traits<int,_LUCKY_ITEM_INFO,std::less<int>,std::allocator<std::pair<int const ,_LUCKY_ITEM_INFO> >,0> >::_Key
; Function compile flags: /Ogtp
;	COMDAT ?_Key@?$_Tree_val@V?$_Tmap_traits@HU_LUCKY_ITEM_INFO@@U?$less@H@std@@V?$allocator@U?$pair@$$CBHU_LUCKY_ITEM_INFO@@@std@@@3@$0A@@std@@@std@@SAAAHPAU_Node@?$_Tree_nod@V?$_Tmap_traits@HU_LUCKY_ITEM_INFO@@U?$less@H@std@@V?$allocator@U?$pair@$$CBHU_LUCKY_ITEM_INFO@@@std@@@3@$0A@@std@@@2@@Z
_TEXT	SEGMENT
__Pnode$ = 8						; size = 4
?_Key@?$_Tree_val@V?$_Tmap_traits@HU_LUCKY_ITEM_INFO@@U?$less@H@std@@V?$allocator@U?$pair@$$CBHU_LUCKY_ITEM_INFO@@@std@@@3@$0A@@std@@@std@@SAAAHPAU_Node@?$_Tree_nod@V?$_Tmap_traits@HU_LUCKY_ITEM_INFO@@U?$less@H@std@@V?$allocator@U?$pair@$$CBHU_LUCKY_ITEM_INFO@@@std@@@3@$0A@@std@@@2@@Z PROC ; std::_Tree_val<std::_Tmap_traits<int,_LUCKY_ITEM_INFO,std::less<int>,std::allocator<std::pair<int const ,_LUCKY_ITEM_INFO> >,0> >::_Key, COMDAT

; 616  : 		{	// return reference to key in node

  00000	55		 push	 ebp
  00001	8b ec		 mov	 ebp, esp

; 617  : 		return ((key_type&)_Traits::_Kfn(_Myval(_Pnode)));

  00003	8b 45 08	 mov	 eax, DWORD PTR __Pnode$[ebp]
  00006	83 c0 0c	 add	 eax, 12			; 0000000cH

; 618  : 		}

  00009	5d		 pop	 ebp
  0000a	c3		 ret	 0
?_Key@?$_Tree_val@V?$_Tmap_traits@HU_LUCKY_ITEM_INFO@@U?$less@H@std@@V?$allocator@U?$pair@$$CBHU_LUCKY_ITEM_INFO@@@std@@@3@$0A@@std@@@std@@SAAAHPAU_Node@?$_Tree_nod@V?$_Tmap_traits@HU_LUCKY_ITEM_INFO@@U?$less@H@std@@V?$allocator@U?$pair@$$CBHU_LUCKY_ITEM_INFO@@@std@@@3@$0A@@std@@@2@@Z ENDP ; std::_Tree_val<std::_Tmap_traits<int,_LUCKY_ITEM_INFO,std::less<int>,std::allocator<std::pair<int const ,_LUCKY_ITEM_INFO> >,0> >::_Key
_TEXT	ENDS
PUBLIC	??D?$_Tree_iterator@V?$_Tree_val@V?$_Tmap_traits@HU_LUCKY_ITEM_INFO@@U?$less@H@std@@V?$allocator@U?$pair@$$CBHU_LUCKY_ITEM_INFO@@@std@@@3@$0A@@std@@@std@@@std@@QBEAAU?$pair@$$CBHU_LUCKY_ITEM_INFO@@@1@XZ ; std::_Tree_iterator<std::_Tree_val<std::_Tmap_traits<int,_LUCKY_ITEM_INFO,std::less<int>,std::allocator<std::pair<int const ,_LUCKY_ITEM_INFO> >,0> > >::operator*
; Function compile flags: /Ogtp
;	COMDAT ??D?$_Tree_iterator@V?$_Tree_val@V?$_Tmap_traits@HU_LUCKY_ITEM_INFO@@U?$less@H@std@@V?$allocator@U?$pair@$$CBHU_LUCKY_ITEM_INFO@@@std@@@3@$0A@@std@@@std@@@std@@QBEAAU?$pair@$$CBHU_LUCKY_ITEM_INFO@@@1@XZ
_TEXT	SEGMENT
??D?$_Tree_iterator@V?$_Tree_val@V?$_Tmap_traits@HU_LUCKY_ITEM_INFO@@U?$less@H@std@@V?$allocator@U?$pair@$$CBHU_LUCKY_ITEM_INFO@@@std@@@3@$0A@@std@@@std@@@std@@QBEAAU?$pair@$$CBHU_LUCKY_ITEM_INFO@@@1@XZ PROC ; std::_Tree_iterator<std::_Tree_val<std::_Tmap_traits<int,_LUCKY_ITEM_INFO,std::less<int>,std::allocator<std::pair<int const ,_LUCKY_ITEM_INFO> >,0> > >::operator*, COMDAT
; _this$ = ecx

; 396  : 		return ((reference)**(_Mybase *)this);

  00000	8b 01		 mov	 eax, DWORD PTR [ecx]
  00002	83 c0 0c	 add	 eax, 12			; 0000000cH

; 397  : 		}

  00005	c3		 ret	 0
??D?$_Tree_iterator@V?$_Tree_val@V?$_Tmap_traits@HU_LUCKY_ITEM_INFO@@U?$less@H@std@@V?$allocator@U?$pair@$$CBHU_LUCKY_ITEM_INFO@@@std@@@3@$0A@@std@@@std@@@std@@QBEAAU?$pair@$$CBHU_LUCKY_ITEM_INFO@@@1@XZ ENDP ; std::_Tree_iterator<std::_Tree_val<std::_Tmap_traits<int,_LUCKY_ITEM_INFO,std::less<int>,std::allocator<std::pair<int const ,_LUCKY_ITEM_INFO> >,0> > >::operator*
_TEXT	ENDS
PUBLIC	?_Root@?$_Tree@V?$_Tmap_traits@HU_LUCKY_ITEM_INFO@@U?$less@H@std@@V?$allocator@U?$pair@$$CBHU_LUCKY_ITEM_INFO@@@std@@@3@$0A@@std@@@std@@IBEAAPAU_Node@?$_Tree_nod@V?$_Tmap_traits@HU_LUCKY_ITEM_INFO@@U?$less@H@std@@V?$allocator@U?$pair@$$CBHU_LUCKY_ITEM_INFO@@@std@@@3@$0A@@std@@@2@XZ ; std::_Tree<std::_Tmap_traits<int,_LUCKY_ITEM_INFO,std::less<int>,std::allocator<std::pair<int const ,_LUCKY_ITEM_INFO> >,0> >::_Root
; Function compile flags: /Ogtp
;	COMDAT ?_Root@?$_Tree@V?$_Tmap_traits@HU_LUCKY_ITEM_INFO@@U?$less@H@std@@V?$allocator@U?$pair@$$CBHU_LUCKY_ITEM_INFO@@@std@@@3@$0A@@std@@@std@@IBEAAPAU_Node@?$_Tree_nod@V?$_Tmap_traits@HU_LUCKY_ITEM_INFO@@U?$less@H@std@@V?$allocator@U?$pair@$$CBHU_LUCKY_ITEM_INFO@@@std@@@3@$0A@@std@@@2@XZ
_TEXT	SEGMENT
?_Root@?$_Tree@V?$_Tmap_traits@HU_LUCKY_ITEM_INFO@@U?$less@H@std@@V?$allocator@U?$pair@$$CBHU_LUCKY_ITEM_INFO@@@std@@@3@$0A@@std@@@std@@IBEAAPAU_Node@?$_Tree_nod@V?$_Tmap_traits@HU_LUCKY_ITEM_INFO@@U?$less@H@std@@V?$allocator@U?$pair@$$CBHU_LUCKY_ITEM_INFO@@@std@@@3@$0A@@std@@@2@XZ PROC ; std::_Tree<std::_Tmap_traits<int,_LUCKY_ITEM_INFO,std::less<int>,std::allocator<std::pair<int const ,_LUCKY_ITEM_INFO> >,0> >::_Root, COMDAT
; _this$ = ecx

; 1789 : 		return (this->_Parent(this->_Myhead));

  00000	8b 41 04	 mov	 eax, DWORD PTR [ecx+4]
  00003	83 c0 04	 add	 eax, 4

; 1790 : 		}

  00006	c3		 ret	 0
?_Root@?$_Tree@V?$_Tmap_traits@HU_LUCKY_ITEM_INFO@@U?$less@H@std@@V?$allocator@U?$pair@$$CBHU_LUCKY_ITEM_INFO@@@std@@@3@$0A@@std@@@std@@IBEAAPAU_Node@?$_Tree_nod@V?$_Tmap_traits@HU_LUCKY_ITEM_INFO@@U?$less@H@std@@V?$allocator@U?$pair@$$CBHU_LUCKY_ITEM_INFO@@@std@@@3@$0A@@std@@@2@XZ ENDP ; std::_Tree<std::_Tmap_traits<int,_LUCKY_ITEM_INFO,std::less<int>,std::allocator<std::pair<int const ,_LUCKY_ITEM_INFO> >,0> >::_Root
_TEXT	ENDS
PUBLIC	??0?$_Tree_nod@V?$_Tmap_traits@HU_LUCKY_ITEM_INFO@@U?$less@H@std@@V?$allocator@U?$pair@$$CBHU_LUCKY_ITEM_INFO@@@std@@@3@$0A@@std@@@std@@QAE@ABU?$less@H@1@V?$allocator@U?$pair@$$CBHU_LUCKY_ITEM_INFO@@@std@@@1@@Z ; std::_Tree_nod<std::_Tmap_traits<int,_LUCKY_ITEM_INFO,std::less<int>,std::allocator<std::pair<int const ,_LUCKY_ITEM_INFO> >,0> >::_Tree_nod<std::_Tmap_traits<int,_LUCKY_ITEM_INFO,std::less<int>,std::allocator<std::pair<int const ,_LUCKY_ITEM_INFO> >,0> >
; Function compile flags: /Ogtp
;	COMDAT ??0?$_Tree_nod@V?$_Tmap_traits@HU_LUCKY_ITEM_INFO@@U?$less@H@std@@V?$allocator@U?$pair@$$CBHU_LUCKY_ITEM_INFO@@@std@@@3@$0A@@std@@@std@@QAE@ABU?$less@H@1@V?$allocator@U?$pair@$$CBHU_LUCKY_ITEM_INFO@@@std@@@1@@Z
_TEXT	SEGMENT
__Parg$ = 8						; size = 4
__Al$ = 12						; size = 1
??0?$_Tree_nod@V?$_Tmap_traits@HU_LUCKY_ITEM_INFO@@U?$less@H@std@@V?$allocator@U?$pair@$$CBHU_LUCKY_ITEM_INFO@@@std@@@3@$0A@@std@@@std@@QAE@ABU?$less@H@1@V?$allocator@U?$pair@$$CBHU_LUCKY_ITEM_INFO@@@std@@@1@@Z PROC ; std::_Tree_nod<std::_Tmap_traits<int,_LUCKY_ITEM_INFO,std::less<int>,std::allocator<std::pair<int const ,_LUCKY_ITEM_INFO> >,0> >::_Tree_nod<std::_Tmap_traits<int,_LUCKY_ITEM_INFO,std::less<int>,std::allocator<std::pair<int const ,_LUCKY_ITEM_INFO> >,0> >, COMDAT
; _this$ = ecx

; 482  : 		{	// construct traits from _Parg and allocators from _Al

  00000	8b c1		 mov	 eax, ecx

; 483  : 		}

  00002	c2 08 00	 ret	 8
??0?$_Tree_nod@V?$_Tmap_traits@HU_LUCKY_ITEM_INFO@@U?$less@H@std@@V?$allocator@U?$pair@$$CBHU_LUCKY_ITEM_INFO@@@std@@@3@$0A@@std@@@std@@QAE@ABU?$less@H@1@V?$allocator@U?$pair@$$CBHU_LUCKY_ITEM_INFO@@@std@@@1@@Z ENDP ; std::_Tree_nod<std::_Tmap_traits<int,_LUCKY_ITEM_INFO,std::less<int>,std::allocator<std::pair<int const ,_LUCKY_ITEM_INFO> >,0> >::_Tree_nod<std::_Tmap_traits<int,_LUCKY_ITEM_INFO,std::less<int>,std::allocator<std::pair<int const ,_LUCKY_ITEM_INFO> >,0> >
_TEXT	ENDS
PUBLIC	??0?$_Tree_unchecked_const_iterator@V?$_Tree_val@V?$_Tmap_traits@HU_LUCKY_ITEM_INFO@@U?$less@H@std@@V?$allocator@U?$pair@$$CBHU_LUCKY_ITEM_INFO@@@std@@@3@$0A@@std@@@std@@U_Iterator_base0@2@@std@@QAE@PAU_Node@?$_Tree_nod@V?$_Tmap_traits@HU_LUCKY_ITEM_INFO@@U?$less@H@std@@V?$allocator@U?$pair@$$CBHU_LUCKY_ITEM_INFO@@@std@@@3@$0A@@std@@@1@PBV?$_Tree_val@V?$_Tmap_traits@HU_LUCKY_ITEM_INFO@@U?$less@H@std@@V?$allocator@U?$pair@$$CBHU_LUCKY_ITEM_INFO@@@std@@@3@$0A@@std@@@1@@Z ; std::_Tree_unchecked_const_iterator<std::_Tree_val<std::_Tmap_traits<int,_LUCKY_ITEM_INFO,std::less<int>,std::allocator<std::pair<int const ,_LUCKY_ITEM_INFO> >,0> >,std::_Iterator_base0>::_Tree_unchecked_const_iterator<std::_Tree_val<std::_Tmap_traits<int,_LUCKY_ITEM_INFO,std::less<int>,std::allocator<std::pair<int const ,_LUCKY_ITEM_INFO> >,0> >,std::_Iterator_base0>
; Function compile flags: /Ogtp
;	COMDAT ??0?$_Tree_unchecked_const_iterator@V?$_Tree_val@V?$_Tmap_traits@HU_LUCKY_ITEM_INFO@@U?$less@H@std@@V?$allocator@U?$pair@$$CBHU_LUCKY_ITEM_INFO@@@std@@@3@$0A@@std@@@std@@U_Iterator_base0@2@@std@@QAE@PAU_Node@?$_Tree_nod@V?$_Tmap_traits@HU_LUCKY_ITEM_INFO@@U?$less@H@std@@V?$allocator@U?$pair@$$CBHU_LUCKY_ITEM_INFO@@@std@@@3@$0A@@std@@@1@PBV?$_Tree_val@V?$_Tmap_traits@HU_LUCKY_ITEM_INFO@@U?$less@H@std@@V?$allocator@U?$pair@$$CBHU_LUCKY_ITEM_INFO@@@std@@@3@$0A@@std@@@1@@Z
_TEXT	SEGMENT
__Pnode$ = 8						; size = 4
__Plist$ = 12						; size = 4
??0?$_Tree_unchecked_const_iterator@V?$_Tree_val@V?$_Tmap_traits@HU_LUCKY_ITEM_INFO@@U?$less@H@std@@V?$allocator@U?$pair@$$CBHU_LUCKY_ITEM_INFO@@@std@@@3@$0A@@std@@@std@@U_Iterator_base0@2@@std@@QAE@PAU_Node@?$_Tree_nod@V?$_Tmap_traits@HU_LUCKY_ITEM_INFO@@U?$less@H@std@@V?$allocator@U?$pair@$$CBHU_LUCKY_ITEM_INFO@@@std@@@3@$0A@@std@@@1@PBV?$_Tree_val@V?$_Tmap_traits@HU_LUCKY_ITEM_INFO@@U?$less@H@std@@V?$allocator@U?$pair@$$CBHU_LUCKY_ITEM_INFO@@@std@@@3@$0A@@std@@@1@@Z PROC ; std::_Tree_unchecked_const_iterator<std::_Tree_val<std::_Tmap_traits<int,_LUCKY_ITEM_INFO,std::less<int>,std::allocator<std::pair<int const ,_LUCKY_ITEM_INFO> >,0> >,std::_Iterator_base0>::_Tree_unchecked_const_iterator<std::_Tree_val<std::_Tmap_traits<int,_LUCKY_ITEM_INFO,std::less<int>,std::allocator<std::pair<int const ,_LUCKY_ITEM_INFO> >,0> >,std::_Iterator_base0>, COMDAT
; _this$ = ecx

; 43   : 		{	// construct with node pointer _Pnode

  00000	55		 push	 ebp
  00001	8b ec		 mov	 ebp, esp
  00003	8b c1		 mov	 eax, ecx
  00005	8b 4d 08	 mov	 ecx, DWORD PTR __Pnode$[ebp]
  00008	89 08		 mov	 DWORD PTR [eax], ecx

; 44   : 		this->_Adopt(_Plist);
; 45   : 		}

  0000a	5d		 pop	 ebp
  0000b	c2 08 00	 ret	 8
??0?$_Tree_unchecked_const_iterator@V?$_Tree_val@V?$_Tmap_traits@HU_LUCKY_ITEM_INFO@@U?$less@H@std@@V?$allocator@U?$pair@$$CBHU_LUCKY_ITEM_INFO@@@std@@@3@$0A@@std@@@std@@U_Iterator_base0@2@@std@@QAE@PAU_Node@?$_Tree_nod@V?$_Tmap_traits@HU_LUCKY_ITEM_INFO@@U?$less@H@std@@V?$allocator@U?$pair@$$CBHU_LUCKY_ITEM_INFO@@@std@@@3@$0A@@std@@@1@PBV?$_Tree_val@V?$_Tmap_traits@HU_LUCKY_ITEM_INFO@@U?$less@H@std@@V?$allocator@U?$pair@$$CBHU_LUCKY_ITEM_INFO@@@std@@@3@$0A@@std@@@1@@Z ENDP ; std::_Tree_unchecked_const_iterator<std::_Tree_val<std::_Tmap_traits<int,_LUCKY_ITEM_INFO,std::less<int>,std::allocator<std::pair<int const ,_LUCKY_ITEM_INFO> >,0> >,std::_Iterator_base0>::_Tree_unchecked_const_iterator<std::_Tree_val<std::_Tmap_traits<int,_LUCKY_ITEM_INFO,std::less<int>,std::allocator<std::pair<int const ,_LUCKY_ITEM_INFO> >,0> >,std::_Iterator_base0>
_TEXT	ENDS
PUBLIC	??E?$_Tree_unchecked_const_iterator@V?$_Tree_val@V?$_Tmap_traits@HU_LUCKY_ITEM_INFO@@U?$less@H@std@@V?$allocator@U?$pair@$$CBHU_LUCKY_ITEM_INFO@@@std@@@3@$0A@@std@@@std@@U_Iterator_base0@2@@std@@QAEAAV01@XZ ; std::_Tree_unchecked_const_iterator<std::_Tree_val<std::_Tmap_traits<int,_LUCKY_ITEM_INFO,std::less<int>,std::allocator<std::pair<int const ,_LUCKY_ITEM_INFO> >,0> >,std::_Iterator_base0>::operator++
; Function compile flags: /Ogtp
;	COMDAT ??E?$_Tree_unchecked_const_iterator@V?$_Tree_val@V?$_Tmap_traits@HU_LUCKY_ITEM_INFO@@U?$less@H@std@@V?$allocator@U?$pair@$$CBHU_LUCKY_ITEM_INFO@@@std@@@3@$0A@@std@@@std@@U_Iterator_base0@2@@std@@QAEAAV01@XZ
_TEXT	SEGMENT
??E?$_Tree_unchecked_const_iterator@V?$_Tree_val@V?$_Tmap_traits@HU_LUCKY_ITEM_INFO@@U?$less@H@std@@V?$allocator@U?$pair@$$CBHU_LUCKY_ITEM_INFO@@@std@@@3@$0A@@std@@@std@@U_Iterator_base0@2@@std@@QAEAAV01@XZ PROC ; std::_Tree_unchecked_const_iterator<std::_Tree_val<std::_Tmap_traits<int,_LUCKY_ITEM_INFO,std::less<int>,std::allocator<std::pair<int const ,_LUCKY_ITEM_INFO> >,0> >,std::_Iterator_base0>::operator++, COMDAT
; _this$ = ecx

; 58   : 		{	// preincrement

  00000	8b c1		 mov	 eax, ecx

; 59   : 		if (_Mytree::_Isnil(_Ptr))

  00002	8b 10		 mov	 edx, DWORD PTR [eax]
  00004	80 ba b5 01 00
	00 00		 cmp	 BYTE PTR [edx+437], 0
  0000b	75 4a		 jne	 SHORT $LN3@operator

; 60   : 			;	// end() shouldn't be incremented, don't move
; 61   : 		else if (!_Mytree::_Isnil(_Mytree::_Right(_Ptr)))

  0000d	8b 4a 08	 mov	 ecx, DWORD PTR [edx+8]
  00010	80 b9 b5 01 00
	00 00		 cmp	 BYTE PTR [ecx+437], 0
  00017	75 1b		 jne	 SHORT $LN34@operator

; 62   : 			_Ptr = _Mytree::_Min(
; 63   : 				_Mytree::_Right(_Ptr));	// ==> smallest of right subtree

  00019	8b 11		 mov	 edx, DWORD PTR [ecx]
  0001b	80 ba b5 01 00
	00 00		 cmp	 BYTE PTR [edx+437], 0
  00022	75 0d		 jne	 SHORT $LN17@operator
$LL18@operator:
  00024	8b ca		 mov	 ecx, edx
  00026	8b 11		 mov	 edx, DWORD PTR [ecx]
  00028	80 ba b5 01 00
	00 00		 cmp	 BYTE PTR [edx+437], 0
  0002f	74 f3		 je	 SHORT $LL18@operator
$LN17@operator:
  00031	89 08		 mov	 DWORD PTR [eax], ecx

; 71   : 			}
; 72   : 		return (*this);
; 73   : 		}

  00033	c3		 ret	 0
$LN34@operator:

; 64   : 		else
; 65   : 			{	// climb looking for right subtree
; 66   : 			_Nodeptr _Pnode;
; 67   : 			while (!_Mytree::_Isnil(_Pnode = _Mytree::_Parent(_Ptr))
; 68   : 				&& _Ptr == _Mytree::_Right(_Pnode))

  00034	8b 52 04	 mov	 edx, DWORD PTR [edx+4]
  00037	80 ba b5 01 00
	00 00		 cmp	 BYTE PTR [edx+437], 0
  0003e	75 15		 jne	 SHORT $LN1@operator
$LL2@operator:
  00040	8b 08		 mov	 ecx, DWORD PTR [eax]
  00042	3b 4a 08	 cmp	 ecx, DWORD PTR [edx+8]
  00045	75 0e		 jne	 SHORT $LN1@operator

; 69   : 				_Ptr = _Pnode;	// ==> parent while right subtree

  00047	89 10		 mov	 DWORD PTR [eax], edx
  00049	8b 52 04	 mov	 edx, DWORD PTR [edx+4]
  0004c	80 ba b5 01 00
	00 00		 cmp	 BYTE PTR [edx+437], 0
  00053	74 eb		 je	 SHORT $LL2@operator
$LN1@operator:

; 70   : 			_Ptr = _Pnode;	// ==> parent (head if end())

  00055	89 10		 mov	 DWORD PTR [eax], edx
$LN3@operator:

; 71   : 			}
; 72   : 		return (*this);
; 73   : 		}

  00057	c3		 ret	 0
??E?$_Tree_unchecked_const_iterator@V?$_Tree_val@V?$_Tmap_traits@HU_LUCKY_ITEM_INFO@@U?$less@H@std@@V?$allocator@U?$pair@$$CBHU_LUCKY_ITEM_INFO@@@std@@@3@$0A@@std@@@std@@U_Iterator_base0@2@@std@@QAEAAV01@XZ ENDP ; std::_Tree_unchecked_const_iterator<std::_Tree_val<std::_Tmap_traits<int,_LUCKY_ITEM_INFO,std::less<int>,std::allocator<std::pair<int const ,_LUCKY_ITEM_INFO> >,0> >,std::_Iterator_base0>::operator++
_TEXT	ENDS
PUBLIC	?_Lrotate@?$_Tree@V?$_Tmap_traits@HU_LUCKY_ITEM_INFO@@U?$less@H@std@@V?$allocator@U?$pair@$$CBHU_LUCKY_ITEM_INFO@@@std@@@3@$0A@@std@@@std@@IAEXPAU_Node@?$_Tree_nod@V?$_Tmap_traits@HU_LUCKY_ITEM_INFO@@U?$less@H@std@@V?$allocator@U?$pair@$$CBHU_LUCKY_ITEM_INFO@@@std@@@3@$0A@@std@@@2@@Z ; std::_Tree<std::_Tmap_traits<int,_LUCKY_ITEM_INFO,std::less<int>,std::allocator<std::pair<int const ,_LUCKY_ITEM_INFO> >,0> >::_Lrotate
; Function compile flags: /Ogtp
;	COMDAT ?_Lrotate@?$_Tree@V?$_Tmap_traits@HU_LUCKY_ITEM_INFO@@U?$less@H@std@@V?$allocator@U?$pair@$$CBHU_LUCKY_ITEM_INFO@@@std@@@3@$0A@@std@@@std@@IAEXPAU_Node@?$_Tree_nod@V?$_Tmap_traits@HU_LUCKY_ITEM_INFO@@U?$less@H@std@@V?$allocator@U?$pair@$$CBHU_LUCKY_ITEM_INFO@@@std@@@3@$0A@@std@@@2@@Z
_TEXT	SEGMENT
__Wherenode$ = 8					; size = 4
?_Lrotate@?$_Tree@V?$_Tmap_traits@HU_LUCKY_ITEM_INFO@@U?$less@H@std@@V?$allocator@U?$pair@$$CBHU_LUCKY_ITEM_INFO@@@std@@@3@$0A@@std@@@std@@IAEXPAU_Node@?$_Tree_nod@V?$_Tmap_traits@HU_LUCKY_ITEM_INFO@@U?$less@H@std@@V?$allocator@U?$pair@$$CBHU_LUCKY_ITEM_INFO@@@std@@@3@$0A@@std@@@2@@Z PROC ; std::_Tree<std::_Tmap_traits<int,_LUCKY_ITEM_INFO,std::less<int>,std::allocator<std::pair<int const ,_LUCKY_ITEM_INFO> >,0> >::_Lrotate, COMDAT
; _this$ = ecx

; 1763 : 		{	// promote right node to root of subtree

  00000	55		 push	 ebp
  00001	8b ec		 mov	 ebp, esp

; 1764 : 		_Nodeptr _Pnode = this->_Right(_Wherenode);

  00003	8b 55 08	 mov	 edx, DWORD PTR __Wherenode$[ebp]
  00006	8b 42 08	 mov	 eax, DWORD PTR [edx+8]
  00009	56		 push	 esi

; 1765 : 		this->_Right(_Wherenode) = this->_Left(_Pnode);

  0000a	8b 30		 mov	 esi, DWORD PTR [eax]
  0000c	89 72 08	 mov	 DWORD PTR [edx+8], esi

; 1766 : 
; 1767 : 		if (!this->_Isnil(this->_Left(_Pnode)))

  0000f	8b 30		 mov	 esi, DWORD PTR [eax]
  00011	80 be b5 01 00
	00 00		 cmp	 BYTE PTR [esi+437], 0
  00018	75 03		 jne	 SHORT $LN5@Lrotate

; 1768 : 			this->_Parent(this->_Left(_Pnode)) = _Wherenode;

  0001a	89 56 04	 mov	 DWORD PTR [esi+4], edx
$LN5@Lrotate:

; 1769 : 		this->_Parent(_Pnode) = this->_Parent(_Wherenode);

  0001d	8b 72 04	 mov	 esi, DWORD PTR [edx+4]
  00020	89 70 04	 mov	 DWORD PTR [eax+4], esi

; 1770 : 
; 1771 : 		if (_Wherenode == _Root())

  00023	8b 49 04	 mov	 ecx, DWORD PTR [ecx+4]
  00026	5e		 pop	 esi
  00027	3b 51 04	 cmp	 edx, DWORD PTR [ecx+4]
  0002a	75 0c		 jne	 SHORT $LN4@Lrotate

; 1772 : 			_Root() = _Pnode;

  0002c	89 41 04	 mov	 DWORD PTR [ecx+4], eax

; 1777 : 
; 1778 : 		this->_Left(_Pnode) = _Wherenode;

  0002f	89 10		 mov	 DWORD PTR [eax], edx

; 1779 : 		this->_Parent(_Wherenode) = _Pnode;

  00031	89 42 04	 mov	 DWORD PTR [edx+4], eax

; 1780 : 		}

  00034	5d		 pop	 ebp
  00035	c2 04 00	 ret	 4
$LN4@Lrotate:

; 1773 : 		else if (_Wherenode == this->_Left(this->_Parent(_Wherenode)))

  00038	8b 4a 04	 mov	 ecx, DWORD PTR [edx+4]
  0003b	3b 11		 cmp	 edx, DWORD PTR [ecx]
  0003d	75 0b		 jne	 SHORT $LN2@Lrotate

; 1774 : 			this->_Left(this->_Parent(_Wherenode)) = _Pnode;

  0003f	89 01		 mov	 DWORD PTR [ecx], eax

; 1777 : 
; 1778 : 		this->_Left(_Pnode) = _Wherenode;

  00041	89 10		 mov	 DWORD PTR [eax], edx

; 1779 : 		this->_Parent(_Wherenode) = _Pnode;

  00043	89 42 04	 mov	 DWORD PTR [edx+4], eax

; 1780 : 		}

  00046	5d		 pop	 ebp
  00047	c2 04 00	 ret	 4
$LN2@Lrotate:

; 1775 : 		else
; 1776 : 			this->_Right(this->_Parent(_Wherenode)) = _Pnode;

  0004a	89 41 08	 mov	 DWORD PTR [ecx+8], eax

; 1777 : 
; 1778 : 		this->_Left(_Pnode) = _Wherenode;

  0004d	89 10		 mov	 DWORD PTR [eax], edx

; 1779 : 		this->_Parent(_Wherenode) = _Pnode;

  0004f	89 42 04	 mov	 DWORD PTR [edx+4], eax

; 1780 : 		}

  00052	5d		 pop	 ebp
  00053	c2 04 00	 ret	 4
?_Lrotate@?$_Tree@V?$_Tmap_traits@HU_LUCKY_ITEM_INFO@@U?$less@H@std@@V?$allocator@U?$pair@$$CBHU_LUCKY_ITEM_INFO@@@std@@@3@$0A@@std@@@std@@IAEXPAU_Node@?$_Tree_nod@V?$_Tmap_traits@HU_LUCKY_ITEM_INFO@@U?$less@H@std@@V?$allocator@U?$pair@$$CBHU_LUCKY_ITEM_INFO@@@std@@@3@$0A@@std@@@2@@Z ENDP ; std::_Tree<std::_Tmap_traits<int,_LUCKY_ITEM_INFO,std::less<int>,std::allocator<std::pair<int const ,_LUCKY_ITEM_INFO> >,0> >::_Lrotate
_TEXT	ENDS
PUBLIC	?_Rrotate@?$_Tree@V?$_Tmap_traits@HU_LUCKY_ITEM_INFO@@U?$less@H@std@@V?$allocator@U?$pair@$$CBHU_LUCKY_ITEM_INFO@@@std@@@3@$0A@@std@@@std@@IAEXPAU_Node@?$_Tree_nod@V?$_Tmap_traits@HU_LUCKY_ITEM_INFO@@U?$less@H@std@@V?$allocator@U?$pair@$$CBHU_LUCKY_ITEM_INFO@@@std@@@3@$0A@@std@@@2@@Z ; std::_Tree<std::_Tmap_traits<int,_LUCKY_ITEM_INFO,std::less<int>,std::allocator<std::pair<int const ,_LUCKY_ITEM_INFO> >,0> >::_Rrotate
; Function compile flags: /Ogtp
;	COMDAT ?_Rrotate@?$_Tree@V?$_Tmap_traits@HU_LUCKY_ITEM_INFO@@U?$less@H@std@@V?$allocator@U?$pair@$$CBHU_LUCKY_ITEM_INFO@@@std@@@3@$0A@@std@@@std@@IAEXPAU_Node@?$_Tree_nod@V?$_Tmap_traits@HU_LUCKY_ITEM_INFO@@U?$less@H@std@@V?$allocator@U?$pair@$$CBHU_LUCKY_ITEM_INFO@@@std@@@3@$0A@@std@@@2@@Z
_TEXT	SEGMENT
__Wherenode$ = 8					; size = 4
?_Rrotate@?$_Tree@V?$_Tmap_traits@HU_LUCKY_ITEM_INFO@@U?$less@H@std@@V?$allocator@U?$pair@$$CBHU_LUCKY_ITEM_INFO@@@std@@@3@$0A@@std@@@std@@IAEXPAU_Node@?$_Tree_nod@V?$_Tmap_traits@HU_LUCKY_ITEM_INFO@@U?$less@H@std@@V?$allocator@U?$pair@$$CBHU_LUCKY_ITEM_INFO@@@std@@@3@$0A@@std@@@2@@Z PROC ; std::_Tree<std::_Tmap_traits<int,_LUCKY_ITEM_INFO,std::less<int>,std::allocator<std::pair<int const ,_LUCKY_ITEM_INFO> >,0> >::_Rrotate, COMDAT
; _this$ = ecx

; 1793 : 		{	// promote left node to root of subtree

  00000	55		 push	 ebp
  00001	8b ec		 mov	 ebp, esp

; 1794 : 		_Nodeptr _Pnode = this->_Left(_Wherenode);

  00003	8b 55 08	 mov	 edx, DWORD PTR __Wherenode$[ebp]
  00006	8b 02		 mov	 eax, DWORD PTR [edx]
  00008	56		 push	 esi

; 1795 : 		this->_Left(_Wherenode) = this->_Right(_Pnode);

  00009	8b 70 08	 mov	 esi, DWORD PTR [eax+8]
  0000c	89 32		 mov	 DWORD PTR [edx], esi

; 1796 : 
; 1797 : 		if (!this->_Isnil(this->_Right(_Pnode)))

  0000e	8b 70 08	 mov	 esi, DWORD PTR [eax+8]
  00011	80 be b5 01 00
	00 00		 cmp	 BYTE PTR [esi+437], 0
  00018	75 03		 jne	 SHORT $LN5@Rrotate

; 1798 : 			this->_Parent(this->_Right(_Pnode)) = _Wherenode;

  0001a	89 56 04	 mov	 DWORD PTR [esi+4], edx
$LN5@Rrotate:

; 1799 : 		this->_Parent(_Pnode) = this->_Parent(_Wherenode);

  0001d	8b 72 04	 mov	 esi, DWORD PTR [edx+4]
  00020	89 70 04	 mov	 DWORD PTR [eax+4], esi

; 1800 : 
; 1801 : 		if (_Wherenode == _Root())

  00023	8b 49 04	 mov	 ecx, DWORD PTR [ecx+4]
  00026	5e		 pop	 esi
  00027	3b 51 04	 cmp	 edx, DWORD PTR [ecx+4]
  0002a	75 0d		 jne	 SHORT $LN4@Rrotate

; 1802 : 			_Root() = _Pnode;

  0002c	89 41 04	 mov	 DWORD PTR [ecx+4], eax

; 1807 : 
; 1808 : 		this->_Right(_Pnode) = _Wherenode;

  0002f	89 50 08	 mov	 DWORD PTR [eax+8], edx

; 1809 : 		this->_Parent(_Wherenode) = _Pnode;

  00032	89 42 04	 mov	 DWORD PTR [edx+4], eax

; 1810 : 		}

  00035	5d		 pop	 ebp
  00036	c2 04 00	 ret	 4
$LN4@Rrotate:

; 1803 : 		else if (_Wherenode == this->_Right(this->_Parent(_Wherenode)))

  00039	8b 4a 04	 mov	 ecx, DWORD PTR [edx+4]
  0003c	3b 51 08	 cmp	 edx, DWORD PTR [ecx+8]
  0003f	75 0d		 jne	 SHORT $LN2@Rrotate

; 1804 : 			this->_Right(this->_Parent(_Wherenode)) = _Pnode;

  00041	89 41 08	 mov	 DWORD PTR [ecx+8], eax

; 1807 : 
; 1808 : 		this->_Right(_Pnode) = _Wherenode;

  00044	89 50 08	 mov	 DWORD PTR [eax+8], edx

; 1809 : 		this->_Parent(_Wherenode) = _Pnode;

  00047	89 42 04	 mov	 DWORD PTR [edx+4], eax

; 1810 : 		}

  0004a	5d		 pop	 ebp
  0004b	c2 04 00	 ret	 4
$LN2@Rrotate:

; 1805 : 		else
; 1806 : 			this->_Left(this->_Parent(_Wherenode)) = _Pnode;

  0004e	89 01		 mov	 DWORD PTR [ecx], eax

; 1807 : 
; 1808 : 		this->_Right(_Pnode) = _Wherenode;

  00050	89 50 08	 mov	 DWORD PTR [eax+8], edx

; 1809 : 		this->_Parent(_Wherenode) = _Pnode;

  00053	89 42 04	 mov	 DWORD PTR [edx+4], eax

; 1810 : 		}

  00056	5d		 pop	 ebp
  00057	c2 04 00	 ret	 4
?_Rrotate@?$_Tree@V?$_Tmap_traits@HU_LUCKY_ITEM_INFO@@U?$less@H@std@@V?$allocator@U?$pair@$$CBHU_LUCKY_ITEM_INFO@@@std@@@3@$0A@@std@@@std@@IAEXPAU_Node@?$_Tree_nod@V?$_Tmap_traits@HU_LUCKY_ITEM_INFO@@U?$less@H@std@@V?$allocator@U?$pair@$$CBHU_LUCKY_ITEM_INFO@@@std@@@3@$0A@@std@@@2@@Z ENDP ; std::_Tree<std::_Tmap_traits<int,_LUCKY_ITEM_INFO,std::less<int>,std::allocator<std::pair<int const ,_LUCKY_ITEM_INFO> >,0> >::_Rrotate
_TEXT	ENDS
PUBLIC	??$swap@D@std@@YAXAAD0@Z			; std::swap<char>
; Function compile flags: /Ogtp
; File c:\program files (x86)\microsoft visual studio 10.0\vc\include\utility
;	COMDAT ??$swap@D@std@@YAXAAD0@Z
_TEXT	SEGMENT
__Left$ = 8						; size = 4
__Right$ = 12						; size = 4
??$swap@D@std@@YAXAAD0@Z PROC				; std::swap<char>, COMDAT

; 101  : 	{	// exchange values stored at _Left and _Right

  00000	55		 push	 ebp
  00001	8b ec		 mov	 ebp, esp

; 102  : 	_Ty _Tmp = _Move(_Left);

  00003	8b 45 08	 mov	 eax, DWORD PTR __Left$[ebp]
  00006	8a 08		 mov	 cl, BYTE PTR [eax]
  00008	56		 push	 esi

; 103  : 	_Left = _Move(_Right);

  00009	8b 75 0c	 mov	 esi, DWORD PTR __Right$[ebp]
  0000c	8a 16		 mov	 dl, BYTE PTR [esi]
  0000e	88 10		 mov	 BYTE PTR [eax], dl

; 104  : 	_Right = _Move(_Tmp);

  00010	88 0e		 mov	 BYTE PTR [esi], cl
  00012	5e		 pop	 esi

; 105  : 	}

  00013	5d		 pop	 ebp
  00014	c3		 ret	 0
??$swap@D@std@@YAXAAD0@Z ENDP				; std::swap<char>
_TEXT	ENDS
PUBLIC	__TI2?AVbad_alloc@std@@
PUBLIC	??$_Allocate@U_Node@?$_Tree_nod@V?$_Tmap_traits@HU_LUCKY_ITEM_INFO@@U?$less@H@std@@V?$allocator@U?$pair@$$CBHU_LUCKY_ITEM_INFO@@@std@@@3@$0A@@std@@@std@@@std@@YAPAU_Node@?$_Tree_nod@V?$_Tmap_traits@HU_LUCKY_ITEM_INFO@@U?$less@H@std@@V?$allocator@U?$pair@$$CBHU_LUCKY_ITEM_INFO@@@std@@@3@$0A@@std@@@0@IPAU120@@Z ; std::_Allocate<std::_Tree_nod<std::_Tmap_traits<int,_LUCKY_ITEM_INFO,std::less<int>,std::allocator<std::pair<int const ,_LUCKY_ITEM_INFO> >,0> >::_Node>
PUBLIC	__CTA2?AVbad_alloc@std@@
PUBLIC	__CT??_R0?AVbad_alloc@std@@@8??0bad_alloc@std@@QAE@ABV01@@Z12
PUBLIC	??0bad_alloc@std@@QAE@ABV01@@Z			; std::bad_alloc::bad_alloc
PUBLIC	__CT??_R0?AVexception@std@@@8??0exception@std@@QAE@ABV01@@Z12
EXTRN	??2@YAPAXI@Z:PROC				; operator new
EXTRN	__CxxThrowException@8:PROC
EXTRN	??0exception@std@@QAE@ABV01@@Z:PROC		; std::exception::exception
;	COMDAT __CT??_R0?AVexception@std@@@8??0exception@std@@QAE@ABV01@@Z12
; File c:\program files (x86)\microsoft visual studio 10.0\vc\include\exception
xdata$x	SEGMENT
__CT??_R0?AVexception@std@@@8??0exception@std@@QAE@ABV01@@Z12 DD 00H
	DD	FLAT:??_R0?AVexception@std@@@8
	DD	00H
	DD	0ffffffffH
	ORG $+4
	DD	0cH
	DD	FLAT:??0exception@std@@QAE@ABV01@@Z
xdata$x	ENDS
;	COMDAT __CT??_R0?AVbad_alloc@std@@@8??0bad_alloc@std@@QAE@ABV01@@Z12
xdata$x	SEGMENT
__CT??_R0?AVbad_alloc@std@@@8??0bad_alloc@std@@QAE@ABV01@@Z12 DD 00H
	DD	FLAT:??_R0?AVbad_alloc@std@@@8
	DD	00H
	DD	0ffffffffH
	ORG $+4
	DD	0cH
	DD	FLAT:??0bad_alloc@std@@QAE@ABV01@@Z
xdata$x	ENDS
;	COMDAT __CTA2?AVbad_alloc@std@@
xdata$x	SEGMENT
__CTA2?AVbad_alloc@std@@ DD 02H
	DD	FLAT:__CT??_R0?AVbad_alloc@std@@@8??0bad_alloc@std@@QAE@ABV01@@Z12
	DD	FLAT:__CT??_R0?AVexception@std@@@8??0exception@std@@QAE@ABV01@@Z12
xdata$x	ENDS
;	COMDAT __TI2?AVbad_alloc@std@@
xdata$x	SEGMENT
__TI2?AVbad_alloc@std@@ DD 00H
	DD	FLAT:??1bad_alloc@std@@UAE@XZ
	DD	00H
	DD	FLAT:__CTA2?AVbad_alloc@std@@
; Function compile flags: /Ogtp
; File c:\program files (x86)\microsoft visual studio 10.0\vc\include\xmemory
xdata$x	ENDS
;	COMDAT ??$_Allocate@U_Node@?$_Tree_nod@V?$_Tmap_traits@HU_LUCKY_ITEM_INFO@@U?$less@H@std@@V?$allocator@U?$pair@$$CBHU_LUCKY_ITEM_INFO@@@std@@@3@$0A@@std@@@std@@@std@@YAPAU_Node@?$_Tree_nod@V?$_Tmap_traits@HU_LUCKY_ITEM_INFO@@U?$less@H@std@@V?$allocator@U?$pair@$$CBHU_LUCKY_ITEM_INFO@@@std@@@3@$0A@@std@@@0@IPAU120@@Z
_TEXT	SEGMENT
$T185593 = -12						; size = 12
$T185598 = 8						; size = 4
__Count$ = 8						; size = 4
___formal$ = 12						; size = 4
??$_Allocate@U_Node@?$_Tree_nod@V?$_Tmap_traits@HU_LUCKY_ITEM_INFO@@U?$less@H@std@@V?$allocator@U?$pair@$$CBHU_LUCKY_ITEM_INFO@@@std@@@3@$0A@@std@@@std@@@std@@YAPAU_Node@?$_Tree_nod@V?$_Tmap_traits@HU_LUCKY_ITEM_INFO@@U?$less@H@std@@V?$allocator@U?$pair@$$CBHU_LUCKY_ITEM_INFO@@@std@@@3@$0A@@std@@@0@IPAU120@@Z PROC ; std::_Allocate<std::_Tree_nod<std::_Tmap_traits<int,_LUCKY_ITEM_INFO,std::less<int>,std::allocator<std::pair<int const ,_LUCKY_ITEM_INFO> >,0> >::_Node>, COMDAT

; 30   : 	{	// allocate storage for _Count elements of type _Ty

  00000	55		 push	 ebp
  00001	8b ec		 mov	 ebp, esp

; 31   : 	void *_Ptr = 0;
; 32   : 
; 33   : 	if (_Count <= 0)

  00003	8b 4d 08	 mov	 ecx, DWORD PTR __Count$[ebp]
  00006	83 ec 0c	 sub	 esp, 12			; 0000000cH
  00009	33 c0		 xor	 eax, eax
  0000b	85 c9		 test	 ecx, ecx

; 34   : 		_Count = 0;
; 35   : 	else if (((_SIZT)(-1) / sizeof (_Ty) < _Count)

  0000d	74 43		 je	 SHORT $LN5@Allocate

; 36   : 		|| (_Ptr = ::operator new(_Count * sizeof (_Ty))) == 0)

  0000f	81 f9 09 f2 94
	00		 cmp	 ecx, 9761289		; 0094f209H
  00015	77 13		 ja	 SHORT $LN1@Allocate
  00017	69 c9 b8 01 00
	00		 imul	 ecx, 440		; 000001b8H
  0001d	51		 push	 ecx
  0001e	e8 00 00 00 00	 call	 ??2@YAPAXI@Z		; operator new
  00023	83 c4 04	 add	 esp, 4
  00026	85 c0		 test	 eax, eax

; 38   : 
; 39   : 	return ((_Ty _FARQ *)_Ptr);

  00028	75 28		 jne	 SHORT $LN5@Allocate
$LN1@Allocate:

; 37   : 		_THROW_NCEE(bad_alloc, 0);

  0002a	8d 45 08	 lea	 eax, DWORD PTR $T185598[ebp]
  0002d	50		 push	 eax
  0002e	8d 4d f4	 lea	 ecx, DWORD PTR $T185593[ebp]
  00031	c7 45 08 00 00
	00 00		 mov	 DWORD PTR $T185598[ebp], 0
  00038	e8 00 00 00 00	 call	 ??0exception@std@@QAE@ABQBD@Z ; std::exception::exception
  0003d	68 00 00 00 00	 push	 OFFSET __TI2?AVbad_alloc@std@@
  00042	8d 4d f4	 lea	 ecx, DWORD PTR $T185593[ebp]
  00045	51		 push	 ecx
  00046	c7 45 f4 00 00
	00 00		 mov	 DWORD PTR $T185593[ebp], OFFSET ??_7bad_alloc@std@@6B@
  0004d	e8 00 00 00 00	 call	 __CxxThrowException@8
$LN10@Allocate:
$LN5@Allocate:

; 40   : 	}

  00052	8b e5		 mov	 esp, ebp
  00054	5d		 pop	 ebp
  00055	c3		 ret	 0
$LN9@Allocate:
??$_Allocate@U_Node@?$_Tree_nod@V?$_Tmap_traits@HU_LUCKY_ITEM_INFO@@U?$less@H@std@@V?$allocator@U?$pair@$$CBHU_LUCKY_ITEM_INFO@@@std@@@3@$0A@@std@@@std@@@std@@YAPAU_Node@?$_Tree_nod@V?$_Tmap_traits@HU_LUCKY_ITEM_INFO@@U?$less@H@std@@V?$allocator@U?$pair@$$CBHU_LUCKY_ITEM_INFO@@@std@@@3@$0A@@std@@@0@IPAU120@@Z ENDP ; std::_Allocate<std::_Tree_nod<std::_Tmap_traits<int,_LUCKY_ITEM_INFO,std::less<int>,std::allocator<std::pair<int const ,_LUCKY_ITEM_INFO> >,0> >::_Node>
; Function compile flags: /Ogtp
_TEXT	ENDS
;	COMDAT ??0bad_alloc@std@@QAE@ABV01@@Z
_TEXT	SEGMENT
___that$ = 8						; size = 4
??0bad_alloc@std@@QAE@ABV01@@Z PROC			; std::bad_alloc::bad_alloc, COMDAT
; _this$ = ecx
  00000	55		 push	 ebp
  00001	8b ec		 mov	 ebp, esp
  00003	8b 45 08	 mov	 eax, DWORD PTR ___that$[ebp]
  00006	56		 push	 esi
  00007	50		 push	 eax
  00008	8b f1		 mov	 esi, ecx
  0000a	e8 00 00 00 00	 call	 ??0exception@std@@QAE@ABV01@@Z ; std::exception::exception
  0000f	c7 06 00 00 00
	00		 mov	 DWORD PTR [esi], OFFSET ??_7bad_alloc@std@@6B@
  00015	8b c6		 mov	 eax, esi
  00017	5e		 pop	 esi
  00018	5d		 pop	 ebp
  00019	c2 04 00	 ret	 4
??0bad_alloc@std@@QAE@ABV01@@Z ENDP			; std::bad_alloc::bad_alloc
_TEXT	ENDS
PUBLIC	?destroy@?$allocator@U?$pair@$$CBHU_LUCKY_ITEM_INFO@@@std@@@std@@QAEXPAU?$pair@$$CBHU_LUCKY_ITEM_INFO@@@2@@Z ; std::allocator<std::pair<int const ,_LUCKY_ITEM_INFO> >::destroy
; Function compile flags: /Ogtp
;	COMDAT ?destroy@?$allocator@U?$pair@$$CBHU_LUCKY_ITEM_INFO@@@std@@@std@@QAEXPAU?$pair@$$CBHU_LUCKY_ITEM_INFO@@@2@@Z
_TEXT	SEGMENT
__Ptr$ = 8						; size = 4
?destroy@?$allocator@U?$pair@$$CBHU_LUCKY_ITEM_INFO@@@std@@@std@@QAEXPAU?$pair@$$CBHU_LUCKY_ITEM_INFO@@@2@@Z PROC ; std::allocator<std::pair<int const ,_LUCKY_ITEM_INFO> >::destroy, COMDAT
; _this$ = ecx

; 213  : 		_Destroy(_Ptr);
; 214  : 		}

  00000	c2 04 00	 ret	 4
?destroy@?$allocator@U?$pair@$$CBHU_LUCKY_ITEM_INFO@@@std@@@std@@QAEXPAU?$pair@$$CBHU_LUCKY_ITEM_INFO@@@2@@Z ENDP ; std::allocator<std::pair<int const ,_LUCKY_ITEM_INFO> >::destroy
_TEXT	ENDS
PUBLIC	??C?$_Tree_iterator@V?$_Tree_val@V?$_Tmap_traits@HU_LUCKY_ITEM_INFO@@U?$less@H@std@@V?$allocator@U?$pair@$$CBHU_LUCKY_ITEM_INFO@@@std@@@3@$0A@@std@@@std@@@std@@QBEPAU?$pair@$$CBHU_LUCKY_ITEM_INFO@@@1@XZ ; std::_Tree_iterator<std::_Tree_val<std::_Tmap_traits<int,_LUCKY_ITEM_INFO,std::less<int>,std::allocator<std::pair<int const ,_LUCKY_ITEM_INFO> >,0> > >::operator->
; Function compile flags: /Ogtp
; File c:\program files (x86)\microsoft visual studio 10.0\vc\include\xtree
;	COMDAT ??C?$_Tree_iterator@V?$_Tree_val@V?$_Tmap_traits@HU_LUCKY_ITEM_INFO@@U?$less@H@std@@V?$allocator@U?$pair@$$CBHU_LUCKY_ITEM_INFO@@@std@@@3@$0A@@std@@@std@@@std@@QBEPAU?$pair@$$CBHU_LUCKY_ITEM_INFO@@@1@XZ
_TEXT	SEGMENT
??C?$_Tree_iterator@V?$_Tree_val@V?$_Tmap_traits@HU_LUCKY_ITEM_INFO@@U?$less@H@std@@V?$allocator@U?$pair@$$CBHU_LUCKY_ITEM_INFO@@@std@@@3@$0A@@std@@@std@@@std@@QBEPAU?$pair@$$CBHU_LUCKY_ITEM_INFO@@@1@XZ PROC ; std::_Tree_iterator<std::_Tree_val<std::_Tmap_traits<int,_LUCKY_ITEM_INFO,std::less<int>,std::allocator<std::pair<int const ,_LUCKY_ITEM_INFO> >,0> > >::operator->, COMDAT
; _this$ = ecx

; 401  : 		return (&**this);

  00000	8b 01		 mov	 eax, DWORD PTR [ecx]
  00002	83 c0 0c	 add	 eax, 12			; 0000000cH

; 402  : 		}

  00005	c3		 ret	 0
??C?$_Tree_iterator@V?$_Tree_val@V?$_Tmap_traits@HU_LUCKY_ITEM_INFO@@U?$less@H@std@@V?$allocator@U?$pair@$$CBHU_LUCKY_ITEM_INFO@@@std@@@3@$0A@@std@@@std@@@std@@QBEPAU?$pair@$$CBHU_LUCKY_ITEM_INFO@@@1@XZ ENDP ; std::_Tree_iterator<std::_Tree_val<std::_Tmap_traits<int,_LUCKY_ITEM_INFO,std::less<int>,std::allocator<std::pair<int const ,_LUCKY_ITEM_INFO> >,0> > >::operator->
_TEXT	ENDS
PUBLIC	?_Lbound@?$_Tree@V?$_Tmap_traits@HU_LUCKY_ITEM_INFO@@U?$less@H@std@@V?$allocator@U?$pair@$$CBHU_LUCKY_ITEM_INFO@@@std@@@3@$0A@@std@@@std@@IAEPAU_Node@?$_Tree_nod@V?$_Tmap_traits@HU_LUCKY_ITEM_INFO@@U?$less@H@std@@V?$allocator@U?$pair@$$CBHU_LUCKY_ITEM_INFO@@@std@@@3@$0A@@std@@@2@ABH@Z ; std::_Tree<std::_Tmap_traits<int,_LUCKY_ITEM_INFO,std::less<int>,std::allocator<std::pair<int const ,_LUCKY_ITEM_INFO> >,0> >::_Lbound
; Function compile flags: /Ogtp
;	COMDAT ?_Lbound@?$_Tree@V?$_Tmap_traits@HU_LUCKY_ITEM_INFO@@U?$less@H@std@@V?$allocator@U?$pair@$$CBHU_LUCKY_ITEM_INFO@@@std@@@3@$0A@@std@@@std@@IAEPAU_Node@?$_Tree_nod@V?$_Tmap_traits@HU_LUCKY_ITEM_INFO@@U?$less@H@std@@V?$allocator@U?$pair@$$CBHU_LUCKY_ITEM_INFO@@@std@@@3@$0A@@std@@@2@ABH@Z
_TEXT	SEGMENT
__Keyval$ = 8						; size = 4
?_Lbound@?$_Tree@V?$_Tmap_traits@HU_LUCKY_ITEM_INFO@@U?$less@H@std@@V?$allocator@U?$pair@$$CBHU_LUCKY_ITEM_INFO@@@std@@@3@$0A@@std@@@std@@IAEPAU_Node@?$_Tree_nod@V?$_Tmap_traits@HU_LUCKY_ITEM_INFO@@U?$less@H@std@@V?$allocator@U?$pair@$$CBHU_LUCKY_ITEM_INFO@@@std@@@3@$0A@@std@@@2@ABH@Z PROC ; std::_Tree<std::_Tmap_traits<int,_LUCKY_ITEM_INFO,std::less<int>,std::allocator<std::pair<int const ,_LUCKY_ITEM_INFO> >,0> >::_Lbound, COMDAT
; _this$ = ecx

; 1741 : 		{	// find leftmost node not less than _Keyval

  00000	55		 push	 ebp
  00001	8b ec		 mov	 ebp, esp

; 1742 : 		_Nodeptr _Pnode = _Root();

  00003	8b 41 04	 mov	 eax, DWORD PTR [ecx+4]
  00006	8b 48 04	 mov	 ecx, DWORD PTR [eax+4]

; 1743 : 		_Nodeptr _Wherenode = this->_Myhead;	// end() if search fails
; 1744 : 
; 1745 : 		while (!this->_Isnil(_Pnode))

  00009	80 b9 b5 01 00
	00 00		 cmp	 BYTE PTR [ecx+437], 0
  00010	75 1c		 jne	 SHORT $LN3@Lbound
  00012	8b 55 08	 mov	 edx, DWORD PTR __Keyval$[ebp]
  00015	8b 12		 mov	 edx, DWORD PTR [edx]
$LL4@Lbound:

; 1746 : 			if (_DEBUG_LT_PRED(this->comp, this->_Key(_Pnode), _Keyval))

  00017	39 51 0c	 cmp	 DWORD PTR [ecx+12], edx
  0001a	7d 05		 jge	 SHORT $LN2@Lbound

; 1747 : 				_Pnode = this->_Right(_Pnode);	// descend right subtree

  0001c	8b 49 08	 mov	 ecx, DWORD PTR [ecx+8]

; 1748 : 			else

  0001f	eb 04		 jmp	 SHORT $LN1@Lbound
$LN2@Lbound:

; 1749 : 				{	// _Pnode not less than _Keyval, remember it
; 1750 : 				_Wherenode = _Pnode;

  00021	8b c1		 mov	 eax, ecx

; 1751 : 				_Pnode = this->_Left(_Pnode);	// descend left subtree

  00023	8b 09		 mov	 ecx, DWORD PTR [ecx]
$LN1@Lbound:

; 1743 : 		_Nodeptr _Wherenode = this->_Myhead;	// end() if search fails
; 1744 : 
; 1745 : 		while (!this->_Isnil(_Pnode))

  00025	80 b9 b5 01 00
	00 00		 cmp	 BYTE PTR [ecx+437], 0
  0002c	74 e9		 je	 SHORT $LL4@Lbound
$LN3@Lbound:

; 1752 : 				}
; 1753 : 
; 1754 : 		return (_Wherenode);	// return best remembered candidate
; 1755 : 		}

  0002e	5d		 pop	 ebp
  0002f	c2 04 00	 ret	 4
?_Lbound@?$_Tree@V?$_Tmap_traits@HU_LUCKY_ITEM_INFO@@U?$less@H@std@@V?$allocator@U?$pair@$$CBHU_LUCKY_ITEM_INFO@@@std@@@3@$0A@@std@@@std@@IAEPAU_Node@?$_Tree_nod@V?$_Tmap_traits@HU_LUCKY_ITEM_INFO@@U?$less@H@std@@V?$allocator@U?$pair@$$CBHU_LUCKY_ITEM_INFO@@@std@@@3@$0A@@std@@@2@ABH@Z ENDP ; std::_Tree<std::_Tmap_traits<int,_LUCKY_ITEM_INFO,std::less<int>,std::allocator<std::pair<int const ,_LUCKY_ITEM_INFO> >,0> >::_Lbound
_TEXT	ENDS
PUBLIC	??0?$_Tree_const_iterator@V?$_Tree_val@V?$_Tmap_traits@HU_LUCKY_ITEM_INFO@@U?$less@H@std@@V?$allocator@U?$pair@$$CBHU_LUCKY_ITEM_INFO@@@std@@@3@$0A@@std@@@std@@@std@@QAE@PAU_Node@?$_Tree_nod@V?$_Tmap_traits@HU_LUCKY_ITEM_INFO@@U?$less@H@std@@V?$allocator@U?$pair@$$CBHU_LUCKY_ITEM_INFO@@@std@@@3@$0A@@std@@@1@PBV?$_Tree_val@V?$_Tmap_traits@HU_LUCKY_ITEM_INFO@@U?$less@H@std@@V?$allocator@U?$pair@$$CBHU_LUCKY_ITEM_INFO@@@std@@@3@$0A@@std@@@1@@Z ; std::_Tree_const_iterator<std::_Tree_val<std::_Tmap_traits<int,_LUCKY_ITEM_INFO,std::less<int>,std::allocator<std::pair<int const ,_LUCKY_ITEM_INFO> >,0> > >::_Tree_const_iterator<std::_Tree_val<std::_Tmap_traits<int,_LUCKY_ITEM_INFO,std::less<int>,std::allocator<std::pair<int const ,_LUCKY_ITEM_INFO> >,0> > >
; Function compile flags: /Ogtp
;	COMDAT ??0?$_Tree_const_iterator@V?$_Tree_val@V?$_Tmap_traits@HU_LUCKY_ITEM_INFO@@U?$less@H@std@@V?$allocator@U?$pair@$$CBHU_LUCKY_ITEM_INFO@@@std@@@3@$0A@@std@@@std@@@std@@QAE@PAU_Node@?$_Tree_nod@V?$_Tmap_traits@HU_LUCKY_ITEM_INFO@@U?$less@H@std@@V?$allocator@U?$pair@$$CBHU_LUCKY_ITEM_INFO@@@std@@@3@$0A@@std@@@1@PBV?$_Tree_val@V?$_Tmap_traits@HU_LUCKY_ITEM_INFO@@U?$less@H@std@@V?$allocator@U?$pair@$$CBHU_LUCKY_ITEM_INFO@@@std@@@3@$0A@@std@@@1@@Z
_TEXT	SEGMENT
__Pnode$ = 8						; size = 4
__Plist$ = 12						; size = 4
??0?$_Tree_const_iterator@V?$_Tree_val@V?$_Tmap_traits@HU_LUCKY_ITEM_INFO@@U?$less@H@std@@V?$allocator@U?$pair@$$CBHU_LUCKY_ITEM_INFO@@@std@@@3@$0A@@std@@@std@@@std@@QAE@PAU_Node@?$_Tree_nod@V?$_Tmap_traits@HU_LUCKY_ITEM_INFO@@U?$less@H@std@@V?$allocator@U?$pair@$$CBHU_LUCKY_ITEM_INFO@@@std@@@3@$0A@@std@@@1@PBV?$_Tree_val@V?$_Tmap_traits@HU_LUCKY_ITEM_INFO@@U?$less@H@std@@V?$allocator@U?$pair@$$CBHU_LUCKY_ITEM_INFO@@@std@@@3@$0A@@std@@@1@@Z PROC ; std::_Tree_const_iterator<std::_Tree_val<std::_Tmap_traits<int,_LUCKY_ITEM_INFO,std::less<int>,std::allocator<std::pair<int const ,_LUCKY_ITEM_INFO> >,0> > >::_Tree_const_iterator<std::_Tree_val<std::_Tmap_traits<int,_LUCKY_ITEM_INFO,std::less<int>,std::allocator<std::pair<int const ,_LUCKY_ITEM_INFO> >,0> > >, COMDAT
; _this$ = ecx

; 213  : 		{	// construct with node pointer _Pnode

  00000	55		 push	 ebp
  00001	8b ec		 mov	 ebp, esp
  00003	8b c1		 mov	 eax, ecx
  00005	8b 4d 08	 mov	 ecx, DWORD PTR __Pnode$[ebp]
  00008	89 08		 mov	 DWORD PTR [eax], ecx

; 214  : 		}

  0000a	5d		 pop	 ebp
  0000b	c2 08 00	 ret	 8
??0?$_Tree_const_iterator@V?$_Tree_val@V?$_Tmap_traits@HU_LUCKY_ITEM_INFO@@U?$less@H@std@@V?$allocator@U?$pair@$$CBHU_LUCKY_ITEM_INFO@@@std@@@3@$0A@@std@@@std@@@std@@QAE@PAU_Node@?$_Tree_nod@V?$_Tmap_traits@HU_LUCKY_ITEM_INFO@@U?$less@H@std@@V?$allocator@U?$pair@$$CBHU_LUCKY_ITEM_INFO@@@std@@@3@$0A@@std@@@1@PBV?$_Tree_val@V?$_Tmap_traits@HU_LUCKY_ITEM_INFO@@U?$less@H@std@@V?$allocator@U?$pair@$$CBHU_LUCKY_ITEM_INFO@@@std@@@3@$0A@@std@@@1@@Z ENDP ; std::_Tree_const_iterator<std::_Tree_val<std::_Tmap_traits<int,_LUCKY_ITEM_INFO,std::less<int>,std::allocator<std::pair<int const ,_LUCKY_ITEM_INFO> >,0> > >::_Tree_const_iterator<std::_Tree_val<std::_Tmap_traits<int,_LUCKY_ITEM_INFO,std::less<int>,std::allocator<std::pair<int const ,_LUCKY_ITEM_INFO> >,0> > >
_TEXT	ENDS
PUBLIC	??E?$_Tree_const_iterator@V?$_Tree_val@V?$_Tmap_traits@HU_LUCKY_ITEM_INFO@@U?$less@H@std@@V?$allocator@U?$pair@$$CBHU_LUCKY_ITEM_INFO@@@std@@@3@$0A@@std@@@std@@@std@@QAEAAV01@XZ ; std::_Tree_const_iterator<std::_Tree_val<std::_Tmap_traits<int,_LUCKY_ITEM_INFO,std::less<int>,std::allocator<std::pair<int const ,_LUCKY_ITEM_INFO> >,0> > >::operator++
; Function compile flags: /Ogtp
;	COMDAT ??E?$_Tree_const_iterator@V?$_Tree_val@V?$_Tmap_traits@HU_LUCKY_ITEM_INFO@@U?$less@H@std@@V?$allocator@U?$pair@$$CBHU_LUCKY_ITEM_INFO@@@std@@@3@$0A@@std@@@std@@@std@@QAEAAV01@XZ
_TEXT	SEGMENT
??E?$_Tree_const_iterator@V?$_Tree_val@V?$_Tmap_traits@HU_LUCKY_ITEM_INFO@@U?$less@H@std@@V?$allocator@U?$pair@$$CBHU_LUCKY_ITEM_INFO@@@std@@@3@$0A@@std@@@std@@@std@@QAEAAV01@XZ PROC ; std::_Tree_const_iterator<std::_Tree_val<std::_Tmap_traits<int,_LUCKY_ITEM_INFO,std::less<int>,std::allocator<std::pair<int const ,_LUCKY_ITEM_INFO> >,0> > >::operator++, COMDAT
; _this$ = ecx

; 250  : 		{	// preincrement

  00000	56		 push	 esi
  00001	8b f1		 mov	 esi, ecx

; 251  :  #if _ITERATOR_DEBUG_LEVEL == 2
; 252  : 		if (this->_Getcont() == 0
; 253  : 			|| this->_Ptr == 0
; 254  : 			|| _Mytree::_Isnil(this->_Ptr))
; 255  : 			{	// report error
; 256  : 			_DEBUG_ERROR("map/set iterator not incrementable");
; 257  : 			_SCL_SECURE_OUT_OF_RANGE;
; 258  : 			}
; 259  : 
; 260  :  #elif _ITERATOR_DEBUG_LEVEL == 1
; 261  : 		_SCL_SECURE_VALIDATE(this->_Getcont() != 0 && this->_Ptr != 0);
; 262  : 		_SCL_SECURE_VALIDATE_RANGE(!_Mytree::_Isnil(this->_Ptr));
; 263  :  #endif /* _ITERATOR_DEBUG_LEVEL */
; 264  : 
; 265  : 		++(*(_Mybase *)this);

  00003	e8 00 00 00 00	 call	 ??E?$_Tree_unchecked_const_iterator@V?$_Tree_val@V?$_Tmap_traits@HU_LUCKY_ITEM_INFO@@U?$less@H@std@@V?$allocator@U?$pair@$$CBHU_LUCKY_ITEM_INFO@@@std@@@3@$0A@@std@@@std@@U_Iterator_base0@2@@std@@QAEAAV01@XZ ; std::_Tree_unchecked_const_iterator<std::_Tree_val<std::_Tmap_traits<int,_LUCKY_ITEM_INFO,std::less<int>,std::allocator<std::pair<int const ,_LUCKY_ITEM_INFO> >,0> >,std::_Iterator_base0>::operator++

; 266  : 		return (*this);

  00008	8b c6		 mov	 eax, esi
  0000a	5e		 pop	 esi

; 267  : 		}

  0000b	c3		 ret	 0
??E?$_Tree_const_iterator@V?$_Tree_val@V?$_Tmap_traits@HU_LUCKY_ITEM_INFO@@U?$less@H@std@@V?$allocator@U?$pair@$$CBHU_LUCKY_ITEM_INFO@@@std@@@3@$0A@@std@@@std@@@std@@QAEAAV01@XZ ENDP ; std::_Tree_const_iterator<std::_Tree_val<std::_Tmap_traits<int,_LUCKY_ITEM_INFO,std::less<int>,std::allocator<std::pair<int const ,_LUCKY_ITEM_INFO> >,0> > >::operator++
_TEXT	ENDS
PUBLIC	?allocate@?$allocator@U_Node@?$_Tree_nod@V?$_Tmap_traits@HU_LUCKY_ITEM_INFO@@U?$less@H@std@@V?$allocator@U?$pair@$$CBHU_LUCKY_ITEM_INFO@@@std@@@3@$0A@@std@@@std@@@std@@QAEPAU_Node@?$_Tree_nod@V?$_Tmap_traits@HU_LUCKY_ITEM_INFO@@U?$less@H@std@@V?$allocator@U?$pair@$$CBHU_LUCKY_ITEM_INFO@@@std@@@3@$0A@@std@@@2@I@Z ; std::allocator<std::_Tree_nod<std::_Tmap_traits<int,_LUCKY_ITEM_INFO,std::less<int>,std::allocator<std::pair<int const ,_LUCKY_ITEM_INFO> >,0> >::_Node>::allocate
; Function compile flags: /Ogtp
; File c:\program files (x86)\microsoft visual studio 10.0\vc\include\xmemory
;	COMDAT ?allocate@?$allocator@U_Node@?$_Tree_nod@V?$_Tmap_traits@HU_LUCKY_ITEM_INFO@@U?$less@H@std@@V?$allocator@U?$pair@$$CBHU_LUCKY_ITEM_INFO@@@std@@@3@$0A@@std@@@std@@@std@@QAEPAU_Node@?$_Tree_nod@V?$_Tmap_traits@HU_LUCKY_ITEM_INFO@@U?$less@H@std@@V?$allocator@U?$pair@$$CBHU_LUCKY_ITEM_INFO@@@std@@@3@$0A@@std@@@2@I@Z
_TEXT	SEGMENT
$T185687 = -12						; size = 12
$T185685 = 8						; size = 4
__Count$ = 8						; size = 4
?allocate@?$allocator@U_Node@?$_Tree_nod@V?$_Tmap_traits@HU_LUCKY_ITEM_INFO@@U?$less@H@std@@V?$allocator@U?$pair@$$CBHU_LUCKY_ITEM_INFO@@@std@@@3@$0A@@std@@@std@@@std@@QAEPAU_Node@?$_Tree_nod@V?$_Tmap_traits@HU_LUCKY_ITEM_INFO@@U?$less@H@std@@V?$allocator@U?$pair@$$CBHU_LUCKY_ITEM_INFO@@@std@@@3@$0A@@std@@@2@I@Z PROC ; std::allocator<std::_Tree_nod<std::_Tmap_traits<int,_LUCKY_ITEM_INFO,std::less<int>,std::allocator<std::pair<int const ,_LUCKY_ITEM_INFO> >,0> >::_Node>::allocate, COMDAT
; _this$ = ecx

; 186  : 		{	// allocate array of _Count elements

  00000	55		 push	 ebp
  00001	8b ec		 mov	 ebp, esp

; 187  : 		return (_Allocate(_Count, (pointer)0));

  00003	8b 4d 08	 mov	 ecx, DWORD PTR __Count$[ebp]
  00006	83 ec 0c	 sub	 esp, 12			; 0000000cH
  00009	33 c0		 xor	 eax, eax
  0000b	85 c9		 test	 ecx, ecx
  0000d	74 43		 je	 SHORT $LN1@allocate
  0000f	81 f9 09 f2 94
	00		 cmp	 ecx, 9761289		; 0094f209H
  00015	77 13		 ja	 SHORT $LN3@allocate
  00017	69 c9 b8 01 00
	00		 imul	 ecx, 440		; 000001b8H
  0001d	51		 push	 ecx
  0001e	e8 00 00 00 00	 call	 ??2@YAPAXI@Z		; operator new
  00023	83 c4 04	 add	 esp, 4
  00026	85 c0		 test	 eax, eax
  00028	75 28		 jne	 SHORT $LN1@allocate
$LN3@allocate:
  0002a	8d 45 08	 lea	 eax, DWORD PTR $T185685[ebp]
  0002d	50		 push	 eax
  0002e	8d 4d f4	 lea	 ecx, DWORD PTR $T185687[ebp]
  00031	c7 45 08 00 00
	00 00		 mov	 DWORD PTR $T185685[ebp], 0
  00038	e8 00 00 00 00	 call	 ??0exception@std@@QAE@ABQBD@Z ; std::exception::exception
  0003d	68 00 00 00 00	 push	 OFFSET __TI2?AVbad_alloc@std@@
  00042	8d 4d f4	 lea	 ecx, DWORD PTR $T185687[ebp]
  00045	51		 push	 ecx
  00046	c7 45 f4 00 00
	00 00		 mov	 DWORD PTR $T185687[ebp], OFFSET ??_7bad_alloc@std@@6B@
  0004d	e8 00 00 00 00	 call	 __CxxThrowException@8
$LN13@allocate:
$LN1@allocate:

; 188  : 		}

  00052	8b e5		 mov	 esp, ebp
  00054	5d		 pop	 ebp
  00055	c2 04 00	 ret	 4
$LN12@allocate:
?allocate@?$allocator@U_Node@?$_Tree_nod@V?$_Tmap_traits@HU_LUCKY_ITEM_INFO@@U?$less@H@std@@V?$allocator@U?$pair@$$CBHU_LUCKY_ITEM_INFO@@@std@@@3@$0A@@std@@@std@@@std@@QAEPAU_Node@?$_Tree_nod@V?$_Tmap_traits@HU_LUCKY_ITEM_INFO@@U?$less@H@std@@V?$allocator@U?$pair@$$CBHU_LUCKY_ITEM_INFO@@@std@@@3@$0A@@std@@@2@I@Z ENDP ; std::allocator<std::_Tree_nod<std::_Tmap_traits<int,_LUCKY_ITEM_INFO,std::less<int>,std::allocator<std::pair<int const ,_LUCKY_ITEM_INFO> >,0> >::_Node>::allocate
_TEXT	ENDS
PUBLIC	??E?$_Tree_const_iterator@V?$_Tree_val@V?$_Tmap_traits@HU_LUCKY_ITEM_INFO@@U?$less@H@std@@V?$allocator@U?$pair@$$CBHU_LUCKY_ITEM_INFO@@@std@@@3@$0A@@std@@@std@@@std@@QAE?AV01@H@Z ; std::_Tree_const_iterator<std::_Tree_val<std::_Tmap_traits<int,_LUCKY_ITEM_INFO,std::less<int>,std::allocator<std::pair<int const ,_LUCKY_ITEM_INFO> >,0> > >::operator++
; Function compile flags: /Ogtp
; File c:\program files (x86)\microsoft visual studio 10.0\vc\include\xtree
;	COMDAT ??E?$_Tree_const_iterator@V?$_Tree_val@V?$_Tmap_traits@HU_LUCKY_ITEM_INFO@@U?$less@H@std@@V?$allocator@U?$pair@$$CBHU_LUCKY_ITEM_INFO@@@std@@@3@$0A@@std@@@std@@@std@@QAE?AV01@H@Z
_TEXT	SEGMENT
___$ReturnUdt$ = 8					; size = 4
___formal$ = 12						; size = 4
??E?$_Tree_const_iterator@V?$_Tree_val@V?$_Tmap_traits@HU_LUCKY_ITEM_INFO@@U?$less@H@std@@V?$allocator@U?$pair@$$CBHU_LUCKY_ITEM_INFO@@@std@@@3@$0A@@std@@@std@@@std@@QAE?AV01@H@Z PROC ; std::_Tree_const_iterator<std::_Tree_val<std::_Tmap_traits<int,_LUCKY_ITEM_INFO,std::less<int>,std::allocator<std::pair<int const ,_LUCKY_ITEM_INFO> >,0> > >::operator++, COMDAT
; _this$ = ecx

; 270  : 		{	// postincrement

  00000	55		 push	 ebp
  00001	8b ec		 mov	 ebp, esp

; 271  : 		_Myiter _Tmp = *this;

  00003	8b 01		 mov	 eax, DWORD PTR [ecx]
  00005	56		 push	 esi
  00006	8b 75 08	 mov	 esi, DWORD PTR ___$ReturnUdt$[ebp]
  00009	89 06		 mov	 DWORD PTR [esi], eax

; 272  : 		++*this;

  0000b	e8 00 00 00 00	 call	 ??E?$_Tree_unchecked_const_iterator@V?$_Tree_val@V?$_Tmap_traits@HU_LUCKY_ITEM_INFO@@U?$less@H@std@@V?$allocator@U?$pair@$$CBHU_LUCKY_ITEM_INFO@@@std@@@3@$0A@@std@@@std@@U_Iterator_base0@2@@std@@QAEAAV01@XZ ; std::_Tree_unchecked_const_iterator<std::_Tree_val<std::_Tmap_traits<int,_LUCKY_ITEM_INFO,std::less<int>,std::allocator<std::pair<int const ,_LUCKY_ITEM_INFO> >,0> >,std::_Iterator_base0>::operator++

; 273  : 		return (_Tmp);

  00010	8b c6		 mov	 eax, esi
  00012	5e		 pop	 esi

; 274  : 		}

  00013	5d		 pop	 ebp
  00014	c2 08 00	 ret	 8
??E?$_Tree_const_iterator@V?$_Tree_val@V?$_Tmap_traits@HU_LUCKY_ITEM_INFO@@U?$less@H@std@@V?$allocator@U?$pair@$$CBHU_LUCKY_ITEM_INFO@@@std@@@3@$0A@@std@@@std@@@std@@QAE?AV01@H@Z ENDP ; std::_Tree_const_iterator<std::_Tree_val<std::_Tmap_traits<int,_LUCKY_ITEM_INFO,std::less<int>,std::allocator<std::pair<int const ,_LUCKY_ITEM_INFO> >,0> > >::operator++
_TEXT	ENDS
PUBLIC	??$_Dest_val@V?$allocator@U?$pair@$$CBHU_LUCKY_ITEM_INFO@@@std@@@std@@U?$pair@$$CBHU_LUCKY_ITEM_INFO@@@2@@std@@YAXAAV?$allocator@U?$pair@$$CBHU_LUCKY_ITEM_INFO@@@std@@@0@PAU?$pair@$$CBHU_LUCKY_ITEM_INFO@@@0@@Z ; std::_Dest_val<std::allocator<std::pair<int const ,_LUCKY_ITEM_INFO> >,std::pair<int const ,_LUCKY_ITEM_INFO> >
; Function compile flags: /Ogtp
; File c:\program files (x86)\microsoft visual studio 10.0\vc\include\xmemory
;	COMDAT ??$_Dest_val@V?$allocator@U?$pair@$$CBHU_LUCKY_ITEM_INFO@@@std@@@std@@U?$pair@$$CBHU_LUCKY_ITEM_INFO@@@2@@std@@YAXAAV?$allocator@U?$pair@$$CBHU_LUCKY_ITEM_INFO@@@std@@@0@PAU?$pair@$$CBHU_LUCKY_ITEM_INFO@@@0@@Z
_TEXT	SEGMENT
__Alval$ = 8						; size = 4
__Pdest$ = 12						; size = 4
??$_Dest_val@V?$allocator@U?$pair@$$CBHU_LUCKY_ITEM_INFO@@@std@@@std@@U?$pair@$$CBHU_LUCKY_ITEM_INFO@@@2@@std@@YAXAAV?$allocator@U?$pair@$$CBHU_LUCKY_ITEM_INFO@@@std@@@0@PAU?$pair@$$CBHU_LUCKY_ITEM_INFO@@@0@@Z PROC ; std::_Dest_val<std::allocator<std::pair<int const ,_LUCKY_ITEM_INFO> >,std::pair<int const ,_LUCKY_ITEM_INFO> >, COMDAT

; 287  : 	_Alval.destroy(_Pdest);
; 288  : 	}

  00000	c3		 ret	 0
??$_Dest_val@V?$allocator@U?$pair@$$CBHU_LUCKY_ITEM_INFO@@@std@@@std@@U?$pair@$$CBHU_LUCKY_ITEM_INFO@@@2@@std@@YAXAAV?$allocator@U?$pair@$$CBHU_LUCKY_ITEM_INFO@@@std@@@0@PAU?$pair@$$CBHU_LUCKY_ITEM_INFO@@@0@@Z ENDP ; std::_Dest_val<std::allocator<std::pair<int const ,_LUCKY_ITEM_INFO> >,std::pair<int const ,_LUCKY_ITEM_INFO> >
_TEXT	ENDS
PUBLIC	??0?$_Tree_iterator@V?$_Tree_val@V?$_Tmap_traits@HU_LUCKY_ITEM_INFO@@U?$less@H@std@@V?$allocator@U?$pair@$$CBHU_LUCKY_ITEM_INFO@@@std@@@3@$0A@@std@@@std@@@std@@QAE@PAU_Node@?$_Tree_nod@V?$_Tmap_traits@HU_LUCKY_ITEM_INFO@@U?$less@H@std@@V?$allocator@U?$pair@$$CBHU_LUCKY_ITEM_INFO@@@std@@@3@$0A@@std@@@1@PBV?$_Tree_val@V?$_Tmap_traits@HU_LUCKY_ITEM_INFO@@U?$less@H@std@@V?$allocator@U?$pair@$$CBHU_LUCKY_ITEM_INFO@@@std@@@3@$0A@@std@@@1@@Z ; std::_Tree_iterator<std::_Tree_val<std::_Tmap_traits<int,_LUCKY_ITEM_INFO,std::less<int>,std::allocator<std::pair<int const ,_LUCKY_ITEM_INFO> >,0> > >::_Tree_iterator<std::_Tree_val<std::_Tmap_traits<int,_LUCKY_ITEM_INFO,std::less<int>,std::allocator<std::pair<int const ,_LUCKY_ITEM_INFO> >,0> > >
; Function compile flags: /Ogtp
; File c:\program files (x86)\microsoft visual studio 10.0\vc\include\xtree
;	COMDAT ??0?$_Tree_iterator@V?$_Tree_val@V?$_Tmap_traits@HU_LUCKY_ITEM_INFO@@U?$less@H@std@@V?$allocator@U?$pair@$$CBHU_LUCKY_ITEM_INFO@@@std@@@3@$0A@@std@@@std@@@std@@QAE@PAU_Node@?$_Tree_nod@V?$_Tmap_traits@HU_LUCKY_ITEM_INFO@@U?$less@H@std@@V?$allocator@U?$pair@$$CBHU_LUCKY_ITEM_INFO@@@std@@@3@$0A@@std@@@1@PBV?$_Tree_val@V?$_Tmap_traits@HU_LUCKY_ITEM_INFO@@U?$less@H@std@@V?$allocator@U?$pair@$$CBHU_LUCKY_ITEM_INFO@@@std@@@3@$0A@@std@@@1@@Z
_TEXT	SEGMENT
__Pnode$ = 8						; size = 4
__Plist$ = 12						; size = 4
??0?$_Tree_iterator@V?$_Tree_val@V?$_Tmap_traits@HU_LUCKY_ITEM_INFO@@U?$less@H@std@@V?$allocator@U?$pair@$$CBHU_LUCKY_ITEM_INFO@@@std@@@3@$0A@@std@@@std@@@std@@QAE@PAU_Node@?$_Tree_nod@V?$_Tmap_traits@HU_LUCKY_ITEM_INFO@@U?$less@H@std@@V?$allocator@U?$pair@$$CBHU_LUCKY_ITEM_INFO@@@std@@@3@$0A@@std@@@1@PBV?$_Tree_val@V?$_Tmap_traits@HU_LUCKY_ITEM_INFO@@U?$less@H@std@@V?$allocator@U?$pair@$$CBHU_LUCKY_ITEM_INFO@@@std@@@3@$0A@@std@@@1@@Z PROC ; std::_Tree_iterator<std::_Tree_val<std::_Tmap_traits<int,_LUCKY_ITEM_INFO,std::less<int>,std::allocator<std::pair<int const ,_LUCKY_ITEM_INFO> >,0> > >::_Tree_iterator<std::_Tree_val<std::_Tmap_traits<int,_LUCKY_ITEM_INFO,std::less<int>,std::allocator<std::pair<int const ,_LUCKY_ITEM_INFO> >,0> > >, COMDAT
; _this$ = ecx

; 378  : 		{	// construct with node pointer _Pnode

  00000	55		 push	 ebp
  00001	8b ec		 mov	 ebp, esp
  00003	8b c1		 mov	 eax, ecx
  00005	8b 4d 08	 mov	 ecx, DWORD PTR __Pnode$[ebp]
  00008	89 08		 mov	 DWORD PTR [eax], ecx

; 379  : 		}

  0000a	5d		 pop	 ebp
  0000b	c2 08 00	 ret	 8
??0?$_Tree_iterator@V?$_Tree_val@V?$_Tmap_traits@HU_LUCKY_ITEM_INFO@@U?$less@H@std@@V?$allocator@U?$pair@$$CBHU_LUCKY_ITEM_INFO@@@std@@@3@$0A@@std@@@std@@@std@@QAE@PAU_Node@?$_Tree_nod@V?$_Tmap_traits@HU_LUCKY_ITEM_INFO@@U?$less@H@std@@V?$allocator@U?$pair@$$CBHU_LUCKY_ITEM_INFO@@@std@@@3@$0A@@std@@@1@PBV?$_Tree_val@V?$_Tmap_traits@HU_LUCKY_ITEM_INFO@@U?$less@H@std@@V?$allocator@U?$pair@$$CBHU_LUCKY_ITEM_INFO@@@std@@@3@$0A@@std@@@1@@Z ENDP ; std::_Tree_iterator<std::_Tree_val<std::_Tmap_traits<int,_LUCKY_ITEM_INFO,std::less<int>,std::allocator<std::pair<int const ,_LUCKY_ITEM_INFO> >,0> > >::_Tree_iterator<std::_Tree_val<std::_Tmap_traits<int,_LUCKY_ITEM_INFO,std::less<int>,std::allocator<std::pair<int const ,_LUCKY_ITEM_INFO> >,0> > >
_TEXT	ENDS
PUBLIC	??E?$_Tree_iterator@V?$_Tree_val@V?$_Tmap_traits@HU_LUCKY_ITEM_INFO@@U?$less@H@std@@V?$allocator@U?$pair@$$CBHU_LUCKY_ITEM_INFO@@@std@@@3@$0A@@std@@@std@@@std@@QAEAAV01@XZ ; std::_Tree_iterator<std::_Tree_val<std::_Tmap_traits<int,_LUCKY_ITEM_INFO,std::less<int>,std::allocator<std::pair<int const ,_LUCKY_ITEM_INFO> >,0> > >::operator++
; Function compile flags: /Ogtp
;	COMDAT ??E?$_Tree_iterator@V?$_Tree_val@V?$_Tmap_traits@HU_LUCKY_ITEM_INFO@@U?$less@H@std@@V?$allocator@U?$pair@$$CBHU_LUCKY_ITEM_INFO@@@std@@@3@$0A@@std@@@std@@@std@@QAEAAV01@XZ
_TEXT	SEGMENT
??E?$_Tree_iterator@V?$_Tree_val@V?$_Tmap_traits@HU_LUCKY_ITEM_INFO@@U?$less@H@std@@V?$allocator@U?$pair@$$CBHU_LUCKY_ITEM_INFO@@@std@@@3@$0A@@std@@@std@@@std@@QAEAAV01@XZ PROC ; std::_Tree_iterator<std::_Tree_val<std::_Tmap_traits<int,_LUCKY_ITEM_INFO,std::less<int>,std::allocator<std::pair<int const ,_LUCKY_ITEM_INFO> >,0> > >::operator++, COMDAT
; _this$ = ecx

; 405  : 		{	// preincrement

  00000	56		 push	 esi
  00001	8b f1		 mov	 esi, ecx

; 406  : 		++(*(_Mybase *)this);

  00003	e8 00 00 00 00	 call	 ??E?$_Tree_unchecked_const_iterator@V?$_Tree_val@V?$_Tmap_traits@HU_LUCKY_ITEM_INFO@@U?$less@H@std@@V?$allocator@U?$pair@$$CBHU_LUCKY_ITEM_INFO@@@std@@@3@$0A@@std@@@std@@U_Iterator_base0@2@@std@@QAEAAV01@XZ ; std::_Tree_unchecked_const_iterator<std::_Tree_val<std::_Tmap_traits<int,_LUCKY_ITEM_INFO,std::less<int>,std::allocator<std::pair<int const ,_LUCKY_ITEM_INFO> >,0> >,std::_Iterator_base0>::operator++

; 407  : 		return (*this);

  00008	8b c6		 mov	 eax, esi
  0000a	5e		 pop	 esi

; 408  : 		}

  0000b	c3		 ret	 0
??E?$_Tree_iterator@V?$_Tree_val@V?$_Tmap_traits@HU_LUCKY_ITEM_INFO@@U?$less@H@std@@V?$allocator@U?$pair@$$CBHU_LUCKY_ITEM_INFO@@@std@@@3@$0A@@std@@@std@@@std@@QAEAAV01@XZ ENDP ; std::_Tree_iterator<std::_Tree_val<std::_Tmap_traits<int,_LUCKY_ITEM_INFO,std::less<int>,std::allocator<std::pair<int const ,_LUCKY_ITEM_INFO> >,0> > >::operator++
_TEXT	ENDS
PUBLIC	??0?$_Tree_val@V?$_Tmap_traits@HU_LUCKY_ITEM_INFO@@U?$less@H@std@@V?$allocator@U?$pair@$$CBHU_LUCKY_ITEM_INFO@@@std@@@3@$0A@@std@@@std@@QAE@ABU?$less@H@1@V?$allocator@U?$pair@$$CBHU_LUCKY_ITEM_INFO@@@std@@@1@@Z ; std::_Tree_val<std::_Tmap_traits<int,_LUCKY_ITEM_INFO,std::less<int>,std::allocator<std::pair<int const ,_LUCKY_ITEM_INFO> >,0> >::_Tree_val<std::_Tmap_traits<int,_LUCKY_ITEM_INFO,std::less<int>,std::allocator<std::pair<int const ,_LUCKY_ITEM_INFO> >,0> >
; Function compile flags: /Ogtp
;	COMDAT ??0?$_Tree_val@V?$_Tmap_traits@HU_LUCKY_ITEM_INFO@@U?$less@H@std@@V?$allocator@U?$pair@$$CBHU_LUCKY_ITEM_INFO@@@std@@@3@$0A@@std@@@std@@QAE@ABU?$less@H@1@V?$allocator@U?$pair@$$CBHU_LUCKY_ITEM_INFO@@@std@@@1@@Z
_TEXT	SEGMENT
$T185781 = -16						; size = 12
$T185764 = -4						; size = 4
__Parg$ = 8						; size = 4
__Al$ = 12						; size = 1
??0?$_Tree_val@V?$_Tmap_traits@HU_LUCKY_ITEM_INFO@@U?$less@H@std@@V?$allocator@U?$pair@$$CBHU_LUCKY_ITEM_INFO@@@std@@@3@$0A@@std@@@std@@QAE@ABU?$less@H@1@V?$allocator@U?$pair@$$CBHU_LUCKY_ITEM_INFO@@@std@@@1@@Z PROC ; std::_Tree_val<std::_Tmap_traits<int,_LUCKY_ITEM_INFO,std::less<int>,std::allocator<std::pair<int const ,_LUCKY_ITEM_INFO> >,0> >::_Tree_val<std::_Tmap_traits<int,_LUCKY_ITEM_INFO,std::less<int>,std::allocator<std::pair<int const ,_LUCKY_ITEM_INFO> >,0> >, COMDAT
; _this$ = ecx

; 542  : 		{	// construct base, and allocator from _Al

  00000	55		 push	 ebp
  00001	8b ec		 mov	 ebp, esp
  00003	83 ec 10	 sub	 esp, 16			; 00000010H
  00006	56		 push	 esi
  00007	8b f1		 mov	 esi, ecx

; 543  : 		this->_Mysize = 0;
; 544  : 		this->_Myhead = this->_Alnod.allocate(1);

  00009	68 b8 01 00 00	 push	 440			; 000001b8H
  0000e	c7 46 08 00 00
	00 00		 mov	 DWORD PTR [esi+8], 0
  00015	e8 00 00 00 00	 call	 ??2@YAPAXI@Z		; operator new
  0001a	83 c4 04	 add	 esp, 4
  0001d	85 c0		 test	 eax, eax
  0001f	74 2e		 je	 SHORT $LN15@Tree_val
  00021	89 46 04	 mov	 DWORD PTR [esi+4], eax

; 545  : 
; 546  : 		this->_Left(this->_Myhead) = this->_Myhead;

  00024	89 00		 mov	 DWORD PTR [eax], eax

; 547  : 		this->_Parent(this->_Myhead) = this->_Myhead;

  00026	8b 46 04	 mov	 eax, DWORD PTR [esi+4]
  00029	89 40 04	 mov	 DWORD PTR [eax+4], eax

; 548  : 		this->_Right(this->_Myhead) = this->_Myhead;

  0002c	8b 46 04	 mov	 eax, DWORD PTR [esi+4]
  0002f	89 40 08	 mov	 DWORD PTR [eax+8], eax

; 549  : 		this->_Color(this->_Myhead) = this->_Black;

  00032	8b 4e 04	 mov	 ecx, DWORD PTR [esi+4]
  00035	b0 01		 mov	 al, 1
  00037	88 81 b4 01 00
	00		 mov	 BYTE PTR [ecx+436], al

; 550  : 		this->_Isnil(this->_Myhead) = true;

  0003d	8b 56 04	 mov	 edx, DWORD PTR [esi+4]
  00040	88 82 b5 01 00
	00		 mov	 BYTE PTR [edx+437], al

; 551  : 		}

  00046	8b c6		 mov	 eax, esi
  00048	5e		 pop	 esi
  00049	8b e5		 mov	 esp, ebp
  0004b	5d		 pop	 ebp
  0004c	c2 08 00	 ret	 8

; 543  : 		this->_Mysize = 0;
; 544  : 		this->_Myhead = this->_Alnod.allocate(1);

$LN15@Tree_val:
  0004f	8d 45 fc	 lea	 eax, DWORD PTR $T185764[ebp]
  00052	50		 push	 eax
  00053	8d 4d f0	 lea	 ecx, DWORD PTR $T185781[ebp]
  00056	c7 45 fc 00 00
	00 00		 mov	 DWORD PTR $T185764[ebp], 0
  0005d	e8 00 00 00 00	 call	 ??0exception@std@@QAE@ABQBD@Z ; std::exception::exception
  00062	68 00 00 00 00	 push	 OFFSET __TI2?AVbad_alloc@std@@
  00067	8d 4d f0	 lea	 ecx, DWORD PTR $T185781[ebp]
  0006a	51		 push	 ecx
  0006b	c7 45 f0 00 00
	00 00		 mov	 DWORD PTR $T185781[ebp], OFFSET ??_7bad_alloc@std@@6B@
  00072	e8 00 00 00 00	 call	 __CxxThrowException@8
$LN37@Tree_val:
$LN36@Tree_val:
  00077	cc		 int	 3
??0?$_Tree_val@V?$_Tmap_traits@HU_LUCKY_ITEM_INFO@@U?$less@H@std@@V?$allocator@U?$pair@$$CBHU_LUCKY_ITEM_INFO@@@std@@@3@$0A@@std@@@std@@QAE@ABU?$less@H@1@V?$allocator@U?$pair@$$CBHU_LUCKY_ITEM_INFO@@@std@@@1@@Z ENDP ; std::_Tree_val<std::_Tmap_traits<int,_LUCKY_ITEM_INFO,std::less<int>,std::allocator<std::pair<int const ,_LUCKY_ITEM_INFO> >,0> >::_Tree_val<std::_Tmap_traits<int,_LUCKY_ITEM_INFO,std::less<int>,std::allocator<std::pair<int const ,_LUCKY_ITEM_INFO> >,0> >
_TEXT	ENDS
PUBLIC	??_C@_0BM@PAPJHAGI@invalid?5map?1set?$DMT?$DO?5iterator?$AA@ ; `string'
PUBLIC	?erase@?$_Tree@V?$_Tmap_traits@HU_LUCKY_ITEM_INFO@@U?$less@H@std@@V?$allocator@U?$pair@$$CBHU_LUCKY_ITEM_INFO@@@std@@@3@$0A@@std@@@std@@QAE?AV?$_Tree_iterator@V?$_Tree_val@V?$_Tmap_traits@HU_LUCKY_ITEM_INFO@@U?$less@H@std@@V?$allocator@U?$pair@$$CBHU_LUCKY_ITEM_INFO@@@std@@@3@$0A@@std@@@std@@@2@V?$_Tree_const_iterator@V?$_Tree_val@V?$_Tmap_traits@HU_LUCKY_ITEM_INFO@@U?$less@H@std@@V?$allocator@U?$pair@$$CBHU_LUCKY_ITEM_INFO@@@std@@@3@$0A@@std@@@std@@@2@@Z ; std::_Tree<std::_Tmap_traits<int,_LUCKY_ITEM_INFO,std::less<int>,std::allocator<std::pair<int const ,_LUCKY_ITEM_INFO> >,0> >::erase
EXTRN	?_Xout_of_range@std@@YAXPBD@Z:PROC		; std::_Xout_of_range
;	COMDAT ??_C@_0BM@PAPJHAGI@invalid?5map?1set?$DMT?$DO?5iterator?$AA@
; File c:\program files (x86)\microsoft visual studio 10.0\vc\include\xutility
CONST	SEGMENT
??_C@_0BM@PAPJHAGI@invalid?5map?1set?$DMT?$DO?5iterator?$AA@ DB 'invalid '
	DB	'map/set<T> iterator', 00H			; `string'
; Function compile flags: /Ogtp
; File c:\program files (x86)\microsoft visual studio 10.0\vc\include\xtree
CONST	ENDS
;	COMDAT ?erase@?$_Tree@V?$_Tmap_traits@HU_LUCKY_ITEM_INFO@@U?$less@H@std@@V?$allocator@U?$pair@$$CBHU_LUCKY_ITEM_INFO@@@std@@@3@$0A@@std@@@std@@QAE?AV?$_Tree_iterator@V?$_Tree_val@V?$_Tmap_traits@HU_LUCKY_ITEM_INFO@@U?$less@H@std@@V?$allocator@U?$pair@$$CBHU_LUCKY_ITEM_INFO@@@std@@@3@$0A@@std@@@std@@@2@V?$_Tree_const_iterator@V?$_Tree_val@V?$_Tmap_traits@HU_LUCKY_ITEM_INFO@@U?$less@H@std@@V?$allocator@U?$pair@$$CBHU_LUCKY_ITEM_INFO@@@std@@@3@$0A@@std@@@std@@@2@@Z
_TEXT	SEGMENT
tv795 = -12						; size = 4
__Erasednode$ = -8					; size = 4
_this$ = -4						; size = 4
___$ReturnUdt$ = 8					; size = 4
__Where$ = 12						; size = 4
?erase@?$_Tree@V?$_Tmap_traits@HU_LUCKY_ITEM_INFO@@U?$less@H@std@@V?$allocator@U?$pair@$$CBHU_LUCKY_ITEM_INFO@@@std@@@3@$0A@@std@@@std@@QAE?AV?$_Tree_iterator@V?$_Tree_val@V?$_Tmap_traits@HU_LUCKY_ITEM_INFO@@U?$less@H@std@@V?$allocator@U?$pair@$$CBHU_LUCKY_ITEM_INFO@@@std@@@3@$0A@@std@@@std@@@2@V?$_Tree_const_iterator@V?$_Tree_val@V?$_Tmap_traits@HU_LUCKY_ITEM_INFO@@U?$less@H@std@@V?$allocator@U?$pair@$$CBHU_LUCKY_ITEM_INFO@@@std@@@3@$0A@@std@@@std@@@2@@Z PROC ; std::_Tree<std::_Tmap_traits<int,_LUCKY_ITEM_INFO,std::less<int>,std::allocator<std::pair<int const ,_LUCKY_ITEM_INFO> >,0> >::erase, COMDAT
; _this$ = ecx

; 1195 : 		{	// erase element at _Where

  00000	55		 push	 ebp
  00001	8b ec		 mov	 ebp, esp
  00003	83 ec 0c	 sub	 esp, 12			; 0000000cH
  00006	53		 push	 ebx

; 1196 :  #if _ITERATOR_DEBUG_LEVEL == 2
; 1197 : 		if (_Where._Getcont() != this || this->_Isnil(_Where._Mynode()))
; 1198 : 			_DEBUG_ERROR("map/set erase iterator outside range");
; 1199 : 		_Nodeptr _Erasednode = _Where._Mynode();	// node to erase
; 1200 : 		++_Where;	// save successor iterator for return
; 1201 : 		_Orphan_ptr(*this, _Erasednode);
; 1202 : 
; 1203 :  #else /* _ITERATOR_DEBUG_LEVEL == 2 */
; 1204 : 		if (this->_Isnil(_Where._Mynode()))

  00007	8b 5d 0c	 mov	 ebx, DWORD PTR __Where$[ebp]
  0000a	80 bb b5 01 00
	00 00		 cmp	 BYTE PTR [ebx+437], 0
  00011	56		 push	 esi
  00012	57		 push	 edi
  00013	89 4d fc	 mov	 DWORD PTR _this$[ebp], ecx
  00016	74 0a		 je	 SHORT $LN40@erase

; 1205 : 			_Xout_of_range("invalid map/set<T> iterator");

  00018	68 00 00 00 00	 push	 OFFSET ??_C@_0BM@PAPJHAGI@invalid?5map?1set?$DMT?$DO?5iterator?$AA@
  0001d	e8 00 00 00 00	 call	 ?_Xout_of_range@std@@YAXPBD@Z ; std::_Xout_of_range
$LN295@erase:
$LN40@erase:

; 1206 : 		_Nodeptr _Erasednode = _Where._Mynode();	// node to erase
; 1207 : 		++_Where;	// save successor iterator for return

  00022	8d 4d 0c	 lea	 ecx, DWORD PTR __Where$[ebp]
  00025	89 5d f8	 mov	 DWORD PTR __Erasednode$[ebp], ebx
  00028	e8 00 00 00 00	 call	 ??E?$_Tree_unchecked_const_iterator@V?$_Tree_val@V?$_Tmap_traits@HU_LUCKY_ITEM_INFO@@U?$less@H@std@@V?$allocator@U?$pair@$$CBHU_LUCKY_ITEM_INFO@@@std@@@3@$0A@@std@@@std@@U_Iterator_base0@2@@std@@QAEAAV01@XZ ; std::_Tree_unchecked_const_iterator<std::_Tree_val<std::_Tmap_traits<int,_LUCKY_ITEM_INFO,std::less<int>,std::allocator<std::pair<int const ,_LUCKY_ITEM_INFO> >,0> >,std::_Iterator_base0>::operator++

; 1208 :  #endif /* _ITERATOR_DEBUG_LEVEL == 2 */
; 1209 : 
; 1210 : 		_Nodeptr _Fixnode;	// the node to recolor as needed
; 1211 : 		_Nodeptr _Fixnodeparent;	// parent of _Fixnode (which may be nil)
; 1212 : 		_Nodeptr _Pnode = _Erasednode;
; 1213 : 
; 1214 : 		if (this->_Isnil(this->_Left(_Pnode)))

  0002d	8b 0b		 mov	 ecx, DWORD PTR [ebx]
  0002f	80 b9 b5 01 00
	00 00		 cmp	 BYTE PTR [ecx+437], 0
  00036	74 05		 je	 SHORT $LN39@erase

; 1215 : 			_Fixnode = this->_Right(_Pnode);	// stitch up right subtree

  00038	8b 7b 08	 mov	 edi, DWORD PTR [ebx+8]

; 1216 : 		else if (this->_Isnil(this->_Right(_Pnode)))

  0003b	eb 1a		 jmp	 SHORT $LN291@erase
$LN39@erase:
  0003d	8b 43 08	 mov	 eax, DWORD PTR [ebx+8]
  00040	80 b8 b5 01 00
	00 00		 cmp	 BYTE PTR [eax+437], 0
  00047	74 04		 je	 SHORT $LN37@erase

; 1217 : 			_Fixnode = this->_Left(_Pnode);	// stitch up left subtree

  00049	8b f9		 mov	 edi, ecx

; 1218 : 		else

  0004b	eb 0a		 jmp	 SHORT $LN291@erase
$LN37@erase:

; 1219 : 			{	// two subtrees, must lift successor node to replace erased
; 1220 : 			_Pnode = _Where._Mynode();	// _Pnode is successor node

  0004d	8b 45 0c	 mov	 eax, DWORD PTR __Where$[ebp]

; 1221 : 			_Fixnode = this->_Right(_Pnode);	// _Fixnode is only subtree

  00050	8b 78 08	 mov	 edi, DWORD PTR [eax+8]

; 1222 : 			}
; 1223 : 
; 1224 : 		if (_Pnode == _Erasednode)

  00053	3b c3		 cmp	 eax, ebx
  00055	75 7f		 jne	 SHORT $LN35@erase
$LN291@erase:

; 1225 : 			{	// at most one subtree, relink it
; 1226 : 			_Fixnodeparent = this->_Parent(_Erasednode);
; 1227 : 			if (!this->_Isnil(_Fixnode))

  00057	80 bf b5 01 00
	00 00		 cmp	 BYTE PTR [edi+437], 0
  0005e	8b 73 04	 mov	 esi, DWORD PTR [ebx+4]
  00061	75 03		 jne	 SHORT $LN34@erase

; 1228 : 				this->_Parent(_Fixnode) = _Fixnodeparent;	// link up

  00063	89 77 04	 mov	 DWORD PTR [edi+4], esi
$LN34@erase:

; 1229 : 
; 1230 : 			if (_Root() == _Erasednode)

  00066	8b 4d fc	 mov	 ecx, DWORD PTR _this$[ebp]
  00069	8b 41 04	 mov	 eax, DWORD PTR [ecx+4]
  0006c	39 58 04	 cmp	 DWORD PTR [eax+4], ebx
  0006f	75 05		 jne	 SHORT $LN33@erase

; 1231 : 				_Root() = _Fixnode;	// link down from root

  00071	89 78 04	 mov	 DWORD PTR [eax+4], edi

; 1232 : 			else if (this->_Left(_Fixnodeparent) == _Erasednode)

  00074	eb 0b		 jmp	 SHORT $LN30@erase
$LN33@erase:
  00076	39 1e		 cmp	 DWORD PTR [esi], ebx
  00078	75 04		 jne	 SHORT $LN31@erase

; 1233 : 				this->_Left(_Fixnodeparent) = _Fixnode;	// link down to left

  0007a	89 3e		 mov	 DWORD PTR [esi], edi

; 1234 : 			else

  0007c	eb 03		 jmp	 SHORT $LN30@erase
$LN31@erase:

; 1235 : 				this->_Right(_Fixnodeparent) =
; 1236 : 					_Fixnode;	// link down to right

  0007e	89 7e 08	 mov	 DWORD PTR [esi+8], edi
$LN30@erase:

; 1237 : 
; 1238 : 			if (_Lmost() == _Erasednode)

  00081	8b 41 04	 mov	 eax, DWORD PTR [ecx+4]
  00084	39 18		 cmp	 DWORD PTR [eax], ebx
  00086	75 1e		 jne	 SHORT $LN29@erase

; 1239 : 				_Lmost() = this->_Isnil(_Fixnode)
; 1240 : 					? _Fixnodeparent	// smallest is parent of erased node
; 1241 : 					: this->_Min(_Fixnode);	// smallest in relinked subtree

  00088	80 bf b5 01 00
	00 00		 cmp	 BYTE PTR [edi+437], 0
  0008f	74 04		 je	 SHORT $LN43@erase
  00091	8b c6		 mov	 eax, esi
  00093	eb 0c		 jmp	 SHORT $LN44@erase
$LN43@erase:
  00095	57		 push	 edi
  00096	e8 00 00 00 00	 call	 ?_Min@?$_Tree_val@V?$_Tmap_traits@HU_LUCKY_ITEM_INFO@@U?$less@H@std@@V?$allocator@U?$pair@$$CBHU_LUCKY_ITEM_INFO@@@std@@@3@$0A@@std@@@std@@SAPAU_Node@?$_Tree_nod@V?$_Tmap_traits@HU_LUCKY_ITEM_INFO@@U?$less@H@std@@V?$allocator@U?$pair@$$CBHU_LUCKY_ITEM_INFO@@@std@@@3@$0A@@std@@@2@PAU342@@Z ; std::_Tree_val<std::_Tmap_traits<int,_LUCKY_ITEM_INFO,std::less<int>,std::allocator<std::pair<int const ,_LUCKY_ITEM_INFO> >,0> >::_Min
  0009b	8b 4d fc	 mov	 ecx, DWORD PTR _this$[ebp]
  0009e	83 c4 04	 add	 esp, 4
$LN44@erase:
  000a1	8b 51 04	 mov	 edx, DWORD PTR [ecx+4]
  000a4	89 02		 mov	 DWORD PTR [edx], eax
$LN29@erase:

; 1242 : 
; 1243 : 			if (_Rmost() == _Erasednode)

  000a6	8b 49 04	 mov	 ecx, DWORD PTR [ecx+4]
  000a9	89 4d f4	 mov	 DWORD PTR tv795[ebp], ecx
  000ac	39 59 08	 cmp	 DWORD PTR [ecx+8], ebx
  000af	0f 85 8a 00 00
	00		 jne	 $LN165@erase

; 1244 : 				_Rmost() = this->_Isnil(_Fixnode)
; 1245 : 					? _Fixnodeparent	// largest is parent of erased node
; 1246 : 					: this->_Max(_Fixnode);	// largest in relinked subtree

  000b5	80 bf b5 01 00
	00 00		 cmp	 BYTE PTR [edi+437], 0
  000bc	74 07		 je	 SHORT $LN45@erase
  000be	8b c6		 mov	 eax, esi
  000c0	89 41 08	 mov	 DWORD PTR [ecx+8], eax

; 1247 : 			}
; 1248 : 		else

  000c3	eb 7a		 jmp	 SHORT $LN165@erase
$LN45@erase:

; 1244 : 				_Rmost() = this->_Isnil(_Fixnode)
; 1245 : 					? _Fixnodeparent	// largest is parent of erased node
; 1246 : 					: this->_Max(_Fixnode);	// largest in relinked subtree

  000c5	57		 push	 edi
  000c6	e8 00 00 00 00	 call	 ?_Max@?$_Tree_val@V?$_Tmap_traits@HU_LUCKY_ITEM_INFO@@U?$less@H@std@@V?$allocator@U?$pair@$$CBHU_LUCKY_ITEM_INFO@@@std@@@3@$0A@@std@@@std@@SAPAU_Node@?$_Tree_nod@V?$_Tmap_traits@HU_LUCKY_ITEM_INFO@@U?$less@H@std@@V?$allocator@U?$pair@$$CBHU_LUCKY_ITEM_INFO@@@std@@@3@$0A@@std@@@2@PAU342@@Z ; std::_Tree_val<std::_Tmap_traits<int,_LUCKY_ITEM_INFO,std::less<int>,std::allocator<std::pair<int const ,_LUCKY_ITEM_INFO> >,0> >::_Max
  000cb	8b 4d f4	 mov	 ecx, DWORD PTR tv795[ebp]
  000ce	83 c4 04	 add	 esp, 4
  000d1	89 41 08	 mov	 DWORD PTR [ecx+8], eax

; 1247 : 			}
; 1248 : 		else

  000d4	eb 69		 jmp	 SHORT $LN165@erase
$LN35@erase:

; 1249 : 			{	// erased has two subtrees, _Pnode is successor to erased
; 1250 : 			this->_Parent(this->_Left(_Erasednode)) =
; 1251 : 				_Pnode;	// link left up

  000d6	89 41 04	 mov	 DWORD PTR [ecx+4], eax

; 1252 : 			this->_Left(_Pnode) =
; 1253 : 				this->_Left(_Erasednode);	// link successor down

  000d9	8b 0b		 mov	 ecx, DWORD PTR [ebx]
  000db	89 08		 mov	 DWORD PTR [eax], ecx

; 1254 : 
; 1255 : 			if (_Pnode == this->_Right(_Erasednode))

  000dd	3b 43 08	 cmp	 eax, DWORD PTR [ebx+8]
  000e0	75 04		 jne	 SHORT $LN26@erase

; 1256 : 				_Fixnodeparent = _Pnode;	// successor is next to erased

  000e2	8b f0		 mov	 esi, eax

; 1257 : 			else

  000e4	eb 1d		 jmp	 SHORT $LN25@erase
$LN26@erase:

; 1258 : 				{	// successor further down, link in place of erased
; 1259 : 				_Fixnodeparent =
; 1260 : 					this->_Parent(_Pnode);	// parent is successor's
; 1261 : 				if (!this->_Isnil(_Fixnode))

  000e6	80 bf b5 01 00
	00 00		 cmp	 BYTE PTR [edi+437], 0
  000ed	8b 70 04	 mov	 esi, DWORD PTR [eax+4]
  000f0	75 03		 jne	 SHORT $LN24@erase

; 1262 : 					this->_Parent(_Fixnode) = _Fixnodeparent;	// link fix up

  000f2	89 77 04	 mov	 DWORD PTR [edi+4], esi
$LN24@erase:

; 1263 : 				this->_Left(_Fixnodeparent) = _Fixnode;	// link fix down

  000f5	89 3e		 mov	 DWORD PTR [esi], edi

; 1264 : 				this->_Right(_Pnode) =
; 1265 : 					this->_Right(_Erasednode);	// link next down

  000f7	8b 4b 08	 mov	 ecx, DWORD PTR [ebx+8]
  000fa	89 48 08	 mov	 DWORD PTR [eax+8], ecx

; 1266 : 				this->_Parent(this->_Right(_Erasednode)) =
; 1267 : 					_Pnode;	// right up

  000fd	8b 53 08	 mov	 edx, DWORD PTR [ebx+8]
  00100	89 42 04	 mov	 DWORD PTR [edx+4], eax
$LN25@erase:

; 1268 : 				}
; 1269 : 
; 1270 : 			if (_Root() == _Erasednode)

  00103	8b 4d fc	 mov	 ecx, DWORD PTR _this$[ebp]
  00106	8b 49 04	 mov	 ecx, DWORD PTR [ecx+4]
  00109	39 59 04	 cmp	 DWORD PTR [ecx+4], ebx
  0010c	75 05		 jne	 SHORT $LN23@erase

; 1271 : 				_Root() = _Pnode;	// link down from root

  0010e	89 41 04	 mov	 DWORD PTR [ecx+4], eax

; 1272 : 			else if (this->_Left(this->_Parent(_Erasednode)) == _Erasednode)

  00111	eb 0e		 jmp	 SHORT $LN20@erase
$LN23@erase:
  00113	8b 4b 04	 mov	 ecx, DWORD PTR [ebx+4]
  00116	39 19		 cmp	 DWORD PTR [ecx], ebx
  00118	75 04		 jne	 SHORT $LN21@erase

; 1273 : 				this->_Left(this->_Parent(_Erasednode)) =
; 1274 : 					_Pnode;	// link down to left

  0011a	89 01		 mov	 DWORD PTR [ecx], eax

; 1275 : 			else

  0011c	eb 03		 jmp	 SHORT $LN20@erase
$LN21@erase:

; 1276 : 				this->_Right(this->_Parent(_Erasednode)) =
; 1277 : 					_Pnode;	// link down to right

  0011e	89 41 08	 mov	 DWORD PTR [ecx+8], eax
$LN20@erase:

; 1278 : 
; 1279 : 			this->_Parent(_Pnode) =
; 1280 : 				this->_Parent(_Erasednode);	// link successor up

  00121	8b 53 04	 mov	 edx, DWORD PTR [ebx+4]
  00124	89 50 04	 mov	 DWORD PTR [eax+4], edx

; 1281 : 			_STD swap(this->_Color(_Pnode),
; 1282 : 				this->_Color(_Erasednode));	// recolor it

  00127	8a 93 b4 01 00
	00		 mov	 dl, BYTE PTR [ebx+436]
  0012d	8a 88 b4 01 00
	00		 mov	 cl, BYTE PTR [eax+436]
  00133	88 90 b4 01 00
	00		 mov	 BYTE PTR [eax+436], dl
  00139	88 8b b4 01 00
	00		 mov	 BYTE PTR [ebx+436], cl
$LN165@erase:

; 1283 : 			}
; 1284 : 
; 1285 : 		if (this->_Color(_Erasednode) == this->_Black)

  0013f	8b 45 f8	 mov	 eax, DWORD PTR __Erasednode$[ebp]
  00142	b3 01		 mov	 bl, 1
  00144	38 98 b4 01 00
	00		 cmp	 BYTE PTR [eax+436], bl
  0014a	0f 85 61 01 00
	00		 jne	 $LN19@erase

; 1286 : 			{	// erasing black link, must recolor/rebalance tree
; 1287 : 			for (; _Fixnode != _Root()
; 1288 : 				&& this->_Color(_Fixnode) == this->_Black;
; 1289 : 				_Fixnodeparent = this->_Parent(_Fixnode))

  00150	8b 4d fc	 mov	 ecx, DWORD PTR _this$[ebp]
  00153	8b 51 04	 mov	 edx, DWORD PTR [ecx+4]
  00156	3b 7a 04	 cmp	 edi, DWORD PTR [edx+4]
  00159	0f 84 4c 01 00
	00		 je	 $LN16@erase
  0015f	90		 npad	 1
$LL18@erase:
  00160	38 9f b4 01 00
	00		 cmp	 BYTE PTR [edi+436], bl
  00166	0f 85 3f 01 00
	00		 jne	 $LN16@erase

; 1290 : 				if (_Fixnode == this->_Left(_Fixnodeparent))

  0016c	8b 06		 mov	 eax, DWORD PTR [esi]
  0016e	3b f8		 cmp	 edi, eax
  00170	0f 85 97 00 00
	00		 jne	 $LN15@erase

; 1291 : 					{	// fixup left subtree
; 1292 : 					_Pnode = this->_Right(_Fixnodeparent);

  00176	8b 46 08	 mov	 eax, DWORD PTR [esi+8]

; 1293 : 					if (this->_Color(_Pnode) == this->_Red)

  00179	80 b8 b4 01 00
	00 00		 cmp	 BYTE PTR [eax+436], 0
  00180	75 19		 jne	 SHORT $LN14@erase

; 1294 : 						{	// rotate red up from right subtree
; 1295 : 						this->_Color(_Pnode) = this->_Black;

  00182	88 98 b4 01 00
	00		 mov	 BYTE PTR [eax+436], bl

; 1296 : 						this->_Color(_Fixnodeparent) = this->_Red;
; 1297 : 						_Lrotate(_Fixnodeparent);

  00188	56		 push	 esi
  00189	c6 86 b4 01 00
	00 00		 mov	 BYTE PTR [esi+436], 0
  00190	e8 00 00 00 00	 call	 ?_Lrotate@?$_Tree@V?$_Tmap_traits@HU_LUCKY_ITEM_INFO@@U?$less@H@std@@V?$allocator@U?$pair@$$CBHU_LUCKY_ITEM_INFO@@@std@@@3@$0A@@std@@@std@@IAEXPAU_Node@?$_Tree_nod@V?$_Tmap_traits@HU_LUCKY_ITEM_INFO@@U?$less@H@std@@V?$allocator@U?$pair@$$CBHU_LUCKY_ITEM_INFO@@@std@@@3@$0A@@std@@@2@@Z ; std::_Tree<std::_Tmap_traits<int,_LUCKY_ITEM_INFO,std::less<int>,std::allocator<std::pair<int const ,_LUCKY_ITEM_INFO> >,0> >::_Lrotate

; 1298 : 						_Pnode = this->_Right(_Fixnodeparent);

  00195	8b 46 08	 mov	 eax, DWORD PTR [esi+8]
  00198	8b 4d fc	 mov	 ecx, DWORD PTR _this$[ebp]
$LN14@erase:

; 1299 : 						}
; 1300 : 
; 1301 : 					if (this->_Isnil(_Pnode))

  0019b	80 b8 b5 01 00
	00 00		 cmp	 BYTE PTR [eax+437], 0

; 1302 : 						_Fixnode = _Fixnodeparent;	// shouldn't happen
; 1303 : 					else if (this->_Color(this->_Left(_Pnode)) == this->_Black

  001a2	0f 85 ab 00 00
	00		 jne	 $LN293@erase

; 1304 : 						&& this->_Color(this->_Right(_Pnode)) == this->_Black)

  001a8	8b 10		 mov	 edx, DWORD PTR [eax]
  001aa	38 9a b4 01 00
	00		 cmp	 BYTE PTR [edx+436], bl
  001b0	75 0f		 jne	 SHORT $LN11@erase
  001b2	8b 50 08	 mov	 edx, DWORD PTR [eax+8]
  001b5	38 9a b4 01 00
	00		 cmp	 BYTE PTR [edx+436], bl
  001bb	0f 84 8b 00 00
	00		 je	 $LN294@erase
$LN11@erase:

; 1305 : 						{	// redden right subtree with black children
; 1306 : 						this->_Color(_Pnode) = this->_Red;
; 1307 : 						_Fixnode = _Fixnodeparent;
; 1308 : 						}
; 1309 : 					else
; 1310 : 						{	// must rearrange right subtree
; 1311 : 						if (this->_Color(this->_Right(_Pnode))
; 1312 : 							== this->_Black)

  001c1	8b 50 08	 mov	 edx, DWORD PTR [eax+8]
  001c4	38 9a b4 01 00
	00		 cmp	 BYTE PTR [edx+436], bl
  001ca	75 1b		 jne	 SHORT $LN9@erase

; 1313 : 							{	// rotate red up from left sub-subtree
; 1314 : 							this->_Color(this->_Left(_Pnode)) = this->_Black;

  001cc	8b 10		 mov	 edx, DWORD PTR [eax]
  001ce	88 9a b4 01 00
	00		 mov	 BYTE PTR [edx+436], bl

; 1315 : 							this->_Color(_Pnode) = this->_Red;
; 1316 : 							_Rrotate(_Pnode);

  001d4	50		 push	 eax
  001d5	c6 80 b4 01 00
	00 00		 mov	 BYTE PTR [eax+436], 0
  001dc	e8 00 00 00 00	 call	 ?_Rrotate@?$_Tree@V?$_Tmap_traits@HU_LUCKY_ITEM_INFO@@U?$less@H@std@@V?$allocator@U?$pair@$$CBHU_LUCKY_ITEM_INFO@@@std@@@3@$0A@@std@@@std@@IAEXPAU_Node@?$_Tree_nod@V?$_Tmap_traits@HU_LUCKY_ITEM_INFO@@U?$less@H@std@@V?$allocator@U?$pair@$$CBHU_LUCKY_ITEM_INFO@@@std@@@3@$0A@@std@@@2@@Z ; std::_Tree<std::_Tmap_traits<int,_LUCKY_ITEM_INFO,std::less<int>,std::allocator<std::pair<int const ,_LUCKY_ITEM_INFO> >,0> >::_Rrotate

; 1317 : 							_Pnode = this->_Right(_Fixnodeparent);

  001e1	8b 46 08	 mov	 eax, DWORD PTR [esi+8]
  001e4	8b 4d fc	 mov	 ecx, DWORD PTR _this$[ebp]
$LN9@erase:

; 1318 : 							}
; 1319 : 
; 1320 : 						this->_Color(_Pnode) = this->_Color(_Fixnodeparent);

  001e7	8a 96 b4 01 00
	00		 mov	 dl, BYTE PTR [esi+436]
  001ed	88 90 b4 01 00
	00		 mov	 BYTE PTR [eax+436], dl

; 1321 : 						this->_Color(_Fixnodeparent) = this->_Black;

  001f3	88 9e b4 01 00
	00		 mov	 BYTE PTR [esi+436], bl

; 1322 : 						this->_Color(this->_Right(_Pnode)) = this->_Black;

  001f9	8b 40 08	 mov	 eax, DWORD PTR [eax+8]

; 1323 : 						_Lrotate(_Fixnodeparent);

  001fc	56		 push	 esi
  001fd	88 98 b4 01 00
	00		 mov	 BYTE PTR [eax+436], bl
  00203	e8 00 00 00 00	 call	 ?_Lrotate@?$_Tree@V?$_Tmap_traits@HU_LUCKY_ITEM_INFO@@U?$less@H@std@@V?$allocator@U?$pair@$$CBHU_LUCKY_ITEM_INFO@@@std@@@3@$0A@@std@@@std@@IAEXPAU_Node@?$_Tree_nod@V?$_Tmap_traits@HU_LUCKY_ITEM_INFO@@U?$less@H@std@@V?$allocator@U?$pair@$$CBHU_LUCKY_ITEM_INFO@@@std@@@3@$0A@@std@@@2@@Z ; std::_Tree<std::_Tmap_traits<int,_LUCKY_ITEM_INFO,std::less<int>,std::allocator<std::pair<int const ,_LUCKY_ITEM_INFO> >,0> >::_Lrotate

; 1324 : 						break;	// tree now recolored/rebalanced

  00208	e9 9e 00 00 00	 jmp	 $LN16@erase
$LN15@erase:

; 1325 : 						}
; 1326 : 					}
; 1327 : 				else
; 1328 : 					{	// fixup right subtree
; 1329 : 					_Pnode = this->_Left(_Fixnodeparent);
; 1330 : 					if (this->_Color(_Pnode) == this->_Red)

  0020d	80 b8 b4 01 00
	00 00		 cmp	 BYTE PTR [eax+436], 0
  00214	75 18		 jne	 SHORT $LN7@erase

; 1331 : 						{	// rotate red up from left subtree
; 1332 : 						this->_Color(_Pnode) = this->_Black;

  00216	88 98 b4 01 00
	00		 mov	 BYTE PTR [eax+436], bl

; 1333 : 						this->_Color(_Fixnodeparent) = this->_Red;
; 1334 : 						_Rrotate(_Fixnodeparent);

  0021c	56		 push	 esi
  0021d	c6 86 b4 01 00
	00 00		 mov	 BYTE PTR [esi+436], 0
  00224	e8 00 00 00 00	 call	 ?_Rrotate@?$_Tree@V?$_Tmap_traits@HU_LUCKY_ITEM_INFO@@U?$less@H@std@@V?$allocator@U?$pair@$$CBHU_LUCKY_ITEM_INFO@@@std@@@3@$0A@@std@@@std@@IAEXPAU_Node@?$_Tree_nod@V?$_Tmap_traits@HU_LUCKY_ITEM_INFO@@U?$less@H@std@@V?$allocator@U?$pair@$$CBHU_LUCKY_ITEM_INFO@@@std@@@3@$0A@@std@@@2@@Z ; std::_Tree<std::_Tmap_traits<int,_LUCKY_ITEM_INFO,std::less<int>,std::allocator<std::pair<int const ,_LUCKY_ITEM_INFO> >,0> >::_Rrotate

; 1335 : 						_Pnode = this->_Left(_Fixnodeparent);

  00229	8b 06		 mov	 eax, DWORD PTR [esi]
  0022b	8b 4d fc	 mov	 ecx, DWORD PTR _this$[ebp]
$LN7@erase:

; 1336 : 						}
; 1337 : 					if (this->_Isnil(_Pnode))

  0022e	80 b8 b5 01 00
	00 00		 cmp	 BYTE PTR [eax+437], 0

; 1338 : 						_Fixnode = _Fixnodeparent;	// shouldn't happen
; 1339 : 					else if (this->_Color(this->_Right(_Pnode)) ==

  00235	75 1c		 jne	 SHORT $LN293@erase

; 1340 : 						this->_Black
; 1341 : 						&& this->_Color(this->_Left(_Pnode)) == this->_Black)

  00237	8b 50 08	 mov	 edx, DWORD PTR [eax+8]
  0023a	38 9a b4 01 00
	00		 cmp	 BYTE PTR [edx+436], bl
  00240	75 24		 jne	 SHORT $LN4@erase
  00242	8b 10		 mov	 edx, DWORD PTR [eax]
  00244	38 9a b4 01 00
	00		 cmp	 BYTE PTR [edx+436], bl
  0024a	75 1a		 jne	 SHORT $LN4@erase
$LN294@erase:

; 1342 : 						{	// redden left subtree with black children
; 1343 : 						this->_Color(_Pnode) = this->_Red;

  0024c	c6 80 b4 01 00
	00 00		 mov	 BYTE PTR [eax+436], 0
$LN293@erase:

; 1286 : 			{	// erasing black link, must recolor/rebalance tree
; 1287 : 			for (; _Fixnode != _Root()
; 1288 : 				&& this->_Color(_Fixnode) == this->_Black;
; 1289 : 				_Fixnodeparent = this->_Parent(_Fixnode))

  00253	8b 41 04	 mov	 eax, DWORD PTR [ecx+4]

; 1344 : 						_Fixnode = _Fixnodeparent;

  00256	8b fe		 mov	 edi, esi
  00258	8b 76 04	 mov	 esi, DWORD PTR [esi+4]
  0025b	3b 78 04	 cmp	 edi, DWORD PTR [eax+4]
  0025e	0f 85 fc fe ff
	ff		 jne	 $LL18@erase

; 1286 : 			{	// erasing black link, must recolor/rebalance tree
; 1287 : 			for (; _Fixnode != _Root()
; 1288 : 				&& this->_Color(_Fixnode) == this->_Black;
; 1289 : 				_Fixnodeparent = this->_Parent(_Fixnode))

  00264	eb 45		 jmp	 SHORT $LN16@erase
$LN4@erase:

; 1345 : 						}
; 1346 : 					else
; 1347 : 						{	// must rearrange left subtree
; 1348 : 						if (this->_Color(this->_Left(_Pnode)) == this->_Black)

  00266	8b 10		 mov	 edx, DWORD PTR [eax]
  00268	38 9a b4 01 00
	00		 cmp	 BYTE PTR [edx+436], bl
  0026e	75 1b		 jne	 SHORT $LN2@erase

; 1349 : 							{	// rotate red up from right sub-subtree
; 1350 : 							this->_Color(this->_Right(_Pnode)) = this->_Black;

  00270	8b 50 08	 mov	 edx, DWORD PTR [eax+8]
  00273	88 9a b4 01 00
	00		 mov	 BYTE PTR [edx+436], bl

; 1351 : 							this->_Color(_Pnode) = this->_Red;
; 1352 : 							_Lrotate(_Pnode);

  00279	50		 push	 eax
  0027a	c6 80 b4 01 00
	00 00		 mov	 BYTE PTR [eax+436], 0
  00281	e8 00 00 00 00	 call	 ?_Lrotate@?$_Tree@V?$_Tmap_traits@HU_LUCKY_ITEM_INFO@@U?$less@H@std@@V?$allocator@U?$pair@$$CBHU_LUCKY_ITEM_INFO@@@std@@@3@$0A@@std@@@std@@IAEXPAU_Node@?$_Tree_nod@V?$_Tmap_traits@HU_LUCKY_ITEM_INFO@@U?$less@H@std@@V?$allocator@U?$pair@$$CBHU_LUCKY_ITEM_INFO@@@std@@@3@$0A@@std@@@2@@Z ; std::_Tree<std::_Tmap_traits<int,_LUCKY_ITEM_INFO,std::less<int>,std::allocator<std::pair<int const ,_LUCKY_ITEM_INFO> >,0> >::_Lrotate

; 1353 : 							_Pnode = this->_Left(_Fixnodeparent);

  00286	8b 06		 mov	 eax, DWORD PTR [esi]
  00288	8b 4d fc	 mov	 ecx, DWORD PTR _this$[ebp]
$LN2@erase:

; 1354 : 							}
; 1355 : 
; 1356 : 						this->_Color(_Pnode) = this->_Color(_Fixnodeparent);

  0028b	8a 96 b4 01 00
	00		 mov	 dl, BYTE PTR [esi+436]
  00291	88 90 b4 01 00
	00		 mov	 BYTE PTR [eax+436], dl

; 1357 : 						this->_Color(_Fixnodeparent) = this->_Black;

  00297	88 9e b4 01 00
	00		 mov	 BYTE PTR [esi+436], bl

; 1358 : 						this->_Color(this->_Left(_Pnode)) = this->_Black;

  0029d	8b 00		 mov	 eax, DWORD PTR [eax]

; 1359 : 						_Rrotate(_Fixnodeparent);

  0029f	56		 push	 esi
  002a0	88 98 b4 01 00
	00		 mov	 BYTE PTR [eax+436], bl
  002a6	e8 00 00 00 00	 call	 ?_Rrotate@?$_Tree@V?$_Tmap_traits@HU_LUCKY_ITEM_INFO@@U?$less@H@std@@V?$allocator@U?$pair@$$CBHU_LUCKY_ITEM_INFO@@@std@@@3@$0A@@std@@@std@@IAEXPAU_Node@?$_Tree_nod@V?$_Tmap_traits@HU_LUCKY_ITEM_INFO@@U?$less@H@std@@V?$allocator@U?$pair@$$CBHU_LUCKY_ITEM_INFO@@@std@@@3@$0A@@std@@@2@@Z ; std::_Tree<std::_Tmap_traits<int,_LUCKY_ITEM_INFO,std::less<int>,std::allocator<std::pair<int const ,_LUCKY_ITEM_INFO> >,0> >::_Rrotate
$LN16@erase:

; 1360 : 						break;	// tree now recolored/rebalanced
; 1361 : 						}
; 1362 : 					}
; 1363 : 
; 1364 : 			this->_Color(_Fixnode) = this->_Black;	// stopping node is black

  002ab	88 9f b4 01 00
	00		 mov	 BYTE PTR [edi+436], bl
$LN19@erase:

; 1365 : 			}
; 1366 : 
; 1367 : 		_Dest_val(this->_Alval,
; 1368 : 			_STD addressof(this->_Myval(_Erasednode)));	// delete erased node
; 1369 : 
; 1370 : 		this->_Alnod.deallocate(_Erasednode, 1);

  002b1	8b 4d f8	 mov	 ecx, DWORD PTR __Erasednode$[ebp]
  002b4	51		 push	 ecx
  002b5	e8 00 00 00 00	 call	 ??3@YAXPAX@Z		; operator delete

; 1371 : 
; 1372 : 		if (0 < this->_Mysize)

  002ba	8b 4d fc	 mov	 ecx, DWORD PTR _this$[ebp]
  002bd	8b 41 08	 mov	 eax, DWORD PTR [ecx+8]
  002c0	83 c4 04	 add	 esp, 4
  002c3	5f		 pop	 edi
  002c4	5e		 pop	 esi
  002c5	5b		 pop	 ebx
  002c6	85 c0		 test	 eax, eax
  002c8	74 04		 je	 SHORT $LN1@erase

; 1373 : 			--this->_Mysize;

  002ca	48		 dec	 eax
  002cb	89 41 08	 mov	 DWORD PTR [ecx+8], eax
$LN1@erase:

; 1374 : 
; 1375 : 		return (iterator(_Where._Ptr, this));	// return successor iterator

  002ce	8b 45 08	 mov	 eax, DWORD PTR ___$ReturnUdt$[ebp]
  002d1	8b 55 0c	 mov	 edx, DWORD PTR __Where$[ebp]
  002d4	89 10		 mov	 DWORD PTR [eax], edx

; 1376 : 		}

  002d6	8b e5		 mov	 esp, ebp
  002d8	5d		 pop	 ebp
  002d9	c2 08 00	 ret	 8
$LN292@erase:
?erase@?$_Tree@V?$_Tmap_traits@HU_LUCKY_ITEM_INFO@@U?$less@H@std@@V?$allocator@U?$pair@$$CBHU_LUCKY_ITEM_INFO@@@std@@@3@$0A@@std@@@std@@QAE?AV?$_Tree_iterator@V?$_Tree_val@V?$_Tmap_traits@HU_LUCKY_ITEM_INFO@@U?$less@H@std@@V?$allocator@U?$pair@$$CBHU_LUCKY_ITEM_INFO@@@std@@@3@$0A@@std@@@std@@@2@V?$_Tree_const_iterator@V?$_Tree_val@V?$_Tmap_traits@HU_LUCKY_ITEM_INFO@@U?$less@H@std@@V?$allocator@U?$pair@$$CBHU_LUCKY_ITEM_INFO@@@std@@@3@$0A@@std@@@std@@@2@@Z ENDP ; std::_Tree<std::_Tmap_traits<int,_LUCKY_ITEM_INFO,std::less<int>,std::allocator<std::pair<int const ,_LUCKY_ITEM_INFO> >,0> >::erase
_TEXT	ENDS
PUBLIC	?_Erase@?$_Tree@V?$_Tmap_traits@HU_LUCKY_ITEM_INFO@@U?$less@H@std@@V?$allocator@U?$pair@$$CBHU_LUCKY_ITEM_INFO@@@std@@@3@$0A@@std@@@std@@IAEXPAU_Node@?$_Tree_nod@V?$_Tmap_traits@HU_LUCKY_ITEM_INFO@@U?$less@H@std@@V?$allocator@U?$pair@$$CBHU_LUCKY_ITEM_INFO@@@std@@@3@$0A@@std@@@2@@Z ; std::_Tree<std::_Tmap_traits<int,_LUCKY_ITEM_INFO,std::less<int>,std::allocator<std::pair<int const ,_LUCKY_ITEM_INFO> >,0> >::_Erase
; Function compile flags: /Ogtp
;	COMDAT ?_Erase@?$_Tree@V?$_Tmap_traits@HU_LUCKY_ITEM_INFO@@U?$less@H@std@@V?$allocator@U?$pair@$$CBHU_LUCKY_ITEM_INFO@@@std@@@3@$0A@@std@@@std@@IAEXPAU_Node@?$_Tree_nod@V?$_Tmap_traits@HU_LUCKY_ITEM_INFO@@U?$less@H@std@@V?$allocator@U?$pair@$$CBHU_LUCKY_ITEM_INFO@@@std@@@3@$0A@@std@@@2@@Z
_TEXT	SEGMENT
__Rootnode$ = 8						; size = 4
?_Erase@?$_Tree@V?$_Tmap_traits@HU_LUCKY_ITEM_INFO@@U?$less@H@std@@V?$allocator@U?$pair@$$CBHU_LUCKY_ITEM_INFO@@@std@@@3@$0A@@std@@@std@@IAEXPAU_Node@?$_Tree_nod@V?$_Tmap_traits@HU_LUCKY_ITEM_INFO@@U?$less@H@std@@V?$allocator@U?$pair@$$CBHU_LUCKY_ITEM_INFO@@@std@@@3@$0A@@std@@@2@@Z PROC ; std::_Tree<std::_Tmap_traits<int,_LUCKY_ITEM_INFO,std::less<int>,std::allocator<std::pair<int const ,_LUCKY_ITEM_INFO> >,0> >::_Erase, COMDAT
; _this$ = ecx

; 1610 : 		{	// free entire subtree, recursively

  00000	55		 push	 ebp
  00001	8b ec		 mov	 ebp, esp
  00003	53		 push	 ebx
  00004	56		 push	 esi
  00005	57		 push	 edi

; 1611 : 		for (_Nodeptr _Pnode = _Rootnode;

  00006	8b 7d 08	 mov	 edi, DWORD PTR __Rootnode$[ebp]

; 1612 : 			!this->_Isnil(_Pnode); _Rootnode = _Pnode)

  00009	80 bf b5 01 00
	00 00		 cmp	 BYTE PTR [edi+437], 0
  00010	8b d9		 mov	 ebx, ecx
  00012	8b f7		 mov	 esi, edi
  00014	75 21		 jne	 SHORT $LN1@Erase
$LL3@Erase:

; 1613 : 			{	// free subtrees, then node
; 1614 : 			_Erase(this->_Right(_Pnode));

  00016	8b 46 08	 mov	 eax, DWORD PTR [esi+8]
  00019	50		 push	 eax
  0001a	8b cb		 mov	 ecx, ebx
  0001c	e8 00 00 00 00	 call	 ?_Erase@?$_Tree@V?$_Tmap_traits@HU_LUCKY_ITEM_INFO@@U?$less@H@std@@V?$allocator@U?$pair@$$CBHU_LUCKY_ITEM_INFO@@@std@@@3@$0A@@std@@@std@@IAEXPAU_Node@?$_Tree_nod@V?$_Tmap_traits@HU_LUCKY_ITEM_INFO@@U?$less@H@std@@V?$allocator@U?$pair@$$CBHU_LUCKY_ITEM_INFO@@@std@@@3@$0A@@std@@@2@@Z ; std::_Tree<std::_Tmap_traits<int,_LUCKY_ITEM_INFO,std::less<int>,std::allocator<std::pair<int const ,_LUCKY_ITEM_INFO> >,0> >::_Erase

; 1615 : 			_Pnode = this->_Left(_Pnode);

  00021	8b 36		 mov	 esi, DWORD PTR [esi]

; 1616 : 			_Dest_val(this->_Alval,
; 1617 : 				_STD addressof(this->_Myval(_Rootnode)));
; 1618 : 
; 1619 : 			this->_Alnod.deallocate(_Rootnode, 1);

  00023	57		 push	 edi
  00024	e8 00 00 00 00	 call	 ??3@YAXPAX@Z		; operator delete
  00029	83 c4 04	 add	 esp, 4
  0002c	80 be b5 01 00
	00 00		 cmp	 BYTE PTR [esi+437], 0
  00033	8b fe		 mov	 edi, esi
  00035	74 df		 je	 SHORT $LL3@Erase
$LN1@Erase:
  00037	5f		 pop	 edi
  00038	5e		 pop	 esi
  00039	5b		 pop	 ebx

; 1620 : 			}
; 1621 : 		}

  0003a	5d		 pop	 ebp
  0003b	c2 04 00	 ret	 4
?_Erase@?$_Tree@V?$_Tmap_traits@HU_LUCKY_ITEM_INFO@@U?$less@H@std@@V?$allocator@U?$pair@$$CBHU_LUCKY_ITEM_INFO@@@std@@@3@$0A@@std@@@std@@IAEXPAU_Node@?$_Tree_nod@V?$_Tmap_traits@HU_LUCKY_ITEM_INFO@@U?$less@H@std@@V?$allocator@U?$pair@$$CBHU_LUCKY_ITEM_INFO@@@std@@@3@$0A@@std@@@2@@Z ENDP ; std::_Tree<std::_Tmap_traits<int,_LUCKY_ITEM_INFO,std::less<int>,std::allocator<std::pair<int const ,_LUCKY_ITEM_INFO> >,0> >::_Erase
_TEXT	ENDS
PUBLIC	?begin@?$_Tree@V?$_Tmap_traits@HU_LUCKY_ITEM_INFO@@U?$less@H@std@@V?$allocator@U?$pair@$$CBHU_LUCKY_ITEM_INFO@@@std@@@3@$0A@@std@@@std@@QAE?AV?$_Tree_iterator@V?$_Tree_val@V?$_Tmap_traits@HU_LUCKY_ITEM_INFO@@U?$less@H@std@@V?$allocator@U?$pair@$$CBHU_LUCKY_ITEM_INFO@@@std@@@3@$0A@@std@@@std@@@2@XZ ; std::_Tree<std::_Tmap_traits<int,_LUCKY_ITEM_INFO,std::less<int>,std::allocator<std::pair<int const ,_LUCKY_ITEM_INFO> >,0> >::begin
; Function compile flags: /Ogtp
;	COMDAT ?begin@?$_Tree@V?$_Tmap_traits@HU_LUCKY_ITEM_INFO@@U?$less@H@std@@V?$allocator@U?$pair@$$CBHU_LUCKY_ITEM_INFO@@@std@@@3@$0A@@std@@@std@@QAE?AV?$_Tree_iterator@V?$_Tree_val@V?$_Tmap_traits@HU_LUCKY_ITEM_INFO@@U?$less@H@std@@V?$allocator@U?$pair@$$CBHU_LUCKY_ITEM_INFO@@@std@@@3@$0A@@std@@@std@@@2@XZ
_TEXT	SEGMENT
___$ReturnUdt$ = 8					; size = 4
?begin@?$_Tree@V?$_Tmap_traits@HU_LUCKY_ITEM_INFO@@U?$less@H@std@@V?$allocator@U?$pair@$$CBHU_LUCKY_ITEM_INFO@@@std@@@3@$0A@@std@@@std@@QAE?AV?$_Tree_iterator@V?$_Tree_val@V?$_Tmap_traits@HU_LUCKY_ITEM_INFO@@U?$less@H@std@@V?$allocator@U?$pair@$$CBHU_LUCKY_ITEM_INFO@@@std@@@3@$0A@@std@@@std@@@2@XZ PROC ; std::_Tree<std::_Tmap_traits<int,_LUCKY_ITEM_INFO,std::less<int>,std::allocator<std::pair<int const ,_LUCKY_ITEM_INFO> >,0> >::begin, COMDAT
; _this$ = ecx

; 806  : 		{	// return iterator for beginning of mutable sequence

  00000	55		 push	 ebp
  00001	8b ec		 mov	 ebp, esp

; 807  : 		return (iterator(_Lmost(), this));

  00003	8b 41 04	 mov	 eax, DWORD PTR [ecx+4]
  00006	8b 08		 mov	 ecx, DWORD PTR [eax]
  00008	8b 45 08	 mov	 eax, DWORD PTR ___$ReturnUdt$[ebp]
  0000b	89 08		 mov	 DWORD PTR [eax], ecx

; 808  : 		}

  0000d	5d		 pop	 ebp
  0000e	c2 04 00	 ret	 4
?begin@?$_Tree@V?$_Tmap_traits@HU_LUCKY_ITEM_INFO@@U?$less@H@std@@V?$allocator@U?$pair@$$CBHU_LUCKY_ITEM_INFO@@@std@@@3@$0A@@std@@@std@@QAE?AV?$_Tree_iterator@V?$_Tree_val@V?$_Tmap_traits@HU_LUCKY_ITEM_INFO@@U?$less@H@std@@V?$allocator@U?$pair@$$CBHU_LUCKY_ITEM_INFO@@@std@@@3@$0A@@std@@@std@@@2@XZ ENDP ; std::_Tree<std::_Tmap_traits<int,_LUCKY_ITEM_INFO,std::less<int>,std::allocator<std::pair<int const ,_LUCKY_ITEM_INFO> >,0> >::begin
_TEXT	ENDS
PUBLIC	?end@?$_Tree@V?$_Tmap_traits@HU_LUCKY_ITEM_INFO@@U?$less@H@std@@V?$allocator@U?$pair@$$CBHU_LUCKY_ITEM_INFO@@@std@@@3@$0A@@std@@@std@@QAE?AV?$_Tree_iterator@V?$_Tree_val@V?$_Tmap_traits@HU_LUCKY_ITEM_INFO@@U?$less@H@std@@V?$allocator@U?$pair@$$CBHU_LUCKY_ITEM_INFO@@@std@@@3@$0A@@std@@@std@@@2@XZ ; std::_Tree<std::_Tmap_traits<int,_LUCKY_ITEM_INFO,std::less<int>,std::allocator<std::pair<int const ,_LUCKY_ITEM_INFO> >,0> >::end
; Function compile flags: /Ogtp
;	COMDAT ?end@?$_Tree@V?$_Tmap_traits@HU_LUCKY_ITEM_INFO@@U?$less@H@std@@V?$allocator@U?$pair@$$CBHU_LUCKY_ITEM_INFO@@@std@@@3@$0A@@std@@@std@@QAE?AV?$_Tree_iterator@V?$_Tree_val@V?$_Tmap_traits@HU_LUCKY_ITEM_INFO@@U?$less@H@std@@V?$allocator@U?$pair@$$CBHU_LUCKY_ITEM_INFO@@@std@@@3@$0A@@std@@@std@@@2@XZ
_TEXT	SEGMENT
___$ReturnUdt$ = 8					; size = 4
?end@?$_Tree@V?$_Tmap_traits@HU_LUCKY_ITEM_INFO@@U?$less@H@std@@V?$allocator@U?$pair@$$CBHU_LUCKY_ITEM_INFO@@@std@@@3@$0A@@std@@@std@@QAE?AV?$_Tree_iterator@V?$_Tree_val@V?$_Tmap_traits@HU_LUCKY_ITEM_INFO@@U?$less@H@std@@V?$allocator@U?$pair@$$CBHU_LUCKY_ITEM_INFO@@@std@@@3@$0A@@std@@@std@@@2@XZ PROC ; std::_Tree<std::_Tmap_traits<int,_LUCKY_ITEM_INFO,std::less<int>,std::allocator<std::pair<int const ,_LUCKY_ITEM_INFO> >,0> >::end, COMDAT
; _this$ = ecx

; 816  : 		{	// return iterator for end of mutable sequence

  00000	55		 push	 ebp
  00001	8b ec		 mov	 ebp, esp

; 817  : 		return (iterator(this->_Myhead, this));

  00003	8b 49 04	 mov	 ecx, DWORD PTR [ecx+4]
  00006	8b 45 08	 mov	 eax, DWORD PTR ___$ReturnUdt$[ebp]
  00009	89 08		 mov	 DWORD PTR [eax], ecx

; 818  : 		}

  0000b	5d		 pop	 ebp
  0000c	c2 04 00	 ret	 4
?end@?$_Tree@V?$_Tmap_traits@HU_LUCKY_ITEM_INFO@@U?$less@H@std@@V?$allocator@U?$pair@$$CBHU_LUCKY_ITEM_INFO@@@std@@@3@$0A@@std@@@std@@QAE?AV?$_Tree_iterator@V?$_Tree_val@V?$_Tmap_traits@HU_LUCKY_ITEM_INFO@@U?$less@H@std@@V?$allocator@U?$pair@$$CBHU_LUCKY_ITEM_INFO@@@std@@@3@$0A@@std@@@std@@@2@XZ ENDP ; std::_Tree<std::_Tmap_traits<int,_LUCKY_ITEM_INFO,std::less<int>,std::allocator<std::pair<int const ,_LUCKY_ITEM_INFO> >,0> >::end
_TEXT	ENDS
PUBLIC	??E?$_Tree_iterator@V?$_Tree_val@V?$_Tmap_traits@HU_LUCKY_ITEM_INFO@@U?$less@H@std@@V?$allocator@U?$pair@$$CBHU_LUCKY_ITEM_INFO@@@std@@@3@$0A@@std@@@std@@@std@@QAE?AV01@H@Z ; std::_Tree_iterator<std::_Tree_val<std::_Tmap_traits<int,_LUCKY_ITEM_INFO,std::less<int>,std::allocator<std::pair<int const ,_LUCKY_ITEM_INFO> >,0> > >::operator++
; Function compile flags: /Ogtp
;	COMDAT ??E?$_Tree_iterator@V?$_Tree_val@V?$_Tmap_traits@HU_LUCKY_ITEM_INFO@@U?$less@H@std@@V?$allocator@U?$pair@$$CBHU_LUCKY_ITEM_INFO@@@std@@@3@$0A@@std@@@std@@@std@@QAE?AV01@H@Z
_TEXT	SEGMENT
___$ReturnUdt$ = 8					; size = 4
___formal$ = 12						; size = 4
??E?$_Tree_iterator@V?$_Tree_val@V?$_Tmap_traits@HU_LUCKY_ITEM_INFO@@U?$less@H@std@@V?$allocator@U?$pair@$$CBHU_LUCKY_ITEM_INFO@@@std@@@3@$0A@@std@@@std@@@std@@QAE?AV01@H@Z PROC ; std::_Tree_iterator<std::_Tree_val<std::_Tmap_traits<int,_LUCKY_ITEM_INFO,std::less<int>,std::allocator<std::pair<int const ,_LUCKY_ITEM_INFO> >,0> > >::operator++, COMDAT
; _this$ = ecx

; 411  : 		{	// postincrement

  00000	55		 push	 ebp
  00001	8b ec		 mov	 ebp, esp

; 412  : 		_Myiter _Tmp = *this;

  00003	8b 01		 mov	 eax, DWORD PTR [ecx]
  00005	56		 push	 esi
  00006	8b 75 08	 mov	 esi, DWORD PTR ___$ReturnUdt$[ebp]
  00009	89 06		 mov	 DWORD PTR [esi], eax

; 413  : 		++*this;

  0000b	e8 00 00 00 00	 call	 ??E?$_Tree_unchecked_const_iterator@V?$_Tree_val@V?$_Tmap_traits@HU_LUCKY_ITEM_INFO@@U?$less@H@std@@V?$allocator@U?$pair@$$CBHU_LUCKY_ITEM_INFO@@@std@@@3@$0A@@std@@@std@@U_Iterator_base0@2@@std@@QAEAAV01@XZ ; std::_Tree_unchecked_const_iterator<std::_Tree_val<std::_Tmap_traits<int,_LUCKY_ITEM_INFO,std::less<int>,std::allocator<std::pair<int const ,_LUCKY_ITEM_INFO> >,0> >,std::_Iterator_base0>::operator++

; 414  : 		return (_Tmp);

  00010	8b c6		 mov	 eax, esi
  00012	5e		 pop	 esi

; 415  : 		}

  00013	5d		 pop	 ebp
  00014	c2 08 00	 ret	 8
??E?$_Tree_iterator@V?$_Tree_val@V?$_Tmap_traits@HU_LUCKY_ITEM_INFO@@U?$less@H@std@@V?$allocator@U?$pair@$$CBHU_LUCKY_ITEM_INFO@@@std@@@3@$0A@@std@@@std@@@std@@QAE?AV01@H@Z ENDP ; std::_Tree_iterator<std::_Tree_val<std::_Tmap_traits<int,_LUCKY_ITEM_INFO,std::less<int>,std::allocator<std::pair<int const ,_LUCKY_ITEM_INFO> >,0> > >::operator++
_TEXT	ENDS
PUBLIC	??0?$_Tree@V?$_Tmap_traits@HU_LUCKY_ITEM_INFO@@U?$less@H@std@@V?$allocator@U?$pair@$$CBHU_LUCKY_ITEM_INFO@@@std@@@3@$0A@@std@@@std@@QAE@ABU?$less@H@1@ABV?$allocator@U?$pair@$$CBHU_LUCKY_ITEM_INFO@@@std@@@1@@Z ; std::_Tree<std::_Tmap_traits<int,_LUCKY_ITEM_INFO,std::less<int>,std::allocator<std::pair<int const ,_LUCKY_ITEM_INFO> >,0> >::_Tree<std::_Tmap_traits<int,_LUCKY_ITEM_INFO,std::less<int>,std::allocator<std::pair<int const ,_LUCKY_ITEM_INFO> >,0> >
; Function compile flags: /Ogtp
;	COMDAT ??0?$_Tree@V?$_Tmap_traits@HU_LUCKY_ITEM_INFO@@U?$less@H@std@@V?$allocator@U?$pair@$$CBHU_LUCKY_ITEM_INFO@@@std@@@3@$0A@@std@@@std@@QAE@ABU?$less@H@1@ABV?$allocator@U?$pair@$$CBHU_LUCKY_ITEM_INFO@@@std@@@1@@Z
_TEXT	SEGMENT
$T186414 = -16						; size = 12
$T186365 = -4						; size = 4
__Parg$ = 8						; size = 4
__Al$ = 12						; size = 4
??0?$_Tree@V?$_Tmap_traits@HU_LUCKY_ITEM_INFO@@U?$less@H@std@@V?$allocator@U?$pair@$$CBHU_LUCKY_ITEM_INFO@@@std@@@3@$0A@@std@@@std@@QAE@ABU?$less@H@1@ABV?$allocator@U?$pair@$$CBHU_LUCKY_ITEM_INFO@@@std@@@1@@Z PROC ; std::_Tree<std::_Tmap_traits<int,_LUCKY_ITEM_INFO,std::less<int>,std::allocator<std::pair<int const ,_LUCKY_ITEM_INFO> >,0> >::_Tree<std::_Tmap_traits<int,_LUCKY_ITEM_INFO,std::less<int>,std::allocator<std::pair<int const ,_LUCKY_ITEM_INFO> >,0> >, COMDAT
; _this$ = ecx

; 698  : 		{	// construct empty tree

  00000	55		 push	 ebp
  00001	8b ec		 mov	 ebp, esp
  00003	83 ec 10	 sub	 esp, 16			; 00000010H
  00006	56		 push	 esi
  00007	8b f1		 mov	 esi, ecx
  00009	68 b8 01 00 00	 push	 440			; 000001b8H
  0000e	c7 46 08 00 00
	00 00		 mov	 DWORD PTR [esi+8], 0
  00015	e8 00 00 00 00	 call	 ??2@YAPAXI@Z		; operator new
  0001a	83 c4 04	 add	 esp, 4
  0001d	85 c0		 test	 eax, eax
  0001f	74 2e		 je	 SHORT $LN20@Tree
  00021	89 46 04	 mov	 DWORD PTR [esi+4], eax
  00024	89 00		 mov	 DWORD PTR [eax], eax
  00026	8b 46 04	 mov	 eax, DWORD PTR [esi+4]
  00029	89 40 04	 mov	 DWORD PTR [eax+4], eax
  0002c	8b 46 04	 mov	 eax, DWORD PTR [esi+4]
  0002f	89 40 08	 mov	 DWORD PTR [eax+8], eax
  00032	8b 4e 04	 mov	 ecx, DWORD PTR [esi+4]
  00035	b0 01		 mov	 al, 1
  00037	88 81 b4 01 00
	00		 mov	 BYTE PTR [ecx+436], al
  0003d	8b 56 04	 mov	 edx, DWORD PTR [esi+4]
  00040	88 82 b5 01 00
	00		 mov	 BYTE PTR [edx+437], al

; 699  : 		}

  00046	8b c6		 mov	 eax, esi
  00048	5e		 pop	 esi
  00049	8b e5		 mov	 esp, ebp
  0004b	5d		 pop	 ebp
  0004c	c2 08 00	 ret	 8

; 698  : 		{	// construct empty tree

$LN20@Tree:
  0004f	8d 45 fc	 lea	 eax, DWORD PTR $T186365[ebp]
  00052	50		 push	 eax
  00053	8d 4d f0	 lea	 ecx, DWORD PTR $T186414[ebp]
  00056	c7 45 fc 00 00
	00 00		 mov	 DWORD PTR $T186365[ebp], 0
  0005d	e8 00 00 00 00	 call	 ??0exception@std@@QAE@ABQBD@Z ; std::exception::exception
  00062	68 00 00 00 00	 push	 OFFSET __TI2?AVbad_alloc@std@@
  00067	8d 4d f0	 lea	 ecx, DWORD PTR $T186414[ebp]
  0006a	51		 push	 ecx
  0006b	c7 45 f0 00 00
	00 00		 mov	 DWORD PTR $T186414[ebp], OFFSET ??_7bad_alloc@std@@6B@
  00072	e8 00 00 00 00	 call	 __CxxThrowException@8
$LN43@Tree:
$LN42@Tree:
  00077	cc		 int	 3
??0?$_Tree@V?$_Tmap_traits@HU_LUCKY_ITEM_INFO@@U?$less@H@std@@V?$allocator@U?$pair@$$CBHU_LUCKY_ITEM_INFO@@@std@@@3@$0A@@std@@@std@@QAE@ABU?$less@H@1@ABV?$allocator@U?$pair@$$CBHU_LUCKY_ITEM_INFO@@@std@@@1@@Z ENDP ; std::_Tree<std::_Tmap_traits<int,_LUCKY_ITEM_INFO,std::less<int>,std::allocator<std::pair<int const ,_LUCKY_ITEM_INFO> >,0> >::_Tree<std::_Tmap_traits<int,_LUCKY_ITEM_INFO,std::less<int>,std::allocator<std::pair<int const ,_LUCKY_ITEM_INFO> >,0> >
_TEXT	ENDS
PUBLIC	?lower_bound@?$_Tree@V?$_Tmap_traits@HU_LUCKY_ITEM_INFO@@U?$less@H@std@@V?$allocator@U?$pair@$$CBHU_LUCKY_ITEM_INFO@@@std@@@3@$0A@@std@@@std@@QAE?AV?$_Tree_iterator@V?$_Tree_val@V?$_Tmap_traits@HU_LUCKY_ITEM_INFO@@U?$less@H@std@@V?$allocator@U?$pair@$$CBHU_LUCKY_ITEM_INFO@@@std@@@3@$0A@@std@@@std@@@2@ABH@Z ; std::_Tree<std::_Tmap_traits<int,_LUCKY_ITEM_INFO,std::less<int>,std::allocator<std::pair<int const ,_LUCKY_ITEM_INFO> >,0> >::lower_bound
; Function compile flags: /Ogtp
;	COMDAT ?lower_bound@?$_Tree@V?$_Tmap_traits@HU_LUCKY_ITEM_INFO@@U?$less@H@std@@V?$allocator@U?$pair@$$CBHU_LUCKY_ITEM_INFO@@@std@@@3@$0A@@std@@@std@@QAE?AV?$_Tree_iterator@V?$_Tree_val@V?$_Tmap_traits@HU_LUCKY_ITEM_INFO@@U?$less@H@std@@V?$allocator@U?$pair@$$CBHU_LUCKY_ITEM_INFO@@@std@@@3@$0A@@std@@@std@@@2@ABH@Z
_TEXT	SEGMENT
___$ReturnUdt$ = 8					; size = 4
__Keyval$ = 12						; size = 4
?lower_bound@?$_Tree@V?$_Tmap_traits@HU_LUCKY_ITEM_INFO@@U?$less@H@std@@V?$allocator@U?$pair@$$CBHU_LUCKY_ITEM_INFO@@@std@@@3@$0A@@std@@@std@@QAE?AV?$_Tree_iterator@V?$_Tree_val@V?$_Tmap_traits@HU_LUCKY_ITEM_INFO@@U?$less@H@std@@V?$allocator@U?$pair@$$CBHU_LUCKY_ITEM_INFO@@@std@@@3@$0A@@std@@@std@@@2@ABH@Z PROC ; std::_Tree<std::_Tmap_traits<int,_LUCKY_ITEM_INFO,std::less<int>,std::allocator<std::pair<int const ,_LUCKY_ITEM_INFO> >,0> >::lower_bound, COMDAT
; _this$ = ecx

; 1449 : 		{	// find leftmost node not less than _Keyval in mutable tree

  00000	55		 push	 ebp
  00001	8b ec		 mov	 ebp, esp

; 1450 : 		return (iterator(_Lbound(_Keyval), this));

  00003	8b 49 04	 mov	 ecx, DWORD PTR [ecx+4]
  00006	8b 41 04	 mov	 eax, DWORD PTR [ecx+4]
  00009	80 b8 b5 01 00
	00 00		 cmp	 BYTE PTR [eax+437], 0
  00010	75 1c		 jne	 SHORT $LN36@lower_boun
  00012	8b 55 0c	 mov	 edx, DWORD PTR __Keyval$[ebp]
  00015	8b 12		 mov	 edx, DWORD PTR [edx]
$LL6@lower_boun:
  00017	39 50 0c	 cmp	 DWORD PTR [eax+12], edx
  0001a	7d 05		 jge	 SHORT $LN4@lower_boun
  0001c	8b 40 08	 mov	 eax, DWORD PTR [eax+8]
  0001f	eb 04		 jmp	 SHORT $LN3@lower_boun
$LN4@lower_boun:
  00021	8b c8		 mov	 ecx, eax
  00023	8b 00		 mov	 eax, DWORD PTR [eax]
$LN3@lower_boun:
  00025	80 b8 b5 01 00
	00 00		 cmp	 BYTE PTR [eax+437], 0
  0002c	74 e9		 je	 SHORT $LL6@lower_boun
$LN36@lower_boun:
  0002e	8b 45 08	 mov	 eax, DWORD PTR ___$ReturnUdt$[ebp]
  00031	89 08		 mov	 DWORD PTR [eax], ecx

; 1451 : 		}

  00033	5d		 pop	 ebp
  00034	c2 08 00	 ret	 8
?lower_bound@?$_Tree@V?$_Tmap_traits@HU_LUCKY_ITEM_INFO@@U?$less@H@std@@V?$allocator@U?$pair@$$CBHU_LUCKY_ITEM_INFO@@@std@@@3@$0A@@std@@@std@@QAE?AV?$_Tree_iterator@V?$_Tree_val@V?$_Tmap_traits@HU_LUCKY_ITEM_INFO@@U?$less@H@std@@V?$allocator@U?$pair@$$CBHU_LUCKY_ITEM_INFO@@@std@@@3@$0A@@std@@@std@@@2@ABH@Z ENDP ; std::_Tree<std::_Tmap_traits<int,_LUCKY_ITEM_INFO,std::less<int>,std::allocator<std::pair<int const ,_LUCKY_ITEM_INFO> >,0> >::lower_bound
_TEXT	ENDS
PUBLIC	?clear@?$_Tree@V?$_Tmap_traits@HU_LUCKY_ITEM_INFO@@U?$less@H@std@@V?$allocator@U?$pair@$$CBHU_LUCKY_ITEM_INFO@@@std@@@3@$0A@@std@@@std@@QAEXXZ ; std::_Tree<std::_Tmap_traits<int,_LUCKY_ITEM_INFO,std::less<int>,std::allocator<std::pair<int const ,_LUCKY_ITEM_INFO> >,0> >::clear
; Function compile flags: /Ogtp
;	COMDAT ?clear@?$_Tree@V?$_Tmap_traits@HU_LUCKY_ITEM_INFO@@U?$less@H@std@@V?$allocator@U?$pair@$$CBHU_LUCKY_ITEM_INFO@@@std@@@3@$0A@@std@@@std@@QAEXXZ
_TEXT	SEGMENT
?clear@?$_Tree@V?$_Tmap_traits@HU_LUCKY_ITEM_INFO@@U?$less@H@std@@V?$allocator@U?$pair@$$CBHU_LUCKY_ITEM_INFO@@@std@@@3@$0A@@std@@@std@@QAEXXZ PROC ; std::_Tree<std::_Tmap_traits<int,_LUCKY_ITEM_INFO,std::less<int>,std::allocator<std::pair<int const ,_LUCKY_ITEM_INFO> >,0> >::clear, COMDAT
; _this$ = ecx

; 1410 : 		{	// erase all

  00000	53		 push	 ebx
  00001	56		 push	 esi
  00002	57		 push	 edi
  00003	8b f9		 mov	 edi, ecx

; 1411 :  #if _ITERATOR_DEBUG_LEVEL == 2
; 1412 : 		this->_Orphan_ptr(*this, 0);
; 1413 :  #endif /* _ITERATOR_DEBUG_LEVEL == 2 */
; 1414 : 
; 1415 : 		_Erase(_Root());

  00005	8b 47 04	 mov	 eax, DWORD PTR [edi+4]
  00008	8b 58 04	 mov	 ebx, DWORD PTR [eax+4]
  0000b	80 bb b5 01 00
	00 00		 cmp	 BYTE PTR [ebx+437], 0
  00012	8b f3		 mov	 esi, ebx
  00014	75 21		 jne	 SHORT $LN7@clear
$LL9@clear:
  00016	8b 4e 08	 mov	 ecx, DWORD PTR [esi+8]
  00019	51		 push	 ecx
  0001a	8b cf		 mov	 ecx, edi
  0001c	e8 00 00 00 00	 call	 ?_Erase@?$_Tree@V?$_Tmap_traits@HU_LUCKY_ITEM_INFO@@U?$less@H@std@@V?$allocator@U?$pair@$$CBHU_LUCKY_ITEM_INFO@@@std@@@3@$0A@@std@@@std@@IAEXPAU_Node@?$_Tree_nod@V?$_Tmap_traits@HU_LUCKY_ITEM_INFO@@U?$less@H@std@@V?$allocator@U?$pair@$$CBHU_LUCKY_ITEM_INFO@@@std@@@3@$0A@@std@@@2@@Z ; std::_Tree<std::_Tmap_traits<int,_LUCKY_ITEM_INFO,std::less<int>,std::allocator<std::pair<int const ,_LUCKY_ITEM_INFO> >,0> >::_Erase
  00021	8b 36		 mov	 esi, DWORD PTR [esi]
  00023	53		 push	 ebx
  00024	e8 00 00 00 00	 call	 ??3@YAXPAX@Z		; operator delete
  00029	83 c4 04	 add	 esp, 4
  0002c	80 be b5 01 00
	00 00		 cmp	 BYTE PTR [esi+437], 0
  00033	8b de		 mov	 ebx, esi
  00035	74 df		 je	 SHORT $LL9@clear
$LN7@clear:

; 1416 : 		_Root() = this->_Myhead;

  00037	8b 47 04	 mov	 eax, DWORD PTR [edi+4]
  0003a	89 40 04	 mov	 DWORD PTR [eax+4], eax

; 1417 : 		_Lmost() = this->_Myhead;

  0003d	8b 47 04	 mov	 eax, DWORD PTR [edi+4]
  00040	89 00		 mov	 DWORD PTR [eax], eax

; 1418 : 		_Rmost() = this->_Myhead;

  00042	8b 47 04	 mov	 eax, DWORD PTR [edi+4]
  00045	89 40 08	 mov	 DWORD PTR [eax+8], eax

; 1419 : 		this->_Mysize = 0;

  00048	c7 47 08 00 00
	00 00		 mov	 DWORD PTR [edi+8], 0
  0004f	5f		 pop	 edi
  00050	5e		 pop	 esi
  00051	5b		 pop	 ebx

; 1420 : 		}

  00052	c3		 ret	 0
?clear@?$_Tree@V?$_Tmap_traits@HU_LUCKY_ITEM_INFO@@U?$less@H@std@@V?$allocator@U?$pair@$$CBHU_LUCKY_ITEM_INFO@@@std@@@3@$0A@@std@@@std@@QAEXXZ ENDP ; std::_Tree<std::_Tmap_traits<int,_LUCKY_ITEM_INFO,std::less<int>,std::allocator<std::pair<int const ,_LUCKY_ITEM_INFO> >,0> >::clear
_TEXT	ENDS
PUBLIC	?IsLuckyItemEquipment@LuckyItemManager@@QAEHH@Z	; LuckyItemManager::IsLuckyItemEquipment
; Function compile flags: /Ogtp
; File c:\muserver_dev\development\mu-s8ep2-repack\gameserver\source\luckyitem.cpp
;	COMDAT ?IsLuckyItemEquipment@LuckyItemManager@@QAEHH@Z
_TEXT	SEGMENT
_iItemNum$ = 8						; size = 4
?IsLuckyItemEquipment@LuckyItemManager@@QAEHH@Z PROC	; LuckyItemManager::IsLuckyItemEquipment, COMDAT
; _this$ = ecx

; 384  : {

  00000	55		 push	 ebp
  00001	8b ec		 mov	 ebp, esp
  00003	57		 push	 edi

; 385  : 	if( iItemNum < 0 )

  00004	8b 7d 08	 mov	 edi, DWORD PTR _iItemNum$[ebp]
  00007	85 ff		 test	 edi, edi
  00009	79 07		 jns	 SHORT $LN8@IsLuckyIte

; 386  : 	{
; 387  : 		return false;

  0000b	33 c0		 xor	 eax, eax
  0000d	5f		 pop	 edi

; 404  : }

  0000e	5d		 pop	 ebp
  0000f	c2 04 00	 ret	 4
$LN8@IsLuckyIte:
  00012	56		 push	 esi

; 388  : 	}
; 389  : 	// ----
; 390  : 	for( std::map<int, _LUCKY_ITEM_INFO>::iterator Iter = this->LuckyItemInfo.begin(); Iter != this->LuckyItemInfo.end(); Iter++ )

  00013	8b 71 08	 mov	 esi, DWORD PTR [ecx+8]
  00016	8b 0e		 mov	 ecx, DWORD PTR [esi]
  00018	3b ce		 cmp	 ecx, esi
  0001a	74 7d		 je	 SHORT $LN5@IsLuckyIte
  0001c	8d 64 24 00	 npad	 4
$LL33@IsLuckyIte:

; 391  : 	{
; 392  : 		_LUCKY_ITEM_INFO * pLuckyItemInfo = &Iter->second;
; 393  : 		// ----
; 394  : 		for( int i = 0; i < MAX_LUCKYINFO_ITEMEQUIPMENT; i++ )

  00020	33 c0		 xor	 eax, eax
  00022	8d 91 b0 00 00
	00		 lea	 edx, DWORD PTR [ecx+176]
$LL4@IsLuckyIte:

; 395  : 		{
; 396  : 			if( pLuckyItemInfo->m_ItemEquipment[i].m_Index == iItemNum )

  00028	39 3a		 cmp	 DWORD PTR [edx], edi
  0002a	74 75		 je	 SHORT $LN89@IsLuckyIte

; 391  : 	{
; 392  : 		_LUCKY_ITEM_INFO * pLuckyItemInfo = &Iter->second;
; 393  : 		// ----
; 394  : 		for( int i = 0; i < MAX_LUCKYINFO_ITEMEQUIPMENT; i++ )

  0002c	40		 inc	 eax
  0002d	83 c2 14	 add	 edx, 20			; 00000014H
  00030	83 f8 07	 cmp	 eax, 7
  00033	7c f3		 jl	 SHORT $LL4@IsLuckyIte

; 388  : 	}
; 389  : 	// ----
; 390  : 	for( std::map<int, _LUCKY_ITEM_INFO>::iterator Iter = this->LuckyItemInfo.begin(); Iter != this->LuckyItemInfo.end(); Iter++ )

  00035	80 b9 b5 01 00
	00 00		 cmp	 BYTE PTR [ecx+437], 0
  0003c	75 57		 jne	 SHORT $LN93@IsLuckyIte
  0003e	8b 41 08	 mov	 eax, DWORD PTR [ecx+8]
  00041	80 b8 b5 01 00
	00 00		 cmp	 BYTE PTR [eax+437], 0
  00048	75 25		 jne	 SHORT $LN88@IsLuckyIte
  0004a	8b c8		 mov	 ecx, eax
  0004c	8b 01		 mov	 eax, DWORD PTR [ecx]
  0004e	80 b8 b5 01 00
	00 00		 cmp	 BYTE PTR [eax+437], 0
  00055	75 3e		 jne	 SHORT $LN93@IsLuckyIte
  00057	eb 07 8d a4 24
	00 00 00 00	 npad	 9
$LL48@IsLuckyIte:
  00060	8b c8		 mov	 ecx, eax
  00062	8b 01		 mov	 eax, DWORD PTR [ecx]
  00064	80 b8 b5 01 00
	00 00		 cmp	 BYTE PTR [eax+437], 0
  0006b	74 f3		 je	 SHORT $LL48@IsLuckyIte
  0006d	eb 26		 jmp	 SHORT $LN93@IsLuckyIte
$LN88@IsLuckyIte:
  0006f	8b 41 04	 mov	 eax, DWORD PTR [ecx+4]
  00072	80 b8 b5 01 00
	00 00		 cmp	 BYTE PTR [eax+437], 0
  00079	75 18		 jne	 SHORT $LN31@IsLuckyIte
  0007b	eb 03 8d 49 00	 npad	 5
$LL32@IsLuckyIte:
  00080	3b 48 08	 cmp	 ecx, DWORD PTR [eax+8]
  00083	75 0e		 jne	 SHORT $LN31@IsLuckyIte
  00085	8b c8		 mov	 ecx, eax
  00087	8b 40 04	 mov	 eax, DWORD PTR [eax+4]
  0008a	80 b8 b5 01 00
	00 00		 cmp	 BYTE PTR [eax+437], 0
  00091	74 ed		 je	 SHORT $LL32@IsLuckyIte
$LN31@IsLuckyIte:
  00093	8b c8		 mov	 ecx, eax
$LN93@IsLuckyIte:
  00095	3b ce		 cmp	 ecx, esi
  00097	75 87		 jne	 SHORT $LL33@IsLuckyIte
$LN5@IsLuckyIte:
  00099	5e		 pop	 esi

; 399  : 			}
; 400  : 		}
; 401  : 	}
; 402  : 	// ----
; 403  : 	return false;

  0009a	33 c0		 xor	 eax, eax
  0009c	5f		 pop	 edi

; 404  : }

  0009d	5d		 pop	 ebp
  0009e	c2 04 00	 ret	 4
$LN89@IsLuckyIte:
  000a1	5e		 pop	 esi

; 397  : 			{
; 398  : 				return true;

  000a2	b8 01 00 00 00	 mov	 eax, 1
  000a7	5f		 pop	 edi

; 404  : }

  000a8	5d		 pop	 ebp
  000a9	c2 04 00	 ret	 4
?IsLuckyItemEquipment@LuckyItemManager@@QAEHH@Z ENDP	; LuckyItemManager::IsLuckyItemEquipment
_TEXT	ENDS
PUBLIC	?GetSmeltingRateInfo@LuckyItemManager@@QAEPAU_SMELT_RATE@@H@Z ; LuckyItemManager::GetSmeltingRateInfo
; Function compile flags: /Ogtp
;	COMDAT ?GetSmeltingRateInfo@LuckyItemManager@@QAEPAU_SMELT_RATE@@H@Z
_TEXT	SEGMENT
_iItemNum$ = 8						; size = 4
?GetSmeltingRateInfo@LuckyItemManager@@QAEPAU_SMELT_RATE@@H@Z PROC ; LuckyItemManager::GetSmeltingRateInfo, COMDAT
; _this$ = ecx

; 409  : {

  00000	55		 push	 ebp
  00001	8b ec		 mov	 ebp, esp
  00003	57		 push	 edi

; 410  : 	if( iItemNum < 0 )

  00004	8b 7d 08	 mov	 edi, DWORD PTR _iItemNum$[ebp]
  00007	85 ff		 test	 edi, edi
  00009	79 07		 jns	 SHORT $LN8@GetSmeltin

; 411  : 	{
; 412  : 		return false;

  0000b	33 c0		 xor	 eax, eax
  0000d	5f		 pop	 edi

; 429  : }

  0000e	5d		 pop	 ebp
  0000f	c2 04 00	 ret	 4
$LN8@GetSmeltin:
  00012	56		 push	 esi

; 413  : 	}
; 414  : 	// ----
; 415  : 	for( std::map<int, _LUCKY_ITEM_INFO>::iterator Iter = this->LuckyItemInfo.begin(); Iter != this->LuckyItemInfo.end(); Iter++ )

  00013	8b 71 08	 mov	 esi, DWORD PTR [ecx+8]
  00016	8b 0e		 mov	 ecx, DWORD PTR [esi]
  00018	3b ce		 cmp	 ecx, esi
  0001a	74 7d		 je	 SHORT $LN5@GetSmeltin
  0001c	8d 64 24 00	 npad	 4
$LL33@GetSmeltin:

; 416  : 	{
; 417  : 		_LUCKY_ITEM_INFO * pLuckyItemInfo = &Iter->second;
; 418  : 		// ----
; 419  : 		for( int i = 0; i < MAX_LUCKYINFO_ITEMEQUIPMENT; i++ )

  00020	33 c0		 xor	 eax, eax
  00022	8d 91 b0 00 00
	00		 lea	 edx, DWORD PTR [ecx+176]
$LL4@GetSmeltin:

; 420  : 		{
; 421  : 			if( pLuckyItemInfo->m_ItemEquipment[i].m_Index == iItemNum )

  00028	39 3a		 cmp	 DWORD PTR [edx], edi
  0002a	74 75		 je	 SHORT $LN89@GetSmeltin

; 416  : 	{
; 417  : 		_LUCKY_ITEM_INFO * pLuckyItemInfo = &Iter->second;
; 418  : 		// ----
; 419  : 		for( int i = 0; i < MAX_LUCKYINFO_ITEMEQUIPMENT; i++ )

  0002c	40		 inc	 eax
  0002d	83 c2 14	 add	 edx, 20			; 00000014H
  00030	83 f8 07	 cmp	 eax, 7
  00033	7c f3		 jl	 SHORT $LL4@GetSmeltin

; 413  : 	}
; 414  : 	// ----
; 415  : 	for( std::map<int, _LUCKY_ITEM_INFO>::iterator Iter = this->LuckyItemInfo.begin(); Iter != this->LuckyItemInfo.end(); Iter++ )

  00035	80 b9 b5 01 00
	00 00		 cmp	 BYTE PTR [ecx+437], 0
  0003c	75 57		 jne	 SHORT $LN93@GetSmeltin
  0003e	8b 41 08	 mov	 eax, DWORD PTR [ecx+8]
  00041	80 b8 b5 01 00
	00 00		 cmp	 BYTE PTR [eax+437], 0
  00048	75 25		 jne	 SHORT $LN88@GetSmeltin
  0004a	8b c8		 mov	 ecx, eax
  0004c	8b 01		 mov	 eax, DWORD PTR [ecx]
  0004e	80 b8 b5 01 00
	00 00		 cmp	 BYTE PTR [eax+437], 0
  00055	75 3e		 jne	 SHORT $LN93@GetSmeltin
  00057	eb 07 8d a4 24
	00 00 00 00	 npad	 9
$LL48@GetSmeltin:
  00060	8b c8		 mov	 ecx, eax
  00062	8b 01		 mov	 eax, DWORD PTR [ecx]
  00064	80 b8 b5 01 00
	00 00		 cmp	 BYTE PTR [eax+437], 0
  0006b	74 f3		 je	 SHORT $LL48@GetSmeltin
  0006d	eb 26		 jmp	 SHORT $LN93@GetSmeltin
$LN88@GetSmeltin:
  0006f	8b 41 04	 mov	 eax, DWORD PTR [ecx+4]
  00072	80 b8 b5 01 00
	00 00		 cmp	 BYTE PTR [eax+437], 0
  00079	75 18		 jne	 SHORT $LN31@GetSmeltin
  0007b	eb 03 8d 49 00	 npad	 5
$LL32@GetSmeltin:
  00080	3b 48 08	 cmp	 ecx, DWORD PTR [eax+8]
  00083	75 0e		 jne	 SHORT $LN31@GetSmeltin
  00085	8b c8		 mov	 ecx, eax
  00087	8b 40 04	 mov	 eax, DWORD PTR [eax+4]
  0008a	80 b8 b5 01 00
	00 00		 cmp	 BYTE PTR [eax+437], 0
  00091	74 ed		 je	 SHORT $LL32@GetSmeltin
$LN31@GetSmeltin:
  00093	8b c8		 mov	 ecx, eax
$LN93@GetSmeltin:
  00095	3b ce		 cmp	 ecx, esi
  00097	75 87		 jne	 SHORT $LL33@GetSmeltin
$LN5@GetSmeltin:
  00099	5e		 pop	 esi

; 424  : 			}
; 425  : 		}
; 426  : 	}
; 427  : 	// ----
; 428  : 	return false;

  0009a	33 c0		 xor	 eax, eax
  0009c	5f		 pop	 edi

; 429  : }

  0009d	5d		 pop	 ebp
  0009e	c2 04 00	 ret	 4
$LN89@GetSmeltin:
  000a1	5e		 pop	 esi

; 422  : 			{
; 423  : 				return pLuckyItemInfo->m_ItemSmeltRate;	//-> Need check

  000a2	8d 81 3c 01 00
	00		 lea	 eax, DWORD PTR [ecx+316]
  000a8	5f		 pop	 edi

; 429  : }

  000a9	5d		 pop	 ebp
  000aa	c2 04 00	 ret	 4
?GetSmeltingRateInfo@LuckyItemManager@@QAEPAU_SMELT_RATE@@H@Z ENDP ; LuckyItemManager::GetSmeltingRateInfo
_TEXT	ENDS
PUBLIC	??_C@_0DL@HFMKABAL@?$FLLuckyItem?$FN?5?9?5Gamble?5Smelting?5iR@ ; `string'
PUBLIC	__real@4058c00000000000
PUBLIC	__real@40dfffc000000000
PUBLIC	?GambleLuckyItemSmelting@LuckyItemManager@@QAEHHH@Z ; LuckyItemManager::GambleLuckyItemSmelting
;	COMDAT ??_C@_0DL@HFMKABAL@?$FLLuckyItem?$FN?5?9?5Gamble?5Smelting?5iR@
CONST	SEGMENT
??_C@_0DL@HFMKABAL@?$FLLuckyItem?$FN?5?9?5Gamble?5Smelting?5iR@ DB '[Luck'
	DB	'yItem] - Gamble Smelting iRand %d iRandRate %d Dur %d', 00H ; `string'
CONST	ENDS
;	COMDAT __real@4058c00000000000
CONST	SEGMENT
__real@4058c00000000000 DQ 04058c00000000000r	; 99
CONST	ENDS
;	COMDAT __real@40dfffc000000000
CONST	SEGMENT
__real@40dfffc000000000 DQ 040dfffc000000000r	; 32767
; Function compile flags: /Ogtp
CONST	ENDS
;	COMDAT ?GambleLuckyItemSmelting@LuckyItemManager@@QAEHHH@Z
_TEXT	SEGMENT
tv213 = 8						; size = 4
_iItemNum$ = 8						; size = 4
_iDur$ = 12						; size = 4
?GambleLuckyItemSmelting@LuckyItemManager@@QAEHHH@Z PROC ; LuckyItemManager::GambleLuckyItemSmelting, COMDAT
; _this$ = ecx

; 699  : {

  00000	55		 push	 ebp
  00001	8b ec		 mov	 ebp, esp

; 700  : 	int iRandRate			= 0;	//ebp-0c
; 701  : 	_SMELT_RATE * SmeltRate = this->GetSmeltingRateInfo(iItemNum);	//ebp-8

  00003	8b 45 08	 mov	 eax, DWORD PTR _iItemNum$[ebp]
  00006	53		 push	 ebx
  00007	56		 push	 esi
  00008	57		 push	 edi
  00009	50		 push	 eax
  0000a	33 db		 xor	 ebx, ebx
  0000c	e8 00 00 00 00	 call	 ?GetSmeltingRateInfo@LuckyItemManager@@QAEPAU_SMELT_RATE@@H@Z ; LuckyItemManager::GetSmeltingRateInfo
  00011	8b 7d 0c	 mov	 edi, DWORD PTR _iDur$[ebp]

; 702  : 	// ----
; 703  : 	for( int i = 0; i < MAX_LUCKYINFO_SMELTRATE; i++ )	//ebp-10

  00014	33 c9		 xor	 ecx, ecx
  00016	8b d0		 mov	 edx, eax
$LL5@GambleLuck:

; 704  : 	{
; 705  : 		if( iDur <= SmeltRate[i].MaxDur && iDur >= SmeltRate[i].MinDur )

  00018	3b 7a 04	 cmp	 edi, DWORD PTR [edx+4]
  0001b	7f 04		 jg	 SHORT $LN4@GambleLuck
  0001d	3b 3a		 cmp	 edi, DWORD PTR [edx]
  0001f	7d 0b		 jge	 SHORT $LN9@GambleLuck
$LN4@GambleLuck:

; 702  : 	// ----
; 703  : 	for( int i = 0; i < MAX_LUCKYINFO_SMELTRATE; i++ )	//ebp-10

  00021	41		 inc	 ecx
  00022	83 c2 0c	 add	 edx, 12			; 0000000cH
  00025	83 f9 0a	 cmp	 ecx, 10			; 0000000aH
  00028	7c ee		 jl	 SHORT $LL5@GambleLuck

; 704  : 	{
; 705  : 		if( iDur <= SmeltRate[i].MaxDur && iDur >= SmeltRate[i].MinDur )

  0002a	eb 07		 jmp	 SHORT $LN3@GambleLuck
$LN9@GambleLuck:

; 706  : 		{
; 707  : 			iRandRate = SmeltRate[i].SmeltRate;

  0002c	8d 0c 49	 lea	 ecx, DWORD PTR [ecx+ecx*2]
  0002f	8b 5c 88 08	 mov	 ebx, DWORD PTR [eax+ecx*4+8]
$LN3@GambleLuck:

; 708  : 			break;
; 709  : 		}
; 710  : 	}
; 711  : 	// ----
; 712  : 	int iRand = (int)(rand() / 32767.0f * 99.0f);

  00033	e8 00 00 00 00	 call	 _rand
  00038	89 45 08	 mov	 DWORD PTR tv213[ebp], eax
  0003b	db 45 08	 fild	 DWORD PTR tv213[ebp]
  0003e	dc 35 00 00 00
	00		 fdiv	 QWORD PTR __real@40dfffc000000000
  00044	dc 0d 00 00 00
	00		 fmul	 QWORD PTR __real@4058c00000000000
  0004a	e8 00 00 00 00	 call	 __ftol2_sse

; 713  : 	LogAddTD("[LuckyItem] - Gamble Smelting iRand %d iRandRate %d Dur %d", iRand, iRandRate, iDur);

  0004f	57		 push	 edi
  00050	8b f0		 mov	 esi, eax
  00052	53		 push	 ebx
  00053	56		 push	 esi
  00054	68 00 00 00 00	 push	 OFFSET ??_C@_0DL@HFMKABAL@?$FLLuckyItem?$FN?5?9?5Gamble?5Smelting?5iR@
  00059	ff 15 00 00 00
	00		 call	 DWORD PTR ?LogAddTD@@3P6AXPADZZA ; LogAddTD
  0005f	83 c4 10	 add	 esp, 16			; 00000010H

; 714  : 	// ----
; 715  : 	if( iRand < iRandRate )

  00062	33 c0		 xor	 eax, eax
  00064	3b f3		 cmp	 esi, ebx
  00066	5f		 pop	 edi
  00067	5e		 pop	 esi
  00068	0f 9c c0	 setl	 al
  0006b	5b		 pop	 ebx

; 716  : 	{
; 717  : 		return true;
; 718  : 	}
; 719  : 	// -----
; 720  : 	return false;
; 721  : }

  0006c	5d		 pop	 ebp
  0006d	c2 08 00	 ret	 8
?GambleLuckyItemSmelting@LuckyItemManager@@QAEHHH@Z ENDP ; LuckyItemManager::GambleLuckyItemSmelting
_TEXT	ENDS
PUBLIC	??_C@_0DN@KBJGOMDF@?$FLLuckyItem?$FN?$FLRepaireItemUsed?$FN?5?9?5S@ ; `string'
PUBLIC	??_C@_0FE@JDOHOIGK@?$FLLuckyItem?$FN?$FLRepaireItemUsed?$FN?5?9?5F@ ; `string'
PUBLIC	??_C@_0EK@EAMADFDG@?$FLLuckyItem?$FN?$FLRepaireItemUsed?$FN?5?9?5F@ ; `string'
PUBLIC	__real@00000000
PUBLIC	??_C@_0FC@OLGFGFCA@?$FLLuckyItem?$FN?$FLRepaireItemUsed?$FN?5?9?5F@ ; `string'
PUBLIC	?LuckyItemRepaire@LuckyItemManager@@QAEHPAUOBJECTSTRUCT@@HH@Z ; LuckyItemManager::LuckyItemRepaire
EXTRN	?ItemAttribute@@3PAUITEM_ATTRIBUTE@@A:BYTE	; ItemAttribute
EXTRN	?GCServerMsgStringSend@@YAXPADHE@Z:PROC		; GCServerMsgStringSend
EXTRN	?Get@Message@@QAEPADH@Z:PROC			; Message::Get
EXTRN	?lMsg@@3VMessage@@A:BYTE			; lMsg
;	COMDAT ??_C@_0DN@KBJGOMDF@?$FLLuckyItem?$FN?$FLRepaireItemUsed?$FN?5?9?5S@
CONST	SEGMENT
??_C@_0DN@KBJGOMDF@?$FLLuckyItem?$FN?$FLRepaireItemUsed?$FN?5?9?5S@ DB '['
	DB	'LuckyItem][RepaireItemUsed] - Success - [%s][%s] Serial[%u]', 00H ; `string'
CONST	ENDS
;	COMDAT ??_C@_0FE@JDOHOIGK@?$FLLuckyItem?$FN?$FLRepaireItemUsed?$FN?5?9?5F@
CONST	SEGMENT
??_C@_0FE@JDOHOIGK@?$FLLuckyItem?$FN?$FLRepaireItemUsed?$FN?5?9?5F@ DB '['
	DB	'LuckyItem][RepaireItemUsed] - Fail - Equipment Full Durabilit'
	DB	'y [%s][%s] Serial[%u]', 00H			; `string'
CONST	ENDS
;	COMDAT ??_C@_0EK@EAMADFDG@?$FLLuckyItem?$FN?$FLRepaireItemUsed?$FN?5?9?5F@
CONST	SEGMENT
??_C@_0EK@EAMADFDG@?$FLLuckyItem?$FN?$FLRepaireItemUsed?$FN?5?9?5F@ DB '['
	DB	'LuckyItem][RepaireItemUsed] - Fail - Durability Zero [%s][%s]'
	DB	' Serial[%u]', 00H				; `string'
CONST	ENDS
;	COMDAT __real@00000000
CONST	SEGMENT
__real@00000000 DD 000000000r			; 0
CONST	ENDS
;	COMDAT ??_C@_0FC@OLGFGFCA@?$FLLuckyItem?$FN?$FLRepaireItemUsed?$FN?5?9?5F@
CONST	SEGMENT
??_C@_0FC@OLGFGFCA@?$FLLuckyItem?$FN?$FLRepaireItemUsed?$FN?5?9?5F@ DB '['
	DB	'LuckyItem][RepaireItemUsed] - Fail - Not LuckyItem Equipment '
	DB	'[%s][%s] Serial[%u]', 00H			; `string'
; Function compile flags: /Ogtp
CONST	ENDS
;	COMDAT ?LuckyItemRepaire@LuckyItemManager@@QAEHPAUOBJECTSTRUCT@@HH@Z
_TEXT	SEGMENT
_LuckyItemEquipment$ = -216				; size = 212
_this$ = -4						; size = 4
_lpObj$ = 8						; size = 4
tv227 = 12						; size = 4
_source$ = 12						; size = 4
_target$ = 16						; size = 4
?LuckyItemRepaire@LuckyItemManager@@QAEHPAUOBJECTSTRUCT@@HH@Z PROC ; LuckyItemManager::LuckyItemRepaire, COMDAT
; _this$ = ecx

; 749  : {

  00000	55		 push	 ebp
  00001	8b ec		 mov	 ebp, esp
  00003	81 ec d8 00 00
	00		 sub	 esp, 216		; 000000d8H
  00009	89 4d fc	 mov	 DWORD PTR _this$[ebp], ecx

; 750  : 	int iAddDur = 255;	//ebp-8
; 751  : 	// ----
; 752  : 	if( source < 0 || source > MAIN_INVENTORY_SIZE-1 )

  0000c	8b 4d 0c	 mov	 ecx, DWORD PTR _source$[ebp]
  0000f	81 f9 cb 00 00
	00		 cmp	 ecx, 203		; 000000cbH
  00015	0f 87 ab 01 00
	00		 ja	 $LN10@LuckyItemR

; 755  : 	}
; 756  : 	// ----
; 757  : 	if( target < 0 || target > MAIN_INVENTORY_SIZE-1 )

  0001b	57		 push	 edi
  0001c	8b 7d 10	 mov	 edi, DWORD PTR _target$[ebp]
  0001f	81 ff cb 00 00
	00		 cmp	 edi, 203		; 000000cbH
  00025	0f 87 92 01 00
	00		 ja	 $LN8@LuckyItemR

; 760  : 	}
; 761  : 	// ----
; 762  : 	if( !lpObj->pInventory[source].IsItem() || !lpObj->pInventory[target].IsItem() )

  0002b	69 c9 d4 00 00
	00		 imul	 ecx, 212		; 000000d4H
  00031	53		 push	 ebx
  00032	8b 5d 08	 mov	 ebx, DWORD PTR _lpObj$[ebp]
  00035	03 8b c0 11 00
	00		 add	 ecx, DWORD PTR [ebx+4544]
  0003b	e8 00 00 00 00	 call	 ?IsItem@CItem@@QAEHXZ	; CItem::IsItem
  00040	85 c0		 test	 eax, eax
  00042	74 7f		 je	 SHORT $LN6@LuckyItemR
  00044	8b 8b c0 11 00
	00		 mov	 ecx, DWORD PTR [ebx+4544]
  0004a	69 ff d4 00 00
	00		 imul	 edi, 212		; 000000d4H
  00050	03 cf		 add	 ecx, edi
  00052	e8 00 00 00 00	 call	 ?IsItem@CItem@@QAEHXZ	; CItem::IsItem
  00057	85 c0		 test	 eax, eax
  00059	74 68		 je	 SHORT $LN6@LuckyItemR

; 763  : 	{
; 764  : 		return false;
; 765  : 	}
; 766  : 	// ----
; 767  : 	CItem LuckyItemEquipment	= lpObj->pInventory[target];	//ebp-0c

  0005b	56		 push	 esi
  0005c	8b b3 c0 11 00
	00		 mov	 esi, DWORD PTR [ebx+4544]
  00062	03 f7		 add	 esi, edi
  00064	b9 35 00 00 00	 mov	 ecx, 53			; 00000035H
  00069	8d bd 28 ff ff
	ff		 lea	 edi, DWORD PTR _LuckyItemEquipment$[ebp]
  0006f	f3 a5		 rep movsd

; 768  : 	int	bLuckyItemEquipment		= this->IsLuckyItemEquipment(LuckyItemEquipment.m_Type);	//ebp-10

  00071	8b 85 2c ff ff
	ff		 mov	 eax, DWORD PTR _LuckyItemEquipment$[ebp+4]
  00077	c1 e8 10	 shr	 eax, 16			; 00000010H

; 769  : 	// ----
; 770  : 	if( !bLuckyItemEquipment )

  0007a	0f bf c8	 movsx	 ecx, ax
  0007d	51		 push	 ecx
  0007e	8b 4d fc	 mov	 ecx, DWORD PTR _this$[ebp]
  00081	e8 00 00 00 00	 call	 ?IsLuckyItemEquipment@LuckyItemManager@@QAEHH@Z ; LuckyItemManager::IsLuckyItemEquipment
  00086	5e		 pop	 esi

; 771  : 	{
; 772  : 		GCServerMsgStringSend(lMsg.Get(3474), lpObj->m_Index, 1);

  00087	6a 01		 push	 1
  00089	85 c0		 test	 eax, eax
  0008b	75 40		 jne	 SHORT $LN5@LuckyItemR
  0008d	8b 13		 mov	 edx, DWORD PTR [ebx]
  0008f	52		 push	 edx
  00090	68 92 0d 00 00	 push	 3474			; 00000d92H
  00095	b9 00 00 00 00	 mov	 ecx, OFFSET ?lMsg@@3VMessage@@A ; lMsg
  0009a	e8 00 00 00 00	 call	 ?Get@Message@@QAEPADH@Z	; Message::Get
  0009f	50		 push	 eax
  000a0	e8 00 00 00 00	 call	 ?GCServerMsgStringSend@@YAXPADHE@Z ; GCServerMsgStringSend

; 773  : 		LogAddTD("[LuckyItem][RepaireItemUsed] - Fail - Not LuckyItem Equipment [%s][%s] Serial[%u]",
; 774  : 			lpObj->AccountID, lpObj->Name, LuckyItemEquipment.m_serial);

  000a5	0f be 85 2c ff
	ff ff		 movsx	 eax, BYTE PTR _LuckyItemEquipment$[ebp+4]
  000ac	50		 push	 eax
  000ad	8d 4b 5d	 lea	 ecx, DWORD PTR [ebx+93]
  000b0	51		 push	 ecx
  000b1	83 c3 52	 add	 ebx, 82			; 00000052H
  000b4	53		 push	 ebx
  000b5	68 00 00 00 00	 push	 OFFSET ??_C@_0FC@OLGFGFCA@?$FLLuckyItem?$FN?$FLRepaireItemUsed?$FN?5?9?5F@

; 782  : 		LogAddTD("[LuckyItem][RepaireItemUsed] - Fail - Durability Zero [%s][%s] Serial[%u]",
; 783  : 			lpObj->AccountID, lpObj->Name, LuckyItemEquipment.m_serial);

  000ba	ff 15 00 00 00
	00		 call	 DWORD PTR ?LogAddTD@@3P6AXPADZZA ; LogAddTD
  000c0	83 c4 1c	 add	 esp, 28			; 0000001cH
$LN6@LuckyItemR:

; 784  : 		// ----
; 785  : 		return false;

  000c3	5b		 pop	 ebx
  000c4	33 c0		 xor	 eax, eax
  000c6	5f		 pop	 edi

; 811  : }

  000c7	8b e5		 mov	 esp, ebp
  000c9	5d		 pop	 ebp
  000ca	c2 0c 00	 ret	 12			; 0000000cH
$LN5@LuckyItemR:

; 775  : 		// ----
; 776  : 		return false;
; 777  : 	}
; 778  : 	// ----
; 779  : 	if( LuckyItemEquipment.m_Durability == 0.0f )

  000cd	d9 85 4c ff ff
	ff		 fld	 DWORD PTR _LuckyItemEquipment$[ebp+36]
  000d3	d9 c0		 fld	 ST(0)
  000d5	d9 ee		 fldz
  000d7	da e9		 fucompp
  000d9	df e0		 fnstsw	 ax
  000db	f6 c4 44	 test	 ah, 68			; 00000044H
  000de	7a 42		 jp	 SHORT $LN4@LuckyItemR

; 780  : 	{
; 781  : 		GCServerMsgStringSend(lMsg.Get(3475), lpObj->m_Index, 1);

  000e0	8b 13		 mov	 edx, DWORD PTR [ebx]
  000e2	dd d8		 fstp	 ST(0)
  000e4	52		 push	 edx
  000e5	68 93 0d 00 00	 push	 3475			; 00000d93H
  000ea	b9 00 00 00 00	 mov	 ecx, OFFSET ?lMsg@@3VMessage@@A ; lMsg
  000ef	e8 00 00 00 00	 call	 ?Get@Message@@QAEPADH@Z	; Message::Get
  000f4	50		 push	 eax
  000f5	e8 00 00 00 00	 call	 ?GCServerMsgStringSend@@YAXPADHE@Z ; GCServerMsgStringSend

; 782  : 		LogAddTD("[LuckyItem][RepaireItemUsed] - Fail - Durability Zero [%s][%s] Serial[%u]",
; 783  : 			lpObj->AccountID, lpObj->Name, LuckyItemEquipment.m_serial);

  000fa	0f be 85 2c ff
	ff ff		 movsx	 eax, BYTE PTR _LuckyItemEquipment$[ebp+4]
  00101	50		 push	 eax
  00102	8d 4b 5d	 lea	 ecx, DWORD PTR [ebx+93]
  00105	51		 push	 ecx
  00106	83 c3 52	 add	 ebx, 82			; 00000052H
  00109	53		 push	 ebx
  0010a	68 00 00 00 00	 push	 OFFSET ??_C@_0EK@EAMADFDG@?$FLLuckyItem?$FN?$FLRepaireItemUsed?$FN?5?9?5F@
  0010f	ff 15 00 00 00
	00		 call	 DWORD PTR ?LogAddTD@@3P6AXPADZZA ; LogAddTD
  00115	83 c4 1c	 add	 esp, 28			; 0000001cH
  00118	5b		 pop	 ebx

; 784  : 		// ----
; 785  : 		return false;

  00119	33 c0		 xor	 eax, eax
  0011b	5f		 pop	 edi

; 811  : }

  0011c	8b e5		 mov	 esp, ebp
  0011e	5d		 pop	 ebp
  0011f	c2 0c 00	 ret	 12			; 0000000cH
$LN4@LuckyItemR:

; 786  : 	}
; 787  : 	// ----
; 788  : 	if( ItemAttribute[LuckyItemEquipment.m_Type].Durability < LuckyItemEquipment.m_Durability )

  00122	0f bf 95 2e ff
	ff ff		 movsx	 edx, WORD PTR _LuckyItemEquipment$[ebp+6]

; 789  : 	{
; 790  : 		GCServerMsgStringSend(lMsg.Get(3475), lpObj->m_Index, 1);

  00129	8b 0b		 mov	 ecx, DWORD PTR [ebx]
  0012b	6b d2 70	 imul	 edx, 112		; 00000070H
  0012e	0f b6 82 30 00
	00 00		 movzx	 eax, BYTE PTR ?ItemAttribute@@3PAUITEM_ATTRIBUTE@@A[edx+48]
  00135	89 45 0c	 mov	 DWORD PTR tv227[ebp], eax
  00138	51		 push	 ecx
  00139	b9 00 00 00 00	 mov	 ecx, OFFSET ?lMsg@@3VMessage@@A ; lMsg
  0013e	db 45 0c	 fild	 DWORD PTR tv227[ebp]
  00141	de d9		 fcompp
  00143	df e0		 fnstsw	 ax
  00145	f6 c4 05	 test	 ah, 5
  00148	7a 38		 jp	 SHORT $LN3@LuckyItemR
  0014a	68 93 0d 00 00	 push	 3475			; 00000d93H
  0014f	e8 00 00 00 00	 call	 ?Get@Message@@QAEPADH@Z	; Message::Get
  00154	50		 push	 eax
  00155	e8 00 00 00 00	 call	 ?GCServerMsgStringSend@@YAXPADHE@Z ; GCServerMsgStringSend

; 791  : 		LogAddTD("[LuckyItem][RepaireItemUsed] - Fail - Equipment Full Durability [%s][%s] Serial[%u]",
; 792  : 			lpObj->AccountID, lpObj->Name, LuckyItemEquipment.m_serial);

  0015a	0f be 95 2c ff
	ff ff		 movsx	 edx, BYTE PTR _LuckyItemEquipment$[ebp+4]
  00161	52		 push	 edx
  00162	8d 43 5d	 lea	 eax, DWORD PTR [ebx+93]
  00165	50		 push	 eax
  00166	83 c3 52	 add	 ebx, 82			; 00000052H
  00169	53		 push	 ebx
  0016a	68 00 00 00 00	 push	 OFFSET ??_C@_0FE@JDOHOIGK@?$FLLuckyItem?$FN?$FLRepaireItemUsed?$FN?5?9?5F@
  0016f	ff 15 00 00 00
	00		 call	 DWORD PTR ?LogAddTD@@3P6AXPADZZA ; LogAddTD
  00175	83 c4 1c	 add	 esp, 28			; 0000001cH
  00178	5b		 pop	 ebx
  00179	33 c0		 xor	 eax, eax
  0017b	5f		 pop	 edi

; 811  : }

  0017c	8b e5		 mov	 esp, ebp
  0017e	5d		 pop	 ebp
  0017f	c2 0c 00	 ret	 12			; 0000000cH
$LN3@LuckyItemR:

; 793  : 		// ----
; 794  : 		return false;
; 795  : 	}
; 796  : 	// ----
; 797  : 	if( ItemAttribute[LuckyItemEquipment.m_Type].Durability >= LuckyItemEquipment.m_Durability + 255.0f )
; 798  : 	{
; 799  : 		LuckyItemEquipment.m_Durability += 255.0f;
; 800  : 	}
; 801  : 	else
; 802  : 	{
; 803  : 		LuckyItemEquipment.m_Durability = ItemAttribute[LuckyItemEquipment.m_Type].Durability;
; 804  : 	}
; 805  : 	// ----
; 806  : 	GCServerMsgStringSend(lMsg.Get(3478), lpObj->m_Index, 1);

  00182	68 96 0d 00 00	 push	 3478			; 00000d96H
  00187	e8 00 00 00 00	 call	 ?Get@Message@@QAEPADH@Z	; Message::Get
  0018c	50		 push	 eax
  0018d	e8 00 00 00 00	 call	 ?GCServerMsgStringSend@@YAXPADHE@Z ; GCServerMsgStringSend

; 807  : 	LogAddTD("[LuckyItem][RepaireItemUsed] - Success - [%s][%s] Serial[%u]",
; 808  : 		lpObj->AccountID, lpObj->Name, LuckyItemEquipment.m_serial);

  00192	0f be 95 2c ff
	ff ff		 movsx	 edx, BYTE PTR _LuckyItemEquipment$[ebp+4]
  00199	52		 push	 edx
  0019a	8d 43 5d	 lea	 eax, DWORD PTR [ebx+93]
  0019d	50		 push	 eax
  0019e	83 c3 52	 add	 ebx, 82			; 00000052H
  001a1	53		 push	 ebx
  001a2	68 00 00 00 00	 push	 OFFSET ??_C@_0DN@KBJGOMDF@?$FLLuckyItem?$FN?$FLRepaireItemUsed?$FN?5?9?5S@
  001a7	ff 15 00 00 00
	00		 call	 DWORD PTR ?LogAddTD@@3P6AXPADZZA ; LogAddTD
  001ad	83 c4 1c	 add	 esp, 28			; 0000001cH
  001b0	5b		 pop	 ebx

; 809  : 	// ----
; 810  : 	return true;

  001b1	b8 01 00 00 00	 mov	 eax, 1
  001b6	5f		 pop	 edi

; 811  : }

  001b7	8b e5		 mov	 esp, ebp
  001b9	5d		 pop	 ebp
  001ba	c2 0c 00	 ret	 12			; 0000000cH
$LN8@LuckyItemR:

; 758  : 	{
; 759  : 		return false;

  001bd	33 c0		 xor	 eax, eax
  001bf	5f		 pop	 edi

; 811  : }

  001c0	8b e5		 mov	 esp, ebp
  001c2	5d		 pop	 ebp
  001c3	c2 0c 00	 ret	 12			; 0000000cH
$LN10@LuckyItemR:

; 753  : 	{
; 754  : 		return false;

  001c6	33 c0		 xor	 eax, eax

; 811  : }

  001c8	8b e5		 mov	 esp, ebp
  001ca	5d		 pop	 ebp
  001cb	c2 0c 00	 ret	 12			; 0000000cH
?LuckyItemRepaire@LuckyItemManager@@QAEHPAUOBJECTSTRUCT@@HH@Z ENDP ; LuckyItemManager::LuckyItemRepaire
_TEXT	ENDS
PUBLIC	_this$GSCopy$
PUBLIC	__$ArrayPad$
PUBLIC	?GDReqLuckyItemInsert2nd@LuckyItemManager@@QAEXH@Z ; LuckyItemManager::GDReqLuckyItemInsert2nd
; Function compile flags: /Ogtp
;	COMDAT ?GDReqLuckyItemInsert2nd@LuckyItemManager@@QAEXH@Z
_TEXT	SEGMENT
_pItem$181017 = -332					; size = 212
_this$GSCopy$ = -120					; size = 4
_lpObj$ = -116						; size = 4
_i$181013 = -112					; size = 4
_iItemCnt$ = -108					; size = 4
_pMsg$ = -104						; size = 80
_iItemType$ = -24					; size = 20
__$ArrayPad$ = -4					; size = 4
_iObjIndex$ = 8						; size = 4
?GDReqLuckyItemInsert2nd@LuckyItemManager@@QAEXH@Z PROC	; LuckyItemManager::GDReqLuckyItemInsert2nd, COMDAT
; _this$ = ecx

; 845  : {

  00000	55		 push	 ebp
  00001	8b ec		 mov	 ebp, esp
  00003	81 ec 4c 01 00
	00		 sub	 esp, 332		; 0000014cH
  00009	a1 00 00 00 00	 mov	 eax, DWORD PTR ___security_cookie
  0000e	33 c5		 xor	 eax, ebp
  00010	89 45 fc	 mov	 DWORD PTR __$ArrayPad$[ebp], eax
  00013	8b 45 08	 mov	 eax, DWORD PTR _iObjIndex$[ebp]

; 846  : 	int	iItemType[5];
; 847  : 	// ----
; 848  : 	LPOBJ lpObj		= &gObj[iObjIndex];

  00016	69 c0 40 27 00
	00		 imul	 eax, 10048		; 00002740H
  0001c	03 05 00 00 00
	00		 add	 eax, DWORD PTR ?gObj@@3PAUOBJECTSTRUCT@@A ; gObj
  00022	53		 push	 ebx
  00023	89 45 8c	 mov	 DWORD PTR _lpObj$[ebp], eax

; 849  : 	iItemType[0]	= 2;
; 850  : 	iItemType[1]	= 3;
; 851  : 	iItemType[2]	= 4;
; 852  : 	iItemType[3]	= 5;
; 853  : 	iItemType[4]	= 6;
; 854  : 	int iItemCnt	= 0;

  00026	33 c0		 xor	 eax, eax
  00028	56		 push	 esi
  00029	57		 push	 edi
  0002a	89 4d 88	 mov	 DWORD PTR _this$GSCopy$[ebp], ecx
  0002d	c7 45 e8 02 00
	00 00		 mov	 DWORD PTR _iItemType$[ebp], 2
  00034	c7 45 ec 03 00
	00 00		 mov	 DWORD PTR _iItemType$[ebp+4], 3
  0003b	c7 45 f0 04 00
	00 00		 mov	 DWORD PTR _iItemType$[ebp+8], 4
  00042	c7 45 f4 05 00
	00 00		 mov	 DWORD PTR _iItemType$[ebp+12], 5
  00049	c7 45 f8 06 00
	00 00		 mov	 DWORD PTR _iItemType$[ebp+16], 6
  00050	89 45 94	 mov	 DWORD PTR _iItemCnt$[ebp], eax

; 855  : 	// ----
; 856  : 	PMSG_REQ_LUCKYITEM_INSERT_2ND pMsg;
; 857  : 	// ----
; 858  : 	for( int i = 0; i < 5; i++ )

  00053	89 45 90	 mov	 DWORD PTR _i$181013[ebp], eax

; 867  : 			iItemCnt++;

  00056	8d 5d b4	 lea	 ebx, DWORD PTR _pMsg$[ebp+28]
  00059	8d a4 24 00 00
	00 00		 npad	 7
$LL9@GDReqLucky:

; 859  : 	{
; 860  : 		CItem pItem = lpObj->pInventory[iItemType[i]];

  00060	8b 45 90	 mov	 eax, DWORD PTR _i$181013[ebp]
  00063	8b 74 85 e8	 mov	 esi, DWORD PTR _iItemType$[ebp+eax*4]
  00067	8b 4d 8c	 mov	 ecx, DWORD PTR _lpObj$[ebp]
  0006a	69 f6 d4 00 00
	00		 imul	 esi, 212		; 000000d4H
  00070	03 b1 c0 11 00
	00		 add	 esi, DWORD PTR [ecx+4544]
  00076	b9 35 00 00 00	 mov	 ecx, 53			; 00000035H
  0007b	8d bd b4 fe ff
	ff		 lea	 edi, DWORD PTR _pItem$181017[ebp]
  00081	f3 a5		 rep movsd

; 861  : 		// ----
; 862  : 		if( this->IsLuckyItemEquipment(pItem.m_Type) )

  00083	8b 95 b8 fe ff
	ff		 mov	 edx, DWORD PTR _pItem$181017[ebp+4]
  00089	8b 4d 88	 mov	 ecx, DWORD PTR _this$GSCopy$[ebp]
  0008c	c1 ea 10	 shr	 edx, 16			; 00000010H
  0008f	0f bf c2	 movsx	 eax, dx
  00092	50		 push	 eax
  00093	e8 00 00 00 00	 call	 ?IsLuckyItemEquipment@LuckyItemManager@@QAEHH@Z ; LuckyItemManager::IsLuckyItemEquipment
  00098	85 c0		 test	 eax, eax
  0009a	74 24		 je	 SHORT $LN3@GDReqLucky

; 863  : 		{
; 864  : 			pMsg.LuckyItemDBInfo[iItemCnt].dwSerial			= pItem.m_Number;

  0009c	8b 8d b4 fe ff
	ff		 mov	 ecx, DWORD PTR _pItem$181017[ebp]

; 865  : 			pMsg.LuckyItemDBInfo[iItemCnt].wDurabilitySmall	= pItem.m_DurabilitySmall;

  000a2	66 8b 95 dc fe
	ff ff		 mov	 dx, WORD PTR _pItem$181017[ebp+40]

; 866  : 			pMsg.LuckyItemDBInfo[iItemCnt].wItemCode		= pItem.m_Type;

  000a9	66 8b 85 ba fe
	ff ff		 mov	 ax, WORD PTR _pItem$181017[ebp+6]

; 867  : 			iItemCnt++;

  000b0	ff 45 94	 inc	 DWORD PTR _iItemCnt$[ebp]
  000b3	89 4b fc	 mov	 DWORD PTR [ebx-4], ecx
  000b6	66 89 13	 mov	 WORD PTR [ebx], dx
  000b9	66 89 43 f8	 mov	 WORD PTR [ebx-8], ax
  000bd	83 c3 0c	 add	 ebx, 12			; 0000000cH
$LN3@GDReqLucky:

; 855  : 	// ----
; 856  : 	PMSG_REQ_LUCKYITEM_INSERT_2ND pMsg;
; 857  : 	// ----
; 858  : 	for( int i = 0; i < 5; i++ )

  000c0	8b 45 90	 mov	 eax, DWORD PTR _i$181013[ebp]
  000c3	40		 inc	 eax
  000c4	89 45 90	 mov	 DWORD PTR _i$181013[ebp], eax
  000c7	83 f8 05	 cmp	 eax, 5
  000ca	7c 94		 jl	 SHORT $LL9@GDReqLucky

; 868  : 		}
; 869  : 	}
; 870  : 	// ----
; 871  : 	pMsg.btItemCnt	= iItemCnt;
; 872  : 	pMsg.dwUserGuid	= lpObj->DBNumber;

  000cc	8b 45 8c	 mov	 eax, DWORD PTR _lpObj$[ebp]
  000cf	8a 4d 94	 mov	 cl, BYTE PTR _iItemCnt$[ebp]
  000d2	88 4d a0	 mov	 BYTE PTR _pMsg$[ebp+8], cl
  000d5	8b 50 30	 mov	 edx, DWORD PTR [eax+48]
  000d8	89 55 9c	 mov	 DWORD PTR _pMsg$[ebp+4], edx

; 873  : 	memcpy(pMsg.szCharName, lpObj->Name, sizeof(pMsg.szCharName));

  000db	8b 48 5d	 mov	 ecx, DWORD PTR [eax+93]
  000de	89 4d a1	 mov	 DWORD PTR _pMsg$[ebp+9], ecx
  000e1	8b 50 61	 mov	 edx, DWORD PTR [eax+97]
  000e4	89 55 a5	 mov	 DWORD PTR _pMsg$[ebp+13], edx
  000e7	66 8b 48 65	 mov	 cx, WORD PTR [eax+101]

; 874  : 	// ----
; 875  :  	PHeadSubSetB((LPBYTE)&pMsg, 0xD1, 0x24, sizeof(pMsg));

  000eb	6a 50		 push	 80			; 00000050H
  000ed	66 89 4d a9	 mov	 WORD PTR _pMsg$[ebp+17], cx
  000f1	8a 50 67	 mov	 dl, BYTE PTR [eax+103]
  000f4	6a 24		 push	 36			; 00000024H
  000f6	8d 45 98	 lea	 eax, DWORD PTR _pMsg$[ebp]
  000f9	68 d1 00 00 00	 push	 209			; 000000d1H
  000fe	50		 push	 eax
  000ff	88 55 ab	 mov	 BYTE PTR _pMsg$[ebp+19], dl
  00102	e8 00 00 00 00	 call	 ?PHeadSubSetB@@YAXPAEEEH@Z ; PHeadSubSetB

; 876  :  	cDBSMng.Send((LPSTR)&pMsg, pMsg.head.size);

  00107	0f b6 4d 99	 movzx	 ecx, BYTE PTR _pMsg$[ebp+1]
  0010b	83 c4 10	 add	 esp, 16			; 00000010H
  0010e	51		 push	 ecx
  0010f	8d 55 98	 lea	 edx, DWORD PTR _pMsg$[ebp]
  00112	52		 push	 edx
  00113	b9 00 00 00 00	 mov	 ecx, OFFSET ?cDBSMng@@3VDBSockMng@@A ; cDBSMng
  00118	e8 00 00 00 00	 call	 ?Send@DBSockMng@@QAEHPADH@Z ; DBSockMng::Send

; 877  : 	return;
; 878  : }

  0011d	8b 4d fc	 mov	 ecx, DWORD PTR __$ArrayPad$[ebp]
  00120	5f		 pop	 edi
  00121	5e		 pop	 esi
  00122	33 cd		 xor	 ecx, ebp
  00124	5b		 pop	 ebx
  00125	e8 00 00 00 00	 call	 @__security_check_cookie@4
  0012a	8b e5		 mov	 esp, ebp
  0012c	5d		 pop	 ebp
  0012d	c2 04 00	 ret	 4
?GDReqLuckyItemInsert2nd@LuckyItemManager@@QAEXH@Z ENDP	; LuckyItemManager::GDReqLuckyItemInsert2nd
_TEXT	ENDS
PUBLIC	?find@?$_Tree@V?$_Tmap_traits@HU_LUCKY_ITEM_INFO@@U?$less@H@std@@V?$allocator@U?$pair@$$CBHU_LUCKY_ITEM_INFO@@@std@@@3@$0A@@std@@@std@@QAE?AV?$_Tree_iterator@V?$_Tree_val@V?$_Tmap_traits@HU_LUCKY_ITEM_INFO@@U?$less@H@std@@V?$allocator@U?$pair@$$CBHU_LUCKY_ITEM_INFO@@@std@@@3@$0A@@std@@@std@@@2@ABH@Z ; std::_Tree<std::_Tmap_traits<int,_LUCKY_ITEM_INFO,std::less<int>,std::allocator<std::pair<int const ,_LUCKY_ITEM_INFO> >,0> >::find
; Function compile flags: /Ogtp
; File c:\program files (x86)\microsoft visual studio 10.0\vc\include\xtree
;	COMDAT ?find@?$_Tree@V?$_Tmap_traits@HU_LUCKY_ITEM_INFO@@U?$less@H@std@@V?$allocator@U?$pair@$$CBHU_LUCKY_ITEM_INFO@@@std@@@3@$0A@@std@@@std@@QAE?AV?$_Tree_iterator@V?$_Tree_val@V?$_Tmap_traits@HU_LUCKY_ITEM_INFO@@U?$less@H@std@@V?$allocator@U?$pair@$$CBHU_LUCKY_ITEM_INFO@@@std@@@3@$0A@@std@@@std@@@2@ABH@Z
_TEXT	SEGMENT
$T187293 = -4						; size = 4
___$ReturnUdt$ = 8					; size = 4
__Where$ = 12						; size = 4
__Keyval$ = 12						; size = 4
?find@?$_Tree@V?$_Tmap_traits@HU_LUCKY_ITEM_INFO@@U?$less@H@std@@V?$allocator@U?$pair@$$CBHU_LUCKY_ITEM_INFO@@@std@@@3@$0A@@std@@@std@@QAE?AV?$_Tree_iterator@V?$_Tree_val@V?$_Tmap_traits@HU_LUCKY_ITEM_INFO@@U?$less@H@std@@V?$allocator@U?$pair@$$CBHU_LUCKY_ITEM_INFO@@@std@@@3@$0A@@std@@@std@@@2@ABH@Z PROC ; std::_Tree<std::_Tmap_traits<int,_LUCKY_ITEM_INFO,std::less<int>,std::allocator<std::pair<int const ,_LUCKY_ITEM_INFO> >,0> >::find, COMDAT
; _this$ = ecx

; 1423 : 		{	// find an element in mutable sequence that matches _Keyval

  00000	55		 push	 ebp
  00001	8b ec		 mov	 ebp, esp
  00003	51		 push	 ecx

; 1424 : 		iterator _Where = lower_bound(_Keyval);

  00004	8b 51 04	 mov	 edx, DWORD PTR [ecx+4]
  00007	8b 42 04	 mov	 eax, DWORD PTR [edx+4]
  0000a	80 b8 b5 01 00
	00 00		 cmp	 BYTE PTR [eax+437], 0
  00011	57		 push	 edi
  00012	8b 7d 0c	 mov	 edi, DWORD PTR __Keyval$[ebp]
  00015	75 21		 jne	 SHORT $LN9@find
  00017	56		 push	 esi
  00018	8b 37		 mov	 esi, DWORD PTR [edi]
  0001a	8d 9b 00 00 00
	00		 npad	 6
$LL10@find:
  00020	39 70 0c	 cmp	 DWORD PTR [eax+12], esi
  00023	7d 05		 jge	 SHORT $LN8@find
  00025	8b 40 08	 mov	 eax, DWORD PTR [eax+8]
  00028	eb 04		 jmp	 SHORT $LN7@find
$LN8@find:
  0002a	8b d0		 mov	 edx, eax
  0002c	8b 00		 mov	 eax, DWORD PTR [eax]
$LN7@find:
  0002e	80 b8 b5 01 00
	00 00		 cmp	 BYTE PTR [eax+437], 0
  00035	74 e9		 je	 SHORT $LL10@find
  00037	5e		 pop	 esi
$LN9@find:

; 1425 : 		return (_Where == end()
; 1426 : 			|| _DEBUG_LT_PRED(this->comp,
; 1427 : 				_Keyval, this->_Key(_Where._Mynode()))
; 1428 : 					? end() : _Where);

  00038	8b 41 04	 mov	 eax, DWORD PTR [ecx+4]
  0003b	89 55 0c	 mov	 DWORD PTR __Where$[ebp], edx
  0003e	3b d0		 cmp	 edx, eax
  00040	74 18		 je	 SHORT $LN3@find
  00042	8b 0f		 mov	 ecx, DWORD PTR [edi]
  00044	3b 4a 0c	 cmp	 ecx, DWORD PTR [edx+12]
  00047	7c 11		 jl	 SHORT $LN3@find
  00049	8d 45 0c	 lea	 eax, DWORD PTR __Where$[ebp]
  0004c	8b 10		 mov	 edx, DWORD PTR [eax]
  0004e	8b 45 08	 mov	 eax, DWORD PTR ___$ReturnUdt$[ebp]
  00051	89 10		 mov	 DWORD PTR [eax], edx
  00053	5f		 pop	 edi

; 1429 : 		}

  00054	8b e5		 mov	 esp, ebp
  00056	5d		 pop	 ebp
  00057	c2 08 00	 ret	 8
$LN3@find:

; 1425 : 		return (_Where == end()
; 1426 : 			|| _DEBUG_LT_PRED(this->comp,
; 1427 : 				_Keyval, this->_Key(_Where._Mynode()))
; 1428 : 					? end() : _Where);

  0005a	89 45 fc	 mov	 DWORD PTR $T187293[ebp], eax
  0005d	8d 45 fc	 lea	 eax, DWORD PTR $T187293[ebp]
  00060	8b 10		 mov	 edx, DWORD PTR [eax]
  00062	8b 45 08	 mov	 eax, DWORD PTR ___$ReturnUdt$[ebp]
  00065	89 10		 mov	 DWORD PTR [eax], edx
  00067	5f		 pop	 edi

; 1429 : 		}

  00068	8b e5		 mov	 esp, ebp
  0006a	5d		 pop	 ebp
  0006b	c2 08 00	 ret	 8
?find@?$_Tree@V?$_Tmap_traits@HU_LUCKY_ITEM_INFO@@U?$less@H@std@@V?$allocator@U?$pair@$$CBHU_LUCKY_ITEM_INFO@@@std@@@3@$0A@@std@@@std@@QAE?AV?$_Tree_iterator@V?$_Tree_val@V?$_Tmap_traits@HU_LUCKY_ITEM_INFO@@U?$less@H@std@@V?$allocator@U?$pair@$$CBHU_LUCKY_ITEM_INFO@@@std@@@3@$0A@@std@@@std@@@2@ABH@Z ENDP ; std::_Tree<std::_Tmap_traits<int,_LUCKY_ITEM_INFO,std::less<int>,std::allocator<std::pair<int const ,_LUCKY_ITEM_INFO> >,0> >::find
_TEXT	ENDS
PUBLIC	?erase@?$_Tree@V?$_Tmap_traits@HU_LUCKY_ITEM_INFO@@U?$less@H@std@@V?$allocator@U?$pair@$$CBHU_LUCKY_ITEM_INFO@@@std@@@3@$0A@@std@@@std@@QAE?AV?$_Tree_iterator@V?$_Tree_val@V?$_Tmap_traits@HU_LUCKY_ITEM_INFO@@U?$less@H@std@@V?$allocator@U?$pair@$$CBHU_LUCKY_ITEM_INFO@@@std@@@3@$0A@@std@@@std@@@2@V?$_Tree_const_iterator@V?$_Tree_val@V?$_Tmap_traits@HU_LUCKY_ITEM_INFO@@U?$less@H@std@@V?$allocator@U?$pair@$$CBHU_LUCKY_ITEM_INFO@@@std@@@3@$0A@@std@@@std@@@2@0@Z ; std::_Tree<std::_Tmap_traits<int,_LUCKY_ITEM_INFO,std::less<int>,std::allocator<std::pair<int const ,_LUCKY_ITEM_INFO> >,0> >::erase
; Function compile flags: /Ogtp
;	COMDAT ?erase@?$_Tree@V?$_Tmap_traits@HU_LUCKY_ITEM_INFO@@U?$less@H@std@@V?$allocator@U?$pair@$$CBHU_LUCKY_ITEM_INFO@@@std@@@3@$0A@@std@@@std@@QAE?AV?$_Tree_iterator@V?$_Tree_val@V?$_Tmap_traits@HU_LUCKY_ITEM_INFO@@U?$less@H@std@@V?$allocator@U?$pair@$$CBHU_LUCKY_ITEM_INFO@@@std@@@3@$0A@@std@@@std@@@2@V?$_Tree_const_iterator@V?$_Tree_val@V?$_Tmap_traits@HU_LUCKY_ITEM_INFO@@U?$less@H@std@@V?$allocator@U?$pair@$$CBHU_LUCKY_ITEM_INFO@@@std@@@3@$0A@@std@@@std@@@2@0@Z
_TEXT	SEGMENT
$T187516 = -4						; size = 4
___$ReturnUdt$ = 8					; size = 4
__First$ = 12						; size = 4
__Last$ = 16						; size = 4
?erase@?$_Tree@V?$_Tmap_traits@HU_LUCKY_ITEM_INFO@@U?$less@H@std@@V?$allocator@U?$pair@$$CBHU_LUCKY_ITEM_INFO@@@std@@@3@$0A@@std@@@std@@QAE?AV?$_Tree_iterator@V?$_Tree_val@V?$_Tmap_traits@HU_LUCKY_ITEM_INFO@@U?$less@H@std@@V?$allocator@U?$pair@$$CBHU_LUCKY_ITEM_INFO@@@std@@@3@$0A@@std@@@std@@@2@V?$_Tree_const_iterator@V?$_Tree_val@V?$_Tmap_traits@HU_LUCKY_ITEM_INFO@@U?$less@H@std@@V?$allocator@U?$pair@$$CBHU_LUCKY_ITEM_INFO@@@std@@@3@$0A@@std@@@std@@@2@0@Z PROC ; std::_Tree<std::_Tmap_traits<int,_LUCKY_ITEM_INFO,std::less<int>,std::allocator<std::pair<int const ,_LUCKY_ITEM_INFO> >,0> >::erase, COMDAT
; _this$ = ecx

; 1379 : 		{	// erase [_First, _Last)

  00000	55		 push	 ebp
  00001	8b ec		 mov	 ebp, esp
  00003	51		 push	 ecx

; 1380 : 		if (_First == begin() && _Last == end())

  00004	8b 55 10	 mov	 edx, DWORD PTR __Last$[ebp]
  00007	56		 push	 esi
  00008	8b f1		 mov	 esi, ecx
  0000a	8b 46 04	 mov	 eax, DWORD PTR [esi+4]
  0000d	8b 4d 0c	 mov	 ecx, DWORD PTR __First$[ebp]
  00010	3b 08		 cmp	 ecx, DWORD PTR [eax]
  00012	75 1c		 jne	 SHORT $LN97@erase@2
  00014	3b d0		 cmp	 edx, eax
  00016	75 18		 jne	 SHORT $LN97@erase@2

; 1381 : 			{	// erase all
; 1382 : 			clear();

  00018	8b ce		 mov	 ecx, esi
  0001a	e8 00 00 00 00	 call	 ?clear@?$_Tree@V?$_Tmap_traits@HU_LUCKY_ITEM_INFO@@U?$less@H@std@@V?$allocator@U?$pair@$$CBHU_LUCKY_ITEM_INFO@@@std@@@3@$0A@@std@@@std@@QAEXXZ ; std::_Tree<std::_Tmap_traits<int,_LUCKY_ITEM_INFO,std::less<int>,std::allocator<std::pair<int const ,_LUCKY_ITEM_INFO> >,0> >::clear

; 1383 : 			return (begin());

  0001f	8b 46 04	 mov	 eax, DWORD PTR [esi+4]
  00022	8b 08		 mov	 ecx, DWORD PTR [eax]

; 1389 : 			return (iterator(_First._Ptr, this));

  00024	8b 45 08	 mov	 eax, DWORD PTR ___$ReturnUdt$[ebp]
  00027	89 08		 mov	 DWORD PTR [eax], ecx
  00029	5e		 pop	 esi

; 1390 : 			}
; 1391 : 		}

  0002a	8b e5		 mov	 esp, ebp
  0002c	5d		 pop	 ebp
  0002d	c2 0c 00	 ret	 12			; 0000000cH
$LN97@erase@2:

; 1384 : 			}
; 1385 : 		else
; 1386 : 			{	// partial erase, one at a time
; 1387 : 			while (_First != _Last)

  00030	3b ca		 cmp	 ecx, edx
  00032	74 79		 je	 SHORT $LN1@erase@2
$LL2@erase@2:

; 1388 : 				erase(_First++);

  00034	80 b9 b5 01 00
	00 00		 cmp	 BYTE PTR [ecx+437], 0
  0003b	8b d1		 mov	 edx, ecx
  0003d	75 5a		 jne	 SHORT $LN59@erase@2
  0003f	8b 41 08	 mov	 eax, DWORD PTR [ecx+8]
  00042	80 b8 b5 01 00
	00 00		 cmp	 BYTE PTR [eax+437], 0
  00049	75 27		 jne	 SHORT $LN99@erase@2
  0004b	8b c8		 mov	 ecx, eax
  0004d	8b 01		 mov	 eax, DWORD PTR [ecx]
  0004f	80 b8 b5 01 00
	00 00		 cmp	 BYTE PTR [eax+437], 0
  00056	75 15		 jne	 SHORT $LN73@erase@2
  00058	eb 06 8d 9b 00
	00 00 00	 npad	 8
$LL74@erase@2:
  00060	8b c8		 mov	 ecx, eax
  00062	8b 01		 mov	 eax, DWORD PTR [ecx]
  00064	80 b8 b5 01 00
	00 00		 cmp	 BYTE PTR [eax+437], 0
  0006b	74 f3		 je	 SHORT $LL74@erase@2
$LN73@erase@2:
  0006d	89 4d 0c	 mov	 DWORD PTR __First$[ebp], ecx
  00070	eb 27		 jmp	 SHORT $LN59@erase@2
$LN99@erase@2:
  00072	8b 41 04	 mov	 eax, DWORD PTR [ecx+4]
  00075	80 b8 b5 01 00
	00 00		 cmp	 BYTE PTR [eax+437], 0
  0007c	75 18		 jne	 SHORT $LN57@erase@2
  0007e	8b ff		 npad	 2
$LL58@erase@2:
  00080	3b 48 08	 cmp	 ecx, DWORD PTR [eax+8]
  00083	75 11		 jne	 SHORT $LN57@erase@2
  00085	8b c8		 mov	 ecx, eax
  00087	89 4d 0c	 mov	 DWORD PTR __First$[ebp], ecx
  0008a	8b 40 04	 mov	 eax, DWORD PTR [eax+4]
  0008d	80 b8 b5 01 00
	00 00		 cmp	 BYTE PTR [eax+437], 0
  00094	74 ea		 je	 SHORT $LL58@erase@2
$LN57@erase@2:
  00096	89 45 0c	 mov	 DWORD PTR __First$[ebp], eax
$LN59@erase@2:
  00099	52		 push	 edx
  0009a	8d 55 fc	 lea	 edx, DWORD PTR $T187516[ebp]
  0009d	52		 push	 edx
  0009e	8b ce		 mov	 ecx, esi
  000a0	e8 00 00 00 00	 call	 ?erase@?$_Tree@V?$_Tmap_traits@HU_LUCKY_ITEM_INFO@@U?$less@H@std@@V?$allocator@U?$pair@$$CBHU_LUCKY_ITEM_INFO@@@std@@@3@$0A@@std@@@std@@QAE?AV?$_Tree_iterator@V?$_Tree_val@V?$_Tmap_traits@HU_LUCKY_ITEM_INFO@@U?$less@H@std@@V?$allocator@U?$pair@$$CBHU_LUCKY_ITEM_INFO@@@std@@@3@$0A@@std@@@std@@@2@V?$_Tree_const_iterator@V?$_Tree_val@V?$_Tmap_traits@HU_LUCKY_ITEM_INFO@@U?$less@H@std@@V?$allocator@U?$pair@$$CBHU_LUCKY_ITEM_INFO@@@std@@@3@$0A@@std@@@std@@@2@@Z ; std::_Tree<std::_Tmap_traits<int,_LUCKY_ITEM_INFO,std::less<int>,std::allocator<std::pair<int const ,_LUCKY_ITEM_INFO> >,0> >::erase
  000a5	8b 4d 0c	 mov	 ecx, DWORD PTR __First$[ebp]
  000a8	3b 4d 10	 cmp	 ecx, DWORD PTR __Last$[ebp]
  000ab	75 87		 jne	 SHORT $LL2@erase@2
$LN1@erase@2:

; 1389 : 			return (iterator(_First._Ptr, this));

  000ad	8b 45 08	 mov	 eax, DWORD PTR ___$ReturnUdt$[ebp]
  000b0	89 08		 mov	 DWORD PTR [eax], ecx
  000b2	5e		 pop	 esi

; 1390 : 			}
; 1391 : 		}

  000b3	8b e5		 mov	 esp, ebp
  000b5	5d		 pop	 ebp
  000b6	c2 0c 00	 ret	 12			; 0000000cH
?erase@?$_Tree@V?$_Tmap_traits@HU_LUCKY_ITEM_INFO@@U?$less@H@std@@V?$allocator@U?$pair@$$CBHU_LUCKY_ITEM_INFO@@@std@@@3@$0A@@std@@@std@@QAE?AV?$_Tree_iterator@V?$_Tree_val@V?$_Tmap_traits@HU_LUCKY_ITEM_INFO@@U?$less@H@std@@V?$allocator@U?$pair@$$CBHU_LUCKY_ITEM_INFO@@@std@@@3@$0A@@std@@@std@@@2@V?$_Tree_const_iterator@V?$_Tree_val@V?$_Tmap_traits@HU_LUCKY_ITEM_INFO@@U?$less@H@std@@V?$allocator@U?$pair@$$CBHU_LUCKY_ITEM_INFO@@@std@@@3@$0A@@std@@@std@@@2@0@Z ENDP ; std::_Tree<std::_Tmap_traits<int,_LUCKY_ITEM_INFO,std::less<int>,std::allocator<std::pair<int const ,_LUCKY_ITEM_INFO> >,0> >::erase
_TEXT	ENDS
PUBLIC	?GetLuckyItemInfo@LuckyItemManager@@QAEPAU_LUCKY_ITEM_INFO@@H@Z ; LuckyItemManager::GetLuckyItemInfo
; Function compile flags: /Ogtp
; File c:\muserver_dev\development\mu-s8ep2-repack\gameserver\source\luckyitem.cpp
;	COMDAT ?GetLuckyItemInfo@LuckyItemManager@@QAEPAU_LUCKY_ITEM_INFO@@H@Z
_TEXT	SEGMENT
_Iter$ = -4						; size = 4
_iItemNum$ = 8						; size = 4
?GetLuckyItemInfo@LuckyItemManager@@QAEPAU_LUCKY_ITEM_INFO@@H@Z PROC ; LuckyItemManager::GetLuckyItemInfo, COMDAT
; _this$ = ecx

; 304  : {

  00000	55		 push	 ebp
  00001	8b ec		 mov	 ebp, esp
  00003	51		 push	 ecx
  00004	56		 push	 esi
  00005	8b f1		 mov	 esi, ecx

; 305  : 	std::map<int, _LUCKY_ITEM_INFO>::iterator Iter = LuckyItemInfo.find(iItemNum);

  00007	8d 45 08	 lea	 eax, DWORD PTR _iItemNum$[ebp]
  0000a	50		 push	 eax
  0000b	8d 4d fc	 lea	 ecx, DWORD PTR _Iter$[ebp]
  0000e	51		 push	 ecx
  0000f	8d 4e 04	 lea	 ecx, DWORD PTR [esi+4]
  00012	e8 00 00 00 00	 call	 ?find@?$_Tree@V?$_Tmap_traits@HU_LUCKY_ITEM_INFO@@U?$less@H@std@@V?$allocator@U?$pair@$$CBHU_LUCKY_ITEM_INFO@@@std@@@3@$0A@@std@@@std@@QAE?AV?$_Tree_iterator@V?$_Tree_val@V?$_Tmap_traits@HU_LUCKY_ITEM_INFO@@U?$less@H@std@@V?$allocator@U?$pair@$$CBHU_LUCKY_ITEM_INFO@@@std@@@3@$0A@@std@@@std@@@2@ABH@Z ; std::_Tree<std::_Tmap_traits<int,_LUCKY_ITEM_INFO,std::less<int>,std::allocator<std::pair<int const ,_LUCKY_ITEM_INFO> >,0> >::find

; 306  : 	// ----
; 307  : 	if( Iter == LuckyItemInfo.end() )

  00017	8b 45 fc	 mov	 eax, DWORD PTR _Iter$[ebp]
  0001a	3b 46 08	 cmp	 eax, DWORD PTR [esi+8]
  0001d	5e		 pop	 esi
  0001e	75 08		 jne	 SHORT $LN1@GetLuckyIt@2

; 308  : 	{
; 309  : 		return 0;

  00020	33 c0		 xor	 eax, eax

; 313  : }

  00022	8b e5		 mov	 esp, ebp
  00024	5d		 pop	 ebp
  00025	c2 04 00	 ret	 4
$LN1@GetLuckyIt@2:

; 310  : 	}
; 311  : 	// ----
; 312  : 	return &Iter->second;

  00028	83 c0 10	 add	 eax, 16			; 00000010H

; 313  : }

  0002b	8b e5		 mov	 esp, ebp
  0002d	5d		 pop	 ebp
  0002e	c2 04 00	 ret	 4
?GetLuckyItemInfo@LuckyItemManager@@QAEPAU_LUCKY_ITEM_INFO@@H@Z ENDP ; LuckyItemManager::GetLuckyItemInfo
_TEXT	ENDS
PUBLIC	?GetCharClassLuckyItemInfo@LuckyItemManager@@QAEPAU_LUCKY_ITEM_INFO@@HH@Z ; LuckyItemManager::GetCharClassLuckyItemInfo
; Function compile flags: /Ogtp
;	COMDAT ?GetCharClassLuckyItemInfo@LuckyItemManager@@QAEPAU_LUCKY_ITEM_INFO@@HH@Z
_TEXT	SEGMENT
_iItemNum$ = 8						; size = 4
_iCharClass$ = 12					; size = 4
?GetCharClassLuckyItemInfo@LuckyItemManager@@QAEPAU_LUCKY_ITEM_INFO@@HH@Z PROC ; LuckyItemManager::GetCharClassLuckyItemInfo, COMDAT
; _this$ = ecx

; 318  : {

  00000	55		 push	 ebp
  00001	8b ec		 mov	 ebp, esp

; 319  : 	if( iItemNum < 0 )

  00003	8b 45 08	 mov	 eax, DWORD PTR _iItemNum$[ebp]
  00006	85 c0		 test	 eax, eax
  00008	79 06		 jns	 SHORT $LN6@GetCharCla
$LN13@GetCharCla:

; 320  : 	{
; 321  : 		return 0;

  0000a	33 c0		 xor	 eax, eax

; 340  : }

  0000c	5d		 pop	 ebp
  0000d	c2 08 00	 ret	 8
$LN6@GetCharCla:

; 322  : 	}
; 323  : 	// ----
; 324  : 	_LUCKY_ITEM_INFO * pLuckyItemInfo = this->GetLuckyItemInfo(iItemNum);

  00010	50		 push	 eax
  00011	e8 00 00 00 00	 call	 ?GetLuckyItemInfo@LuckyItemManager@@QAEPAU_LUCKY_ITEM_INFO@@H@Z ; LuckyItemManager::GetLuckyItemInfo

; 325  : 	// ----
; 326  : 	if( !pLuckyItemInfo )

  00016	85 c0		 test	 eax, eax

; 327  : 	{
; 328  : 		return 0;

  00018	74 f0		 je	 SHORT $LN13@GetCharCla

; 329  : 	}
; 330  : 	// ----
; 331  : 	for( int i = 0; i < MAX_LUCKYINFO_ITEMEQUIPMENT; i++ )

  0001a	56		 push	 esi
  0001b	8b 75 0c	 mov	 esi, DWORD PTR _iCharClass$[ebp]
  0001e	33 c9		 xor	 ecx, ecx
  00020	8d 90 b0 00 00
	00		 lea	 edx, DWORD PTR [eax+176]
$LL4@GetCharCla:

; 332  : 	{
; 333  : 		if( pLuckyItemInfo->m_ItemEquipment[i].m_Class == iCharClass )

  00026	39 32		 cmp	 DWORD PTR [edx], esi
  00028	74 0b		 je	 SHORT $LN12@GetCharCla

; 329  : 	}
; 330  : 	// ----
; 331  : 	for( int i = 0; i < MAX_LUCKYINFO_ITEMEQUIPMENT; i++ )

  0002a	41		 inc	 ecx
  0002b	83 c2 14	 add	 edx, 20			; 00000014H
  0002e	83 f9 07	 cmp	 ecx, 7
  00031	7c f3		 jl	 SHORT $LL4@GetCharCla

; 334  : 		{
; 335  : 			return pLuckyItemInfo;
; 336  : 		}
; 337  : 	}
; 338  : 	// ----
; 339  : 	return 0;

  00033	33 c0		 xor	 eax, eax
$LN12@GetCharCla:
  00035	5e		 pop	 esi

; 340  : }

  00036	5d		 pop	 ebp
  00037	c2 08 00	 ret	 8
?GetCharClassLuckyItemInfo@LuckyItemManager@@QAEPAU_LUCKY_ITEM_INFO@@HH@Z ENDP ; LuckyItemManager::GetCharClassLuckyItemInfo
_TEXT	ENDS
PUBLIC	?IsLuckyItemTicket@LuckyItemManager@@QAEHH@Z	; LuckyItemManager::IsLuckyItemTicket
; Function compile flags: /Ogtp
;	COMDAT ?IsLuckyItemTicket@LuckyItemManager@@QAEHH@Z
_TEXT	SEGMENT
_Iter$ = -4						; size = 4
_iItemNum$ = 8						; size = 4
?IsLuckyItemTicket@LuckyItemManager@@QAEHH@Z PROC	; LuckyItemManager::IsLuckyItemTicket, COMDAT
; _this$ = ecx

; 365  : {

  00000	55		 push	 ebp
  00001	8b ec		 mov	 ebp, esp
  00003	51		 push	 ecx

; 366  : 	if( iItemNum < 0 )

  00004	83 7d 08 00	 cmp	 DWORD PTR _iItemNum$[ebp], 0
  00008	56		 push	 esi
  00009	8b f1		 mov	 esi, ecx
  0000b	7d 09		 jge	 SHORT $LN2@IsLuckyIte@2

; 367  : 	{
; 368  : 		return false;

  0000d	33 c0		 xor	 eax, eax
  0000f	5e		 pop	 esi

; 374  : 	{
; 375  : 		return false;
; 376  : 	}
; 377  : 	// ----
; 378  : 	return true;
; 379  : }

  00010	8b e5		 mov	 esp, ebp
  00012	5d		 pop	 ebp
  00013	c2 04 00	 ret	 4
$LN2@IsLuckyIte@2:

; 369  : 	}
; 370  : 	// ----
; 371  : 	std::map<int, _LUCKY_ITEM_INFO>::iterator Iter = this->LuckyItemInfo.find(iItemNum);

  00016	8d 45 08	 lea	 eax, DWORD PTR _iItemNum$[ebp]
  00019	50		 push	 eax
  0001a	8d 4d fc	 lea	 ecx, DWORD PTR _Iter$[ebp]
  0001d	51		 push	 ecx
  0001e	8d 4e 04	 lea	 ecx, DWORD PTR [esi+4]
  00021	e8 00 00 00 00	 call	 ?find@?$_Tree@V?$_Tmap_traits@HU_LUCKY_ITEM_INFO@@U?$less@H@std@@V?$allocator@U?$pair@$$CBHU_LUCKY_ITEM_INFO@@@std@@@3@$0A@@std@@@std@@QAE?AV?$_Tree_iterator@V?$_Tree_val@V?$_Tmap_traits@HU_LUCKY_ITEM_INFO@@U?$less@H@std@@V?$allocator@U?$pair@$$CBHU_LUCKY_ITEM_INFO@@@std@@@3@$0A@@std@@@std@@@2@ABH@Z ; std::_Tree<std::_Tmap_traits<int,_LUCKY_ITEM_INFO,std::less<int>,std::allocator<std::pair<int const ,_LUCKY_ITEM_INFO> >,0> >::find

; 372  : 	// ----
; 373  : 	if( Iter == this->LuckyItemInfo.end() )

  00026	8b 55 fc	 mov	 edx, DWORD PTR _Iter$[ebp]
  00029	33 c0		 xor	 eax, eax
  0002b	3b 56 08	 cmp	 edx, DWORD PTR [esi+8]
  0002e	5e		 pop	 esi
  0002f	0f 95 c0	 setne	 al

; 374  : 	{
; 375  : 		return false;
; 376  : 	}
; 377  : 	// ----
; 378  : 	return true;
; 379  : }

  00032	8b e5		 mov	 esp, ebp
  00034	5d		 pop	 ebp
  00035	c2 04 00	 ret	 4
?IsLuckyItemTicket@LuckyItemManager@@QAEHH@Z ENDP	; LuckyItemManager::IsLuckyItemTicket
_TEXT	ENDS
PUBLIC	?_Tidy@?$_Tree@V?$_Tmap_traits@HU_LUCKY_ITEM_INFO@@U?$less@H@std@@V?$allocator@U?$pair@$$CBHU_LUCKY_ITEM_INFO@@@std@@@3@$0A@@std@@@std@@IAEXXZ ; std::_Tree<std::_Tmap_traits<int,_LUCKY_ITEM_INFO,std::less<int>,std::allocator<std::pair<int const ,_LUCKY_ITEM_INFO> >,0> >::_Tidy
; Function compile flags: /Ogtp
; File c:\program files (x86)\microsoft visual studio 10.0\vc\include\xtree
;	COMDAT ?_Tidy@?$_Tree@V?$_Tmap_traits@HU_LUCKY_ITEM_INFO@@U?$less@H@std@@V?$allocator@U?$pair@$$CBHU_LUCKY_ITEM_INFO@@@std@@@3@$0A@@std@@@std@@IAEXXZ
_TEXT	SEGMENT
$T187968 = -4						; size = 4
?_Tidy@?$_Tree@V?$_Tmap_traits@HU_LUCKY_ITEM_INFO@@U?$less@H@std@@V?$allocator@U?$pair@$$CBHU_LUCKY_ITEM_INFO@@@std@@@3@$0A@@std@@@std@@IAEXXZ PROC ; std::_Tree<std::_Tmap_traits<int,_LUCKY_ITEM_INFO,std::less<int>,std::allocator<std::pair<int const ,_LUCKY_ITEM_INFO> >,0> >::_Tidy, COMDAT
; _this$ = ecx

; 1865 : 		{	// free all storage

  00000	55		 push	 ebp
  00001	8b ec		 mov	 ebp, esp
  00003	51		 push	 ecx

; 1866 : 		erase(begin(), end());

  00004	8b 41 04	 mov	 eax, DWORD PTR [ecx+4]
  00007	8b 10		 mov	 edx, DWORD PTR [eax]
  00009	50		 push	 eax
  0000a	52		 push	 edx
  0000b	8d 45 fc	 lea	 eax, DWORD PTR $T187968[ebp]
  0000e	50		 push	 eax
  0000f	e8 00 00 00 00	 call	 ?erase@?$_Tree@V?$_Tmap_traits@HU_LUCKY_ITEM_INFO@@U?$less@H@std@@V?$allocator@U?$pair@$$CBHU_LUCKY_ITEM_INFO@@@std@@@3@$0A@@std@@@std@@QAE?AV?$_Tree_iterator@V?$_Tree_val@V?$_Tmap_traits@HU_LUCKY_ITEM_INFO@@U?$less@H@std@@V?$allocator@U?$pair@$$CBHU_LUCKY_ITEM_INFO@@@std@@@3@$0A@@std@@@std@@@2@V?$_Tree_const_iterator@V?$_Tree_val@V?$_Tmap_traits@HU_LUCKY_ITEM_INFO@@U?$less@H@std@@V?$allocator@U?$pair@$$CBHU_LUCKY_ITEM_INFO@@@std@@@3@$0A@@std@@@std@@@2@0@Z ; std::_Tree<std::_Tmap_traits<int,_LUCKY_ITEM_INFO,std::less<int>,std::allocator<std::pair<int const ,_LUCKY_ITEM_INFO> >,0> >::erase

; 1867 : 		}

  00014	8b e5		 mov	 esp, ebp
  00016	5d		 pop	 ebp
  00017	c3		 ret	 0
?_Tidy@?$_Tree@V?$_Tmap_traits@HU_LUCKY_ITEM_INFO@@U?$less@H@std@@V?$allocator@U?$pair@$$CBHU_LUCKY_ITEM_INFO@@@std@@@3@$0A@@std@@@std@@IAEXXZ ENDP ; std::_Tree<std::_Tmap_traits<int,_LUCKY_ITEM_INFO,std::less<int>,std::allocator<std::pair<int const ,_LUCKY_ITEM_INFO> >,0> >::_Tidy
_TEXT	ENDS
PUBLIC	??1?$_Tree@V?$_Tmap_traits@HU_LUCKY_ITEM_INFO@@U?$less@H@std@@V?$allocator@U?$pair@$$CBHU_LUCKY_ITEM_INFO@@@std@@@3@$0A@@std@@@std@@QAE@XZ ; std::_Tree<std::_Tmap_traits<int,_LUCKY_ITEM_INFO,std::less<int>,std::allocator<std::pair<int const ,_LUCKY_ITEM_INFO> >,0> >::~_Tree<std::_Tmap_traits<int,_LUCKY_ITEM_INFO,std::less<int>,std::allocator<std::pair<int const ,_LUCKY_ITEM_INFO> >,0> >
;	COMDAT xdata$x
; File c:\program files (x86)\microsoft visual studio 10.0\vc\include\xmemory
xdata$x	SEGMENT
__unwindtable$??1?$_Tree@V?$_Tmap_traits@HU_LUCKY_ITEM_INFO@@U?$less@H@std@@V?$allocator@U?$pair@$$CBHU_LUCKY_ITEM_INFO@@@std@@@3@$0A@@std@@@std@@QAE@XZ DD 0ffffffffH
	DD	FLAT:__unwindfunclet$??1?$_Tree@V?$_Tmap_traits@HU_LUCKY_ITEM_INFO@@U?$less@H@std@@V?$allocator@U?$pair@$$CBHU_LUCKY_ITEM_INFO@@@std@@@3@$0A@@std@@@std@@QAE@XZ$0
__ehfuncinfo$??1?$_Tree@V?$_Tmap_traits@HU_LUCKY_ITEM_INFO@@U?$less@H@std@@V?$allocator@U?$pair@$$CBHU_LUCKY_ITEM_INFO@@@std@@@3@$0A@@std@@@std@@QAE@XZ DD 019930522H
	DD	01H
	DD	FLAT:__unwindtable$??1?$_Tree@V?$_Tmap_traits@HU_LUCKY_ITEM_INFO@@U?$less@H@std@@V?$allocator@U?$pair@$$CBHU_LUCKY_ITEM_INFO@@@std@@@3@$0A@@std@@@std@@QAE@XZ
	DD	2 DUP(00H)
	DD	2 DUP(00H)
	DD	00H
	DD	01H
; Function compile flags: /Ogtp
; File c:\program files (x86)\microsoft visual studio 10.0\vc\include\xtree
xdata$x	ENDS
;	COMDAT ??1?$_Tree@V?$_Tmap_traits@HU_LUCKY_ITEM_INFO@@U?$less@H@std@@V?$allocator@U?$pair@$$CBHU_LUCKY_ITEM_INFO@@@std@@@3@$0A@@std@@@std@@QAE@XZ
_TEXT	SEGMENT
$T188153 = -20						; size = 4
_this$ = -16						; size = 4
__$EHRec$ = -12						; size = 12
??1?$_Tree@V?$_Tmap_traits@HU_LUCKY_ITEM_INFO@@U?$less@H@std@@V?$allocator@U?$pair@$$CBHU_LUCKY_ITEM_INFO@@@std@@@3@$0A@@std@@@std@@QAE@XZ PROC ; std::_Tree<std::_Tmap_traits<int,_LUCKY_ITEM_INFO,std::less<int>,std::allocator<std::pair<int const ,_LUCKY_ITEM_INFO> >,0> >::~_Tree<std::_Tmap_traits<int,_LUCKY_ITEM_INFO,std::less<int>,std::allocator<std::pair<int const ,_LUCKY_ITEM_INFO> >,0> >, COMDAT
; _this$ = ecx

; 790  : 		{	// destroy tree

  00000	55		 push	 ebp
  00001	8b ec		 mov	 ebp, esp
  00003	6a ff		 push	 -1
  00005	68 00 00 00 00	 push	 __ehhandler$??1?$_Tree@V?$_Tmap_traits@HU_LUCKY_ITEM_INFO@@U?$less@H@std@@V?$allocator@U?$pair@$$CBHU_LUCKY_ITEM_INFO@@@std@@@3@$0A@@std@@@std@@QAE@XZ
  0000a	64 a1 00 00 00
	00		 mov	 eax, DWORD PTR fs:0
  00010	50		 push	 eax
  00011	83 ec 08	 sub	 esp, 8
  00014	56		 push	 esi
  00015	a1 00 00 00 00	 mov	 eax, DWORD PTR ___security_cookie
  0001a	33 c5		 xor	 eax, ebp
  0001c	50		 push	 eax
  0001d	8d 45 f4	 lea	 eax, DWORD PTR __$EHRec$[ebp]
  00020	64 a3 00 00 00
	00		 mov	 DWORD PTR fs:0, eax
  00026	8b f1		 mov	 esi, ecx
  00028	89 75 f0	 mov	 DWORD PTR _this$[ebp], esi

; 791  : 		_Tidy();

  0002b	8b 46 04	 mov	 eax, DWORD PTR [esi+4]
  0002e	8b 08		 mov	 ecx, DWORD PTR [eax]
  00030	50		 push	 eax
  00031	51		 push	 ecx
  00032	8d 45 ec	 lea	 eax, DWORD PTR $T188153[ebp]
  00035	50		 push	 eax
  00036	8b ce		 mov	 ecx, esi
  00038	c7 45 fc 00 00
	00 00		 mov	 DWORD PTR __$EHRec$[ebp+8], 0
  0003f	e8 00 00 00 00	 call	 ?erase@?$_Tree@V?$_Tmap_traits@HU_LUCKY_ITEM_INFO@@U?$less@H@std@@V?$allocator@U?$pair@$$CBHU_LUCKY_ITEM_INFO@@@std@@@3@$0A@@std@@@std@@QAE?AV?$_Tree_iterator@V?$_Tree_val@V?$_Tmap_traits@HU_LUCKY_ITEM_INFO@@U?$less@H@std@@V?$allocator@U?$pair@$$CBHU_LUCKY_ITEM_INFO@@@std@@@3@$0A@@std@@@std@@@2@V?$_Tree_const_iterator@V?$_Tree_val@V?$_Tmap_traits@HU_LUCKY_ITEM_INFO@@U?$less@H@std@@V?$allocator@U?$pair@$$CBHU_LUCKY_ITEM_INFO@@@std@@@3@$0A@@std@@@std@@@2@0@Z ; std::_Tree<std::_Tmap_traits<int,_LUCKY_ITEM_INFO,std::less<int>,std::allocator<std::pair<int const ,_LUCKY_ITEM_INFO> >,0> >::erase

; 792  : 		}

  00044	8b 4e 04	 mov	 ecx, DWORD PTR [esi+4]
  00047	51		 push	 ecx
  00048	e8 00 00 00 00	 call	 ??3@YAXPAX@Z		; operator delete
  0004d	83 c4 04	 add	 esp, 4
  00050	8b 4d f4	 mov	 ecx, DWORD PTR __$EHRec$[ebp]
  00053	64 89 0d 00 00
	00 00		 mov	 DWORD PTR fs:0, ecx
  0005a	59		 pop	 ecx
  0005b	5e		 pop	 esi
  0005c	8b e5		 mov	 esp, ebp
  0005e	5d		 pop	 ebp
  0005f	c3		 ret	 0
_TEXT	ENDS
;	COMDAT text$x
text$x	SEGMENT
__unwindfunclet$??1?$_Tree@V?$_Tmap_traits@HU_LUCKY_ITEM_INFO@@U?$less@H@std@@V?$allocator@U?$pair@$$CBHU_LUCKY_ITEM_INFO@@@std@@@3@$0A@@std@@@std@@QAE@XZ$0:
  00000	8b 4d f0	 mov	 ecx, DWORD PTR _this$[ebp]
  00003	e9 00 00 00 00	 jmp	 ??1?$_Tree_val@V?$_Tmap_traits@HU_LUCKY_ITEM_INFO@@U?$less@H@std@@V?$allocator@U?$pair@$$CBHU_LUCKY_ITEM_INFO@@@std@@@3@$0A@@std@@@std@@QAE@XZ ; std::_Tree_val<std::_Tmap_traits<int,_LUCKY_ITEM_INFO,std::less<int>,std::allocator<std::pair<int const ,_LUCKY_ITEM_INFO> >,0> >::~_Tree_val<std::_Tmap_traits<int,_LUCKY_ITEM_INFO,std::less<int>,std::allocator<std::pair<int const ,_LUCKY_ITEM_INFO> >,0> >
__ehhandler$??1?$_Tree@V?$_Tmap_traits@HU_LUCKY_ITEM_INFO@@U?$less@H@std@@V?$allocator@U?$pair@$$CBHU_LUCKY_ITEM_INFO@@@std@@@3@$0A@@std@@@std@@QAE@XZ:
  00008	8b 54 24 08	 mov	 edx, DWORD PTR [esp+8]
  0000c	8d 42 0c	 lea	 eax, DWORD PTR [edx+12]
  0000f	8b 4a f0	 mov	 ecx, DWORD PTR [edx-16]
  00012	33 c8		 xor	 ecx, eax
  00014	e8 00 00 00 00	 call	 @__security_check_cookie@4
  00019	b8 00 00 00 00	 mov	 eax, OFFSET __ehfuncinfo$??1?$_Tree@V?$_Tmap_traits@HU_LUCKY_ITEM_INFO@@U?$less@H@std@@V?$allocator@U?$pair@$$CBHU_LUCKY_ITEM_INFO@@@std@@@3@$0A@@std@@@std@@QAE@XZ
  0001e	e9 00 00 00 00	 jmp	 ___CxxFrameHandler3
text$x	ENDS
??1?$_Tree@V?$_Tmap_traits@HU_LUCKY_ITEM_INFO@@U?$less@H@std@@V?$allocator@U?$pair@$$CBHU_LUCKY_ITEM_INFO@@@std@@@3@$0A@@std@@@std@@QAE@XZ ENDP ; std::_Tree<std::_Tmap_traits<int,_LUCKY_ITEM_INFO,std::less<int>,std::allocator<std::pair<int const ,_LUCKY_ITEM_INFO> >,0> >::~_Tree<std::_Tmap_traits<int,_LUCKY_ITEM_INFO,std::less<int>,std::allocator<std::pair<int const ,_LUCKY_ITEM_INFO> >,0> >
PUBLIC	??1?$map@HU_LUCKY_ITEM_INFO@@U?$less@H@std@@V?$allocator@U?$pair@$$CBHU_LUCKY_ITEM_INFO@@@std@@@3@@std@@QAE@XZ ; std::map<int,_LUCKY_ITEM_INFO,std::less<int>,std::allocator<std::pair<int const ,_LUCKY_ITEM_INFO> > >::~map<int,_LUCKY_ITEM_INFO,std::less<int>,std::allocator<std::pair<int const ,_LUCKY_ITEM_INFO> > >
;	COMDAT xdata$x
xdata$x	SEGMENT
__unwindtable$??1?$map@HU_LUCKY_ITEM_INFO@@U?$less@H@std@@V?$allocator@U?$pair@$$CBHU_LUCKY_ITEM_INFO@@@std@@@3@@std@@QAE@XZ DD 0ffffffffH
	DD	FLAT:__unwindfunclet$??1?$map@HU_LUCKY_ITEM_INFO@@U?$less@H@std@@V?$allocator@U?$pair@$$CBHU_LUCKY_ITEM_INFO@@@std@@@3@@std@@QAE@XZ$1
__ehfuncinfo$??1?$map@HU_LUCKY_ITEM_INFO@@U?$less@H@std@@V?$allocator@U?$pair@$$CBHU_LUCKY_ITEM_INFO@@@std@@@3@@std@@QAE@XZ DD 019930522H
	DD	01H
	DD	FLAT:__unwindtable$??1?$map@HU_LUCKY_ITEM_INFO@@U?$less@H@std@@V?$allocator@U?$pair@$$CBHU_LUCKY_ITEM_INFO@@@std@@@3@@std@@QAE@XZ
	DD	2 DUP(00H)
	DD	2 DUP(00H)
	DD	00H
	DD	01H
; Function compile flags: /Ogtp
xdata$x	ENDS
;	COMDAT ??1?$map@HU_LUCKY_ITEM_INFO@@U?$less@H@std@@V?$allocator@U?$pair@$$CBHU_LUCKY_ITEM_INFO@@@std@@@3@@std@@QAE@XZ
_TEXT	SEGMENT
$T188338 = -20						; size = 4
_this$ = -16						; size = 4
__$EHRec$ = -12						; size = 12
??1?$map@HU_LUCKY_ITEM_INFO@@U?$less@H@std@@V?$allocator@U?$pair@$$CBHU_LUCKY_ITEM_INFO@@@std@@@3@@std@@QAE@XZ PROC ; std::map<int,_LUCKY_ITEM_INFO,std::less<int>,std::allocator<std::pair<int const ,_LUCKY_ITEM_INFO> > >::~map<int,_LUCKY_ITEM_INFO,std::less<int>,std::allocator<std::pair<int const ,_LUCKY_ITEM_INFO> > >, COMDAT
; _this$ = ecx
  00000	55		 push	 ebp
  00001	8b ec		 mov	 ebp, esp
  00003	6a ff		 push	 -1
  00005	68 00 00 00 00	 push	 __ehhandler$??1?$map@HU_LUCKY_ITEM_INFO@@U?$less@H@std@@V?$allocator@U?$pair@$$CBHU_LUCKY_ITEM_INFO@@@std@@@3@@std@@QAE@XZ
  0000a	64 a1 00 00 00
	00		 mov	 eax, DWORD PTR fs:0
  00010	50		 push	 eax
  00011	83 ec 08	 sub	 esp, 8
  00014	56		 push	 esi
  00015	a1 00 00 00 00	 mov	 eax, DWORD PTR ___security_cookie
  0001a	33 c5		 xor	 eax, ebp
  0001c	50		 push	 eax
  0001d	8d 45 f4	 lea	 eax, DWORD PTR __$EHRec$[ebp]
  00020	64 a3 00 00 00
	00		 mov	 DWORD PTR fs:0, eax
  00026	8b f1		 mov	 esi, ecx
  00028	89 75 f0	 mov	 DWORD PTR _this$[ebp], esi
  0002b	8b 46 04	 mov	 eax, DWORD PTR [esi+4]
  0002e	8b 08		 mov	 ecx, DWORD PTR [eax]
  00030	50		 push	 eax
  00031	51		 push	 ecx
  00032	8d 45 ec	 lea	 eax, DWORD PTR $T188338[ebp]
  00035	50		 push	 eax
  00036	8b ce		 mov	 ecx, esi
  00038	c7 45 fc 00 00
	00 00		 mov	 DWORD PTR __$EHRec$[ebp+8], 0
  0003f	e8 00 00 00 00	 call	 ?erase@?$_Tree@V?$_Tmap_traits@HU_LUCKY_ITEM_INFO@@U?$less@H@std@@V?$allocator@U?$pair@$$CBHU_LUCKY_ITEM_INFO@@@std@@@3@$0A@@std@@@std@@QAE?AV?$_Tree_iterator@V?$_Tree_val@V?$_Tmap_traits@HU_LUCKY_ITEM_INFO@@U?$less@H@std@@V?$allocator@U?$pair@$$CBHU_LUCKY_ITEM_INFO@@@std@@@3@$0A@@std@@@std@@@2@V?$_Tree_const_iterator@V?$_Tree_val@V?$_Tmap_traits@HU_LUCKY_ITEM_INFO@@U?$less@H@std@@V?$allocator@U?$pair@$$CBHU_LUCKY_ITEM_INFO@@@std@@@3@$0A@@std@@@std@@@2@0@Z ; std::_Tree<std::_Tmap_traits<int,_LUCKY_ITEM_INFO,std::less<int>,std::allocator<std::pair<int const ,_LUCKY_ITEM_INFO> >,0> >::erase
  00044	8b 4e 04	 mov	 ecx, DWORD PTR [esi+4]
  00047	51		 push	 ecx
  00048	e8 00 00 00 00	 call	 ??3@YAXPAX@Z		; operator delete
  0004d	83 c4 04	 add	 esp, 4
  00050	8b 4d f4	 mov	 ecx, DWORD PTR __$EHRec$[ebp]
  00053	64 89 0d 00 00
	00 00		 mov	 DWORD PTR fs:0, ecx
  0005a	59		 pop	 ecx
  0005b	5e		 pop	 esi
  0005c	8b e5		 mov	 esp, ebp
  0005e	5d		 pop	 ebp
  0005f	c3		 ret	 0
_TEXT	ENDS
;	COMDAT text$x
text$x	SEGMENT
__unwindfunclet$??1?$map@HU_LUCKY_ITEM_INFO@@U?$less@H@std@@V?$allocator@U?$pair@$$CBHU_LUCKY_ITEM_INFO@@@std@@@3@@std@@QAE@XZ$1:
  00000	8b 4d f0	 mov	 ecx, DWORD PTR _this$[ebp]
  00003	e9 00 00 00 00	 jmp	 ??1?$_Tree_val@V?$_Tmap_traits@HU_LUCKY_ITEM_INFO@@U?$less@H@std@@V?$allocator@U?$pair@$$CBHU_LUCKY_ITEM_INFO@@@std@@@3@$0A@@std@@@std@@QAE@XZ ; std::_Tree_val<std::_Tmap_traits<int,_LUCKY_ITEM_INFO,std::less<int>,std::allocator<std::pair<int const ,_LUCKY_ITEM_INFO> >,0> >::~_Tree_val<std::_Tmap_traits<int,_LUCKY_ITEM_INFO,std::less<int>,std::allocator<std::pair<int const ,_LUCKY_ITEM_INFO> >,0> >
__ehhandler$??1?$map@HU_LUCKY_ITEM_INFO@@U?$less@H@std@@V?$allocator@U?$pair@$$CBHU_LUCKY_ITEM_INFO@@@std@@@3@@std@@QAE@XZ:
  00008	8b 54 24 08	 mov	 edx, DWORD PTR [esp+8]
  0000c	8d 42 0c	 lea	 eax, DWORD PTR [edx+12]
  0000f	8b 4a f0	 mov	 ecx, DWORD PTR [edx-16]
  00012	33 c8		 xor	 ecx, eax
  00014	e8 00 00 00 00	 call	 @__security_check_cookie@4
  00019	b8 00 00 00 00	 mov	 eax, OFFSET __ehfuncinfo$??1?$map@HU_LUCKY_ITEM_INFO@@U?$less@H@std@@V?$allocator@U?$pair@$$CBHU_LUCKY_ITEM_INFO@@@std@@@3@@std@@QAE@XZ
  0001e	e9 00 00 00 00	 jmp	 ___CxxFrameHandler3
text$x	ENDS
??1?$map@HU_LUCKY_ITEM_INFO@@U?$less@H@std@@V?$allocator@U?$pair@$$CBHU_LUCKY_ITEM_INFO@@@std@@@3@@std@@QAE@XZ ENDP ; std::map<int,_LUCKY_ITEM_INFO,std::less<int>,std::allocator<std::pair<int const ,_LUCKY_ITEM_INFO> > >::~map<int,_LUCKY_ITEM_INFO,std::less<int>,std::allocator<std::pair<int const ,_LUCKY_ITEM_INFO> > >
PUBLIC	??1LuckyItemManager@@QAE@XZ			; LuckyItemManager::~LuckyItemManager
;	COMDAT xdata$x
; File c:\program files (x86)\microsoft visual studio 10.0\vc\include\xmemory
xdata$x	SEGMENT
__unwindtable$??1LuckyItemManager@@QAE@XZ DD 0ffffffffH
	DD	FLAT:__unwindfunclet$??1LuckyItemManager@@QAE@XZ$2
__ehfuncinfo$??1LuckyItemManager@@QAE@XZ DD 019930522H
	DD	01H
	DD	FLAT:__unwindtable$??1LuckyItemManager@@QAE@XZ
	DD	2 DUP(00H)
	DD	2 DUP(00H)
	DD	00H
	DD	01H
; Function compile flags: /Ogtp
; File c:\muserver_dev\development\mu-s8ep2-repack\gameserver\source\luckyitem.cpp
xdata$x	ENDS
;	COMDAT ??1LuckyItemManager@@QAE@XZ
_TEXT	SEGMENT
$T188574 = -20						; size = 4
$T188587 = -16						; size = 4
__$EHRec$ = -12						; size = 12
??1LuckyItemManager@@QAE@XZ PROC			; LuckyItemManager::~LuckyItemManager, COMDAT
; _this$ = ecx

; 32   : {

  00000	55		 push	 ebp
  00001	8b ec		 mov	 ebp, esp
  00003	6a ff		 push	 -1
  00005	68 00 00 00 00	 push	 __ehhandler$??1LuckyItemManager@@QAE@XZ
  0000a	64 a1 00 00 00
	00		 mov	 eax, DWORD PTR fs:0
  00010	50		 push	 eax
  00011	83 ec 08	 sub	 esp, 8
  00014	56		 push	 esi
  00015	a1 00 00 00 00	 mov	 eax, DWORD PTR ___security_cookie
  0001a	33 c5		 xor	 eax, ebp
  0001c	50		 push	 eax
  0001d	8d 45 f4	 lea	 eax, DWORD PTR __$EHRec$[ebp]
  00020	64 a3 00 00 00
	00		 mov	 DWORD PTR fs:0, eax

; 33   : 	// ----
; 34   : }

  00026	8d 71 04	 lea	 esi, DWORD PTR [ecx+4]
  00029	89 75 f0	 mov	 DWORD PTR $T188587[ebp], esi
  0002c	8b 46 04	 mov	 eax, DWORD PTR [esi+4]
  0002f	8b 08		 mov	 ecx, DWORD PTR [eax]
  00031	50		 push	 eax
  00032	51		 push	 ecx
  00033	8d 45 ec	 lea	 eax, DWORD PTR $T188574[ebp]
  00036	50		 push	 eax
  00037	8b ce		 mov	 ecx, esi
  00039	c7 45 fc 00 00
	00 00		 mov	 DWORD PTR __$EHRec$[ebp+8], 0
  00040	e8 00 00 00 00	 call	 ?erase@?$_Tree@V?$_Tmap_traits@HU_LUCKY_ITEM_INFO@@U?$less@H@std@@V?$allocator@U?$pair@$$CBHU_LUCKY_ITEM_INFO@@@std@@@3@$0A@@std@@@std@@QAE?AV?$_Tree_iterator@V?$_Tree_val@V?$_Tmap_traits@HU_LUCKY_ITEM_INFO@@U?$less@H@std@@V?$allocator@U?$pair@$$CBHU_LUCKY_ITEM_INFO@@@std@@@3@$0A@@std@@@std@@@2@V?$_Tree_const_iterator@V?$_Tree_val@V?$_Tmap_traits@HU_LUCKY_ITEM_INFO@@U?$less@H@std@@V?$allocator@U?$pair@$$CBHU_LUCKY_ITEM_INFO@@@std@@@3@$0A@@std@@@std@@@2@0@Z ; std::_Tree<std::_Tmap_traits<int,_LUCKY_ITEM_INFO,std::less<int>,std::allocator<std::pair<int const ,_LUCKY_ITEM_INFO> >,0> >::erase
  00045	8b 4e 04	 mov	 ecx, DWORD PTR [esi+4]
  00048	51		 push	 ecx
  00049	e8 00 00 00 00	 call	 ??3@YAXPAX@Z		; operator delete
  0004e	83 c4 04	 add	 esp, 4
  00051	8b 4d f4	 mov	 ecx, DWORD PTR __$EHRec$[ebp]
  00054	64 89 0d 00 00
	00 00		 mov	 DWORD PTR fs:0, ecx
  0005b	59		 pop	 ecx
  0005c	5e		 pop	 esi
  0005d	8b e5		 mov	 esp, ebp
  0005f	5d		 pop	 ebp
  00060	c3		 ret	 0
_TEXT	ENDS
;	COMDAT text$x
text$x	SEGMENT
__unwindfunclet$??1LuckyItemManager@@QAE@XZ$2:
  00000	8b 4d f0	 mov	 ecx, DWORD PTR $T188587[ebp]
  00003	e9 00 00 00 00	 jmp	 ??1?$_Tree_val@V?$_Tmap_traits@HU_LUCKY_ITEM_INFO@@U?$less@H@std@@V?$allocator@U?$pair@$$CBHU_LUCKY_ITEM_INFO@@@std@@@3@$0A@@std@@@std@@QAE@XZ ; std::_Tree_val<std::_Tmap_traits<int,_LUCKY_ITEM_INFO,std::less<int>,std::allocator<std::pair<int const ,_LUCKY_ITEM_INFO> >,0> >::~_Tree_val<std::_Tmap_traits<int,_LUCKY_ITEM_INFO,std::less<int>,std::allocator<std::pair<int const ,_LUCKY_ITEM_INFO> >,0> >
__ehhandler$??1LuckyItemManager@@QAE@XZ:
  00008	8b 54 24 08	 mov	 edx, DWORD PTR [esp+8]
  0000c	8d 42 0c	 lea	 eax, DWORD PTR [edx+12]
  0000f	8b 4a f0	 mov	 ecx, DWORD PTR [edx-16]
  00012	33 c8		 xor	 ecx, eax
  00014	e8 00 00 00 00	 call	 @__security_check_cookie@4
  00019	b8 00 00 00 00	 mov	 eax, OFFSET __ehfuncinfo$??1LuckyItemManager@@QAE@XZ
  0001e	e9 00 00 00 00	 jmp	 ___CxxFrameHandler3
text$x	ENDS
??1LuckyItemManager@@QAE@XZ ENDP			; LuckyItemManager::~LuckyItemManager
PUBLIC	??0?$map@HU_LUCKY_ITEM_INFO@@U?$less@H@std@@V?$allocator@U?$pair@$$CBHU_LUCKY_ITEM_INFO@@@std@@@3@@std@@QAE@XZ ; std::map<int,_LUCKY_ITEM_INFO,std::less<int>,std::allocator<std::pair<int const ,_LUCKY_ITEM_INFO> > >::map<int,_LUCKY_ITEM_INFO,std::less<int>,std::allocator<std::pair<int const ,_LUCKY_ITEM_INFO> > >
; Function compile flags: /Ogtp
; File c:\program files (x86)\microsoft visual studio 10.0\vc\include\map
;	COMDAT ??0?$map@HU_LUCKY_ITEM_INFO@@U?$less@H@std@@V?$allocator@U?$pair@$$CBHU_LUCKY_ITEM_INFO@@@std@@@3@@std@@QAE@XZ
_TEXT	SEGMENT
$T188739 = -16						; size = 12
$T188640 = -4						; size = 4
??0?$map@HU_LUCKY_ITEM_INFO@@U?$less@H@std@@V?$allocator@U?$pair@$$CBHU_LUCKY_ITEM_INFO@@@std@@@3@@std@@QAE@XZ PROC ; std::map<int,_LUCKY_ITEM_INFO,std::less<int>,std::allocator<std::pair<int const ,_LUCKY_ITEM_INFO> > >::map<int,_LUCKY_ITEM_INFO,std::less<int>,std::allocator<std::pair<int const ,_LUCKY_ITEM_INFO> > >, COMDAT
; _this$ = ecx

; 106  : 		{	// construct empty map from defaults

  00000	55		 push	 ebp
  00001	8b ec		 mov	 ebp, esp
  00003	83 ec 10	 sub	 esp, 16			; 00000010H
  00006	56		 push	 esi
  00007	8b f1		 mov	 esi, ecx
  00009	68 b8 01 00 00	 push	 440			; 000001b8H
  0000e	c7 46 08 00 00
	00 00		 mov	 DWORD PTR [esi+8], 0
  00015	e8 00 00 00 00	 call	 ??2@YAPAXI@Z		; operator new
  0001a	83 c4 04	 add	 esp, 4
  0001d	85 c0		 test	 eax, eax
  0001f	74 2c		 je	 SHORT $LN25@map
  00021	89 46 04	 mov	 DWORD PTR [esi+4], eax
  00024	89 00		 mov	 DWORD PTR [eax], eax
  00026	8b 46 04	 mov	 eax, DWORD PTR [esi+4]
  00029	89 40 04	 mov	 DWORD PTR [eax+4], eax
  0002c	8b 46 04	 mov	 eax, DWORD PTR [esi+4]
  0002f	89 40 08	 mov	 DWORD PTR [eax+8], eax
  00032	8b 4e 04	 mov	 ecx, DWORD PTR [esi+4]
  00035	b0 01		 mov	 al, 1
  00037	88 81 b4 01 00
	00		 mov	 BYTE PTR [ecx+436], al
  0003d	8b 56 04	 mov	 edx, DWORD PTR [esi+4]
  00040	88 82 b5 01 00
	00		 mov	 BYTE PTR [edx+437], al

; 107  : 		}

  00046	8b c6		 mov	 eax, esi
  00048	5e		 pop	 esi
  00049	8b e5		 mov	 esp, ebp
  0004b	5d		 pop	 ebp
  0004c	c3		 ret	 0

; 106  : 		{	// construct empty map from defaults

$LN25@map:
  0004d	8d 45 fc	 lea	 eax, DWORD PTR $T188640[ebp]
  00050	50		 push	 eax
  00051	8d 4d f0	 lea	 ecx, DWORD PTR $T188739[ebp]
  00054	c7 45 fc 00 00
	00 00		 mov	 DWORD PTR $T188640[ebp], 0
  0005b	e8 00 00 00 00	 call	 ??0exception@std@@QAE@ABQBD@Z ; std::exception::exception
  00060	68 00 00 00 00	 push	 OFFSET __TI2?AVbad_alloc@std@@
  00065	8d 4d f0	 lea	 ecx, DWORD PTR $T188739[ebp]
  00068	51		 push	 ecx
  00069	c7 45 f0 00 00
	00 00		 mov	 DWORD PTR $T188739[ebp], OFFSET ??_7bad_alloc@std@@6B@
  00070	e8 00 00 00 00	 call	 __CxxThrowException@8
$LN49@map:
$LN48@map:
  00075	cc		 int	 3
??0?$map@HU_LUCKY_ITEM_INFO@@U?$less@H@std@@V?$allocator@U?$pair@$$CBHU_LUCKY_ITEM_INFO@@@std@@@3@@std@@QAE@XZ ENDP ; std::map<int,_LUCKY_ITEM_INFO,std::less<int>,std::allocator<std::pair<int const ,_LUCKY_ITEM_INFO> > >::map<int,_LUCKY_ITEM_INFO,std::less<int>,std::allocator<std::pair<int const ,_LUCKY_ITEM_INFO> > >
_TEXT	ENDS
PUBLIC	??0LuckyItemManager@@QAE@XZ			; LuckyItemManager::LuckyItemManager
; Function compile flags: /Ogtp
; File c:\muserver_dev\development\mu-s8ep2-repack\gameserver\source\luckyitem.cpp
;	COMDAT ??0LuckyItemManager@@QAE@XZ
_TEXT	SEGMENT
$T188960 = -16						; size = 12
$T188813 = -4						; size = 4
??0LuckyItemManager@@QAE@XZ PROC			; LuckyItemManager::LuckyItemManager, COMDAT
; _this$ = ecx

; 25   : {

  00000	55		 push	 ebp
  00001	8b ec		 mov	 ebp, esp
  00003	83 ec 10	 sub	 esp, 16			; 00000010H
  00006	56		 push	 esi
  00007	8b f1		 mov	 esi, ecx
  00009	68 b8 01 00 00	 push	 440			; 000001b8H
  0000e	c7 46 0c 00 00
	00 00		 mov	 DWORD PTR [esi+12], 0
  00015	e8 00 00 00 00	 call	 ??2@YAPAXI@Z		; operator new
  0001a	83 c4 04	 add	 esp, 4
  0001d	85 c0		 test	 eax, eax
  0001f	74 32		 je	 SHORT $LN28@LuckyItemM
  00021	89 46 08	 mov	 DWORD PTR [esi+8], eax
  00024	89 00		 mov	 DWORD PTR [eax], eax
  00026	8b 46 08	 mov	 eax, DWORD PTR [esi+8]
  00029	89 40 04	 mov	 DWORD PTR [eax+4], eax
  0002c	8b 46 08	 mov	 eax, DWORD PTR [esi+8]
  0002f	89 40 08	 mov	 DWORD PTR [eax+8], eax
  00032	8b 4e 08	 mov	 ecx, DWORD PTR [esi+8]
  00035	b0 01		 mov	 al, 1
  00037	88 81 b4 01 00
	00		 mov	 BYTE PTR [ecx+436], al
  0003d	8b 56 08	 mov	 edx, DWORD PTR [esi+8]
  00040	88 82 b5 01 00
	00		 mov	 BYTE PTR [edx+437], al

; 26   : 	this->TicketCount = 0;

  00046	c7 06 00 00 00
	00		 mov	 DWORD PTR [esi], 0

; 27   : }

  0004c	8b c6		 mov	 eax, esi
  0004e	5e		 pop	 esi
  0004f	8b e5		 mov	 esp, ebp
  00051	5d		 pop	 ebp
  00052	c3		 ret	 0

; 25   : {

$LN28@LuckyItemM:
  00053	8d 45 fc	 lea	 eax, DWORD PTR $T188813[ebp]
  00056	50		 push	 eax
  00057	8d 4d f0	 lea	 ecx, DWORD PTR $T188960[ebp]
  0005a	c7 45 fc 00 00
	00 00		 mov	 DWORD PTR $T188813[ebp], 0
  00061	e8 00 00 00 00	 call	 ??0exception@std@@QAE@ABQBD@Z ; std::exception::exception
  00066	68 00 00 00 00	 push	 OFFSET __TI2?AVbad_alloc@std@@
  0006b	8d 4d f0	 lea	 ecx, DWORD PTR $T188960[ebp]
  0006e	51		 push	 ecx
  0006f	c7 45 f0 00 00
	00 00		 mov	 DWORD PTR $T188960[ebp], OFFSET ??_7bad_alloc@std@@6B@
  00076	e8 00 00 00 00	 call	 __CxxThrowException@8
$LN53@LuckyItemM:
$LN52@LuckyItemM:
  0007b	cc		 int	 3
??0LuckyItemManager@@QAE@XZ ENDP			; LuckyItemManager::LuckyItemManager
_TEXT	ENDS
EXTRN	_atexit:PROC
; Function compile flags: /Ogtp
;	COMDAT ??__Eg_LuckyItemManager@@YAXXZ
text$yc	SEGMENT
??__Eg_LuckyItemManager@@YAXXZ PROC			; `dynamic initializer for 'g_LuckyItemManager'', COMDAT

; 17   : LuckyItemManager	g_LuckyItemManager;

  00000	b9 00 00 00 00	 mov	 ecx, OFFSET ?g_LuckyItemManager@@3ULuckyItemManager@@A ; g_LuckyItemManager
  00005	e8 00 00 00 00	 call	 ??0LuckyItemManager@@QAE@XZ ; LuckyItemManager::LuckyItemManager
  0000a	68 00 00 00 00	 push	 OFFSET ??__Fg_LuckyItemManager@@YAXXZ ; `dynamic atexit destructor for 'g_LuckyItemManager''
  0000f	e8 00 00 00 00	 call	 _atexit
  00014	59		 pop	 ecx
  00015	c3		 ret	 0
??__Eg_LuckyItemManager@@YAXXZ ENDP			; `dynamic initializer for 'g_LuckyItemManager''
; Function compile flags: /Ogtp
text$yc	ENDS
;	COMDAT ??__Fg_LuckyItemManager@@YAXXZ
text$yd	SEGMENT
??__Fg_LuckyItemManager@@YAXXZ PROC			; `dynamic atexit destructor for 'g_LuckyItemManager'', COMDAT
  00000	b9 00 00 00 00	 mov	 ecx, OFFSET ?g_LuckyItemManager@@3ULuckyItemManager@@A ; g_LuckyItemManager
  00005	e9 00 00 00 00	 jmp	 ??1LuckyItemManager@@QAE@XZ ; LuckyItemManager::~LuckyItemManager
??__Fg_LuckyItemManager@@YAXXZ ENDP			; `dynamic atexit destructor for 'g_LuckyItemManager''
text$yd	ENDS
PUBLIC	?g_LuckyItemManager@@3ULuckyItemManager@@A	; g_LuckyItemManager
_BSS	SEGMENT
?g_LuckyItemManager@@3ULuckyItemManager@@A DB 014H DUP (?) ; g_LuckyItemManager
_BSS	ENDS
CRT$XCU	SEGMENT
_g_LuckyItemManager$initializer$ DD FLAT:??__Eg_LuckyItemManager@@YAXXZ
CRT$XCU	ENDS
END
