; Listing generated by Microsoft (R) Optimizing Compiler Version 16.00.40219.01 

	TITLE	C:\muserver_dev\development\MU-S8EP2-Repack\GameServer\Source\MultiWareHouseSystem.cpp
	.686P
	.XMM
	include listing.inc
	.model	flat

INCLUDELIB LIBCMT
INCLUDELIB OLDNAMES

PUBLIC	??1OBJECTSTRUCT@@QAE@XZ				; OBJECTSTRUCT::~OBJECTSTRUCT
EXTRN	??1CSkillDelay@@UAE@XZ:PROC			; CSkillDelay::~CSkillDelay
EXTRN	??1TMonsterAIAgro@@UAE@XZ:PROC			; TMonsterAIAgro::~TMonsterAIAgro
EXTRN	___security_cookie:DWORD
EXTRN	___CxxFrameHandler3:PROC
EXTRN	@__security_check_cookie@4:PROC
;	COMDAT xdata$x
xdata$x	SEGMENT
__unwindtable$??1OBJECTSTRUCT@@QAE@XZ DD 0ffffffffH
	DD	FLAT:__unwindfunclet$??1OBJECTSTRUCT@@QAE@XZ$0
__ehfuncinfo$??1OBJECTSTRUCT@@QAE@XZ DD 019930522H
	DD	01H
	DD	FLAT:__unwindtable$??1OBJECTSTRUCT@@QAE@XZ
	DD	2 DUP(00H)
	DD	2 DUP(00H)
	DD	00H
	DD	01H
; Function compile flags: /Ogtp
xdata$x	ENDS
;	COMDAT ??1OBJECTSTRUCT@@QAE@XZ
_TEXT	SEGMENT
_this$ = -16						; size = 4
__$EHRec$ = -12						; size = 12
??1OBJECTSTRUCT@@QAE@XZ PROC				; OBJECTSTRUCT::~OBJECTSTRUCT, COMDAT
; _this$ = ecx
  00000	55		 push	 ebp
  00001	8b ec		 mov	 ebp, esp
  00003	6a ff		 push	 -1
  00005	68 00 00 00 00	 push	 __ehhandler$??1OBJECTSTRUCT@@QAE@XZ
  0000a	64 a1 00 00 00
	00		 mov	 eax, DWORD PTR fs:0
  00010	50		 push	 eax
  00011	51		 push	 ecx
  00012	56		 push	 esi
  00013	a1 00 00 00 00	 mov	 eax, DWORD PTR ___security_cookie
  00018	33 c5		 xor	 eax, ebp
  0001a	50		 push	 eax
  0001b	8d 45 f4	 lea	 eax, DWORD PTR __$EHRec$[ebp]
  0001e	64 a3 00 00 00
	00		 mov	 DWORD PTR fs:0, eax
  00024	8b f1		 mov	 esi, ecx
  00026	89 75 f0	 mov	 DWORD PTR _this$[ebp], esi
  00029	8d 8e ec 20 00
	00		 lea	 ecx, DWORD PTR [esi+8428]
  0002f	c7 45 fc 00 00
	00 00		 mov	 DWORD PTR __$EHRec$[ebp+8], 0
  00036	e8 00 00 00 00	 call	 ??1TMonsterAIAgro@@UAE@XZ ; TMonsterAIAgro::~TMonsterAIAgro
  0003b	8d 8e 0c 16 00
	00		 lea	 ecx, DWORD PTR [esi+5644]
  00041	c7 45 fc ff ff
	ff ff		 mov	 DWORD PTR __$EHRec$[ebp+8], -1
  00048	e8 00 00 00 00	 call	 ??1CSkillDelay@@UAE@XZ	; CSkillDelay::~CSkillDelay
  0004d	8b 4d f4	 mov	 ecx, DWORD PTR __$EHRec$[ebp]
  00050	64 89 0d 00 00
	00 00		 mov	 DWORD PTR fs:0, ecx
  00057	59		 pop	 ecx
  00058	5e		 pop	 esi
  00059	8b e5		 mov	 esp, ebp
  0005b	5d		 pop	 ebp
  0005c	c3		 ret	 0
_TEXT	ENDS
;	COMDAT text$x
text$x	SEGMENT
__unwindfunclet$??1OBJECTSTRUCT@@QAE@XZ$0:
  00000	8b 4d f0	 mov	 ecx, DWORD PTR _this$[ebp]
  00003	81 c1 0c 16 00
	00		 add	 ecx, 5644		; 0000160cH
  00009	e9 00 00 00 00	 jmp	 ??1CSkillDelay@@UAE@XZ	; CSkillDelay::~CSkillDelay
__ehhandler$??1OBJECTSTRUCT@@QAE@XZ:
  0000e	8b 54 24 08	 mov	 edx, DWORD PTR [esp+8]
  00012	8d 42 0c	 lea	 eax, DWORD PTR [edx+12]
  00015	8b 4a f4	 mov	 ecx, DWORD PTR [edx-12]
  00018	33 c8		 xor	 ecx, eax
  0001a	e8 00 00 00 00	 call	 @__security_check_cookie@4
  0001f	b8 00 00 00 00	 mov	 eax, OFFSET __ehfuncinfo$??1OBJECTSTRUCT@@QAE@XZ
  00024	e9 00 00 00 00	 jmp	 ___CxxFrameHandler3
text$x	ENDS
??1OBJECTSTRUCT@@QAE@XZ ENDP				; OBJECTSTRUCT::~OBJECTSTRUCT
PUBLIC	??0WareHouseSYSTEM@@QAE@XZ			; WareHouseSYSTEM::WareHouseSYSTEM
; Function compile flags: /Ogtp
; File c:\muserver_dev\development\mu-s8ep2-repack\gameserver\source\multiwarehousesystem.cpp
;	COMDAT ??0WareHouseSYSTEM@@QAE@XZ
_TEXT	SEGMENT
??0WareHouseSYSTEM@@QAE@XZ PROC				; WareHouseSYSTEM::WareHouseSYSTEM, COMDAT
; _this$ = ecx

; 9    : {

  00000	8b c1		 mov	 eax, ecx

; 10   : 
; 11   : }

  00002	c3		 ret	 0
??0WareHouseSYSTEM@@QAE@XZ ENDP				; WareHouseSYSTEM::WareHouseSYSTEM
_TEXT	ENDS
PUBLIC	??1WareHouseSYSTEM@@QAE@XZ			; WareHouseSYSTEM::~WareHouseSYSTEM
; Function compile flags: /Ogtp
;	COMDAT ??1WareHouseSYSTEM@@QAE@XZ
_TEXT	SEGMENT
??1WareHouseSYSTEM@@QAE@XZ PROC				; WareHouseSYSTEM::~WareHouseSYSTEM, COMDAT
; _this$ = ecx

; 15   : 
; 16   : }

  00000	c3		 ret	 0
??1WareHouseSYSTEM@@QAE@XZ ENDP				; WareHouseSYSTEM::~WareHouseSYSTEM
_TEXT	ENDS
PUBLIC	??_C@_0CD@EPEBFCJH@Requested?5to?5Change?5Warehouse?5?3?5@ ; `string'
PUBLIC	__$ArrayPad$
PUBLIC	?DBSendVaultInfo@WareHouseSYSTEM@@QAEXHPADE@Z	; WareHouseSYSTEM::DBSendVaultInfo
EXTRN	?LogAddTD@@3P6AXPADZZA:DWORD			; LogAddTD
EXTRN	?Send@DBSockMng@@QAEHPADH@Z:PROC		; DBSockMng::Send
EXTRN	?cDBSMng@@3VDBSockMng@@A:BYTE			; cDBSMng
EXTRN	?PHeadSubSetB@@YAXPAEEEH@Z:PROC			; PHeadSubSetB
;	COMDAT ??_C@_0CD@EPEBFCJH@Requested?5to?5Change?5Warehouse?5?3?5@
CONST	SEGMENT
??_C@_0CD@EPEBFCJH@Requested?5to?5Change?5Warehouse?5?3?5@ DB 'Requested '
	DB	'to Change Warehouse : %s', 00H		; `string'
; Function compile flags: /Ogtp
CONST	ENDS
;	COMDAT ?DBSendVaultInfo@WareHouseSYSTEM@@QAEXHPADE@Z
_TEXT	SEGMENT
_pMsg$ = -24						; size = 20
__$ArrayPad$ = -4					; size = 4
_aIndex$ = 8						; size = 4
_AccountID$ = 12					; size = 4
_VaultID$ = 16						; size = 1
?DBSendVaultInfo@WareHouseSYSTEM@@QAEXHPADE@Z PROC	; WareHouseSYSTEM::DBSendVaultInfo, COMDAT
; _this$ = ecx

; 41   : {

  00000	55		 push	 ebp
  00001	8b ec		 mov	 ebp, esp
  00003	83 ec 18	 sub	 esp, 24			; 00000018H
  00006	a1 00 00 00 00	 mov	 eax, DWORD PTR ___security_cookie
  0000b	33 c5		 xor	 eax, ebp
  0000d	89 45 fc	 mov	 DWORD PTR __$ArrayPad$[ebp], eax
  00010	56		 push	 esi
  00011	8b 75 0c	 mov	 esi, DWORD PTR _AccountID$[ebp]

; 42   : 	PMSG_VAULT_INFO pMsg = { 0 };

  00014	33 c0		 xor	 eax, eax

; 43   : 
; 44   : 	PHeadSubSetB((LPBYTE)&pMsg, 0xFD, 0x04, sizeof(pMsg));

  00016	6a 14		 push	 20			; 00000014H
  00018	6a 04		 push	 4
  0001a	89 45 e9	 mov	 DWORD PTR _pMsg$[ebp+1], eax
  0001d	89 45 ed	 mov	 DWORD PTR _pMsg$[ebp+5], eax
  00020	89 45 f1	 mov	 DWORD PTR _pMsg$[ebp+9], eax
  00023	89 45 f5	 mov	 DWORD PTR _pMsg$[ebp+13], eax
  00026	66 89 45 f9	 mov	 WORD PTR _pMsg$[ebp+17], ax
  0002a	88 45 fb	 mov	 BYTE PTR _pMsg$[ebp+19], al
  0002d	8d 45 e8	 lea	 eax, DWORD PTR _pMsg$[ebp]
  00030	68 fd 00 00 00	 push	 253			; 000000fdH
  00035	50		 push	 eax
  00036	c6 45 e8 00	 mov	 BYTE PTR _pMsg$[ebp], 0
  0003a	e8 00 00 00 00	 call	 ?PHeadSubSetB@@YAXPAEEEH@Z ; PHeadSubSetB

; 45   : 
; 46   : 	pMsg.aIndex = aIndex;

  0003f	8b 4d 08	 mov	 ecx, DWORD PTR _aIndex$[ebp]

; 47   : 	memcpy(pMsg.chAccountID, AccountID, 10);

  00042	8b 46 04	 mov	 eax, DWORD PTR [esi+4]
  00045	8b 16		 mov	 edx, DWORD PTR [esi]
  00047	83 c4 10	 add	 esp, 16			; 00000010H
  0004a	89 4d ec	 mov	 DWORD PTR _pMsg$[ebp+4], ecx
  0004d	66 8b 4e 08	 mov	 cx, WORD PTR [esi+8]
  00051	89 45 f4	 mov	 DWORD PTR _pMsg$[ebp+12], eax
  00054	89 55 f0	 mov	 DWORD PTR _pMsg$[ebp+8], edx

; 48   : 	pMsg.chAccountID[10] = '\0';
; 49   : 
; 50   : 	pMsg.VaultID = VaultID;

  00057	8a 55 10	 mov	 dl, BYTE PTR _VaultID$[ebp]

; 51   : 
; 52   : 	cDBSMng.Send((PCHAR)&pMsg, sizeof(pMsg));

  0005a	6a 14		 push	 20			; 00000014H
  0005c	8d 45 e8	 lea	 eax, DWORD PTR _pMsg$[ebp]
  0005f	66 89 4d f8	 mov	 WORD PTR _pMsg$[ebp+16], cx
  00063	50		 push	 eax
  00064	b9 00 00 00 00	 mov	 ecx, OFFSET ?cDBSMng@@3VDBSockMng@@A ; cDBSMng
  00069	c6 45 fa 00	 mov	 BYTE PTR _pMsg$[ebp+18], 0
  0006d	88 55 fb	 mov	 BYTE PTR _pMsg$[ebp+19], dl
  00070	e8 00 00 00 00	 call	 ?Send@DBSockMng@@QAEHPADH@Z ; DBSockMng::Send

; 53   : 	LogAddTD("Requested to Change Warehouse : %s", pMsg.chAccountID);

  00075	8d 4d f0	 lea	 ecx, DWORD PTR _pMsg$[ebp+8]
  00078	51		 push	 ecx
  00079	68 00 00 00 00	 push	 OFFSET ??_C@_0CD@EPEBFCJH@Requested?5to?5Change?5Warehouse?5?3?5@
  0007e	ff 15 00 00 00
	00		 call	 DWORD PTR ?LogAddTD@@3P6AXPADZZA ; LogAddTD

; 54   : }

  00084	8b 4d fc	 mov	 ecx, DWORD PTR __$ArrayPad$[ebp]
  00087	83 c4 08	 add	 esp, 8
  0008a	33 cd		 xor	 ecx, ebp
  0008c	5e		 pop	 esi
  0008d	e8 00 00 00 00	 call	 @__security_check_cookie@4
  00092	8b e5		 mov	 esp, ebp
  00094	5d		 pop	 ebp
  00095	c2 0c 00	 ret	 12			; 0000000cH
?DBSendVaultInfo@WareHouseSYSTEM@@QAEXHPADE@Z ENDP	; WareHouseSYSTEM::DBSendVaultInfo
_TEXT	ENDS
PUBLIC	??_C@_0BL@EAKGOGAH@Warehouse?5has?5been?5changed?$AA@ ; `string'
PUBLIC	?DBSendVaultResult@WareHouseSYSTEM@@QAEXPAUPMSG_VAULT_RESULT@@@Z ; WareHouseSYSTEM::DBSendVaultResult
EXTRN	?GCServerMsgStringSend@@YAXPADHE@Z:PROC		; GCServerMsgStringSend
EXTRN	?gObj@@3PAUOBJECTSTRUCT@@A:DWORD		; gObj
;	COMDAT ??_C@_0BL@EAKGOGAH@Warehouse?5has?5been?5changed?$AA@
CONST	SEGMENT
??_C@_0BL@EAKGOGAH@Warehouse?5has?5been?5changed?$AA@ DB 'Warehouse has b'
	DB	'een changed', 00H				; `string'
; Function compile flags: /Ogtp
CONST	ENDS
;	COMDAT ?DBSendVaultResult@WareHouseSYSTEM@@QAEXPAUPMSG_VAULT_RESULT@@@Z
_TEXT	SEGMENT
_lpMsg$ = 8						; size = 4
?DBSendVaultResult@WareHouseSYSTEM@@QAEXPAUPMSG_VAULT_RESULT@@@Z PROC ; WareHouseSYSTEM::DBSendVaultResult, COMDAT
; _this$ = ecx

; 57   : {

  00000	55		 push	 ebp
  00001	8b ec		 mov	 ebp, esp

; 58   : 	LPOBJ lpObj = &gObj[lpMsg->aIndex];

  00003	8b 4d 08	 mov	 ecx, DWORD PTR _lpMsg$[ebp]
  00006	8b 41 04	 mov	 eax, DWORD PTR [ecx+4]

; 59   : 
; 60   : 	lpObj->RecvSendWare = lpMsg->Result;

  00009	8a 49 08	 mov	 cl, BYTE PTR [ecx+8]
  0000c	69 c0 40 27 00
	00		 imul	 eax, 10048		; 00002740H
  00012	03 05 00 00 00
	00		 add	 eax, DWORD PTR ?gObj@@3PAUOBJECTSTRUCT@@A ; gObj

; 61   : 
; 62   : 	GCServerMsgStringSend("Warehouse has been changed", lpObj->m_Index, 1);

  00018	6a 01		 push	 1
  0001a	8b 10		 mov	 edx, DWORD PTR [eax]
  0001c	52		 push	 edx
  0001d	68 00 00 00 00	 push	 OFFSET ??_C@_0BL@EAKGOGAH@Warehouse?5has?5been?5changed?$AA@
  00022	88 88 1c 27 00
	00		 mov	 BYTE PTR [eax+10012], cl
  00028	e8 00 00 00 00	 call	 ?GCServerMsgStringSend@@YAXPADHE@Z ; GCServerMsgStringSend
  0002d	83 c4 0c	 add	 esp, 12			; 0000000cH

; 63   : }

  00030	5d		 pop	 ebp
  00031	c2 04 00	 ret	 4
?DBSendVaultResult@WareHouseSYSTEM@@QAEXPAUPMSG_VAULT_RESULT@@@Z ENDP ; WareHouseSYSTEM::DBSendVaultResult
_TEXT	ENDS
PUBLIC	??_EOBJECTSTRUCT@@QAEPAXI@Z			; OBJECTSTRUCT::`vector deleting destructor'
EXTRN	??3@YAXPAX@Z:PROC				; operator delete
EXTRN	??_V@YAXPAX@Z:PROC				; operator delete[]
EXTRN	??_M@YGXPAXIHP6EX0@Z@Z:PROC			; `eh vector destructor iterator'
;	COMDAT xdata$x
xdata$x	SEGMENT
__unwindtable$??_EOBJECTSTRUCT@@QAEPAXI@Z DD 0ffffffffH
	DD	FLAT:__unwindfunclet$??_EOBJECTSTRUCT@@QAEPAXI@Z$0
__ehfuncinfo$??_EOBJECTSTRUCT@@QAEPAXI@Z DD 019930522H
	DD	01H
	DD	FLAT:__unwindtable$??_EOBJECTSTRUCT@@QAEPAXI@Z
	DD	2 DUP(00H)
	DD	2 DUP(00H)
	DD	00H
	DD	01H
; Function compile flags: /Ogtp
xdata$x	ENDS
;	COMDAT ??_EOBJECTSTRUCT@@QAEPAXI@Z
_TEXT	SEGMENT
_this$ = -16						; size = 4
__$EHRec$ = -12						; size = 12
___flags$ = 8						; size = 4
??_EOBJECTSTRUCT@@QAEPAXI@Z PROC			; OBJECTSTRUCT::`vector deleting destructor', COMDAT
; _this$ = ecx
  00000	55		 push	 ebp
  00001	8b ec		 mov	 ebp, esp
  00003	6a ff		 push	 -1
  00005	68 00 00 00 00	 push	 __ehhandler$??_EOBJECTSTRUCT@@QAEPAXI@Z
  0000a	64 a1 00 00 00
	00		 mov	 eax, DWORD PTR fs:0
  00010	50		 push	 eax
  00011	51		 push	 ecx
  00012	53		 push	 ebx
  00013	56		 push	 esi
  00014	57		 push	 edi
  00015	a1 00 00 00 00	 mov	 eax, DWORD PTR ___security_cookie
  0001a	33 c5		 xor	 eax, ebp
  0001c	50		 push	 eax
  0001d	8d 45 f4	 lea	 eax, DWORD PTR __$EHRec$[ebp]
  00020	64 a3 00 00 00
	00		 mov	 DWORD PTR fs:0, eax
  00026	8b f1		 mov	 esi, ecx
  00028	89 75 f0	 mov	 DWORD PTR _this$[ebp], esi
  0002b	8a 5d 08	 mov	 bl, BYTE PTR ___flags$[ebp]
  0002e	f6 c3 02	 test	 bl, 2
  00031	74 3b		 je	 SHORT $LN3@vector
  00033	8b 46 fc	 mov	 eax, DWORD PTR [esi-4]
  00036	68 00 00 00 00	 push	 OFFSET ??1OBJECTSTRUCT@@QAE@XZ
  0003b	8d 7e fc	 lea	 edi, DWORD PTR [esi-4]
  0003e	50		 push	 eax
  0003f	68 40 27 00 00	 push	 10048			; 00002740H
  00044	56		 push	 esi
  00045	e8 00 00 00 00	 call	 ??_M@YGXPAXIHP6EX0@Z@Z
  0004a	f6 c3 01	 test	 bl, 1
  0004d	74 09		 je	 SHORT $LN2@vector
  0004f	57		 push	 edi
  00050	e8 00 00 00 00	 call	 ??_V@YAXPAX@Z		; operator delete[]
  00055	83 c4 04	 add	 esp, 4
$LN2@vector:
  00058	8b c7		 mov	 eax, edi
  0005a	8b 4d f4	 mov	 ecx, DWORD PTR __$EHRec$[ebp]
  0005d	64 89 0d 00 00
	00 00		 mov	 DWORD PTR fs:0, ecx
  00064	59		 pop	 ecx
  00065	5f		 pop	 edi
  00066	5e		 pop	 esi
  00067	5b		 pop	 ebx
  00068	8b e5		 mov	 esp, ebp
  0006a	5d		 pop	 ebp
  0006b	c2 04 00	 ret	 4
$LN3@vector:
  0006e	8d 8e ec 20 00
	00		 lea	 ecx, DWORD PTR [esi+8428]
  00074	c7 45 fc 00 00
	00 00		 mov	 DWORD PTR __$EHRec$[ebp+8], 0
  0007b	e8 00 00 00 00	 call	 ??1TMonsterAIAgro@@UAE@XZ ; TMonsterAIAgro::~TMonsterAIAgro
  00080	8d 8e 0c 16 00
	00		 lea	 ecx, DWORD PTR [esi+5644]
  00086	c7 45 fc ff ff
	ff ff		 mov	 DWORD PTR __$EHRec$[ebp+8], -1
  0008d	e8 00 00 00 00	 call	 ??1CSkillDelay@@UAE@XZ	; CSkillDelay::~CSkillDelay
  00092	f6 c3 01	 test	 bl, 1
  00095	74 09		 je	 SHORT $LN1@vector
  00097	56		 push	 esi
  00098	e8 00 00 00 00	 call	 ??3@YAXPAX@Z		; operator delete
  0009d	83 c4 04	 add	 esp, 4
$LN1@vector:
  000a0	8b c6		 mov	 eax, esi
  000a2	8b 4d f4	 mov	 ecx, DWORD PTR __$EHRec$[ebp]
  000a5	64 89 0d 00 00
	00 00		 mov	 DWORD PTR fs:0, ecx
  000ac	59		 pop	 ecx
  000ad	5f		 pop	 edi
  000ae	5e		 pop	 esi
  000af	5b		 pop	 ebx
  000b0	8b e5		 mov	 esp, ebp
  000b2	5d		 pop	 ebp
  000b3	c2 04 00	 ret	 4
_TEXT	ENDS
;	COMDAT text$x
text$x	SEGMENT
__unwindfunclet$??_EOBJECTSTRUCT@@QAEPAXI@Z$0:
  00000	8b 4d f0	 mov	 ecx, DWORD PTR _this$[ebp]
  00003	81 c1 0c 16 00
	00		 add	 ecx, 5644		; 0000160cH
  00009	e9 00 00 00 00	 jmp	 ??1CSkillDelay@@UAE@XZ	; CSkillDelay::~CSkillDelay
__ehhandler$??_EOBJECTSTRUCT@@QAEPAXI@Z:
  0000e	8b 54 24 08	 mov	 edx, DWORD PTR [esp+8]
  00012	8d 42 0c	 lea	 eax, DWORD PTR [edx+12]
  00015	8b 4a ec	 mov	 ecx, DWORD PTR [edx-20]
  00018	33 c8		 xor	 ecx, eax
  0001a	e8 00 00 00 00	 call	 @__security_check_cookie@4
  0001f	b8 00 00 00 00	 mov	 eax, OFFSET __ehfuncinfo$??_EOBJECTSTRUCT@@QAEPAXI@Z
  00024	e9 00 00 00 00	 jmp	 ___CxxFrameHandler3
text$x	ENDS
??_EOBJECTSTRUCT@@QAEPAXI@Z ENDP			; OBJECTSTRUCT::`vector deleting destructor'
EXTRN	_atexit:PROC
; Function compile flags: /Ogtp
;	COMDAT ??__EgWareHouseSYSTEM@@YAXXZ
text$yc	SEGMENT
??__EgWareHouseSYSTEM@@YAXXZ PROC			; `dynamic initializer for 'gWareHouseSYSTEM'', COMDAT

; 6    : WareHouseSYSTEM		gWareHouseSYSTEM;

  00000	68 00 00 00 00	 push	 OFFSET ??__FgWareHouseSYSTEM@@YAXXZ ; `dynamic atexit destructor for 'gWareHouseSYSTEM''
  00005	e8 00 00 00 00	 call	 _atexit
  0000a	59		 pop	 ecx
  0000b	c3		 ret	 0
??__EgWareHouseSYSTEM@@YAXXZ ENDP			; `dynamic initializer for 'gWareHouseSYSTEM''
; Function compile flags: /Ogtp
text$yc	ENDS
;	COMDAT ??__FgWareHouseSYSTEM@@YAXXZ
text$yd	SEGMENT
??__FgWareHouseSYSTEM@@YAXXZ PROC			; `dynamic atexit destructor for 'gWareHouseSYSTEM'', COMDAT
  00000	c3		 ret	 0
??__FgWareHouseSYSTEM@@YAXXZ ENDP			; `dynamic atexit destructor for 'gWareHouseSYSTEM''
text$yd	ENDS
PUBLIC	?gWareHouseSYSTEM@@3VWareHouseSYSTEM@@A		; gWareHouseSYSTEM
_BSS	SEGMENT
?gWareHouseSYSTEM@@3VWareHouseSYSTEM@@A DB 01H DUP (?)	; gWareHouseSYSTEM
_BSS	ENDS
CRT$XCU	SEGMENT
_gWareHouseSYSTEM$initializer$ DD FLAT:??__EgWareHouseSYSTEM@@YAXXZ
CRT$XCU	ENDS
END
