; Listing generated by Microsoft (R) Optimizing Compiler Version 16.00.40219.01 

	TITLE	C:\muserver_dev\development\MU-S8EP2-Repack\GameServer\Source\NewPVP.cpp
	.686P
	.XMM
	include listing.inc
	.model	flat

INCLUDELIB LIBCMT
INCLUDELIB OLDNAMES

PUBLIC	?BLOCKSIZE@?$FixedBlockSize@$07@CryptoPP@@2HB	; CryptoPP::FixedBlockSize<8>::BLOCKSIZE
PUBLIC	?KEYLENGTH@?$FixedKeyLength@$07$03$0A@@CryptoPP@@2HB ; CryptoPP::FixedKeyLength<8,4,0>::KEYLENGTH
PUBLIC	?MIN_KEYLENGTH@?$FixedKeyLength@$07$03$0A@@CryptoPP@@2HB ; CryptoPP::FixedKeyLength<8,4,0>::MIN_KEYLENGTH
PUBLIC	?MAX_KEYLENGTH@?$FixedKeyLength@$07$03$0A@@CryptoPP@@2HB ; CryptoPP::FixedKeyLength<8,4,0>::MAX_KEYLENGTH
PUBLIC	?DEFAULT_KEYLENGTH@?$FixedKeyLength@$07$03$0A@@CryptoPP@@2HB ; CryptoPP::FixedKeyLength<8,4,0>::DEFAULT_KEYLENGTH
PUBLIC	?IV_REQUIREMENT@?$FixedKeyLength@$07$03$0A@@CryptoPP@@2HB ; CryptoPP::FixedKeyLength<8,4,0>::IV_REQUIREMENT
PUBLIC	?IV_LENGTH@?$FixedKeyLength@$07$03$0A@@CryptoPP@@2HB ; CryptoPP::FixedKeyLength<8,4,0>::IV_LENGTH
PUBLIC	?KEYLENGTH@?$FixedKeyLength@$0BA@$03$0A@@CryptoPP@@2HB ; CryptoPP::FixedKeyLength<16,4,0>::KEYLENGTH
PUBLIC	?MIN_KEYLENGTH@?$FixedKeyLength@$0BA@$03$0A@@CryptoPP@@2HB ; CryptoPP::FixedKeyLength<16,4,0>::MIN_KEYLENGTH
PUBLIC	?MAX_KEYLENGTH@?$FixedKeyLength@$0BA@$03$0A@@CryptoPP@@2HB ; CryptoPP::FixedKeyLength<16,4,0>::MAX_KEYLENGTH
PUBLIC	?DEFAULT_KEYLENGTH@?$FixedKeyLength@$0BA@$03$0A@@CryptoPP@@2HB ; CryptoPP::FixedKeyLength<16,4,0>::DEFAULT_KEYLENGTH
PUBLIC	?IV_REQUIREMENT@?$FixedKeyLength@$0BA@$03$0A@@CryptoPP@@2HB ; CryptoPP::FixedKeyLength<16,4,0>::IV_REQUIREMENT
PUBLIC	?IV_LENGTH@?$FixedKeyLength@$0BA@$03$0A@@CryptoPP@@2HB ; CryptoPP::FixedKeyLength<16,4,0>::IV_LENGTH
PUBLIC	?KEYLENGTH@?$FixedKeyLength@$0BI@$03$0A@@CryptoPP@@2HB ; CryptoPP::FixedKeyLength<24,4,0>::KEYLENGTH
PUBLIC	?MIN_KEYLENGTH@?$FixedKeyLength@$0BI@$03$0A@@CryptoPP@@2HB ; CryptoPP::FixedKeyLength<24,4,0>::MIN_KEYLENGTH
PUBLIC	?MAX_KEYLENGTH@?$FixedKeyLength@$0BI@$03$0A@@CryptoPP@@2HB ; CryptoPP::FixedKeyLength<24,4,0>::MAX_KEYLENGTH
PUBLIC	?DEFAULT_KEYLENGTH@?$FixedKeyLength@$0BI@$03$0A@@CryptoPP@@2HB ; CryptoPP::FixedKeyLength<24,4,0>::DEFAULT_KEYLENGTH
PUBLIC	?IV_REQUIREMENT@?$FixedKeyLength@$0BI@$03$0A@@CryptoPP@@2HB ; CryptoPP::FixedKeyLength<24,4,0>::IV_REQUIREMENT
PUBLIC	?IV_LENGTH@?$FixedKeyLength@$0BI@$03$0A@@CryptoPP@@2HB ; CryptoPP::FixedKeyLength<24,4,0>::IV_LENGTH
_DATA	SEGMENT
_g_sttBLOODCASTLE_LEVEL DD 0fH
	DD	050H
	DD	0aH
	DD	03cH
	DD	051H
	DD	082H
	DD	03dH
	DD	06eH
	DD	083H
	DD	0b4H
	DD	06fH
	DD	0a0H
	DD	0b5H
	DD	0e6H
	DD	0a1H
	DD	0d2H
	DD	0e7H
	DD	0118H
	DD	0d3H
	DD	0104H
	DD	0119H
	DD	014aH
	DD	0105H
	DD	0136H
	DD	014bH
	DD	0190H
	DD	0137H
	DD	0190H
	DD	00H
	DD	0190H
	DD	00H
	DD	0190H
_g_sttCHAOSCASTLE_LEVEL DD 0aH
	DD	031H
	DD	0aH
	DD	01dH
	DD	032H
	DD	077H
	DD	01eH
	DD	063H
	DD	078H
	DD	0b3H
	DD	064H
	DD	09fH
	DD	0b4H
	DD	0efH
	DD	0a0H
	DD	0dbH
	DD	0f0H
	DD	012bH
	DD	0dcH
	DD	0117H
	DD	012cH
	DD	0190H
	DD	0118H
	DD	0190H
	DD	00H
	DD	0190H
	DD	00H
	DD	0190H
_g_iChaosCastle_BlowOutDistance DD 03H
	DD	04H
	DD	03H
	DD	04H
	DD	02H
	DD	03H
	DD	00H
	DD	01H
_g_iChaosCastle_BlowOutDamage DD 0fH
	DD	0fH
	DD	0aH
	DD	05H
_g_iChaosCastle_EnterCost DD 061a8H
	DD	013880H
	DD	0249f0H
	DD	03d090H
	DD	061a80H
	DD	09eb10H
	DD	0f4240H
_g_iChaosCastle_GuardSetValue DD 09c4H
	DD	09c4H
	DD	09c4H
	DD	09c4H
	DD	09c4H
	DD	09c4H
	DD	09c4H
_g_iChaosCastle_MonsterItems DD 01c0dH
	DD	01H
	DD	01c0eH
	DD	01H
	DD	01c0dH
	DD	01H
	DD	01c0eH
	DD	01H
	DD	01c0dH
	DD	01H
	DD	01c0eH
	DD	01H
	DD	01c0dH
	DD	01H
	DD	01c0eH
	DD	01H
	DD	01c0dH
	DD	01H
	DD	01c0eH
	DD	02H
	DD	01c0dH
	DD	01H
	DD	01c0eH
	DD	02H
	DD	01c0dH
	DD	01H
	DD	01c0eH
	DD	02H
_g_iChaosCastle_GroundAxis DD 017H
	DD	04bH
	DD	02cH
	DD	06cH
_g_iChaosCastle_DamageAxis DD 017H
	DD	04bH
	DD	02cH
	DD	06cH
	DD	019H
	DD	04dH
	DD	02aH
	DD	06aH
	DD	01bH
	DD	04fH
	DD	028H
	DD	068H
	DD	01dH
	DD	051H
	DD	026H
	DD	066H
_g_iChaosCastle_MapHollowZone DD 017H
	DD	04bH
	DD	02cH
	DD	04cH
	DD	02bH
	DD	04dH
	DD	02cH
	DD	06cH
	DD	017H
	DD	06bH
	DD	02aH
	DD	06cH
	DD	017H
	DD	04dH
	DD	018H
	DD	06aH
	DD	017H
	DD	04bH
	DD	02cH
	DD	04cH
	DD	02bH
	DD	04dH
	DD	02cH
	DD	06cH
	DD	017H
	DD	06bH
	DD	02aH
	DD	06cH
	DD	017H
	DD	04dH
	DD	018H
	DD	06aH
	DD	019H
	DD	04dH
	DD	02aH
	DD	04eH
	DD	029H
	DD	04fH
	DD	02aH
	DD	06aH
	DD	019H
	DD	069H
	DD	028H
	DD	06aH
	DD	019H
	DD	04fH
	DD	01aH
	DD	068H
	DD	01bH
	DD	04fH
	DD	028H
	DD	050H
	DD	027H
	DD	051H
	DD	028H
	DD	068H
	DD	01bH
	DD	067H
	DD	026H
	DD	068H
	DD	01bH
	DD	051H
	DD	01cH
	DD	066H
_g_sttDEVILSQUARE_LEVEL DD 0fH
	DD	082H
	DD	0aH
	DD	06eH
	DD	03aH
	DD	083H
	DD	0b4H
	DD	06fH
	DD	0a0H
	DD	03bH
	DD	0b5H
	DD	0e6H
	DD	0a1H
	DD	0d2H
	DD	03cH
	DD	0e7H
	DD	0118H
	DD	0d3H
	DD	0104H
	DD	03dH
	DD	0119H
	DD	014aH
	DD	0105H
	DD	0136H
	DD	06fH
	DD	014bH
	DD	0190H
	DD	0137H
	DD	0190H
	DD	070H
	DD	00H
	DD	0190H
	DD	00H
	DD	0190H
	DD	010eH
_g_GateObserver DD 012fH
	DD	0130H
	DD	0131H
	DD	0132H
_g_GateRequester DD 0127H
	DD	0129H
	DD	012bH
	DD	012dH
_g_GateResponsor DD 0128H
	DD	012aH
	DD	012cH
	DD	012eH
_DATA	ENDS
;	COMDAT ?IV_LENGTH@?$FixedKeyLength@$0BI@$03$0A@@CryptoPP@@2HB
CONST	SEGMENT
?IV_LENGTH@?$FixedKeyLength@$0BI@$03$0A@@CryptoPP@@2HB DD 00H ; CryptoPP::FixedKeyLength<24,4,0>::IV_LENGTH
CONST	ENDS
;	COMDAT ?IV_REQUIREMENT@?$FixedKeyLength@$0BI@$03$0A@@CryptoPP@@2HB
CONST	SEGMENT
?IV_REQUIREMENT@?$FixedKeyLength@$0BI@$03$0A@@CryptoPP@@2HB DD 04H ; CryptoPP::FixedKeyLength<24,4,0>::IV_REQUIREMENT
CONST	ENDS
;	COMDAT ?DEFAULT_KEYLENGTH@?$FixedKeyLength@$0BI@$03$0A@@CryptoPP@@2HB
CONST	SEGMENT
?DEFAULT_KEYLENGTH@?$FixedKeyLength@$0BI@$03$0A@@CryptoPP@@2HB DD 018H ; CryptoPP::FixedKeyLength<24,4,0>::DEFAULT_KEYLENGTH
CONST	ENDS
;	COMDAT ?MAX_KEYLENGTH@?$FixedKeyLength@$0BI@$03$0A@@CryptoPP@@2HB
CONST	SEGMENT
?MAX_KEYLENGTH@?$FixedKeyLength@$0BI@$03$0A@@CryptoPP@@2HB DD 018H ; CryptoPP::FixedKeyLength<24,4,0>::MAX_KEYLENGTH
CONST	ENDS
;	COMDAT ?MIN_KEYLENGTH@?$FixedKeyLength@$0BI@$03$0A@@CryptoPP@@2HB
CONST	SEGMENT
?MIN_KEYLENGTH@?$FixedKeyLength@$0BI@$03$0A@@CryptoPP@@2HB DD 018H ; CryptoPP::FixedKeyLength<24,4,0>::MIN_KEYLENGTH
CONST	ENDS
;	COMDAT ?KEYLENGTH@?$FixedKeyLength@$0BI@$03$0A@@CryptoPP@@2HB
CONST	SEGMENT
?KEYLENGTH@?$FixedKeyLength@$0BI@$03$0A@@CryptoPP@@2HB DD 018H ; CryptoPP::FixedKeyLength<24,4,0>::KEYLENGTH
CONST	ENDS
;	COMDAT ?IV_LENGTH@?$FixedKeyLength@$0BA@$03$0A@@CryptoPP@@2HB
CONST	SEGMENT
?IV_LENGTH@?$FixedKeyLength@$0BA@$03$0A@@CryptoPP@@2HB DD 00H ; CryptoPP::FixedKeyLength<16,4,0>::IV_LENGTH
CONST	ENDS
;	COMDAT ?IV_REQUIREMENT@?$FixedKeyLength@$0BA@$03$0A@@CryptoPP@@2HB
CONST	SEGMENT
?IV_REQUIREMENT@?$FixedKeyLength@$0BA@$03$0A@@CryptoPP@@2HB DD 04H ; CryptoPP::FixedKeyLength<16,4,0>::IV_REQUIREMENT
CONST	ENDS
;	COMDAT ?DEFAULT_KEYLENGTH@?$FixedKeyLength@$0BA@$03$0A@@CryptoPP@@2HB
CONST	SEGMENT
?DEFAULT_KEYLENGTH@?$FixedKeyLength@$0BA@$03$0A@@CryptoPP@@2HB DD 010H ; CryptoPP::FixedKeyLength<16,4,0>::DEFAULT_KEYLENGTH
CONST	ENDS
;	COMDAT ?MAX_KEYLENGTH@?$FixedKeyLength@$0BA@$03$0A@@CryptoPP@@2HB
CONST	SEGMENT
?MAX_KEYLENGTH@?$FixedKeyLength@$0BA@$03$0A@@CryptoPP@@2HB DD 010H ; CryptoPP::FixedKeyLength<16,4,0>::MAX_KEYLENGTH
CONST	ENDS
;	COMDAT ?MIN_KEYLENGTH@?$FixedKeyLength@$0BA@$03$0A@@CryptoPP@@2HB
CONST	SEGMENT
?MIN_KEYLENGTH@?$FixedKeyLength@$0BA@$03$0A@@CryptoPP@@2HB DD 010H ; CryptoPP::FixedKeyLength<16,4,0>::MIN_KEYLENGTH
CONST	ENDS
;	COMDAT ?KEYLENGTH@?$FixedKeyLength@$0BA@$03$0A@@CryptoPP@@2HB
CONST	SEGMENT
?KEYLENGTH@?$FixedKeyLength@$0BA@$03$0A@@CryptoPP@@2HB DD 010H ; CryptoPP::FixedKeyLength<16,4,0>::KEYLENGTH
CONST	ENDS
;	COMDAT ?IV_LENGTH@?$FixedKeyLength@$07$03$0A@@CryptoPP@@2HB
CONST	SEGMENT
?IV_LENGTH@?$FixedKeyLength@$07$03$0A@@CryptoPP@@2HB DD 00H ; CryptoPP::FixedKeyLength<8,4,0>::IV_LENGTH
CONST	ENDS
;	COMDAT ?IV_REQUIREMENT@?$FixedKeyLength@$07$03$0A@@CryptoPP@@2HB
CONST	SEGMENT
?IV_REQUIREMENT@?$FixedKeyLength@$07$03$0A@@CryptoPP@@2HB DD 04H ; CryptoPP::FixedKeyLength<8,4,0>::IV_REQUIREMENT
CONST	ENDS
;	COMDAT ?DEFAULT_KEYLENGTH@?$FixedKeyLength@$07$03$0A@@CryptoPP@@2HB
CONST	SEGMENT
?DEFAULT_KEYLENGTH@?$FixedKeyLength@$07$03$0A@@CryptoPP@@2HB DD 08H ; CryptoPP::FixedKeyLength<8,4,0>::DEFAULT_KEYLENGTH
CONST	ENDS
;	COMDAT ?MAX_KEYLENGTH@?$FixedKeyLength@$07$03$0A@@CryptoPP@@2HB
CONST	SEGMENT
?MAX_KEYLENGTH@?$FixedKeyLength@$07$03$0A@@CryptoPP@@2HB DD 08H ; CryptoPP::FixedKeyLength<8,4,0>::MAX_KEYLENGTH
CONST	ENDS
;	COMDAT ?MIN_KEYLENGTH@?$FixedKeyLength@$07$03$0A@@CryptoPP@@2HB
CONST	SEGMENT
?MIN_KEYLENGTH@?$FixedKeyLength@$07$03$0A@@CryptoPP@@2HB DD 08H ; CryptoPP::FixedKeyLength<8,4,0>::MIN_KEYLENGTH
CONST	ENDS
;	COMDAT ?KEYLENGTH@?$FixedKeyLength@$07$03$0A@@CryptoPP@@2HB
CONST	SEGMENT
?KEYLENGTH@?$FixedKeyLength@$07$03$0A@@CryptoPP@@2HB DD 08H ; CryptoPP::FixedKeyLength<8,4,0>::KEYLENGTH
CONST	ENDS
;	COMDAT ?BLOCKSIZE@?$FixedBlockSize@$07@CryptoPP@@2HB
CONST	SEGMENT
?BLOCKSIZE@?$FixedBlockSize@$07@CryptoPP@@2HB DD 08H	; CryptoPP::FixedBlockSize<8>::BLOCKSIZE
CONST	ENDS
PUBLIC	??2@YAPAXIPAX@Z					; operator new
; Function compile flags: /Ogtp
; File c:\program files (x86)\microsoft visual studio 10.0\vc\include\new.h
;	COMDAT ??2@YAPAXIPAX@Z
_TEXT	SEGMENT
___formal$ = 8						; size = 4
__Where$ = 12						; size = 4
??2@YAPAXIPAX@Z PROC					; operator new, COMDAT

; 81   :         {return (_Where); }

  00000	55		 push	 ebp
  00001	8b ec		 mov	 ebp, esp
  00003	8b 45 0c	 mov	 eax, DWORD PTR __Where$[ebp]
  00006	5d		 pop	 ebp
  00007	c3		 ret	 0
??2@YAPAXIPAX@Z ENDP					; operator new
_TEXT	ENDS
PUBLIC	??3@YAXPAX0@Z					; operator delete
; Function compile flags: /Ogtp
;	COMDAT ??3@YAXPAX0@Z
_TEXT	SEGMENT
___formal$ = 8						; size = 4
___formal$ = 12						; size = 4
??3@YAXPAX0@Z PROC					; operator delete, COMDAT

; 83   :         {return; }

  00000	c3		 ret	 0
??3@YAXPAX0@Z ENDP					; operator delete
_TEXT	ENDS
PUBLIC	__$ArrayPad$
PUBLIC	?DebugLog@@YAXPADZZ				; DebugLog
EXTRN	_vsprintf:PROC
EXTRN	___security_cookie:DWORD
EXTRN	@__security_check_cookie@4:PROC
EXTRN	_memset:PROC
; Function compile flags: /Ogtp
; File c:\muserver_dev\development\mu-s8ep2-repack\gameserver\source\itemsystemfor380.h
;	COMDAT ?DebugLog@@YAXPADZZ
_TEXT	SEGMENT
_szBuffer$ = -516					; size = 512
__$ArrayPad$ = -4					; size = 4
_szLog$ = 8						; size = 4
?DebugLog@@YAXPADZZ PROC				; DebugLog, COMDAT

; 92   : {

  00000	55		 push	 ebp
  00001	8b ec		 mov	 ebp, esp
  00003	81 ec 04 02 00
	00		 sub	 esp, 516		; 00000204H
  00009	a1 00 00 00 00	 mov	 eax, DWORD PTR ___security_cookie
  0000e	33 c5		 xor	 eax, ebp
  00010	89 45 fc	 mov	 DWORD PTR __$ArrayPad$[ebp], eax

; 93   : 	char szBuffer[512] = "";

  00013	68 ff 01 00 00	 push	 511			; 000001ffH
  00018	8d 85 fd fd ff
	ff		 lea	 eax, DWORD PTR _szBuffer$[ebp+1]
  0001e	6a 00		 push	 0
  00020	50		 push	 eax
  00021	c6 85 fc fd ff
	ff 00		 mov	 BYTE PTR _szBuffer$[ebp], 0
  00028	e8 00 00 00 00	 call	 _memset

; 94   : 	va_list pArguments;
; 95   : 
; 96   : 	va_start(pArguments, szLog);
; 97   : 	vsprintf(szBuffer, szLog, pArguments);

  0002d	8b 55 08	 mov	 edx, DWORD PTR _szLog$[ebp]
  00030	8d 4d 0c	 lea	 ecx, DWORD PTR _szLog$[ebp+4]
  00033	51		 push	 ecx
  00034	52		 push	 edx
  00035	8d 85 fc fd ff
	ff		 lea	 eax, DWORD PTR _szBuffer$[ebp]
  0003b	50		 push	 eax
  0003c	e8 00 00 00 00	 call	 _vsprintf

; 98   : 	va_end(pArguments);
; 99   : 
; 100  : //	OutputDebugString(szBuffer);
; 101  : }

  00041	8b 4d fc	 mov	 ecx, DWORD PTR __$ArrayPad$[ebp]
  00044	33 cd		 xor	 ecx, ebp
  00046	83 c4 18	 add	 esp, 24			; 00000018H
  00049	e8 00 00 00 00	 call	 @__security_check_cookie@4
  0004e	8b e5		 mov	 esp, ebp
  00050	5d		 pop	 ebp
  00051	c3		 ret	 0
?DebugLog@@YAXPADZZ ENDP				; DebugLog
_TEXT	ENDS
PUBLIC	??1OBJECTSTRUCT@@QAE@XZ				; OBJECTSTRUCT::~OBJECTSTRUCT
EXTRN	??1CSkillDelay@@UAE@XZ:PROC			; CSkillDelay::~CSkillDelay
EXTRN	??1TMonsterAIAgro@@UAE@XZ:PROC			; TMonsterAIAgro::~TMonsterAIAgro
EXTRN	___CxxFrameHandler3:PROC
;	COMDAT xdata$x
xdata$x	SEGMENT
__unwindtable$??1OBJECTSTRUCT@@QAE@XZ DD 0ffffffffH
	DD	FLAT:__unwindfunclet$??1OBJECTSTRUCT@@QAE@XZ$0
__ehfuncinfo$??1OBJECTSTRUCT@@QAE@XZ DD 019930522H
	DD	01H
	DD	FLAT:__unwindtable$??1OBJECTSTRUCT@@QAE@XZ
	DD	2 DUP(00H)
	DD	2 DUP(00H)
	DD	00H
	DD	01H
; Function compile flags: /Ogtp
xdata$x	ENDS
;	COMDAT ??1OBJECTSTRUCT@@QAE@XZ
_TEXT	SEGMENT
_this$ = -16						; size = 4
__$EHRec$ = -12						; size = 12
??1OBJECTSTRUCT@@QAE@XZ PROC				; OBJECTSTRUCT::~OBJECTSTRUCT, COMDAT
; _this$ = ecx
  00000	55		 push	 ebp
  00001	8b ec		 mov	 ebp, esp
  00003	6a ff		 push	 -1
  00005	68 00 00 00 00	 push	 __ehhandler$??1OBJECTSTRUCT@@QAE@XZ
  0000a	64 a1 00 00 00
	00		 mov	 eax, DWORD PTR fs:0
  00010	50		 push	 eax
  00011	51		 push	 ecx
  00012	56		 push	 esi
  00013	a1 00 00 00 00	 mov	 eax, DWORD PTR ___security_cookie
  00018	33 c5		 xor	 eax, ebp
  0001a	50		 push	 eax
  0001b	8d 45 f4	 lea	 eax, DWORD PTR __$EHRec$[ebp]
  0001e	64 a3 00 00 00
	00		 mov	 DWORD PTR fs:0, eax
  00024	8b f1		 mov	 esi, ecx
  00026	89 75 f0	 mov	 DWORD PTR _this$[ebp], esi
  00029	8d 8e ec 20 00
	00		 lea	 ecx, DWORD PTR [esi+8428]
  0002f	c7 45 fc 00 00
	00 00		 mov	 DWORD PTR __$EHRec$[ebp+8], 0
  00036	e8 00 00 00 00	 call	 ??1TMonsterAIAgro@@UAE@XZ ; TMonsterAIAgro::~TMonsterAIAgro
  0003b	8d 8e 0c 16 00
	00		 lea	 ecx, DWORD PTR [esi+5644]
  00041	c7 45 fc ff ff
	ff ff		 mov	 DWORD PTR __$EHRec$[ebp+8], -1
  00048	e8 00 00 00 00	 call	 ??1CSkillDelay@@UAE@XZ	; CSkillDelay::~CSkillDelay
  0004d	8b 4d f4	 mov	 ecx, DWORD PTR __$EHRec$[ebp]
  00050	64 89 0d 00 00
	00 00		 mov	 DWORD PTR fs:0, ecx
  00057	59		 pop	 ecx
  00058	5e		 pop	 esi
  00059	8b e5		 mov	 esp, ebp
  0005b	5d		 pop	 ebp
  0005c	c3		 ret	 0
_TEXT	ENDS
;	COMDAT text$x
text$x	SEGMENT
__unwindfunclet$??1OBJECTSTRUCT@@QAE@XZ$0:
  00000	8b 4d f0	 mov	 ecx, DWORD PTR _this$[ebp]
  00003	81 c1 0c 16 00
	00		 add	 ecx, 5644		; 0000160cH
  00009	e9 00 00 00 00	 jmp	 ??1CSkillDelay@@UAE@XZ	; CSkillDelay::~CSkillDelay
__ehhandler$??1OBJECTSTRUCT@@QAE@XZ:
  0000e	8b 54 24 08	 mov	 edx, DWORD PTR [esp+8]
  00012	8d 42 0c	 lea	 eax, DWORD PTR [edx+12]
  00015	8b 4a f4	 mov	 ecx, DWORD PTR [edx-12]
  00018	33 c8		 xor	 ecx, eax
  0001a	e8 00 00 00 00	 call	 @__security_check_cookie@4
  0001f	b8 00 00 00 00	 mov	 eax, OFFSET __ehfuncinfo$??1OBJECTSTRUCT@@QAE@XZ
  00024	e9 00 00 00 00	 jmp	 ___CxxFrameHandler3
text$x	ENDS
??1OBJECTSTRUCT@@QAE@XZ ENDP				; OBJECTSTRUCT::~OBJECTSTRUCT
PUBLIC	?IsDuelRequested@CNewPVP@@QAEHAAUOBJECTSTRUCT@@@Z ; CNewPVP::IsDuelRequested
; Function compile flags: /Ogtp
; File c:\muserver_dev\development\mu-s8ep2-repack\gameserver\source\newpvp.h
;	COMDAT ?IsDuelRequested@CNewPVP@@QAEHAAUOBJECTSTRUCT@@@Z
_TEXT	SEGMENT
_obj$ = 8						; size = 4
?IsDuelRequested@CNewPVP@@QAEHAAUOBJECTSTRUCT@@@Z PROC	; CNewPVP::IsDuelRequested, COMDAT
; _this$ = ecx

; 277  : 	{

  00000	55		 push	 ebp
  00001	8b ec		 mov	 ebp, esp

; 278  : 		return CHECK_LIMIT(obj.m_iDuelUserRequested, OBJMAX);

  00003	8b 45 08	 mov	 eax, DWORD PTR _obj$[ebp]
  00006	8b 80 4c 12 00
	00		 mov	 eax, DWORD PTR [eax+4684]
  0000c	85 c0		 test	 eax, eax
  0000e	79 06		 jns	 SHORT $LN3@IsDuelRequ
  00010	33 c0		 xor	 eax, eax

; 279  : 	}

  00012	5d		 pop	 ebp
  00013	c2 04 00	 ret	 4
$LN3@IsDuelRequ:

; 278  : 		return CHECK_LIMIT(obj.m_iDuelUserRequested, OBJMAX);

  00016	33 c9		 xor	 ecx, ecx
  00018	3d eb 2c 00 00	 cmp	 eax, 11499		; 00002cebH
  0001d	0f 9e c1	 setle	 cl
  00020	8b c1		 mov	 eax, ecx

; 279  : 	}

  00022	5d		 pop	 ebp
  00023	c2 04 00	 ret	 4
?IsDuelRequested@CNewPVP@@QAEHAAUOBJECTSTRUCT@@@Z ENDP	; CNewPVP::IsDuelRequested
_TEXT	ENDS
PUBLIC	?IsDuelReserved@CNewPVP@@QAEHAAUOBJECTSTRUCT@@@Z ; CNewPVP::IsDuelReserved
; Function compile flags: /Ogtp
;	COMDAT ?IsDuelReserved@CNewPVP@@QAEHAAUOBJECTSTRUCT@@@Z
_TEXT	SEGMENT
_obj$ = 8						; size = 4
?IsDuelReserved@CNewPVP@@QAEHAAUOBJECTSTRUCT@@@Z PROC	; CNewPVP::IsDuelReserved, COMDAT
; _this$ = ecx

; 282  : 	{

  00000	55		 push	 ebp
  00001	8b ec		 mov	 ebp, esp

; 283  : 		return CHECK_LIMIT(obj.m_iDuelUserReserved, OBJMAX);

  00003	8b 45 08	 mov	 eax, DWORD PTR _obj$[ebp]
  00006	8b 80 48 12 00
	00		 mov	 eax, DWORD PTR [eax+4680]
  0000c	85 c0		 test	 eax, eax
  0000e	79 06		 jns	 SHORT $LN3@IsDuelRese
  00010	33 c0		 xor	 eax, eax

; 284  : 	}

  00012	5d		 pop	 ebp
  00013	c2 04 00	 ret	 4
$LN3@IsDuelRese:

; 283  : 		return CHECK_LIMIT(obj.m_iDuelUserReserved, OBJMAX);

  00016	33 c9		 xor	 ecx, ecx
  00018	3d eb 2c 00 00	 cmp	 eax, 11499		; 00002cebH
  0001d	0f 9e c1	 setle	 cl
  00020	8b c1		 mov	 eax, ecx

; 284  : 	}

  00022	5d		 pop	 ebp
  00023	c2 04 00	 ret	 4
?IsDuelReserved@CNewPVP@@QAEHAAUOBJECTSTRUCT@@@Z ENDP	; CNewPVP::IsDuelReserved
_TEXT	ENDS
PUBLIC	?IsDuel@CNewPVP@@QAEHAAUOBJECTSTRUCT@@@Z	; CNewPVP::IsDuel
; Function compile flags: /Ogtp
;	COMDAT ?IsDuel@CNewPVP@@QAEHAAUOBJECTSTRUCT@@@Z
_TEXT	SEGMENT
_obj$ = 8						; size = 4
?IsDuel@CNewPVP@@QAEHAAUOBJECTSTRUCT@@@Z PROC		; CNewPVP::IsDuel, COMDAT
; _this$ = ecx

; 296  : 	{

  00000	55		 push	 ebp
  00001	8b ec		 mov	 ebp, esp

; 297  : 		return CHECK_LIMIT(obj.m_iDuelUser, OBJMAX);

  00003	8b 45 08	 mov	 eax, DWORD PTR _obj$[ebp]
  00006	8b 80 50 12 00
	00		 mov	 eax, DWORD PTR [eax+4688]
  0000c	85 c0		 test	 eax, eax
  0000e	79 06		 jns	 SHORT $LN3@IsDuel
  00010	33 c0		 xor	 eax, eax

; 298  : 	}

  00012	5d		 pop	 ebp
  00013	c2 04 00	 ret	 4
$LN3@IsDuel:

; 297  : 		return CHECK_LIMIT(obj.m_iDuelUser, OBJMAX);

  00016	33 c9		 xor	 ecx, ecx
  00018	3d eb 2c 00 00	 cmp	 eax, 11499		; 00002cebH
  0001d	0f 9e c1	 setle	 cl
  00020	8b c1		 mov	 eax, ecx

; 298  : 	}

  00022	5d		 pop	 ebp
  00023	c2 04 00	 ret	 4
?IsDuel@CNewPVP@@QAEHAAUOBJECTSTRUCT@@@Z ENDP		; CNewPVP::IsDuel
_TEXT	ENDS
PUBLIC	?IsVulcanusMap@CNewPVP@@QAEHH@Z			; CNewPVP::IsVulcanusMap
; Function compile flags: /Ogtp
;	COMDAT ?IsVulcanusMap@CNewPVP@@QAEHH@Z
_TEXT	SEGMENT
_nMapNumber$ = 8					; size = 4
?IsVulcanusMap@CNewPVP@@QAEHH@Z PROC			; CNewPVP::IsVulcanusMap, COMDAT
; _this$ = ecx

; 307  : 	{

  00000	55		 push	 ebp
  00001	8b ec		 mov	 ebp, esp

; 308  : 		return nMapNumber == MAP_INDEX_VULCANUS;

  00003	33 c0		 xor	 eax, eax
  00005	83 7d 08 3f	 cmp	 DWORD PTR _nMapNumber$[ebp], 63 ; 0000003fH
  00009	0f 94 c0	 sete	 al

; 309  : 	}

  0000c	5d		 pop	 ebp
  0000d	c2 04 00	 ret	 4
?IsVulcanusMap@CNewPVP@@QAEHH@Z ENDP			; CNewPVP::IsVulcanusMap
_TEXT	ENDS
PUBLIC	?IsPKFieldMap@CNewPVP@@QAEHH@Z			; CNewPVP::IsPKFieldMap
; Function compile flags: /Ogtp
;	COMDAT ?IsPKFieldMap@CNewPVP@@QAEHH@Z
_TEXT	SEGMENT
_nMapNumber$ = 8					; size = 4
?IsPKFieldMap@CNewPVP@@QAEHH@Z PROC			; CNewPVP::IsPKFieldMap, COMDAT
; _this$ = ecx

; 312  : 	{

  00000	55		 push	 ebp
  00001	8b ec		 mov	 ebp, esp

; 313  : 		return nMapNumber == MAP_INDEX_PKFIELD;

  00003	33 c0		 xor	 eax, eax
  00005	83 7d 08 40	 cmp	 DWORD PTR _nMapNumber$[ebp], 64 ; 00000040H
  00009	0f 94 c0	 sete	 al

; 314  : 	}

  0000c	5d		 pop	 ebp
  0000d	c2 04 00	 ret	 4
?IsPKFieldMap@CNewPVP@@QAEHH@Z ENDP			; CNewPVP::IsPKFieldMap
_TEXT	ENDS
PUBLIC	?GetDuelStatus@CNewPVP@@AAEHAAUOBJECTSTRUCT@@@Z	; CNewPVP::GetDuelStatus
; Function compile flags: /Ogtp
;	COMDAT ?GetDuelStatus@CNewPVP@@AAEHAAUOBJECTSTRUCT@@@Z
_TEXT	SEGMENT
_obj$ = 8						; size = 4
?GetDuelStatus@CNewPVP@@AAEHAAUOBJECTSTRUCT@@@Z PROC	; CNewPVP::GetDuelStatus, COMDAT
; _this$ = ecx

; 337  : 	{

  00000	55		 push	 ebp
  00001	8b ec		 mov	 ebp, esp

; 338  : 		if(CHECK_LIMIT(obj.m_iDuelUserRequested, OBJMAX))

  00003	8b 4d 08	 mov	 ecx, DWORD PTR _obj$[ebp]
  00006	8b 81 4c 12 00
	00		 mov	 eax, DWORD PTR [ecx+4684]
  0000c	85 c0		 test	 eax, eax
  0000e	78 19		 js	 SHORT $LN3@GetDuelSta
  00010	33 d2		 xor	 edx, edx
  00012	3d eb 2c 00 00	 cmp	 eax, 11499		; 00002cebH
  00017	0f 9e c2	 setle	 dl
  0001a	8b c2		 mov	 eax, edx
  0001c	85 c0		 test	 eax, eax
  0001e	74 09		 je	 SHORT $LN3@GetDuelSta

; 339  : 		{
; 340  : 			return ENEWPVP::E_ALREADY_DUELREQUESTED;

  00020	b8 12 00 00 00	 mov	 eax, 18			; 00000012H

; 354  : 	};

  00025	5d		 pop	 ebp
  00026	c2 04 00	 ret	 4
$LN3@GetDuelSta:

; 341  : 		}
; 342  : 
; 343  : 		if(CHECK_LIMIT(obj.m_iDuelUserReserved, OBJMAX))

  00029	8b 81 48 12 00
	00		 mov	 eax, DWORD PTR [ecx+4680]
  0002f	85 c0		 test	 eax, eax
  00031	78 19		 js	 SHORT $LN2@GetDuelSta
  00033	33 d2		 xor	 edx, edx
  00035	3d eb 2c 00 00	 cmp	 eax, 11499		; 00002cebH
  0003a	0f 9e c2	 setle	 dl
  0003d	8b c2		 mov	 eax, edx
  0003f	85 c0		 test	 eax, eax
  00041	74 09		 je	 SHORT $LN2@GetDuelSta

; 344  : 		{
; 345  : 			return ENEWPVP::E_ALREADY_DUELRESERVED;

  00043	b8 13 00 00 00	 mov	 eax, 19			; 00000013H

; 354  : 	};

  00048	5d		 pop	 ebp
  00049	c2 04 00	 ret	 4
$LN2@GetDuelSta:

; 346  : 		}
; 347  : 
; 348  : 		if(CHECK_LIMIT(obj.m_iDuelUser, OBJMAX))

  0004c	8b 81 50 12 00
	00		 mov	 eax, DWORD PTR [ecx+4688]
  00052	85 c0		 test	 eax, eax
  00054	78 19		 js	 SHORT $LN1@GetDuelSta
  00056	33 c9		 xor	 ecx, ecx
  00058	3d eb 2c 00 00	 cmp	 eax, 11499		; 00002cebH
  0005d	0f 9e c1	 setle	 cl
  00060	8b c1		 mov	 eax, ecx
  00062	85 c0		 test	 eax, eax
  00064	74 09		 je	 SHORT $LN1@GetDuelSta

; 349  : 		{
; 350  : 			return ENEWPVP::E_ALREADY_DUELLING;

  00066	b8 14 00 00 00	 mov	 eax, 20			; 00000014H

; 354  : 	};

  0006b	5d		 pop	 ebp
  0006c	c2 04 00	 ret	 4
$LN1@GetDuelSta:

; 351  : 		}
; 352  : 
; 353  : 		return 0;

  0006f	33 c0		 xor	 eax, eax

; 354  : 	};

  00071	5d		 pop	 ebp
  00072	c2 04 00	 ret	 4
?GetDuelStatus@CNewPVP@@AAEHAAUOBJECTSTRUCT@@@Z ENDP	; CNewPVP::GetDuelStatus
_TEXT	ENDS
PUBLIC	?GetDuelStatusByResponsor@CNewPVP@@AAEHAAUOBJECTSTRUCT@@@Z ; CNewPVP::GetDuelStatusByResponsor
; Function compile flags: /Ogtp
;	COMDAT ?GetDuelStatusByResponsor@CNewPVP@@AAEHAAUOBJECTSTRUCT@@@Z
_TEXT	SEGMENT
_obj$ = 8						; size = 4
?GetDuelStatusByResponsor@CNewPVP@@AAEHAAUOBJECTSTRUCT@@@Z PROC ; CNewPVP::GetDuelStatusByResponsor, COMDAT
; _this$ = ecx

; 357  : 	{

  00000	55		 push	 ebp
  00001	8b ec		 mov	 ebp, esp

; 358  : 		if(CHECK_LIMIT(obj.m_iDuelUserRequested, OBJMAX))

  00003	8b 4d 08	 mov	 ecx, DWORD PTR _obj$[ebp]
  00006	8b 81 4c 12 00
	00		 mov	 eax, DWORD PTR [ecx+4684]
  0000c	85 c0		 test	 eax, eax
  0000e	78 19		 js	 SHORT $LN3@GetDuelSta@2
  00010	33 d2		 xor	 edx, edx
  00012	3d eb 2c 00 00	 cmp	 eax, 11499		; 00002cebH
  00017	0f 9e c2	 setle	 dl
  0001a	8b c2		 mov	 eax, edx
  0001c	85 c0		 test	 eax, eax
  0001e	74 09		 je	 SHORT $LN3@GetDuelSta@2

; 359  : 		{
; 360  : 			return ENEWPVP::E_ALREADY_DUELREQUESTED_1;

  00020	b8 15 00 00 00	 mov	 eax, 21			; 00000015H

; 374  : 	};

  00025	5d		 pop	 ebp
  00026	c2 04 00	 ret	 4
$LN3@GetDuelSta@2:

; 361  : 		}
; 362  : 
; 363  : 		if(CHECK_LIMIT(obj.m_iDuelUserReserved, OBJMAX))

  00029	8b 81 48 12 00
	00		 mov	 eax, DWORD PTR [ecx+4680]
  0002f	85 c0		 test	 eax, eax
  00031	78 19		 js	 SHORT $LN2@GetDuelSta@2
  00033	33 d2		 xor	 edx, edx
  00035	3d eb 2c 00 00	 cmp	 eax, 11499		; 00002cebH
  0003a	0f 9e c2	 setle	 dl
  0003d	8b c2		 mov	 eax, edx
  0003f	85 c0		 test	 eax, eax
  00041	74 09		 je	 SHORT $LN2@GetDuelSta@2

; 364  : 		{
; 365  : 			return ENEWPVP::E_ALREADY_DUELRESERVED_1;

  00043	b8 16 00 00 00	 mov	 eax, 22			; 00000016H

; 374  : 	};

  00048	5d		 pop	 ebp
  00049	c2 04 00	 ret	 4
$LN2@GetDuelSta@2:

; 366  : 		}
; 367  : 
; 368  : 		if(CHECK_LIMIT(obj.m_iDuelUser, OBJMAX))

  0004c	8b 81 50 12 00
	00		 mov	 eax, DWORD PTR [ecx+4688]
  00052	85 c0		 test	 eax, eax
  00054	78 19		 js	 SHORT $LN1@GetDuelSta@2
  00056	33 c9		 xor	 ecx, ecx
  00058	3d eb 2c 00 00	 cmp	 eax, 11499		; 00002cebH
  0005d	0f 9e c1	 setle	 cl
  00060	8b c1		 mov	 eax, ecx
  00062	85 c0		 test	 eax, eax
  00064	74 09		 je	 SHORT $LN1@GetDuelSta@2

; 369  : 		{
; 370  : 			return ENEWPVP::E_ALREADY_DUELLING_1;

  00066	b8 17 00 00 00	 mov	 eax, 23			; 00000017H

; 374  : 	};

  0006b	5d		 pop	 ebp
  0006c	c2 04 00	 ret	 4
$LN1@GetDuelSta@2:

; 371  : 		}
; 372  : 
; 373  : 		return 0;

  0006f	33 c0		 xor	 eax, eax

; 374  : 	};

  00071	5d		 pop	 ebp
  00072	c2 04 00	 ret	 4
?GetDuelStatusByResponsor@CNewPVP@@AAEHAAUOBJECTSTRUCT@@@Z ENDP ; CNewPVP::GetDuelStatusByResponsor
_TEXT	ENDS
PUBLIC	?LoadData@CNewPVP@@QAEXXZ			; CNewPVP::LoadData
; Function compile flags: /Ogtp
; File c:\muserver_dev\development\mu-s8ep2-repack\gameserver\source\newpvp.cpp
;	COMDAT ?LoadData@CNewPVP@@QAEXXZ
_TEXT	SEGMENT
?LoadData@CNewPVP@@QAEXXZ PROC				; CNewPVP::LoadData, COMDAT
; _this$ = ecx

; 48   : 	//
; 49   : }

  00000	c3		 ret	 0
?LoadData@CNewPVP@@QAEXXZ ENDP				; CNewPVP::LoadData
_TEXT	ENDS
PUBLIC	?GetDuelChannelId@CNewPVP@@AAEHXZ		; CNewPVP::GetDuelChannelId
; Function compile flags: /Ogtp
;	COMDAT ?GetDuelChannelId@CNewPVP@@AAEHXZ
_TEXT	SEGMENT
?GetDuelChannelId@CNewPVP@@AAEHXZ PROC			; CNewPVP::GetDuelChannelId, COMDAT
; _this$ = ecx

; 156  : 	for(int i = 0;i < DUEL_CHANNEL_MAX;i++)

  00000	33 c0		 xor	 eax, eax
  00002	81 c1 86 00 00
	00		 add	 ecx, 134		; 00000086H
$LL4@GetDuelCha:

; 157  : 	{
; 158  : 		if( m_DuelChannel[i].nStatus == DC_IDLE)

  00008	80 39 00	 cmp	 BYTE PTR [ecx], 0
  0000b	74 0c		 je	 SHORT $LN5@GetDuelCha

; 156  : 	for(int i = 0;i < DUEL_CHANNEL_MAX;i++)

  0000d	40		 inc	 eax
  0000e	83 c1 2c	 add	 ecx, 44			; 0000002cH
  00011	83 f8 04	 cmp	 eax, 4
  00014	7c f2		 jl	 SHORT $LL4@GetDuelCha

; 159  : 		{
; 160  : 			return i;
; 161  : 		}
; 162  : 	}
; 163  : 
; 164  : 	return -1;

  00016	83 c8 ff	 or	 eax, -1
$LN5@GetDuelCha:

; 165  : }

  00019	c3		 ret	 0
?GetDuelChannelId@CNewPVP@@AAEHXZ ENDP			; CNewPVP::GetDuelChannelId
_TEXT	ENDS
PUBLIC	?GetDuelChannelId@CNewPVP@@AAEHH@Z		; CNewPVP::GetDuelChannelId
; Function compile flags: /Ogtp
;	COMDAT ?GetDuelChannelId@CNewPVP@@AAEHH@Z
_TEXT	SEGMENT
_nIndex$ = 8						; size = 4
?GetDuelChannelId@CNewPVP@@AAEHH@Z PROC			; CNewPVP::GetDuelChannelId, COMDAT
; _this$ = ecx

; 169  : {

  00000	55		 push	 ebp
  00001	8b ec		 mov	 ebp, esp

; 170  : 	for( int i = 0; i < DUEL_CHANNEL_MAX; i++ )

  00003	8b 55 08	 mov	 edx, DWORD PTR _nIndex$[ebp]
  00006	33 c0		 xor	 eax, eax
  00008	83 c1 6c	 add	 ecx, 108		; 0000006cH
  0000b	eb 03 8d 49 00	 npad	 5
$LL5@GetDuelCha@2:

; 171  : 	{
; 172  : 		if( m_DuelChannel[i].nIndex1 == nIndex || 
; 173  : 			m_DuelChannel[i].nIndex2 == nIndex )

  00010	39 51 fc	 cmp	 DWORD PTR [ecx-4], edx
  00013	74 10		 je	 SHORT $LN6@GetDuelCha@2
  00015	39 11		 cmp	 DWORD PTR [ecx], edx
  00017	74 0c		 je	 SHORT $LN6@GetDuelCha@2

; 170  : 	for( int i = 0; i < DUEL_CHANNEL_MAX; i++ )

  00019	40		 inc	 eax
  0001a	83 c1 2c	 add	 ecx, 44			; 0000002cH
  0001d	83 f8 04	 cmp	 eax, 4
  00020	7c ee		 jl	 SHORT $LL5@GetDuelCha@2

; 174  : 		{
; 175  : 			return i;
; 176  : 		}
; 177  : 	}
; 178  : 
; 179  : 	return -1;

  00022	83 c8 ff	 or	 eax, -1
$LN6@GetDuelCha@2:

; 180  : }

  00025	5d		 pop	 ebp
  00026	c2 04 00	 ret	 4
?GetDuelChannelId@CNewPVP@@AAEHH@Z ENDP			; CNewPVP::GetDuelChannelId
_TEXT	ENDS
PUBLIC	?GetDuelChannelId@CNewPVP@@AAEHPAD@Z		; CNewPVP::GetDuelChannelId
; Function compile flags: /Ogtp
;	COMDAT ?GetDuelChannelId@CNewPVP@@AAEHPAD@Z
_TEXT	SEGMENT
_lpszName$ = 8						; size = 4
?GetDuelChannelId@CNewPVP@@AAEHPAD@Z PROC		; CNewPVP::GetDuelChannelId, COMDAT
; _this$ = ecx

; 184  : {

  00000	55		 push	 ebp
  00001	8b ec		 mov	 ebp, esp
  00003	53		 push	 ebx
  00004	56		 push	 esi
  00005	57		 push	 edi

; 185  : 	for( int i = 0; i < DUEL_CHANNEL_MAX; i++ )

  00006	8b 7d 08	 mov	 edi, DWORD PTR _lpszName$[ebp]
  00009	33 c0		 xor	 eax, eax
  0000b	8d 71 7b	 lea	 esi, DWORD PTR [ecx+123]
  0000e	8b ff		 npad	 2
$LL5@GetDuelCha@3:

; 186  : 	{
; 187  : 		if( strcmp(m_DuelChannel[i].szName1, lpszName) == 0|| 
; 188  : 			strcmp(m_DuelChannel[i].szName2, lpszName) == 0)

  00010	8b d7		 mov	 edx, edi
  00012	8d 4e f5	 lea	 ecx, DWORD PTR [esi-11]
$LL11@GetDuelCha@3:
  00015	8a 19		 mov	 bl, BYTE PTR [ecx]
  00017	3a 1a		 cmp	 bl, BYTE PTR [edx]
  00019	75 1a		 jne	 SHORT $LN12@GetDuelCha@3
  0001b	84 db		 test	 bl, bl
  0001d	74 12		 je	 SHORT $LN13@GetDuelCha@3
  0001f	8a 59 01	 mov	 bl, BYTE PTR [ecx+1]
  00022	3a 5a 01	 cmp	 bl, BYTE PTR [edx+1]
  00025	75 0e		 jne	 SHORT $LN12@GetDuelCha@3
  00027	83 c1 02	 add	 ecx, 2
  0002a	83 c2 02	 add	 edx, 2
  0002d	84 db		 test	 bl, bl
  0002f	75 e4		 jne	 SHORT $LL11@GetDuelCha@3
$LN13@GetDuelCha@3:
  00031	33 c9		 xor	 ecx, ecx
  00033	eb 05		 jmp	 SHORT $LN14@GetDuelCha@3
$LN12@GetDuelCha@3:
  00035	1b c9		 sbb	 ecx, ecx
  00037	83 d9 ff	 sbb	 ecx, -1
$LN14@GetDuelCha@3:
  0003a	85 c9		 test	 ecx, ecx
  0003c	74 39		 je	 SHORT $LN6@GetDuelCha@3
  0003e	8b d7		 mov	 edx, edi
  00040	8b ce		 mov	 ecx, esi
$LL15@GetDuelCha@3:
  00042	8a 19		 mov	 bl, BYTE PTR [ecx]
  00044	3a 1a		 cmp	 bl, BYTE PTR [edx]
  00046	75 1a		 jne	 SHORT $LN16@GetDuelCha@3
  00048	84 db		 test	 bl, bl
  0004a	74 12		 je	 SHORT $LN17@GetDuelCha@3
  0004c	8a 59 01	 mov	 bl, BYTE PTR [ecx+1]
  0004f	3a 5a 01	 cmp	 bl, BYTE PTR [edx+1]
  00052	75 0e		 jne	 SHORT $LN16@GetDuelCha@3
  00054	83 c1 02	 add	 ecx, 2
  00057	83 c2 02	 add	 edx, 2
  0005a	84 db		 test	 bl, bl
  0005c	75 e4		 jne	 SHORT $LL15@GetDuelCha@3
$LN17@GetDuelCha@3:
  0005e	33 c9		 xor	 ecx, ecx
  00060	eb 05		 jmp	 SHORT $LN18@GetDuelCha@3
$LN16@GetDuelCha@3:
  00062	1b c9		 sbb	 ecx, ecx
  00064	83 d9 ff	 sbb	 ecx, -1
$LN18@GetDuelCha@3:
  00067	85 c9		 test	 ecx, ecx
  00069	74 0c		 je	 SHORT $LN6@GetDuelCha@3

; 185  : 	for( int i = 0; i < DUEL_CHANNEL_MAX; i++ )

  0006b	40		 inc	 eax
  0006c	83 c6 2c	 add	 esi, 44			; 0000002cH
  0006f	83 f8 04	 cmp	 eax, 4
  00072	7c 9c		 jl	 SHORT $LL5@GetDuelCha@3

; 189  : 		{
; 190  : 			return i;
; 191  : 		}
; 192  : 	}
; 193  : 	
; 194  : 	return -1;

  00074	83 c8 ff	 or	 eax, -1
$LN6@GetDuelCha@3:
  00077	5f		 pop	 edi
  00078	5e		 pop	 esi
  00079	5b		 pop	 ebx

; 195  : }

  0007a	5d		 pop	 ebp
  0007b	c2 04 00	 ret	 4
?GetDuelChannelId@CNewPVP@@AAEHPAD@Z ENDP		; CNewPVP::GetDuelChannelId
_TEXT	ENDS
PUBLIC	?GetDuelChannel@CNewPVP@@AAEPAU_tagDUEL_CHANNEL@@XZ ; CNewPVP::GetDuelChannel
; Function compile flags: /Ogtp
;	COMDAT ?GetDuelChannel@CNewPVP@@AAEPAU_tagDUEL_CHANNEL@@XZ
_TEXT	SEGMENT
?GetDuelChannel@CNewPVP@@AAEPAU_tagDUEL_CHANNEL@@XZ PROC ; CNewPVP::GetDuelChannel, COMDAT
; _this$ = ecx

; 200  : 	for( int i = 0; i < DUEL_CHANNEL_MAX; i++ )

  00000	33 c0		 xor	 eax, eax
  00002	8d 91 86 00 00
	00		 lea	 edx, DWORD PTR [ecx+134]
$LL4@GetDuelCha@4:

; 201  : 	{
; 202  : 		if( m_DuelChannel[i].nStatus == DC_IDLE )

  00008	80 3a 00	 cmp	 BYTE PTR [edx], 0
  0000b	74 0c		 je	 SHORT $LN8@GetDuelCha@4

; 200  : 	for( int i = 0; i < DUEL_CHANNEL_MAX; i++ )

  0000d	40		 inc	 eax
  0000e	83 c2 2c	 add	 edx, 44			; 0000002cH
  00011	83 f8 04	 cmp	 eax, 4
  00014	7c f2		 jl	 SHORT $LL4@GetDuelCha@4

; 205  : 		}
; 206  : 	}
; 207  : 
; 208  : 	return NULL;

  00016	33 c0		 xor	 eax, eax

; 209  : }

  00018	c3		 ret	 0
$LN8@GetDuelCha@4:

; 203  : 		{
; 204  : 			return &m_DuelChannel[i];

  00019	6b c0 2c	 imul	 eax, 44			; 0000002cH
  0001c	8d 44 08 64	 lea	 eax, DWORD PTR [eax+ecx+100]

; 209  : }

  00020	c3		 ret	 0
?GetDuelChannel@CNewPVP@@AAEPAU_tagDUEL_CHANNEL@@XZ ENDP ; CNewPVP::GetDuelChannel
_TEXT	ENDS
PUBLIC	?GetDuelChannel@CNewPVP@@AAEPAU_tagDUEL_CHANNEL@@PAD@Z ; CNewPVP::GetDuelChannel
; Function compile flags: /Ogtp
;	COMDAT ?GetDuelChannel@CNewPVP@@AAEPAU_tagDUEL_CHANNEL@@PAD@Z
_TEXT	SEGMENT
_this$ = -4						; size = 4
_lpszName$ = 8						; size = 4
?GetDuelChannel@CNewPVP@@AAEPAU_tagDUEL_CHANNEL@@PAD@Z PROC ; CNewPVP::GetDuelChannel, COMDAT
; _this$ = ecx

; 213  : {

  00000	55		 push	 ebp
  00001	8b ec		 mov	 ebp, esp
  00003	51		 push	 ecx
  00004	53		 push	 ebx
  00005	56		 push	 esi
  00006	57		 push	 edi
  00007	89 4d fc	 mov	 DWORD PTR _this$[ebp], ecx

; 214  : 	for( int i = 0; i < DUEL_CHANNEL_MAX; i++ )

  0000a	8d 71 7b	 lea	 esi, DWORD PTR [ecx+123]
  0000d	8b 4d 08	 mov	 ecx, DWORD PTR _lpszName$[ebp]
  00010	33 ff		 xor	 edi, edi
$LL5@GetDuelCha@5:

; 215  : 	{
; 216  : 		if( strcmp(m_DuelChannel[i].szName1, lpszName) == 0 || 
; 217  : 			strcmp(m_DuelChannel[i].szName2, lpszName) == 0)

  00012	8b d1		 mov	 edx, ecx
  00014	8d 46 f5	 lea	 eax, DWORD PTR [esi-11]
$LL11@GetDuelCha@5:
  00017	8a 18		 mov	 bl, BYTE PTR [eax]
  00019	3a 1a		 cmp	 bl, BYTE PTR [edx]
  0001b	75 1a		 jne	 SHORT $LN12@GetDuelCha@5
  0001d	84 db		 test	 bl, bl
  0001f	74 12		 je	 SHORT $LN13@GetDuelCha@5
  00021	8a 58 01	 mov	 bl, BYTE PTR [eax+1]
  00024	3a 5a 01	 cmp	 bl, BYTE PTR [edx+1]
  00027	75 0e		 jne	 SHORT $LN12@GetDuelCha@5
  00029	83 c0 02	 add	 eax, 2
  0002c	83 c2 02	 add	 edx, 2
  0002f	84 db		 test	 bl, bl
  00031	75 e4		 jne	 SHORT $LL11@GetDuelCha@5
$LN13@GetDuelCha@5:
  00033	33 c0		 xor	 eax, eax
  00035	eb 05		 jmp	 SHORT $LN14@GetDuelCha@5
$LN12@GetDuelCha@5:
  00037	1b c0		 sbb	 eax, eax
  00039	83 d8 ff	 sbb	 eax, -1
$LN14@GetDuelCha@5:
  0003c	85 c0		 test	 eax, eax
  0003e	74 41		 je	 SHORT $LN9@GetDuelCha@5
  00040	8b d1		 mov	 edx, ecx
  00042	8b c6		 mov	 eax, esi
$LL15@GetDuelCha@5:
  00044	8a 18		 mov	 bl, BYTE PTR [eax]
  00046	3a 1a		 cmp	 bl, BYTE PTR [edx]
  00048	75 1a		 jne	 SHORT $LN16@GetDuelCha@5
  0004a	84 db		 test	 bl, bl
  0004c	74 12		 je	 SHORT $LN17@GetDuelCha@5
  0004e	8a 58 01	 mov	 bl, BYTE PTR [eax+1]
  00051	3a 5a 01	 cmp	 bl, BYTE PTR [edx+1]
  00054	75 0e		 jne	 SHORT $LN16@GetDuelCha@5
  00056	83 c0 02	 add	 eax, 2
  00059	83 c2 02	 add	 edx, 2
  0005c	84 db		 test	 bl, bl
  0005e	75 e4		 jne	 SHORT $LL15@GetDuelCha@5
$LN17@GetDuelCha@5:
  00060	33 c0		 xor	 eax, eax
  00062	eb 05		 jmp	 SHORT $LN18@GetDuelCha@5
$LN16@GetDuelCha@5:
  00064	1b c0		 sbb	 eax, eax
  00066	83 d8 ff	 sbb	 eax, -1
$LN18@GetDuelCha@5:
  00069	85 c0		 test	 eax, eax
  0006b	74 14		 je	 SHORT $LN9@GetDuelCha@5

; 214  : 	for( int i = 0; i < DUEL_CHANNEL_MAX; i++ )

  0006d	47		 inc	 edi
  0006e	83 c6 2c	 add	 esi, 44			; 0000002cH
  00071	83 ff 04	 cmp	 edi, 4
  00074	7c 9c		 jl	 SHORT $LL5@GetDuelCha@5

; 220  : 		}
; 221  : 	}
; 222  : 
; 223  : 	return 0;

  00076	5f		 pop	 edi
  00077	5e		 pop	 esi
  00078	33 c0		 xor	 eax, eax
  0007a	5b		 pop	 ebx

; 224  : }

  0007b	8b e5		 mov	 esp, ebp
  0007d	5d		 pop	 ebp
  0007e	c2 04 00	 ret	 4
$LN9@GetDuelCha@5:

; 218  : 		{
; 219  : 			return &m_DuelChannel[i];

  00081	8b 45 fc	 mov	 eax, DWORD PTR _this$[ebp]
  00084	6b ff 2c	 imul	 edi, 44			; 0000002cH
  00087	8d 44 07 64	 lea	 eax, DWORD PTR [edi+eax+100]
  0008b	5f		 pop	 edi
  0008c	5e		 pop	 esi
  0008d	5b		 pop	 ebx

; 224  : }

  0008e	8b e5		 mov	 esp, ebp
  00090	5d		 pop	 ebp
  00091	c2 04 00	 ret	 4
?GetDuelChannel@CNewPVP@@AAEPAU_tagDUEL_CHANNEL@@PAD@Z ENDP ; CNewPVP::GetDuelChannel
_TEXT	ENDS
PUBLIC	?SetDuelStatus@CNewPVP@@AAEXAAUOBJECTSTRUCT@@0H@Z ; CNewPVP::SetDuelStatus
EXTRN	__imp__GetTickCount@0:PROC
; Function compile flags: /Ogtp
;	COMDAT ?SetDuelStatus@CNewPVP@@AAEXAAUOBJECTSTRUCT@@0H@Z
_TEXT	SEGMENT
_requester$ = 8						; size = 4
_responsor$ = 12					; size = 4
_nStatus$ = 16						; size = 4
?SetDuelStatus@CNewPVP@@AAEXAAUOBJECTSTRUCT@@0H@Z PROC	; CNewPVP::SetDuelStatus, COMDAT
; _this$ = ecx

; 286  : {

  00000	55		 push	 ebp
  00001	8b ec		 mov	 ebp, esp

; 287  : 	switch(nStatus)

  00003	8b 45 10	 mov	 eax, DWORD PTR _nStatus$[ebp]
  00006	83 e8 00	 sub	 eax, 0
  00009	53		 push	 ebx
  0000a	0f 84 88 00 00
	00		 je	 $LN3@SetDuelSta
  00010	48		 dec	 eax
  00011	74 60		 je	 SHORT $LN2@SetDuelSta
  00013	48		 dec	 eax
  00014	0f 85 ab 00 00
	00		 jne	 $LN4@SetDuelSta

; 303  : 		break;
; 304  : 	case 2:
; 305  : 		requester.m_iDuelUserReserved = -1;
; 306  :         requester.m_btDuelScore = 0;
; 307  :         requester.m_iDuelUser = responsor.m_Index;

  0001a	56		 push	 esi
  0001b	8b 75 0c	 mov	 esi, DWORD PTR _responsor$[ebp]
  0001e	57		 push	 edi
  0001f	8b 7d 08	 mov	 edi, DWORD PTR _requester$[ebp]
  00022	83 cb ff	 or	 ebx, -1
  00025	89 9f 48 12 00
	00		 mov	 DWORD PTR [edi+4680], ebx
  0002b	88 87 54 12 00
	00		 mov	 BYTE PTR [edi+4692], al
  00031	8b 06		 mov	 eax, DWORD PTR [esi]
  00033	89 87 50 12 00
	00		 mov	 DWORD PTR [edi+4688], eax

; 308  :         requester.m_iDuelTickCount = GetTickCount();

  00039	ff 15 00 00 00
	00		 call	 DWORD PTR __imp__GetTickCount@0
  0003f	89 87 58 12 00
	00		 mov	 DWORD PTR [edi+4696], eax

; 309  :         
; 310  : 		responsor.m_iDuelUserRequested = -1;

  00045	89 9e 4c 12 00
	00		 mov	 DWORD PTR [esi+4684], ebx

; 311  :         responsor.m_iDuelUserReserved = -1;

  0004b	89 9e 48 12 00
	00		 mov	 DWORD PTR [esi+4680], ebx

; 312  :         responsor.m_btDuelScore = 0;

  00051	c6 86 54 12 00
	00 00		 mov	 BYTE PTR [esi+4692], 0

; 313  :         responsor.m_iDuelUser = requester.m_Index;

  00058	8b 0f		 mov	 ecx, DWORD PTR [edi]
  0005a	89 8e 50 12 00
	00		 mov	 DWORD PTR [esi+4688], ecx

; 314  :         responsor.m_iDuelTickCount = GetTickCount();

  00060	ff 15 00 00 00
	00		 call	 DWORD PTR __imp__GetTickCount@0
  00066	5f		 pop	 edi
  00067	89 86 58 12 00
	00		 mov	 DWORD PTR [esi+4696], eax
  0006d	5e		 pop	 esi
  0006e	5b		 pop	 ebx

; 315  : 		break;
; 316  : 	}
; 317  : }

  0006f	5d		 pop	 ebp
  00070	c2 0c 00	 ret	 12			; 0000000cH
$LN2@SetDuelSta:

; 297  : 		break;
; 298  : 	case 1:
; 299  : 		requester.m_iDuelUserReserved = responsor.m_Index;

  00073	8b 4d 0c	 mov	 ecx, DWORD PTR _responsor$[ebp]
  00076	8b 45 08	 mov	 eax, DWORD PTR _requester$[ebp]
  00079	8b 11		 mov	 edx, DWORD PTR [ecx]
  0007b	89 90 48 12 00
	00		 mov	 DWORD PTR [eax+4680], edx

; 300  : 		requester.m_iDuelUser = -1;

  00081	c7 80 50 12 00
	00 ff ff ff ff	 mov	 DWORD PTR [eax+4688], -1

; 301  : 		
; 302  : 		responsor.m_iDuelUserRequested = requester.m_Index;

  0008b	8b 00		 mov	 eax, DWORD PTR [eax]
  0008d	89 81 4c 12 00
	00		 mov	 DWORD PTR [ecx+4684], eax
  00093	5b		 pop	 ebx

; 315  : 		break;
; 316  : 	}
; 317  : }

  00094	5d		 pop	 ebp
  00095	c2 0c 00	 ret	 12			; 0000000cH
$LN3@SetDuelSta:

; 288  : 	{
; 289  : 	case DC_IDLE:
; 290  : 		requester.m_iDuelUser = -1;

  00098	8b 45 08	 mov	 eax, DWORD PTR _requester$[ebp]
  0009b	83 cb ff	 or	 ebx, -1
  0009e	89 98 50 12 00
	00		 mov	 DWORD PTR [eax+4688], ebx

; 291  : 		requester.m_iDuelUserRequested = -1;

  000a4	89 98 4c 12 00
	00		 mov	 DWORD PTR [eax+4684], ebx

; 292  : 		requester.m_iDuelUserReserved = -1;

  000aa	89 98 48 12 00
	00		 mov	 DWORD PTR [eax+4680], ebx

; 293  : 		
; 294  : 		responsor.m_iDuelUser = -1;

  000b0	8b 45 0c	 mov	 eax, DWORD PTR _responsor$[ebp]
  000b3	89 98 50 12 00
	00		 mov	 DWORD PTR [eax+4688], ebx

; 295  : 		responsor.m_iDuelUserRequested = -1;

  000b9	89 98 4c 12 00
	00		 mov	 DWORD PTR [eax+4684], ebx

; 296  : 		responsor.m_iDuelUserReserved = -1;

  000bf	89 98 48 12 00
	00		 mov	 DWORD PTR [eax+4680], ebx
$LN4@SetDuelSta:
  000c5	5b		 pop	 ebx

; 315  : 		break;
; 316  : 	}
; 317  : }

  000c6	5d		 pop	 ebp
  000c7	c2 0c 00	 ret	 12			; 0000000cH
?SetDuelStatus@CNewPVP@@AAEXAAUOBJECTSTRUCT@@0H@Z ENDP	; CNewPVP::SetDuelStatus
_TEXT	ENDS
PUBLIC	??_C@_0P@ENJPCMFP@?$CFs?7?$CFs?7?$CFs?7?$CFs?7?$CFd?$AA@ ; `string'
PUBLIC	??_C@_0BP@OMAPJGHA@nId?$DO?$DN0?5?$CG?$CG?5nId?$DMDUEL_CHANNEL_MAX?$AA@ ; `string'
PUBLIC	??_C@_0FB@CPAGFMCM@IS_START?$CIm_DuelChannel?$FLnId?$FN?4nSta@ ; `string'
PUBLIC	??_C@_01GBGANLPD@0?$AA@				; `string'
PUBLIC	??_C@_04HIBGFPH@NULL?$AA@			; `string'
PUBLIC	??_C@_0L@IGELOCEA@NewPVP?4cpp?$AA@		; `string'
PUBLIC	__$ArrayPad$
PUBLIC	?Leave@CNewPVP@@AAEXAAUOBJECTSTRUCT@@0@Z	; CNewPVP::Leave
EXTRN	?LogAddTD@@3P6AXPADZZA:DWORD			; LogAddTD
EXTRN	?gObjMoveGate@@YAHHH@Z:PROC			; gObjMoveGate
EXTRN	?DataSend@@YAHHPAEK@Z:PROC			; DataSend
EXTRN	?gObjIsConnected@@YAHPAUOBJECTSTRUCT@@@Z:PROC	; gObjIsConnected
;	COMDAT ??_C@_0P@ENJPCMFP@?$CFs?7?$CFs?7?$CFs?7?$CFs?7?$CFd?$AA@
; File c:\muserver_dev\development\mu-s8ep2-repack\gameserver\source\newpvp.h
CONST	SEGMENT
??_C@_0P@ENJPCMFP@?$CFs?7?$CFs?7?$CFs?7?$CFs?7?$CFd?$AA@ DB '%s', 09H, '%'
	DB	's', 09H, '%s', 09H, '%s', 09H, '%d', 00H	; `string'
CONST	ENDS
;	COMDAT ??_C@_0BP@OMAPJGHA@nId?$DO?$DN0?5?$CG?$CG?5nId?$DMDUEL_CHANNEL_MAX?$AA@
CONST	SEGMENT
??_C@_0BP@OMAPJGHA@nId?$DO?$DN0?5?$CG?$CG?5nId?$DMDUEL_CHANNEL_MAX?$AA@ DB 'n'
	DB	'Id>=0 && nId<DUEL_CHANNEL_MAX', 00H		; `string'
CONST	ENDS
;	COMDAT ??_C@_0FB@CPAGFMCM@IS_START?$CIm_DuelChannel?$FLnId?$FN?4nSta@
CONST	SEGMENT
??_C@_0FB@CPAGFMCM@IS_START?$CIm_DuelChannel?$FLnId?$FN?4nSta@ DB 'IS_STA'
	DB	'RT(m_DuelChannel[nId].nStatus)||m_DuelChannel[nId].nStatus==D'
	DB	'C_RESERVEDEND', 00H				; `string'
CONST	ENDS
;	COMDAT ??_C@_01GBGANLPD@0?$AA@
CONST	SEGMENT
??_C@_01GBGANLPD@0?$AA@ DB '0', 00H			; `string'
CONST	ENDS
;	COMDAT ??_C@_04HIBGFPH@NULL?$AA@
CONST	SEGMENT
??_C@_04HIBGFPH@NULL?$AA@ DB 'NULL', 00H		; `string'
CONST	ENDS
;	COMDAT ??_C@_0L@IGELOCEA@NewPVP?4cpp?$AA@
CONST	SEGMENT
??_C@_0L@IGELOCEA@NewPVP?4cpp?$AA@ DB 'NewPVP.cpp', 00H	; `string'
; Function compile flags: /Ogtp
; File c:\muserver_dev\development\mu-s8ep2-repack\gameserver\source\newpvp.cpp
CONST	ENDS
;	COMDAT ?Leave@CNewPVP@@AAEXAAUOBJECTSTRUCT@@0@Z
_TEXT	SEGMENT
_res$ = -24						; size = 17
__$ArrayPad$ = -4					; size = 4
_requester$ = 8						; size = 4
_responsor$ = 12					; size = 4
?Leave@CNewPVP@@AAEXAAUOBJECTSTRUCT@@0@Z PROC		; CNewPVP::Leave, COMDAT
; _this$ = ecx

; 488  : {

  00000	55		 push	 ebp
  00001	8b ec		 mov	 ebp, esp
  00003	83 ec 18	 sub	 esp, 24			; 00000018H
  00006	a1 00 00 00 00	 mov	 eax, DWORD PTR ___security_cookie
  0000b	33 c5		 xor	 eax, ebp
  0000d	89 45 fc	 mov	 DWORD PTR __$ArrayPad$[ebp], eax
  00010	53		 push	 ebx
  00011	56		 push	 esi
  00012	8b 75 08	 mov	 esi, DWORD PTR _requester$[ebp]

; 489  : 	int nId = GetDuelChannelId(requester.m_Index);

  00015	8b 06		 mov	 eax, DWORD PTR [esi]
  00017	57		 push	 edi
  00018	8b 7d 0c	 mov	 edi, DWORD PTR _responsor$[ebp]
  0001b	50		 push	 eax
  0001c	8b d9		 mov	 ebx, ecx
  0001e	e8 00 00 00 00	 call	 ?GetDuelChannelId@CNewPVP@@AAEHH@Z ; CNewPVP::GetDuelChannelId

; 490  : 	if(nId < 0 || nId >= DUEL_CHANNEL_MAX){ LogAddTD("%s\t%s\t%s\t%s\t%d","nId>=0 && nId<DUEL_CHANNEL_MAX","0","NULL",__FILE__, __LINE__); return; }

  00023	83 f8 03	 cmp	 eax, 3
  00026	0f 87 23 01 00
	00		 ja	 $LN7@Leave

; 491  : 	if( !IS_START(m_DuelChannel[nId].nStatus) && m_DuelChannel[nId].nStatus != DC_RESERVEDEND ){ LogAddTD("%s\t%s\t%s\t%s\t%d","IS_START(m_DuelChannel[nId].nStatus)||m_DuelChannel[nId].nStatus==DC_RESERVEDEND", "0","NULL",__FILE__, __LINE__); return; }	

  0002c	6b c0 2c	 imul	 eax, 44			; 0000002cH
  0002f	8a 84 18 86 00
	00 00		 mov	 al, BYTE PTR [eax+ebx+134]
  00036	3c 02		 cmp	 al, 2
  00038	72 04		 jb	 SHORT $LN5@Leave
  0003a	3c 04		 cmp	 al, 4
  0003c	76 22		 jbe	 SHORT $LN6@Leave
$LN5@Leave:
  0003e	3c 05		 cmp	 al, 5
  00040	74 1e		 je	 SHORT $LN6@Leave
  00042	68 eb 01 00 00	 push	 491			; 000001ebH
  00047	68 00 00 00 00	 push	 OFFSET ??_C@_0L@IGELOCEA@NewPVP?4cpp?$AA@
  0004c	68 00 00 00 00	 push	 OFFSET ??_C@_04HIBGFPH@NULL?$AA@
  00051	68 00 00 00 00	 push	 OFFSET ??_C@_01GBGANLPD@0?$AA@
  00056	68 00 00 00 00	 push	 OFFSET ??_C@_0FB@CPAGFMCM@IS_START?$CIm_DuelChannel?$FLnId?$FN?4nSta@
  0005b	e9 08 01 00 00	 jmp	 $LN15@Leave
$LN6@Leave:

; 492  : 
; 493  : 	PMSG_ANS_DUEL_EXIT res = {0};

  00060	33 c0		 xor	 eax, eax
  00062	89 45 e9	 mov	 DWORD PTR _res$[ebp+1], eax

; 494  : 	res.h.c = PMHC_BYTE;
; 495  :     res.h.headcode = 0xAA;
; 496  :     res.h.subcode = 0x03;
; 497  :     res.h.size = sizeof(PMSG_ANS_DUEL_EXIT);
; 498  :     res.nResult = 0x00;
; 499  : 
; 500  : 	if( gObjIsConnected(&requester) )

  00065	56		 push	 esi
  00066	89 45 ed	 mov	 DWORD PTR _res$[ebp+5], eax
  00069	89 45 f1	 mov	 DWORD PTR _res$[ebp+9], eax
  0006c	89 45 f5	 mov	 DWORD PTR _res$[ebp+13], eax
  0006f	c7 45 e8 c1 11
	aa 03		 mov	 DWORD PTR _res$[ebp], 61477313 ; 03aa11c1H
  00076	88 45 ec	 mov	 BYTE PTR _res$[ebp+4], al
  00079	e8 00 00 00 00	 call	 ?gObjIsConnected@@YAHPAUOBJECTSTRUCT@@@Z ; gObjIsConnected
  0007e	83 c4 04	 add	 esp, 4
  00081	b3 40		 mov	 bl, 64			; 00000040H
  00083	85 c0		 test	 eax, eax
  00085	74 52		 je	 SHORT $LN3@Leave

; 501  :     {
; 502  : 		requester.m_iDuelUser = -1;

  00087	c7 86 50 12 00
	00 ff ff ff ff	 mov	 DWORD PTR [esi+4688], -1

; 503  :         res.NumberH = HIBYTE(responsor.m_Index);
; 504  :         res.NumberL = LOBYTE(responsor.m_Index);
; 505  :         memcpy(res.szName, responsor.Name, MAX_IDSTRING);

  00091	8b 47 5d	 mov	 eax, DWORD PTR [edi+93]
  00094	8a 4f 01	 mov	 cl, BYTE PTR [edi+1]
  00097	8a 17		 mov	 dl, BYTE PTR [edi]
  00099	88 4d ed	 mov	 BYTE PTR _res$[ebp+5], cl
  0009c	8b 4f 61	 mov	 ecx, DWORD PTR [edi+97]
  0009f	89 45 ef	 mov	 DWORD PTR _res$[ebp+7], eax

; 506  : 
; 507  :         DataSend(requester.m_Index, (LPBYTE)&res, res.h.size);

  000a2	0f b6 45 e9	 movzx	 eax, BYTE PTR _res$[ebp+1]
  000a6	88 55 ee	 mov	 BYTE PTR _res$[ebp+6], dl
  000a9	66 8b 57 65	 mov	 dx, WORD PTR [edi+101]
  000ad	89 4d f3	 mov	 DWORD PTR _res$[ebp+11], ecx
  000b0	50		 push	 eax
  000b1	8d 4d e8	 lea	 ecx, DWORD PTR _res$[ebp]
  000b4	66 89 55 f7	 mov	 WORD PTR _res$[ebp+15], dx
  000b8	8b 16		 mov	 edx, DWORD PTR [esi]
  000ba	51		 push	 ecx
  000bb	52		 push	 edx
  000bc	e8 00 00 00 00	 call	 ?DataSend@@YAHHPAEK@Z	; DataSend
  000c1	83 c4 0c	 add	 esp, 12			; 0000000cH

; 508  :         
; 509  : 		if( IsPKFieldMap(requester.MapNumber) )

  000c4	38 9e 23 01 00
	00		 cmp	 BYTE PTR [esi+291], bl
  000ca	75 0d		 jne	 SHORT $LN3@Leave

; 510  : 		{
; 511  : 			gObjMoveGate(requester.m_Index, 17);

  000cc	8b 06		 mov	 eax, DWORD PTR [esi]
  000ce	6a 11		 push	 17			; 00000011H
  000d0	50		 push	 eax
  000d1	e8 00 00 00 00	 call	 ?gObjMoveGate@@YAHHH@Z	; gObjMoveGate
  000d6	83 c4 08	 add	 esp, 8
$LN3@Leave:

; 512  : 		}
; 513  :     }
; 514  : 	
; 515  : 	if( gObjIsConnected(&responsor) )

  000d9	57		 push	 edi
  000da	e8 00 00 00 00	 call	 ?gObjIsConnected@@YAHPAUOBJECTSTRUCT@@@Z ; gObjIsConnected
  000df	83 c4 04	 add	 esp, 4
  000e2	85 c0		 test	 eax, eax
  000e4	0f 84 8c 00 00
	00		 je	 $LN1@Leave

; 516  : 	{
; 517  :         responsor.m_iDuelUser = -1;
; 518  :         res.NumberH = HIBYTE(responsor.m_Index);

  000ea	8a 4f 01	 mov	 cl, BYTE PTR [edi+1]

; 519  :         res.NumberL = LOBYTE(responsor.m_Index);

  000ed	8a 17		 mov	 dl, BYTE PTR [edi]
  000ef	c7 87 50 12 00
	00 ff ff ff ff	 mov	 DWORD PTR [edi+4688], -1

; 520  :         memcpy(res.szName, requester.Name, MAX_IDSTRING);

  000f9	8b 46 5d	 mov	 eax, DWORD PTR [esi+93]
  000fc	88 4d ed	 mov	 BYTE PTR _res$[ebp+5], cl
  000ff	8b 4e 61	 mov	 ecx, DWORD PTR [esi+97]
  00102	89 45 ef	 mov	 DWORD PTR _res$[ebp+7], eax

; 521  :         
; 522  : 		DataSend(responsor.m_Index, (LPBYTE)&res, res.h.size);

  00105	0f b6 45 e9	 movzx	 eax, BYTE PTR _res$[ebp+1]
  00109	88 55 ee	 mov	 BYTE PTR _res$[ebp+6], dl
  0010c	66 8b 56 65	 mov	 dx, WORD PTR [esi+101]
  00110	89 4d f3	 mov	 DWORD PTR _res$[ebp+11], ecx
  00113	50		 push	 eax
  00114	8d 4d e8	 lea	 ecx, DWORD PTR _res$[ebp]
  00117	66 89 55 f7	 mov	 WORD PTR _res$[ebp+15], dx
  0011b	8b 17		 mov	 edx, DWORD PTR [edi]
  0011d	51		 push	 ecx
  0011e	52		 push	 edx
  0011f	e8 00 00 00 00	 call	 ?DataSend@@YAHHPAEK@Z	; DataSend
  00124	83 c4 0c	 add	 esp, 12			; 0000000cH

; 523  :         
; 524  : 		if( IsPKFieldMap(responsor.MapNumber) )

  00127	38 9f 23 01 00
	00		 cmp	 BYTE PTR [edi+291], bl
  0012d	75 47		 jne	 SHORT $LN1@Leave

; 525  : 		{
; 526  : 			gObjMoveGate(responsor.m_Index, 17);

  0012f	8b 07		 mov	 eax, DWORD PTR [edi]
  00131	6a 11		 push	 17			; 00000011H
  00133	50		 push	 eax
  00134	e8 00 00 00 00	 call	 ?gObjMoveGate@@YAHHH@Z	; gObjMoveGate
  00139	83 c4 08	 add	 esp, 8
  0013c	5f		 pop	 edi
  0013d	5e		 pop	 esi
  0013e	5b		 pop	 ebx

; 527  : 		}
; 528  :     }
; 529  : }

  0013f	8b 4d fc	 mov	 ecx, DWORD PTR __$ArrayPad$[ebp]
  00142	33 cd		 xor	 ecx, ebp
  00144	e8 00 00 00 00	 call	 @__security_check_cookie@4
  00149	8b e5		 mov	 esp, ebp
  0014b	5d		 pop	 ebp
  0014c	c2 08 00	 ret	 8
$LN7@Leave:

; 490  : 	if(nId < 0 || nId >= DUEL_CHANNEL_MAX){ LogAddTD("%s\t%s\t%s\t%s\t%d","nId>=0 && nId<DUEL_CHANNEL_MAX","0","NULL",__FILE__, __LINE__); return; }

  0014f	68 ea 01 00 00	 push	 490			; 000001eaH
  00154	68 00 00 00 00	 push	 OFFSET ??_C@_0L@IGELOCEA@NewPVP?4cpp?$AA@
  00159	68 00 00 00 00	 push	 OFFSET ??_C@_04HIBGFPH@NULL?$AA@
  0015e	68 00 00 00 00	 push	 OFFSET ??_C@_01GBGANLPD@0?$AA@
  00163	68 00 00 00 00	 push	 OFFSET ??_C@_0BP@OMAPJGHA@nId?$DO?$DN0?5?$CG?$CG?5nId?$DMDUEL_CHANNEL_MAX?$AA@
$LN15@Leave:
  00168	68 00 00 00 00	 push	 OFFSET ??_C@_0P@ENJPCMFP@?$CFs?7?$CFs?7?$CFs?7?$CFs?7?$CFd?$AA@
  0016d	ff 15 00 00 00
	00		 call	 DWORD PTR ?LogAddTD@@3P6AXPADZZA ; LogAddTD
  00173	83 c4 18	 add	 esp, 24			; 00000018H
$LN1@Leave:

; 527  : 		}
; 528  :     }
; 529  : }

  00176	8b 4d fc	 mov	 ecx, DWORD PTR __$ArrayPad$[ebp]
  00179	5f		 pop	 edi
  0017a	5e		 pop	 esi
  0017b	33 cd		 xor	 ecx, ebp
  0017d	5b		 pop	 ebx
  0017e	e8 00 00 00 00	 call	 @__security_check_cookie@4
  00183	8b e5		 mov	 esp, ebp
  00185	5d		 pop	 ebp
  00186	c2 08 00	 ret	 8
?Leave@CNewPVP@@AAEXAAUOBJECTSTRUCT@@0@Z ENDP		; CNewPVP::Leave
_TEXT	ENDS
PUBLIC	??_C@_0CF@CINMDLEF@IS_START?$CIm_DuelChannel?$FLnId?$FN?4nSta@ ; `string'
PUBLIC	?SetScore@CNewPVP@@QAEXAAUOBJECTSTRUCT@@@Z	; CNewPVP::SetScore
;	COMDAT ??_C@_0CF@CINMDLEF@IS_START?$CIm_DuelChannel?$FLnId?$FN?4nSta@
CONST	SEGMENT
??_C@_0CF@CINMDLEF@IS_START?$CIm_DuelChannel?$FLnId?$FN?4nSta@ DB 'IS_STA'
	DB	'RT(m_DuelChannel[nId].nStatus)', 00H	; `string'
; Function compile flags: /Ogtp
CONST	ENDS
;	COMDAT ?SetScore@CNewPVP@@QAEXAAUOBJECTSTRUCT@@@Z
_TEXT	SEGMENT
_obj$ = 8						; size = 4
?SetScore@CNewPVP@@QAEXAAUOBJECTSTRUCT@@@Z PROC		; CNewPVP::SetScore, COMDAT
; _this$ = ecx

; 533  : {

  00000	55		 push	 ebp
  00001	8b ec		 mov	 ebp, esp
  00003	56		 push	 esi
  00004	57		 push	 edi

; 534  : 	int nId = GetDuelChannelId(obj.m_Index);

  00005	8b 7d 08	 mov	 edi, DWORD PTR _obj$[ebp]
  00008	8b 07		 mov	 eax, DWORD PTR [edi]
  0000a	50		 push	 eax
  0000b	8b f1		 mov	 esi, ecx
  0000d	e8 00 00 00 00	 call	 ?GetDuelChannelId@CNewPVP@@AAEHH@Z ; CNewPVP::GetDuelChannelId

; 535  : 	if(nId < 0 || nId >= DUEL_CHANNEL_MAX) { LogAddTD("%s\t%s\t%s\t%s\t%d","nId>=0 && nId<DUEL_CHANNEL_MAX","0","NULL",__FILE__, __LINE__); return;	}

  00012	83 f8 03	 cmp	 eax, 3
  00015	77 4b		 ja	 SHORT $LN3@SetScore

; 536  : 	if( !IS_START(m_DuelChannel[nId].nStatus) ) { LogAddTD("%s\t%s\t%s\t%s\t%d","IS_START(m_DuelChannel[nId].nStatus)", "0","NULL",__FILE__, __LINE__); return; }

  00017	6b c0 2c	 imul	 eax, 44			; 0000002cH
  0001a	8a 84 30 86 00
	00 00		 mov	 al, BYTE PTR [eax+esi+134]
  00021	3c 02		 cmp	 al, 2
  00023	72 10		 jb	 SHORT $LN1@SetScore
  00025	3c 04		 cmp	 al, 4
  00027	77 0c		 ja	 SHORT $LN1@SetScore

; 537  :     obj.m_btDuelScore++;

  00029	fe 87 54 12 00
	00		 inc	 BYTE PTR [edi+4692]
  0002f	5f		 pop	 edi
  00030	5e		 pop	 esi

; 538  : }

  00031	5d		 pop	 ebp
  00032	c2 04 00	 ret	 4
$LN1@SetScore:

; 536  : 	if( !IS_START(m_DuelChannel[nId].nStatus) ) { LogAddTD("%s\t%s\t%s\t%s\t%d","IS_START(m_DuelChannel[nId].nStatus)", "0","NULL",__FILE__, __LINE__); return; }

  00035	68 18 02 00 00	 push	 536			; 00000218H
  0003a	68 00 00 00 00	 push	 OFFSET ??_C@_0L@IGELOCEA@NewPVP?4cpp?$AA@
  0003f	68 00 00 00 00	 push	 OFFSET ??_C@_04HIBGFPH@NULL?$AA@
  00044	68 00 00 00 00	 push	 OFFSET ??_C@_01GBGANLPD@0?$AA@
  00049	68 00 00 00 00	 push	 OFFSET ??_C@_0CF@CINMDLEF@IS_START?$CIm_DuelChannel?$FLnId?$FN?4nSta@
  0004e	68 00 00 00 00	 push	 OFFSET ??_C@_0P@ENJPCMFP@?$CFs?7?$CFs?7?$CFs?7?$CFs?7?$CFd?$AA@
  00053	ff 15 00 00 00
	00		 call	 DWORD PTR ?LogAddTD@@3P6AXPADZZA ; LogAddTD
  00059	83 c4 18	 add	 esp, 24			; 00000018H
  0005c	5f		 pop	 edi
  0005d	5e		 pop	 esi

; 538  : }

  0005e	5d		 pop	 ebp
  0005f	c2 04 00	 ret	 4
$LN3@SetScore:

; 535  : 	if(nId < 0 || nId >= DUEL_CHANNEL_MAX) { LogAddTD("%s\t%s\t%s\t%s\t%d","nId>=0 && nId<DUEL_CHANNEL_MAX","0","NULL",__FILE__, __LINE__); return;	}

  00062	68 17 02 00 00	 push	 535			; 00000217H
  00067	68 00 00 00 00	 push	 OFFSET ??_C@_0L@IGELOCEA@NewPVP?4cpp?$AA@
  0006c	68 00 00 00 00	 push	 OFFSET ??_C@_04HIBGFPH@NULL?$AA@
  00071	68 00 00 00 00	 push	 OFFSET ??_C@_01GBGANLPD@0?$AA@
  00076	68 00 00 00 00	 push	 OFFSET ??_C@_0BP@OMAPJGHA@nId?$DO?$DN0?5?$CG?$CG?5nId?$DMDUEL_CHANNEL_MAX?$AA@
  0007b	68 00 00 00 00	 push	 OFFSET ??_C@_0P@ENJPCMFP@?$CFs?7?$CFs?7?$CFs?7?$CFs?7?$CFd?$AA@
  00080	ff 15 00 00 00
	00		 call	 DWORD PTR ?LogAddTD@@3P6AXPADZZA ; LogAddTD
  00086	83 c4 18	 add	 esp, 24			; 00000018H
  00089	5f		 pop	 edi
  0008a	5e		 pop	 esi

; 538  : }

  0008b	5d		 pop	 ebp
  0008c	c2 04 00	 ret	 4
?SetScore@CNewPVP@@QAEXAAUOBJECTSTRUCT@@@Z ENDP		; CNewPVP::SetScore
_TEXT	ENDS
PUBLIC	??_C@_0BG@IOFGAKKG@gObjIsConnected?$CI?$CGobj?$CJ?$AA@ ; `string'
PUBLIC	?ReFill@CNewPVP@@AAEXAAUOBJECTSTRUCT@@@Z	; CNewPVP::ReFill
EXTRN	?GCReFillSend@@YAXHGEEG@Z:PROC			; GCReFillSend
EXTRN	?GCManaSend@@YAXHFEEG@Z:PROC			; GCManaSend
EXTRN	__fltused:DWORD
EXTRN	__ftol2_sse:PROC
;	COMDAT ??_C@_0BG@IOFGAKKG@gObjIsConnected?$CI?$CGobj?$CJ?$AA@
CONST	SEGMENT
??_C@_0BG@IOFGAKKG@gObjIsConnected?$CI?$CGobj?$CJ?$AA@ DB 'gObjIsConnecte'
	DB	'd(&obj)', 00H				; `string'
; Function compile flags: /Ogtp
CONST	ENDS
;	COMDAT ?ReFill@CNewPVP@@AAEXAAUOBJECTSTRUCT@@@Z
_TEXT	SEGMENT
tv197 = -4						; size = 4
tv195 = -4						; size = 4
tv199 = 8						; size = 4
tv180 = 8						; size = 4
_obj$ = 8						; size = 4
tv201 = 10						; size = 2
?ReFill@CNewPVP@@AAEXAAUOBJECTSTRUCT@@@Z PROC		; CNewPVP::ReFill, COMDAT
; _this$ = ecx

; 574  : {

  00000	55		 push	 ebp
  00001	8b ec		 mov	 ebp, esp
  00003	51		 push	 ecx
  00004	56		 push	 esi

; 575  : 	if( !gObjIsConnected(&obj) ){ LogAddTD("%s\t%s\t%s\t%s\t%d","gObjIsConnected(&obj)","0","NULL", __FILE__, __LINE__); return; }

  00005	8b 75 08	 mov	 esi, DWORD PTR _obj$[ebp]
  00008	56		 push	 esi
  00009	e8 00 00 00 00	 call	 ?gObjIsConnected@@YAHPAUOBJECTSTRUCT@@@Z ; gObjIsConnected
  0000e	83 c4 04	 add	 esp, 4
  00011	85 c0		 test	 eax, eax
  00013	75 2e		 jne	 SHORT $LN1@ReFill
  00015	68 3f 02 00 00	 push	 575			; 0000023fH
  0001a	68 00 00 00 00	 push	 OFFSET ??_C@_0L@IGELOCEA@NewPVP?4cpp?$AA@
  0001f	68 00 00 00 00	 push	 OFFSET ??_C@_04HIBGFPH@NULL?$AA@
  00024	68 00 00 00 00	 push	 OFFSET ??_C@_01GBGANLPD@0?$AA@
  00029	68 00 00 00 00	 push	 OFFSET ??_C@_0BG@IOFGAKKG@gObjIsConnected?$CI?$CGobj?$CJ?$AA@
  0002e	68 00 00 00 00	 push	 OFFSET ??_C@_0P@ENJPCMFP@?$CFs?7?$CFs?7?$CFs?7?$CFs?7?$CFd?$AA@
  00033	ff 15 00 00 00
	00		 call	 DWORD PTR ?LogAddTD@@3P6AXPADZZA ; LogAddTD
  00039	83 c4 18	 add	 esp, 24			; 00000018H
  0003c	5e		 pop	 esi

; 584  : }

  0003d	8b e5		 mov	 esp, ebp
  0003f	5d		 pop	 ebp
  00040	c2 04 00	 ret	 4
$LN1@ReFill:

; 576  : 
; 577  : 	obj.BP = obj.MaxBP + obj.AddBP;

  00043	8b 86 0c 01 00
	00		 mov	 eax, DWORD PTR [esi+268]

; 578  : 	obj.Mana = obj.MaxMana + obj.AddMana;

  00049	db 86 28 01 00
	00		 fild	 DWORD PTR [esi+296]
  0004f	03 86 08 01 00
	00		 add	 eax, DWORD PTR [esi+264]
  00055	d8 86 f0 00 00
	00		 fadd	 DWORD PTR [esi+240]

; 579  : 	GCManaSend(obj.m_Index, (int)obj.Mana, 0xFF, 0, (int)obj.BP);

  0005b	0f b7 c8	 movzx	 ecx, ax
  0005e	51		 push	 ecx
  0005f	6a 00		 push	 0
  00061	d9 5d 08	 fstp	 DWORD PTR tv180[ebp]
  00064	68 ff 00 00 00	 push	 255			; 000000ffH
  00069	d9 45 08	 fld	 DWORD PTR tv180[ebp]
  0006c	89 86 04 01 00
	00		 mov	 DWORD PTR [esi+260], eax
  00072	d9 96 ec 00 00
	00		 fst	 DWORD PTR [esi+236]
  00078	e8 00 00 00 00	 call	 __ftol2_sse
  0007d	0f b7 d0	 movzx	 edx, ax
  00080	8b 06		 mov	 eax, DWORD PTR [esi]
  00082	52		 push	 edx
  00083	50		 push	 eax
  00084	e8 00 00 00 00	 call	 ?GCManaSend@@YAXHFEEG@Z	; GCManaSend

; 580  : 
; 581  : 	obj.Life = obj.MaxLife + obj.AddLife;
; 582  : 	obj.iShield = obj.iMaxShield + obj.iAddShield;

  00089	8b 8e 34 01 00
	00		 mov	 ecx, DWORD PTR [esi+308]
  0008f	db 86 24 01 00
	00		 fild	 DWORD PTR [esi+292]
  00095	03 8e 30 01 00
	00		 add	 ecx, DWORD PTR [esi+304]
  0009b	d8 86 dc 00 00
	00		 fadd	 DWORD PTR [esi+220]

; 583  : 	GCReFillSend(obj.m_Index, (int)obj.Life, 0xFF, 0, (int)obj.iShield);

  000a1	0f b7 d1	 movzx	 edx, cx
  000a4	52		 push	 edx
  000a5	8b 16		 mov	 edx, DWORD PTR [esi]
  000a7	d9 5d 08	 fstp	 DWORD PTR tv199[ebp]
  000aa	89 8e 2c 01 00
	00		 mov	 DWORD PTR [esi+300], ecx
  000b0	d9 45 08	 fld	 DWORD PTR tv199[ebp]
  000b3	6a 00		 push	 0
  000b5	d9 7d 0a	 fnstcw	 WORD PTR tv201[ebp]
  000b8	0f b7 45 0a	 movzx	 eax, WORD PTR tv201[ebp]
  000bc	d9 96 d8 00 00
	00		 fst	 DWORD PTR [esi+216]
  000c2	0d 00 0c 00 00	 or	 eax, 3072		; 00000c00H
  000c7	89 45 fc	 mov	 DWORD PTR tv197[ebp], eax
  000ca	68 ff 00 00 00	 push	 255			; 000000ffH
  000cf	d9 6d fc	 fldcw	 WORD PTR tv197[ebp]
  000d2	db 5d fc	 fistp	 DWORD PTR tv195[ebp]
  000d5	66 8b 45 fc	 mov	 ax, WORD PTR tv195[ebp]
  000d9	0f b7 c8	 movzx	 ecx, ax
  000dc	51		 push	 ecx
  000dd	d9 6d 0a	 fldcw	 WORD PTR tv201[ebp]
  000e0	52		 push	 edx
  000e1	e8 00 00 00 00	 call	 ?GCReFillSend@@YAXHGEEG@Z ; GCReFillSend
  000e6	83 c4 28	 add	 esp, 40			; 00000028H
  000e9	5e		 pop	 esi

; 584  : }

  000ea	8b e5		 mov	 esp, ebp
  000ec	5d		 pop	 ebp
  000ed	c2 04 00	 ret	 4
?ReFill@CNewPVP@@AAEXAAUOBJECTSTRUCT@@@Z ENDP		; CNewPVP::ReFill
_TEXT	ENDS
PUBLIC	?MoveGate@CNewPVP@@AAEHHH@Z			; CNewPVP::MoveGate
EXTRN	?gObjViewportListProtocolCreate@@YAXPAUOBJECTSTRUCT@@@Z:PROC ; gObjViewportListProtocolCreate
EXTRN	?gObj@@3PAUOBJECTSTRUCT@@A:DWORD		; gObj
EXTRN	?gObjTeleport@@YAXHHHH@Z:PROC			; gObjTeleport
EXTRN	?GetGate@CGate@@QAEHHAAE000AAF@Z:PROC		; CGate::GetGate
EXTRN	?gGateC@@3VCGate@@A:BYTE			; gGateC
; Function compile flags: /Ogtp
;	COMDAT ?MoveGate@CNewPVP@@AAEHHH@Z
_TEXT	SEGMENT
_sLevel$ = -8						; size = 2
_btDir$ = -3						; size = 1
_sX$ = -2						; size = 1
_btMapNum$ = -1						; size = 1
_nIndex$ = 8						; size = 4
_nGateNum$ = 12						; size = 4
_sY$ = 15						; size = 1
?MoveGate@CNewPVP@@AAEHHH@Z PROC			; CNewPVP::MoveGate, COMDAT
; _this$ = ecx

; 588  : {

  00000	55		 push	 ebp
  00001	8b ec		 mov	 ebp, esp
  00003	83 ec 08	 sub	 esp, 8

; 589  : 	BYTE btMapNum = MAP_INDEX_PKFIELD;
; 590  : 	BYTE btDir;
; 591  : 	BYTE sX;
; 592  : 	BYTE sY;
; 593  : 	short sLevel;
; 594  : 	int nMapNumber;
; 595  : 
; 596  : 	nMapNumber =  gGateC.GetGate(nGateNum, sX, sY, btMapNum, btDir, sLevel);

  00006	8d 45 f8	 lea	 eax, DWORD PTR _sLevel$[ebp]
  00009	50		 push	 eax
  0000a	8d 4d fd	 lea	 ecx, DWORD PTR _btDir$[ebp]
  0000d	51		 push	 ecx
  0000e	8d 55 ff	 lea	 edx, DWORD PTR _btMapNum$[ebp]
  00011	52		 push	 edx
  00012	8b 55 0c	 mov	 edx, DWORD PTR _nGateNum$[ebp]
  00015	8d 45 0f	 lea	 eax, DWORD PTR _sY$[ebp]
  00018	50		 push	 eax
  00019	8d 4d fe	 lea	 ecx, DWORD PTR _sX$[ebp]
  0001c	51		 push	 ecx
  0001d	52		 push	 edx
  0001e	b9 00 00 00 00	 mov	 ecx, OFFSET ?gGateC@@3VCGate@@A ; gGateC
  00023	c6 45 ff 40	 mov	 BYTE PTR _btMapNum$[ebp], 64 ; 00000040H
  00027	e8 00 00 00 00	 call	 ?GetGate@CGate@@QAEHHAAE000AAF@Z ; CGate::GetGate

; 597  : 	if( nMapNumber < 0)	return FALSE;

  0002c	85 c0		 test	 eax, eax
  0002e	79 08		 jns	 SHORT $LN1@MoveGate
  00030	33 c0		 xor	 eax, eax

; 603  : }

  00032	8b e5		 mov	 esp, ebp
  00034	5d		 pop	 ebp
  00035	c2 08 00	 ret	 8
$LN1@MoveGate:

; 598  : 
; 599  : 	gObjTeleport(nIndex, btMapNum, sX, sY);

  00038	0f b6 45 0f	 movzx	 eax, BYTE PTR _sY$[ebp]
  0003c	0f b6 4d fe	 movzx	 ecx, BYTE PTR _sX$[ebp]
  00040	0f b6 55 ff	 movzx	 edx, BYTE PTR _btMapNum$[ebp]
  00044	56		 push	 esi
  00045	8b 75 08	 mov	 esi, DWORD PTR _nIndex$[ebp]
  00048	50		 push	 eax
  00049	51		 push	 ecx
  0004a	52		 push	 edx
  0004b	56		 push	 esi
  0004c	e8 00 00 00 00	 call	 ?gObjTeleport@@YAXHHHH@Z ; gObjTeleport

; 600  : 	//temp disabled, bcz have some bug
; 601  : 	gObjViewportListProtocolCreate(&gObj[nIndex]);

  00051	69 f6 40 27 00
	00		 imul	 esi, 10048		; 00002740H
  00057	03 35 00 00 00
	00		 add	 esi, DWORD PTR ?gObj@@3PAUOBJECTSTRUCT@@A ; gObj
  0005d	56		 push	 esi
  0005e	e8 00 00 00 00	 call	 ?gObjViewportListProtocolCreate@@YAXPAUOBJECTSTRUCT@@@Z ; gObjViewportListProtocolCreate
  00063	83 c4 14	 add	 esp, 20			; 00000014H

; 602  : 	return TRUE;

  00066	b8 01 00 00 00	 mov	 eax, 1
  0006b	5e		 pop	 esi

; 603  : }

  0006c	8b e5		 mov	 esp, ebp
  0006e	5d		 pop	 ebp
  0006f	c2 08 00	 ret	 8
?MoveGate@CNewPVP@@AAEHHH@Z ENDP			; CNewPVP::MoveGate
_TEXT	ENDS
PUBLIC	?CheckLimitLevel@CNewPVP@@AAEHHH@Z		; CNewPVP::CheckLimitLevel
; Function compile flags: /Ogtp
;	COMDAT ?CheckLimitLevel@CNewPVP@@AAEHHH@Z
_TEXT	SEGMENT
_sLevel$ = -8						; size = 2
_sX$ = -3						; size = 1
_sY$ = -2						; size = 1
_btMapNum$ = -1						; size = 1
_nIndex$ = 8						; size = 4
_nGateNum$ = 12						; size = 4
_btDir$ = 15						; size = 1
?CheckLimitLevel@CNewPVP@@AAEHHH@Z PROC			; CNewPVP::CheckLimitLevel, COMDAT
; _this$ = ecx

; 607  : {

  00000	55		 push	 ebp
  00001	8b ec		 mov	 ebp, esp
  00003	83 ec 08	 sub	 esp, 8

; 608  : 	BYTE btMapNum = MAP_INDEX_PKFIELD;
; 609  : 	BYTE btDir;
; 610  : 	BYTE sX;
; 611  : 	BYTE sY;
; 612  : 	short sLevel;
; 613  : 
; 614  : 	int nMapNumber =  gGateC.GetGate(nGateNum, sX, sY, btMapNum, btDir, sLevel);

  00006	8d 45 f8	 lea	 eax, DWORD PTR _sLevel$[ebp]
  00009	50		 push	 eax
  0000a	8d 4d 0f	 lea	 ecx, DWORD PTR _btDir$[ebp]
  0000d	51		 push	 ecx
  0000e	8d 55 ff	 lea	 edx, DWORD PTR _btMapNum$[ebp]
  00011	52		 push	 edx
  00012	8b 55 0c	 mov	 edx, DWORD PTR _nGateNum$[ebp]
  00015	8d 45 fe	 lea	 eax, DWORD PTR _sY$[ebp]
  00018	50		 push	 eax
  00019	8d 4d fd	 lea	 ecx, DWORD PTR _sX$[ebp]
  0001c	51		 push	 ecx
  0001d	52		 push	 edx
  0001e	b9 00 00 00 00	 mov	 ecx, OFFSET ?gGateC@@3VCGate@@A ; gGateC
  00023	c6 45 ff 40	 mov	 BYTE PTR _btMapNum$[ebp], 64 ; 00000040H
  00027	e8 00 00 00 00	 call	 ?GetGate@CGate@@QAEHHAAE000AAF@Z ; CGate::GetGate

; 615  : 	if( nMapNumber < 0)	return FALSE;

  0002c	85 c0		 test	 eax, eax
  0002e	79 08		 jns	 SHORT $LN2@CheckLimit
  00030	33 c0		 xor	 eax, eax

; 618  : 	return TRUE;
; 619  : }

  00032	8b e5		 mov	 esp, ebp
  00034	5d		 pop	 ebp
  00035	c2 08 00	 ret	 8
$LN2@CheckLimit:

; 616  : 
; 617  : 	if(gObj[nIndex].Level < sLevel)	return FALSE;

  00038	8b 45 08	 mov	 eax, DWORD PTR _nIndex$[ebp]
  0003b	8b 15 00 00 00
	00		 mov	 edx, DWORD PTR ?gObj@@3PAUOBJECTSTRUCT@@A ; gObj
  00041	69 c0 40 27 00
	00		 imul	 eax, 10048		; 00002740H
  00047	66 8b 84 10 96
	00 00 00	 mov	 ax, WORD PTR [eax+edx+150]
  0004f	33 c9		 xor	 ecx, ecx
  00051	66 3b 45 f8	 cmp	 ax, WORD PTR _sLevel$[ebp]
  00055	0f 9d c1	 setge	 cl
  00058	8b c1		 mov	 eax, ecx

; 618  : 	return TRUE;
; 619  : }

  0005a	8b e5		 mov	 esp, ebp
  0005c	5d		 pop	 ebp
  0005d	c2 08 00	 ret	 8
?CheckLimitLevel@CNewPVP@@AAEHHH@Z ENDP			; CNewPVP::CheckLimitLevel
_TEXT	ENDS
PUBLIC	?SetBuff@CNewPVP@@QAEXAAUOBJECTSTRUCT@@H@Z	; CNewPVP::SetBuff
EXTRN	?gObjRemoveBuffEffect@@YA_NPAUOBJECTSTRUCT@@H@Z:PROC ; gObjRemoveBuffEffect
EXTRN	?gObjViewportListProtocolDestroy@@YAXPAUOBJECTSTRUCT@@@Z:PROC ; gObjViewportListProtocolDestroy
EXTRN	?gObjAddBuffEffect@@YA_NPAUOBJECTSTRUCT@@HEHEHH@Z:PROC ; gObjAddBuffEffect
; Function compile flags: /Ogtp
;	COMDAT ?SetBuff@CNewPVP@@QAEXAAUOBJECTSTRUCT@@H@Z
_TEXT	SEGMENT
_obj$ = 8						; size = 4
_bUse$ = 12						; size = 4
?SetBuff@CNewPVP@@QAEXAAUOBJECTSTRUCT@@H@Z PROC		; CNewPVP::SetBuff, COMDAT
; _this$ = ecx

; 623  : {

  00000	55		 push	 ebp
  00001	8b ec		 mov	 ebp, esp

; 624  : 	if( bUse )

  00003	83 7d 0c 00	 cmp	 DWORD PTR _bUse$[ebp], 0
  00007	56		 push	 esi

; 625  : 	{
; 626  : 		gObjAddBuffEffect(&obj, 18, 0, 0, 0, 0, -10);

  00008	8b 75 08	 mov	 esi, DWORD PTR _obj$[ebp]
  0000b	74 32		 je	 SHORT $LN1@SetBuff
  0000d	6a f6		 push	 -10			; fffffff6H
  0000f	6a 00		 push	 0
  00011	6a 00		 push	 0
  00013	6a 00		 push	 0
  00015	6a 00		 push	 0
  00017	6a 12		 push	 18			; 00000012H
  00019	56		 push	 esi
  0001a	e8 00 00 00 00	 call	 ?gObjAddBuffEffect@@YA_NPAUOBJECTSTRUCT@@HEHEHH@Z ; gObjAddBuffEffect

; 627  : 		gObjAddBuffEffect(&obj, 98, 0, 0, 0, 0, -10);

  0001f	6a f6		 push	 -10			; fffffff6H
  00021	6a 00		 push	 0
  00023	6a 00		 push	 0
  00025	6a 00		 push	 0
  00027	6a 00		 push	 0
  00029	6a 62		 push	 98			; 00000062H
  0002b	56		 push	 esi
  0002c	e8 00 00 00 00	 call	 ?gObjAddBuffEffect@@YA_NPAUOBJECTSTRUCT@@HEHEHH@Z ; gObjAddBuffEffect

; 628  : 		gObjViewportListProtocolDestroy(&obj);

  00031	56		 push	 esi
  00032	e8 00 00 00 00	 call	 ?gObjViewportListProtocolDestroy@@YAXPAUOBJECTSTRUCT@@@Z ; gObjViewportListProtocolDestroy
  00037	83 c4 3c	 add	 esp, 60			; 0000003cH
  0003a	5e		 pop	 esi

; 635  : }

  0003b	5d		 pop	 ebp
  0003c	c2 08 00	 ret	 8
$LN1@SetBuff:

; 629  : 		return;
; 630  : 	}
; 631  : 
; 632  : 	gObjRemoveBuffEffect(&obj, 18);

  0003f	6a 12		 push	 18			; 00000012H
  00041	56		 push	 esi
  00042	e8 00 00 00 00	 call	 ?gObjRemoveBuffEffect@@YA_NPAUOBJECTSTRUCT@@H@Z ; gObjRemoveBuffEffect

; 633  : 	gObjRemoveBuffEffect(&obj, 98);

  00047	6a 62		 push	 98			; 00000062H
  00049	56		 push	 esi
  0004a	e8 00 00 00 00	 call	 ?gObjRemoveBuffEffect@@YA_NPAUOBJECTSTRUCT@@H@Z ; gObjRemoveBuffEffect

; 634  : 	gObjViewportListProtocolCreate(&obj);

  0004f	56		 push	 esi
  00050	e8 00 00 00 00	 call	 ?gObjViewportListProtocolCreate@@YAXPAUOBJECTSTRUCT@@@Z ; gObjViewportListProtocolCreate
  00055	83 c4 14	 add	 esp, 20			; 00000014H
  00058	5e		 pop	 esi

; 635  : }

  00059	5d		 pop	 ebp
  0005a	c2 08 00	 ret	 8
?SetBuff@CNewPVP@@QAEXAAUOBJECTSTRUCT@@H@Z ENDP		; CNewPVP::SetBuff
_TEXT	ENDS
PUBLIC	?SendChannelList@CNewPVP@@QAEHAAUOBJECTSTRUCT@@0@Z ; CNewPVP::SendChannelList
; Function compile flags: /Ogtp
;	COMDAT ?SendChannelList@CNewPVP@@QAEHAAUOBJECTSTRUCT@@0@Z
_TEXT	SEGMENT
_npc$ = 8						; size = 4
_obj$ = 12						; size = 4
?SendChannelList@CNewPVP@@QAEHAAUOBJECTSTRUCT@@0@Z PROC	; CNewPVP::SendChannelList, COMDAT
; _this$ = ecx

; 639  : {

  00000	55		 push	 ebp
  00001	8b ec		 mov	 ebp, esp

; 640  : 	DataSend(obj.m_Index, (LPBYTE)&m_DuelChannelList, m_DuelChannelList.h.size);

  00003	0f b6 41 09	 movzx	 eax, BYTE PTR [ecx+9]
  00007	50		 push	 eax
  00008	83 c1 08	 add	 ecx, 8
  0000b	51		 push	 ecx
  0000c	8b 4d 0c	 mov	 ecx, DWORD PTR _obj$[ebp]
  0000f	8b 11		 mov	 edx, DWORD PTR [ecx]
  00011	52		 push	 edx
  00012	e8 00 00 00 00	 call	 ?DataSend@@YAHHPAEK@Z	; DataSend
  00017	83 c4 0c	 add	 esp, 12			; 0000000cH

; 641  : 	return FALSE;

  0001a	33 c0		 xor	 eax, eax

; 642  : }

  0001c	5d		 pop	 ebp
  0001d	c2 08 00	 ret	 8
?SendChannelList@CNewPVP@@QAEHAAUOBJECTSTRUCT@@0@Z ENDP	; CNewPVP::SendChannelList
_TEXT	ENDS
PUBLIC	?GetChannelStatus@CNewPVP@@QAEHAAUOBJECTSTRUCT@@@Z ; CNewPVP::GetChannelStatus
; Function compile flags: /Ogtp
;	COMDAT ?GetChannelStatus@CNewPVP@@QAEHAAUOBJECTSTRUCT@@@Z
_TEXT	SEGMENT
_obj$ = 8						; size = 4
?GetChannelStatus@CNewPVP@@QAEHAAUOBJECTSTRUCT@@@Z PROC	; CNewPVP::GetChannelStatus, COMDAT
; _this$ = ecx

; 646  : {

  00000	55		 push	 ebp
  00001	8b ec		 mov	 ebp, esp

; 647  : 	DUEL_CHANNEL * lpChannel = GetDuelChannel(obj.Name);

  00003	8b 45 08	 mov	 eax, DWORD PTR _obj$[ebp]
  00006	83 c0 5d	 add	 eax, 93			; 0000005dH
  00009	50		 push	 eax
  0000a	e8 00 00 00 00	 call	 ?GetDuelChannel@CNewPVP@@AAEPAU_tagDUEL_CHANNEL@@PAD@Z ; CNewPVP::GetDuelChannel

; 648  : 	if(lpChannel != NULL)	return lpChannel->nStatus;

  0000f	85 c0		 test	 eax, eax
  00011	74 08		 je	 SHORT $LN1@GetChannel
  00013	0f b6 40 22	 movzx	 eax, BYTE PTR [eax+34]

; 650  : }

  00017	5d		 pop	 ebp
  00018	c2 04 00	 ret	 4
$LN1@GetChannel:

; 649  : 	return 0;

  0001b	33 c0		 xor	 eax, eax

; 650  : }

  0001d	5d		 pop	 ebp
  0001e	c2 04 00	 ret	 4
?GetChannelStatus@CNewPVP@@QAEHAAUOBJECTSTRUCT@@@Z ENDP	; CNewPVP::GetChannelStatus
_TEXT	ENDS
PUBLIC	?IsSafeState@CNewPVP@@QAEHAAUOBJECTSTRUCT@@@Z	; CNewPVP::IsSafeState
; Function compile flags: /Ogtp
;	COMDAT ?IsSafeState@CNewPVP@@QAEHAAUOBJECTSTRUCT@@@Z
_TEXT	SEGMENT
_obj$ = 8						; size = 4
?IsSafeState@CNewPVP@@QAEHAAUOBJECTSTRUCT@@@Z PROC	; CNewPVP::IsSafeState, COMDAT
; _this$ = ecx

; 654  : {

  00000	55		 push	 ebp
  00001	8b ec		 mov	 ebp, esp

; 655  : 	DUEL_CHANNEL * lpChannel = GetDuelChannel(obj.Name);

  00003	8b 45 08	 mov	 eax, DWORD PTR _obj$[ebp]
  00006	83 c0 5d	 add	 eax, 93			; 0000005dH
  00009	50		 push	 eax
  0000a	e8 00 00 00 00	 call	 ?GetDuelChannel@CNewPVP@@AAEPAU_tagDUEL_CHANNEL@@PAD@Z ; CNewPVP::GetDuelChannel

; 656  : 	if(lpChannel == NULL)	return TRUE;

  0000f	85 c0		 test	 eax, eax
  00011	74 15		 je	 SHORT $LN1@IsSafeStat

; 657  : 	
; 658  : 	if( lpChannel->nStatus == 2 || 
; 659  : 		lpChannel->nStatus == 4 || 
; 660  : 		lpChannel->nStatus == DC_RESERVEDEND )

  00013	8a 40 22	 mov	 al, BYTE PTR [eax+34]
  00016	3c 02		 cmp	 al, 2
  00018	74 0e		 je	 SHORT $LN1@IsSafeStat
  0001a	3c 04		 cmp	 al, 4
  0001c	74 0a		 je	 SHORT $LN1@IsSafeStat
  0001e	3c 05		 cmp	 al, 5
  00020	74 06		 je	 SHORT $LN1@IsSafeStat

; 663  : 	}
; 664  : 
; 665  : 	return FALSE;

  00022	33 c0		 xor	 eax, eax

; 666  : }

  00024	5d		 pop	 ebp
  00025	c2 04 00	 ret	 4
$LN1@IsSafeStat:

; 661  : 	{
; 662  : 		return TRUE;

  00028	b8 01 00 00 00	 mov	 eax, 1

; 666  : }

  0002d	5d		 pop	 ebp
  0002e	c2 04 00	 ret	 4
?IsSafeState@CNewPVP@@QAEHAAUOBJECTSTRUCT@@@Z ENDP	; CNewPVP::IsSafeState
_TEXT	ENDS
PUBLIC	?IsObserver@CNewPVP@@QAEHAAUOBJECTSTRUCT@@@Z	; CNewPVP::IsObserver
EXTRN	?gObjCheckUsedBuffEffect@@YA_NPAUOBJECTSTRUCT@@H@Z:PROC ; gObjCheckUsedBuffEffect
; Function compile flags: /Ogtp
;	COMDAT ?IsObserver@CNewPVP@@QAEHAAUOBJECTSTRUCT@@@Z
_TEXT	SEGMENT
_obj$ = 8						; size = 4
?IsObserver@CNewPVP@@QAEHAAUOBJECTSTRUCT@@@Z PROC	; CNewPVP::IsObserver, COMDAT
; _this$ = ecx

; 670  : {

  00000	55		 push	 ebp
  00001	8b ec		 mov	 ebp, esp

; 671  : 	return gObjCheckUsedBuffEffect(&obj, 98);

  00003	8b 45 08	 mov	 eax, DWORD PTR _obj$[ebp]
  00006	6a 62		 push	 98			; 00000062H
  00008	50		 push	 eax
  00009	e8 00 00 00 00	 call	 ?gObjCheckUsedBuffEffect@@YA_NPAUOBJECTSTRUCT@@H@Z ; gObjCheckUsedBuffEffect
  0000e	83 c4 08	 add	 esp, 8
  00011	0f b6 c0	 movzx	 eax, al

; 672  : }

  00014	5d		 pop	 ebp
  00015	c2 04 00	 ret	 4
?IsObserver@CNewPVP@@QAEHAAUOBJECTSTRUCT@@@Z ENDP	; CNewPVP::IsObserver
_TEXT	ENDS
PUBLIC	?CheckChannelListInfo@CNewPVP@@AAEXH@Z		; CNewPVP::CheckChannelListInfo
; Function compile flags: /Ogtp
;	COMDAT ?CheckChannelListInfo@CNewPVP@@AAEXH@Z
_TEXT	SEGMENT
_nId$ = 8						; size = 4
?CheckChannelListInfo@CNewPVP@@AAEXH@Z PROC		; CNewPVP::CheckChannelListInfo, COMDAT
; _this$ = ecx

; 893  : {

  00000	55		 push	 ebp
  00001	8b ec		 mov	 ebp, esp

; 894  : 	if( nId < 0 || nId >= DUEL_CHANNEL_MAX )	return;	

  00003	8b 45 08	 mov	 eax, DWORD PTR _nId$[ebp]
  00006	83 f8 03	 cmp	 eax, 3
  00009	77 08		 ja	 SHORT $LN1@CheckChann

; 895  : 	m_DuelChannelList.channel[nId].bWatch = 1;

  0000b	6b c0 16	 imul	 eax, 22			; 00000016H
  0000e	c6 44 08 21 01	 mov	 BYTE PTR [eax+ecx+33], 1
$LN1@CheckChann:

; 896  : }

  00013	5d		 pop	 ebp
  00014	c2 04 00	 ret	 4
?CheckChannelListInfo@CNewPVP@@AAEXH@Z ENDP		; CNewPVP::CheckChannelListInfo
_TEXT	ENDS
PUBLIC	?CheckPKPenalty@CNewPVP@@QAEHPAUOBJECTSTRUCT@@@Z ; CNewPVP::CheckPKPenalty
EXTRN	?GetPartyPkLevel@PartyClass@@QAEDH@Z:PROC	; PartyClass::GetPartyPkLevel
EXTRN	?gParty@@3VPartyClass@@A:BYTE			; gParty
EXTRN	?gPkLimitFree@@3HA:DWORD			; gPkLimitFree
; Function compile flags: /Ogtp
;	COMDAT ?CheckPKPenalty@CNewPVP@@QAEHPAUOBJECTSTRUCT@@@Z
_TEXT	SEGMENT
_lpObj$ = 8						; size = 4
?CheckPKPenalty@CNewPVP@@QAEHPAUOBJECTSTRUCT@@@Z PROC	; CNewPVP::CheckPKPenalty, COMDAT
; _this$ = ecx

; 1135 : {

  00000	55		 push	 ebp
  00001	8b ec		 mov	 ebp, esp

; 1136 : 	if( !gPkLimitFree )

  00003	83 3d 00 00 00
	00 00		 cmp	 DWORD PTR ?gPkLimitFree@@3HA, 0 ; gPkLimitFree
  0000a	75 37		 jne	 SHORT $LN1@CheckPKPen

; 1137 : 	{
; 1138 : 		if( lpObj->PartyNumber >= 0 )

  0000c	8b 4d 08	 mov	 ecx, DWORD PTR _lpObj$[ebp]
  0000f	8b 81 0c 06 00
	00		 mov	 eax, DWORD PTR [ecx+1548]
  00015	85 c0		 test	 eax, eax
  00017	78 18		 js	 SHORT $LN4@CheckPKPen

; 1139 : 		{
; 1140 : 			if( gParty.GetPartyPkLevel( lpObj->PartyNumber) >= 6 )

  00019	50		 push	 eax
  0001a	b9 00 00 00 00	 mov	 ecx, OFFSET ?gParty@@3VPartyClass@@A ; gParty
  0001f	e8 00 00 00 00	 call	 ?GetPartyPkLevel@PartyClass@@QAEDH@Z ; PartyClass::GetPartyPkLevel
  00024	3c 06		 cmp	 al, 6
  00026	7c 1b		 jl	 SHORT $LN1@CheckPKPen

; 1141 : 			{
; 1142 : 				return TRUE;

  00028	b8 01 00 00 00	 mov	 eax, 1

; 1151 : }

  0002d	5d		 pop	 ebp
  0002e	c2 04 00	 ret	 4
$LN4@CheckPKPen:

; 1143 : 			}
; 1144 : 		}
; 1145 : 		else if( lpObj->m_PK_Level >= 6 )

  00031	80 b9 19 01 00
	00 06		 cmp	 BYTE PTR [ecx+281], 6
  00038	7c 09		 jl	 SHORT $LN1@CheckPKPen

; 1146 : 		{
; 1147 : 			 return TRUE;

  0003a	b8 01 00 00 00	 mov	 eax, 1

; 1151 : }

  0003f	5d		 pop	 ebp
  00040	c2 04 00	 ret	 4
$LN1@CheckPKPen:

; 1148 : 		}
; 1149 :     }
; 1150 : 	return FALSE;

  00043	33 c0		 xor	 eax, eax

; 1151 : }

  00045	5d		 pop	 ebp
  00046	c2 04 00	 ret	 4
?CheckPKPenalty@CNewPVP@@QAEHPAUOBJECTSTRUCT@@@Z ENDP	; CNewPVP::CheckPKPenalty
_TEXT	ENDS
PUBLIC	?IsSelfDefense@CNewPVP@@QAEHPAUOBJECTSTRUCT@@@Z	; CNewPVP::IsSelfDefense
; Function compile flags: /Ogtp
;	COMDAT ?IsSelfDefense@CNewPVP@@QAEHPAUOBJECTSTRUCT@@@Z
_TEXT	SEGMENT
_lpObj$ = 8						; size = 4
?IsSelfDefense@CNewPVP@@QAEHPAUOBJECTSTRUCT@@@Z PROC	; CNewPVP::IsSelfDefense, COMDAT
; _this$ = ecx

; 1155 : {

  00000	55		 push	 ebp
  00001	8b ec		 mov	 ebp, esp

; 1156 : 	BOOL bRetVal = FALSE;

  00003	8b 55 08	 mov	 edx, DWORD PTR _lpObj$[ebp]
  00006	33 c0		 xor	 eax, eax

; 1157 : 	for ( int i = 0; i < 7; i++ )

  00008	33 c9		 xor	 ecx, ecx
  0000a	81 c2 c4 05 00
	00		 add	 edx, 1476		; 000005c4H
$LL4@IsSelfDefe:

; 1158 : 	{
; 1159 : 		if( lpObj->SelfDefense[i] >= 0 )

  00010	39 02		 cmp	 DWORD PTR [edx], eax
  00012	7d 0d		 jge	 SHORT $LN8@IsSelfDefe

; 1157 : 	for ( int i = 0; i < 7; i++ )

  00014	41		 inc	 ecx
  00015	83 c2 04	 add	 edx, 4
  00018	83 f9 07	 cmp	 ecx, 7
  0001b	7c f3		 jl	 SHORT $LL4@IsSelfDefe

; 1162 : 			break;
; 1163 : 		}
; 1164 : 	}
; 1165 : 	return bRetVal;
; 1166 : }

  0001d	5d		 pop	 ebp
  0001e	c2 04 00	 ret	 4
$LN8@IsSelfDefe:

; 1160 : 		{
; 1161 : 			bRetVal = TRUE;

  00021	b8 01 00 00 00	 mov	 eax, 1

; 1162 : 			break;
; 1163 : 		}
; 1164 : 	}
; 1165 : 	return bRetVal;
; 1166 : }

  00026	5d		 pop	 ebp
  00027	c2 04 00	 ret	 4
?IsSelfDefense@CNewPVP@@QAEHPAUOBJECTSTRUCT@@@Z ENDP	; CNewPVP::IsSelfDefense
_TEXT	ENDS
PUBLIC	?IsGuildWar@CNewPVP@@QAEHPAUOBJECTSTRUCT@@@Z	; CNewPVP::IsGuildWar
; Function compile flags: /Ogtp
;	COMDAT ?IsGuildWar@CNewPVP@@QAEHPAUOBJECTSTRUCT@@@Z
_TEXT	SEGMENT
_lpObj$ = 8						; size = 4
?IsGuildWar@CNewPVP@@QAEHPAUOBJECTSTRUCT@@@Z PROC	; CNewPVP::IsGuildWar, COMDAT
; _this$ = ecx

; 1170 : {

  00000	55		 push	 ebp
  00001	8b ec		 mov	 ebp, esp

; 1171 : 	if( lpObj->lpGuild && 
; 1172 : 		lpObj->lpGuild->WarState == 1)

  00003	8b 45 08	 mov	 eax, DWORD PTR _lpObj$[ebp]
  00006	8b 80 18 06 00
	00		 mov	 eax, DWORD PTR [eax+1560]
  0000c	85 c0		 test	 eax, eax
  0000e	74 12		 je	 SHORT $LN1@IsGuildWar
  00010	80 b8 91 05 00
	00 01		 cmp	 BYTE PTR [eax+1425], 1
  00017	75 09		 jne	 SHORT $LN1@IsGuildWar

; 1173 : 	{
; 1174 : 		return TRUE;

  00019	b8 01 00 00 00	 mov	 eax, 1

; 1177 : }

  0001e	5d		 pop	 ebp
  0001f	c2 04 00	 ret	 4
$LN1@IsGuildWar:

; 1175 : 	}
; 1176 : 	return FALSE;

  00022	33 c0		 xor	 eax, eax

; 1177 : }

  00024	5d		 pop	 ebp
  00025	c2 04 00	 ret	 4
?IsGuildWar@CNewPVP@@QAEHPAUOBJECTSTRUCT@@@Z ENDP	; CNewPVP::IsGuildWar
_TEXT	ENDS
PUBLIC	??_C@_0BA@GDKKLCIG@m_bNewPVP?$DN?$DNTRUE?$AA@	; `string'
PUBLIC	??_C@_0CA@BKIKBOHB@IsVulcanusMap?$CIlpObj?9?$DOMapNumber?$CJ?$AA@ ; `string'
PUBLIC	??_C@_05MAJJAKPI@FALSE?$AA@			; `string'
PUBLIC	?DropItem@CNewPVP@@QAEHPAUOBJECTSTRUCT@@EEEH@Z	; CNewPVP::DropItem
EXTRN	?OpenSpecial@EventItemBagManager@@QAEEEHHEE@Z:PROC ; EventItemBagManager::OpenSpecial
EXTRN	?g_EventItemBagManager@@3VEventItemBagManager@@A:BYTE ; g_EventItemBagManager
EXTRN	?gObjGetTotalValueOfEffect@@YAHPAUOBJECTSTRUCT@@H@Z:PROC ; gObjGetTotalValueOfEffect
;	COMDAT ??_C@_0BA@GDKKLCIG@m_bNewPVP?$DN?$DNTRUE?$AA@
; File c:\muserver_dev\development\mu-s8ep2-repack\gameserver\source\newpvp.h
CONST	SEGMENT
??_C@_0BA@GDKKLCIG@m_bNewPVP?$DN?$DNTRUE?$AA@ DB 'm_bNewPVP==TRUE', 00H ; `string'
CONST	ENDS
;	COMDAT ??_C@_0CA@BKIKBOHB@IsVulcanusMap?$CIlpObj?9?$DOMapNumber?$CJ?$AA@
CONST	SEGMENT
??_C@_0CA@BKIKBOHB@IsVulcanusMap?$CIlpObj?9?$DOMapNumber?$CJ?$AA@ DB 'IsV'
	DB	'ulcanusMap(lpObj->MapNumber)', 00H		; `string'
CONST	ENDS
;	COMDAT ??_C@_05MAJJAKPI@FALSE?$AA@
CONST	SEGMENT
??_C@_05MAJJAKPI@FALSE?$AA@ DB 'FALSE', 00H		; `string'
; Function compile flags: /Ogtp
; File c:\muserver_dev\development\mu-s8ep2-repack\gameserver\source\newpvp.cpp
CONST	ENDS
;	COMDAT ?DropItem@CNewPVP@@QAEHPAUOBJECTSTRUCT@@EEEH@Z
_TEXT	SEGMENT
_lpObj$ = 8						; size = 4
_btMapNumber$ = 12					; size = 1
_cX$ = 16						; size = 1
_cY$ = 20						; size = 1
_nMaxHitUser$ = 24					; size = 4
?DropItem@CNewPVP@@QAEHPAUOBJECTSTRUCT@@EEEH@Z PROC	; CNewPVP::DropItem, COMDAT
; _this$ = ecx

; 1181 : {

  00000	55		 push	 ebp
  00001	8b ec		 mov	 ebp, esp
  00003	56		 push	 esi

; 1182 : 	if( !IsVulcanusMap(lpObj->MapNumber) ){ LogAddTD("%s\t%s\t%s\t%s\t%d","IsVulcanusMap(lpObj->MapNumber)","FALSE","NULL",__FILE__,  __LINE__); return FALSE; }

  00004	8b 75 08	 mov	 esi, DWORD PTR _lpObj$[ebp]
  00007	80 be 23 01 00
	00 3f		 cmp	 BYTE PTR [esi+291], 63	; 0000003fH
  0000e	74 2e		 je	 SHORT $LN4@DropItem
  00010	68 9e 04 00 00	 push	 1182			; 0000049eH
  00015	68 00 00 00 00	 push	 OFFSET ??_C@_0L@IGELOCEA@NewPVP?4cpp?$AA@
  0001a	68 00 00 00 00	 push	 OFFSET ??_C@_04HIBGFPH@NULL?$AA@
  0001f	68 00 00 00 00	 push	 OFFSET ??_C@_05MAJJAKPI@FALSE?$AA@
  00024	68 00 00 00 00	 push	 OFFSET ??_C@_0CA@BKIKBOHB@IsVulcanusMap?$CIlpObj?9?$DOMapNumber?$CJ?$AA@
$LN9@DropItem:
  00029	68 00 00 00 00	 push	 OFFSET ??_C@_0P@ENJPCMFP@?$CFs?7?$CFs?7?$CFs?7?$CFs?7?$CFd?$AA@
  0002e	ff 15 00 00 00
	00		 call	 DWORD PTR ?LogAddTD@@3P6AXPADZZA ; LogAddTD
  00034	83 c4 18	 add	 esp, 24			; 00000018H
$LN10@DropItem:
  00037	33 c0		 xor	 eax, eax
  00039	5e		 pop	 esi

; 1189 : }

  0003a	5d		 pop	 ebp
  0003b	c2 14 00	 ret	 20			; 00000014H
$LN4@DropItem:

; 1183 : 	if(m_bNewPVP != TRUE){ LogAddTD("%s\t%s\t%s\t%s\t%d","m_bNewPVP==TRUE","FALSE","NULL", __FILE__,  __LINE__); return FALSE; }

  0003e	83 79 04 01	 cmp	 DWORD PTR [ecx+4], 1
  00042	74 1b		 je	 SHORT $LN3@DropItem
  00044	68 9f 04 00 00	 push	 1183			; 0000049fH
  00049	68 00 00 00 00	 push	 OFFSET ??_C@_0L@IGELOCEA@NewPVP?4cpp?$AA@
  0004e	68 00 00 00 00	 push	 OFFSET ??_C@_04HIBGFPH@NULL?$AA@
  00053	68 00 00 00 00	 push	 OFFSET ??_C@_05MAJJAKPI@FALSE?$AA@
  00058	68 00 00 00 00	 push	 OFFSET ??_C@_0BA@GDKKLCIG@m_bNewPVP?$DN?$DNTRUE?$AA@
  0005d	eb ca		 jmp	 SHORT $LN9@DropItem
$LN3@DropItem:

; 1184 : 	if( !gObjCheckUsedBuffEffect(lpObj, 103) )	return FALSE;

  0005f	6a 67		 push	 103			; 00000067H
  00061	56		 push	 esi
  00062	e8 00 00 00 00	 call	 ?gObjCheckUsedBuffEffect@@YA_NPAUOBJECTSTRUCT@@H@Z ; gObjCheckUsedBuffEffect
  00067	83 c4 08	 add	 esp, 8
  0006a	84 c0		 test	 al, al
  0006c	74 c9		 je	 SHORT $LN10@DropItem

; 1185 : 	if( !gObjGetTotalValueOfEffect(lpObj, 60) )	return FALSE;

  0006e	6a 3c		 push	 60			; 0000003cH
  00070	56		 push	 esi
  00071	e8 00 00 00 00	 call	 ?gObjGetTotalValueOfEffect@@YAHPAUOBJECTSTRUCT@@H@Z ; gObjGetTotalValueOfEffect
  00076	83 c4 08	 add	 esp, 8
  00079	85 c0		 test	 eax, eax
  0007b	74 ba		 je	 SHORT $LN10@DropItem

; 1186 : 
; 1187 : 	g_EventItemBagManager.OpenSpecial(EventBagSpecial::DuelArena, lpObj->m_Index, btMapNumber, cX, cY);

  0007d	8b 45 14	 mov	 eax, DWORD PTR _cY$[ebp]
  00080	8b 4d 10	 mov	 ecx, DWORD PTR _cX$[ebp]
  00083	0f b6 55 0c	 movzx	 edx, BYTE PTR _btMapNumber$[ebp]
  00087	50		 push	 eax
  00088	8b 06		 mov	 eax, DWORD PTR [esi]
  0008a	51		 push	 ecx
  0008b	52		 push	 edx
  0008c	50		 push	 eax
  0008d	6a 1e		 push	 30			; 0000001eH
  0008f	b9 00 00 00 00	 mov	 ecx, OFFSET ?g_EventItemBagManager@@3VEventItemBagManager@@A ; g_EventItemBagManager
  00094	e8 00 00 00 00	 call	 ?OpenSpecial@EventItemBagManager@@QAEEEHHEE@Z ; EventItemBagManager::OpenSpecial

; 1188 : 	return TRUE;

  00099	b8 01 00 00 00	 mov	 eax, 1
  0009e	5e		 pop	 esi

; 1189 : }

  0009f	5d		 pop	 ebp
  000a0	c2 14 00	 ret	 20			; 00000014H
?DropItem@CNewPVP@@QAEHPAUOBJECTSTRUCT@@EEEH@Z ENDP	; CNewPVP::DropItem
_TEXT	ENDS
PUBLIC	__$ArrayPad$
PUBLIC	?GCServerMsgStringSendEx@@YAXHEPADZZ		; GCServerMsgStringSendEx
EXTRN	?GCServerMsgStringSend@@YAXPADHE@Z:PROC		; GCServerMsgStringSend
; Function compile flags: /Ogtp
;	COMDAT ?GCServerMsgStringSendEx@@YAXHEPADZZ
_TEXT	SEGMENT
_szTmp$ = -516						; size = 512
__$ArrayPad$ = -4					; size = 4
_aIndex$ = 8						; size = 4
_type$ = 12						; size = 1
_szFormat$ = 16						; size = 4
?GCServerMsgStringSendEx@@YAXHEPADZZ PROC		; GCServerMsgStringSendEx, COMDAT

; 1192 : {

  00000	55		 push	 ebp
  00001	8b ec		 mov	 ebp, esp
  00003	81 ec 04 02 00
	00		 sub	 esp, 516		; 00000204H
  00009	a1 00 00 00 00	 mov	 eax, DWORD PTR ___security_cookie
  0000e	33 c5		 xor	 eax, ebp
  00010	89 45 fc	 mov	 DWORD PTR __$ArrayPad$[ebp], eax

; 1193 : 	char szTmp[512];
; 1194 : 
; 1195 : 	va_list arglist;
; 1196 : 	va_start(arglist, szFormat);
; 1197 : 	vsprintf(szTmp, szFormat, arglist);

  00013	8b 4d 10	 mov	 ecx, DWORD PTR _szFormat$[ebp]
  00016	8d 45 14	 lea	 eax, DWORD PTR _szFormat$[ebp+4]
  00019	50		 push	 eax
  0001a	51		 push	 ecx
  0001b	8d 95 fc fd ff
	ff		 lea	 edx, DWORD PTR _szTmp$[ebp]
  00021	52		 push	 edx
  00022	e8 00 00 00 00	 call	 _vsprintf

; 1198 : 	va_end(arglist);
; 1199 : 
; 1200 : 	GCServerMsgStringSend(szTmp, aIndex, type);

  00027	8b 45 0c	 mov	 eax, DWORD PTR _type$[ebp]
  0002a	8b 4d 08	 mov	 ecx, DWORD PTR _aIndex$[ebp]
  0002d	50		 push	 eax
  0002e	51		 push	 ecx
  0002f	8d 95 fc fd ff
	ff		 lea	 edx, DWORD PTR _szTmp$[ebp]
  00035	52		 push	 edx
  00036	e8 00 00 00 00	 call	 ?GCServerMsgStringSend@@YAXPADHE@Z ; GCServerMsgStringSend

; 1201 : }

  0003b	8b 4d fc	 mov	 ecx, DWORD PTR __$ArrayPad$[ebp]
  0003e	33 cd		 xor	 ecx, ebp
  00040	83 c4 18	 add	 esp, 24			; 00000018H
  00043	e8 00 00 00 00	 call	 @__security_check_cookie@4
  00048	8b e5		 mov	 esp, ebp
  0004a	5d		 pop	 ebp
  0004b	c3		 ret	 0
?GCServerMsgStringSendEx@@YAXHEPADZZ ENDP		; GCServerMsgStringSendEx
_TEXT	ENDS
PUBLIC	??8?$_Tree_const_iterator@V?$_Tree_val@V?$_Tmap_traits@HU_tagObserverInfo@@U?$less@H@std@@V?$allocator@U?$pair@$$CBHU_tagObserverInfo@@@std@@@3@$0A@@std@@@std@@@std@@QBE_NABV01@@Z ; std::_Tree_const_iterator<std::_Tree_val<std::_Tmap_traits<int,_tagObserverInfo,std::less<int>,std::allocator<std::pair<int const ,_tagObserverInfo> >,0> > >::operator==
; Function compile flags: /Ogtp
; File c:\program files (x86)\microsoft visual studio 10.0\vc\include\xtree
;	COMDAT ??8?$_Tree_const_iterator@V?$_Tree_val@V?$_Tmap_traits@HU_tagObserverInfo@@U?$less@H@std@@V?$allocator@U?$pair@$$CBHU_tagObserverInfo@@@std@@@3@$0A@@std@@@std@@@std@@QBE_NABV01@@Z
_TEXT	SEGMENT
__Right$ = 8						; size = 4
??8?$_Tree_const_iterator@V?$_Tree_val@V?$_Tmap_traits@HU_tagObserverInfo@@U?$less@H@std@@V?$allocator@U?$pair@$$CBHU_tagObserverInfo@@@std@@@3@$0A@@std@@@std@@@std@@QBE_NABV01@@Z PROC ; std::_Tree_const_iterator<std::_Tree_val<std::_Tmap_traits<int,_tagObserverInfo,std::less<int>,std::allocator<std::pair<int const ,_tagObserverInfo> >,0> > >::operator==, COMDAT
; _this$ = ecx

; 316  : 		{	// test for iterator equality

  00000	55		 push	 ebp
  00001	8b ec		 mov	 ebp, esp

; 317  :  #if _ITERATOR_DEBUG_LEVEL == 2
; 318  : 		if (this->_Getcont() == 0
; 319  : 			|| this->_Getcont() != _Right._Getcont())
; 320  : 			{	// report error
; 321  : 			_DEBUG_ERROR("map/set iterators incompatible");
; 322  : 			_SCL_SECURE_INVALID_ARGUMENT;
; 323  : 			}
; 324  : 
; 325  :  #elif _ITERATOR_DEBUG_LEVEL == 1
; 326  : 		_SCL_SECURE_VALIDATE(this->_Getcont() != 0
; 327  : 			&& this->_Getcont() == _Right._Getcont());
; 328  :  #endif /* _ITERATOR_DEBUG_LEVEL */
; 329  : 
; 330  : 		return (this->_Ptr == _Right._Ptr);

  00003	8b 01		 mov	 eax, DWORD PTR [ecx]
  00005	8b 55 08	 mov	 edx, DWORD PTR __Right$[ebp]
  00008	33 c9		 xor	 ecx, ecx
  0000a	3b 02		 cmp	 eax, DWORD PTR [edx]
  0000c	0f 94 c0	 sete	 al

; 331  : 		}

  0000f	5d		 pop	 ebp
  00010	c2 04 00	 ret	 4
??8?$_Tree_const_iterator@V?$_Tree_val@V?$_Tmap_traits@HU_tagObserverInfo@@U?$less@H@std@@V?$allocator@U?$pair@$$CBHU_tagObserverInfo@@@std@@@3@$0A@@std@@@std@@@std@@QBE_NABV01@@Z ENDP ; std::_Tree_const_iterator<std::_Tree_val<std::_Tmap_traits<int,_tagObserverInfo,std::less<int>,std::allocator<std::pair<int const ,_tagObserverInfo> >,0> > >::operator==
_TEXT	ENDS
PUBLIC	??9?$_Tree_const_iterator@V?$_Tree_val@V?$_Tmap_traits@HU_tagObserverInfo@@U?$less@H@std@@V?$allocator@U?$pair@$$CBHU_tagObserverInfo@@@std@@@3@$0A@@std@@@std@@@std@@QBE_NABV01@@Z ; std::_Tree_const_iterator<std::_Tree_val<std::_Tmap_traits<int,_tagObserverInfo,std::less<int>,std::allocator<std::pair<int const ,_tagObserverInfo> >,0> > >::operator!=
; Function compile flags: /Ogtp
;	COMDAT ??9?$_Tree_const_iterator@V?$_Tree_val@V?$_Tmap_traits@HU_tagObserverInfo@@U?$less@H@std@@V?$allocator@U?$pair@$$CBHU_tagObserverInfo@@@std@@@3@$0A@@std@@@std@@@std@@QBE_NABV01@@Z
_TEXT	SEGMENT
__Right$ = 8						; size = 4
??9?$_Tree_const_iterator@V?$_Tree_val@V?$_Tmap_traits@HU_tagObserverInfo@@U?$less@H@std@@V?$allocator@U?$pair@$$CBHU_tagObserverInfo@@@std@@@3@$0A@@std@@@std@@@std@@QBE_NABV01@@Z PROC ; std::_Tree_const_iterator<std::_Tree_val<std::_Tmap_traits<int,_tagObserverInfo,std::less<int>,std::allocator<std::pair<int const ,_tagObserverInfo> >,0> > >::operator!=, COMDAT
; _this$ = ecx

; 334  : 		{	// test for iterator inequality

  00000	55		 push	 ebp
  00001	8b ec		 mov	 ebp, esp

; 335  : 		return (!(*this == _Right));

  00003	8b 01		 mov	 eax, DWORD PTR [ecx]
  00005	8b 55 08	 mov	 edx, DWORD PTR __Right$[ebp]
  00008	33 c9		 xor	 ecx, ecx
  0000a	3b 02		 cmp	 eax, DWORD PTR [edx]
  0000c	0f 95 c0	 setne	 al

; 336  : 		}

  0000f	5d		 pop	 ebp
  00010	c2 04 00	 ret	 4
??9?$_Tree_const_iterator@V?$_Tree_val@V?$_Tmap_traits@HU_tagObserverInfo@@U?$less@H@std@@V?$allocator@U?$pair@$$CBHU_tagObserverInfo@@@std@@@3@$0A@@std@@@std@@@std@@QBE_NABV01@@Z ENDP ; std::_Tree_const_iterator<std::_Tree_val<std::_Tmap_traits<int,_tagObserverInfo,std::less<int>,std::allocator<std::pair<int const ,_tagObserverInfo> >,0> > >::operator!=
_TEXT	ENDS
PUBLIC	??R?$less@H@std@@QBE_NABH0@Z			; std::less<int>::operator()
; Function compile flags: /Ogtp
; File c:\program files (x86)\microsoft visual studio 10.0\vc\include\xfunctional
;	COMDAT ??R?$less@H@std@@QBE_NABH0@Z
_TEXT	SEGMENT
__Left$ = 8						; size = 4
__Right$ = 12						; size = 4
??R?$less@H@std@@QBE_NABH0@Z PROC			; std::less<int>::operator(), COMDAT
; _this$ = ecx

; 124  : 		{	// apply operator< to operands

  00000	55		 push	 ebp
  00001	8b ec		 mov	 ebp, esp

; 125  : 		return (_Left < _Right);

  00003	8b 45 08	 mov	 eax, DWORD PTR __Left$[ebp]
  00006	8b 08		 mov	 ecx, DWORD PTR [eax]
  00008	8b 55 0c	 mov	 edx, DWORD PTR __Right$[ebp]
  0000b	33 c0		 xor	 eax, eax
  0000d	3b 0a		 cmp	 ecx, DWORD PTR [edx]
  0000f	0f 9c c0	 setl	 al

; 126  : 		}

  00012	5d		 pop	 ebp
  00013	c2 08 00	 ret	 8
??R?$less@H@std@@QBE_NABH0@Z ENDP			; std::less<int>::operator()
_TEXT	ENDS
PUBLIC	?_Color@?$_Tree_val@V?$_Tmap_traits@HU_tagWaiting@@U?$less@H@std@@V?$allocator@U?$pair@$$CBHU_tagWaiting@@@std@@@3@$0A@@std@@@std@@SAAADPAU_Node@?$_Tree_nod@V?$_Tmap_traits@HU_tagWaiting@@U?$less@H@std@@V?$allocator@U?$pair@$$CBHU_tagWaiting@@@std@@@3@$0A@@std@@@2@@Z ; std::_Tree_val<std::_Tmap_traits<int,_tagWaiting,std::less<int>,std::allocator<std::pair<int const ,_tagWaiting> >,0> >::_Color
; Function compile flags: /Ogtp
; File c:\program files (x86)\microsoft visual studio 10.0\vc\include\xtree
;	COMDAT ?_Color@?$_Tree_val@V?$_Tmap_traits@HU_tagWaiting@@U?$less@H@std@@V?$allocator@U?$pair@$$CBHU_tagWaiting@@@std@@@3@$0A@@std@@@std@@SAAADPAU_Node@?$_Tree_nod@V?$_Tmap_traits@HU_tagWaiting@@U?$less@H@std@@V?$allocator@U?$pair@$$CBHU_tagWaiting@@@std@@@3@$0A@@std@@@2@@Z
_TEXT	SEGMENT
__Pnode$ = 8						; size = 4
?_Color@?$_Tree_val@V?$_Tmap_traits@HU_tagWaiting@@U?$less@H@std@@V?$allocator@U?$pair@$$CBHU_tagWaiting@@@std@@@3@$0A@@std@@@std@@SAAADPAU_Node@?$_Tree_nod@V?$_Tmap_traits@HU_tagWaiting@@U?$less@H@std@@V?$allocator@U?$pair@$$CBHU_tagWaiting@@@std@@@3@$0A@@std@@@2@@Z PROC ; std::_Tree_val<std::_Tmap_traits<int,_tagWaiting,std::less<int>,std::allocator<std::pair<int const ,_tagWaiting> >,0> >::_Color, COMDAT

; 606  : 		{	// return reference to color in node

  00000	55		 push	 ebp
  00001	8b ec		 mov	 ebp, esp

; 607  : 		return ((char&)(*_Pnode)._Color);

  00003	8b 45 08	 mov	 eax, DWORD PTR __Pnode$[ebp]
  00006	83 c0 20	 add	 eax, 32			; 00000020H

; 608  : 		}

  00009	5d		 pop	 ebp
  0000a	c3		 ret	 0
?_Color@?$_Tree_val@V?$_Tmap_traits@HU_tagWaiting@@U?$less@H@std@@V?$allocator@U?$pair@$$CBHU_tagWaiting@@@std@@@3@$0A@@std@@@std@@SAAADPAU_Node@?$_Tree_nod@V?$_Tmap_traits@HU_tagWaiting@@U?$less@H@std@@V?$allocator@U?$pair@$$CBHU_tagWaiting@@@std@@@3@$0A@@std@@@2@@Z ENDP ; std::_Tree_val<std::_Tmap_traits<int,_tagWaiting,std::less<int>,std::allocator<std::pair<int const ,_tagWaiting> >,0> >::_Color
_TEXT	ENDS
PUBLIC	?_Isnil@?$_Tree_val@V?$_Tmap_traits@HU_tagWaiting@@U?$less@H@std@@V?$allocator@U?$pair@$$CBHU_tagWaiting@@@std@@@3@$0A@@std@@@std@@SAAADPAU_Node@?$_Tree_nod@V?$_Tmap_traits@HU_tagWaiting@@U?$less@H@std@@V?$allocator@U?$pair@$$CBHU_tagWaiting@@@std@@@3@$0A@@std@@@2@@Z ; std::_Tree_val<std::_Tmap_traits<int,_tagWaiting,std::less<int>,std::allocator<std::pair<int const ,_tagWaiting> >,0> >::_Isnil
; Function compile flags: /Ogtp
;	COMDAT ?_Isnil@?$_Tree_val@V?$_Tmap_traits@HU_tagWaiting@@U?$less@H@std@@V?$allocator@U?$pair@$$CBHU_tagWaiting@@@std@@@3@$0A@@std@@@std@@SAAADPAU_Node@?$_Tree_nod@V?$_Tmap_traits@HU_tagWaiting@@U?$less@H@std@@V?$allocator@U?$pair@$$CBHU_tagWaiting@@@std@@@3@$0A@@std@@@2@@Z
_TEXT	SEGMENT
__Pnode$ = 8						; size = 4
?_Isnil@?$_Tree_val@V?$_Tmap_traits@HU_tagWaiting@@U?$less@H@std@@V?$allocator@U?$pair@$$CBHU_tagWaiting@@@std@@@3@$0A@@std@@@std@@SAAADPAU_Node@?$_Tree_nod@V?$_Tmap_traits@HU_tagWaiting@@U?$less@H@std@@V?$allocator@U?$pair@$$CBHU_tagWaiting@@@std@@@3@$0A@@std@@@2@@Z PROC ; std::_Tree_val<std::_Tmap_traits<int,_tagWaiting,std::less<int>,std::allocator<std::pair<int const ,_tagWaiting> >,0> >::_Isnil, COMDAT

; 611  : 		{	// return reference to nil flag in node

  00000	55		 push	 ebp
  00001	8b ec		 mov	 ebp, esp

; 612  : 		return ((char&)(*_Pnode)._Isnil);

  00003	8b 45 08	 mov	 eax, DWORD PTR __Pnode$[ebp]
  00006	83 c0 21	 add	 eax, 33			; 00000021H

; 613  : 		}

  00009	5d		 pop	 ebp
  0000a	c3		 ret	 0
?_Isnil@?$_Tree_val@V?$_Tmap_traits@HU_tagWaiting@@U?$less@H@std@@V?$allocator@U?$pair@$$CBHU_tagWaiting@@@std@@@3@$0A@@std@@@std@@SAAADPAU_Node@?$_Tree_nod@V?$_Tmap_traits@HU_tagWaiting@@U?$less@H@std@@V?$allocator@U?$pair@$$CBHU_tagWaiting@@@std@@@3@$0A@@std@@@2@@Z ENDP ; std::_Tree_val<std::_Tmap_traits<int,_tagWaiting,std::less<int>,std::allocator<std::pair<int const ,_tagWaiting> >,0> >::_Isnil
_TEXT	ENDS
PUBLIC	?_Left@?$_Tree_val@V?$_Tmap_traits@HU_tagWaiting@@U?$less@H@std@@V?$allocator@U?$pair@$$CBHU_tagWaiting@@@std@@@3@$0A@@std@@@std@@SAAAPAU_Node@?$_Tree_nod@V?$_Tmap_traits@HU_tagWaiting@@U?$less@H@std@@V?$allocator@U?$pair@$$CBHU_tagWaiting@@@std@@@3@$0A@@std@@@2@PAU342@@Z ; std::_Tree_val<std::_Tmap_traits<int,_tagWaiting,std::less<int>,std::allocator<std::pair<int const ,_tagWaiting> >,0> >::_Left
; Function compile flags: /Ogtp
;	COMDAT ?_Left@?$_Tree_val@V?$_Tmap_traits@HU_tagWaiting@@U?$less@H@std@@V?$allocator@U?$pair@$$CBHU_tagWaiting@@@std@@@3@$0A@@std@@@std@@SAAAPAU_Node@?$_Tree_nod@V?$_Tmap_traits@HU_tagWaiting@@U?$less@H@std@@V?$allocator@U?$pair@$$CBHU_tagWaiting@@@std@@@3@$0A@@std@@@2@PAU342@@Z
_TEXT	SEGMENT
__Pnode$ = 8						; size = 4
?_Left@?$_Tree_val@V?$_Tmap_traits@HU_tagWaiting@@U?$less@H@std@@V?$allocator@U?$pair@$$CBHU_tagWaiting@@@std@@@3@$0A@@std@@@std@@SAAAPAU_Node@?$_Tree_nod@V?$_Tmap_traits@HU_tagWaiting@@U?$less@H@std@@V?$allocator@U?$pair@$$CBHU_tagWaiting@@@std@@@3@$0A@@std@@@2@PAU342@@Z PROC ; std::_Tree_val<std::_Tmap_traits<int,_tagWaiting,std::less<int>,std::allocator<std::pair<int const ,_tagWaiting> >,0> >::_Left, COMDAT

; 621  : 		{	// return reference to left pointer in node

  00000	55		 push	 ebp
  00001	8b ec		 mov	 ebp, esp

; 622  : 		return ((_Nodepref)(*_Pnode)._Left);

  00003	8b 45 08	 mov	 eax, DWORD PTR __Pnode$[ebp]

; 623  : 		}

  00006	5d		 pop	 ebp
  00007	c3		 ret	 0
?_Left@?$_Tree_val@V?$_Tmap_traits@HU_tagWaiting@@U?$less@H@std@@V?$allocator@U?$pair@$$CBHU_tagWaiting@@@std@@@3@$0A@@std@@@std@@SAAAPAU_Node@?$_Tree_nod@V?$_Tmap_traits@HU_tagWaiting@@U?$less@H@std@@V?$allocator@U?$pair@$$CBHU_tagWaiting@@@std@@@3@$0A@@std@@@2@PAU342@@Z ENDP ; std::_Tree_val<std::_Tmap_traits<int,_tagWaiting,std::less<int>,std::allocator<std::pair<int const ,_tagWaiting> >,0> >::_Left
_TEXT	ENDS
PUBLIC	?_Parent@?$_Tree_val@V?$_Tmap_traits@HU_tagWaiting@@U?$less@H@std@@V?$allocator@U?$pair@$$CBHU_tagWaiting@@@std@@@3@$0A@@std@@@std@@SAAAPAU_Node@?$_Tree_nod@V?$_Tmap_traits@HU_tagWaiting@@U?$less@H@std@@V?$allocator@U?$pair@$$CBHU_tagWaiting@@@std@@@3@$0A@@std@@@2@PAU342@@Z ; std::_Tree_val<std::_Tmap_traits<int,_tagWaiting,std::less<int>,std::allocator<std::pair<int const ,_tagWaiting> >,0> >::_Parent
; Function compile flags: /Ogtp
;	COMDAT ?_Parent@?$_Tree_val@V?$_Tmap_traits@HU_tagWaiting@@U?$less@H@std@@V?$allocator@U?$pair@$$CBHU_tagWaiting@@@std@@@3@$0A@@std@@@std@@SAAAPAU_Node@?$_Tree_nod@V?$_Tmap_traits@HU_tagWaiting@@U?$less@H@std@@V?$allocator@U?$pair@$$CBHU_tagWaiting@@@std@@@3@$0A@@std@@@2@PAU342@@Z
_TEXT	SEGMENT
__Pnode$ = 8						; size = 4
?_Parent@?$_Tree_val@V?$_Tmap_traits@HU_tagWaiting@@U?$less@H@std@@V?$allocator@U?$pair@$$CBHU_tagWaiting@@@std@@@3@$0A@@std@@@std@@SAAAPAU_Node@?$_Tree_nod@V?$_Tmap_traits@HU_tagWaiting@@U?$less@H@std@@V?$allocator@U?$pair@$$CBHU_tagWaiting@@@std@@@3@$0A@@std@@@2@PAU342@@Z PROC ; std::_Tree_val<std::_Tmap_traits<int,_tagWaiting,std::less<int>,std::allocator<std::pair<int const ,_tagWaiting> >,0> >::_Parent, COMDAT

; 626  : 		{	// return reference to parent pointer in node

  00000	55		 push	 ebp
  00001	8b ec		 mov	 ebp, esp

; 627  : 		return ((_Nodepref)(*_Pnode)._Parent);

  00003	8b 45 08	 mov	 eax, DWORD PTR __Pnode$[ebp]
  00006	83 c0 04	 add	 eax, 4

; 628  : 		}

  00009	5d		 pop	 ebp
  0000a	c3		 ret	 0
?_Parent@?$_Tree_val@V?$_Tmap_traits@HU_tagWaiting@@U?$less@H@std@@V?$allocator@U?$pair@$$CBHU_tagWaiting@@@std@@@3@$0A@@std@@@std@@SAAAPAU_Node@?$_Tree_nod@V?$_Tmap_traits@HU_tagWaiting@@U?$less@H@std@@V?$allocator@U?$pair@$$CBHU_tagWaiting@@@std@@@3@$0A@@std@@@2@PAU342@@Z ENDP ; std::_Tree_val<std::_Tmap_traits<int,_tagWaiting,std::less<int>,std::allocator<std::pair<int const ,_tagWaiting> >,0> >::_Parent
_TEXT	ENDS
PUBLIC	?_Right@?$_Tree_val@V?$_Tmap_traits@HU_tagWaiting@@U?$less@H@std@@V?$allocator@U?$pair@$$CBHU_tagWaiting@@@std@@@3@$0A@@std@@@std@@SAAAPAU_Node@?$_Tree_nod@V?$_Tmap_traits@HU_tagWaiting@@U?$less@H@std@@V?$allocator@U?$pair@$$CBHU_tagWaiting@@@std@@@3@$0A@@std@@@2@PAU342@@Z ; std::_Tree_val<std::_Tmap_traits<int,_tagWaiting,std::less<int>,std::allocator<std::pair<int const ,_tagWaiting> >,0> >::_Right
; Function compile flags: /Ogtp
;	COMDAT ?_Right@?$_Tree_val@V?$_Tmap_traits@HU_tagWaiting@@U?$less@H@std@@V?$allocator@U?$pair@$$CBHU_tagWaiting@@@std@@@3@$0A@@std@@@std@@SAAAPAU_Node@?$_Tree_nod@V?$_Tmap_traits@HU_tagWaiting@@U?$less@H@std@@V?$allocator@U?$pair@$$CBHU_tagWaiting@@@std@@@3@$0A@@std@@@2@PAU342@@Z
_TEXT	SEGMENT
__Pnode$ = 8						; size = 4
?_Right@?$_Tree_val@V?$_Tmap_traits@HU_tagWaiting@@U?$less@H@std@@V?$allocator@U?$pair@$$CBHU_tagWaiting@@@std@@@3@$0A@@std@@@std@@SAAAPAU_Node@?$_Tree_nod@V?$_Tmap_traits@HU_tagWaiting@@U?$less@H@std@@V?$allocator@U?$pair@$$CBHU_tagWaiting@@@std@@@3@$0A@@std@@@2@PAU342@@Z PROC ; std::_Tree_val<std::_Tmap_traits<int,_tagWaiting,std::less<int>,std::allocator<std::pair<int const ,_tagWaiting> >,0> >::_Right, COMDAT

; 631  : 		{	// return reference to right pointer in node

  00000	55		 push	 ebp
  00001	8b ec		 mov	 ebp, esp

; 632  : 		return ((_Nodepref)(*_Pnode)._Right);

  00003	8b 45 08	 mov	 eax, DWORD PTR __Pnode$[ebp]
  00006	83 c0 08	 add	 eax, 8

; 633  : 		}

  00009	5d		 pop	 ebp
  0000a	c3		 ret	 0
?_Right@?$_Tree_val@V?$_Tmap_traits@HU_tagWaiting@@U?$less@H@std@@V?$allocator@U?$pair@$$CBHU_tagWaiting@@@std@@@3@$0A@@std@@@std@@SAAAPAU_Node@?$_Tree_nod@V?$_Tmap_traits@HU_tagWaiting@@U?$less@H@std@@V?$allocator@U?$pair@$$CBHU_tagWaiting@@@std@@@3@$0A@@std@@@2@PAU342@@Z ENDP ; std::_Tree_val<std::_Tmap_traits<int,_tagWaiting,std::less<int>,std::allocator<std::pair<int const ,_tagWaiting> >,0> >::_Right
_TEXT	ENDS
PUBLIC	?_Myval@?$_Tree_val@V?$_Tmap_traits@HU_tagWaiting@@U?$less@H@std@@V?$allocator@U?$pair@$$CBHU_tagWaiting@@@std@@@3@$0A@@std@@@std@@SAAAU?$pair@$$CBHU_tagWaiting@@@2@PAU_Node@?$_Tree_nod@V?$_Tmap_traits@HU_tagWaiting@@U?$less@H@std@@V?$allocator@U?$pair@$$CBHU_tagWaiting@@@std@@@3@$0A@@std@@@2@@Z ; std::_Tree_val<std::_Tmap_traits<int,_tagWaiting,std::less<int>,std::allocator<std::pair<int const ,_tagWaiting> >,0> >::_Myval
; Function compile flags: /Ogtp
;	COMDAT ?_Myval@?$_Tree_val@V?$_Tmap_traits@HU_tagWaiting@@U?$less@H@std@@V?$allocator@U?$pair@$$CBHU_tagWaiting@@@std@@@3@$0A@@std@@@std@@SAAAU?$pair@$$CBHU_tagWaiting@@@2@PAU_Node@?$_Tree_nod@V?$_Tmap_traits@HU_tagWaiting@@U?$less@H@std@@V?$allocator@U?$pair@$$CBHU_tagWaiting@@@std@@@3@$0A@@std@@@2@@Z
_TEXT	SEGMENT
__Pnode$ = 8						; size = 4
?_Myval@?$_Tree_val@V?$_Tmap_traits@HU_tagWaiting@@U?$less@H@std@@V?$allocator@U?$pair@$$CBHU_tagWaiting@@@std@@@3@$0A@@std@@@std@@SAAAU?$pair@$$CBHU_tagWaiting@@@2@PAU_Node@?$_Tree_nod@V?$_Tmap_traits@HU_tagWaiting@@U?$less@H@std@@V?$allocator@U?$pair@$$CBHU_tagWaiting@@@std@@@3@$0A@@std@@@2@@Z PROC ; std::_Tree_val<std::_Tmap_traits<int,_tagWaiting,std::less<int>,std::allocator<std::pair<int const ,_tagWaiting> >,0> >::_Myval, COMDAT

; 636  : 		{	// return reference to value in node

  00000	55		 push	 ebp
  00001	8b ec		 mov	 ebp, esp

; 637  : 		return ((reference)(*_Pnode)._Myval);

  00003	8b 45 08	 mov	 eax, DWORD PTR __Pnode$[ebp]
  00006	83 c0 0c	 add	 eax, 12			; 0000000cH

; 638  : 		}

  00009	5d		 pop	 ebp
  0000a	c3		 ret	 0
?_Myval@?$_Tree_val@V?$_Tmap_traits@HU_tagWaiting@@U?$less@H@std@@V?$allocator@U?$pair@$$CBHU_tagWaiting@@@std@@@3@$0A@@std@@@std@@SAAAU?$pair@$$CBHU_tagWaiting@@@2@PAU_Node@?$_Tree_nod@V?$_Tmap_traits@HU_tagWaiting@@U?$less@H@std@@V?$allocator@U?$pair@$$CBHU_tagWaiting@@@std@@@3@$0A@@std@@@2@@Z ENDP ; std::_Tree_val<std::_Tmap_traits<int,_tagWaiting,std::less<int>,std::allocator<std::pair<int const ,_tagWaiting> >,0> >::_Myval
_TEXT	ENDS
PUBLIC	?_Max@?$_Tree_val@V?$_Tmap_traits@HU_tagWaiting@@U?$less@H@std@@V?$allocator@U?$pair@$$CBHU_tagWaiting@@@std@@@3@$0A@@std@@@std@@SAPAU_Node@?$_Tree_nod@V?$_Tmap_traits@HU_tagWaiting@@U?$less@H@std@@V?$allocator@U?$pair@$$CBHU_tagWaiting@@@std@@@3@$0A@@std@@@2@PAU342@@Z ; std::_Tree_val<std::_Tmap_traits<int,_tagWaiting,std::less<int>,std::allocator<std::pair<int const ,_tagWaiting> >,0> >::_Max
; Function compile flags: /Ogtp
;	COMDAT ?_Max@?$_Tree_val@V?$_Tmap_traits@HU_tagWaiting@@U?$less@H@std@@V?$allocator@U?$pair@$$CBHU_tagWaiting@@@std@@@3@$0A@@std@@@std@@SAPAU_Node@?$_Tree_nod@V?$_Tmap_traits@HU_tagWaiting@@U?$less@H@std@@V?$allocator@U?$pair@$$CBHU_tagWaiting@@@std@@@3@$0A@@std@@@2@PAU342@@Z
_TEXT	SEGMENT
__Pnode$ = 8						; size = 4
?_Max@?$_Tree_val@V?$_Tmap_traits@HU_tagWaiting@@U?$less@H@std@@V?$allocator@U?$pair@$$CBHU_tagWaiting@@@std@@@3@$0A@@std@@@std@@SAPAU_Node@?$_Tree_nod@V?$_Tmap_traits@HU_tagWaiting@@U?$less@H@std@@V?$allocator@U?$pair@$$CBHU_tagWaiting@@@std@@@3@$0A@@std@@@2@PAU342@@Z PROC ; std::_Tree_val<std::_Tmap_traits<int,_tagWaiting,std::less<int>,std::allocator<std::pair<int const ,_tagWaiting> >,0> >::_Max, COMDAT

; 641  : 		{	// return rightmost node in subtree at _Pnode

  00000	55		 push	 ebp
  00001	8b ec		 mov	 ebp, esp

; 642  : 		while (!_Isnil(_Right(_Pnode)))

  00003	8b 45 08	 mov	 eax, DWORD PTR __Pnode$[ebp]
  00006	8b 48 08	 mov	 ecx, DWORD PTR [eax+8]
  00009	80 79 21 00	 cmp	 BYTE PTR [ecx+33], 0
  0000d	75 0c		 jne	 SHORT $LN1@Max
  0000f	90		 npad	 1
$LL2@Max:

; 643  : 			_Pnode = _Right(_Pnode);

  00010	8b c1		 mov	 eax, ecx
  00012	8b 48 08	 mov	 ecx, DWORD PTR [eax+8]
  00015	80 79 21 00	 cmp	 BYTE PTR [ecx+33], 0
  00019	74 f5		 je	 SHORT $LL2@Max
$LN1@Max:

; 644  : 		return (_Pnode);
; 645  : 		}

  0001b	5d		 pop	 ebp
  0001c	c3		 ret	 0
?_Max@?$_Tree_val@V?$_Tmap_traits@HU_tagWaiting@@U?$less@H@std@@V?$allocator@U?$pair@$$CBHU_tagWaiting@@@std@@@3@$0A@@std@@@std@@SAPAU_Node@?$_Tree_nod@V?$_Tmap_traits@HU_tagWaiting@@U?$less@H@std@@V?$allocator@U?$pair@$$CBHU_tagWaiting@@@std@@@3@$0A@@std@@@2@PAU342@@Z ENDP ; std::_Tree_val<std::_Tmap_traits<int,_tagWaiting,std::less<int>,std::allocator<std::pair<int const ,_tagWaiting> >,0> >::_Max
_TEXT	ENDS
PUBLIC	?_Min@?$_Tree_val@V?$_Tmap_traits@HU_tagWaiting@@U?$less@H@std@@V?$allocator@U?$pair@$$CBHU_tagWaiting@@@std@@@3@$0A@@std@@@std@@SAPAU_Node@?$_Tree_nod@V?$_Tmap_traits@HU_tagWaiting@@U?$less@H@std@@V?$allocator@U?$pair@$$CBHU_tagWaiting@@@std@@@3@$0A@@std@@@2@PAU342@@Z ; std::_Tree_val<std::_Tmap_traits<int,_tagWaiting,std::less<int>,std::allocator<std::pair<int const ,_tagWaiting> >,0> >::_Min
; Function compile flags: /Ogtp
;	COMDAT ?_Min@?$_Tree_val@V?$_Tmap_traits@HU_tagWaiting@@U?$less@H@std@@V?$allocator@U?$pair@$$CBHU_tagWaiting@@@std@@@3@$0A@@std@@@std@@SAPAU_Node@?$_Tree_nod@V?$_Tmap_traits@HU_tagWaiting@@U?$less@H@std@@V?$allocator@U?$pair@$$CBHU_tagWaiting@@@std@@@3@$0A@@std@@@2@PAU342@@Z
_TEXT	SEGMENT
__Pnode$ = 8						; size = 4
?_Min@?$_Tree_val@V?$_Tmap_traits@HU_tagWaiting@@U?$less@H@std@@V?$allocator@U?$pair@$$CBHU_tagWaiting@@@std@@@3@$0A@@std@@@std@@SAPAU_Node@?$_Tree_nod@V?$_Tmap_traits@HU_tagWaiting@@U?$less@H@std@@V?$allocator@U?$pair@$$CBHU_tagWaiting@@@std@@@3@$0A@@std@@@2@PAU342@@Z PROC ; std::_Tree_val<std::_Tmap_traits<int,_tagWaiting,std::less<int>,std::allocator<std::pair<int const ,_tagWaiting> >,0> >::_Min, COMDAT

; 648  : 		{	// return leftmost node in subtree at _Pnode

  00000	55		 push	 ebp
  00001	8b ec		 mov	 ebp, esp

; 649  : 		while (!_Isnil(_Left(_Pnode)))

  00003	8b 45 08	 mov	 eax, DWORD PTR __Pnode$[ebp]
  00006	8b 08		 mov	 ecx, DWORD PTR [eax]
  00008	80 79 21 00	 cmp	 BYTE PTR [ecx+33], 0
  0000c	75 0c		 jne	 SHORT $LN1@Min
  0000e	8b ff		 npad	 2
$LL2@Min:

; 650  : 			_Pnode = _Left(_Pnode);

  00010	8b c1		 mov	 eax, ecx
  00012	8b 08		 mov	 ecx, DWORD PTR [eax]
  00014	80 79 21 00	 cmp	 BYTE PTR [ecx+33], 0
  00018	74 f6		 je	 SHORT $LL2@Min
$LN1@Min:

; 651  : 		return (_Pnode);
; 652  : 		}

  0001a	5d		 pop	 ebp
  0001b	c3		 ret	 0
?_Min@?$_Tree_val@V?$_Tmap_traits@HU_tagWaiting@@U?$less@H@std@@V?$allocator@U?$pair@$$CBHU_tagWaiting@@@std@@@3@$0A@@std@@@std@@SAPAU_Node@?$_Tree_nod@V?$_Tmap_traits@HU_tagWaiting@@U?$less@H@std@@V?$allocator@U?$pair@$$CBHU_tagWaiting@@@std@@@3@$0A@@std@@@2@PAU342@@Z ENDP ; std::_Tree_val<std::_Tmap_traits<int,_tagWaiting,std::less<int>,std::allocator<std::pair<int const ,_tagWaiting> >,0> >::_Min
_TEXT	ENDS
PUBLIC	??0?$allocator@U?$pair@$$CBHU_tagWaiting@@@std@@@std@@QAE@XZ ; std::allocator<std::pair<int const ,_tagWaiting> >::allocator<std::pair<int const ,_tagWaiting> >
; Function compile flags: /Ogtp
; File c:\program files (x86)\microsoft visual studio 10.0\vc\include\xmemory
;	COMDAT ??0?$allocator@U?$pair@$$CBHU_tagWaiting@@@std@@@std@@QAE@XZ
_TEXT	SEGMENT
??0?$allocator@U?$pair@$$CBHU_tagWaiting@@@std@@@std@@QAE@XZ PROC ; std::allocator<std::pair<int const ,_tagWaiting> >::allocator<std::pair<int const ,_tagWaiting> >, COMDAT
; _this$ = ecx

; 161  : 	_ALLOCATOR() _THROW0()

  00000	8b c1		 mov	 eax, ecx

; 162  : 		{	// construct default allocator (do nothing)
; 163  : 		}

  00002	c3		 ret	 0
??0?$allocator@U?$pair@$$CBHU_tagWaiting@@@std@@@std@@QAE@XZ ENDP ; std::allocator<std::pair<int const ,_tagWaiting> >::allocator<std::pair<int const ,_tagWaiting> >
_TEXT	ENDS
PUBLIC	?deallocate@?$allocator@U_Node@?$_Tree_nod@V?$_Tmap_traits@HU_tagWaiting@@U?$less@H@std@@V?$allocator@U?$pair@$$CBHU_tagWaiting@@@std@@@3@$0A@@std@@@std@@@std@@QAEXPAU_Node@?$_Tree_nod@V?$_Tmap_traits@HU_tagWaiting@@U?$less@H@std@@V?$allocator@U?$pair@$$CBHU_tagWaiting@@@std@@@3@$0A@@std@@@2@I@Z ; std::allocator<std::_Tree_nod<std::_Tmap_traits<int,_tagWaiting,std::less<int>,std::allocator<std::pair<int const ,_tagWaiting> >,0> >::_Node>::deallocate
EXTRN	??3@YAXPAX@Z:PROC				; operator delete
; Function compile flags: /Ogtp
;	COMDAT ?deallocate@?$allocator@U_Node@?$_Tree_nod@V?$_Tmap_traits@HU_tagWaiting@@U?$less@H@std@@V?$allocator@U?$pair@$$CBHU_tagWaiting@@@std@@@3@$0A@@std@@@std@@@std@@QAEXPAU_Node@?$_Tree_nod@V?$_Tmap_traits@HU_tagWaiting@@U?$less@H@std@@V?$allocator@U?$pair@$$CBHU_tagWaiting@@@std@@@3@$0A@@std@@@2@I@Z
_TEXT	SEGMENT
__Ptr$ = 8						; size = 4
___formal$ = 12						; size = 4
?deallocate@?$allocator@U_Node@?$_Tree_nod@V?$_Tmap_traits@HU_tagWaiting@@U?$less@H@std@@V?$allocator@U?$pair@$$CBHU_tagWaiting@@@std@@@3@$0A@@std@@@std@@@std@@QAEXPAU_Node@?$_Tree_nod@V?$_Tmap_traits@HU_tagWaiting@@U?$less@H@std@@V?$allocator@U?$pair@$$CBHU_tagWaiting@@@std@@@3@$0A@@std@@@2@I@Z PROC ; std::allocator<std::_Tree_nod<std::_Tmap_traits<int,_tagWaiting,std::less<int>,std::allocator<std::pair<int const ,_tagWaiting> >,0> >::_Node>::deallocate, COMDAT
; _this$ = ecx

; 181  : 		{	// deallocate object at _Ptr, ignore size

  00000	55		 push	 ebp
  00001	8b ec		 mov	 ebp, esp

; 182  : 		::operator delete(_Ptr);

  00003	8b 45 08	 mov	 eax, DWORD PTR __Ptr$[ebp]
  00006	50		 push	 eax
  00007	e8 00 00 00 00	 call	 ??3@YAXPAX@Z		; operator delete
  0000c	83 c4 04	 add	 esp, 4

; 183  : 		}

  0000f	5d		 pop	 ebp
  00010	c2 08 00	 ret	 8
?deallocate@?$allocator@U_Node@?$_Tree_nod@V?$_Tmap_traits@HU_tagWaiting@@U?$less@H@std@@V?$allocator@U?$pair@$$CBHU_tagWaiting@@@std@@@3@$0A@@std@@@std@@@std@@QAEXPAU_Node@?$_Tree_nod@V?$_Tmap_traits@HU_tagWaiting@@U?$less@H@std@@V?$allocator@U?$pair@$$CBHU_tagWaiting@@@std@@@3@$0A@@std@@@2@I@Z ENDP ; std::allocator<std::_Tree_nod<std::_Tmap_traits<int,_tagWaiting,std::less<int>,std::allocator<std::pair<int const ,_tagWaiting> >,0> >::_Node>::deallocate
_TEXT	ENDS
PUBLIC	?_Color@?$_Tree_val@V?$_Tmap_traits@HU_tagObserverInfo@@U?$less@H@std@@V?$allocator@U?$pair@$$CBHU_tagObserverInfo@@@std@@@3@$0A@@std@@@std@@SAAADPAU_Node@?$_Tree_nod@V?$_Tmap_traits@HU_tagObserverInfo@@U?$less@H@std@@V?$allocator@U?$pair@$$CBHU_tagObserverInfo@@@std@@@3@$0A@@std@@@2@@Z ; std::_Tree_val<std::_Tmap_traits<int,_tagObserverInfo,std::less<int>,std::allocator<std::pair<int const ,_tagObserverInfo> >,0> >::_Color
; Function compile flags: /Ogtp
; File c:\program files (x86)\microsoft visual studio 10.0\vc\include\xtree
;	COMDAT ?_Color@?$_Tree_val@V?$_Tmap_traits@HU_tagObserverInfo@@U?$less@H@std@@V?$allocator@U?$pair@$$CBHU_tagObserverInfo@@@std@@@3@$0A@@std@@@std@@SAAADPAU_Node@?$_Tree_nod@V?$_Tmap_traits@HU_tagObserverInfo@@U?$less@H@std@@V?$allocator@U?$pair@$$CBHU_tagObserverInfo@@@std@@@3@$0A@@std@@@2@@Z
_TEXT	SEGMENT
__Pnode$ = 8						; size = 4
?_Color@?$_Tree_val@V?$_Tmap_traits@HU_tagObserverInfo@@U?$less@H@std@@V?$allocator@U?$pair@$$CBHU_tagObserverInfo@@@std@@@3@$0A@@std@@@std@@SAAADPAU_Node@?$_Tree_nod@V?$_Tmap_traits@HU_tagObserverInfo@@U?$less@H@std@@V?$allocator@U?$pair@$$CBHU_tagObserverInfo@@@std@@@3@$0A@@std@@@2@@Z PROC ; std::_Tree_val<std::_Tmap_traits<int,_tagObserverInfo,std::less<int>,std::allocator<std::pair<int const ,_tagObserverInfo> >,0> >::_Color, COMDAT

; 606  : 		{	// return reference to color in node

  00000	55		 push	 ebp
  00001	8b ec		 mov	 ebp, esp

; 607  : 		return ((char&)(*_Pnode)._Color);

  00003	8b 45 08	 mov	 eax, DWORD PTR __Pnode$[ebp]
  00006	83 c0 24	 add	 eax, 36			; 00000024H

; 608  : 		}

  00009	5d		 pop	 ebp
  0000a	c3		 ret	 0
?_Color@?$_Tree_val@V?$_Tmap_traits@HU_tagObserverInfo@@U?$less@H@std@@V?$allocator@U?$pair@$$CBHU_tagObserverInfo@@@std@@@3@$0A@@std@@@std@@SAAADPAU_Node@?$_Tree_nod@V?$_Tmap_traits@HU_tagObserverInfo@@U?$less@H@std@@V?$allocator@U?$pair@$$CBHU_tagObserverInfo@@@std@@@3@$0A@@std@@@2@@Z ENDP ; std::_Tree_val<std::_Tmap_traits<int,_tagObserverInfo,std::less<int>,std::allocator<std::pair<int const ,_tagObserverInfo> >,0> >::_Color
_TEXT	ENDS
PUBLIC	?_Isnil@?$_Tree_val@V?$_Tmap_traits@HU_tagObserverInfo@@U?$less@H@std@@V?$allocator@U?$pair@$$CBHU_tagObserverInfo@@@std@@@3@$0A@@std@@@std@@SAAADPAU_Node@?$_Tree_nod@V?$_Tmap_traits@HU_tagObserverInfo@@U?$less@H@std@@V?$allocator@U?$pair@$$CBHU_tagObserverInfo@@@std@@@3@$0A@@std@@@2@@Z ; std::_Tree_val<std::_Tmap_traits<int,_tagObserverInfo,std::less<int>,std::allocator<std::pair<int const ,_tagObserverInfo> >,0> >::_Isnil
; Function compile flags: /Ogtp
;	COMDAT ?_Isnil@?$_Tree_val@V?$_Tmap_traits@HU_tagObserverInfo@@U?$less@H@std@@V?$allocator@U?$pair@$$CBHU_tagObserverInfo@@@std@@@3@$0A@@std@@@std@@SAAADPAU_Node@?$_Tree_nod@V?$_Tmap_traits@HU_tagObserverInfo@@U?$less@H@std@@V?$allocator@U?$pair@$$CBHU_tagObserverInfo@@@std@@@3@$0A@@std@@@2@@Z
_TEXT	SEGMENT
__Pnode$ = 8						; size = 4
?_Isnil@?$_Tree_val@V?$_Tmap_traits@HU_tagObserverInfo@@U?$less@H@std@@V?$allocator@U?$pair@$$CBHU_tagObserverInfo@@@std@@@3@$0A@@std@@@std@@SAAADPAU_Node@?$_Tree_nod@V?$_Tmap_traits@HU_tagObserverInfo@@U?$less@H@std@@V?$allocator@U?$pair@$$CBHU_tagObserverInfo@@@std@@@3@$0A@@std@@@2@@Z PROC ; std::_Tree_val<std::_Tmap_traits<int,_tagObserverInfo,std::less<int>,std::allocator<std::pair<int const ,_tagObserverInfo> >,0> >::_Isnil, COMDAT

; 611  : 		{	// return reference to nil flag in node

  00000	55		 push	 ebp
  00001	8b ec		 mov	 ebp, esp

; 612  : 		return ((char&)(*_Pnode)._Isnil);

  00003	8b 45 08	 mov	 eax, DWORD PTR __Pnode$[ebp]
  00006	83 c0 25	 add	 eax, 37			; 00000025H

; 613  : 		}

  00009	5d		 pop	 ebp
  0000a	c3		 ret	 0
?_Isnil@?$_Tree_val@V?$_Tmap_traits@HU_tagObserverInfo@@U?$less@H@std@@V?$allocator@U?$pair@$$CBHU_tagObserverInfo@@@std@@@3@$0A@@std@@@std@@SAAADPAU_Node@?$_Tree_nod@V?$_Tmap_traits@HU_tagObserverInfo@@U?$less@H@std@@V?$allocator@U?$pair@$$CBHU_tagObserverInfo@@@std@@@3@$0A@@std@@@2@@Z ENDP ; std::_Tree_val<std::_Tmap_traits<int,_tagObserverInfo,std::less<int>,std::allocator<std::pair<int const ,_tagObserverInfo> >,0> >::_Isnil
_TEXT	ENDS
PUBLIC	?_Left@?$_Tree_val@V?$_Tmap_traits@HU_tagObserverInfo@@U?$less@H@std@@V?$allocator@U?$pair@$$CBHU_tagObserverInfo@@@std@@@3@$0A@@std@@@std@@SAAAPAU_Node@?$_Tree_nod@V?$_Tmap_traits@HU_tagObserverInfo@@U?$less@H@std@@V?$allocator@U?$pair@$$CBHU_tagObserverInfo@@@std@@@3@$0A@@std@@@2@PAU342@@Z ; std::_Tree_val<std::_Tmap_traits<int,_tagObserverInfo,std::less<int>,std::allocator<std::pair<int const ,_tagObserverInfo> >,0> >::_Left
; Function compile flags: /Ogtp
;	COMDAT ?_Left@?$_Tree_val@V?$_Tmap_traits@HU_tagObserverInfo@@U?$less@H@std@@V?$allocator@U?$pair@$$CBHU_tagObserverInfo@@@std@@@3@$0A@@std@@@std@@SAAAPAU_Node@?$_Tree_nod@V?$_Tmap_traits@HU_tagObserverInfo@@U?$less@H@std@@V?$allocator@U?$pair@$$CBHU_tagObserverInfo@@@std@@@3@$0A@@std@@@2@PAU342@@Z
_TEXT	SEGMENT
__Pnode$ = 8						; size = 4
?_Left@?$_Tree_val@V?$_Tmap_traits@HU_tagObserverInfo@@U?$less@H@std@@V?$allocator@U?$pair@$$CBHU_tagObserverInfo@@@std@@@3@$0A@@std@@@std@@SAAAPAU_Node@?$_Tree_nod@V?$_Tmap_traits@HU_tagObserverInfo@@U?$less@H@std@@V?$allocator@U?$pair@$$CBHU_tagObserverInfo@@@std@@@3@$0A@@std@@@2@PAU342@@Z PROC ; std::_Tree_val<std::_Tmap_traits<int,_tagObserverInfo,std::less<int>,std::allocator<std::pair<int const ,_tagObserverInfo> >,0> >::_Left, COMDAT

; 621  : 		{	// return reference to left pointer in node

  00000	55		 push	 ebp
  00001	8b ec		 mov	 ebp, esp

; 622  : 		return ((_Nodepref)(*_Pnode)._Left);

  00003	8b 45 08	 mov	 eax, DWORD PTR __Pnode$[ebp]

; 623  : 		}

  00006	5d		 pop	 ebp
  00007	c3		 ret	 0
?_Left@?$_Tree_val@V?$_Tmap_traits@HU_tagObserverInfo@@U?$less@H@std@@V?$allocator@U?$pair@$$CBHU_tagObserverInfo@@@std@@@3@$0A@@std@@@std@@SAAAPAU_Node@?$_Tree_nod@V?$_Tmap_traits@HU_tagObserverInfo@@U?$less@H@std@@V?$allocator@U?$pair@$$CBHU_tagObserverInfo@@@std@@@3@$0A@@std@@@2@PAU342@@Z ENDP ; std::_Tree_val<std::_Tmap_traits<int,_tagObserverInfo,std::less<int>,std::allocator<std::pair<int const ,_tagObserverInfo> >,0> >::_Left
_TEXT	ENDS
PUBLIC	?_Parent@?$_Tree_val@V?$_Tmap_traits@HU_tagObserverInfo@@U?$less@H@std@@V?$allocator@U?$pair@$$CBHU_tagObserverInfo@@@std@@@3@$0A@@std@@@std@@SAAAPAU_Node@?$_Tree_nod@V?$_Tmap_traits@HU_tagObserverInfo@@U?$less@H@std@@V?$allocator@U?$pair@$$CBHU_tagObserverInfo@@@std@@@3@$0A@@std@@@2@PAU342@@Z ; std::_Tree_val<std::_Tmap_traits<int,_tagObserverInfo,std::less<int>,std::allocator<std::pair<int const ,_tagObserverInfo> >,0> >::_Parent
; Function compile flags: /Ogtp
;	COMDAT ?_Parent@?$_Tree_val@V?$_Tmap_traits@HU_tagObserverInfo@@U?$less@H@std@@V?$allocator@U?$pair@$$CBHU_tagObserverInfo@@@std@@@3@$0A@@std@@@std@@SAAAPAU_Node@?$_Tree_nod@V?$_Tmap_traits@HU_tagObserverInfo@@U?$less@H@std@@V?$allocator@U?$pair@$$CBHU_tagObserverInfo@@@std@@@3@$0A@@std@@@2@PAU342@@Z
_TEXT	SEGMENT
__Pnode$ = 8						; size = 4
?_Parent@?$_Tree_val@V?$_Tmap_traits@HU_tagObserverInfo@@U?$less@H@std@@V?$allocator@U?$pair@$$CBHU_tagObserverInfo@@@std@@@3@$0A@@std@@@std@@SAAAPAU_Node@?$_Tree_nod@V?$_Tmap_traits@HU_tagObserverInfo@@U?$less@H@std@@V?$allocator@U?$pair@$$CBHU_tagObserverInfo@@@std@@@3@$0A@@std@@@2@PAU342@@Z PROC ; std::_Tree_val<std::_Tmap_traits<int,_tagObserverInfo,std::less<int>,std::allocator<std::pair<int const ,_tagObserverInfo> >,0> >::_Parent, COMDAT

; 626  : 		{	// return reference to parent pointer in node

  00000	55		 push	 ebp
  00001	8b ec		 mov	 ebp, esp

; 627  : 		return ((_Nodepref)(*_Pnode)._Parent);

  00003	8b 45 08	 mov	 eax, DWORD PTR __Pnode$[ebp]
  00006	83 c0 04	 add	 eax, 4

; 628  : 		}

  00009	5d		 pop	 ebp
  0000a	c3		 ret	 0
?_Parent@?$_Tree_val@V?$_Tmap_traits@HU_tagObserverInfo@@U?$less@H@std@@V?$allocator@U?$pair@$$CBHU_tagObserverInfo@@@std@@@3@$0A@@std@@@std@@SAAAPAU_Node@?$_Tree_nod@V?$_Tmap_traits@HU_tagObserverInfo@@U?$less@H@std@@V?$allocator@U?$pair@$$CBHU_tagObserverInfo@@@std@@@3@$0A@@std@@@2@PAU342@@Z ENDP ; std::_Tree_val<std::_Tmap_traits<int,_tagObserverInfo,std::less<int>,std::allocator<std::pair<int const ,_tagObserverInfo> >,0> >::_Parent
_TEXT	ENDS
PUBLIC	?_Right@?$_Tree_val@V?$_Tmap_traits@HU_tagObserverInfo@@U?$less@H@std@@V?$allocator@U?$pair@$$CBHU_tagObserverInfo@@@std@@@3@$0A@@std@@@std@@SAAAPAU_Node@?$_Tree_nod@V?$_Tmap_traits@HU_tagObserverInfo@@U?$less@H@std@@V?$allocator@U?$pair@$$CBHU_tagObserverInfo@@@std@@@3@$0A@@std@@@2@PAU342@@Z ; std::_Tree_val<std::_Tmap_traits<int,_tagObserverInfo,std::less<int>,std::allocator<std::pair<int const ,_tagObserverInfo> >,0> >::_Right
; Function compile flags: /Ogtp
;	COMDAT ?_Right@?$_Tree_val@V?$_Tmap_traits@HU_tagObserverInfo@@U?$less@H@std@@V?$allocator@U?$pair@$$CBHU_tagObserverInfo@@@std@@@3@$0A@@std@@@std@@SAAAPAU_Node@?$_Tree_nod@V?$_Tmap_traits@HU_tagObserverInfo@@U?$less@H@std@@V?$allocator@U?$pair@$$CBHU_tagObserverInfo@@@std@@@3@$0A@@std@@@2@PAU342@@Z
_TEXT	SEGMENT
__Pnode$ = 8						; size = 4
?_Right@?$_Tree_val@V?$_Tmap_traits@HU_tagObserverInfo@@U?$less@H@std@@V?$allocator@U?$pair@$$CBHU_tagObserverInfo@@@std@@@3@$0A@@std@@@std@@SAAAPAU_Node@?$_Tree_nod@V?$_Tmap_traits@HU_tagObserverInfo@@U?$less@H@std@@V?$allocator@U?$pair@$$CBHU_tagObserverInfo@@@std@@@3@$0A@@std@@@2@PAU342@@Z PROC ; std::_Tree_val<std::_Tmap_traits<int,_tagObserverInfo,std::less<int>,std::allocator<std::pair<int const ,_tagObserverInfo> >,0> >::_Right, COMDAT

; 631  : 		{	// return reference to right pointer in node

  00000	55		 push	 ebp
  00001	8b ec		 mov	 ebp, esp

; 632  : 		return ((_Nodepref)(*_Pnode)._Right);

  00003	8b 45 08	 mov	 eax, DWORD PTR __Pnode$[ebp]
  00006	83 c0 08	 add	 eax, 8

; 633  : 		}

  00009	5d		 pop	 ebp
  0000a	c3		 ret	 0
?_Right@?$_Tree_val@V?$_Tmap_traits@HU_tagObserverInfo@@U?$less@H@std@@V?$allocator@U?$pair@$$CBHU_tagObserverInfo@@@std@@@3@$0A@@std@@@std@@SAAAPAU_Node@?$_Tree_nod@V?$_Tmap_traits@HU_tagObserverInfo@@U?$less@H@std@@V?$allocator@U?$pair@$$CBHU_tagObserverInfo@@@std@@@3@$0A@@std@@@2@PAU342@@Z ENDP ; std::_Tree_val<std::_Tmap_traits<int,_tagObserverInfo,std::less<int>,std::allocator<std::pair<int const ,_tagObserverInfo> >,0> >::_Right
_TEXT	ENDS
PUBLIC	?_Myval@?$_Tree_val@V?$_Tmap_traits@HU_tagObserverInfo@@U?$less@H@std@@V?$allocator@U?$pair@$$CBHU_tagObserverInfo@@@std@@@3@$0A@@std@@@std@@SAAAU?$pair@$$CBHU_tagObserverInfo@@@2@PAU_Node@?$_Tree_nod@V?$_Tmap_traits@HU_tagObserverInfo@@U?$less@H@std@@V?$allocator@U?$pair@$$CBHU_tagObserverInfo@@@std@@@3@$0A@@std@@@2@@Z ; std::_Tree_val<std::_Tmap_traits<int,_tagObserverInfo,std::less<int>,std::allocator<std::pair<int const ,_tagObserverInfo> >,0> >::_Myval
; Function compile flags: /Ogtp
;	COMDAT ?_Myval@?$_Tree_val@V?$_Tmap_traits@HU_tagObserverInfo@@U?$less@H@std@@V?$allocator@U?$pair@$$CBHU_tagObserverInfo@@@std@@@3@$0A@@std@@@std@@SAAAU?$pair@$$CBHU_tagObserverInfo@@@2@PAU_Node@?$_Tree_nod@V?$_Tmap_traits@HU_tagObserverInfo@@U?$less@H@std@@V?$allocator@U?$pair@$$CBHU_tagObserverInfo@@@std@@@3@$0A@@std@@@2@@Z
_TEXT	SEGMENT
__Pnode$ = 8						; size = 4
?_Myval@?$_Tree_val@V?$_Tmap_traits@HU_tagObserverInfo@@U?$less@H@std@@V?$allocator@U?$pair@$$CBHU_tagObserverInfo@@@std@@@3@$0A@@std@@@std@@SAAAU?$pair@$$CBHU_tagObserverInfo@@@2@PAU_Node@?$_Tree_nod@V?$_Tmap_traits@HU_tagObserverInfo@@U?$less@H@std@@V?$allocator@U?$pair@$$CBHU_tagObserverInfo@@@std@@@3@$0A@@std@@@2@@Z PROC ; std::_Tree_val<std::_Tmap_traits<int,_tagObserverInfo,std::less<int>,std::allocator<std::pair<int const ,_tagObserverInfo> >,0> >::_Myval, COMDAT

; 636  : 		{	// return reference to value in node

  00000	55		 push	 ebp
  00001	8b ec		 mov	 ebp, esp

; 637  : 		return ((reference)(*_Pnode)._Myval);

  00003	8b 45 08	 mov	 eax, DWORD PTR __Pnode$[ebp]
  00006	83 c0 0c	 add	 eax, 12			; 0000000cH

; 638  : 		}

  00009	5d		 pop	 ebp
  0000a	c3		 ret	 0
?_Myval@?$_Tree_val@V?$_Tmap_traits@HU_tagObserverInfo@@U?$less@H@std@@V?$allocator@U?$pair@$$CBHU_tagObserverInfo@@@std@@@3@$0A@@std@@@std@@SAAAU?$pair@$$CBHU_tagObserverInfo@@@2@PAU_Node@?$_Tree_nod@V?$_Tmap_traits@HU_tagObserverInfo@@U?$less@H@std@@V?$allocator@U?$pair@$$CBHU_tagObserverInfo@@@std@@@3@$0A@@std@@@2@@Z ENDP ; std::_Tree_val<std::_Tmap_traits<int,_tagObserverInfo,std::less<int>,std::allocator<std::pair<int const ,_tagObserverInfo> >,0> >::_Myval
_TEXT	ENDS
PUBLIC	?_Max@?$_Tree_val@V?$_Tmap_traits@HU_tagObserverInfo@@U?$less@H@std@@V?$allocator@U?$pair@$$CBHU_tagObserverInfo@@@std@@@3@$0A@@std@@@std@@SAPAU_Node@?$_Tree_nod@V?$_Tmap_traits@HU_tagObserverInfo@@U?$less@H@std@@V?$allocator@U?$pair@$$CBHU_tagObserverInfo@@@std@@@3@$0A@@std@@@2@PAU342@@Z ; std::_Tree_val<std::_Tmap_traits<int,_tagObserverInfo,std::less<int>,std::allocator<std::pair<int const ,_tagObserverInfo> >,0> >::_Max
; Function compile flags: /Ogtp
;	COMDAT ?_Max@?$_Tree_val@V?$_Tmap_traits@HU_tagObserverInfo@@U?$less@H@std@@V?$allocator@U?$pair@$$CBHU_tagObserverInfo@@@std@@@3@$0A@@std@@@std@@SAPAU_Node@?$_Tree_nod@V?$_Tmap_traits@HU_tagObserverInfo@@U?$less@H@std@@V?$allocator@U?$pair@$$CBHU_tagObserverInfo@@@std@@@3@$0A@@std@@@2@PAU342@@Z
_TEXT	SEGMENT
__Pnode$ = 8						; size = 4
?_Max@?$_Tree_val@V?$_Tmap_traits@HU_tagObserverInfo@@U?$less@H@std@@V?$allocator@U?$pair@$$CBHU_tagObserverInfo@@@std@@@3@$0A@@std@@@std@@SAPAU_Node@?$_Tree_nod@V?$_Tmap_traits@HU_tagObserverInfo@@U?$less@H@std@@V?$allocator@U?$pair@$$CBHU_tagObserverInfo@@@std@@@3@$0A@@std@@@2@PAU342@@Z PROC ; std::_Tree_val<std::_Tmap_traits<int,_tagObserverInfo,std::less<int>,std::allocator<std::pair<int const ,_tagObserverInfo> >,0> >::_Max, COMDAT

; 641  : 		{	// return rightmost node in subtree at _Pnode

  00000	55		 push	 ebp
  00001	8b ec		 mov	 ebp, esp

; 642  : 		while (!_Isnil(_Right(_Pnode)))

  00003	8b 45 08	 mov	 eax, DWORD PTR __Pnode$[ebp]
  00006	8b 48 08	 mov	 ecx, DWORD PTR [eax+8]
  00009	80 79 25 00	 cmp	 BYTE PTR [ecx+37], 0
  0000d	75 0c		 jne	 SHORT $LN1@Max@2
  0000f	90		 npad	 1
$LL2@Max@2:

; 643  : 			_Pnode = _Right(_Pnode);

  00010	8b c1		 mov	 eax, ecx
  00012	8b 48 08	 mov	 ecx, DWORD PTR [eax+8]
  00015	80 79 25 00	 cmp	 BYTE PTR [ecx+37], 0
  00019	74 f5		 je	 SHORT $LL2@Max@2
$LN1@Max@2:

; 644  : 		return (_Pnode);
; 645  : 		}

  0001b	5d		 pop	 ebp
  0001c	c3		 ret	 0
?_Max@?$_Tree_val@V?$_Tmap_traits@HU_tagObserverInfo@@U?$less@H@std@@V?$allocator@U?$pair@$$CBHU_tagObserverInfo@@@std@@@3@$0A@@std@@@std@@SAPAU_Node@?$_Tree_nod@V?$_Tmap_traits@HU_tagObserverInfo@@U?$less@H@std@@V?$allocator@U?$pair@$$CBHU_tagObserverInfo@@@std@@@3@$0A@@std@@@2@PAU342@@Z ENDP ; std::_Tree_val<std::_Tmap_traits<int,_tagObserverInfo,std::less<int>,std::allocator<std::pair<int const ,_tagObserverInfo> >,0> >::_Max
_TEXT	ENDS
PUBLIC	?_Min@?$_Tree_val@V?$_Tmap_traits@HU_tagObserverInfo@@U?$less@H@std@@V?$allocator@U?$pair@$$CBHU_tagObserverInfo@@@std@@@3@$0A@@std@@@std@@SAPAU_Node@?$_Tree_nod@V?$_Tmap_traits@HU_tagObserverInfo@@U?$less@H@std@@V?$allocator@U?$pair@$$CBHU_tagObserverInfo@@@std@@@3@$0A@@std@@@2@PAU342@@Z ; std::_Tree_val<std::_Tmap_traits<int,_tagObserverInfo,std::less<int>,std::allocator<std::pair<int const ,_tagObserverInfo> >,0> >::_Min
; Function compile flags: /Ogtp
;	COMDAT ?_Min@?$_Tree_val@V?$_Tmap_traits@HU_tagObserverInfo@@U?$less@H@std@@V?$allocator@U?$pair@$$CBHU_tagObserverInfo@@@std@@@3@$0A@@std@@@std@@SAPAU_Node@?$_Tree_nod@V?$_Tmap_traits@HU_tagObserverInfo@@U?$less@H@std@@V?$allocator@U?$pair@$$CBHU_tagObserverInfo@@@std@@@3@$0A@@std@@@2@PAU342@@Z
_TEXT	SEGMENT
__Pnode$ = 8						; size = 4
?_Min@?$_Tree_val@V?$_Tmap_traits@HU_tagObserverInfo@@U?$less@H@std@@V?$allocator@U?$pair@$$CBHU_tagObserverInfo@@@std@@@3@$0A@@std@@@std@@SAPAU_Node@?$_Tree_nod@V?$_Tmap_traits@HU_tagObserverInfo@@U?$less@H@std@@V?$allocator@U?$pair@$$CBHU_tagObserverInfo@@@std@@@3@$0A@@std@@@2@PAU342@@Z PROC ; std::_Tree_val<std::_Tmap_traits<int,_tagObserverInfo,std::less<int>,std::allocator<std::pair<int const ,_tagObserverInfo> >,0> >::_Min, COMDAT

; 648  : 		{	// return leftmost node in subtree at _Pnode

  00000	55		 push	 ebp
  00001	8b ec		 mov	 ebp, esp

; 649  : 		while (!_Isnil(_Left(_Pnode)))

  00003	8b 45 08	 mov	 eax, DWORD PTR __Pnode$[ebp]
  00006	8b 08		 mov	 ecx, DWORD PTR [eax]
  00008	80 79 25 00	 cmp	 BYTE PTR [ecx+37], 0
  0000c	75 0c		 jne	 SHORT $LN1@Min@2
  0000e	8b ff		 npad	 2
$LL2@Min@2:

; 650  : 			_Pnode = _Left(_Pnode);

  00010	8b c1		 mov	 eax, ecx
  00012	8b 08		 mov	 ecx, DWORD PTR [eax]
  00014	80 79 25 00	 cmp	 BYTE PTR [ecx+37], 0
  00018	74 f6		 je	 SHORT $LL2@Min@2
$LN1@Min@2:

; 651  : 		return (_Pnode);
; 652  : 		}

  0001a	5d		 pop	 ebp
  0001b	c3		 ret	 0
?_Min@?$_Tree_val@V?$_Tmap_traits@HU_tagObserverInfo@@U?$less@H@std@@V?$allocator@U?$pair@$$CBHU_tagObserverInfo@@@std@@@3@$0A@@std@@@std@@SAPAU_Node@?$_Tree_nod@V?$_Tmap_traits@HU_tagObserverInfo@@U?$less@H@std@@V?$allocator@U?$pair@$$CBHU_tagObserverInfo@@@std@@@3@$0A@@std@@@2@PAU342@@Z ENDP ; std::_Tree_val<std::_Tmap_traits<int,_tagObserverInfo,std::less<int>,std::allocator<std::pair<int const ,_tagObserverInfo> >,0> >::_Min
_TEXT	ENDS
PUBLIC	??0?$allocator@U?$pair@$$CBHU_tagObserverInfo@@@std@@@std@@QAE@XZ ; std::allocator<std::pair<int const ,_tagObserverInfo> >::allocator<std::pair<int const ,_tagObserverInfo> >
; Function compile flags: /Ogtp
; File c:\program files (x86)\microsoft visual studio 10.0\vc\include\xmemory
;	COMDAT ??0?$allocator@U?$pair@$$CBHU_tagObserverInfo@@@std@@@std@@QAE@XZ
_TEXT	SEGMENT
??0?$allocator@U?$pair@$$CBHU_tagObserverInfo@@@std@@@std@@QAE@XZ PROC ; std::allocator<std::pair<int const ,_tagObserverInfo> >::allocator<std::pair<int const ,_tagObserverInfo> >, COMDAT
; _this$ = ecx

; 161  : 	_ALLOCATOR() _THROW0()

  00000	8b c1		 mov	 eax, ecx

; 162  : 		{	// construct default allocator (do nothing)
; 163  : 		}

  00002	c3		 ret	 0
??0?$allocator@U?$pair@$$CBHU_tagObserverInfo@@@std@@@std@@QAE@XZ ENDP ; std::allocator<std::pair<int const ,_tagObserverInfo> >::allocator<std::pair<int const ,_tagObserverInfo> >
_TEXT	ENDS
PUBLIC	?deallocate@?$allocator@U_Node@?$_Tree_nod@V?$_Tmap_traits@HU_tagObserverInfo@@U?$less@H@std@@V?$allocator@U?$pair@$$CBHU_tagObserverInfo@@@std@@@3@$0A@@std@@@std@@@std@@QAEXPAU_Node@?$_Tree_nod@V?$_Tmap_traits@HU_tagObserverInfo@@U?$less@H@std@@V?$allocator@U?$pair@$$CBHU_tagObserverInfo@@@std@@@3@$0A@@std@@@2@I@Z ; std::allocator<std::_Tree_nod<std::_Tmap_traits<int,_tagObserverInfo,std::less<int>,std::allocator<std::pair<int const ,_tagObserverInfo> >,0> >::_Node>::deallocate
; Function compile flags: /Ogtp
;	COMDAT ?deallocate@?$allocator@U_Node@?$_Tree_nod@V?$_Tmap_traits@HU_tagObserverInfo@@U?$less@H@std@@V?$allocator@U?$pair@$$CBHU_tagObserverInfo@@@std@@@3@$0A@@std@@@std@@@std@@QAEXPAU_Node@?$_Tree_nod@V?$_Tmap_traits@HU_tagObserverInfo@@U?$less@H@std@@V?$allocator@U?$pair@$$CBHU_tagObserverInfo@@@std@@@3@$0A@@std@@@2@I@Z
_TEXT	SEGMENT
__Ptr$ = 8						; size = 4
___formal$ = 12						; size = 4
?deallocate@?$allocator@U_Node@?$_Tree_nod@V?$_Tmap_traits@HU_tagObserverInfo@@U?$less@H@std@@V?$allocator@U?$pair@$$CBHU_tagObserverInfo@@@std@@@3@$0A@@std@@@std@@@std@@QAEXPAU_Node@?$_Tree_nod@V?$_Tmap_traits@HU_tagObserverInfo@@U?$less@H@std@@V?$allocator@U?$pair@$$CBHU_tagObserverInfo@@@std@@@3@$0A@@std@@@2@I@Z PROC ; std::allocator<std::_Tree_nod<std::_Tmap_traits<int,_tagObserverInfo,std::less<int>,std::allocator<std::pair<int const ,_tagObserverInfo> >,0> >::_Node>::deallocate, COMDAT
; _this$ = ecx

; 181  : 		{	// deallocate object at _Ptr, ignore size

  00000	55		 push	 ebp
  00001	8b ec		 mov	 ebp, esp

; 182  : 		::operator delete(_Ptr);

  00003	8b 45 08	 mov	 eax, DWORD PTR __Ptr$[ebp]
  00006	50		 push	 eax
  00007	e8 00 00 00 00	 call	 ??3@YAXPAX@Z		; operator delete
  0000c	83 c4 04	 add	 esp, 4

; 183  : 		}

  0000f	5d		 pop	 ebp
  00010	c2 08 00	 ret	 8
?deallocate@?$allocator@U_Node@?$_Tree_nod@V?$_Tmap_traits@HU_tagObserverInfo@@U?$less@H@std@@V?$allocator@U?$pair@$$CBHU_tagObserverInfo@@@std@@@3@$0A@@std@@@std@@@std@@QAEXPAU_Node@?$_Tree_nod@V?$_Tmap_traits@HU_tagObserverInfo@@U?$less@H@std@@V?$allocator@U?$pair@$$CBHU_tagObserverInfo@@@std@@@3@$0A@@std@@@2@I@Z ENDP ; std::allocator<std::_Tree_nod<std::_Tmap_traits<int,_tagObserverInfo,std::less<int>,std::allocator<std::pair<int const ,_tagObserverInfo> >,0> >::_Node>::deallocate
_TEXT	ENDS
PUBLIC	??8?$_Tree_const_iterator@V?$_Tree_val@V?$_Tmap_traits@HU_tagWaiting@@U?$less@H@std@@V?$allocator@U?$pair@$$CBHU_tagWaiting@@@std@@@3@$0A@@std@@@std@@@std@@QBE_NABV01@@Z ; std::_Tree_const_iterator<std::_Tree_val<std::_Tmap_traits<int,_tagWaiting,std::less<int>,std::allocator<std::pair<int const ,_tagWaiting> >,0> > >::operator==
; Function compile flags: /Ogtp
; File c:\program files (x86)\microsoft visual studio 10.0\vc\include\xtree
;	COMDAT ??8?$_Tree_const_iterator@V?$_Tree_val@V?$_Tmap_traits@HU_tagWaiting@@U?$less@H@std@@V?$allocator@U?$pair@$$CBHU_tagWaiting@@@std@@@3@$0A@@std@@@std@@@std@@QBE_NABV01@@Z
_TEXT	SEGMENT
__Right$ = 8						; size = 4
??8?$_Tree_const_iterator@V?$_Tree_val@V?$_Tmap_traits@HU_tagWaiting@@U?$less@H@std@@V?$allocator@U?$pair@$$CBHU_tagWaiting@@@std@@@3@$0A@@std@@@std@@@std@@QBE_NABV01@@Z PROC ; std::_Tree_const_iterator<std::_Tree_val<std::_Tmap_traits<int,_tagWaiting,std::less<int>,std::allocator<std::pair<int const ,_tagWaiting> >,0> > >::operator==, COMDAT
; _this$ = ecx

; 316  : 		{	// test for iterator equality

  00000	55		 push	 ebp
  00001	8b ec		 mov	 ebp, esp

; 317  :  #if _ITERATOR_DEBUG_LEVEL == 2
; 318  : 		if (this->_Getcont() == 0
; 319  : 			|| this->_Getcont() != _Right._Getcont())
; 320  : 			{	// report error
; 321  : 			_DEBUG_ERROR("map/set iterators incompatible");
; 322  : 			_SCL_SECURE_INVALID_ARGUMENT;
; 323  : 			}
; 324  : 
; 325  :  #elif _ITERATOR_DEBUG_LEVEL == 1
; 326  : 		_SCL_SECURE_VALIDATE(this->_Getcont() != 0
; 327  : 			&& this->_Getcont() == _Right._Getcont());
; 328  :  #endif /* _ITERATOR_DEBUG_LEVEL */
; 329  : 
; 330  : 		return (this->_Ptr == _Right._Ptr);

  00003	8b 01		 mov	 eax, DWORD PTR [ecx]
  00005	8b 55 08	 mov	 edx, DWORD PTR __Right$[ebp]
  00008	33 c9		 xor	 ecx, ecx
  0000a	3b 02		 cmp	 eax, DWORD PTR [edx]
  0000c	0f 94 c0	 sete	 al

; 331  : 		}

  0000f	5d		 pop	 ebp
  00010	c2 04 00	 ret	 4
??8?$_Tree_const_iterator@V?$_Tree_val@V?$_Tmap_traits@HU_tagWaiting@@U?$less@H@std@@V?$allocator@U?$pair@$$CBHU_tagWaiting@@@std@@@3@$0A@@std@@@std@@@std@@QBE_NABV01@@Z ENDP ; std::_Tree_const_iterator<std::_Tree_val<std::_Tmap_traits<int,_tagWaiting,std::less<int>,std::allocator<std::pair<int const ,_tagWaiting> >,0> > >::operator==
_TEXT	ENDS
PUBLIC	?_Mynode@?$_Tree_unchecked_const_iterator@V?$_Tree_val@V?$_Tmap_traits@HU_tagWaiting@@U?$less@H@std@@V?$allocator@U?$pair@$$CBHU_tagWaiting@@@std@@@3@$0A@@std@@@std@@U_Iterator_base0@2@@std@@QBEPAU_Node@?$_Tree_nod@V?$_Tmap_traits@HU_tagWaiting@@U?$less@H@std@@V?$allocator@U?$pair@$$CBHU_tagWaiting@@@std@@@3@$0A@@std@@@2@XZ ; std::_Tree_unchecked_const_iterator<std::_Tree_val<std::_Tmap_traits<int,_tagWaiting,std::less<int>,std::allocator<std::pair<int const ,_tagWaiting> >,0> >,std::_Iterator_base0>::_Mynode
; Function compile flags: /Ogtp
;	COMDAT ?_Mynode@?$_Tree_unchecked_const_iterator@V?$_Tree_val@V?$_Tmap_traits@HU_tagWaiting@@U?$less@H@std@@V?$allocator@U?$pair@$$CBHU_tagWaiting@@@std@@@3@$0A@@std@@@std@@U_Iterator_base0@2@@std@@QBEPAU_Node@?$_Tree_nod@V?$_Tmap_traits@HU_tagWaiting@@U?$less@H@std@@V?$allocator@U?$pair@$$CBHU_tagWaiting@@@std@@@3@$0A@@std@@@2@XZ
_TEXT	SEGMENT
?_Mynode@?$_Tree_unchecked_const_iterator@V?$_Tree_val@V?$_Tmap_traits@HU_tagWaiting@@U?$less@H@std@@V?$allocator@U?$pair@$$CBHU_tagWaiting@@@std@@@3@$0A@@std@@@std@@U_Iterator_base0@2@@std@@QBEPAU_Node@?$_Tree_nod@V?$_Tmap_traits@HU_tagWaiting@@U?$less@H@std@@V?$allocator@U?$pair@$$CBHU_tagWaiting@@@std@@@3@$0A@@std@@@2@XZ PROC ; std::_Tree_unchecked_const_iterator<std::_Tree_val<std::_Tmap_traits<int,_tagWaiting,std::less<int>,std::allocator<std::pair<int const ,_tagWaiting> >,0> >,std::_Iterator_base0>::_Mynode, COMDAT
; _this$ = ecx

; 122  : 		return (_Ptr);

  00000	8b 01		 mov	 eax, DWORD PTR [ecx]

; 123  : 		}

  00002	c3		 ret	 0
?_Mynode@?$_Tree_unchecked_const_iterator@V?$_Tree_val@V?$_Tmap_traits@HU_tagWaiting@@U?$less@H@std@@V?$allocator@U?$pair@$$CBHU_tagWaiting@@@std@@@3@$0A@@std@@@std@@U_Iterator_base0@2@@std@@QBEPAU_Node@?$_Tree_nod@V?$_Tmap_traits@HU_tagWaiting@@U?$less@H@std@@V?$allocator@U?$pair@$$CBHU_tagWaiting@@@std@@@3@$0A@@std@@@2@XZ ENDP ; std::_Tree_unchecked_const_iterator<std::_Tree_val<std::_Tmap_traits<int,_tagWaiting,std::less<int>,std::allocator<std::pair<int const ,_tagWaiting> >,0> >,std::_Iterator_base0>::_Mynode
_TEXT	ENDS
PUBLIC	?_Mynode@?$_Tree_unchecked_const_iterator@V?$_Tree_val@V?$_Tmap_traits@HU_tagObserverInfo@@U?$less@H@std@@V?$allocator@U?$pair@$$CBHU_tagObserverInfo@@@std@@@3@$0A@@std@@@std@@U_Iterator_base0@2@@std@@QBEPAU_Node@?$_Tree_nod@V?$_Tmap_traits@HU_tagObserverInfo@@U?$less@H@std@@V?$allocator@U?$pair@$$CBHU_tagObserverInfo@@@std@@@3@$0A@@std@@@2@XZ ; std::_Tree_unchecked_const_iterator<std::_Tree_val<std::_Tmap_traits<int,_tagObserverInfo,std::less<int>,std::allocator<std::pair<int const ,_tagObserverInfo> >,0> >,std::_Iterator_base0>::_Mynode
; Function compile flags: /Ogtp
;	COMDAT ?_Mynode@?$_Tree_unchecked_const_iterator@V?$_Tree_val@V?$_Tmap_traits@HU_tagObserverInfo@@U?$less@H@std@@V?$allocator@U?$pair@$$CBHU_tagObserverInfo@@@std@@@3@$0A@@std@@@std@@U_Iterator_base0@2@@std@@QBEPAU_Node@?$_Tree_nod@V?$_Tmap_traits@HU_tagObserverInfo@@U?$less@H@std@@V?$allocator@U?$pair@$$CBHU_tagObserverInfo@@@std@@@3@$0A@@std@@@2@XZ
_TEXT	SEGMENT
?_Mynode@?$_Tree_unchecked_const_iterator@V?$_Tree_val@V?$_Tmap_traits@HU_tagObserverInfo@@U?$less@H@std@@V?$allocator@U?$pair@$$CBHU_tagObserverInfo@@@std@@@3@$0A@@std@@@std@@U_Iterator_base0@2@@std@@QBEPAU_Node@?$_Tree_nod@V?$_Tmap_traits@HU_tagObserverInfo@@U?$less@H@std@@V?$allocator@U?$pair@$$CBHU_tagObserverInfo@@@std@@@3@$0A@@std@@@2@XZ PROC ; std::_Tree_unchecked_const_iterator<std::_Tree_val<std::_Tmap_traits<int,_tagObserverInfo,std::less<int>,std::allocator<std::pair<int const ,_tagObserverInfo> >,0> >,std::_Iterator_base0>::_Mynode, COMDAT
; _this$ = ecx

; 122  : 		return (_Ptr);

  00000	8b 01		 mov	 eax, DWORD PTR [ecx]

; 123  : 		}

  00002	c3		 ret	 0
?_Mynode@?$_Tree_unchecked_const_iterator@V?$_Tree_val@V?$_Tmap_traits@HU_tagObserverInfo@@U?$less@H@std@@V?$allocator@U?$pair@$$CBHU_tagObserverInfo@@@std@@@3@$0A@@std@@@std@@U_Iterator_base0@2@@std@@QBEPAU_Node@?$_Tree_nod@V?$_Tmap_traits@HU_tagObserverInfo@@U?$less@H@std@@V?$allocator@U?$pair@$$CBHU_tagObserverInfo@@@std@@@3@$0A@@std@@@2@XZ ENDP ; std::_Tree_unchecked_const_iterator<std::_Tree_val<std::_Tmap_traits<int,_tagObserverInfo,std::less<int>,std::allocator<std::pair<int const ,_tagObserverInfo> >,0> >,std::_Iterator_base0>::_Mynode
_TEXT	ENDS
PUBLIC	??0?$allocator@U?$pair@$$CBHU_tagWaiting@@@std@@@std@@QAE@ABV01@@Z ; std::allocator<std::pair<int const ,_tagWaiting> >::allocator<std::pair<int const ,_tagWaiting> >
; Function compile flags: /Ogtp
; File c:\program files (x86)\microsoft visual studio 10.0\vc\include\xmemory
;	COMDAT ??0?$allocator@U?$pair@$$CBHU_tagWaiting@@@std@@@std@@QAE@ABV01@@Z
_TEXT	SEGMENT
___formal$ = 8						; size = 4
??0?$allocator@U?$pair@$$CBHU_tagWaiting@@@std@@@std@@QAE@ABV01@@Z PROC ; std::allocator<std::pair<int const ,_tagWaiting> >::allocator<std::pair<int const ,_tagWaiting> >, COMDAT
; _this$ = ecx

; 165  : 	_ALLOCATOR(const _ALLOCATOR<_Ty>&) _THROW0()

  00000	8b c1		 mov	 eax, ecx

; 166  : 		{	// construct by copying (do nothing)
; 167  : 		}

  00002	c2 04 00	 ret	 4
??0?$allocator@U?$pair@$$CBHU_tagWaiting@@@std@@@std@@QAE@ABV01@@Z ENDP ; std::allocator<std::pair<int const ,_tagWaiting> >::allocator<std::pair<int const ,_tagWaiting> >
_TEXT	ENDS
PUBLIC	??0?$allocator@U?$pair@$$CBHU_tagObserverInfo@@@std@@@std@@QAE@ABV01@@Z ; std::allocator<std::pair<int const ,_tagObserverInfo> >::allocator<std::pair<int const ,_tagObserverInfo> >
; Function compile flags: /Ogtp
;	COMDAT ??0?$allocator@U?$pair@$$CBHU_tagObserverInfo@@@std@@@std@@QAE@ABV01@@Z
_TEXT	SEGMENT
___formal$ = 8						; size = 4
??0?$allocator@U?$pair@$$CBHU_tagObserverInfo@@@std@@@std@@QAE@ABV01@@Z PROC ; std::allocator<std::pair<int const ,_tagObserverInfo> >::allocator<std::pair<int const ,_tagObserverInfo> >, COMDAT
; _this$ = ecx

; 165  : 	_ALLOCATOR(const _ALLOCATOR<_Ty>&) _THROW0()

  00000	8b c1		 mov	 eax, ecx

; 166  : 		{	// construct by copying (do nothing)
; 167  : 		}

  00002	c2 04 00	 ret	 4
??0?$allocator@U?$pair@$$CBHU_tagObserverInfo@@@std@@@std@@QAE@ABV01@@Z ENDP ; std::allocator<std::pair<int const ,_tagObserverInfo> >::allocator<std::pair<int const ,_tagObserverInfo> >
_TEXT	ENDS
PUBLIC	??D?$_Tree_const_iterator@V?$_Tree_val@V?$_Tmap_traits@HU_tagWaiting@@U?$less@H@std@@V?$allocator@U?$pair@$$CBHU_tagWaiting@@@std@@@3@$0A@@std@@@std@@@std@@QBEABU?$pair@$$CBHU_tagWaiting@@@1@XZ ; std::_Tree_const_iterator<std::_Tree_val<std::_Tmap_traits<int,_tagWaiting,std::less<int>,std::allocator<std::pair<int const ,_tagWaiting> >,0> > >::operator*
; Function compile flags: /Ogtp
; File c:\program files (x86)\microsoft visual studio 10.0\vc\include\xtree
;	COMDAT ??D?$_Tree_const_iterator@V?$_Tree_val@V?$_Tmap_traits@HU_tagWaiting@@U?$less@H@std@@V?$allocator@U?$pair@$$CBHU_tagWaiting@@@std@@@3@$0A@@std@@@std@@@std@@QBEABU?$pair@$$CBHU_tagWaiting@@@1@XZ
_TEXT	SEGMENT
??D?$_Tree_const_iterator@V?$_Tree_val@V?$_Tmap_traits@HU_tagWaiting@@U?$less@H@std@@V?$allocator@U?$pair@$$CBHU_tagWaiting@@@std@@@3@$0A@@std@@@std@@@std@@QBEABU?$pair@$$CBHU_tagWaiting@@@1@XZ PROC ; std::_Tree_const_iterator<std::_Tree_val<std::_Tmap_traits<int,_tagWaiting,std::less<int>,std::allocator<std::pair<int const ,_tagWaiting> >,0> > >::operator*, COMDAT
; _this$ = ecx

; 231  :  #if _ITERATOR_DEBUG_LEVEL == 2
; 232  : 		if (this->_Getcont() == 0
; 233  : 			|| this->_Ptr == 0
; 234  : 			|| this->_Ptr == ((_Mytree *)this->_Getcont())->_Myhead)
; 235  : 			{	// report error
; 236  : 			_DEBUG_ERROR("map/set iterator not dereferencable");
; 237  : 			_SCL_SECURE_OUT_OF_RANGE;
; 238  : 			}
; 239  : 
; 240  :  #elif _ITERATOR_DEBUG_LEVEL == 1
; 241  : 		_SCL_SECURE_VALIDATE(this->_Getcont() != 0 && this->_Ptr != 0);
; 242  : 		_SCL_SECURE_VALIDATE_RANGE(this->_Ptr !=
; 243  : 			((_Mytree *)this->_Getcont())->_Myhead);
; 244  :  #endif /* _ITERATOR_DEBUG_LEVEL */
; 245  : 
; 246  : 		return (_Mytree::_Myval(this->_Ptr));

  00000	8b 01		 mov	 eax, DWORD PTR [ecx]
  00002	83 c0 0c	 add	 eax, 12			; 0000000cH

; 247  : 		}

  00005	c3		 ret	 0
??D?$_Tree_const_iterator@V?$_Tree_val@V?$_Tmap_traits@HU_tagWaiting@@U?$less@H@std@@V?$allocator@U?$pair@$$CBHU_tagWaiting@@@std@@@3@$0A@@std@@@std@@@std@@QBEABU?$pair@$$CBHU_tagWaiting@@@1@XZ ENDP ; std::_Tree_const_iterator<std::_Tree_val<std::_Tmap_traits<int,_tagWaiting,std::less<int>,std::allocator<std::pair<int const ,_tagWaiting> >,0> > >::operator*
_TEXT	ENDS
PUBLIC	??E?$_Tree_unchecked_const_iterator@V?$_Tree_val@V?$_Tmap_traits@HU_tagWaiting@@U?$less@H@std@@V?$allocator@U?$pair@$$CBHU_tagWaiting@@@std@@@3@$0A@@std@@@std@@U_Iterator_base0@2@@std@@QAEAAV01@XZ ; std::_Tree_unchecked_const_iterator<std::_Tree_val<std::_Tmap_traits<int,_tagWaiting,std::less<int>,std::allocator<std::pair<int const ,_tagWaiting> >,0> >,std::_Iterator_base0>::operator++
; Function compile flags: /Ogtp
;	COMDAT ??E?$_Tree_unchecked_const_iterator@V?$_Tree_val@V?$_Tmap_traits@HU_tagWaiting@@U?$less@H@std@@V?$allocator@U?$pair@$$CBHU_tagWaiting@@@std@@@3@$0A@@std@@@std@@U_Iterator_base0@2@@std@@QAEAAV01@XZ
_TEXT	SEGMENT
??E?$_Tree_unchecked_const_iterator@V?$_Tree_val@V?$_Tmap_traits@HU_tagWaiting@@U?$less@H@std@@V?$allocator@U?$pair@$$CBHU_tagWaiting@@@std@@@3@$0A@@std@@@std@@U_Iterator_base0@2@@std@@QAEAAV01@XZ PROC ; std::_Tree_unchecked_const_iterator<std::_Tree_val<std::_Tmap_traits<int,_tagWaiting,std::less<int>,std::allocator<std::pair<int const ,_tagWaiting> >,0> >,std::_Iterator_base0>::operator++, COMDAT
; _this$ = ecx

; 58   : 		{	// preincrement

  00000	8b c1		 mov	 eax, ecx

; 59   : 		if (_Mytree::_Isnil(_Ptr))

  00002	8b 10		 mov	 edx, DWORD PTR [eax]
  00004	80 7a 21 00	 cmp	 BYTE PTR [edx+33], 0
  00008	75 40		 jne	 SHORT $LN3@operator

; 60   : 			;	// end() shouldn't be incremented, don't move
; 61   : 		else if (!_Mytree::_Isnil(_Mytree::_Right(_Ptr)))

  0000a	8b 4a 08	 mov	 ecx, DWORD PTR [edx+8]
  0000d	80 79 21 00	 cmp	 BYTE PTR [ecx+33], 0
  00011	75 1a		 jne	 SHORT $LN34@operator

; 62   : 			_Ptr = _Mytree::_Min(
; 63   : 				_Mytree::_Right(_Ptr));	// ==> smallest of right subtree

  00013	8b 11		 mov	 edx, DWORD PTR [ecx]
  00015	80 7a 21 00	 cmp	 BYTE PTR [edx+33], 0
  00019	75 0f		 jne	 SHORT $LN17@operator
  0001b	eb 03 8d 49 00	 npad	 5
$LL18@operator:
  00020	8b ca		 mov	 ecx, edx
  00022	8b 11		 mov	 edx, DWORD PTR [ecx]
  00024	80 7a 21 00	 cmp	 BYTE PTR [edx+33], 0
  00028	74 f6		 je	 SHORT $LL18@operator
$LN17@operator:
  0002a	89 08		 mov	 DWORD PTR [eax], ecx

; 71   : 			}
; 72   : 		return (*this);
; 73   : 		}

  0002c	c3		 ret	 0
$LN34@operator:

; 64   : 		else
; 65   : 			{	// climb looking for right subtree
; 66   : 			_Nodeptr _Pnode;
; 67   : 			while (!_Mytree::_Isnil(_Pnode = _Mytree::_Parent(_Ptr))
; 68   : 				&& _Ptr == _Mytree::_Right(_Pnode))

  0002d	8b 52 04	 mov	 edx, DWORD PTR [edx+4]
  00030	80 7a 21 00	 cmp	 BYTE PTR [edx+33], 0
  00034	75 12		 jne	 SHORT $LN1@operator
$LL2@operator:
  00036	8b 08		 mov	 ecx, DWORD PTR [eax]
  00038	3b 4a 08	 cmp	 ecx, DWORD PTR [edx+8]
  0003b	75 0b		 jne	 SHORT $LN1@operator

; 69   : 				_Ptr = _Pnode;	// ==> parent while right subtree

  0003d	89 10		 mov	 DWORD PTR [eax], edx
  0003f	8b 52 04	 mov	 edx, DWORD PTR [edx+4]
  00042	80 7a 21 00	 cmp	 BYTE PTR [edx+33], 0
  00046	74 ee		 je	 SHORT $LL2@operator
$LN1@operator:

; 70   : 			_Ptr = _Pnode;	// ==> parent (head if end())

  00048	89 10		 mov	 DWORD PTR [eax], edx
$LN3@operator:

; 71   : 			}
; 72   : 		return (*this);
; 73   : 		}

  0004a	c3		 ret	 0
??E?$_Tree_unchecked_const_iterator@V?$_Tree_val@V?$_Tmap_traits@HU_tagWaiting@@U?$less@H@std@@V?$allocator@U?$pair@$$CBHU_tagWaiting@@@std@@@3@$0A@@std@@@std@@U_Iterator_base0@2@@std@@QAEAAV01@XZ ENDP ; std::_Tree_unchecked_const_iterator<std::_Tree_val<std::_Tmap_traits<int,_tagWaiting,std::less<int>,std::allocator<std::pair<int const ,_tagWaiting> >,0> >,std::_Iterator_base0>::operator++
_TEXT	ENDS
PUBLIC	??D?$_Tree_const_iterator@V?$_Tree_val@V?$_Tmap_traits@HU_tagObserverInfo@@U?$less@H@std@@V?$allocator@U?$pair@$$CBHU_tagObserverInfo@@@std@@@3@$0A@@std@@@std@@@std@@QBEABU?$pair@$$CBHU_tagObserverInfo@@@1@XZ ; std::_Tree_const_iterator<std::_Tree_val<std::_Tmap_traits<int,_tagObserverInfo,std::less<int>,std::allocator<std::pair<int const ,_tagObserverInfo> >,0> > >::operator*
; Function compile flags: /Ogtp
;	COMDAT ??D?$_Tree_const_iterator@V?$_Tree_val@V?$_Tmap_traits@HU_tagObserverInfo@@U?$less@H@std@@V?$allocator@U?$pair@$$CBHU_tagObserverInfo@@@std@@@3@$0A@@std@@@std@@@std@@QBEABU?$pair@$$CBHU_tagObserverInfo@@@1@XZ
_TEXT	SEGMENT
??D?$_Tree_const_iterator@V?$_Tree_val@V?$_Tmap_traits@HU_tagObserverInfo@@U?$less@H@std@@V?$allocator@U?$pair@$$CBHU_tagObserverInfo@@@std@@@3@$0A@@std@@@std@@@std@@QBEABU?$pair@$$CBHU_tagObserverInfo@@@1@XZ PROC ; std::_Tree_const_iterator<std::_Tree_val<std::_Tmap_traits<int,_tagObserverInfo,std::less<int>,std::allocator<std::pair<int const ,_tagObserverInfo> >,0> > >::operator*, COMDAT
; _this$ = ecx

; 231  :  #if _ITERATOR_DEBUG_LEVEL == 2
; 232  : 		if (this->_Getcont() == 0
; 233  : 			|| this->_Ptr == 0
; 234  : 			|| this->_Ptr == ((_Mytree *)this->_Getcont())->_Myhead)
; 235  : 			{	// report error
; 236  : 			_DEBUG_ERROR("map/set iterator not dereferencable");
; 237  : 			_SCL_SECURE_OUT_OF_RANGE;
; 238  : 			}
; 239  : 
; 240  :  #elif _ITERATOR_DEBUG_LEVEL == 1
; 241  : 		_SCL_SECURE_VALIDATE(this->_Getcont() != 0 && this->_Ptr != 0);
; 242  : 		_SCL_SECURE_VALIDATE_RANGE(this->_Ptr !=
; 243  : 			((_Mytree *)this->_Getcont())->_Myhead);
; 244  :  #endif /* _ITERATOR_DEBUG_LEVEL */
; 245  : 
; 246  : 		return (_Mytree::_Myval(this->_Ptr));

  00000	8b 01		 mov	 eax, DWORD PTR [ecx]
  00002	83 c0 0c	 add	 eax, 12			; 0000000cH

; 247  : 		}

  00005	c3		 ret	 0
??D?$_Tree_const_iterator@V?$_Tree_val@V?$_Tmap_traits@HU_tagObserverInfo@@U?$less@H@std@@V?$allocator@U?$pair@$$CBHU_tagObserverInfo@@@std@@@3@$0A@@std@@@std@@@std@@QBEABU?$pair@$$CBHU_tagObserverInfo@@@1@XZ ENDP ; std::_Tree_const_iterator<std::_Tree_val<std::_Tmap_traits<int,_tagObserverInfo,std::less<int>,std::allocator<std::pair<int const ,_tagObserverInfo> >,0> > >::operator*
_TEXT	ENDS
PUBLIC	??E?$_Tree_unchecked_const_iterator@V?$_Tree_val@V?$_Tmap_traits@HU_tagObserverInfo@@U?$less@H@std@@V?$allocator@U?$pair@$$CBHU_tagObserverInfo@@@std@@@3@$0A@@std@@@std@@U_Iterator_base0@2@@std@@QAEAAV01@XZ ; std::_Tree_unchecked_const_iterator<std::_Tree_val<std::_Tmap_traits<int,_tagObserverInfo,std::less<int>,std::allocator<std::pair<int const ,_tagObserverInfo> >,0> >,std::_Iterator_base0>::operator++
; Function compile flags: /Ogtp
;	COMDAT ??E?$_Tree_unchecked_const_iterator@V?$_Tree_val@V?$_Tmap_traits@HU_tagObserverInfo@@U?$less@H@std@@V?$allocator@U?$pair@$$CBHU_tagObserverInfo@@@std@@@3@$0A@@std@@@std@@U_Iterator_base0@2@@std@@QAEAAV01@XZ
_TEXT	SEGMENT
??E?$_Tree_unchecked_const_iterator@V?$_Tree_val@V?$_Tmap_traits@HU_tagObserverInfo@@U?$less@H@std@@V?$allocator@U?$pair@$$CBHU_tagObserverInfo@@@std@@@3@$0A@@std@@@std@@U_Iterator_base0@2@@std@@QAEAAV01@XZ PROC ; std::_Tree_unchecked_const_iterator<std::_Tree_val<std::_Tmap_traits<int,_tagObserverInfo,std::less<int>,std::allocator<std::pair<int const ,_tagObserverInfo> >,0> >,std::_Iterator_base0>::operator++, COMDAT
; _this$ = ecx

; 58   : 		{	// preincrement

  00000	8b c1		 mov	 eax, ecx

; 59   : 		if (_Mytree::_Isnil(_Ptr))

  00002	8b 10		 mov	 edx, DWORD PTR [eax]
  00004	80 7a 25 00	 cmp	 BYTE PTR [edx+37], 0
  00008	75 40		 jne	 SHORT $LN3@operator@2

; 60   : 			;	// end() shouldn't be incremented, don't move
; 61   : 		else if (!_Mytree::_Isnil(_Mytree::_Right(_Ptr)))

  0000a	8b 4a 08	 mov	 ecx, DWORD PTR [edx+8]
  0000d	80 79 25 00	 cmp	 BYTE PTR [ecx+37], 0
  00011	75 1a		 jne	 SHORT $LN34@operator@2

; 62   : 			_Ptr = _Mytree::_Min(
; 63   : 				_Mytree::_Right(_Ptr));	// ==> smallest of right subtree

  00013	8b 11		 mov	 edx, DWORD PTR [ecx]
  00015	80 7a 25 00	 cmp	 BYTE PTR [edx+37], 0
  00019	75 0f		 jne	 SHORT $LN17@operator@2
  0001b	eb 03 8d 49 00	 npad	 5
$LL18@operator@2:
  00020	8b ca		 mov	 ecx, edx
  00022	8b 11		 mov	 edx, DWORD PTR [ecx]
  00024	80 7a 25 00	 cmp	 BYTE PTR [edx+37], 0
  00028	74 f6		 je	 SHORT $LL18@operator@2
$LN17@operator@2:
  0002a	89 08		 mov	 DWORD PTR [eax], ecx

; 71   : 			}
; 72   : 		return (*this);
; 73   : 		}

  0002c	c3		 ret	 0
$LN34@operator@2:

; 64   : 		else
; 65   : 			{	// climb looking for right subtree
; 66   : 			_Nodeptr _Pnode;
; 67   : 			while (!_Mytree::_Isnil(_Pnode = _Mytree::_Parent(_Ptr))
; 68   : 				&& _Ptr == _Mytree::_Right(_Pnode))

  0002d	8b 52 04	 mov	 edx, DWORD PTR [edx+4]
  00030	80 7a 25 00	 cmp	 BYTE PTR [edx+37], 0
  00034	75 12		 jne	 SHORT $LN1@operator@2
$LL2@operator@2:
  00036	8b 08		 mov	 ecx, DWORD PTR [eax]
  00038	3b 4a 08	 cmp	 ecx, DWORD PTR [edx+8]
  0003b	75 0b		 jne	 SHORT $LN1@operator@2

; 69   : 				_Ptr = _Pnode;	// ==> parent while right subtree

  0003d	89 10		 mov	 DWORD PTR [eax], edx
  0003f	8b 52 04	 mov	 edx, DWORD PTR [edx+4]
  00042	80 7a 25 00	 cmp	 BYTE PTR [edx+37], 0
  00046	74 ee		 je	 SHORT $LL2@operator@2
$LN1@operator@2:

; 70   : 			_Ptr = _Pnode;	// ==> parent (head if end())

  00048	89 10		 mov	 DWORD PTR [eax], edx
$LN3@operator@2:

; 71   : 			}
; 72   : 		return (*this);
; 73   : 		}

  0004a	c3		 ret	 0
??E?$_Tree_unchecked_const_iterator@V?$_Tree_val@V?$_Tmap_traits@HU_tagObserverInfo@@U?$less@H@std@@V?$allocator@U?$pair@$$CBHU_tagObserverInfo@@@std@@@3@$0A@@std@@@std@@U_Iterator_base0@2@@std@@QAEAAV01@XZ ENDP ; std::_Tree_unchecked_const_iterator<std::_Tree_val<std::_Tmap_traits<int,_tagObserverInfo,std::less<int>,std::allocator<std::pair<int const ,_tagObserverInfo> >,0> >,std::_Iterator_base0>::operator++
_TEXT	ENDS
PUBLIC	??_7bad_alloc@std@@6B@				; std::bad_alloc::`vftable'
PUBLIC	??0bad_alloc@std@@QAE@PBD@Z			; std::bad_alloc::bad_alloc
PUBLIC	??_R4bad_alloc@std@@6B@				; std::bad_alloc::`RTTI Complete Object Locator'
PUBLIC	??_R0?AVbad_alloc@std@@@8			; std::bad_alloc `RTTI Type Descriptor'
PUBLIC	??_R3bad_alloc@std@@8				; std::bad_alloc::`RTTI Class Hierarchy Descriptor'
PUBLIC	??_R2bad_alloc@std@@8				; std::bad_alloc::`RTTI Base Class Array'
PUBLIC	??_R1A@?0A@EA@bad_alloc@std@@8			; std::bad_alloc::`RTTI Base Class Descriptor at (0,-1,0,64)'
PUBLIC	??_R1A@?0A@EA@exception@std@@8			; std::exception::`RTTI Base Class Descriptor at (0,-1,0,64)'
PUBLIC	??_R0?AVexception@std@@@8			; std::exception `RTTI Type Descriptor'
PUBLIC	??_R3exception@std@@8				; std::exception::`RTTI Class Hierarchy Descriptor'
PUBLIC	??_R2exception@std@@8				; std::exception::`RTTI Base Class Array'
EXTRN	??0exception@std@@QAE@ABQBD@Z:PROC		; std::exception::exception
EXTRN	??_7type_info@@6B@:QWORD			; type_info::`vftable'
EXTRN	??_Ebad_alloc@std@@UAEPAXI@Z:PROC		; std::bad_alloc::`vector deleting destructor'
EXTRN	?what@exception@std@@UBEPBDXZ:PROC		; std::exception::what
;	COMDAT ??_R2exception@std@@8
; File c:\program files (x86)\microsoft visual studio 10.0\vc\include\exception
rdata$r	SEGMENT
??_R2exception@std@@8 DD FLAT:??_R1A@?0A@EA@exception@std@@8 ; std::exception::`RTTI Base Class Array'
rdata$r	ENDS
;	COMDAT ??_R3exception@std@@8
rdata$r	SEGMENT
??_R3exception@std@@8 DD 00H				; std::exception::`RTTI Class Hierarchy Descriptor'
	DD	00H
	DD	01H
	DD	FLAT:??_R2exception@std@@8
rdata$r	ENDS
;	COMDAT ??_R0?AVexception@std@@@8
_DATA	SEGMENT
??_R0?AVexception@std@@@8 DD FLAT:??_7type_info@@6B@	; std::exception `RTTI Type Descriptor'
	DD	00H
	DB	'.?AVexception@std@@', 00H
_DATA	ENDS
;	COMDAT ??_R1A@?0A@EA@exception@std@@8
rdata$r	SEGMENT
??_R1A@?0A@EA@exception@std@@8 DD FLAT:??_R0?AVexception@std@@@8 ; std::exception::`RTTI Base Class Descriptor at (0,-1,0,64)'
	DD	00H
	DD	00H
	DD	0ffffffffH
	DD	00H
	DD	040H
	DD	FLAT:??_R3exception@std@@8
rdata$r	ENDS
;	COMDAT ??_R1A@?0A@EA@bad_alloc@std@@8
rdata$r	SEGMENT
??_R1A@?0A@EA@bad_alloc@std@@8 DD FLAT:??_R0?AVbad_alloc@std@@@8 ; std::bad_alloc::`RTTI Base Class Descriptor at (0,-1,0,64)'
	DD	01H
	DD	00H
	DD	0ffffffffH
	DD	00H
	DD	040H
	DD	FLAT:??_R3bad_alloc@std@@8
rdata$r	ENDS
;	COMDAT ??_R2bad_alloc@std@@8
rdata$r	SEGMENT
??_R2bad_alloc@std@@8 DD FLAT:??_R1A@?0A@EA@bad_alloc@std@@8 ; std::bad_alloc::`RTTI Base Class Array'
	DD	FLAT:??_R1A@?0A@EA@exception@std@@8
rdata$r	ENDS
;	COMDAT ??_R3bad_alloc@std@@8
rdata$r	SEGMENT
??_R3bad_alloc@std@@8 DD 00H				; std::bad_alloc::`RTTI Class Hierarchy Descriptor'
	DD	00H
	DD	02H
	DD	FLAT:??_R2bad_alloc@std@@8
rdata$r	ENDS
;	COMDAT ??_R0?AVbad_alloc@std@@@8
_DATA	SEGMENT
??_R0?AVbad_alloc@std@@@8 DD FLAT:??_7type_info@@6B@	; std::bad_alloc `RTTI Type Descriptor'
	DD	00H
	DB	'.?AVbad_alloc@std@@', 00H
_DATA	ENDS
;	COMDAT ??_R4bad_alloc@std@@6B@
rdata$r	SEGMENT
??_R4bad_alloc@std@@6B@ DD 00H				; std::bad_alloc::`RTTI Complete Object Locator'
	DD	00H
	DD	00H
	DD	FLAT:??_R0?AVbad_alloc@std@@@8
	DD	FLAT:??_R3bad_alloc@std@@8
rdata$r	ENDS
;	COMDAT ??_7bad_alloc@std@@6B@
CONST	SEGMENT
??_7bad_alloc@std@@6B@ DD FLAT:??_R4bad_alloc@std@@6B@	; std::bad_alloc::`vftable'
	DD	FLAT:??_Ebad_alloc@std@@UAEPAXI@Z
	DD	FLAT:?what@exception@std@@UBEPBDXZ
; Function compile flags: /Ogtp
CONST	ENDS
;	COMDAT ??0bad_alloc@std@@QAE@PBD@Z
_TEXT	SEGMENT
__Message$ = 8						; size = 4
??0bad_alloc@std@@QAE@PBD@Z PROC			; std::bad_alloc::bad_alloc, COMDAT
; _this$ = ecx

; 345  : 		{	// construct from message string

  00000	55		 push	 ebp
  00001	8b ec		 mov	 ebp, esp
  00003	56		 push	 esi
  00004	8d 45 08	 lea	 eax, DWORD PTR __Message$[ebp]
  00007	50		 push	 eax
  00008	8b f1		 mov	 esi, ecx
  0000a	e8 00 00 00 00	 call	 ??0exception@std@@QAE@ABQBD@Z ; std::exception::exception
  0000f	c7 06 00 00 00
	00		 mov	 DWORD PTR [esi], OFFSET ??_7bad_alloc@std@@6B@

; 346  : 		}

  00015	8b c6		 mov	 eax, esi
  00017	5e		 pop	 esi
  00018	5d		 pop	 ebp
  00019	c2 04 00	 ret	 4
??0bad_alloc@std@@QAE@PBD@Z ENDP			; std::bad_alloc::bad_alloc
_TEXT	ENDS
PUBLIC	??1bad_alloc@std@@UAE@XZ			; std::bad_alloc::~bad_alloc
EXTRN	??1exception@std@@UAE@XZ:PROC			; std::exception::~exception
; Function compile flags: /Ogtp
;	COMDAT ??1bad_alloc@std@@UAE@XZ
_TEXT	SEGMENT
??1bad_alloc@std@@UAE@XZ PROC				; std::bad_alloc::~bad_alloc, COMDAT
; _this$ = ecx

; 354  : 		{	// destroy the object

  00000	c7 01 00 00 00
	00		 mov	 DWORD PTR [ecx], OFFSET ??_7bad_alloc@std@@6B@

; 355  : 		}

  00006	e9 00 00 00 00	 jmp	 ??1exception@std@@UAE@XZ ; std::exception::~exception
??1bad_alloc@std@@UAE@XZ ENDP				; std::bad_alloc::~bad_alloc
; Function compile flags: /Ogtp
_TEXT	ENDS
;	COMDAT ??_Gbad_alloc@std@@UAEPAXI@Z
_TEXT	SEGMENT
___flags$ = 8						; size = 4
??_Gbad_alloc@std@@UAEPAXI@Z PROC			; std::bad_alloc::`scalar deleting destructor', COMDAT
; _this$ = ecx
  00000	55		 push	 ebp
  00001	8b ec		 mov	 ebp, esp
  00003	56		 push	 esi
  00004	8b f1		 mov	 esi, ecx
  00006	c7 06 00 00 00
	00		 mov	 DWORD PTR [esi], OFFSET ??_7bad_alloc@std@@6B@
  0000c	e8 00 00 00 00	 call	 ??1exception@std@@UAE@XZ ; std::exception::~exception
  00011	f6 45 08 01	 test	 BYTE PTR ___flags$[ebp], 1
  00015	74 09		 je	 SHORT $LN6@scalar
  00017	56		 push	 esi
  00018	e8 00 00 00 00	 call	 ??3@YAXPAX@Z		; operator delete
  0001d	83 c4 04	 add	 esp, 4
$LN6@scalar:
  00020	8b c6		 mov	 eax, esi
  00022	5e		 pop	 esi
  00023	5d		 pop	 ebp
  00024	c2 04 00	 ret	 4
??_Gbad_alloc@std@@UAEPAXI@Z ENDP			; std::bad_alloc::`scalar deleting destructor'
_TEXT	ENDS
PUBLIC	??0?$_Tmap_traits@HU_tagWaiting@@U?$less@H@std@@V?$allocator@U?$pair@$$CBHU_tagWaiting@@@std@@@3@$0A@@std@@QAE@U?$less@H@1@@Z ; std::_Tmap_traits<int,_tagWaiting,std::less<int>,std::allocator<std::pair<int const ,_tagWaiting> >,0>::_Tmap_traits<int,_tagWaiting,std::less<int>,std::allocator<std::pair<int const ,_tagWaiting> >,0>
; Function compile flags: /Ogtp
; File c:\program files (x86)\microsoft visual studio 10.0\vc\include\map
;	COMDAT ??0?$_Tmap_traits@HU_tagWaiting@@U?$less@H@std@@V?$allocator@U?$pair@$$CBHU_tagWaiting@@@std@@@3@$0A@@std@@QAE@U?$less@H@1@@Z
_TEXT	SEGMENT
__Parg$ = 8						; size = 1
??0?$_Tmap_traits@HU_tagWaiting@@U?$less@H@std@@V?$allocator@U?$pair@$$CBHU_tagWaiting@@@std@@@3@$0A@@std@@QAE@U?$less@H@1@@Z PROC ; std::_Tmap_traits<int,_tagWaiting,std::less<int>,std::allocator<std::pair<int const ,_tagWaiting> >,0>::_Tmap_traits<int,_tagWaiting,std::less<int>,std::allocator<std::pair<int const ,_tagWaiting> >,0>, COMDAT
; _this$ = ecx

; 40   : 		{	// construct with specified comparator

  00000	8b c1		 mov	 eax, ecx

; 41   : 		}

  00002	c2 04 00	 ret	 4
??0?$_Tmap_traits@HU_tagWaiting@@U?$less@H@std@@V?$allocator@U?$pair@$$CBHU_tagWaiting@@@std@@@3@$0A@@std@@QAE@U?$less@H@1@@Z ENDP ; std::_Tmap_traits<int,_tagWaiting,std::less<int>,std::allocator<std::pair<int const ,_tagWaiting> >,0>::_Tmap_traits<int,_tagWaiting,std::less<int>,std::allocator<std::pair<int const ,_tagWaiting> >,0>
_TEXT	ENDS
PUBLIC	??0?$_Tmap_traits@HU_tagObserverInfo@@U?$less@H@std@@V?$allocator@U?$pair@$$CBHU_tagObserverInfo@@@std@@@3@$0A@@std@@QAE@U?$less@H@1@@Z ; std::_Tmap_traits<int,_tagObserverInfo,std::less<int>,std::allocator<std::pair<int const ,_tagObserverInfo> >,0>::_Tmap_traits<int,_tagObserverInfo,std::less<int>,std::allocator<std::pair<int const ,_tagObserverInfo> >,0>
; Function compile flags: /Ogtp
;	COMDAT ??0?$_Tmap_traits@HU_tagObserverInfo@@U?$less@H@std@@V?$allocator@U?$pair@$$CBHU_tagObserverInfo@@@std@@@3@$0A@@std@@QAE@U?$less@H@1@@Z
_TEXT	SEGMENT
__Parg$ = 8						; size = 1
??0?$_Tmap_traits@HU_tagObserverInfo@@U?$less@H@std@@V?$allocator@U?$pair@$$CBHU_tagObserverInfo@@@std@@@3@$0A@@std@@QAE@U?$less@H@1@@Z PROC ; std::_Tmap_traits<int,_tagObserverInfo,std::less<int>,std::allocator<std::pair<int const ,_tagObserverInfo> >,0>::_Tmap_traits<int,_tagObserverInfo,std::less<int>,std::allocator<std::pair<int const ,_tagObserverInfo> >,0>, COMDAT
; _this$ = ecx

; 40   : 		{	// construct with specified comparator

  00000	8b c1		 mov	 eax, ecx

; 41   : 		}

  00002	c2 04 00	 ret	 4
??0?$_Tmap_traits@HU_tagObserverInfo@@U?$less@H@std@@V?$allocator@U?$pair@$$CBHU_tagObserverInfo@@@std@@@3@$0A@@std@@QAE@U?$less@H@1@@Z ENDP ; std::_Tmap_traits<int,_tagObserverInfo,std::less<int>,std::allocator<std::pair<int const ,_tagObserverInfo> >,0>::_Tmap_traits<int,_tagObserverInfo,std::less<int>,std::allocator<std::pair<int const ,_tagObserverInfo> >,0>
_TEXT	ENDS
PUBLIC	??$addressof@U?$pair@$$CBHU_tagWaiting@@@std@@@std@@YAPAU?$pair@$$CBHU_tagWaiting@@@0@AAU10@@Z ; std::addressof<std::pair<int const ,_tagWaiting> >
; Function compile flags: /Ogtp
; File c:\program files (x86)\microsoft visual studio 10.0\vc\include\xmemory
;	COMDAT ??$addressof@U?$pair@$$CBHU_tagWaiting@@@std@@@std@@YAPAU?$pair@$$CBHU_tagWaiting@@@0@AAU10@@Z
_TEXT	SEGMENT
__Val$ = 8						; size = 4
??$addressof@U?$pair@$$CBHU_tagWaiting@@@std@@@std@@YAPAU?$pair@$$CBHU_tagWaiting@@@0@AAU10@@Z PROC ; std::addressof<std::pair<int const ,_tagWaiting> >, COMDAT

; 110  : 	{	// return address of _Val

  00000	55		 push	 ebp
  00001	8b ec		 mov	 ebp, esp

; 111  : 	return ((_Ty *) &(char&)_Val);

  00003	8b 45 08	 mov	 eax, DWORD PTR __Val$[ebp]

; 112  : 	}

  00006	5d		 pop	 ebp
  00007	c3		 ret	 0
??$addressof@U?$pair@$$CBHU_tagWaiting@@@std@@@std@@YAPAU?$pair@$$CBHU_tagWaiting@@@0@AAU10@@Z ENDP ; std::addressof<std::pair<int const ,_tagWaiting> >
_TEXT	ENDS
PUBLIC	??$addressof@U?$pair@$$CBHU_tagObserverInfo@@@std@@@std@@YAPAU?$pair@$$CBHU_tagObserverInfo@@@0@AAU10@@Z ; std::addressof<std::pair<int const ,_tagObserverInfo> >
; Function compile flags: /Ogtp
;	COMDAT ??$addressof@U?$pair@$$CBHU_tagObserverInfo@@@std@@@std@@YAPAU?$pair@$$CBHU_tagObserverInfo@@@0@AAU10@@Z
_TEXT	SEGMENT
__Val$ = 8						; size = 4
??$addressof@U?$pair@$$CBHU_tagObserverInfo@@@std@@@std@@YAPAU?$pair@$$CBHU_tagObserverInfo@@@0@AAU10@@Z PROC ; std::addressof<std::pair<int const ,_tagObserverInfo> >, COMDAT

; 110  : 	{	// return address of _Val

  00000	55		 push	 ebp
  00001	8b ec		 mov	 ebp, esp

; 111  : 	return ((_Ty *) &(char&)_Val);

  00003	8b 45 08	 mov	 eax, DWORD PTR __Val$[ebp]

; 112  : 	}

  00006	5d		 pop	 ebp
  00007	c3		 ret	 0
??$addressof@U?$pair@$$CBHU_tagObserverInfo@@@std@@@std@@YAPAU?$pair@$$CBHU_tagObserverInfo@@@0@AAU10@@Z ENDP ; std::addressof<std::pair<int const ,_tagObserverInfo> >
_TEXT	ENDS
PUBLIC	??$_Kfn@$$CBHU_tagWaiting@@@?$_Tmap_traits@HU_tagWaiting@@U?$less@H@std@@V?$allocator@U?$pair@$$CBHU_tagWaiting@@@std@@@3@$0A@@std@@SAABHABU?$pair@$$CBHU_tagWaiting@@@1@@Z ; std::_Tmap_traits<int,_tagWaiting,std::less<int>,std::allocator<std::pair<int const ,_tagWaiting> >,0>::_Kfn<int const ,_tagWaiting>
; Function compile flags: /Ogtp
; File c:\program files (x86)\microsoft visual studio 10.0\vc\include\map
;	COMDAT ??$_Kfn@$$CBHU_tagWaiting@@@?$_Tmap_traits@HU_tagWaiting@@U?$less@H@std@@V?$allocator@U?$pair@$$CBHU_tagWaiting@@@std@@@3@$0A@@std@@SAABHABU?$pair@$$CBHU_tagWaiting@@@1@@Z
_TEXT	SEGMENT
__Val$ = 8						; size = 4
??$_Kfn@$$CBHU_tagWaiting@@@?$_Tmap_traits@HU_tagWaiting@@U?$less@H@std@@V?$allocator@U?$pair@$$CBHU_tagWaiting@@@std@@@3@$0A@@std@@SAABHABU?$pair@$$CBHU_tagWaiting@@@1@@Z PROC ; std::_Tmap_traits<int,_tagWaiting,std::less<int>,std::allocator<std::pair<int const ,_tagWaiting> >,0>::_Kfn<int const ,_tagWaiting>, COMDAT

; 66   : 		static const _Kty& _Kfn(const _STD pair<_Ty1, _Ty2>& _Val)

  00000	55		 push	 ebp
  00001	8b ec		 mov	 ebp, esp

; 67   : 		{	// extract key from element value
; 68   : 		return (_Val.first);

  00003	8b 45 08	 mov	 eax, DWORD PTR __Val$[ebp]

; 69   : 		}

  00006	5d		 pop	 ebp
  00007	c3		 ret	 0
??$_Kfn@$$CBHU_tagWaiting@@@?$_Tmap_traits@HU_tagWaiting@@U?$less@H@std@@V?$allocator@U?$pair@$$CBHU_tagWaiting@@@std@@@3@$0A@@std@@SAABHABU?$pair@$$CBHU_tagWaiting@@@1@@Z ENDP ; std::_Tmap_traits<int,_tagWaiting,std::less<int>,std::allocator<std::pair<int const ,_tagWaiting> >,0>::_Kfn<int const ,_tagWaiting>
_TEXT	ENDS
PUBLIC	??$_Kfn@$$CBHU_tagObserverInfo@@@?$_Tmap_traits@HU_tagObserverInfo@@U?$less@H@std@@V?$allocator@U?$pair@$$CBHU_tagObserverInfo@@@std@@@3@$0A@@std@@SAABHABU?$pair@$$CBHU_tagObserverInfo@@@1@@Z ; std::_Tmap_traits<int,_tagObserverInfo,std::less<int>,std::allocator<std::pair<int const ,_tagObserverInfo> >,0>::_Kfn<int const ,_tagObserverInfo>
; Function compile flags: /Ogtp
;	COMDAT ??$_Kfn@$$CBHU_tagObserverInfo@@@?$_Tmap_traits@HU_tagObserverInfo@@U?$less@H@std@@V?$allocator@U?$pair@$$CBHU_tagObserverInfo@@@std@@@3@$0A@@std@@SAABHABU?$pair@$$CBHU_tagObserverInfo@@@1@@Z
_TEXT	SEGMENT
__Val$ = 8						; size = 4
??$_Kfn@$$CBHU_tagObserverInfo@@@?$_Tmap_traits@HU_tagObserverInfo@@U?$less@H@std@@V?$allocator@U?$pair@$$CBHU_tagObserverInfo@@@std@@@3@$0A@@std@@SAABHABU?$pair@$$CBHU_tagObserverInfo@@@1@@Z PROC ; std::_Tmap_traits<int,_tagObserverInfo,std::less<int>,std::allocator<std::pair<int const ,_tagObserverInfo> >,0>::_Kfn<int const ,_tagObserverInfo>, COMDAT

; 66   : 		static const _Kty& _Kfn(const _STD pair<_Ty1, _Ty2>& _Val)

  00000	55		 push	 ebp
  00001	8b ec		 mov	 ebp, esp

; 67   : 		{	// extract key from element value
; 68   : 		return (_Val.first);

  00003	8b 45 08	 mov	 eax, DWORD PTR __Val$[ebp]

; 69   : 		}

  00006	5d		 pop	 ebp
  00007	c3		 ret	 0
??$_Kfn@$$CBHU_tagObserverInfo@@@?$_Tmap_traits@HU_tagObserverInfo@@U?$less@H@std@@V?$allocator@U?$pair@$$CBHU_tagObserverInfo@@@std@@@3@$0A@@std@@SAABHABU?$pair@$$CBHU_tagObserverInfo@@@1@@Z ENDP ; std::_Tmap_traits<int,_tagObserverInfo,std::less<int>,std::allocator<std::pair<int const ,_tagObserverInfo> >,0>::_Kfn<int const ,_tagObserverInfo>
_TEXT	ENDS
PUBLIC	??$?0U?$pair@$$CBHU_tagWaiting@@@std@@@?$allocator@U_Node@?$_Tree_nod@V?$_Tmap_traits@HU_tagWaiting@@U?$less@H@std@@V?$allocator@U?$pair@$$CBHU_tagWaiting@@@std@@@3@$0A@@std@@@std@@@std@@QAE@ABV?$allocator@U?$pair@$$CBHU_tagWaiting@@@std@@@1@@Z ; std::allocator<std::_Tree_nod<std::_Tmap_traits<int,_tagWaiting,std::less<int>,std::allocator<std::pair<int const ,_tagWaiting> >,0> >::_Node>::allocator<std::_Tree_nod<std::_Tmap_traits<int,_tagWaiting,std::less<int>,std::allocator<std::pair<int const ,_tagWaiting> >,0> >::_Node><std::pair<int const ,_tagWaiting> >
; Function compile flags: /Ogtp
; File c:\program files (x86)\microsoft visual studio 10.0\vc\include\xmemory
;	COMDAT ??$?0U?$pair@$$CBHU_tagWaiting@@@std@@@?$allocator@U_Node@?$_Tree_nod@V?$_Tmap_traits@HU_tagWaiting@@U?$less@H@std@@V?$allocator@U?$pair@$$CBHU_tagWaiting@@@std@@@3@$0A@@std@@@std@@@std@@QAE@ABV?$allocator@U?$pair@$$CBHU_tagWaiting@@@std@@@1@@Z
_TEXT	SEGMENT
___formal$ = 8						; size = 4
??$?0U?$pair@$$CBHU_tagWaiting@@@std@@@?$allocator@U_Node@?$_Tree_nod@V?$_Tmap_traits@HU_tagWaiting@@U?$less@H@std@@V?$allocator@U?$pair@$$CBHU_tagWaiting@@@std@@@3@$0A@@std@@@std@@@std@@QAE@ABV?$allocator@U?$pair@$$CBHU_tagWaiting@@@std@@@1@@Z PROC ; std::allocator<std::_Tree_nod<std::_Tmap_traits<int,_tagWaiting,std::less<int>,std::allocator<std::pair<int const ,_tagWaiting> >,0> >::_Node>::allocator<std::_Tree_nod<std::_Tmap_traits<int,_tagWaiting,std::less<int>,std::allocator<std::pair<int const ,_tagWaiting> >,0> >::_Node><std::pair<int const ,_tagWaiting> >, COMDAT
; _this$ = ecx

; 170  : 		_ALLOCATOR(const _ALLOCATOR<_Other>&) _THROW0()

  00000	8b c1		 mov	 eax, ecx

; 171  : 		{	// construct from a related allocator (do nothing)
; 172  : 		}

  00002	c2 04 00	 ret	 4
??$?0U?$pair@$$CBHU_tagWaiting@@@std@@@?$allocator@U_Node@?$_Tree_nod@V?$_Tmap_traits@HU_tagWaiting@@U?$less@H@std@@V?$allocator@U?$pair@$$CBHU_tagWaiting@@@std@@@3@$0A@@std@@@std@@@std@@QAE@ABV?$allocator@U?$pair@$$CBHU_tagWaiting@@@std@@@1@@Z ENDP ; std::allocator<std::_Tree_nod<std::_Tmap_traits<int,_tagWaiting,std::less<int>,std::allocator<std::pair<int const ,_tagWaiting> >,0> >::_Node>::allocator<std::_Tree_nod<std::_Tmap_traits<int,_tagWaiting,std::less<int>,std::allocator<std::pair<int const ,_tagWaiting> >,0> >::_Node><std::pair<int const ,_tagWaiting> >
_TEXT	ENDS
PUBLIC	__TI2?AVbad_alloc@std@@
PUBLIC	??$_Allocate@U_Node@?$_Tree_nod@V?$_Tmap_traits@HU_tagWaiting@@U?$less@H@std@@V?$allocator@U?$pair@$$CBHU_tagWaiting@@@std@@@3@$0A@@std@@@std@@@std@@YAPAU_Node@?$_Tree_nod@V?$_Tmap_traits@HU_tagWaiting@@U?$less@H@std@@V?$allocator@U?$pair@$$CBHU_tagWaiting@@@std@@@3@$0A@@std@@@0@IPAU120@@Z ; std::_Allocate<std::_Tree_nod<std::_Tmap_traits<int,_tagWaiting,std::less<int>,std::allocator<std::pair<int const ,_tagWaiting> >,0> >::_Node>
PUBLIC	__CTA2?AVbad_alloc@std@@
PUBLIC	__CT??_R0?AVbad_alloc@std@@@8??0bad_alloc@std@@QAE@ABV01@@Z12
PUBLIC	??0bad_alloc@std@@QAE@ABV01@@Z			; std::bad_alloc::bad_alloc
PUBLIC	__CT??_R0?AVexception@std@@@8??0exception@std@@QAE@ABV01@@Z12
EXTRN	??2@YAPAXI@Z:PROC				; operator new
EXTRN	__CxxThrowException@8:PROC
EXTRN	??0exception@std@@QAE@ABV01@@Z:PROC		; std::exception::exception
;	COMDAT __CT??_R0?AVexception@std@@@8??0exception@std@@QAE@ABV01@@Z12
; File c:\program files (x86)\microsoft visual studio 10.0\vc\include\exception
xdata$x	SEGMENT
__CT??_R0?AVexception@std@@@8??0exception@std@@QAE@ABV01@@Z12 DD 00H
	DD	FLAT:??_R0?AVexception@std@@@8
	DD	00H
	DD	0ffffffffH
	ORG $+4
	DD	0cH
	DD	FLAT:??0exception@std@@QAE@ABV01@@Z
xdata$x	ENDS
;	COMDAT __CT??_R0?AVbad_alloc@std@@@8??0bad_alloc@std@@QAE@ABV01@@Z12
xdata$x	SEGMENT
__CT??_R0?AVbad_alloc@std@@@8??0bad_alloc@std@@QAE@ABV01@@Z12 DD 00H
	DD	FLAT:??_R0?AVbad_alloc@std@@@8
	DD	00H
	DD	0ffffffffH
	ORG $+4
	DD	0cH
	DD	FLAT:??0bad_alloc@std@@QAE@ABV01@@Z
xdata$x	ENDS
;	COMDAT __CTA2?AVbad_alloc@std@@
xdata$x	SEGMENT
__CTA2?AVbad_alloc@std@@ DD 02H
	DD	FLAT:__CT??_R0?AVbad_alloc@std@@@8??0bad_alloc@std@@QAE@ABV01@@Z12
	DD	FLAT:__CT??_R0?AVexception@std@@@8??0exception@std@@QAE@ABV01@@Z12
xdata$x	ENDS
;	COMDAT __TI2?AVbad_alloc@std@@
xdata$x	SEGMENT
__TI2?AVbad_alloc@std@@ DD 00H
	DD	FLAT:??1bad_alloc@std@@UAE@XZ
	DD	00H
	DD	FLAT:__CTA2?AVbad_alloc@std@@
; Function compile flags: /Ogtp
; File c:\program files (x86)\microsoft visual studio 10.0\vc\include\xmemory
xdata$x	ENDS
;	COMDAT ??$_Allocate@U_Node@?$_Tree_nod@V?$_Tmap_traits@HU_tagWaiting@@U?$less@H@std@@V?$allocator@U?$pair@$$CBHU_tagWaiting@@@std@@@3@$0A@@std@@@std@@@std@@YAPAU_Node@?$_Tree_nod@V?$_Tmap_traits@HU_tagWaiting@@U?$less@H@std@@V?$allocator@U?$pair@$$CBHU_tagWaiting@@@std@@@3@$0A@@std@@@0@IPAU120@@Z
_TEXT	SEGMENT
$T194496 = -12						; size = 12
$T194501 = 8						; size = 4
__Count$ = 8						; size = 4
___formal$ = 12						; size = 4
??$_Allocate@U_Node@?$_Tree_nod@V?$_Tmap_traits@HU_tagWaiting@@U?$less@H@std@@V?$allocator@U?$pair@$$CBHU_tagWaiting@@@std@@@3@$0A@@std@@@std@@@std@@YAPAU_Node@?$_Tree_nod@V?$_Tmap_traits@HU_tagWaiting@@U?$less@H@std@@V?$allocator@U?$pair@$$CBHU_tagWaiting@@@std@@@3@$0A@@std@@@0@IPAU120@@Z PROC ; std::_Allocate<std::_Tree_nod<std::_Tmap_traits<int,_tagWaiting,std::less<int>,std::allocator<std::pair<int const ,_tagWaiting> >,0> >::_Node>, COMDAT

; 30   : 	{	// allocate storage for _Count elements of type _Ty

  00000	55		 push	 ebp
  00001	8b ec		 mov	 ebp, esp

; 31   : 	void *_Ptr = 0;
; 32   : 
; 33   : 	if (_Count <= 0)

  00003	8b 4d 08	 mov	 ecx, DWORD PTR __Count$[ebp]
  00006	83 ec 0c	 sub	 esp, 12			; 0000000cH
  00009	33 c0		 xor	 eax, eax
  0000b	85 c9		 test	 ecx, ecx

; 34   : 		_Count = 0;
; 35   : 	else if (((_SIZT)(-1) / sizeof (_Ty) < _Count)

  0000d	74 44		 je	 SHORT $LN5@Allocate

; 36   : 		|| (_Ptr = ::operator new(_Count * sizeof (_Ty))) == 0)

  0000f	81 f9 c7 71 1c
	07		 cmp	 ecx, 119304647		; 071c71c7H
  00015	77 14		 ja	 SHORT $LN1@Allocate
  00017	8d 04 c9	 lea	 eax, DWORD PTR [ecx+ecx*8]
  0001a	03 c0		 add	 eax, eax
  0001c	03 c0		 add	 eax, eax
  0001e	50		 push	 eax
  0001f	e8 00 00 00 00	 call	 ??2@YAPAXI@Z		; operator new
  00024	83 c4 04	 add	 esp, 4
  00027	85 c0		 test	 eax, eax

; 38   : 
; 39   : 	return ((_Ty _FARQ *)_Ptr);

  00029	75 28		 jne	 SHORT $LN5@Allocate
$LN1@Allocate:

; 37   : 		_THROW_NCEE(bad_alloc, 0);

  0002b	8d 4d 08	 lea	 ecx, DWORD PTR $T194501[ebp]
  0002e	51		 push	 ecx
  0002f	8d 4d f4	 lea	 ecx, DWORD PTR $T194496[ebp]
  00032	c7 45 08 00 00
	00 00		 mov	 DWORD PTR $T194501[ebp], 0
  00039	e8 00 00 00 00	 call	 ??0exception@std@@QAE@ABQBD@Z ; std::exception::exception
  0003e	68 00 00 00 00	 push	 OFFSET __TI2?AVbad_alloc@std@@
  00043	8d 55 f4	 lea	 edx, DWORD PTR $T194496[ebp]
  00046	52		 push	 edx
  00047	c7 45 f4 00 00
	00 00		 mov	 DWORD PTR $T194496[ebp], OFFSET ??_7bad_alloc@std@@6B@
  0004e	e8 00 00 00 00	 call	 __CxxThrowException@8
$LN10@Allocate:
$LN5@Allocate:

; 40   : 	}

  00053	8b e5		 mov	 esp, ebp
  00055	5d		 pop	 ebp
  00056	c3		 ret	 0
$LN9@Allocate:
??$_Allocate@U_Node@?$_Tree_nod@V?$_Tmap_traits@HU_tagWaiting@@U?$less@H@std@@V?$allocator@U?$pair@$$CBHU_tagWaiting@@@std@@@3@$0A@@std@@@std@@@std@@YAPAU_Node@?$_Tree_nod@V?$_Tmap_traits@HU_tagWaiting@@U?$less@H@std@@V?$allocator@U?$pair@$$CBHU_tagWaiting@@@std@@@3@$0A@@std@@@0@IPAU120@@Z ENDP ; std::_Allocate<std::_Tree_nod<std::_Tmap_traits<int,_tagWaiting,std::less<int>,std::allocator<std::pair<int const ,_tagWaiting> >,0> >::_Node>
_TEXT	ENDS
PUBLIC	??$?0U?$pair@$$CBHU_tagObserverInfo@@@std@@@?$allocator@U_Node@?$_Tree_nod@V?$_Tmap_traits@HU_tagObserverInfo@@U?$less@H@std@@V?$allocator@U?$pair@$$CBHU_tagObserverInfo@@@std@@@3@$0A@@std@@@std@@@std@@QAE@ABV?$allocator@U?$pair@$$CBHU_tagObserverInfo@@@std@@@1@@Z ; std::allocator<std::_Tree_nod<std::_Tmap_traits<int,_tagObserverInfo,std::less<int>,std::allocator<std::pair<int const ,_tagObserverInfo> >,0> >::_Node>::allocator<std::_Tree_nod<std::_Tmap_traits<int,_tagObserverInfo,std::less<int>,std::allocator<std::pair<int const ,_tagObserverInfo> >,0> >::_Node><std::pair<int const ,_tagObserverInfo> >
; Function compile flags: /Ogtp
;	COMDAT ??$?0U?$pair@$$CBHU_tagObserverInfo@@@std@@@?$allocator@U_Node@?$_Tree_nod@V?$_Tmap_traits@HU_tagObserverInfo@@U?$less@H@std@@V?$allocator@U?$pair@$$CBHU_tagObserverInfo@@@std@@@3@$0A@@std@@@std@@@std@@QAE@ABV?$allocator@U?$pair@$$CBHU_tagObserverInfo@@@std@@@1@@Z
_TEXT	SEGMENT
___formal$ = 8						; size = 4
??$?0U?$pair@$$CBHU_tagObserverInfo@@@std@@@?$allocator@U_Node@?$_Tree_nod@V?$_Tmap_traits@HU_tagObserverInfo@@U?$less@H@std@@V?$allocator@U?$pair@$$CBHU_tagObserverInfo@@@std@@@3@$0A@@std@@@std@@@std@@QAE@ABV?$allocator@U?$pair@$$CBHU_tagObserverInfo@@@std@@@1@@Z PROC ; std::allocator<std::_Tree_nod<std::_Tmap_traits<int,_tagObserverInfo,std::less<int>,std::allocator<std::pair<int const ,_tagObserverInfo> >,0> >::_Node>::allocator<std::_Tree_nod<std::_Tmap_traits<int,_tagObserverInfo,std::less<int>,std::allocator<std::pair<int const ,_tagObserverInfo> >,0> >::_Node><std::pair<int const ,_tagObserverInfo> >, COMDAT
; _this$ = ecx

; 170  : 		_ALLOCATOR(const _ALLOCATOR<_Other>&) _THROW0()

  00000	8b c1		 mov	 eax, ecx

; 171  : 		{	// construct from a related allocator (do nothing)
; 172  : 		}

  00002	c2 04 00	 ret	 4
??$?0U?$pair@$$CBHU_tagObserverInfo@@@std@@@?$allocator@U_Node@?$_Tree_nod@V?$_Tmap_traits@HU_tagObserverInfo@@U?$less@H@std@@V?$allocator@U?$pair@$$CBHU_tagObserverInfo@@@std@@@3@$0A@@std@@@std@@@std@@QAE@ABV?$allocator@U?$pair@$$CBHU_tagObserverInfo@@@std@@@1@@Z ENDP ; std::allocator<std::_Tree_nod<std::_Tmap_traits<int,_tagObserverInfo,std::less<int>,std::allocator<std::pair<int const ,_tagObserverInfo> >,0> >::_Node>::allocator<std::_Tree_nod<std::_Tmap_traits<int,_tagObserverInfo,std::less<int>,std::allocator<std::pair<int const ,_tagObserverInfo> >,0> >::_Node><std::pair<int const ,_tagObserverInfo> >
_TEXT	ENDS
PUBLIC	??$_Allocate@U_Node@?$_Tree_nod@V?$_Tmap_traits@HU_tagObserverInfo@@U?$less@H@std@@V?$allocator@U?$pair@$$CBHU_tagObserverInfo@@@std@@@3@$0A@@std@@@std@@@std@@YAPAU_Node@?$_Tree_nod@V?$_Tmap_traits@HU_tagObserverInfo@@U?$less@H@std@@V?$allocator@U?$pair@$$CBHU_tagObserverInfo@@@std@@@3@$0A@@std@@@0@IPAU120@@Z ; std::_Allocate<std::_Tree_nod<std::_Tmap_traits<int,_tagObserverInfo,std::less<int>,std::allocator<std::pair<int const ,_tagObserverInfo> >,0> >::_Node>
; Function compile flags: /Ogtp
;	COMDAT ??$_Allocate@U_Node@?$_Tree_nod@V?$_Tmap_traits@HU_tagObserverInfo@@U?$less@H@std@@V?$allocator@U?$pair@$$CBHU_tagObserverInfo@@@std@@@3@$0A@@std@@@std@@@std@@YAPAU_Node@?$_Tree_nod@V?$_Tmap_traits@HU_tagObserverInfo@@U?$less@H@std@@V?$allocator@U?$pair@$$CBHU_tagObserverInfo@@@std@@@3@$0A@@std@@@0@IPAU120@@Z
_TEXT	SEGMENT
$T194509 = -12						; size = 12
$T194513 = 8						; size = 4
__Count$ = 8						; size = 4
___formal$ = 12						; size = 4
??$_Allocate@U_Node@?$_Tree_nod@V?$_Tmap_traits@HU_tagObserverInfo@@U?$less@H@std@@V?$allocator@U?$pair@$$CBHU_tagObserverInfo@@@std@@@3@$0A@@std@@@std@@@std@@YAPAU_Node@?$_Tree_nod@V?$_Tmap_traits@HU_tagObserverInfo@@U?$less@H@std@@V?$allocator@U?$pair@$$CBHU_tagObserverInfo@@@std@@@3@$0A@@std@@@0@IPAU120@@Z PROC ; std::_Allocate<std::_Tree_nod<std::_Tmap_traits<int,_tagObserverInfo,std::less<int>,std::allocator<std::pair<int const ,_tagObserverInfo> >,0> >::_Node>, COMDAT

; 30   : 	{	// allocate storage for _Count elements of type _Ty

  00000	55		 push	 ebp
  00001	8b ec		 mov	 ebp, esp

; 31   : 	void *_Ptr = 0;
; 32   : 
; 33   : 	if (_Count <= 0)

  00003	8b 4d 08	 mov	 ecx, DWORD PTR __Count$[ebp]
  00006	83 ec 0c	 sub	 esp, 12			; 0000000cH
  00009	33 c0		 xor	 eax, eax
  0000b	85 c9		 test	 ecx, ecx

; 34   : 		_Count = 0;
; 35   : 	else if (((_SIZT)(-1) / sizeof (_Ty) < _Count)

  0000d	74 46		 je	 SHORT $LN5@Allocate@2

; 36   : 		|| (_Ptr = ::operator new(_Count * sizeof (_Ty))) == 0)

  0000f	81 f9 66 66 66
	06		 cmp	 ecx, 107374182		; 06666666H
  00015	77 16		 ja	 SHORT $LN1@Allocate@2
  00017	8d 04 89	 lea	 eax, DWORD PTR [ecx+ecx*4]
  0001a	03 c0		 add	 eax, eax
  0001c	03 c0		 add	 eax, eax
  0001e	03 c0		 add	 eax, eax
  00020	50		 push	 eax
  00021	e8 00 00 00 00	 call	 ??2@YAPAXI@Z		; operator new
  00026	83 c4 04	 add	 esp, 4
  00029	85 c0		 test	 eax, eax

; 38   : 
; 39   : 	return ((_Ty _FARQ *)_Ptr);

  0002b	75 28		 jne	 SHORT $LN5@Allocate@2
$LN1@Allocate@2:

; 37   : 		_THROW_NCEE(bad_alloc, 0);

  0002d	8d 4d 08	 lea	 ecx, DWORD PTR $T194513[ebp]
  00030	51		 push	 ecx
  00031	8d 4d f4	 lea	 ecx, DWORD PTR $T194509[ebp]
  00034	c7 45 08 00 00
	00 00		 mov	 DWORD PTR $T194513[ebp], 0
  0003b	e8 00 00 00 00	 call	 ??0exception@std@@QAE@ABQBD@Z ; std::exception::exception
  00040	68 00 00 00 00	 push	 OFFSET __TI2?AVbad_alloc@std@@
  00045	8d 55 f4	 lea	 edx, DWORD PTR $T194509[ebp]
  00048	52		 push	 edx
  00049	c7 45 f4 00 00
	00 00		 mov	 DWORD PTR $T194509[ebp], OFFSET ??_7bad_alloc@std@@6B@
  00050	e8 00 00 00 00	 call	 __CxxThrowException@8
$LN10@Allocate@2:
$LN5@Allocate@2:

; 40   : 	}

  00055	8b e5		 mov	 esp, ebp
  00057	5d		 pop	 ebp
  00058	c3		 ret	 0
$LN9@Allocate@2:
??$_Allocate@U_Node@?$_Tree_nod@V?$_Tmap_traits@HU_tagObserverInfo@@U?$less@H@std@@V?$allocator@U?$pair@$$CBHU_tagObserverInfo@@@std@@@3@$0A@@std@@@std@@@std@@YAPAU_Node@?$_Tree_nod@V?$_Tmap_traits@HU_tagObserverInfo@@U?$less@H@std@@V?$allocator@U?$pair@$$CBHU_tagObserverInfo@@@std@@@3@$0A@@std@@@0@IPAU120@@Z ENDP ; std::_Allocate<std::_Tree_nod<std::_Tmap_traits<int,_tagObserverInfo,std::less<int>,std::allocator<std::pair<int const ,_tagObserverInfo> >,0> >::_Node>
_TEXT	ENDS
PUBLIC	?_Adopt@_Iterator_base0@std@@QAEXPBX@Z		; std::_Iterator_base0::_Adopt
; Function compile flags: /Ogtp
; File c:\program files (x86)\microsoft visual studio 10.0\vc\include\xutility
;	COMDAT ?_Adopt@_Iterator_base0@std@@QAEXPBX@Z
_TEXT	SEGMENT
___formal$ = 8						; size = 4
?_Adopt@_Iterator_base0@std@@QAEXPBX@Z PROC		; std::_Iterator_base0::_Adopt, COMDAT
; _this$ = ecx

; 49   : 		}

  00000	c2 04 00	 ret	 4
?_Adopt@_Iterator_base0@std@@QAEXPBX@Z ENDP		; std::_Iterator_base0::_Adopt
_TEXT	ENDS
PUBLIC	?max_size@?$allocator@U?$pair@$$CBHU_tagWaiting@@@std@@@std@@QBEIXZ ; std::allocator<std::pair<int const ,_tagWaiting> >::max_size
; Function compile flags: /Ogtp
; File c:\program files (x86)\microsoft visual studio 10.0\vc\include\xmemory
;	COMDAT ?max_size@?$allocator@U?$pair@$$CBHU_tagWaiting@@@std@@@std@@QBEIXZ
_TEXT	SEGMENT
?max_size@?$allocator@U?$pair@$$CBHU_tagWaiting@@@std@@@std@@QBEIXZ PROC ; std::allocator<std::pair<int const ,_tagWaiting> >::max_size, COMDAT
; _this$ = ecx

; 218  : 		_SIZT _Count = (_SIZT)(-1) / sizeof (_Ty);
; 219  : 		return (0 < _Count ? _Count : 1);

  00000	b8 cc cc cc 0c	 mov	 eax, 214748364		; 0cccccccH

; 220  : 		}

  00005	c3		 ret	 0
?max_size@?$allocator@U?$pair@$$CBHU_tagWaiting@@@std@@@std@@QBEIXZ ENDP ; std::allocator<std::pair<int const ,_tagWaiting> >::max_size
_TEXT	ENDS
PUBLIC	?max_size@?$allocator@U?$pair@$$CBHU_tagObserverInfo@@@std@@@std@@QBEIXZ ; std::allocator<std::pair<int const ,_tagObserverInfo> >::max_size
; Function compile flags: /Ogtp
;	COMDAT ?max_size@?$allocator@U?$pair@$$CBHU_tagObserverInfo@@@std@@@std@@QBEIXZ
_TEXT	SEGMENT
?max_size@?$allocator@U?$pair@$$CBHU_tagObserverInfo@@@std@@@std@@QBEIXZ PROC ; std::allocator<std::pair<int const ,_tagObserverInfo> >::max_size, COMDAT
; _this$ = ecx

; 218  : 		_SIZT _Count = (_SIZT)(-1) / sizeof (_Ty);
; 219  : 		return (0 < _Count ? _Count : 1);

  00000	b8 aa aa aa 0a	 mov	 eax, 178956970		; 0aaaaaaaH

; 220  : 		}

  00005	c3		 ret	 0
?max_size@?$allocator@U?$pair@$$CBHU_tagObserverInfo@@@std@@@std@@QBEIXZ ENDP ; std::allocator<std::pair<int const ,_tagObserverInfo> >::max_size
_TEXT	ENDS
PUBLIC	??F?$_Tree_unchecked_const_iterator@V?$_Tree_val@V?$_Tmap_traits@HU_tagWaiting@@U?$less@H@std@@V?$allocator@U?$pair@$$CBHU_tagWaiting@@@std@@@3@$0A@@std@@@std@@U_Iterator_base0@2@@std@@QAEAAV01@XZ ; std::_Tree_unchecked_const_iterator<std::_Tree_val<std::_Tmap_traits<int,_tagWaiting,std::less<int>,std::allocator<std::pair<int const ,_tagWaiting> >,0> >,std::_Iterator_base0>::operator--
; Function compile flags: /Ogtp
; File c:\program files (x86)\microsoft visual studio 10.0\vc\include\xtree
;	COMDAT ??F?$_Tree_unchecked_const_iterator@V?$_Tree_val@V?$_Tmap_traits@HU_tagWaiting@@U?$less@H@std@@V?$allocator@U?$pair@$$CBHU_tagWaiting@@@std@@@3@$0A@@std@@@std@@U_Iterator_base0@2@@std@@QAEAAV01@XZ
_TEXT	SEGMENT
??F?$_Tree_unchecked_const_iterator@V?$_Tree_val@V?$_Tmap_traits@HU_tagWaiting@@U?$less@H@std@@V?$allocator@U?$pair@$$CBHU_tagWaiting@@@std@@@3@$0A@@std@@@std@@U_Iterator_base0@2@@std@@QAEAAV01@XZ PROC ; std::_Tree_unchecked_const_iterator<std::_Tree_val<std::_Tmap_traits<int,_tagWaiting,std::less<int>,std::allocator<std::pair<int const ,_tagWaiting> >,0> >,std::_Iterator_base0>::operator--, COMDAT
; _this$ = ecx

; 83   : 		{	// predecrement

  00000	8b c1		 mov	 eax, ecx

; 84   : 		if (_Mytree::_Isnil(_Ptr))

  00002	8b 08		 mov	 ecx, DWORD PTR [eax]
  00004	80 79 21 00	 cmp	 BYTE PTR [ecx+33], 0
  00008	74 06		 je	 SHORT $LN8@operator@3

; 85   : 			_Ptr = _Mytree::_Right(_Ptr);	// end() ==> rightmost

  0000a	8b 49 08	 mov	 ecx, DWORD PTR [ecx+8]
  0000d	89 08		 mov	 DWORD PTR [eax], ecx

; 99   : 			}
; 100  : 		return (*this);
; 101  : 		}

  0000f	c3		 ret	 0
$LN8@operator@3:

; 86   : 		else if (!_Mytree::_Isnil(_Mytree::_Left(_Ptr)))

  00010	8b 11		 mov	 edx, DWORD PTR [ecx]
  00012	80 7a 21 00	 cmp	 BYTE PTR [edx+33], 0
  00016	75 17		 jne	 SHORT $LN40@operator@3

; 87   : 			_Ptr = _Mytree::_Max(
; 88   : 				_Mytree::_Left(_Ptr));	// ==> largest of left subtree

  00018	8b 4a 08	 mov	 ecx, DWORD PTR [edx+8]
  0001b	80 79 21 00	 cmp	 BYTE PTR [ecx+33], 0
  0001f	75 30		 jne	 SHORT $LN21@operator@3
$LL22@operator@3:
  00021	8b d1		 mov	 edx, ecx
  00023	8b 4a 08	 mov	 ecx, DWORD PTR [edx+8]
  00026	80 79 21 00	 cmp	 BYTE PTR [ecx+33], 0
  0002a	74 f5		 je	 SHORT $LL22@operator@3

; 96   : 				;	// begin() shouldn't be decremented, don't move
; 97   : 			else
; 98   : 				_Ptr = _Pnode;	// ==> parent if not head

  0002c	89 10		 mov	 DWORD PTR [eax], edx

; 99   : 			}
; 100  : 		return (*this);
; 101  : 		}

  0002e	c3		 ret	 0
$LN40@operator@3:

; 89   : 		else
; 90   : 			{	// climb looking for left subtree
; 91   : 			_Nodeptr _Pnode;
; 92   : 			while (!_Mytree::_Isnil(_Pnode = _Mytree::_Parent(_Ptr))
; 93   : 				&& _Ptr == _Mytree::_Left(_Pnode))

  0002f	8b 51 04	 mov	 edx, DWORD PTR [ecx+4]
  00032	80 7a 21 00	 cmp	 BYTE PTR [edx+33], 0
  00036	75 11		 jne	 SHORT $LN3@operator@3
$LL4@operator@3:
  00038	8b 08		 mov	 ecx, DWORD PTR [eax]
  0003a	3b 0a		 cmp	 ecx, DWORD PTR [edx]
  0003c	75 0b		 jne	 SHORT $LN3@operator@3

; 94   : 				_Ptr = _Pnode;	// ==> parent while left subtree

  0003e	89 10		 mov	 DWORD PTR [eax], edx
  00040	8b 52 04	 mov	 edx, DWORD PTR [edx+4]
  00043	80 7a 21 00	 cmp	 BYTE PTR [edx+33], 0
  00047	74 ef		 je	 SHORT $LL4@operator@3
$LN3@operator@3:

; 95   : 			if (_Mytree::_Isnil(_Ptr))

  00049	8b 08		 mov	 ecx, DWORD PTR [eax]
  0004b	80 79 21 00	 cmp	 BYTE PTR [ecx+33], 0
  0004f	75 02		 jne	 SHORT $LN1@operator@3

; 87   : 			_Ptr = _Mytree::_Max(
; 88   : 				_Mytree::_Left(_Ptr));	// ==> largest of left subtree

$LN21@operator@3:

; 96   : 				;	// begin() shouldn't be decremented, don't move
; 97   : 			else
; 98   : 				_Ptr = _Pnode;	// ==> parent if not head

  00051	89 10		 mov	 DWORD PTR [eax], edx
$LN1@operator@3:

; 99   : 			}
; 100  : 		return (*this);
; 101  : 		}

  00053	c3		 ret	 0
??F?$_Tree_unchecked_const_iterator@V?$_Tree_val@V?$_Tmap_traits@HU_tagWaiting@@U?$less@H@std@@V?$allocator@U?$pair@$$CBHU_tagWaiting@@@std@@@3@$0A@@std@@@std@@U_Iterator_base0@2@@std@@QAEAAV01@XZ ENDP ; std::_Tree_unchecked_const_iterator<std::_Tree_val<std::_Tmap_traits<int,_tagWaiting,std::less<int>,std::allocator<std::pair<int const ,_tagWaiting> >,0> >,std::_Iterator_base0>::operator--
_TEXT	ENDS
PUBLIC	??F?$_Tree_unchecked_const_iterator@V?$_Tree_val@V?$_Tmap_traits@HU_tagObserverInfo@@U?$less@H@std@@V?$allocator@U?$pair@$$CBHU_tagObserverInfo@@@std@@@3@$0A@@std@@@std@@U_Iterator_base0@2@@std@@QAEAAV01@XZ ; std::_Tree_unchecked_const_iterator<std::_Tree_val<std::_Tmap_traits<int,_tagObserverInfo,std::less<int>,std::allocator<std::pair<int const ,_tagObserverInfo> >,0> >,std::_Iterator_base0>::operator--
; Function compile flags: /Ogtp
;	COMDAT ??F?$_Tree_unchecked_const_iterator@V?$_Tree_val@V?$_Tmap_traits@HU_tagObserverInfo@@U?$less@H@std@@V?$allocator@U?$pair@$$CBHU_tagObserverInfo@@@std@@@3@$0A@@std@@@std@@U_Iterator_base0@2@@std@@QAEAAV01@XZ
_TEXT	SEGMENT
??F?$_Tree_unchecked_const_iterator@V?$_Tree_val@V?$_Tmap_traits@HU_tagObserverInfo@@U?$less@H@std@@V?$allocator@U?$pair@$$CBHU_tagObserverInfo@@@std@@@3@$0A@@std@@@std@@U_Iterator_base0@2@@std@@QAEAAV01@XZ PROC ; std::_Tree_unchecked_const_iterator<std::_Tree_val<std::_Tmap_traits<int,_tagObserverInfo,std::less<int>,std::allocator<std::pair<int const ,_tagObserverInfo> >,0> >,std::_Iterator_base0>::operator--, COMDAT
; _this$ = ecx

; 83   : 		{	// predecrement

  00000	8b c1		 mov	 eax, ecx

; 84   : 		if (_Mytree::_Isnil(_Ptr))

  00002	8b 08		 mov	 ecx, DWORD PTR [eax]
  00004	80 79 25 00	 cmp	 BYTE PTR [ecx+37], 0
  00008	74 06		 je	 SHORT $LN8@operator@4

; 85   : 			_Ptr = _Mytree::_Right(_Ptr);	// end() ==> rightmost

  0000a	8b 49 08	 mov	 ecx, DWORD PTR [ecx+8]
  0000d	89 08		 mov	 DWORD PTR [eax], ecx

; 99   : 			}
; 100  : 		return (*this);
; 101  : 		}

  0000f	c3		 ret	 0
$LN8@operator@4:

; 86   : 		else if (!_Mytree::_Isnil(_Mytree::_Left(_Ptr)))

  00010	8b 11		 mov	 edx, DWORD PTR [ecx]
  00012	80 7a 25 00	 cmp	 BYTE PTR [edx+37], 0
  00016	75 17		 jne	 SHORT $LN40@operator@4

; 87   : 			_Ptr = _Mytree::_Max(
; 88   : 				_Mytree::_Left(_Ptr));	// ==> largest of left subtree

  00018	8b 4a 08	 mov	 ecx, DWORD PTR [edx+8]
  0001b	80 79 25 00	 cmp	 BYTE PTR [ecx+37], 0
  0001f	75 30		 jne	 SHORT $LN21@operator@4
$LL22@operator@4:
  00021	8b d1		 mov	 edx, ecx
  00023	8b 4a 08	 mov	 ecx, DWORD PTR [edx+8]
  00026	80 79 25 00	 cmp	 BYTE PTR [ecx+37], 0
  0002a	74 f5		 je	 SHORT $LL22@operator@4

; 96   : 				;	// begin() shouldn't be decremented, don't move
; 97   : 			else
; 98   : 				_Ptr = _Pnode;	// ==> parent if not head

  0002c	89 10		 mov	 DWORD PTR [eax], edx

; 99   : 			}
; 100  : 		return (*this);
; 101  : 		}

  0002e	c3		 ret	 0
$LN40@operator@4:

; 89   : 		else
; 90   : 			{	// climb looking for left subtree
; 91   : 			_Nodeptr _Pnode;
; 92   : 			while (!_Mytree::_Isnil(_Pnode = _Mytree::_Parent(_Ptr))
; 93   : 				&& _Ptr == _Mytree::_Left(_Pnode))

  0002f	8b 51 04	 mov	 edx, DWORD PTR [ecx+4]
  00032	80 7a 25 00	 cmp	 BYTE PTR [edx+37], 0
  00036	75 11		 jne	 SHORT $LN3@operator@4
$LL4@operator@4:
  00038	8b 08		 mov	 ecx, DWORD PTR [eax]
  0003a	3b 0a		 cmp	 ecx, DWORD PTR [edx]
  0003c	75 0b		 jne	 SHORT $LN3@operator@4

; 94   : 				_Ptr = _Pnode;	// ==> parent while left subtree

  0003e	89 10		 mov	 DWORD PTR [eax], edx
  00040	8b 52 04	 mov	 edx, DWORD PTR [edx+4]
  00043	80 7a 25 00	 cmp	 BYTE PTR [edx+37], 0
  00047	74 ef		 je	 SHORT $LL4@operator@4
$LN3@operator@4:

; 95   : 			if (_Mytree::_Isnil(_Ptr))

  00049	8b 08		 mov	 ecx, DWORD PTR [eax]
  0004b	80 79 25 00	 cmp	 BYTE PTR [ecx+37], 0
  0004f	75 02		 jne	 SHORT $LN1@operator@4

; 87   : 			_Ptr = _Mytree::_Max(
; 88   : 				_Mytree::_Left(_Ptr));	// ==> largest of left subtree

$LN21@operator@4:

; 96   : 				;	// begin() shouldn't be decremented, don't move
; 97   : 			else
; 98   : 				_Ptr = _Pnode;	// ==> parent if not head

  00051	89 10		 mov	 DWORD PTR [eax], edx
$LN1@operator@4:

; 99   : 			}
; 100  : 		return (*this);
; 101  : 		}

  00053	c3		 ret	 0
??F?$_Tree_unchecked_const_iterator@V?$_Tree_val@V?$_Tmap_traits@HU_tagObserverInfo@@U?$less@H@std@@V?$allocator@U?$pair@$$CBHU_tagObserverInfo@@@std@@@3@$0A@@std@@@std@@U_Iterator_base0@2@@std@@QAEAAV01@XZ ENDP ; std::_Tree_unchecked_const_iterator<std::_Tree_val<std::_Tmap_traits<int,_tagObserverInfo,std::less<int>,std::allocator<std::pair<int const ,_tagObserverInfo> >,0> >,std::_Iterator_base0>::operator--
_TEXT	ENDS
PUBLIC	??$forward@AAH@std@@YAAAHAAH@Z			; std::forward<int &>
; Function compile flags: /Ogtp
; File c:\program files (x86)\microsoft visual studio 10.0\vc\include\utility
;	COMDAT ??$forward@AAH@std@@YAAAHAAH@Z
_TEXT	SEGMENT
__Arg$ = 8						; size = 4
??$forward@AAH@std@@YAAAHAAH@Z PROC			; std::forward<int &>, COMDAT

; 78   : 	{	// forward _Arg, given explicitly specified type parameter

  00000	55		 push	 ebp
  00001	8b ec		 mov	 ebp, esp

; 79   : 	return ((_Ty&&)_Arg);

  00003	8b 45 08	 mov	 eax, DWORD PTR __Arg$[ebp]

; 80   : 	}

  00006	5d		 pop	 ebp
  00007	c3		 ret	 0
??$forward@AAH@std@@YAAAHAAH@Z ENDP			; std::forward<int &>
_TEXT	ENDS
PUBLIC	??$forward@AAU_tagWaiting@@@std@@YAAAU_tagWaiting@@AAU1@@Z ; std::forward<_tagWaiting &>
; Function compile flags: /Ogtp
;	COMDAT ??$forward@AAU_tagWaiting@@@std@@YAAAU_tagWaiting@@AAU1@@Z
_TEXT	SEGMENT
__Arg$ = 8						; size = 4
??$forward@AAU_tagWaiting@@@std@@YAAAU_tagWaiting@@AAU1@@Z PROC ; std::forward<_tagWaiting &>, COMDAT

; 78   : 	{	// forward _Arg, given explicitly specified type parameter

  00000	55		 push	 ebp
  00001	8b ec		 mov	 ebp, esp

; 79   : 	return ((_Ty&&)_Arg);

  00003	8b 45 08	 mov	 eax, DWORD PTR __Arg$[ebp]

; 80   : 	}

  00006	5d		 pop	 ebp
  00007	c3		 ret	 0
??$forward@AAU_tagWaiting@@@std@@YAAAU_tagWaiting@@AAU1@@Z ENDP ; std::forward<_tagWaiting &>
_TEXT	ENDS
PUBLIC	??$forward@U?$pair@HU_tagWaiting@@@std@@@std@@YA$$QAU?$pair@HU_tagWaiting@@@0@AAU10@@Z ; std::forward<std::pair<int,_tagWaiting> >
; Function compile flags: /Ogtp
;	COMDAT ??$forward@U?$pair@HU_tagWaiting@@@std@@@std@@YA$$QAU?$pair@HU_tagWaiting@@@0@AAU10@@Z
_TEXT	SEGMENT
__Arg$ = 8						; size = 4
??$forward@U?$pair@HU_tagWaiting@@@std@@@std@@YA$$QAU?$pair@HU_tagWaiting@@@0@AAU10@@Z PROC ; std::forward<std::pair<int,_tagWaiting> >, COMDAT

; 78   : 	{	// forward _Arg, given explicitly specified type parameter

  00000	55		 push	 ebp
  00001	8b ec		 mov	 ebp, esp

; 79   : 	return ((_Ty&&)_Arg);

  00003	8b 45 08	 mov	 eax, DWORD PTR __Arg$[ebp]

; 80   : 	}

  00006	5d		 pop	 ebp
  00007	c3		 ret	 0
??$forward@U?$pair@HU_tagWaiting@@@std@@@std@@YA$$QAU?$pair@HU_tagWaiting@@@0@AAU10@@Z ENDP ; std::forward<std::pair<int,_tagWaiting> >
_TEXT	ENDS
PUBLIC	??$forward@AAU_tagObserverInfo@@@std@@YAAAU_tagObserverInfo@@AAU1@@Z ; std::forward<_tagObserverInfo &>
; Function compile flags: /Ogtp
;	COMDAT ??$forward@AAU_tagObserverInfo@@@std@@YAAAU_tagObserverInfo@@AAU1@@Z
_TEXT	SEGMENT
__Arg$ = 8						; size = 4
??$forward@AAU_tagObserverInfo@@@std@@YAAAU_tagObserverInfo@@AAU1@@Z PROC ; std::forward<_tagObserverInfo &>, COMDAT

; 78   : 	{	// forward _Arg, given explicitly specified type parameter

  00000	55		 push	 ebp
  00001	8b ec		 mov	 ebp, esp

; 79   : 	return ((_Ty&&)_Arg);

  00003	8b 45 08	 mov	 eax, DWORD PTR __Arg$[ebp]

; 80   : 	}

  00006	5d		 pop	 ebp
  00007	c3		 ret	 0
??$forward@AAU_tagObserverInfo@@@std@@YAAAU_tagObserverInfo@@AAU1@@Z ENDP ; std::forward<_tagObserverInfo &>
_TEXT	ENDS
PUBLIC	??$forward@U?$pair@HU_tagObserverInfo@@@std@@@std@@YA$$QAU?$pair@HU_tagObserverInfo@@@0@AAU10@@Z ; std::forward<std::pair<int,_tagObserverInfo> >
; Function compile flags: /Ogtp
;	COMDAT ??$forward@U?$pair@HU_tagObserverInfo@@@std@@@std@@YA$$QAU?$pair@HU_tagObserverInfo@@@0@AAU10@@Z
_TEXT	SEGMENT
__Arg$ = 8						; size = 4
??$forward@U?$pair@HU_tagObserverInfo@@@std@@@std@@YA$$QAU?$pair@HU_tagObserverInfo@@@0@AAU10@@Z PROC ; std::forward<std::pair<int,_tagObserverInfo> >, COMDAT

; 78   : 	{	// forward _Arg, given explicitly specified type parameter

  00000	55		 push	 ebp
  00001	8b ec		 mov	 ebp, esp

; 79   : 	return ((_Ty&&)_Arg);

  00003	8b 45 08	 mov	 eax, DWORD PTR __Arg$[ebp]

; 80   : 	}

  00006	5d		 pop	 ebp
  00007	c3		 ret	 0
??$forward@U?$pair@HU_tagObserverInfo@@@std@@@std@@YA$$QAU?$pair@HU_tagObserverInfo@@@0@AAU10@@Z ENDP ; std::forward<std::pair<int,_tagObserverInfo> >
_TEXT	ENDS
PUBLIC	??$_Move@AAD@std@@YA$$QADAAD@Z			; std::_Move<char &>
; Function compile flags: /Ogtp
;	COMDAT ??$_Move@AAD@std@@YA$$QADAAD@Z
_TEXT	SEGMENT
__Arg$ = 8						; size = 4
??$_Move@AAD@std@@YA$$QADAAD@Z PROC			; std::_Move<char &>, COMDAT

; 94   : 	{	// forward _Arg as movable

  00000	55		 push	 ebp
  00001	8b ec		 mov	 ebp, esp

; 95   : 	return ((typename tr1::_Remove_reference<_Ty>::_Type&&)_Arg);

  00003	8b 45 08	 mov	 eax, DWORD PTR __Arg$[ebp]

; 96   : 	}

  00006	5d		 pop	 ebp
  00007	c3		 ret	 0
??$_Move@AAD@std@@YA$$QADAAD@Z ENDP			; std::_Move<char &>
_TEXT	ENDS
PUBLIC	??$_Destroy@U?$pair@$$CBHU_tagWaiting@@@std@@@std@@YAXPAU?$pair@$$CBHU_tagWaiting@@@0@@Z ; std::_Destroy<std::pair<int const ,_tagWaiting> >
; Function compile flags: /Ogtp
; File c:\program files (x86)\microsoft visual studio 10.0\vc\include\xmemory
;	COMDAT ??$_Destroy@U?$pair@$$CBHU_tagWaiting@@@std@@@std@@YAXPAU?$pair@$$CBHU_tagWaiting@@@0@@Z
_TEXT	SEGMENT
__Ptr$ = 8						; size = 4
??$_Destroy@U?$pair@$$CBHU_tagWaiting@@@std@@@std@@YAXPAU?$pair@$$CBHU_tagWaiting@@@0@@Z PROC ; std::_Destroy<std::pair<int const ,_tagWaiting> >, COMDAT

; 63   : 	_Ptr->~_Ty();
; 64   : 	}

  00000	c3		 ret	 0
??$_Destroy@U?$pair@$$CBHU_tagWaiting@@@std@@@std@@YAXPAU?$pair@$$CBHU_tagWaiting@@@0@@Z ENDP ; std::_Destroy<std::pair<int const ,_tagWaiting> >
_TEXT	ENDS
PUBLIC	??$_Destroy@U?$pair@$$CBHU_tagObserverInfo@@@std@@@std@@YAXPAU?$pair@$$CBHU_tagObserverInfo@@@0@@Z ; std::_Destroy<std::pair<int const ,_tagObserverInfo> >
; Function compile flags: /Ogtp
;	COMDAT ??$_Destroy@U?$pair@$$CBHU_tagObserverInfo@@@std@@@std@@YAXPAU?$pair@$$CBHU_tagObserverInfo@@@0@@Z
_TEXT	SEGMENT
__Ptr$ = 8						; size = 4
??$_Destroy@U?$pair@$$CBHU_tagObserverInfo@@@std@@@std@@YAXPAU?$pair@$$CBHU_tagObserverInfo@@@0@@Z PROC ; std::_Destroy<std::pair<int const ,_tagObserverInfo> >, COMDAT

; 63   : 	_Ptr->~_Ty();
; 64   : 	}

  00000	c3		 ret	 0
??$_Destroy@U?$pair@$$CBHU_tagObserverInfo@@@std@@@std@@YAXPAU?$pair@$$CBHU_tagObserverInfo@@@0@@Z ENDP ; std::_Destroy<std::pair<int const ,_tagObserverInfo> >
_TEXT	ENDS
PUBLIC	??$move@AAV?$_Tree_iterator@V?$_Tree_val@V?$_Tmap_traits@HU_tagWaiting@@U?$less@H@std@@V?$allocator@U?$pair@$$CBHU_tagWaiting@@@std@@@3@$0A@@std@@@std@@@std@@@std@@YA$$QAV?$_Tree_iterator@V?$_Tree_val@V?$_Tmap_traits@HU_tagWaiting@@U?$less@H@std@@V?$allocator@U?$pair@$$CBHU_tagWaiting@@@std@@@3@$0A@@std@@@std@@@0@AAV10@@Z ; std::move<std::_Tree_iterator<std::_Tree_val<std::_Tmap_traits<int,_tagWaiting,std::less<int>,std::allocator<std::pair<int const ,_tagWaiting> >,0> > > &>
; Function compile flags: /Ogtp
; File c:\program files (x86)\microsoft visual studio 10.0\vc\include\utility
;	COMDAT ??$move@AAV?$_Tree_iterator@V?$_Tree_val@V?$_Tmap_traits@HU_tagWaiting@@U?$less@H@std@@V?$allocator@U?$pair@$$CBHU_tagWaiting@@@std@@@3@$0A@@std@@@std@@@std@@@std@@YA$$QAV?$_Tree_iterator@V?$_Tree_val@V?$_Tmap_traits@HU_tagWaiting@@U?$less@H@std@@V?$allocator@U?$pair@$$CBHU_tagWaiting@@@std@@@3@$0A@@std@@@std@@@0@AAV10@@Z
_TEXT	SEGMENT
__Arg$ = 8						; size = 4
??$move@AAV?$_Tree_iterator@V?$_Tree_val@V?$_Tmap_traits@HU_tagWaiting@@U?$less@H@std@@V?$allocator@U?$pair@$$CBHU_tagWaiting@@@std@@@3@$0A@@std@@@std@@@std@@@std@@YA$$QAV?$_Tree_iterator@V?$_Tree_val@V?$_Tmap_traits@HU_tagWaiting@@U?$less@H@std@@V?$allocator@U?$pair@$$CBHU_tagWaiting@@@std@@@3@$0A@@std@@@std@@@0@AAV10@@Z PROC ; std::move<std::_Tree_iterator<std::_Tree_val<std::_Tmap_traits<int,_tagWaiting,std::less<int>,std::allocator<std::pair<int const ,_tagWaiting> >,0> > > &>, COMDAT

; 86   : 	{	// forward _Arg as movable

  00000	55		 push	 ebp
  00001	8b ec		 mov	 ebp, esp

; 87   : 	return ((typename tr1::_Remove_reference<_Ty>::_Type&&)_Arg);

  00003	8b 45 08	 mov	 eax, DWORD PTR __Arg$[ebp]

; 88   : 	}

  00006	5d		 pop	 ebp
  00007	c3		 ret	 0
??$move@AAV?$_Tree_iterator@V?$_Tree_val@V?$_Tmap_traits@HU_tagWaiting@@U?$less@H@std@@V?$allocator@U?$pair@$$CBHU_tagWaiting@@@std@@@3@$0A@@std@@@std@@@std@@@std@@YA$$QAV?$_Tree_iterator@V?$_Tree_val@V?$_Tmap_traits@HU_tagWaiting@@U?$less@H@std@@V?$allocator@U?$pair@$$CBHU_tagWaiting@@@std@@@3@$0A@@std@@@std@@@0@AAV10@@Z ENDP ; std::move<std::_Tree_iterator<std::_Tree_val<std::_Tmap_traits<int,_tagWaiting,std::less<int>,std::allocator<std::pair<int const ,_tagWaiting> >,0> > > &>
_TEXT	ENDS
PUBLIC	??$move@AA_N@std@@YA$$QA_NAA_N@Z		; std::move<bool &>
; Function compile flags: /Ogtp
;	COMDAT ??$move@AA_N@std@@YA$$QA_NAA_N@Z
_TEXT	SEGMENT
__Arg$ = 8						; size = 4
??$move@AA_N@std@@YA$$QA_NAA_N@Z PROC			; std::move<bool &>, COMDAT

; 86   : 	{	// forward _Arg as movable

  00000	55		 push	 ebp
  00001	8b ec		 mov	 ebp, esp

; 87   : 	return ((typename tr1::_Remove_reference<_Ty>::_Type&&)_Arg);

  00003	8b 45 08	 mov	 eax, DWORD PTR __Arg$[ebp]

; 88   : 	}

  00006	5d		 pop	 ebp
  00007	c3		 ret	 0
??$move@AA_N@std@@YA$$QA_NAA_N@Z ENDP			; std::move<bool &>
_TEXT	ENDS
PUBLIC	??$move@AAV?$_Tree_iterator@V?$_Tree_val@V?$_Tmap_traits@HU_tagObserverInfo@@U?$less@H@std@@V?$allocator@U?$pair@$$CBHU_tagObserverInfo@@@std@@@3@$0A@@std@@@std@@@std@@@std@@YA$$QAV?$_Tree_iterator@V?$_Tree_val@V?$_Tmap_traits@HU_tagObserverInfo@@U?$less@H@std@@V?$allocator@U?$pair@$$CBHU_tagObserverInfo@@@std@@@3@$0A@@std@@@std@@@0@AAV10@@Z ; std::move<std::_Tree_iterator<std::_Tree_val<std::_Tmap_traits<int,_tagObserverInfo,std::less<int>,std::allocator<std::pair<int const ,_tagObserverInfo> >,0> > > &>
; Function compile flags: /Ogtp
;	COMDAT ??$move@AAV?$_Tree_iterator@V?$_Tree_val@V?$_Tmap_traits@HU_tagObserverInfo@@U?$less@H@std@@V?$allocator@U?$pair@$$CBHU_tagObserverInfo@@@std@@@3@$0A@@std@@@std@@@std@@@std@@YA$$QAV?$_Tree_iterator@V?$_Tree_val@V?$_Tmap_traits@HU_tagObserverInfo@@U?$less@H@std@@V?$allocator@U?$pair@$$CBHU_tagObserverInfo@@@std@@@3@$0A@@std@@@std@@@0@AAV10@@Z
_TEXT	SEGMENT
__Arg$ = 8						; size = 4
??$move@AAV?$_Tree_iterator@V?$_Tree_val@V?$_Tmap_traits@HU_tagObserverInfo@@U?$less@H@std@@V?$allocator@U?$pair@$$CBHU_tagObserverInfo@@@std@@@3@$0A@@std@@@std@@@std@@@std@@YA$$QAV?$_Tree_iterator@V?$_Tree_val@V?$_Tmap_traits@HU_tagObserverInfo@@U?$less@H@std@@V?$allocator@U?$pair@$$CBHU_tagObserverInfo@@@std@@@3@$0A@@std@@@std@@@0@AAV10@@Z PROC ; std::move<std::_Tree_iterator<std::_Tree_val<std::_Tmap_traits<int,_tagObserverInfo,std::less<int>,std::allocator<std::pair<int const ,_tagObserverInfo> >,0> > > &>, COMDAT

; 86   : 	{	// forward _Arg as movable

  00000	55		 push	 ebp
  00001	8b ec		 mov	 ebp, esp

; 87   : 	return ((typename tr1::_Remove_reference<_Ty>::_Type&&)_Arg);

  00003	8b 45 08	 mov	 eax, DWORD PTR __Arg$[ebp]

; 88   : 	}

  00006	5d		 pop	 ebp
  00007	c3		 ret	 0
??$move@AAV?$_Tree_iterator@V?$_Tree_val@V?$_Tmap_traits@HU_tagObserverInfo@@U?$less@H@std@@V?$allocator@U?$pair@$$CBHU_tagObserverInfo@@@std@@@3@$0A@@std@@@std@@@std@@@std@@YA$$QAV?$_Tree_iterator@V?$_Tree_val@V?$_Tmap_traits@HU_tagObserverInfo@@U?$less@H@std@@V?$allocator@U?$pair@$$CBHU_tagObserverInfo@@@std@@@3@$0A@@std@@@std@@@0@AAV10@@Z ENDP ; std::move<std::_Tree_iterator<std::_Tree_val<std::_Tmap_traits<int,_tagObserverInfo,std::less<int>,std::allocator<std::pair<int const ,_tagObserverInfo> >,0> > > &>
_TEXT	ENDS
PUBLIC	??$?0AAHAAU_tagWaiting@@@?$_Pair_base@HU_tagWaiting@@@std@@QAE@AAHAAU_tagWaiting@@@Z ; std::_Pair_base<int,_tagWaiting>::_Pair_base<int,_tagWaiting><int &,_tagWaiting &>
; Function compile flags: /Ogtp
;	COMDAT ??$?0AAHAAU_tagWaiting@@@?$_Pair_base@HU_tagWaiting@@@std@@QAE@AAHAAU_tagWaiting@@@Z
_TEXT	SEGMENT
__Val1$ = 8						; size = 4
__Val2$ = 12						; size = 4
??$?0AAHAAU_tagWaiting@@@?$_Pair_base@HU_tagWaiting@@@std@@QAE@AAHAAU_tagWaiting@@@Z PROC ; std::_Pair_base<int,_tagWaiting>::_Pair_base<int,_tagWaiting><int &,_tagWaiting &>, COMDAT
; _this$ = ecx

; 163  : 		{	// construct from moved values

  00000	55		 push	 ebp
  00001	8b ec		 mov	 ebp, esp
  00003	8b c1		 mov	 eax, ecx
  00005	8b 4d 08	 mov	 ecx, DWORD PTR __Val1$[ebp]
  00008	8b 11		 mov	 edx, DWORD PTR [ecx]
  0000a	8b 4d 0c	 mov	 ecx, DWORD PTR __Val2$[ebp]
  0000d	89 10		 mov	 DWORD PTR [eax], edx
  0000f	8b 11		 mov	 edx, DWORD PTR [ecx]
  00011	89 50 04	 mov	 DWORD PTR [eax+4], edx
  00014	8b 51 04	 mov	 edx, DWORD PTR [ecx+4]
  00017	89 50 08	 mov	 DWORD PTR [eax+8], edx
  0001a	8b 51 08	 mov	 edx, DWORD PTR [ecx+8]
  0001d	89 50 0c	 mov	 DWORD PTR [eax+12], edx
  00020	8b 49 0c	 mov	 ecx, DWORD PTR [ecx+12]
  00023	89 48 10	 mov	 DWORD PTR [eax+16], ecx

; 164  : 		}

  00026	5d		 pop	 ebp
  00027	c2 08 00	 ret	 8
??$?0AAHAAU_tagWaiting@@@?$_Pair_base@HU_tagWaiting@@@std@@QAE@AAHAAU_tagWaiting@@@Z ENDP ; std::_Pair_base<int,_tagWaiting>::_Pair_base<int,_tagWaiting><int &,_tagWaiting &>
_TEXT	ENDS
PUBLIC	??$?0AAHAAU_tagObserverInfo@@@?$_Pair_base@HU_tagObserverInfo@@@std@@QAE@AAHAAU_tagObserverInfo@@@Z ; std::_Pair_base<int,_tagObserverInfo>::_Pair_base<int,_tagObserverInfo><int &,_tagObserverInfo &>
; Function compile flags: /Ogtp
;	COMDAT ??$?0AAHAAU_tagObserverInfo@@@?$_Pair_base@HU_tagObserverInfo@@@std@@QAE@AAHAAU_tagObserverInfo@@@Z
_TEXT	SEGMENT
__Val1$ = 8						; size = 4
__Val2$ = 12						; size = 4
??$?0AAHAAU_tagObserverInfo@@@?$_Pair_base@HU_tagObserverInfo@@@std@@QAE@AAHAAU_tagObserverInfo@@@Z PROC ; std::_Pair_base<int,_tagObserverInfo>::_Pair_base<int,_tagObserverInfo><int &,_tagObserverInfo &>, COMDAT
; _this$ = ecx

; 163  : 		{	// construct from moved values

  00000	55		 push	 ebp
  00001	8b ec		 mov	 ebp, esp
  00003	8b c1		 mov	 eax, ecx
  00005	8b 4d 08	 mov	 ecx, DWORD PTR __Val1$[ebp]
  00008	8b 11		 mov	 edx, DWORD PTR [ecx]
  0000a	8b 4d 0c	 mov	 ecx, DWORD PTR __Val2$[ebp]
  0000d	89 10		 mov	 DWORD PTR [eax], edx
  0000f	8b 11		 mov	 edx, DWORD PTR [ecx]
  00011	89 50 04	 mov	 DWORD PTR [eax+4], edx
  00014	8b 51 04	 mov	 edx, DWORD PTR [ecx+4]
  00017	89 50 08	 mov	 DWORD PTR [eax+8], edx
  0001a	8b 51 08	 mov	 edx, DWORD PTR [ecx+8]
  0001d	89 50 0c	 mov	 DWORD PTR [eax+12], edx
  00020	8b 51 0c	 mov	 edx, DWORD PTR [ecx+12]
  00023	89 50 10	 mov	 DWORD PTR [eax+16], edx
  00026	8b 49 10	 mov	 ecx, DWORD PTR [ecx+16]
  00029	89 48 14	 mov	 DWORD PTR [eax+20], ecx

; 164  : 		}

  0002c	5d		 pop	 ebp
  0002d	c2 08 00	 ret	 8
??$?0AAHAAU_tagObserverInfo@@@?$_Pair_base@HU_tagObserverInfo@@@std@@QAE@AAHAAU_tagObserverInfo@@@Z ENDP ; std::_Pair_base<int,_tagObserverInfo>::_Pair_base<int,_tagObserverInfo><int &,_tagObserverInfo &>
_TEXT	ENDS
PUBLIC	??$forward@AAV?$_Tree_iterator@V?$_Tree_val@V?$_Tmap_traits@HU_tagWaiting@@U?$less@H@std@@V?$allocator@U?$pair@$$CBHU_tagWaiting@@@std@@@3@$0A@@std@@@std@@@std@@@std@@YAAAV?$_Tree_iterator@V?$_Tree_val@V?$_Tmap_traits@HU_tagWaiting@@U?$less@H@std@@V?$allocator@U?$pair@$$CBHU_tagWaiting@@@std@@@3@$0A@@std@@@std@@@0@AAV10@@Z ; std::forward<std::_Tree_iterator<std::_Tree_val<std::_Tmap_traits<int,_tagWaiting,std::less<int>,std::allocator<std::pair<int const ,_tagWaiting> >,0> > > &>
; Function compile flags: /Ogtp
;	COMDAT ??$forward@AAV?$_Tree_iterator@V?$_Tree_val@V?$_Tmap_traits@HU_tagWaiting@@U?$less@H@std@@V?$allocator@U?$pair@$$CBHU_tagWaiting@@@std@@@3@$0A@@std@@@std@@@std@@@std@@YAAAV?$_Tree_iterator@V?$_Tree_val@V?$_Tmap_traits@HU_tagWaiting@@U?$less@H@std@@V?$allocator@U?$pair@$$CBHU_tagWaiting@@@std@@@3@$0A@@std@@@std@@@0@AAV10@@Z
_TEXT	SEGMENT
__Arg$ = 8						; size = 4
??$forward@AAV?$_Tree_iterator@V?$_Tree_val@V?$_Tmap_traits@HU_tagWaiting@@U?$less@H@std@@V?$allocator@U?$pair@$$CBHU_tagWaiting@@@std@@@3@$0A@@std@@@std@@@std@@@std@@YAAAV?$_Tree_iterator@V?$_Tree_val@V?$_Tmap_traits@HU_tagWaiting@@U?$less@H@std@@V?$allocator@U?$pair@$$CBHU_tagWaiting@@@std@@@3@$0A@@std@@@std@@@0@AAV10@@Z PROC ; std::forward<std::_Tree_iterator<std::_Tree_val<std::_Tmap_traits<int,_tagWaiting,std::less<int>,std::allocator<std::pair<int const ,_tagWaiting> >,0> > > &>, COMDAT

; 78   : 	{	// forward _Arg, given explicitly specified type parameter

  00000	55		 push	 ebp
  00001	8b ec		 mov	 ebp, esp

; 79   : 	return ((_Ty&&)_Arg);

  00003	8b 45 08	 mov	 eax, DWORD PTR __Arg$[ebp]

; 80   : 	}

  00006	5d		 pop	 ebp
  00007	c3		 ret	 0
??$forward@AAV?$_Tree_iterator@V?$_Tree_val@V?$_Tmap_traits@HU_tagWaiting@@U?$less@H@std@@V?$allocator@U?$pair@$$CBHU_tagWaiting@@@std@@@3@$0A@@std@@@std@@@std@@@std@@YAAAV?$_Tree_iterator@V?$_Tree_val@V?$_Tmap_traits@HU_tagWaiting@@U?$less@H@std@@V?$allocator@U?$pair@$$CBHU_tagWaiting@@@std@@@3@$0A@@std@@@std@@@0@AAV10@@Z ENDP ; std::forward<std::_Tree_iterator<std::_Tree_val<std::_Tmap_traits<int,_tagWaiting,std::less<int>,std::allocator<std::pair<int const ,_tagWaiting> >,0> > > &>
_TEXT	ENDS
PUBLIC	??$forward@_N@std@@YA$$QA_NAA_N@Z		; std::forward<bool>
; Function compile flags: /Ogtp
;	COMDAT ??$forward@_N@std@@YA$$QA_NAA_N@Z
_TEXT	SEGMENT
__Arg$ = 8						; size = 4
??$forward@_N@std@@YA$$QA_NAA_N@Z PROC			; std::forward<bool>, COMDAT

; 78   : 	{	// forward _Arg, given explicitly specified type parameter

  00000	55		 push	 ebp
  00001	8b ec		 mov	 ebp, esp

; 79   : 	return ((_Ty&&)_Arg);

  00003	8b 45 08	 mov	 eax, DWORD PTR __Arg$[ebp]

; 80   : 	}

  00006	5d		 pop	 ebp
  00007	c3		 ret	 0
??$forward@_N@std@@YA$$QA_NAA_N@Z ENDP			; std::forward<bool>
_TEXT	ENDS
PUBLIC	??$?0AAV?$_Tree_iterator@V?$_Tree_val@V?$_Tmap_traits@HU_tagWaiting@@U?$less@H@std@@V?$allocator@U?$pair@$$CBHU_tagWaiting@@@std@@@3@$0A@@std@@@std@@@std@@_N@?$_Pair_base@V?$_Tree_iterator@V?$_Tree_val@V?$_Tmap_traits@HU_tagWaiting@@U?$less@H@std@@V?$allocator@U?$pair@$$CBHU_tagWaiting@@@std@@@3@$0A@@std@@@std@@@std@@_N@std@@QAE@AAV?$_Tree_iterator@V?$_Tree_val@V?$_Tmap_traits@HU_tagWaiting@@U?$less@H@std@@V?$allocator@U?$pair@$$CBHU_tagWaiting@@@std@@@3@$0A@@std@@@std@@@1@$$QA_N@Z ; std::_Pair_base<std::_Tree_iterator<std::_Tree_val<std::_Tmap_traits<int,_tagWaiting,std::less<int>,std::allocator<std::pair<int const ,_tagWaiting> >,0> > >,bool>::_Pair_base<std::_Tree_iterator<std::_Tree_val<std::_Tmap_traits<int,_tagWaiting,std::less<int>,std::allocator<std::pair<int const ,_tagWaiting> >,0> > >,bool><std::_Tree_iterator<std::_Tree_val<std::_Tmap_traits<int,_tagWaiting,std::less<int>,std::allocator<std::pair<int const ,_tagWaiting> >,0> > > &,bool>
; Function compile flags: /Ogtp
;	COMDAT ??$?0AAV?$_Tree_iterator@V?$_Tree_val@V?$_Tmap_traits@HU_tagWaiting@@U?$less@H@std@@V?$allocator@U?$pair@$$CBHU_tagWaiting@@@std@@@3@$0A@@std@@@std@@@std@@_N@?$_Pair_base@V?$_Tree_iterator@V?$_Tree_val@V?$_Tmap_traits@HU_tagWaiting@@U?$less@H@std@@V?$allocator@U?$pair@$$CBHU_tagWaiting@@@std@@@3@$0A@@std@@@std@@@std@@_N@std@@QAE@AAV?$_Tree_iterator@V?$_Tree_val@V?$_Tmap_traits@HU_tagWaiting@@U?$less@H@std@@V?$allocator@U?$pair@$$CBHU_tagWaiting@@@std@@@3@$0A@@std@@@std@@@1@$$QA_N@Z
_TEXT	SEGMENT
__Val1$ = 8						; size = 4
__Val2$ = 12						; size = 4
??$?0AAV?$_Tree_iterator@V?$_Tree_val@V?$_Tmap_traits@HU_tagWaiting@@U?$less@H@std@@V?$allocator@U?$pair@$$CBHU_tagWaiting@@@std@@@3@$0A@@std@@@std@@@std@@_N@?$_Pair_base@V?$_Tree_iterator@V?$_Tree_val@V?$_Tmap_traits@HU_tagWaiting@@U?$less@H@std@@V?$allocator@U?$pair@$$CBHU_tagWaiting@@@std@@@3@$0A@@std@@@std@@@std@@_N@std@@QAE@AAV?$_Tree_iterator@V?$_Tree_val@V?$_Tmap_traits@HU_tagWaiting@@U?$less@H@std@@V?$allocator@U?$pair@$$CBHU_tagWaiting@@@std@@@3@$0A@@std@@@std@@@1@$$QA_N@Z PROC ; std::_Pair_base<std::_Tree_iterator<std::_Tree_val<std::_Tmap_traits<int,_tagWaiting,std::less<int>,std::allocator<std::pair<int const ,_tagWaiting> >,0> > >,bool>::_Pair_base<std::_Tree_iterator<std::_Tree_val<std::_Tmap_traits<int,_tagWaiting,std::less<int>,std::allocator<std::pair<int const ,_tagWaiting> >,0> > >,bool><std::_Tree_iterator<std::_Tree_val<std::_Tmap_traits<int,_tagWaiting,std::less<int>,std::allocator<std::pair<int const ,_tagWaiting> >,0> > > &,bool>, COMDAT
; _this$ = ecx

; 163  : 		{	// construct from moved values

  00000	55		 push	 ebp
  00001	8b ec		 mov	 ebp, esp
  00003	8b c1		 mov	 eax, ecx
  00005	8b 4d 08	 mov	 ecx, DWORD PTR __Val1$[ebp]
  00008	8b 11		 mov	 edx, DWORD PTR [ecx]
  0000a	8b 4d 0c	 mov	 ecx, DWORD PTR __Val2$[ebp]
  0000d	89 10		 mov	 DWORD PTR [eax], edx
  0000f	8a 11		 mov	 dl, BYTE PTR [ecx]
  00011	88 50 04	 mov	 BYTE PTR [eax+4], dl

; 164  : 		}

  00014	5d		 pop	 ebp
  00015	c2 08 00	 ret	 8
??$?0AAV?$_Tree_iterator@V?$_Tree_val@V?$_Tmap_traits@HU_tagWaiting@@U?$less@H@std@@V?$allocator@U?$pair@$$CBHU_tagWaiting@@@std@@@3@$0A@@std@@@std@@@std@@_N@?$_Pair_base@V?$_Tree_iterator@V?$_Tree_val@V?$_Tmap_traits@HU_tagWaiting@@U?$less@H@std@@V?$allocator@U?$pair@$$CBHU_tagWaiting@@@std@@@3@$0A@@std@@@std@@@std@@_N@std@@QAE@AAV?$_Tree_iterator@V?$_Tree_val@V?$_Tmap_traits@HU_tagWaiting@@U?$less@H@std@@V?$allocator@U?$pair@$$CBHU_tagWaiting@@@std@@@3@$0A@@std@@@std@@@1@$$QA_N@Z ENDP ; std::_Pair_base<std::_Tree_iterator<std::_Tree_val<std::_Tmap_traits<int,_tagWaiting,std::less<int>,std::allocator<std::pair<int const ,_tagWaiting> >,0> > >,bool>::_Pair_base<std::_Tree_iterator<std::_Tree_val<std::_Tmap_traits<int,_tagWaiting,std::less<int>,std::allocator<std::pair<int const ,_tagWaiting> >,0> > >,bool><std::_Tree_iterator<std::_Tree_val<std::_Tmap_traits<int,_tagWaiting,std::less<int>,std::allocator<std::pair<int const ,_tagWaiting> >,0> > > &,bool>
_TEXT	ENDS
PUBLIC	??$forward@AAV?$_Tree_iterator@V?$_Tree_val@V?$_Tmap_traits@HU_tagObserverInfo@@U?$less@H@std@@V?$allocator@U?$pair@$$CBHU_tagObserverInfo@@@std@@@3@$0A@@std@@@std@@@std@@@std@@YAAAV?$_Tree_iterator@V?$_Tree_val@V?$_Tmap_traits@HU_tagObserverInfo@@U?$less@H@std@@V?$allocator@U?$pair@$$CBHU_tagObserverInfo@@@std@@@3@$0A@@std@@@std@@@0@AAV10@@Z ; std::forward<std::_Tree_iterator<std::_Tree_val<std::_Tmap_traits<int,_tagObserverInfo,std::less<int>,std::allocator<std::pair<int const ,_tagObserverInfo> >,0> > > &>
; Function compile flags: /Ogtp
;	COMDAT ??$forward@AAV?$_Tree_iterator@V?$_Tree_val@V?$_Tmap_traits@HU_tagObserverInfo@@U?$less@H@std@@V?$allocator@U?$pair@$$CBHU_tagObserverInfo@@@std@@@3@$0A@@std@@@std@@@std@@@std@@YAAAV?$_Tree_iterator@V?$_Tree_val@V?$_Tmap_traits@HU_tagObserverInfo@@U?$less@H@std@@V?$allocator@U?$pair@$$CBHU_tagObserverInfo@@@std@@@3@$0A@@std@@@std@@@0@AAV10@@Z
_TEXT	SEGMENT
__Arg$ = 8						; size = 4
??$forward@AAV?$_Tree_iterator@V?$_Tree_val@V?$_Tmap_traits@HU_tagObserverInfo@@U?$less@H@std@@V?$allocator@U?$pair@$$CBHU_tagObserverInfo@@@std@@@3@$0A@@std@@@std@@@std@@@std@@YAAAV?$_Tree_iterator@V?$_Tree_val@V?$_Tmap_traits@HU_tagObserverInfo@@U?$less@H@std@@V?$allocator@U?$pair@$$CBHU_tagObserverInfo@@@std@@@3@$0A@@std@@@std@@@0@AAV10@@Z PROC ; std::forward<std::_Tree_iterator<std::_Tree_val<std::_Tmap_traits<int,_tagObserverInfo,std::less<int>,std::allocator<std::pair<int const ,_tagObserverInfo> >,0> > > &>, COMDAT

; 78   : 	{	// forward _Arg, given explicitly specified type parameter

  00000	55		 push	 ebp
  00001	8b ec		 mov	 ebp, esp

; 79   : 	return ((_Ty&&)_Arg);

  00003	8b 45 08	 mov	 eax, DWORD PTR __Arg$[ebp]

; 80   : 	}

  00006	5d		 pop	 ebp
  00007	c3		 ret	 0
??$forward@AAV?$_Tree_iterator@V?$_Tree_val@V?$_Tmap_traits@HU_tagObserverInfo@@U?$less@H@std@@V?$allocator@U?$pair@$$CBHU_tagObserverInfo@@@std@@@3@$0A@@std@@@std@@@std@@@std@@YAAAV?$_Tree_iterator@V?$_Tree_val@V?$_Tmap_traits@HU_tagObserverInfo@@U?$less@H@std@@V?$allocator@U?$pair@$$CBHU_tagObserverInfo@@@std@@@3@$0A@@std@@@std@@@0@AAV10@@Z ENDP ; std::forward<std::_Tree_iterator<std::_Tree_val<std::_Tmap_traits<int,_tagObserverInfo,std::less<int>,std::allocator<std::pair<int const ,_tagObserverInfo> >,0> > > &>
_TEXT	ENDS
PUBLIC	??$?0AAV?$_Tree_iterator@V?$_Tree_val@V?$_Tmap_traits@HU_tagObserverInfo@@U?$less@H@std@@V?$allocator@U?$pair@$$CBHU_tagObserverInfo@@@std@@@3@$0A@@std@@@std@@@std@@_N@?$_Pair_base@V?$_Tree_iterator@V?$_Tree_val@V?$_Tmap_traits@HU_tagObserverInfo@@U?$less@H@std@@V?$allocator@U?$pair@$$CBHU_tagObserverInfo@@@std@@@3@$0A@@std@@@std@@@std@@_N@std@@QAE@AAV?$_Tree_iterator@V?$_Tree_val@V?$_Tmap_traits@HU_tagObserverInfo@@U?$less@H@std@@V?$allocator@U?$pair@$$CBHU_tagObserverInfo@@@std@@@3@$0A@@std@@@std@@@1@$$QA_N@Z ; std::_Pair_base<std::_Tree_iterator<std::_Tree_val<std::_Tmap_traits<int,_tagObserverInfo,std::less<int>,std::allocator<std::pair<int const ,_tagObserverInfo> >,0> > >,bool>::_Pair_base<std::_Tree_iterator<std::_Tree_val<std::_Tmap_traits<int,_tagObserverInfo,std::less<int>,std::allocator<std::pair<int const ,_tagObserverInfo> >,0> > >,bool><std::_Tree_iterator<std::_Tree_val<std::_Tmap_traits<int,_tagObserverInfo,std::less<int>,std::allocator<std::pair<int const ,_tagObserverInfo> >,0> > > &,bool>
; Function compile flags: /Ogtp
;	COMDAT ??$?0AAV?$_Tree_iterator@V?$_Tree_val@V?$_Tmap_traits@HU_tagObserverInfo@@U?$less@H@std@@V?$allocator@U?$pair@$$CBHU_tagObserverInfo@@@std@@@3@$0A@@std@@@std@@@std@@_N@?$_Pair_base@V?$_Tree_iterator@V?$_Tree_val@V?$_Tmap_traits@HU_tagObserverInfo@@U?$less@H@std@@V?$allocator@U?$pair@$$CBHU_tagObserverInfo@@@std@@@3@$0A@@std@@@std@@@std@@_N@std@@QAE@AAV?$_Tree_iterator@V?$_Tree_val@V?$_Tmap_traits@HU_tagObserverInfo@@U?$less@H@std@@V?$allocator@U?$pair@$$CBHU_tagObserverInfo@@@std@@@3@$0A@@std@@@std@@@1@$$QA_N@Z
_TEXT	SEGMENT
__Val1$ = 8						; size = 4
__Val2$ = 12						; size = 4
??$?0AAV?$_Tree_iterator@V?$_Tree_val@V?$_Tmap_traits@HU_tagObserverInfo@@U?$less@H@std@@V?$allocator@U?$pair@$$CBHU_tagObserverInfo@@@std@@@3@$0A@@std@@@std@@@std@@_N@?$_Pair_base@V?$_Tree_iterator@V?$_Tree_val@V?$_Tmap_traits@HU_tagObserverInfo@@U?$less@H@std@@V?$allocator@U?$pair@$$CBHU_tagObserverInfo@@@std@@@3@$0A@@std@@@std@@@std@@_N@std@@QAE@AAV?$_Tree_iterator@V?$_Tree_val@V?$_Tmap_traits@HU_tagObserverInfo@@U?$less@H@std@@V?$allocator@U?$pair@$$CBHU_tagObserverInfo@@@std@@@3@$0A@@std@@@std@@@1@$$QA_N@Z PROC ; std::_Pair_base<std::_Tree_iterator<std::_Tree_val<std::_Tmap_traits<int,_tagObserverInfo,std::less<int>,std::allocator<std::pair<int const ,_tagObserverInfo> >,0> > >,bool>::_Pair_base<std::_Tree_iterator<std::_Tree_val<std::_Tmap_traits<int,_tagObserverInfo,std::less<int>,std::allocator<std::pair<int const ,_tagObserverInfo> >,0> > >,bool><std::_Tree_iterator<std::_Tree_val<std::_Tmap_traits<int,_tagObserverInfo,std::less<int>,std::allocator<std::pair<int const ,_tagObserverInfo> >,0> > > &,bool>, COMDAT
; _this$ = ecx

; 163  : 		{	// construct from moved values

  00000	55		 push	 ebp
  00001	8b ec		 mov	 ebp, esp
  00003	8b c1		 mov	 eax, ecx
  00005	8b 4d 08	 mov	 ecx, DWORD PTR __Val1$[ebp]
  00008	8b 11		 mov	 edx, DWORD PTR [ecx]
  0000a	8b 4d 0c	 mov	 ecx, DWORD PTR __Val2$[ebp]
  0000d	89 10		 mov	 DWORD PTR [eax], edx
  0000f	8a 11		 mov	 dl, BYTE PTR [ecx]
  00011	88 50 04	 mov	 BYTE PTR [eax+4], dl

; 164  : 		}

  00014	5d		 pop	 ebp
  00015	c2 08 00	 ret	 8
??$?0AAV?$_Tree_iterator@V?$_Tree_val@V?$_Tmap_traits@HU_tagObserverInfo@@U?$less@H@std@@V?$allocator@U?$pair@$$CBHU_tagObserverInfo@@@std@@@3@$0A@@std@@@std@@@std@@_N@?$_Pair_base@V?$_Tree_iterator@V?$_Tree_val@V?$_Tmap_traits@HU_tagObserverInfo@@U?$less@H@std@@V?$allocator@U?$pair@$$CBHU_tagObserverInfo@@@std@@@3@$0A@@std@@@std@@@std@@_N@std@@QAE@AAV?$_Tree_iterator@V?$_Tree_val@V?$_Tmap_traits@HU_tagObserverInfo@@U?$less@H@std@@V?$allocator@U?$pair@$$CBHU_tagObserverInfo@@@std@@@3@$0A@@std@@@std@@@1@$$QA_N@Z ENDP ; std::_Pair_base<std::_Tree_iterator<std::_Tree_val<std::_Tmap_traits<int,_tagObserverInfo,std::less<int>,std::allocator<std::pair<int const ,_tagObserverInfo> >,0> > >,bool>::_Pair_base<std::_Tree_iterator<std::_Tree_val<std::_Tmap_traits<int,_tagObserverInfo,std::less<int>,std::allocator<std::pair<int const ,_tagObserverInfo> >,0> > >,bool><std::_Tree_iterator<std::_Tree_val<std::_Tmap_traits<int,_tagObserverInfo,std::less<int>,std::allocator<std::pair<int const ,_tagObserverInfo> >,0> > > &,bool>
_TEXT	ENDS
PUBLIC	??$forward@H@std@@YA$$QAHAAH@Z			; std::forward<int>
; Function compile flags: /Ogtp
;	COMDAT ??$forward@H@std@@YA$$QAHAAH@Z
_TEXT	SEGMENT
__Arg$ = 8						; size = 4
??$forward@H@std@@YA$$QAHAAH@Z PROC			; std::forward<int>, COMDAT

; 78   : 	{	// forward _Arg, given explicitly specified type parameter

  00000	55		 push	 ebp
  00001	8b ec		 mov	 ebp, esp

; 79   : 	return ((_Ty&&)_Arg);

  00003	8b 45 08	 mov	 eax, DWORD PTR __Arg$[ebp]

; 80   : 	}

  00006	5d		 pop	 ebp
  00007	c3		 ret	 0
??$forward@H@std@@YA$$QAHAAH@Z ENDP			; std::forward<int>
_TEXT	ENDS
PUBLIC	??$forward@U_tagWaiting@@@std@@YA$$QAU_tagWaiting@@AAU1@@Z ; std::forward<_tagWaiting>
; Function compile flags: /Ogtp
;	COMDAT ??$forward@U_tagWaiting@@@std@@YA$$QAU_tagWaiting@@AAU1@@Z
_TEXT	SEGMENT
__Arg$ = 8						; size = 4
??$forward@U_tagWaiting@@@std@@YA$$QAU_tagWaiting@@AAU1@@Z PROC ; std::forward<_tagWaiting>, COMDAT

; 78   : 	{	// forward _Arg, given explicitly specified type parameter

  00000	55		 push	 ebp
  00001	8b ec		 mov	 ebp, esp

; 79   : 	return ((_Ty&&)_Arg);

  00003	8b 45 08	 mov	 eax, DWORD PTR __Arg$[ebp]

; 80   : 	}

  00006	5d		 pop	 ebp
  00007	c3		 ret	 0
??$forward@U_tagWaiting@@@std@@YA$$QAU_tagWaiting@@AAU1@@Z ENDP ; std::forward<_tagWaiting>
_TEXT	ENDS
PUBLIC	??$?0HU_tagWaiting@@@?$_Pair_base@$$CBHU_tagWaiting@@@std@@QAE@$$QAH$$QAU_tagWaiting@@@Z ; std::_Pair_base<int const ,_tagWaiting>::_Pair_base<int const ,_tagWaiting><int,_tagWaiting>
; Function compile flags: /Ogtp
;	COMDAT ??$?0HU_tagWaiting@@@?$_Pair_base@$$CBHU_tagWaiting@@@std@@QAE@$$QAH$$QAU_tagWaiting@@@Z
_TEXT	SEGMENT
__Val1$ = 8						; size = 4
__Val2$ = 12						; size = 4
??$?0HU_tagWaiting@@@?$_Pair_base@$$CBHU_tagWaiting@@@std@@QAE@$$QAH$$QAU_tagWaiting@@@Z PROC ; std::_Pair_base<int const ,_tagWaiting>::_Pair_base<int const ,_tagWaiting><int,_tagWaiting>, COMDAT
; _this$ = ecx

; 163  : 		{	// construct from moved values

  00000	55		 push	 ebp
  00001	8b ec		 mov	 ebp, esp
  00003	8b c1		 mov	 eax, ecx
  00005	8b 4d 08	 mov	 ecx, DWORD PTR __Val1$[ebp]
  00008	8b 11		 mov	 edx, DWORD PTR [ecx]
  0000a	8b 4d 0c	 mov	 ecx, DWORD PTR __Val2$[ebp]
  0000d	89 10		 mov	 DWORD PTR [eax], edx
  0000f	8b 11		 mov	 edx, DWORD PTR [ecx]
  00011	89 50 04	 mov	 DWORD PTR [eax+4], edx
  00014	8b 51 04	 mov	 edx, DWORD PTR [ecx+4]
  00017	89 50 08	 mov	 DWORD PTR [eax+8], edx
  0001a	8b 51 08	 mov	 edx, DWORD PTR [ecx+8]
  0001d	89 50 0c	 mov	 DWORD PTR [eax+12], edx
  00020	8b 49 0c	 mov	 ecx, DWORD PTR [ecx+12]
  00023	89 48 10	 mov	 DWORD PTR [eax+16], ecx

; 164  : 		}

  00026	5d		 pop	 ebp
  00027	c2 08 00	 ret	 8
??$?0HU_tagWaiting@@@?$_Pair_base@$$CBHU_tagWaiting@@@std@@QAE@$$QAH$$QAU_tagWaiting@@@Z ENDP ; std::_Pair_base<int const ,_tagWaiting>::_Pair_base<int const ,_tagWaiting><int,_tagWaiting>
_TEXT	ENDS
PUBLIC	??$forward@U_tagObserverInfo@@@std@@YA$$QAU_tagObserverInfo@@AAU1@@Z ; std::forward<_tagObserverInfo>
; Function compile flags: /Ogtp
;	COMDAT ??$forward@U_tagObserverInfo@@@std@@YA$$QAU_tagObserverInfo@@AAU1@@Z
_TEXT	SEGMENT
__Arg$ = 8						; size = 4
??$forward@U_tagObserverInfo@@@std@@YA$$QAU_tagObserverInfo@@AAU1@@Z PROC ; std::forward<_tagObserverInfo>, COMDAT

; 78   : 	{	// forward _Arg, given explicitly specified type parameter

  00000	55		 push	 ebp
  00001	8b ec		 mov	 ebp, esp

; 79   : 	return ((_Ty&&)_Arg);

  00003	8b 45 08	 mov	 eax, DWORD PTR __Arg$[ebp]

; 80   : 	}

  00006	5d		 pop	 ebp
  00007	c3		 ret	 0
??$forward@U_tagObserverInfo@@@std@@YA$$QAU_tagObserverInfo@@AAU1@@Z ENDP ; std::forward<_tagObserverInfo>
_TEXT	ENDS
PUBLIC	??$?0HU_tagObserverInfo@@@?$_Pair_base@$$CBHU_tagObserverInfo@@@std@@QAE@$$QAH$$QAU_tagObserverInfo@@@Z ; std::_Pair_base<int const ,_tagObserverInfo>::_Pair_base<int const ,_tagObserverInfo><int,_tagObserverInfo>
; Function compile flags: /Ogtp
;	COMDAT ??$?0HU_tagObserverInfo@@@?$_Pair_base@$$CBHU_tagObserverInfo@@@std@@QAE@$$QAH$$QAU_tagObserverInfo@@@Z
_TEXT	SEGMENT
__Val1$ = 8						; size = 4
__Val2$ = 12						; size = 4
??$?0HU_tagObserverInfo@@@?$_Pair_base@$$CBHU_tagObserverInfo@@@std@@QAE@$$QAH$$QAU_tagObserverInfo@@@Z PROC ; std::_Pair_base<int const ,_tagObserverInfo>::_Pair_base<int const ,_tagObserverInfo><int,_tagObserverInfo>, COMDAT
; _this$ = ecx

; 163  : 		{	// construct from moved values

  00000	55		 push	 ebp
  00001	8b ec		 mov	 ebp, esp
  00003	8b c1		 mov	 eax, ecx
  00005	8b 4d 08	 mov	 ecx, DWORD PTR __Val1$[ebp]
  00008	8b 11		 mov	 edx, DWORD PTR [ecx]
  0000a	8b 4d 0c	 mov	 ecx, DWORD PTR __Val2$[ebp]
  0000d	89 10		 mov	 DWORD PTR [eax], edx
  0000f	8b 11		 mov	 edx, DWORD PTR [ecx]
  00011	89 50 04	 mov	 DWORD PTR [eax+4], edx
  00014	8b 51 04	 mov	 edx, DWORD PTR [ecx+4]
  00017	89 50 08	 mov	 DWORD PTR [eax+8], edx
  0001a	8b 51 08	 mov	 edx, DWORD PTR [ecx+8]
  0001d	89 50 0c	 mov	 DWORD PTR [eax+12], edx
  00020	8b 51 0c	 mov	 edx, DWORD PTR [ecx+12]
  00023	89 50 10	 mov	 DWORD PTR [eax+16], edx
  00026	8b 49 10	 mov	 ecx, DWORD PTR [ecx+16]
  00029	89 48 14	 mov	 DWORD PTR [eax+20], ecx

; 164  : 		}

  0002c	5d		 pop	 ebp
  0002d	c2 08 00	 ret	 8
??$?0HU_tagObserverInfo@@@?$_Pair_base@$$CBHU_tagObserverInfo@@@std@@QAE@$$QAH$$QAU_tagObserverInfo@@@Z ENDP ; std::_Pair_base<int const ,_tagObserverInfo>::_Pair_base<int const ,_tagObserverInfo><int,_tagObserverInfo>
; Function compile flags: /Ogtp
_TEXT	ENDS
;	COMDAT ??0bad_alloc@std@@QAE@ABV01@@Z
_TEXT	SEGMENT
___that$ = 8						; size = 4
??0bad_alloc@std@@QAE@ABV01@@Z PROC			; std::bad_alloc::bad_alloc, COMDAT
; _this$ = ecx
  00000	55		 push	 ebp
  00001	8b ec		 mov	 ebp, esp
  00003	8b 45 08	 mov	 eax, DWORD PTR ___that$[ebp]
  00006	56		 push	 esi
  00007	50		 push	 eax
  00008	8b f1		 mov	 esi, ecx
  0000a	e8 00 00 00 00	 call	 ??0exception@std@@QAE@ABV01@@Z ; std::exception::exception
  0000f	c7 06 00 00 00
	00		 mov	 DWORD PTR [esi], OFFSET ??_7bad_alloc@std@@6B@
  00015	8b c6		 mov	 eax, esi
  00017	5e		 pop	 esi
  00018	5d		 pop	 ebp
  00019	c2 04 00	 ret	 4
??0bad_alloc@std@@QAE@ABV01@@Z ENDP			; std::bad_alloc::bad_alloc
_TEXT	ENDS
PUBLIC	??_EOBJECTSTRUCT@@QAEPAXI@Z			; OBJECTSTRUCT::`vector deleting destructor'
EXTRN	??_V@YAXPAX@Z:PROC				; operator delete[]
EXTRN	??_M@YGXPAXIHP6EX0@Z@Z:PROC			; `eh vector destructor iterator'
;	COMDAT xdata$x
xdata$x	SEGMENT
__unwindtable$??_EOBJECTSTRUCT@@QAEPAXI@Z DD 0ffffffffH
	DD	FLAT:__unwindfunclet$??_EOBJECTSTRUCT@@QAEPAXI@Z$0
__ehfuncinfo$??_EOBJECTSTRUCT@@QAEPAXI@Z DD 019930522H
	DD	01H
	DD	FLAT:__unwindtable$??_EOBJECTSTRUCT@@QAEPAXI@Z
	DD	2 DUP(00H)
	DD	2 DUP(00H)
	DD	00H
	DD	01H
; Function compile flags: /Ogtp
xdata$x	ENDS
;	COMDAT ??_EOBJECTSTRUCT@@QAEPAXI@Z
_TEXT	SEGMENT
_this$ = -16						; size = 4
__$EHRec$ = -12						; size = 12
___flags$ = 8						; size = 4
??_EOBJECTSTRUCT@@QAEPAXI@Z PROC			; OBJECTSTRUCT::`vector deleting destructor', COMDAT
; _this$ = ecx
  00000	55		 push	 ebp
  00001	8b ec		 mov	 ebp, esp
  00003	6a ff		 push	 -1
  00005	68 00 00 00 00	 push	 __ehhandler$??_EOBJECTSTRUCT@@QAEPAXI@Z
  0000a	64 a1 00 00 00
	00		 mov	 eax, DWORD PTR fs:0
  00010	50		 push	 eax
  00011	51		 push	 ecx
  00012	53		 push	 ebx
  00013	56		 push	 esi
  00014	57		 push	 edi
  00015	a1 00 00 00 00	 mov	 eax, DWORD PTR ___security_cookie
  0001a	33 c5		 xor	 eax, ebp
  0001c	50		 push	 eax
  0001d	8d 45 f4	 lea	 eax, DWORD PTR __$EHRec$[ebp]
  00020	64 a3 00 00 00
	00		 mov	 DWORD PTR fs:0, eax
  00026	8b f1		 mov	 esi, ecx
  00028	89 75 f0	 mov	 DWORD PTR _this$[ebp], esi
  0002b	8a 5d 08	 mov	 bl, BYTE PTR ___flags$[ebp]
  0002e	f6 c3 02	 test	 bl, 2
  00031	74 3b		 je	 SHORT $LN3@vector
  00033	8b 46 fc	 mov	 eax, DWORD PTR [esi-4]
  00036	68 00 00 00 00	 push	 OFFSET ??1OBJECTSTRUCT@@QAE@XZ
  0003b	8d 7e fc	 lea	 edi, DWORD PTR [esi-4]
  0003e	50		 push	 eax
  0003f	68 40 27 00 00	 push	 10048			; 00002740H
  00044	56		 push	 esi
  00045	e8 00 00 00 00	 call	 ??_M@YGXPAXIHP6EX0@Z@Z
  0004a	f6 c3 01	 test	 bl, 1
  0004d	74 09		 je	 SHORT $LN2@vector
  0004f	57		 push	 edi
  00050	e8 00 00 00 00	 call	 ??_V@YAXPAX@Z		; operator delete[]
  00055	83 c4 04	 add	 esp, 4
$LN2@vector:
  00058	8b c7		 mov	 eax, edi
  0005a	8b 4d f4	 mov	 ecx, DWORD PTR __$EHRec$[ebp]
  0005d	64 89 0d 00 00
	00 00		 mov	 DWORD PTR fs:0, ecx
  00064	59		 pop	 ecx
  00065	5f		 pop	 edi
  00066	5e		 pop	 esi
  00067	5b		 pop	 ebx
  00068	8b e5		 mov	 esp, ebp
  0006a	5d		 pop	 ebp
  0006b	c2 04 00	 ret	 4
$LN3@vector:
  0006e	8d 8e ec 20 00
	00		 lea	 ecx, DWORD PTR [esi+8428]
  00074	c7 45 fc 00 00
	00 00		 mov	 DWORD PTR __$EHRec$[ebp+8], 0
  0007b	e8 00 00 00 00	 call	 ??1TMonsterAIAgro@@UAE@XZ ; TMonsterAIAgro::~TMonsterAIAgro
  00080	8d 8e 0c 16 00
	00		 lea	 ecx, DWORD PTR [esi+5644]
  00086	c7 45 fc ff ff
	ff ff		 mov	 DWORD PTR __$EHRec$[ebp+8], -1
  0008d	e8 00 00 00 00	 call	 ??1CSkillDelay@@UAE@XZ	; CSkillDelay::~CSkillDelay
  00092	f6 c3 01	 test	 bl, 1
  00095	74 09		 je	 SHORT $LN1@vector
  00097	56		 push	 esi
  00098	e8 00 00 00 00	 call	 ??3@YAXPAX@Z		; operator delete
  0009d	83 c4 04	 add	 esp, 4
$LN1@vector:
  000a0	8b c6		 mov	 eax, esi
  000a2	8b 4d f4	 mov	 ecx, DWORD PTR __$EHRec$[ebp]
  000a5	64 89 0d 00 00
	00 00		 mov	 DWORD PTR fs:0, ecx
  000ac	59		 pop	 ecx
  000ad	5f		 pop	 edi
  000ae	5e		 pop	 esi
  000af	5b		 pop	 ebx
  000b0	8b e5		 mov	 esp, ebp
  000b2	5d		 pop	 ebp
  000b3	c2 04 00	 ret	 4
_TEXT	ENDS
;	COMDAT text$x
text$x	SEGMENT
__unwindfunclet$??_EOBJECTSTRUCT@@QAEPAXI@Z$0:
  00000	8b 4d f0	 mov	 ecx, DWORD PTR _this$[ebp]
  00003	81 c1 0c 16 00
	00		 add	 ecx, 5644		; 0000160cH
  00009	e9 00 00 00 00	 jmp	 ??1CSkillDelay@@UAE@XZ	; CSkillDelay::~CSkillDelay
__ehhandler$??_EOBJECTSTRUCT@@QAEPAXI@Z:
  0000e	8b 54 24 08	 mov	 edx, DWORD PTR [esp+8]
  00012	8d 42 0c	 lea	 eax, DWORD PTR [edx+12]
  00015	8b 4a ec	 mov	 ecx, DWORD PTR [edx-20]
  00018	33 c8		 xor	 ecx, eax
  0001a	e8 00 00 00 00	 call	 @__security_check_cookie@4
  0001f	b8 00 00 00 00	 mov	 eax, OFFSET __ehfuncinfo$??_EOBJECTSTRUCT@@QAEPAXI@Z
  00024	e9 00 00 00 00	 jmp	 ___CxxFrameHandler3
text$x	ENDS
??_EOBJECTSTRUCT@@QAEPAXI@Z ENDP			; OBJECTSTRUCT::`vector deleting destructor'
PUBLIC	?SetStatus@CNewPVP@@AAEXHHAAUOBJECTSTRUCT@@0@Z	; CNewPVP::SetStatus
; Function compile flags: /Ogtp
; File c:\muserver_dev\development\mu-s8ep2-repack\gameserver\source\newpvp.cpp
;	COMDAT ?SetStatus@CNewPVP@@AAEXHHAAUOBJECTSTRUCT@@0@Z
_TEXT	SEGMENT
_nStatus$ = 8						; size = 4
_nId$ = 12						; size = 4
_requester$ = 16					; size = 4
_responsor$ = 20					; size = 4
?SetStatus@CNewPVP@@AAEXHHAAUOBJECTSTRUCT@@0@Z PROC	; CNewPVP::SetStatus, COMDAT
; _this$ = ecx

; 228  : {

  00000	55		 push	 ebp
  00001	8b ec		 mov	 ebp, esp
  00003	53		 push	 ebx
  00004	56		 push	 esi
  00005	57		 push	 edi

; 229  : 	LPDUEL_CHANNEL lpDuelChannel = &m_DuelChannel[nId];

  00006	8b 7d 0c	 mov	 edi, DWORD PTR _nId$[ebp]
  00009	8b c7		 mov	 eax, edi
  0000b	6b c0 2c	 imul	 eax, 44			; 0000002cH
  0000e	8b d9		 mov	 ebx, ecx
  00010	8d 74 18 64	 lea	 esi, DWORD PTR [eax+ebx+100]

; 230  : 
; 231  : 	switch ( nStatus )

  00014	8b 45 08	 mov	 eax, DWORD PTR _nStatus$[ebp]
  00017	83 f8 05	 cmp	 eax, 5
  0001a	0f 87 20 01 00
	00		 ja	 $LN6@SetStatus
  00020	ff 24 85 00 00
	00 00		 jmp	 DWORD PTR $LN11@SetStatus[eax*4]
$LN5@SetStatus:

; 232  : 	{		
; 233  : 	case DC_IDLE:
; 234  : 		lpDuelChannel->nStatus = nStatus;

  00027	33 c9		 xor	 ecx, ecx

; 235  : 		lpDuelChannel->dwTime = 0;
; 236  : 
; 237  : 		lpDuelChannel->nIndex1 = 0;
; 238  : 		lpDuelChannel->nIndex2 = 0;
; 239  : 
; 240  : 		memset(lpDuelChannel->szName1, 0, MAX_IDSTRING);
; 241  : 		memset(lpDuelChannel->szName2, 0, MAX_IDSTRING);
; 242  : 
; 243  : 		m_DuelChannelList.channel[nId].bStart = 0;

  00029	6b ff 16	 imul	 edi, 22			; 00000016H
  0002c	88 4e 22	 mov	 BYTE PTR [esi+34], cl
  0002f	89 4e 24	 mov	 DWORD PTR [esi+36], ecx
  00032	89 4e 04	 mov	 DWORD PTR [esi+4], ecx
  00035	89 4e 08	 mov	 DWORD PTR [esi+8], ecx

; 244  : 		m_DuelChannelList.channel[nId].bWatch = 0;
; 245  : 
; 246  : 		memset(m_DuelChannelList.channel[nId].szName1, 0, MAX_IDSTRING);
; 247  : 		memset(m_DuelChannelList.channel[nId].szName2, 0, MAX_IDSTRING);
; 248  : 
; 249  : 		SetDuelStatus(requester, responsor, nStatus);

  00038	8b 55 10	 mov	 edx, DWORD PTR _requester$[ebp]
  0003b	33 c0		 xor	 eax, eax
  0003d	89 46 0c	 mov	 DWORD PTR [esi+12], eax
  00040	89 46 10	 mov	 DWORD PTR [esi+16], eax
  00043	66 89 46 14	 mov	 WORD PTR [esi+20], ax
  00047	89 46 17	 mov	 DWORD PTR [esi+23], eax
  0004a	89 46 1b	 mov	 DWORD PTR [esi+27], eax
  0004d	66 89 46 1f	 mov	 WORD PTR [esi+31], ax
  00051	8d 04 1f	 lea	 eax, DWORD PTR [edi+ebx]
  00054	66 89 48 20	 mov	 WORD PTR [eax+32], cx
  00058	89 48 0c	 mov	 DWORD PTR [eax+12], ecx
  0005b	89 48 10	 mov	 DWORD PTR [eax+16], ecx
  0005e	66 89 48 14	 mov	 WORD PTR [eax+20], cx
  00062	89 48 16	 mov	 DWORD PTR [eax+22], ecx
  00065	89 48 1a	 mov	 DWORD PTR [eax+26], ecx
  00068	51		 push	 ecx
  00069	66 89 48 1e	 mov	 WORD PTR [eax+30], cx
  0006d	8b 4d 14	 mov	 ecx, DWORD PTR _responsor$[ebp]
  00070	51		 push	 ecx
  00071	52		 push	 edx
  00072	8b cb		 mov	 ecx, ebx
  00074	e8 00 00 00 00	 call	 ?SetDuelStatus@CNewPVP@@AAEXAAUOBJECTSTRUCT@@0H@Z ; CNewPVP::SetDuelStatus
  00079	5f		 pop	 edi
  0007a	5e		 pop	 esi
  0007b	5b		 pop	 ebx

; 280  : 	  break;
; 281  : 	}
; 282  : }

  0007c	5d		 pop	 ebp
  0007d	c2 10 00	 ret	 16			; 00000010H
$LN4@SetStatus:

; 250  : 		break;
; 251  : 	case 2:
; 252  : 		lpDuelChannel->nStatus = nStatus;

  00080	c6 46 22 02	 mov	 BYTE PTR [esi+34], 2

; 253  : 		lpDuelChannel->dwTime = GetTickCount();

  00084	ff 15 00 00 00
	00		 call	 DWORD PTR __imp__GetTickCount@0

; 254  : 
; 255  : 		lpDuelChannel->nIndex1 = requester.m_Index;
; 256  : 		lpDuelChannel->nIndex2 = responsor.m_Index;
; 257  : 
; 258  : 		memcpy(lpDuelChannel->szName1, requester.Name, MAX_IDSTRING);
; 259  : 		memcpy(lpDuelChannel->szName2, responsor.Name, MAX_IDSTRING);
; 260  : 
; 261  : 		m_DuelChannelList.channel[nId].bStart = 1;

  0008a	6b ff 16	 imul	 edi, 22			; 00000016H
  0008d	8b 4d 10	 mov	 ecx, DWORD PTR _requester$[ebp]
  00090	8b 55 14	 mov	 edx, DWORD PTR _responsor$[ebp]
  00093	89 46 24	 mov	 DWORD PTR [esi+36], eax
  00096	8b 01		 mov	 eax, DWORD PTR [ecx]
  00098	89 46 04	 mov	 DWORD PTR [esi+4], eax
  0009b	8b 02		 mov	 eax, DWORD PTR [edx]
  0009d	89 46 08	 mov	 DWORD PTR [esi+8], eax
  000a0	8b 41 5d	 mov	 eax, DWORD PTR [ecx+93]
  000a3	89 46 0c	 mov	 DWORD PTR [esi+12], eax
  000a6	8b 41 61	 mov	 eax, DWORD PTR [ecx+97]
  000a9	89 46 10	 mov	 DWORD PTR [esi+16], eax
  000ac	0f b7 41 65	 movzx	 eax, WORD PTR [ecx+101]
  000b0	66 89 46 14	 mov	 WORD PTR [esi+20], ax
  000b4	8b 42 5d	 mov	 eax, DWORD PTR [edx+93]
  000b7	89 46 17	 mov	 DWORD PTR [esi+23], eax
  000ba	8b 42 61	 mov	 eax, DWORD PTR [edx+97]
  000bd	89 46 1b	 mov	 DWORD PTR [esi+27], eax
  000c0	0f b7 42 65	 movzx	 eax, WORD PTR [edx+101]
  000c4	66 89 46 1f	 mov	 WORD PTR [esi+31], ax
  000c8	8d 04 1f	 lea	 eax, DWORD PTR [edi+ebx]
  000cb	66 c7 40 20 01
	01		 mov	 WORD PTR [eax+32], 257	; 00000101H

; 262  : 		m_DuelChannelList.channel[nId].bWatch = 1;
; 263  : 
; 264  : 		memcpy(m_DuelChannelList.channel[nId].szName1, requester.Name, MAX_IDSTRING);

  000d1	8b 71 5d	 mov	 esi, DWORD PTR [ecx+93]
  000d4	89 70 0c	 mov	 DWORD PTR [eax+12], esi
  000d7	8b 71 61	 mov	 esi, DWORD PTR [ecx+97]
  000da	89 70 10	 mov	 DWORD PTR [eax+16], esi
  000dd	0f b7 71 65	 movzx	 esi, WORD PTR [ecx+101]
  000e1	66 89 70 14	 mov	 WORD PTR [eax+20], si

; 265  : 		memcpy(m_DuelChannelList.channel[nId].szName2, responsor.Name, MAX_IDSTRING);

  000e5	8b 72 5d	 mov	 esi, DWORD PTR [edx+93]
  000e8	89 70 16	 mov	 DWORD PTR [eax+22], esi
  000eb	8b 72 61	 mov	 esi, DWORD PTR [edx+97]

; 266  : 
; 267  : 		SetDuelStatus(requester, responsor, nStatus);

  000ee	6a 02		 push	 2
  000f0	89 70 1a	 mov	 DWORD PTR [eax+26], esi
  000f3	0f b7 72 65	 movzx	 esi, WORD PTR [edx+101]
  000f7	52		 push	 edx
  000f8	51		 push	 ecx
  000f9	8b cb		 mov	 ecx, ebx
  000fb	66 89 70 1e	 mov	 WORD PTR [eax+30], si
  000ff	e8 00 00 00 00	 call	 ?SetDuelStatus@CNewPVP@@AAEXAAUOBJECTSTRUCT@@0H@Z ; CNewPVP::SetDuelStatus
  00104	5f		 pop	 edi
  00105	5e		 pop	 esi
  00106	5b		 pop	 ebx

; 280  : 	  break;
; 281  : 	}
; 282  : }

  00107	5d		 pop	 ebp
  00108	c2 10 00	 ret	 16			; 00000010H
$LN3@SetStatus:

; 268  : 	  break;
; 269  : 	case 3:
; 270  : 	  lpDuelChannel->nStatus = nStatus;

  0010b	c6 46 22 03	 mov	 BYTE PTR [esi+34], 3

; 279  : 	  lpDuelChannel->dwTime = GetTickCount();

  0010f	ff 15 00 00 00
	00		 call	 DWORD PTR __imp__GetTickCount@0
  00115	5f		 pop	 edi
  00116	89 46 24	 mov	 DWORD PTR [esi+36], eax
  00119	5e		 pop	 esi
  0011a	5b		 pop	 ebx

; 280  : 	  break;
; 281  : 	}
; 282  : }

  0011b	5d		 pop	 ebp
  0011c	c2 10 00	 ret	 16			; 00000010H
$LN2@SetStatus:

; 271  : 	  lpDuelChannel->dwTime = GetTickCount();
; 272  : 	  break;
; 273  : 	case 4:
; 274  : 	  lpDuelChannel->nStatus = nStatus;

  0011f	c6 46 22 04	 mov	 BYTE PTR [esi+34], 4

; 279  : 	  lpDuelChannel->dwTime = GetTickCount();

  00123	ff 15 00 00 00
	00		 call	 DWORD PTR __imp__GetTickCount@0
  00129	5f		 pop	 edi
  0012a	89 46 24	 mov	 DWORD PTR [esi+36], eax
  0012d	5e		 pop	 esi
  0012e	5b		 pop	 ebx

; 280  : 	  break;
; 281  : 	}
; 282  : }

  0012f	5d		 pop	 ebp
  00130	c2 10 00	 ret	 16			; 00000010H
$LN1@SetStatus:

; 275  : 	  lpDuelChannel->dwTime = GetTickCount();
; 276  : 	  break;
; 277  : 	case DC_RESERVEDEND:
; 278  : 	  lpDuelChannel->nStatus = nStatus;

  00133	c6 46 22 05	 mov	 BYTE PTR [esi+34], 5

; 279  : 	  lpDuelChannel->dwTime = GetTickCount();

  00137	ff 15 00 00 00
	00		 call	 DWORD PTR __imp__GetTickCount@0
  0013d	89 46 24	 mov	 DWORD PTR [esi+36], eax
$LN6@SetStatus:
  00140	5f		 pop	 edi
  00141	5e		 pop	 esi
  00142	5b		 pop	 ebx

; 280  : 	  break;
; 281  : 	}
; 282  : }

  00143	5d		 pop	 ebp
  00144	c2 10 00	 ret	 16			; 00000010H
  00147	90		 npad	 1
$LN11@SetStatus:
  00148	00 00 00 00	 DD	 $LN5@SetStatus
  0014c	00 00 00 00	 DD	 $LN6@SetStatus
  00150	00 00 00 00	 DD	 $LN4@SetStatus
  00154	00 00 00 00	 DD	 $LN3@SetStatus
  00158	00 00 00 00	 DD	 $LN2@SetStatus
  0015c	00 00 00 00	 DD	 $LN1@SetStatus
?SetStatus@CNewPVP@@AAEXHHAAUOBJECTSTRUCT@@0@Z ENDP	; CNewPVP::SetStatus
_TEXT	ENDS
PUBLIC	??9?$_Tree_const_iterator@V?$_Tree_val@V?$_Tmap_traits@HU_tagWaiting@@U?$less@H@std@@V?$allocator@U?$pair@$$CBHU_tagWaiting@@@std@@@3@$0A@@std@@@std@@@std@@QBE_NABV01@@Z ; std::_Tree_const_iterator<std::_Tree_val<std::_Tmap_traits<int,_tagWaiting,std::less<int>,std::allocator<std::pair<int const ,_tagWaiting> >,0> > >::operator!=
; Function compile flags: /Ogtp
; File c:\program files (x86)\microsoft visual studio 10.0\vc\include\xtree
;	COMDAT ??9?$_Tree_const_iterator@V?$_Tree_val@V?$_Tmap_traits@HU_tagWaiting@@U?$less@H@std@@V?$allocator@U?$pair@$$CBHU_tagWaiting@@@std@@@3@$0A@@std@@@std@@@std@@QBE_NABV01@@Z
_TEXT	SEGMENT
__Right$ = 8						; size = 4
??9?$_Tree_const_iterator@V?$_Tree_val@V?$_Tmap_traits@HU_tagWaiting@@U?$less@H@std@@V?$allocator@U?$pair@$$CBHU_tagWaiting@@@std@@@3@$0A@@std@@@std@@@std@@QBE_NABV01@@Z PROC ; std::_Tree_const_iterator<std::_Tree_val<std::_Tmap_traits<int,_tagWaiting,std::less<int>,std::allocator<std::pair<int const ,_tagWaiting> >,0> > >::operator!=, COMDAT
; _this$ = ecx

; 334  : 		{	// test for iterator inequality

  00000	55		 push	 ebp
  00001	8b ec		 mov	 ebp, esp

; 335  : 		return (!(*this == _Right));

  00003	8b 01		 mov	 eax, DWORD PTR [ecx]
  00005	8b 55 08	 mov	 edx, DWORD PTR __Right$[ebp]
  00008	33 c9		 xor	 ecx, ecx
  0000a	3b 02		 cmp	 eax, DWORD PTR [edx]
  0000c	0f 95 c0	 setne	 al

; 336  : 		}

  0000f	5d		 pop	 ebp
  00010	c2 04 00	 ret	 4
??9?$_Tree_const_iterator@V?$_Tree_val@V?$_Tmap_traits@HU_tagWaiting@@U?$less@H@std@@V?$allocator@U?$pair@$$CBHU_tagWaiting@@@std@@@3@$0A@@std@@@std@@@std@@QBE_NABV01@@Z ENDP ; std::_Tree_const_iterator<std::_Tree_val<std::_Tmap_traits<int,_tagWaiting,std::less<int>,std::allocator<std::pair<int const ,_tagWaiting> >,0> > >::operator!=
_TEXT	ENDS
PUBLIC	?_Lmost@?$_Tree@V?$_Tmap_traits@HU_tagWaiting@@U?$less@H@std@@V?$allocator@U?$pair@$$CBHU_tagWaiting@@@std@@@3@$0A@@std@@@std@@IBEAAPAU_Node@?$_Tree_nod@V?$_Tmap_traits@HU_tagWaiting@@U?$less@H@std@@V?$allocator@U?$pair@$$CBHU_tagWaiting@@@std@@@3@$0A@@std@@@2@XZ ; std::_Tree<std::_Tmap_traits<int,_tagWaiting,std::less<int>,std::allocator<std::pair<int const ,_tagWaiting> >,0> >::_Lmost
; Function compile flags: /Ogtp
;	COMDAT ?_Lmost@?$_Tree@V?$_Tmap_traits@HU_tagWaiting@@U?$less@H@std@@V?$allocator@U?$pair@$$CBHU_tagWaiting@@@std@@@3@$0A@@std@@@std@@IBEAAPAU_Node@?$_Tree_nod@V?$_Tmap_traits@HU_tagWaiting@@U?$less@H@std@@V?$allocator@U?$pair@$$CBHU_tagWaiting@@@std@@@3@$0A@@std@@@2@XZ
_TEXT	SEGMENT
?_Lmost@?$_Tree@V?$_Tmap_traits@HU_tagWaiting@@U?$less@H@std@@V?$allocator@U?$pair@$$CBHU_tagWaiting@@@std@@@3@$0A@@std@@@std@@IBEAAPAU_Node@?$_Tree_nod@V?$_Tmap_traits@HU_tagWaiting@@U?$less@H@std@@V?$allocator@U?$pair@$$CBHU_tagWaiting@@@std@@@3@$0A@@std@@@2@XZ PROC ; std::_Tree<std::_Tmap_traits<int,_tagWaiting,std::less<int>,std::allocator<std::pair<int const ,_tagWaiting> >,0> >::_Lmost, COMDAT
; _this$ = ecx

; 1759 : 		return (this->_Left(this->_Myhead));

  00000	8b 41 04	 mov	 eax, DWORD PTR [ecx+4]

; 1760 : 		}

  00003	c3		 ret	 0
?_Lmost@?$_Tree@V?$_Tmap_traits@HU_tagWaiting@@U?$less@H@std@@V?$allocator@U?$pair@$$CBHU_tagWaiting@@@std@@@3@$0A@@std@@@std@@IBEAAPAU_Node@?$_Tree_nod@V?$_Tmap_traits@HU_tagWaiting@@U?$less@H@std@@V?$allocator@U?$pair@$$CBHU_tagWaiting@@@std@@@3@$0A@@std@@@2@XZ ENDP ; std::_Tree<std::_Tmap_traits<int,_tagWaiting,std::less<int>,std::allocator<std::pair<int const ,_tagWaiting> >,0> >::_Lmost
_TEXT	ENDS
PUBLIC	?_Rmost@?$_Tree@V?$_Tmap_traits@HU_tagWaiting@@U?$less@H@std@@V?$allocator@U?$pair@$$CBHU_tagWaiting@@@std@@@3@$0A@@std@@@std@@IBEAAPAU_Node@?$_Tree_nod@V?$_Tmap_traits@HU_tagWaiting@@U?$less@H@std@@V?$allocator@U?$pair@$$CBHU_tagWaiting@@@std@@@3@$0A@@std@@@2@XZ ; std::_Tree<std::_Tmap_traits<int,_tagWaiting,std::less<int>,std::allocator<std::pair<int const ,_tagWaiting> >,0> >::_Rmost
; Function compile flags: /Ogtp
;	COMDAT ?_Rmost@?$_Tree@V?$_Tmap_traits@HU_tagWaiting@@U?$less@H@std@@V?$allocator@U?$pair@$$CBHU_tagWaiting@@@std@@@3@$0A@@std@@@std@@IBEAAPAU_Node@?$_Tree_nod@V?$_Tmap_traits@HU_tagWaiting@@U?$less@H@std@@V?$allocator@U?$pair@$$CBHU_tagWaiting@@@std@@@3@$0A@@std@@@2@XZ
_TEXT	SEGMENT
?_Rmost@?$_Tree@V?$_Tmap_traits@HU_tagWaiting@@U?$less@H@std@@V?$allocator@U?$pair@$$CBHU_tagWaiting@@@std@@@3@$0A@@std@@@std@@IBEAAPAU_Node@?$_Tree_nod@V?$_Tmap_traits@HU_tagWaiting@@U?$less@H@std@@V?$allocator@U?$pair@$$CBHU_tagWaiting@@@std@@@3@$0A@@std@@@2@XZ PROC ; std::_Tree<std::_Tmap_traits<int,_tagWaiting,std::less<int>,std::allocator<std::pair<int const ,_tagWaiting> >,0> >::_Rmost, COMDAT
; _this$ = ecx

; 1784 : 		return (this->_Right(this->_Myhead));

  00000	8b 41 04	 mov	 eax, DWORD PTR [ecx+4]
  00003	83 c0 08	 add	 eax, 8

; 1785 : 		}

  00006	c3		 ret	 0
?_Rmost@?$_Tree@V?$_Tmap_traits@HU_tagWaiting@@U?$less@H@std@@V?$allocator@U?$pair@$$CBHU_tagWaiting@@@std@@@3@$0A@@std@@@std@@IBEAAPAU_Node@?$_Tree_nod@V?$_Tmap_traits@HU_tagWaiting@@U?$less@H@std@@V?$allocator@U?$pair@$$CBHU_tagWaiting@@@std@@@3@$0A@@std@@@2@XZ ENDP ; std::_Tree<std::_Tmap_traits<int,_tagWaiting,std::less<int>,std::allocator<std::pair<int const ,_tagWaiting> >,0> >::_Rmost
_TEXT	ENDS
PUBLIC	?_Root@?$_Tree@V?$_Tmap_traits@HU_tagWaiting@@U?$less@H@std@@V?$allocator@U?$pair@$$CBHU_tagWaiting@@@std@@@3@$0A@@std@@@std@@IBEAAPAU_Node@?$_Tree_nod@V?$_Tmap_traits@HU_tagWaiting@@U?$less@H@std@@V?$allocator@U?$pair@$$CBHU_tagWaiting@@@std@@@3@$0A@@std@@@2@XZ ; std::_Tree<std::_Tmap_traits<int,_tagWaiting,std::less<int>,std::allocator<std::pair<int const ,_tagWaiting> >,0> >::_Root
; Function compile flags: /Ogtp
;	COMDAT ?_Root@?$_Tree@V?$_Tmap_traits@HU_tagWaiting@@U?$less@H@std@@V?$allocator@U?$pair@$$CBHU_tagWaiting@@@std@@@3@$0A@@std@@@std@@IBEAAPAU_Node@?$_Tree_nod@V?$_Tmap_traits@HU_tagWaiting@@U?$less@H@std@@V?$allocator@U?$pair@$$CBHU_tagWaiting@@@std@@@3@$0A@@std@@@2@XZ
_TEXT	SEGMENT
?_Root@?$_Tree@V?$_Tmap_traits@HU_tagWaiting@@U?$less@H@std@@V?$allocator@U?$pair@$$CBHU_tagWaiting@@@std@@@3@$0A@@std@@@std@@IBEAAPAU_Node@?$_Tree_nod@V?$_Tmap_traits@HU_tagWaiting@@U?$less@H@std@@V?$allocator@U?$pair@$$CBHU_tagWaiting@@@std@@@3@$0A@@std@@@2@XZ PROC ; std::_Tree<std::_Tmap_traits<int,_tagWaiting,std::less<int>,std::allocator<std::pair<int const ,_tagWaiting> >,0> >::_Root, COMDAT
; _this$ = ecx

; 1789 : 		return (this->_Parent(this->_Myhead));

  00000	8b 41 04	 mov	 eax, DWORD PTR [ecx+4]
  00003	83 c0 04	 add	 eax, 4

; 1790 : 		}

  00006	c3		 ret	 0
?_Root@?$_Tree@V?$_Tmap_traits@HU_tagWaiting@@U?$less@H@std@@V?$allocator@U?$pair@$$CBHU_tagWaiting@@@std@@@3@$0A@@std@@@std@@IBEAAPAU_Node@?$_Tree_nod@V?$_Tmap_traits@HU_tagWaiting@@U?$less@H@std@@V?$allocator@U?$pair@$$CBHU_tagWaiting@@@std@@@3@$0A@@std@@@2@XZ ENDP ; std::_Tree<std::_Tmap_traits<int,_tagWaiting,std::less<int>,std::allocator<std::pair<int const ,_tagWaiting> >,0> >::_Root
_TEXT	ENDS
PUBLIC	?_Rrotate@?$_Tree@V?$_Tmap_traits@HU_tagWaiting@@U?$less@H@std@@V?$allocator@U?$pair@$$CBHU_tagWaiting@@@std@@@3@$0A@@std@@@std@@IAEXPAU_Node@?$_Tree_nod@V?$_Tmap_traits@HU_tagWaiting@@U?$less@H@std@@V?$allocator@U?$pair@$$CBHU_tagWaiting@@@std@@@3@$0A@@std@@@2@@Z ; std::_Tree<std::_Tmap_traits<int,_tagWaiting,std::less<int>,std::allocator<std::pair<int const ,_tagWaiting> >,0> >::_Rrotate
; Function compile flags: /Ogtp
;	COMDAT ?_Rrotate@?$_Tree@V?$_Tmap_traits@HU_tagWaiting@@U?$less@H@std@@V?$allocator@U?$pair@$$CBHU_tagWaiting@@@std@@@3@$0A@@std@@@std@@IAEXPAU_Node@?$_Tree_nod@V?$_Tmap_traits@HU_tagWaiting@@U?$less@H@std@@V?$allocator@U?$pair@$$CBHU_tagWaiting@@@std@@@3@$0A@@std@@@2@@Z
_TEXT	SEGMENT
__Wherenode$ = 8					; size = 4
?_Rrotate@?$_Tree@V?$_Tmap_traits@HU_tagWaiting@@U?$less@H@std@@V?$allocator@U?$pair@$$CBHU_tagWaiting@@@std@@@3@$0A@@std@@@std@@IAEXPAU_Node@?$_Tree_nod@V?$_Tmap_traits@HU_tagWaiting@@U?$less@H@std@@V?$allocator@U?$pair@$$CBHU_tagWaiting@@@std@@@3@$0A@@std@@@2@@Z PROC ; std::_Tree<std::_Tmap_traits<int,_tagWaiting,std::less<int>,std::allocator<std::pair<int const ,_tagWaiting> >,0> >::_Rrotate, COMDAT
; _this$ = ecx

; 1793 : 		{	// promote left node to root of subtree

  00000	55		 push	 ebp
  00001	8b ec		 mov	 ebp, esp

; 1794 : 		_Nodeptr _Pnode = this->_Left(_Wherenode);

  00003	8b 55 08	 mov	 edx, DWORD PTR __Wherenode$[ebp]
  00006	8b 02		 mov	 eax, DWORD PTR [edx]
  00008	56		 push	 esi

; 1795 : 		this->_Left(_Wherenode) = this->_Right(_Pnode);

  00009	8b 70 08	 mov	 esi, DWORD PTR [eax+8]
  0000c	89 32		 mov	 DWORD PTR [edx], esi

; 1796 : 
; 1797 : 		if (!this->_Isnil(this->_Right(_Pnode)))

  0000e	8b 70 08	 mov	 esi, DWORD PTR [eax+8]
  00011	80 7e 21 00	 cmp	 BYTE PTR [esi+33], 0
  00015	75 03		 jne	 SHORT $LN5@Rrotate

; 1798 : 			this->_Parent(this->_Right(_Pnode)) = _Wherenode;

  00017	89 56 04	 mov	 DWORD PTR [esi+4], edx
$LN5@Rrotate:

; 1799 : 		this->_Parent(_Pnode) = this->_Parent(_Wherenode);

  0001a	8b 72 04	 mov	 esi, DWORD PTR [edx+4]
  0001d	89 70 04	 mov	 DWORD PTR [eax+4], esi

; 1800 : 
; 1801 : 		if (_Wherenode == _Root())

  00020	8b 49 04	 mov	 ecx, DWORD PTR [ecx+4]
  00023	5e		 pop	 esi
  00024	3b 51 04	 cmp	 edx, DWORD PTR [ecx+4]
  00027	75 0d		 jne	 SHORT $LN4@Rrotate

; 1802 : 			_Root() = _Pnode;

  00029	89 41 04	 mov	 DWORD PTR [ecx+4], eax

; 1807 : 
; 1808 : 		this->_Right(_Pnode) = _Wherenode;

  0002c	89 50 08	 mov	 DWORD PTR [eax+8], edx

; 1809 : 		this->_Parent(_Wherenode) = _Pnode;

  0002f	89 42 04	 mov	 DWORD PTR [edx+4], eax

; 1810 : 		}

  00032	5d		 pop	 ebp
  00033	c2 04 00	 ret	 4
$LN4@Rrotate:

; 1803 : 		else if (_Wherenode == this->_Right(this->_Parent(_Wherenode)))

  00036	8b 4a 04	 mov	 ecx, DWORD PTR [edx+4]
  00039	3b 51 08	 cmp	 edx, DWORD PTR [ecx+8]
  0003c	75 0d		 jne	 SHORT $LN2@Rrotate

; 1804 : 			this->_Right(this->_Parent(_Wherenode)) = _Pnode;

  0003e	89 41 08	 mov	 DWORD PTR [ecx+8], eax

; 1807 : 
; 1808 : 		this->_Right(_Pnode) = _Wherenode;

  00041	89 50 08	 mov	 DWORD PTR [eax+8], edx

; 1809 : 		this->_Parent(_Wherenode) = _Pnode;

  00044	89 42 04	 mov	 DWORD PTR [edx+4], eax

; 1810 : 		}

  00047	5d		 pop	 ebp
  00048	c2 04 00	 ret	 4
$LN2@Rrotate:

; 1805 : 		else
; 1806 : 			this->_Left(this->_Parent(_Wherenode)) = _Pnode;

  0004b	89 01		 mov	 DWORD PTR [ecx], eax

; 1807 : 
; 1808 : 		this->_Right(_Pnode) = _Wherenode;

  0004d	89 50 08	 mov	 DWORD PTR [eax+8], edx

; 1809 : 		this->_Parent(_Wherenode) = _Pnode;

  00050	89 42 04	 mov	 DWORD PTR [edx+4], eax

; 1810 : 		}

  00053	5d		 pop	 ebp
  00054	c2 04 00	 ret	 4
?_Rrotate@?$_Tree@V?$_Tmap_traits@HU_tagWaiting@@U?$less@H@std@@V?$allocator@U?$pair@$$CBHU_tagWaiting@@@std@@@3@$0A@@std@@@std@@IAEXPAU_Node@?$_Tree_nod@V?$_Tmap_traits@HU_tagWaiting@@U?$less@H@std@@V?$allocator@U?$pair@$$CBHU_tagWaiting@@@std@@@3@$0A@@std@@@2@@Z ENDP ; std::_Tree<std::_Tmap_traits<int,_tagWaiting,std::less<int>,std::allocator<std::pair<int const ,_tagWaiting> >,0> >::_Rrotate
_TEXT	ENDS
PUBLIC	??1?$_Tree_val@V?$_Tmap_traits@HU_tagWaiting@@U?$less@H@std@@V?$allocator@U?$pair@$$CBHU_tagWaiting@@@std@@@3@$0A@@std@@@std@@QAE@XZ ; std::_Tree_val<std::_Tmap_traits<int,_tagWaiting,std::less<int>,std::allocator<std::pair<int const ,_tagWaiting> >,0> >::~_Tree_val<std::_Tmap_traits<int,_tagWaiting,std::less<int>,std::allocator<std::pair<int const ,_tagWaiting> >,0> >
; Function compile flags: /Ogtp
;	COMDAT ??1?$_Tree_val@V?$_Tmap_traits@HU_tagWaiting@@U?$less@H@std@@V?$allocator@U?$pair@$$CBHU_tagWaiting@@@std@@@3@$0A@@std@@@std@@QAE@XZ
_TEXT	SEGMENT
??1?$_Tree_val@V?$_Tmap_traits@HU_tagWaiting@@U?$less@H@std@@V?$allocator@U?$pair@$$CBHU_tagWaiting@@@std@@@3@$0A@@std@@@std@@QAE@XZ PROC ; std::_Tree_val<std::_Tmap_traits<int,_tagWaiting,std::less<int>,std::allocator<std::pair<int const ,_tagWaiting> >,0> >::~_Tree_val<std::_Tmap_traits<int,_tagWaiting,std::less<int>,std::allocator<std::pair<int const ,_tagWaiting> >,0> >, COMDAT
; _this$ = ecx

; 555  : 		this->_Alnod.deallocate(this->_Myhead, 1);

  00000	8b 41 04	 mov	 eax, DWORD PTR [ecx+4]
  00003	50		 push	 eax
  00004	e8 00 00 00 00	 call	 ??3@YAXPAX@Z		; operator delete
  00009	59		 pop	 ecx

; 556  : 		}

  0000a	c3		 ret	 0
??1?$_Tree_val@V?$_Tmap_traits@HU_tagWaiting@@U?$less@H@std@@V?$allocator@U?$pair@$$CBHU_tagWaiting@@@std@@@3@$0A@@std@@@std@@QAE@XZ ENDP ; std::_Tree_val<std::_Tmap_traits<int,_tagWaiting,std::less<int>,std::allocator<std::pair<int const ,_tagWaiting> >,0> >::~_Tree_val<std::_Tmap_traits<int,_tagWaiting,std::less<int>,std::allocator<std::pair<int const ,_tagWaiting> >,0> >
_TEXT	ENDS
PUBLIC	?_Key@?$_Tree_val@V?$_Tmap_traits@HU_tagWaiting@@U?$less@H@std@@V?$allocator@U?$pair@$$CBHU_tagWaiting@@@std@@@3@$0A@@std@@@std@@SAAAHPAU_Node@?$_Tree_nod@V?$_Tmap_traits@HU_tagWaiting@@U?$less@H@std@@V?$allocator@U?$pair@$$CBHU_tagWaiting@@@std@@@3@$0A@@std@@@2@@Z ; std::_Tree_val<std::_Tmap_traits<int,_tagWaiting,std::less<int>,std::allocator<std::pair<int const ,_tagWaiting> >,0> >::_Key
; Function compile flags: /Ogtp
;	COMDAT ?_Key@?$_Tree_val@V?$_Tmap_traits@HU_tagWaiting@@U?$less@H@std@@V?$allocator@U?$pair@$$CBHU_tagWaiting@@@std@@@3@$0A@@std@@@std@@SAAAHPAU_Node@?$_Tree_nod@V?$_Tmap_traits@HU_tagWaiting@@U?$less@H@std@@V?$allocator@U?$pair@$$CBHU_tagWaiting@@@std@@@3@$0A@@std@@@2@@Z
_TEXT	SEGMENT
__Pnode$ = 8						; size = 4
?_Key@?$_Tree_val@V?$_Tmap_traits@HU_tagWaiting@@U?$less@H@std@@V?$allocator@U?$pair@$$CBHU_tagWaiting@@@std@@@3@$0A@@std@@@std@@SAAAHPAU_Node@?$_Tree_nod@V?$_Tmap_traits@HU_tagWaiting@@U?$less@H@std@@V?$allocator@U?$pair@$$CBHU_tagWaiting@@@std@@@3@$0A@@std@@@2@@Z PROC ; std::_Tree_val<std::_Tmap_traits<int,_tagWaiting,std::less<int>,std::allocator<std::pair<int const ,_tagWaiting> >,0> >::_Key, COMDAT

; 616  : 		{	// return reference to key in node

  00000	55		 push	 ebp
  00001	8b ec		 mov	 ebp, esp

; 617  : 		return ((key_type&)_Traits::_Kfn(_Myval(_Pnode)));

  00003	8b 45 08	 mov	 eax, DWORD PTR __Pnode$[ebp]
  00006	83 c0 0c	 add	 eax, 12			; 0000000cH

; 618  : 		}

  00009	5d		 pop	 ebp
  0000a	c3		 ret	 0
?_Key@?$_Tree_val@V?$_Tmap_traits@HU_tagWaiting@@U?$less@H@std@@V?$allocator@U?$pair@$$CBHU_tagWaiting@@@std@@@3@$0A@@std@@@std@@SAAAHPAU_Node@?$_Tree_nod@V?$_Tmap_traits@HU_tagWaiting@@U?$less@H@std@@V?$allocator@U?$pair@$$CBHU_tagWaiting@@@std@@@3@$0A@@std@@@2@@Z ENDP ; std::_Tree_val<std::_Tmap_traits<int,_tagWaiting,std::less<int>,std::allocator<std::pair<int const ,_tagWaiting> >,0> >::_Key
_TEXT	ENDS
PUBLIC	?_Lmost@?$_Tree@V?$_Tmap_traits@HU_tagObserverInfo@@U?$less@H@std@@V?$allocator@U?$pair@$$CBHU_tagObserverInfo@@@std@@@3@$0A@@std@@@std@@IBEAAPAU_Node@?$_Tree_nod@V?$_Tmap_traits@HU_tagObserverInfo@@U?$less@H@std@@V?$allocator@U?$pair@$$CBHU_tagObserverInfo@@@std@@@3@$0A@@std@@@2@XZ ; std::_Tree<std::_Tmap_traits<int,_tagObserverInfo,std::less<int>,std::allocator<std::pair<int const ,_tagObserverInfo> >,0> >::_Lmost
; Function compile flags: /Ogtp
;	COMDAT ?_Lmost@?$_Tree@V?$_Tmap_traits@HU_tagObserverInfo@@U?$less@H@std@@V?$allocator@U?$pair@$$CBHU_tagObserverInfo@@@std@@@3@$0A@@std@@@std@@IBEAAPAU_Node@?$_Tree_nod@V?$_Tmap_traits@HU_tagObserverInfo@@U?$less@H@std@@V?$allocator@U?$pair@$$CBHU_tagObserverInfo@@@std@@@3@$0A@@std@@@2@XZ
_TEXT	SEGMENT
?_Lmost@?$_Tree@V?$_Tmap_traits@HU_tagObserverInfo@@U?$less@H@std@@V?$allocator@U?$pair@$$CBHU_tagObserverInfo@@@std@@@3@$0A@@std@@@std@@IBEAAPAU_Node@?$_Tree_nod@V?$_Tmap_traits@HU_tagObserverInfo@@U?$less@H@std@@V?$allocator@U?$pair@$$CBHU_tagObserverInfo@@@std@@@3@$0A@@std@@@2@XZ PROC ; std::_Tree<std::_Tmap_traits<int,_tagObserverInfo,std::less<int>,std::allocator<std::pair<int const ,_tagObserverInfo> >,0> >::_Lmost, COMDAT
; _this$ = ecx

; 1759 : 		return (this->_Left(this->_Myhead));

  00000	8b 41 04	 mov	 eax, DWORD PTR [ecx+4]

; 1760 : 		}

  00003	c3		 ret	 0
?_Lmost@?$_Tree@V?$_Tmap_traits@HU_tagObserverInfo@@U?$less@H@std@@V?$allocator@U?$pair@$$CBHU_tagObserverInfo@@@std@@@3@$0A@@std@@@std@@IBEAAPAU_Node@?$_Tree_nod@V?$_Tmap_traits@HU_tagObserverInfo@@U?$less@H@std@@V?$allocator@U?$pair@$$CBHU_tagObserverInfo@@@std@@@3@$0A@@std@@@2@XZ ENDP ; std::_Tree<std::_Tmap_traits<int,_tagObserverInfo,std::less<int>,std::allocator<std::pair<int const ,_tagObserverInfo> >,0> >::_Lmost
_TEXT	ENDS
PUBLIC	?_Rmost@?$_Tree@V?$_Tmap_traits@HU_tagObserverInfo@@U?$less@H@std@@V?$allocator@U?$pair@$$CBHU_tagObserverInfo@@@std@@@3@$0A@@std@@@std@@IBEAAPAU_Node@?$_Tree_nod@V?$_Tmap_traits@HU_tagObserverInfo@@U?$less@H@std@@V?$allocator@U?$pair@$$CBHU_tagObserverInfo@@@std@@@3@$0A@@std@@@2@XZ ; std::_Tree<std::_Tmap_traits<int,_tagObserverInfo,std::less<int>,std::allocator<std::pair<int const ,_tagObserverInfo> >,0> >::_Rmost
; Function compile flags: /Ogtp
;	COMDAT ?_Rmost@?$_Tree@V?$_Tmap_traits@HU_tagObserverInfo@@U?$less@H@std@@V?$allocator@U?$pair@$$CBHU_tagObserverInfo@@@std@@@3@$0A@@std@@@std@@IBEAAPAU_Node@?$_Tree_nod@V?$_Tmap_traits@HU_tagObserverInfo@@U?$less@H@std@@V?$allocator@U?$pair@$$CBHU_tagObserverInfo@@@std@@@3@$0A@@std@@@2@XZ
_TEXT	SEGMENT
?_Rmost@?$_Tree@V?$_Tmap_traits@HU_tagObserverInfo@@U?$less@H@std@@V?$allocator@U?$pair@$$CBHU_tagObserverInfo@@@std@@@3@$0A@@std@@@std@@IBEAAPAU_Node@?$_Tree_nod@V?$_Tmap_traits@HU_tagObserverInfo@@U?$less@H@std@@V?$allocator@U?$pair@$$CBHU_tagObserverInfo@@@std@@@3@$0A@@std@@@2@XZ PROC ; std::_Tree<std::_Tmap_traits<int,_tagObserverInfo,std::less<int>,std::allocator<std::pair<int const ,_tagObserverInfo> >,0> >::_Rmost, COMDAT
; _this$ = ecx

; 1784 : 		return (this->_Right(this->_Myhead));

  00000	8b 41 04	 mov	 eax, DWORD PTR [ecx+4]
  00003	83 c0 08	 add	 eax, 8

; 1785 : 		}

  00006	c3		 ret	 0
?_Rmost@?$_Tree@V?$_Tmap_traits@HU_tagObserverInfo@@U?$less@H@std@@V?$allocator@U?$pair@$$CBHU_tagObserverInfo@@@std@@@3@$0A@@std@@@std@@IBEAAPAU_Node@?$_Tree_nod@V?$_Tmap_traits@HU_tagObserverInfo@@U?$less@H@std@@V?$allocator@U?$pair@$$CBHU_tagObserverInfo@@@std@@@3@$0A@@std@@@2@XZ ENDP ; std::_Tree<std::_Tmap_traits<int,_tagObserverInfo,std::less<int>,std::allocator<std::pair<int const ,_tagObserverInfo> >,0> >::_Rmost
_TEXT	ENDS
PUBLIC	?_Root@?$_Tree@V?$_Tmap_traits@HU_tagObserverInfo@@U?$less@H@std@@V?$allocator@U?$pair@$$CBHU_tagObserverInfo@@@std@@@3@$0A@@std@@@std@@IBEAAPAU_Node@?$_Tree_nod@V?$_Tmap_traits@HU_tagObserverInfo@@U?$less@H@std@@V?$allocator@U?$pair@$$CBHU_tagObserverInfo@@@std@@@3@$0A@@std@@@2@XZ ; std::_Tree<std::_Tmap_traits<int,_tagObserverInfo,std::less<int>,std::allocator<std::pair<int const ,_tagObserverInfo> >,0> >::_Root
; Function compile flags: /Ogtp
;	COMDAT ?_Root@?$_Tree@V?$_Tmap_traits@HU_tagObserverInfo@@U?$less@H@std@@V?$allocator@U?$pair@$$CBHU_tagObserverInfo@@@std@@@3@$0A@@std@@@std@@IBEAAPAU_Node@?$_Tree_nod@V?$_Tmap_traits@HU_tagObserverInfo@@U?$less@H@std@@V?$allocator@U?$pair@$$CBHU_tagObserverInfo@@@std@@@3@$0A@@std@@@2@XZ
_TEXT	SEGMENT
?_Root@?$_Tree@V?$_Tmap_traits@HU_tagObserverInfo@@U?$less@H@std@@V?$allocator@U?$pair@$$CBHU_tagObserverInfo@@@std@@@3@$0A@@std@@@std@@IBEAAPAU_Node@?$_Tree_nod@V?$_Tmap_traits@HU_tagObserverInfo@@U?$less@H@std@@V?$allocator@U?$pair@$$CBHU_tagObserverInfo@@@std@@@3@$0A@@std@@@2@XZ PROC ; std::_Tree<std::_Tmap_traits<int,_tagObserverInfo,std::less<int>,std::allocator<std::pair<int const ,_tagObserverInfo> >,0> >::_Root, COMDAT
; _this$ = ecx

; 1789 : 		return (this->_Parent(this->_Myhead));

  00000	8b 41 04	 mov	 eax, DWORD PTR [ecx+4]
  00003	83 c0 04	 add	 eax, 4

; 1790 : 		}

  00006	c3		 ret	 0
