; Listing generated by Microsoft (R) Optimizing Compiler Version 16.00.40219.01 

	TITLE	C:\muserver_dev\development\MU-S8EP2-Repack\GameServer\Source\PersonalShopMapping.cpp
	.686P
	.XMM
	include listing.inc
	.model	flat

INCLUDELIB LIBCMT
INCLUDELIB OLDNAMES

PUBLIC	??2@YAPAXIPAX@Z					; operator new
; Function compile flags: /Ogtp
; File c:\program files (x86)\microsoft visual studio 10.0\vc\include\new.h
;	COMDAT ??2@YAPAXIPAX@Z
_TEXT	SEGMENT
___formal$ = 8						; size = 4
__Where$ = 12						; size = 4
??2@YAPAXIPAX@Z PROC					; operator new, COMDAT

; 81   :         {return (_Where); }

  00000	55		 push	 ebp
  00001	8b ec		 mov	 ebp, esp
  00003	8b 45 0c	 mov	 eax, DWORD PTR __Where$[ebp]
  00006	5d		 pop	 ebp
  00007	c3		 ret	 0
??2@YAPAXIPAX@Z ENDP					; operator new
_TEXT	ENDS
PUBLIC	??3@YAXPAX0@Z					; operator delete
; Function compile flags: /Ogtp
;	COMDAT ??3@YAXPAX0@Z
_TEXT	SEGMENT
___formal$ = 8						; size = 4
___formal$ = 12						; size = 4
??3@YAXPAX0@Z PROC					; operator delete, COMDAT

; 83   :         {return; }

  00000	c3		 ret	 0
??3@YAXPAX0@Z ENDP					; operator delete
_TEXT	ENDS
PUBLIC	??1OBJECTSTRUCT@@QAE@XZ				; OBJECTSTRUCT::~OBJECTSTRUCT
EXTRN	??1CSkillDelay@@UAE@XZ:PROC			; CSkillDelay::~CSkillDelay
EXTRN	??1TMonsterAIAgro@@UAE@XZ:PROC			; TMonsterAIAgro::~TMonsterAIAgro
EXTRN	___security_cookie:DWORD
EXTRN	___CxxFrameHandler3:PROC
EXTRN	@__security_check_cookie@4:PROC
;	COMDAT xdata$x
xdata$x	SEGMENT
__unwindtable$??1OBJECTSTRUCT@@QAE@XZ DD 0ffffffffH
	DD	FLAT:__unwindfunclet$??1OBJECTSTRUCT@@QAE@XZ$0
__ehfuncinfo$??1OBJECTSTRUCT@@QAE@XZ DD 019930522H
	DD	01H
	DD	FLAT:__unwindtable$??1OBJECTSTRUCT@@QAE@XZ
	DD	2 DUP(00H)
	DD	2 DUP(00H)
	DD	00H
	DD	01H
; Function compile flags: /Ogtp
xdata$x	ENDS
;	COMDAT ??1OBJECTSTRUCT@@QAE@XZ
_TEXT	SEGMENT
_this$ = -16						; size = 4
__$EHRec$ = -12						; size = 12
??1OBJECTSTRUCT@@QAE@XZ PROC				; OBJECTSTRUCT::~OBJECTSTRUCT, COMDAT
; _this$ = ecx
  00000	55		 push	 ebp
  00001	8b ec		 mov	 ebp, esp
  00003	6a ff		 push	 -1
  00005	68 00 00 00 00	 push	 __ehhandler$??1OBJECTSTRUCT@@QAE@XZ
  0000a	64 a1 00 00 00
	00		 mov	 eax, DWORD PTR fs:0
  00010	50		 push	 eax
  00011	51		 push	 ecx
  00012	56		 push	 esi
  00013	a1 00 00 00 00	 mov	 eax, DWORD PTR ___security_cookie
  00018	33 c5		 xor	 eax, ebp
  0001a	50		 push	 eax
  0001b	8d 45 f4	 lea	 eax, DWORD PTR __$EHRec$[ebp]
  0001e	64 a3 00 00 00
	00		 mov	 DWORD PTR fs:0, eax
  00024	8b f1		 mov	 esi, ecx
  00026	89 75 f0	 mov	 DWORD PTR _this$[ebp], esi
  00029	8d 8e ec 20 00
	00		 lea	 ecx, DWORD PTR [esi+8428]
  0002f	c7 45 fc 00 00
	00 00		 mov	 DWORD PTR __$EHRec$[ebp+8], 0
  00036	e8 00 00 00 00	 call	 ??1TMonsterAIAgro@@UAE@XZ ; TMonsterAIAgro::~TMonsterAIAgro
  0003b	8d 8e 0c 16 00
	00		 lea	 ecx, DWORD PTR [esi+5644]
  00041	c7 45 fc ff ff
	ff ff		 mov	 DWORD PTR __$EHRec$[ebp+8], -1
  00048	e8 00 00 00 00	 call	 ??1CSkillDelay@@UAE@XZ	; CSkillDelay::~CSkillDelay
  0004d	8b 4d f4	 mov	 ecx, DWORD PTR __$EHRec$[ebp]
  00050	64 89 0d 00 00
	00 00		 mov	 DWORD PTR fs:0, ecx
  00057	59		 pop	 ecx
  00058	5e		 pop	 esi
  00059	8b e5		 mov	 esp, ebp
  0005b	5d		 pop	 ebp
  0005c	c3		 ret	 0
_TEXT	ENDS
;	COMDAT text$x
text$x	SEGMENT
__unwindfunclet$??1OBJECTSTRUCT@@QAE@XZ$0:
  00000	8b 4d f0	 mov	 ecx, DWORD PTR _this$[ebp]
  00003	81 c1 0c 16 00
	00		 add	 ecx, 5644		; 0000160cH
  00009	e9 00 00 00 00	 jmp	 ??1CSkillDelay@@UAE@XZ	; CSkillDelay::~CSkillDelay
__ehhandler$??1OBJECTSTRUCT@@QAE@XZ:
  0000e	8b 54 24 08	 mov	 edx, DWORD PTR [esp+8]
  00012	8d 42 0c	 lea	 eax, DWORD PTR [edx+12]
  00015	8b 4a f4	 mov	 ecx, DWORD PTR [edx-12]
  00018	33 c8		 xor	 ecx, eax
  0001a	e8 00 00 00 00	 call	 @__security_check_cookie@4
  0001f	b8 00 00 00 00	 mov	 eax, OFFSET __ehfuncinfo$??1OBJECTSTRUCT@@QAE@XZ
  00024	e9 00 00 00 00	 jmp	 ___CxxFrameHandler3
text$x	ENDS
??1OBJECTSTRUCT@@QAE@XZ ENDP				; OBJECTSTRUCT::~OBJECTSTRUCT
PUBLIC	?isEnabled@PersonalShopMapping@@QAE_NXZ		; PersonalShopMapping::isEnabled
; Function compile flags: /Ogtp
; File c:\muserver_dev\development\mu-s8ep2-repack\gameserver\source\personalshopmapping.cpp
;	COMDAT ?isEnabled@PersonalShopMapping@@QAE_NXZ
_TEXT	SEGMENT
?isEnabled@PersonalShopMapping@@QAE_NXZ PROC		; PersonalShopMapping::isEnabled, COMDAT
; _this$ = ecx

; 95   : 	return this->enabled;

  00000	8a 41 04	 mov	 al, BYTE PTR [ecx+4]

; 96   : }

  00003	c3		 ret	 0
?isEnabled@PersonalShopMapping@@QAE_NXZ ENDP		; PersonalShopMapping::isEnabled
_TEXT	ENDS
PUBLIC	?isAllmaps@PersonalShopMapping@@QAE_NXZ		; PersonalShopMapping::isAllmaps
; Function compile flags: /Ogtp
;	COMDAT ?isAllmaps@PersonalShopMapping@@QAE_NXZ
_TEXT	SEGMENT
?isAllmaps@PersonalShopMapping@@QAE_NXZ PROC		; PersonalShopMapping::isAllmaps, COMDAT
; _this$ = ecx

; 100  : 	return this->allmaps;

  00000	8a 41 05	 mov	 al, BYTE PTR [ecx+5]

; 101  : }

  00003	c3		 ret	 0
?isAllmaps@PersonalShopMapping@@QAE_NXZ ENDP		; PersonalShopMapping::isAllmaps
_TEXT	ENDS
PUBLIC	?empty@?$vector@UPersonalShopMap@@V?$allocator@UPersonalShopMap@@@std@@@std@@QBE_NXZ ; std::vector<PersonalShopMap,std::allocator<PersonalShopMap> >::empty
; Function compile flags: /Ogtp
; File c:\program files (x86)\microsoft visual studio 10.0\vc\include\vector
;	COMDAT ?empty@?$vector@UPersonalShopMap@@V?$allocator@UPersonalShopMap@@@std@@@std@@QBE_NXZ
_TEXT	SEGMENT
?empty@?$vector@UPersonalShopMap@@V?$allocator@UPersonalShopMap@@@std@@@std@@QBE_NXZ PROC ; std::vector<PersonalShopMap,std::allocator<PersonalShopMap> >::empty, COMDAT
; _this$ = ecx

; 889  : 		return (this->_Myfirst == this->_Mylast);

  00000	8b 01		 mov	 eax, DWORD PTR [ecx]
  00002	33 d2		 xor	 edx, edx
  00004	3b 41 04	 cmp	 eax, DWORD PTR [ecx+4]
  00007	0f 94 c0	 sete	 al

; 890  : 		}

  0000a	c3		 ret	 0
?empty@?$vector@UPersonalShopMap@@V?$allocator@UPersonalShopMap@@@std@@@std@@QBE_NXZ ENDP ; std::vector<PersonalShopMap,std::allocator<PersonalShopMap> >::empty
_TEXT	ENDS
PUBLIC	?_Inside@?$vector@UPersonalShopMap@@V?$allocator@UPersonalShopMap@@@std@@@std@@IBE_NPBUPersonalShopMap@@@Z ; std::vector<PersonalShopMap,std::allocator<PersonalShopMap> >::_Inside
; Function compile flags: /Ogtp
;	COMDAT ?_Inside@?$vector@UPersonalShopMap@@V?$allocator@UPersonalShopMap@@@std@@@std@@IBE_NPBUPersonalShopMap@@@Z
_TEXT	SEGMENT
__Ptr$ = 8						; size = 4
?_Inside@?$vector@UPersonalShopMap@@V?$allocator@UPersonalShopMap@@@std@@@std@@IBE_NPBUPersonalShopMap@@@Z PROC ; std::vector<PersonalShopMap,std::allocator<PersonalShopMap> >::_Inside, COMDAT
; _this$ = ecx

; 1285 : 		{	// test if _Ptr points inside vector

  00000	55		 push	 ebp
  00001	8b ec		 mov	 ebp, esp

; 1286 : 		return (_Ptr < this->_Mylast && this->_Myfirst <= _Ptr);

  00003	8b 45 08	 mov	 eax, DWORD PTR __Ptr$[ebp]
  00006	3b 41 04	 cmp	 eax, DWORD PTR [ecx+4]
  00009	73 0d		 jae	 SHORT $LN3@Inside
  0000b	39 01		 cmp	 DWORD PTR [ecx], eax
  0000d	77 09		 ja	 SHORT $LN3@Inside
  0000f	b8 01 00 00 00	 mov	 eax, 1

; 1287 : 		}

  00014	5d		 pop	 ebp
  00015	c2 04 00	 ret	 4
$LN3@Inside:

; 1286 : 		return (_Ptr < this->_Mylast && this->_Myfirst <= _Ptr);

  00018	33 c0		 xor	 eax, eax

; 1287 : 		}

  0001a	5d		 pop	 ebp
  0001b	c2 04 00	 ret	 4
?_Inside@?$vector@UPersonalShopMap@@V?$allocator@UPersonalShopMap@@@std@@@std@@IBE_NPBUPersonalShopMap@@@Z ENDP ; std::vector<PersonalShopMap,std::allocator<PersonalShopMap> >::_Inside
_TEXT	ENDS
PUBLIC	?_Orphan_range@?$vector@UPersonalShopMap@@V?$allocator@UPersonalShopMap@@@std@@@std@@IBEXPAUPersonalShopMap@@0@Z ; std::vector<PersonalShopMap,std::allocator<PersonalShopMap> >::_Orphan_range
; Function compile flags: /Ogtp
;	COMDAT ?_Orphan_range@?$vector@UPersonalShopMap@@V?$allocator@UPersonalShopMap@@@std@@@std@@IBEXPAUPersonalShopMap@@0@Z
_TEXT	SEGMENT
___formal$ = 8						; size = 4
___formal$ = 12						; size = 4
?_Orphan_range@?$vector@UPersonalShopMap@@V?$allocator@UPersonalShopMap@@@std@@@std@@IBEXPAUPersonalShopMap@@0@Z PROC ; std::vector<PersonalShopMap,std::allocator<PersonalShopMap> >::_Orphan_range, COMDAT
; _this$ = ecx

; 1454 : 		}

  00000	c2 08 00	 ret	 8
?_Orphan_range@?$vector@UPersonalShopMap@@V?$allocator@UPersonalShopMap@@@std@@@std@@IBEXPAUPersonalShopMap@@0@Z ENDP ; std::vector<PersonalShopMap,std::allocator<PersonalShopMap> >::_Orphan_range
_TEXT	ENDS
PUBLIC	??1?$_Vector_val@UPersonalShopMap@@V?$allocator@UPersonalShopMap@@@std@@@std@@QAE@XZ ; std::_Vector_val<PersonalShopMap,std::allocator<PersonalShopMap> >::~_Vector_val<PersonalShopMap,std::allocator<PersonalShopMap> >
; Function compile flags: /Ogtp
;	COMDAT ??1?$_Vector_val@UPersonalShopMap@@V?$allocator@UPersonalShopMap@@@std@@@std@@QAE@XZ
_TEXT	SEGMENT
??1?$_Vector_val@UPersonalShopMap@@V?$allocator@UPersonalShopMap@@@std@@@std@@QAE@XZ PROC ; std::_Vector_val<PersonalShopMap,std::allocator<PersonalShopMap> >::~_Vector_val<PersonalShopMap,std::allocator<PersonalShopMap> >, COMDAT
; _this$ = ecx

; 434  : 		}

  00000	c3		 ret	 0
??1?$_Vector_val@UPersonalShopMap@@V?$allocator@UPersonalShopMap@@@std@@@std@@QAE@XZ ENDP ; std::_Vector_val<PersonalShopMap,std::allocator<PersonalShopMap> >::~_Vector_val<PersonalShopMap,std::allocator<PersonalShopMap> >
_TEXT	ENDS
PUBLIC	??0?$allocator@UPersonalShopMap@@@std@@QAE@XZ	; std::allocator<PersonalShopMap>::allocator<PersonalShopMap>
; Function compile flags: /Ogtp
; File c:\program files (x86)\microsoft visual studio 10.0\vc\include\xmemory
;	COMDAT ??0?$allocator@UPersonalShopMap@@@std@@QAE@XZ
_TEXT	SEGMENT
??0?$allocator@UPersonalShopMap@@@std@@QAE@XZ PROC	; std::allocator<PersonalShopMap>::allocator<PersonalShopMap>, COMDAT
; _this$ = ecx

; 161  : 	_ALLOCATOR() _THROW0()

  00000	8b c1		 mov	 eax, ecx

; 162  : 		{	// construct default allocator (do nothing)
; 163  : 		}

  00002	c3		 ret	 0
??0?$allocator@UPersonalShopMap@@@std@@QAE@XZ ENDP	; std::allocator<PersonalShopMap>::allocator<PersonalShopMap>
_TEXT	ENDS
PUBLIC	??D?$_Vector_const_iterator@V?$_Vector_val@UPersonalShopMap@@V?$allocator@UPersonalShopMap@@@std@@@std@@@std@@QBEABUPersonalShopMap@@XZ ; std::_Vector_const_iterator<std::_Vector_val<PersonalShopMap,std::allocator<PersonalShopMap> > >::operator*
; Function compile flags: /Ogtp
; File c:\program files (x86)\microsoft visual studio 10.0\vc\include\vector
;	COMDAT ??D?$_Vector_const_iterator@V?$_Vector_val@UPersonalShopMap@@V?$allocator@UPersonalShopMap@@@std@@@std@@@std@@QBEABUPersonalShopMap@@XZ
_TEXT	SEGMENT
??D?$_Vector_const_iterator@V?$_Vector_val@UPersonalShopMap@@V?$allocator@UPersonalShopMap@@@std@@@std@@@std@@QBEABUPersonalShopMap@@XZ PROC ; std::_Vector_const_iterator<std::_Vector_val<PersonalShopMap,std::allocator<PersonalShopMap> > >::operator*, COMDAT
; _this$ = ecx

; 64   :  #if _ITERATOR_DEBUG_LEVEL == 2
; 65   : 		if (this->_Getcont() == 0
; 66   : 			|| this->_Ptr == 0
; 67   : 			|| this->_Ptr < ((_Myvec *)this->_Getcont())->_Myfirst
; 68   : 			|| ((_Myvec *)this->_Getcont())->_Mylast <= this->_Ptr)
; 69   : 			{	// report error
; 70   : 			_DEBUG_ERROR("vector iterator not dereferencable");
; 71   : 			_SCL_SECURE_OUT_OF_RANGE;
; 72   : 			}
; 73   : 
; 74   :  #elif _ITERATOR_DEBUG_LEVEL == 1
; 75   : 		_SCL_SECURE_VALIDATE(this->_Getcont() != 0);
; 76   : 		_SCL_SECURE_VALIDATE_RANGE(
; 77   : 			this->_Ptr != 0
; 78   : 			&& ((_Myvec *)this->_Getcont())->_Myfirst <= this->_Ptr
; 79   : 			&& this->_Ptr < ((_Myvec *)this->_Getcont())->_Mylast);
; 80   :  #endif /* _ITERATOR_DEBUG_LEVEL */
; 81   : 
; 82   : 		__analysis_assume(this->_Ptr != 0);
; 83   : 
; 84   : 		return (*this->_Ptr);

  00000	8b 01		 mov	 eax, DWORD PTR [ecx]

; 85   : 		}

  00002	c3		 ret	 0
??D?$_Vector_const_iterator@V?$_Vector_val@UPersonalShopMap@@V?$allocator@UPersonalShopMap@@@std@@@std@@@std@@QBEABUPersonalShopMap@@XZ ENDP ; std::_Vector_const_iterator<std::_Vector_val<PersonalShopMap,std::allocator<PersonalShopMap> > >::operator*
_TEXT	ENDS
PUBLIC	?capacity@?$vector@UPersonalShopMap@@V?$allocator@UPersonalShopMap@@@std@@@std@@QBEIXZ ; std::vector<PersonalShopMap,std::allocator<PersonalShopMap> >::capacity
; Function compile flags: /Ogtp
;	COMDAT ?capacity@?$vector@UPersonalShopMap@@V?$allocator@UPersonalShopMap@@@std@@@std@@QBEIXZ
_TEXT	SEGMENT
?capacity@?$vector@UPersonalShopMap@@V?$allocator@UPersonalShopMap@@@std@@@std@@QBEIXZ PROC ; std::vector<PersonalShopMap,std::allocator<PersonalShopMap> >::capacity, COMDAT
; _this$ = ecx

; 777  : 		return (this->_Myend - this->_Myfirst);

  00000	8b 51 08	 mov	 edx, DWORD PTR [ecx+8]
  00003	2b 11		 sub	 edx, DWORD PTR [ecx]
  00005	b8 4f ec c4 4e	 mov	 eax, 1321528399		; 4ec4ec4fH
  0000a	f7 ea		 imul	 edx
  0000c	c1 fa 04	 sar	 edx, 4
  0000f	8b c2		 mov	 eax, edx
  00011	c1 e8 1f	 shr	 eax, 31			; 0000001fH
  00014	03 c2		 add	 eax, edx

; 778  : 		}

  00016	c3		 ret	 0
?capacity@?$vector@UPersonalShopMap@@V?$allocator@UPersonalShopMap@@@std@@@std@@QBEIXZ ENDP ; std::vector<PersonalShopMap,std::allocator<PersonalShopMap> >::capacity
_TEXT	ENDS
PUBLIC	?size@?$vector@UPersonalShopMap@@V?$allocator@UPersonalShopMap@@@std@@@std@@QBEIXZ ; std::vector<PersonalShopMap,std::allocator<PersonalShopMap> >::size
; Function compile flags: /Ogtp
;	COMDAT ?size@?$vector@UPersonalShopMap@@V?$allocator@UPersonalShopMap@@@std@@@std@@QBEIXZ
_TEXT	SEGMENT
?size@?$vector@UPersonalShopMap@@V?$allocator@UPersonalShopMap@@@std@@@std@@QBEIXZ PROC ; std::vector<PersonalShopMap,std::allocator<PersonalShopMap> >::size, COMDAT
; _this$ = ecx

; 879  : 		return (this->_Mylast - this->_Myfirst);

  00000	8b 51 04	 mov	 edx, DWORD PTR [ecx+4]
  00003	2b 11		 sub	 edx, DWORD PTR [ecx]
  00005	b8 4f ec c4 4e	 mov	 eax, 1321528399		; 4ec4ec4fH
  0000a	f7 ea		 imul	 edx
  0000c	c1 fa 04	 sar	 edx, 4
  0000f	8b c2		 mov	 eax, edx
  00011	c1 e8 1f	 shr	 eax, 31			; 0000001fH
  00014	03 c2		 add	 eax, edx

; 880  : 		}

  00016	c3		 ret	 0
?size@?$vector@UPersonalShopMap@@V?$allocator@UPersonalShopMap@@@std@@@std@@QBEIXZ ENDP ; std::vector<PersonalShopMap,std::allocator<PersonalShopMap> >::size
_TEXT	ENDS
PUBLIC	??_C@_0BD@OLBABOEK@vector?$DMT?$DO?5too?5long?$AA@ ; `string'
PUBLIC	?_Xlen@?$vector@UPersonalShopMap@@V?$allocator@UPersonalShopMap@@@std@@@std@@IBEXXZ ; std::vector<PersonalShopMap,std::allocator<PersonalShopMap> >::_Xlen
EXTRN	?_Xlength_error@std@@YAXPBD@Z:PROC		; std::_Xlength_error
;	COMDAT ??_C@_0BD@OLBABOEK@vector?$DMT?$DO?5too?5long?$AA@
CONST	SEGMENT
??_C@_0BD@OLBABOEK@vector?$DMT?$DO?5too?5long?$AA@ DB 'vector<T> too long'
	DB	00H						; `string'
; Function compile flags: /Ogtp
CONST	ENDS
;	COMDAT ?_Xlen@?$vector@UPersonalShopMap@@V?$allocator@UPersonalShopMap@@@std@@@std@@IBEXXZ
_TEXT	SEGMENT
?_Xlen@?$vector@UPersonalShopMap@@V?$allocator@UPersonalShopMap@@@std@@@std@@IBEXXZ PROC ; std::vector<PersonalShopMap,std::allocator<PersonalShopMap> >::_Xlen, COMDAT
; _this$ = ecx

; 1427 : 		_Xlength_error("vector<T> too long");

  00000	68 00 00 00 00	 push	 OFFSET ??_C@_0BD@OLBABOEK@vector?$DMT?$DO?5too?5long?$AA@
  00005	e8 00 00 00 00	 call	 ?_Xlength_error@std@@YAXPBD@Z ; std::_Xlength_error
$LN4@Xlen:
$LN3@Xlen:
  0000a	cc		 int	 3
?_Xlen@?$vector@UPersonalShopMap@@V?$allocator@UPersonalShopMap@@@std@@@std@@IBEXXZ ENDP ; std::vector<PersonalShopMap,std::allocator<PersonalShopMap> >::_Xlen
_TEXT	ENDS
PUBLIC	??0?$allocator@UPersonalShopMap@@@std@@QAE@ABV01@@Z ; std::allocator<PersonalShopMap>::allocator<PersonalShopMap>
; Function compile flags: /Ogtp
; File c:\program files (x86)\microsoft visual studio 10.0\vc\include\xmemory
;	COMDAT ??0?$allocator@UPersonalShopMap@@@std@@QAE@ABV01@@Z
_TEXT	SEGMENT
___formal$ = 8						; size = 4
??0?$allocator@UPersonalShopMap@@@std@@QAE@ABV01@@Z PROC ; std::allocator<PersonalShopMap>::allocator<PersonalShopMap>, COMDAT
; _this$ = ecx

; 165  : 	_ALLOCATOR(const _ALLOCATOR<_Ty>&) _THROW0()

  00000	8b c1		 mov	 eax, ecx

; 166  : 		{	// construct by copying (do nothing)
; 167  : 		}

  00002	c2 04 00	 ret	 4
??0?$allocator@UPersonalShopMap@@@std@@QAE@ABV01@@Z ENDP ; std::allocator<PersonalShopMap>::allocator<PersonalShopMap>
_TEXT	ENDS
PUBLIC	?deallocate@?$allocator@UPersonalShopMap@@@std@@QAEXPAUPersonalShopMap@@I@Z ; std::allocator<PersonalShopMap>::deallocate
EXTRN	??3@YAXPAX@Z:PROC				; operator delete
; Function compile flags: /Ogtp
;	COMDAT ?deallocate@?$allocator@UPersonalShopMap@@@std@@QAEXPAUPersonalShopMap@@I@Z
_TEXT	SEGMENT
__Ptr$ = 8						; size = 4
___formal$ = 12						; size = 4
?deallocate@?$allocator@UPersonalShopMap@@@std@@QAEXPAUPersonalShopMap@@I@Z PROC ; std::allocator<PersonalShopMap>::deallocate, COMDAT
; _this$ = ecx

; 181  : 		{	// deallocate object at _Ptr, ignore size

  00000	55		 push	 ebp
  00001	8b ec		 mov	 ebp, esp

; 182  : 		::operator delete(_Ptr);

  00003	8b 45 08	 mov	 eax, DWORD PTR __Ptr$[ebp]
  00006	50		 push	 eax
  00007	e8 00 00 00 00	 call	 ??3@YAXPAX@Z		; operator delete
  0000c	83 c4 04	 add	 esp, 4

; 183  : 		}

  0000f	5d		 pop	 ebp
  00010	c2 08 00	 ret	 8
?deallocate@?$allocator@UPersonalShopMap@@@std@@QAEXPAUPersonalShopMap@@I@Z ENDP ; std::allocator<PersonalShopMap>::deallocate
_TEXT	ENDS
PUBLIC	??E?$_Vector_const_iterator@V?$_Vector_val@UPersonalShopMap@@V?$allocator@UPersonalShopMap@@@std@@@std@@@std@@QAEAAV01@XZ ; std::_Vector_const_iterator<std::_Vector_val<PersonalShopMap,std::allocator<PersonalShopMap> > >::operator++
; Function compile flags: /Ogtp
; File c:\program files (x86)\microsoft visual studio 10.0\vc\include\vector
;	COMDAT ??E?$_Vector_const_iterator@V?$_Vector_val@UPersonalShopMap@@V?$allocator@UPersonalShopMap@@@std@@@std@@@std@@QAEAAV01@XZ
_TEXT	SEGMENT
??E?$_Vector_const_iterator@V?$_Vector_val@UPersonalShopMap@@V?$allocator@UPersonalShopMap@@@std@@@std@@@std@@QAEAAV01@XZ PROC ; std::_Vector_const_iterator<std::_Vector_val<PersonalShopMap,std::allocator<PersonalShopMap> > >::operator++, COMDAT
; _this$ = ecx

; 93   : 		{	// preincrement

  00000	8b c1		 mov	 eax, ecx

; 94   :  #if _ITERATOR_DEBUG_LEVEL == 2
; 95   : 		if (this->_Getcont() == 0
; 96   : 			|| this->_Ptr == 0
; 97   : 			|| ((_Myvec *)this->_Getcont())->_Mylast <= this->_Ptr)
; 98   : 			{	// report error
; 99   : 			_DEBUG_ERROR("vector iterator not incrementable");
; 100  : 			_SCL_SECURE_OUT_OF_RANGE;
; 101  : 			}
; 102  : 
; 103  :  #elif _ITERATOR_DEBUG_LEVEL == 1
; 104  : 		_SCL_SECURE_VALIDATE(this->_Getcont() != 0);
; 105  : 		_SCL_SECURE_VALIDATE_RANGE(
; 106  : 			this->_Ptr != 0
; 107  : 			&& this->_Ptr < ((_Myvec *)this->_Getcont())->_Mylast);
; 108  :  #endif /* _ITERATOR_DEBUG_LEVEL */
; 109  : 
; 110  : 		++this->_Ptr;

  00002	83 00 34	 add	 DWORD PTR [eax], 52	; 00000034H

; 111  : 		return (*this);
; 112  : 		}

  00005	c3		 ret	 0
??E?$_Vector_const_iterator@V?$_Vector_val@UPersonalShopMap@@V?$allocator@UPersonalShopMap@@@std@@@std@@@std@@QAEAAV01@XZ ENDP ; std::_Vector_const_iterator<std::_Vector_val<PersonalShopMap,std::allocator<PersonalShopMap> > >::operator++
_TEXT	ENDS
PUBLIC	?_Compat@?$_Vector_const_iterator@V?$_Vector_val@UPersonalShopMap@@V?$allocator@UPersonalShopMap@@@std@@@std@@@std@@QBEXABV12@@Z ; std::_Vector_const_iterator<std::_Vector_val<PersonalShopMap,std::allocator<PersonalShopMap> > >::_Compat
; Function compile flags: /Ogtp
;	COMDAT ?_Compat@?$_Vector_const_iterator@V?$_Vector_val@UPersonalShopMap@@V?$allocator@UPersonalShopMap@@@std@@@std@@@std@@QBEXABV12@@Z
_TEXT	SEGMENT
___formal$ = 8						; size = 4
?_Compat@?$_Vector_const_iterator@V?$_Vector_val@UPersonalShopMap@@V?$allocator@UPersonalShopMap@@@std@@@std@@@std@@QBEXABV12@@Z PROC ; std::_Vector_const_iterator<std::_Vector_val<PersonalShopMap,std::allocator<PersonalShopMap> > >::_Compat, COMDAT
; _this$ = ecx

; 253  : 		}

  00000	c2 04 00	 ret	 4
?_Compat@?$_Vector_const_iterator@V?$_Vector_val@UPersonalShopMap@@V?$allocator@UPersonalShopMap@@@std@@@std@@@std@@QBEXABV12@@Z ENDP ; std::_Vector_const_iterator<std::_Vector_val<PersonalShopMap,std::allocator<PersonalShopMap> > >::_Compat
_TEXT	ENDS
PUBLIC	?max_size@?$allocator@UPersonalShopMap@@@std@@QBEIXZ ; std::allocator<PersonalShopMap>::max_size
; Function compile flags: /Ogtp
; File c:\program files (x86)\microsoft visual studio 10.0\vc\include\xmemory
;	COMDAT ?max_size@?$allocator@UPersonalShopMap@@@std@@QBEIXZ
_TEXT	SEGMENT
?max_size@?$allocator@UPersonalShopMap@@@std@@QBEIXZ PROC ; std::allocator<PersonalShopMap>::max_size, COMDAT
; _this$ = ecx

; 218  : 		_SIZT _Count = (_SIZT)(-1) / sizeof (_Ty);
; 219  : 		return (0 < _Count ? _Count : 1);

  00000	b8 c4 4e ec 04	 mov	 eax, 82595524		; 04ec4ec4H

; 220  : 		}

  00005	c3		 ret	 0
?max_size@?$allocator@UPersonalShopMap@@@std@@QBEIXZ ENDP ; std::allocator<PersonalShopMap>::max_size
_TEXT	ENDS
PUBLIC	??$addressof@$$CBUPersonalShopMap@@@std@@YAPBUPersonalShopMap@@ABU1@@Z ; std::addressof<PersonalShopMap const >
; Function compile flags: /Ogtp
;	COMDAT ??$addressof@$$CBUPersonalShopMap@@@std@@YAPBUPersonalShopMap@@ABU1@@Z
_TEXT	SEGMENT
__Val$ = 8						; size = 4
??$addressof@$$CBUPersonalShopMap@@@std@@YAPBUPersonalShopMap@@ABU1@@Z PROC ; std::addressof<PersonalShopMap const >, COMDAT

; 110  : 	{	// return address of _Val

  00000	55		 push	 ebp
  00001	8b ec		 mov	 ebp, esp

; 111  : 	return ((_Ty *) &(char&)_Val);

  00003	8b 45 08	 mov	 eax, DWORD PTR __Val$[ebp]

; 112  : 	}

  00006	5d		 pop	 ebp
  00007	c3		 ret	 0
??$addressof@$$CBUPersonalShopMap@@@std@@YAPBUPersonalShopMap@@ABU1@@Z ENDP ; std::addressof<PersonalShopMap const >
_TEXT	ENDS
PUBLIC	??$forward@AAUPersonalShopMap@@@std@@YAAAUPersonalShopMap@@AAU1@@Z ; std::forward<PersonalShopMap &>
; Function compile flags: /Ogtp
; File c:\program files (x86)\microsoft visual studio 10.0\vc\include\utility
;	COMDAT ??$forward@AAUPersonalShopMap@@@std@@YAAAUPersonalShopMap@@AAU1@@Z
_TEXT	SEGMENT
__Arg$ = 8						; size = 4
??$forward@AAUPersonalShopMap@@@std@@YAAAUPersonalShopMap@@AAU1@@Z PROC ; std::forward<PersonalShopMap &>, COMDAT

; 78   : 	{	// forward _Arg, given explicitly specified type parameter

  00000	55		 push	 ebp
  00001	8b ec		 mov	 ebp, esp

; 79   : 	return ((_Ty&&)_Arg);

  00003	8b 45 08	 mov	 eax, DWORD PTR __Arg$[ebp]

; 80   : 	}

  00006	5d		 pop	 ebp
  00007	c3		 ret	 0
??$forward@AAUPersonalShopMap@@@std@@YAAAUPersonalShopMap@@AAU1@@Z ENDP ; std::forward<PersonalShopMap &>
_TEXT	ENDS
PUBLIC	??$construct@AAUPersonalShopMap@@@?$allocator@UPersonalShopMap@@@std@@QAEXPAUPersonalShopMap@@AAU2@@Z ; std::allocator<PersonalShopMap>::construct<PersonalShopMap &>
; Function compile flags: /Ogtp
; File c:\program files (x86)\microsoft visual studio 10.0\vc\include\xmemory
;	COMDAT ??$construct@AAUPersonalShopMap@@@?$allocator@UPersonalShopMap@@@std@@QAEXPAUPersonalShopMap@@AAU2@@Z
_TEXT	SEGMENT
__Ptr$ = 8						; size = 4
__Val$ = 12						; size = 4
??$construct@AAUPersonalShopMap@@@?$allocator@UPersonalShopMap@@@std@@QAEXPAUPersonalShopMap@@AAU2@@Z PROC ; std::allocator<PersonalShopMap>::construct<PersonalShopMap &>, COMDAT
; _this$ = ecx

; 206  : 		void construct(pointer _Ptr, _Other&& _Val)

  00000	55		 push	 ebp
  00001	8b ec		 mov	 ebp, esp
  00003	57		 push	 edi

; 207  : 		{	// construct object at _Ptr with value _Val
; 208  : 		::new ((void _FARQ *)_Ptr) _Ty(_STD forward<_Other>(_Val));

  00004	8b 7d 08	 mov	 edi, DWORD PTR __Ptr$[ebp]
  00007	85 ff		 test	 edi, edi
  00009	74 0c		 je	 SHORT $LN3@construct
  0000b	56		 push	 esi
  0000c	8b 75 0c	 mov	 esi, DWORD PTR __Val$[ebp]
  0000f	b9 0d 00 00 00	 mov	 ecx, 13			; 0000000dH
  00014	f3 a5		 rep movsd
  00016	5e		 pop	 esi
$LN3@construct:
  00017	5f		 pop	 edi

; 209  : 		}

  00018	5d		 pop	 ebp
  00019	c2 08 00	 ret	 8
??$construct@AAUPersonalShopMap@@@?$allocator@UPersonalShopMap@@@std@@QAEXPAUPersonalShopMap@@AAU2@@Z ENDP ; std::allocator<PersonalShopMap>::construct<PersonalShopMap &>
_TEXT	ENDS
PUBLIC	??$forward@ABUPersonalShopMap@@@std@@YAABUPersonalShopMap@@ABU1@@Z ; std::forward<PersonalShopMap const &>
; Function compile flags: /Ogtp
; File c:\program files (x86)\microsoft visual studio 10.0\vc\include\utility
;	COMDAT ??$forward@ABUPersonalShopMap@@@std@@YAABUPersonalShopMap@@ABU1@@Z
_TEXT	SEGMENT
__Arg$ = 8						; size = 4
??$forward@ABUPersonalShopMap@@@std@@YAABUPersonalShopMap@@ABU1@@Z PROC ; std::forward<PersonalShopMap const &>, COMDAT

; 78   : 	{	// forward _Arg, given explicitly specified type parameter

  00000	55		 push	 ebp
  00001	8b ec		 mov	 ebp, esp

; 79   : 	return ((_Ty&&)_Arg);

  00003	8b 45 08	 mov	 eax, DWORD PTR __Arg$[ebp]

; 80   : 	}

  00006	5d		 pop	 ebp
  00007	c3		 ret	 0
??$forward@ABUPersonalShopMap@@@std@@YAABUPersonalShopMap@@ABU1@@Z ENDP ; std::forward<PersonalShopMap const &>
_TEXT	ENDS
PUBLIC	??$_Ptr_cat@UPersonalShopMap@@U1@@std@@YA?AU_Nonscalar_ptr_iterator_tag@0@PAUPersonalShopMap@@0@Z ; std::_Ptr_cat<PersonalShopMap,PersonalShopMap>
; Function compile flags: /Ogtp
; File c:\program files (x86)\microsoft visual studio 10.0\vc\include\xutility
;	COMDAT ??$_Ptr_cat@UPersonalShopMap@@U1@@std@@YA?AU_Nonscalar_ptr_iterator_tag@0@PAUPersonalShopMap@@0@Z
_TEXT	SEGMENT
__Cat$ = -1						; size = 1
___formal$ = 8						; size = 4
___formal$ = 12						; size = 4
??$_Ptr_cat@UPersonalShopMap@@U1@@std@@YA?AU_Nonscalar_ptr_iterator_tag@0@PAUPersonalShopMap@@0@Z PROC ; std::_Ptr_cat<PersonalShopMap,PersonalShopMap>, COMDAT

; 516  : 	{	// return pointer category from pointers

  00000	55		 push	 ebp
  00001	8b ec		 mov	 ebp, esp
  00003	51		 push	 ecx

; 517  : 	typename _Ptr_cat_helper<_Elem1, _Elem2>::_Type _Cat;
; 518  : 	return (_Cat);

  00004	8a 45 ff	 mov	 al, BYTE PTR __Cat$[ebp]

; 519  : 	}

  00007	8b e5		 mov	 esp, ebp
  00009	5d		 pop	 ebp
  0000a	c3		 ret	 0
??$_Ptr_cat@UPersonalShopMap@@U1@@std@@YA?AU_Nonscalar_ptr_iterator_tag@0@PAUPersonalShopMap@@0@Z ENDP ; std::_Ptr_cat<PersonalShopMap,PersonalShopMap>
_TEXT	ENDS
PUBLIC	??$_Construct@UPersonalShopMap@@ABU1@@std@@YAXPAUPersonalShopMap@@ABU1@@Z ; std::_Construct<PersonalShopMap,PersonalShopMap const &>
; Function compile flags: /Ogtp
; File c:\program files (x86)\microsoft visual studio 10.0\vc\include\xmemory
;	COMDAT ??$_Construct@UPersonalShopMap@@ABU1@@std@@YAXPAUPersonalShopMap@@ABU1@@Z
_TEXT	SEGMENT
__Ptr$ = 8						; size = 4
__Val$ = 12						; size = 4
??$_Construct@UPersonalShopMap@@ABU1@@std@@YAXPAUPersonalShopMap@@ABU1@@Z PROC ; std::_Construct<PersonalShopMap,PersonalShopMap const &>, COMDAT

; 46   : 	{	// construct object at _Ptr with value _Val

  00000	55		 push	 ebp
  00001	8b ec		 mov	 ebp, esp
  00003	57		 push	 edi

; 47   : 	void _FARQ *_Vptr = _Ptr;
; 48   : 	::new (_Vptr) _Ty1(_STD forward<_Ty2>(_Val));

  00004	8b 7d 08	 mov	 edi, DWORD PTR __Ptr$[ebp]
  00007	85 ff		 test	 edi, edi
  00009	74 0c		 je	 SHORT $LN3@Construct
  0000b	56		 push	 esi
  0000c	8b 75 0c	 mov	 esi, DWORD PTR __Val$[ebp]
  0000f	b9 0d 00 00 00	 mov	 ecx, 13			; 0000000dH
  00014	f3 a5		 rep movsd
  00016	5e		 pop	 esi
$LN3@Construct:
  00017	5f		 pop	 edi

; 49   : 	}

  00018	5d		 pop	 ebp
  00019	c3		 ret	 0
??$_Construct@UPersonalShopMap@@ABU1@@std@@YAXPAUPersonalShopMap@@ABU1@@Z ENDP ; std::_Construct<PersonalShopMap,PersonalShopMap const &>
_TEXT	ENDS
PUBLIC	??$move@AAUPersonalShopMap@@@std@@YA$$QAUPersonalShopMap@@AAU1@@Z ; std::move<PersonalShopMap &>
; Function compile flags: /Ogtp
; File c:\program files (x86)\microsoft visual studio 10.0\vc\include\utility
;	COMDAT ??$move@AAUPersonalShopMap@@@std@@YA$$QAUPersonalShopMap@@AAU1@@Z
_TEXT	SEGMENT
__Arg$ = 8						; size = 4
??$move@AAUPersonalShopMap@@@std@@YA$$QAUPersonalShopMap@@AAU1@@Z PROC ; std::move<PersonalShopMap &>, COMDAT

; 86   : 	{	// forward _Arg as movable

  00000	55		 push	 ebp
  00001	8b ec		 mov	 ebp, esp

; 87   : 	return ((typename tr1::_Remove_reference<_Ty>::_Type&&)_Arg);

  00003	8b 45 08	 mov	 eax, DWORD PTR __Arg$[ebp]

; 88   : 	}

  00006	5d		 pop	 ebp
  00007	c3		 ret	 0
??$move@AAUPersonalShopMap@@@std@@YA$$QAUPersonalShopMap@@AAU1@@Z ENDP ; std::move<PersonalShopMap &>
_TEXT	ENDS
PUBLIC	??$_Val_type@PAUPersonalShopMap@@@std@@YAPAUPersonalShopMap@@PAU1@@Z ; std::_Val_type<PersonalShopMap *>
; Function compile flags: /Ogtp
; File c:\program files (x86)\microsoft visual studio 10.0\vc\include\xutility
;	COMDAT ??$_Val_type@PAUPersonalShopMap@@@std@@YAPAUPersonalShopMap@@PAU1@@Z
_TEXT	SEGMENT
___formal$ = 8						; size = 4
??$_Val_type@PAUPersonalShopMap@@@std@@YAPAUPersonalShopMap@@PAU1@@Z PROC ; std::_Val_type<PersonalShopMap *>, COMDAT

; 790  : 	return (0);

  00000	33 c0		 xor	 eax, eax

; 791  : 	}

  00002	c3		 ret	 0
??$_Val_type@PAUPersonalShopMap@@@std@@YAPAUPersonalShopMap@@PAU1@@Z ENDP ; std::_Val_type<PersonalShopMap *>
_TEXT	ENDS
PUBLIC	??$_Destroy@UPersonalShopMap@@@std@@YAXPAUPersonalShopMap@@@Z ; std::_Destroy<PersonalShopMap>
; Function compile flags: /Ogtp
; File c:\program files (x86)\microsoft visual studio 10.0\vc\include\xmemory
;	COMDAT ??$_Destroy@UPersonalShopMap@@@std@@YAXPAUPersonalShopMap@@@Z
_TEXT	SEGMENT
__Ptr$ = 8						; size = 4
??$_Destroy@UPersonalShopMap@@@std@@YAXPAUPersonalShopMap@@@Z PROC ; std::_Destroy<PersonalShopMap>, COMDAT

; 63   : 	_Ptr->~_Ty();
; 64   : 	}

  00000	c3		 ret	 0
??$_Destroy@UPersonalShopMap@@@std@@YAXPAUPersonalShopMap@@@Z ENDP ; std::_Destroy<PersonalShopMap>
_TEXT	ENDS
PUBLIC	??$forward@UPersonalShopMap@@@std@@YA$$QAUPersonalShopMap@@AAU1@@Z ; std::forward<PersonalShopMap>
; Function compile flags: /Ogtp
; File c:\program files (x86)\microsoft visual studio 10.0\vc\include\utility
;	COMDAT ??$forward@UPersonalShopMap@@@std@@YA$$QAUPersonalShopMap@@AAU1@@Z
_TEXT	SEGMENT
__Arg$ = 8						; size = 4
??$forward@UPersonalShopMap@@@std@@YA$$QAUPersonalShopMap@@AAU1@@Z PROC ; std::forward<PersonalShopMap>, COMDAT

; 78   : 	{	// forward _Arg, given explicitly specified type parameter

  00000	55		 push	 ebp
  00001	8b ec		 mov	 ebp, esp

; 79   : 	return ((_Ty&&)_Arg);

  00003	8b 45 08	 mov	 eax, DWORD PTR __Arg$[ebp]

; 80   : 	}

  00006	5d		 pop	 ebp
  00007	c3		 ret	 0
??$forward@UPersonalShopMap@@@std@@YA$$QAUPersonalShopMap@@AAU1@@Z ENDP ; std::forward<PersonalShopMap>
_TEXT	ENDS
PUBLIC	??_7bad_alloc@std@@6B@				; std::bad_alloc::`vftable'
PUBLIC	??0bad_alloc@std@@QAE@PBD@Z			; std::bad_alloc::bad_alloc
PUBLIC	??_R4bad_alloc@std@@6B@				; std::bad_alloc::`RTTI Complete Object Locator'
PUBLIC	??_R0?AVbad_alloc@std@@@8			; std::bad_alloc `RTTI Type Descriptor'
PUBLIC	??_R3bad_alloc@std@@8				; std::bad_alloc::`RTTI Class Hierarchy Descriptor'
PUBLIC	??_R2bad_alloc@std@@8				; std::bad_alloc::`RTTI Base Class Array'
PUBLIC	??_R1A@?0A@EA@bad_alloc@std@@8			; std::bad_alloc::`RTTI Base Class Descriptor at (0,-1,0,64)'
PUBLIC	??_R1A@?0A@EA@exception@std@@8			; std::exception::`RTTI Base Class Descriptor at (0,-1,0,64)'
PUBLIC	??_R0?AVexception@std@@@8			; std::exception `RTTI Type Descriptor'
PUBLIC	??_R3exception@std@@8				; std::exception::`RTTI Class Hierarchy Descriptor'
PUBLIC	??_R2exception@std@@8				; std::exception::`RTTI Base Class Array'
EXTRN	??0exception@std@@QAE@ABQBD@Z:PROC		; std::exception::exception
EXTRN	??_7type_info@@6B@:QWORD			; type_info::`vftable'
EXTRN	??_Ebad_alloc@std@@UAEPAXI@Z:PROC		; std::bad_alloc::`vector deleting destructor'
EXTRN	?what@exception@std@@UBEPBDXZ:PROC		; std::exception::what
;	COMDAT ??_R2exception@std@@8
; File c:\program files (x86)\microsoft visual studio 10.0\vc\include\exception
rdata$r	SEGMENT
??_R2exception@std@@8 DD FLAT:??_R1A@?0A@EA@exception@std@@8 ; std::exception::`RTTI Base Class Array'
rdata$r	ENDS
;	COMDAT ??_R3exception@std@@8
rdata$r	SEGMENT
??_R3exception@std@@8 DD 00H				; std::exception::`RTTI Class Hierarchy Descriptor'
	DD	00H
	DD	01H
	DD	FLAT:??_R2exception@std@@8
rdata$r	ENDS
;	COMDAT ??_R0?AVexception@std@@@8
_DATA	SEGMENT
??_R0?AVexception@std@@@8 DD FLAT:??_7type_info@@6B@	; std::exception `RTTI Type Descriptor'
	DD	00H
	DB	'.?AVexception@std@@', 00H
_DATA	ENDS
;	COMDAT ??_R1A@?0A@EA@exception@std@@8
rdata$r	SEGMENT
??_R1A@?0A@EA@exception@std@@8 DD FLAT:??_R0?AVexception@std@@@8 ; std::exception::`RTTI Base Class Descriptor at (0,-1,0,64)'
	DD	00H
	DD	00H
	DD	0ffffffffH
	DD	00H
	DD	040H
	DD	FLAT:??_R3exception@std@@8
rdata$r	ENDS
;	COMDAT ??_R1A@?0A@EA@bad_alloc@std@@8
rdata$r	SEGMENT
??_R1A@?0A@EA@bad_alloc@std@@8 DD FLAT:??_R0?AVbad_alloc@std@@@8 ; std::bad_alloc::`RTTI Base Class Descriptor at (0,-1,0,64)'
	DD	01H
	DD	00H
	DD	0ffffffffH
	DD	00H
	DD	040H
	DD	FLAT:??_R3bad_alloc@std@@8
rdata$r	ENDS
;	COMDAT ??_R2bad_alloc@std@@8
rdata$r	SEGMENT
??_R2bad_alloc@std@@8 DD FLAT:??_R1A@?0A@EA@bad_alloc@std@@8 ; std::bad_alloc::`RTTI Base Class Array'
	DD	FLAT:??_R1A@?0A@EA@exception@std@@8
rdata$r	ENDS
;	COMDAT ??_R3bad_alloc@std@@8
rdata$r	SEGMENT
??_R3bad_alloc@std@@8 DD 00H				; std::bad_alloc::`RTTI Class Hierarchy Descriptor'
	DD	00H
	DD	02H
	DD	FLAT:??_R2bad_alloc@std@@8
rdata$r	ENDS
;	COMDAT ??_R0?AVbad_alloc@std@@@8
_DATA	SEGMENT
??_R0?AVbad_alloc@std@@@8 DD FLAT:??_7type_info@@6B@	; std::bad_alloc `RTTI Type Descriptor'
	DD	00H
	DB	'.?AVbad_alloc@std@@', 00H
_DATA	ENDS
;	COMDAT ??_R4bad_alloc@std@@6B@
rdata$r	SEGMENT
??_R4bad_alloc@std@@6B@ DD 00H				; std::bad_alloc::`RTTI Complete Object Locator'
	DD	00H
	DD	00H
	DD	FLAT:??_R0?AVbad_alloc@std@@@8
	DD	FLAT:??_R3bad_alloc@std@@8
rdata$r	ENDS
;	COMDAT ??_7bad_alloc@std@@6B@
CONST	SEGMENT
??_7bad_alloc@std@@6B@ DD FLAT:??_R4bad_alloc@std@@6B@	; std::bad_alloc::`vftable'
	DD	FLAT:??_Ebad_alloc@std@@UAEPAXI@Z
	DD	FLAT:?what@exception@std@@UBEPBDXZ
; Function compile flags: /Ogtp
CONST	ENDS
;	COMDAT ??0bad_alloc@std@@QAE@PBD@Z
_TEXT	SEGMENT
__Message$ = 8						; size = 4
??0bad_alloc@std@@QAE@PBD@Z PROC			; std::bad_alloc::bad_alloc, COMDAT
; _this$ = ecx

; 345  : 		{	// construct from message string

  00000	55		 push	 ebp
  00001	8b ec		 mov	 ebp, esp
  00003	56		 push	 esi
  00004	8d 45 08	 lea	 eax, DWORD PTR __Message$[ebp]
  00007	50		 push	 eax
  00008	8b f1		 mov	 esi, ecx
  0000a	e8 00 00 00 00	 call	 ??0exception@std@@QAE@ABQBD@Z ; std::exception::exception
  0000f	c7 06 00 00 00
	00		 mov	 DWORD PTR [esi], OFFSET ??_7bad_alloc@std@@6B@

; 346  : 		}

  00015	8b c6		 mov	 eax, esi
  00017	5e		 pop	 esi
  00018	5d		 pop	 ebp
  00019	c2 04 00	 ret	 4
??0bad_alloc@std@@QAE@PBD@Z ENDP			; std::bad_alloc::bad_alloc
_TEXT	ENDS
PUBLIC	??1bad_alloc@std@@UAE@XZ			; std::bad_alloc::~bad_alloc
EXTRN	??1exception@std@@UAE@XZ:PROC			; std::exception::~exception
; Function compile flags: /Ogtp
;	COMDAT ??1bad_alloc@std@@UAE@XZ
_TEXT	SEGMENT
??1bad_alloc@std@@UAE@XZ PROC				; std::bad_alloc::~bad_alloc, COMDAT
; _this$ = ecx

; 354  : 		{	// destroy the object

  00000	c7 01 00 00 00
	00		 mov	 DWORD PTR [ecx], OFFSET ??_7bad_alloc@std@@6B@

; 355  : 		}

  00006	e9 00 00 00 00	 jmp	 ??1exception@std@@UAE@XZ ; std::exception::~exception
??1bad_alloc@std@@UAE@XZ ENDP				; std::bad_alloc::~bad_alloc
; Function compile flags: /Ogtp
_TEXT	ENDS
;	COMDAT ??_Gbad_alloc@std@@UAEPAXI@Z
_TEXT	SEGMENT
___flags$ = 8						; size = 4
??_Gbad_alloc@std@@UAEPAXI@Z PROC			; std::bad_alloc::`scalar deleting destructor', COMDAT
; _this$ = ecx
  00000	55		 push	 ebp
  00001	8b ec		 mov	 ebp, esp
  00003	56		 push	 esi
  00004	8b f1		 mov	 esi, ecx
  00006	c7 06 00 00 00
	00		 mov	 DWORD PTR [esi], OFFSET ??_7bad_alloc@std@@6B@
  0000c	e8 00 00 00 00	 call	 ??1exception@std@@UAE@XZ ; std::exception::~exception
  00011	f6 45 08 01	 test	 BYTE PTR ___flags$[ebp], 1
  00015	74 09		 je	 SHORT $LN6@scalar
  00017	56		 push	 esi
  00018	e8 00 00 00 00	 call	 ??3@YAXPAX@Z		; operator delete
  0001d	83 c4 04	 add	 esp, 4
$LN6@scalar:
  00020	8b c6		 mov	 eax, esi
  00022	5e		 pop	 esi
  00023	5d		 pop	 ebp
  00024	c2 04 00	 ret	 4
??_Gbad_alloc@std@@UAEPAXI@Z ENDP			; std::bad_alloc::`scalar deleting destructor'
_TEXT	ENDS
PUBLIC	?_Orphan_all@_Container_base0@std@@QAEXXZ	; std::_Container_base0::_Orphan_all
; Function compile flags: /Ogtp
; File c:\program files (x86)\microsoft visual studio 10.0\vc\include\xutility
;	COMDAT ?_Orphan_all@_Container_base0@std@@QAEXXZ
_TEXT	SEGMENT
?_Orphan_all@_Container_base0@std@@QAEXXZ PROC		; std::_Container_base0::_Orphan_all, COMDAT
; _this$ = ecx

; 38   : 		}

  00000	c3		 ret	 0
?_Orphan_all@_Container_base0@std@@QAEXXZ ENDP		; std::_Container_base0::_Orphan_all
_TEXT	ENDS
PUBLIC	?_Adopt@_Iterator_base0@std@@QAEXPBX@Z		; std::_Iterator_base0::_Adopt
; Function compile flags: /Ogtp
;	COMDAT ?_Adopt@_Iterator_base0@std@@QAEXPBX@Z
_TEXT	SEGMENT
___formal$ = 8						; size = 4
?_Adopt@_Iterator_base0@std@@QAEXPBX@Z PROC		; std::_Iterator_base0::_Adopt, COMDAT
; _this$ = ecx

; 49   : 		}

  00000	c2 04 00	 ret	 4
?_Adopt@_Iterator_base0@std@@QAEXPBX@Z ENDP		; std::_Iterator_base0::_Adopt
_TEXT	ENDS
PUBLIC	??_EOBJECTSTRUCT@@QAEPAXI@Z			; OBJECTSTRUCT::`vector deleting destructor'
EXTRN	??_V@YAXPAX@Z:PROC				; operator delete[]
EXTRN	??_M@YGXPAXIHP6EX0@Z@Z:PROC			; `eh vector destructor iterator'
;	COMDAT xdata$x
xdata$x	SEGMENT
__unwindtable$??_EOBJECTSTRUCT@@QAEPAXI@Z DD 0ffffffffH
	DD	FLAT:__unwindfunclet$??_EOBJECTSTRUCT@@QAEPAXI@Z$0
__ehfuncinfo$??_EOBJECTSTRUCT@@QAEPAXI@Z DD 019930522H
	DD	01H
	DD	FLAT:__unwindtable$??_EOBJECTSTRUCT@@QAEPAXI@Z
	DD	2 DUP(00H)
	DD	2 DUP(00H)
	DD	00H
	DD	01H
; Function compile flags: /Ogtp
xdata$x	ENDS
;	COMDAT ??_EOBJECTSTRUCT@@QAEPAXI@Z
_TEXT	SEGMENT
_this$ = -16						; size = 4
__$EHRec$ = -12						; size = 12
___flags$ = 8						; size = 4
??_EOBJECTSTRUCT@@QAEPAXI@Z PROC			; OBJECTSTRUCT::`vector deleting destructor', COMDAT
; _this$ = ecx
  00000	55		 push	 ebp
  00001	8b ec		 mov	 ebp, esp
  00003	6a ff		 push	 -1
  00005	68 00 00 00 00	 push	 __ehhandler$??_EOBJECTSTRUCT@@QAEPAXI@Z
  0000a	64 a1 00 00 00
	00		 mov	 eax, DWORD PTR fs:0
  00010	50		 push	 eax
  00011	51		 push	 ecx
  00012	53		 push	 ebx
  00013	56		 push	 esi
  00014	57		 push	 edi
  00015	a1 00 00 00 00	 mov	 eax, DWORD PTR ___security_cookie
  0001a	33 c5		 xor	 eax, ebp
  0001c	50		 push	 eax
  0001d	8d 45 f4	 lea	 eax, DWORD PTR __$EHRec$[ebp]
  00020	64 a3 00 00 00
	00		 mov	 DWORD PTR fs:0, eax
  00026	8b f1		 mov	 esi, ecx
  00028	89 75 f0	 mov	 DWORD PTR _this$[ebp], esi
  0002b	8a 5d 08	 mov	 bl, BYTE PTR ___flags$[ebp]
  0002e	f6 c3 02	 test	 bl, 2
  00031	74 3b		 je	 SHORT $LN3@vector
  00033	8b 46 fc	 mov	 eax, DWORD PTR [esi-4]
  00036	68 00 00 00 00	 push	 OFFSET ??1OBJECTSTRUCT@@QAE@XZ
  0003b	8d 7e fc	 lea	 edi, DWORD PTR [esi-4]
  0003e	50		 push	 eax
  0003f	68 40 27 00 00	 push	 10048			; 00002740H
  00044	56		 push	 esi
  00045	e8 00 00 00 00	 call	 ??_M@YGXPAXIHP6EX0@Z@Z
  0004a	f6 c3 01	 test	 bl, 1
  0004d	74 09		 je	 SHORT $LN2@vector
  0004f	57		 push	 edi
  00050	e8 00 00 00 00	 call	 ??_V@YAXPAX@Z		; operator delete[]
  00055	83 c4 04	 add	 esp, 4
$LN2@vector:
  00058	8b c7		 mov	 eax, edi
  0005a	8b 4d f4	 mov	 ecx, DWORD PTR __$EHRec$[ebp]
  0005d	64 89 0d 00 00
	00 00		 mov	 DWORD PTR fs:0, ecx
  00064	59		 pop	 ecx
  00065	5f		 pop	 edi
  00066	5e		 pop	 esi
  00067	5b		 pop	 ebx
  00068	8b e5		 mov	 esp, ebp
  0006a	5d		 pop	 ebp
  0006b	c2 04 00	 ret	 4
$LN3@vector:
  0006e	8d 8e ec 20 00
	00		 lea	 ecx, DWORD PTR [esi+8428]
  00074	c7 45 fc 00 00
	00 00		 mov	 DWORD PTR __$EHRec$[ebp+8], 0
  0007b	e8 00 00 00 00	 call	 ??1TMonsterAIAgro@@UAE@XZ ; TMonsterAIAgro::~TMonsterAIAgro
  00080	8d 8e 0c 16 00
	00		 lea	 ecx, DWORD PTR [esi+5644]
  00086	c7 45 fc ff ff
	ff ff		 mov	 DWORD PTR __$EHRec$[ebp+8], -1
  0008d	e8 00 00 00 00	 call	 ??1CSkillDelay@@UAE@XZ	; CSkillDelay::~CSkillDelay
  00092	f6 c3 01	 test	 bl, 1
  00095	74 09		 je	 SHORT $LN1@vector
  00097	56		 push	 esi
  00098	e8 00 00 00 00	 call	 ??3@YAXPAX@Z		; operator delete
  0009d	83 c4 04	 add	 esp, 4
$LN1@vector:
  000a0	8b c6		 mov	 eax, esi
  000a2	8b 4d f4	 mov	 ecx, DWORD PTR __$EHRec$[ebp]
  000a5	64 89 0d 00 00
	00 00		 mov	 DWORD PTR fs:0, ecx
  000ac	59		 pop	 ecx
  000ad	5f		 pop	 edi
  000ae	5e		 pop	 esi
  000af	5b		 pop	 ebx
  000b0	8b e5		 mov	 esp, ebp
  000b2	5d		 pop	 ebp
  000b3	c2 04 00	 ret	 4
_TEXT	ENDS
;	COMDAT text$x
text$x	SEGMENT
__unwindfunclet$??_EOBJECTSTRUCT@@QAEPAXI@Z$0:
  00000	8b 4d f0	 mov	 ecx, DWORD PTR _this$[ebp]
  00003	81 c1 0c 16 00
	00		 add	 ecx, 5644		; 0000160cH
  00009	e9 00 00 00 00	 jmp	 ??1CSkillDelay@@UAE@XZ	; CSkillDelay::~CSkillDelay
__ehhandler$??_EOBJECTSTRUCT@@QAEPAXI@Z:
  0000e	8b 54 24 08	 mov	 edx, DWORD PTR [esp+8]
  00012	8d 42 0c	 lea	 eax, DWORD PTR [edx+12]
  00015	8b 4a ec	 mov	 ecx, DWORD PTR [edx-20]
  00018	33 c8		 xor	 ecx, eax
  0001a	e8 00 00 00 00	 call	 @__security_check_cookie@4
  0001f	b8 00 00 00 00	 mov	 eax, OFFSET __ehfuncinfo$??_EOBJECTSTRUCT@@QAEPAXI@Z
  00024	e9 00 00 00 00	 jmp	 ___CxxFrameHandler3
text$x	ENDS
??_EOBJECTSTRUCT@@QAEPAXI@Z ENDP			; OBJECTSTRUCT::`vector deleting destructor'
PUBLIC	??D?$_Vector_iterator@V?$_Vector_val@UPersonalShopMap@@V?$allocator@UPersonalShopMap@@@std@@@std@@@std@@QBEAAUPersonalShopMap@@XZ ; std::_Vector_iterator<std::_Vector_val<PersonalShopMap,std::allocator<PersonalShopMap> > >::operator*
; Function compile flags: /Ogtp
; File c:\program files (x86)\microsoft visual studio 10.0\vc\include\vector
;	COMDAT ??D?$_Vector_iterator@V?$_Vector_val@UPersonalShopMap@@V?$allocator@UPersonalShopMap@@@std@@@std@@@std@@QBEAAUPersonalShopMap@@XZ
_TEXT	SEGMENT
??D?$_Vector_iterator@V?$_Vector_val@UPersonalShopMap@@V?$allocator@UPersonalShopMap@@@std@@@std@@@std@@QBEAAUPersonalShopMap@@XZ PROC ; std::_Vector_iterator<std::_Vector_val<PersonalShopMap,std::allocator<PersonalShopMap> > >::operator*, COMDAT
; _this$ = ecx

; 322  : 		return ((reference)**(_Mybase *)this);

  00000	8b 01		 mov	 eax, DWORD PTR [ecx]

; 323  : 		}

  00002	c3		 ret	 0
??D?$_Vector_iterator@V?$_Vector_val@UPersonalShopMap@@V?$allocator@UPersonalShopMap@@@std@@@std@@@std@@QBEAAUPersonalShopMap@@XZ ENDP ; std::_Vector_iterator<std::_Vector_val<PersonalShopMap,std::allocator<PersonalShopMap> > >::operator*
_TEXT	ENDS
PUBLIC	??0?$_Vector_val@UPersonalShopMap@@V?$allocator@UPersonalShopMap@@@std@@@std@@QAE@V?$allocator@UPersonalShopMap@@@1@@Z ; std::_Vector_val<PersonalShopMap,std::allocator<PersonalShopMap> >::_Vector_val<PersonalShopMap,std::allocator<PersonalShopMap> >
; Function compile flags: /Ogtp
;	COMDAT ??0?$_Vector_val@UPersonalShopMap@@V?$allocator@UPersonalShopMap@@@std@@@std@@QAE@V?$allocator@UPersonalShopMap@@@1@@Z
_TEXT	SEGMENT
__Al$ = 8						; size = 1
??0?$_Vector_val@UPersonalShopMap@@V?$allocator@UPersonalShopMap@@@std@@@std@@QAE@V?$allocator@UPersonalShopMap@@@1@@Z PROC ; std::_Vector_val<PersonalShopMap,std::allocator<PersonalShopMap> >::_Vector_val<PersonalShopMap,std::allocator<PersonalShopMap> >, COMDAT
; _this$ = ecx

; 426  : 		{	// construct allocator from _Al

  00000	8b c1		 mov	 eax, ecx

; 427  : 		_Myfirst = 0;

  00002	33 c9		 xor	 ecx, ecx
  00004	89 08		 mov	 DWORD PTR [eax], ecx

; 428  : 		_Mylast = 0;

  00006	89 48 04	 mov	 DWORD PTR [eax+4], ecx

; 429  : 		_Myend = 0;

  00009	89 48 08	 mov	 DWORD PTR [eax+8], ecx

; 430  : 		}

  0000c	c2 04 00	 ret	 4
??0?$_Vector_val@UPersonalShopMap@@V?$allocator@UPersonalShopMap@@@std@@@std@@QAE@V?$allocator@UPersonalShopMap@@@1@@Z ENDP ; std::_Vector_val<PersonalShopMap,std::allocator<PersonalShopMap> >::_Vector_val<PersonalShopMap,std::allocator<PersonalShopMap> >
_TEXT	ENDS
PUBLIC	??E?$_Vector_iterator@V?$_Vector_val@UPersonalShopMap@@V?$allocator@UPersonalShopMap@@@std@@@std@@@std@@QAEAAV01@XZ ; std::_Vector_iterator<std::_Vector_val<PersonalShopMap,std::allocator<PersonalShopMap> > >::operator++
; Function compile flags: /Ogtp
;	COMDAT ??E?$_Vector_iterator@V?$_Vector_val@UPersonalShopMap@@V?$allocator@UPersonalShopMap@@@std@@@std@@@std@@QAEAAV01@XZ
_TEXT	SEGMENT
??E?$_Vector_iterator@V?$_Vector_val@UPersonalShopMap@@V?$allocator@UPersonalShopMap@@@std@@@std@@@std@@QAEAAV01@XZ PROC ; std::_Vector_iterator<std::_Vector_val<PersonalShopMap,std::allocator<PersonalShopMap> > >::operator++, COMDAT
; _this$ = ecx

; 331  : 		{	// preincrement

  00000	8b c1		 mov	 eax, ecx

; 332  : 		++*(_Mybase *)this;

  00002	83 00 34	 add	 DWORD PTR [eax], 52	; 00000034H

; 333  : 		return (*this);
; 334  : 		}

  00005	c3		 ret	 0
??E?$_Vector_iterator@V?$_Vector_val@UPersonalShopMap@@V?$allocator@UPersonalShopMap@@@std@@@std@@@std@@QAEAAV01@XZ ENDP ; std::_Vector_iterator<std::_Vector_val<PersonalShopMap,std::allocator<PersonalShopMap> > >::operator++
_TEXT	ENDS
PUBLIC	??8?$_Vector_const_iterator@V?$_Vector_val@UPersonalShopMap@@V?$allocator@UPersonalShopMap@@@std@@@std@@@std@@QBE_NABV01@@Z ; std::_Vector_const_iterator<std::_Vector_val<PersonalShopMap,std::allocator<PersonalShopMap> > >::operator==
; Function compile flags: /Ogtp
;	COMDAT ??8?$_Vector_const_iterator@V?$_Vector_val@UPersonalShopMap@@V?$allocator@UPersonalShopMap@@@std@@@std@@@std@@QBE_NABV01@@Z
_TEXT	SEGMENT
__Right$ = 8						; size = 4
??8?$_Vector_const_iterator@V?$_Vector_val@UPersonalShopMap@@V?$allocator@UPersonalShopMap@@@std@@@std@@@std@@QBE_NABV01@@Z PROC ; std::_Vector_const_iterator<std::_Vector_val<PersonalShopMap,std::allocator<PersonalShopMap> > >::operator==, COMDAT
; _this$ = ecx

; 201  : 		{	// test for iterator equality

  00000	55		 push	 ebp
  00001	8b ec		 mov	 ebp, esp

; 202  : 		_Compat(_Right);
; 203  : 		return (this->_Ptr == _Right._Ptr);

  00003	8b 01		 mov	 eax, DWORD PTR [ecx]
  00005	8b 55 08	 mov	 edx, DWORD PTR __Right$[ebp]
  00008	33 c9		 xor	 ecx, ecx
  0000a	3b 02		 cmp	 eax, DWORD PTR [edx]
  0000c	0f 94 c0	 sete	 al

; 204  : 		}

  0000f	5d		 pop	 ebp
  00010	c2 04 00	 ret	 4
??8?$_Vector_const_iterator@V?$_Vector_val@UPersonalShopMap@@V?$allocator@UPersonalShopMap@@@std@@@std@@@std@@QBE_NABV01@@Z ENDP ; std::_Vector_const_iterator<std::_Vector_val<PersonalShopMap,std::allocator<PersonalShopMap> > >::operator==
_TEXT	ENDS
PUBLIC	?max_size@?$vector@UPersonalShopMap@@V?$allocator@UPersonalShopMap@@@std@@@std@@QBEIXZ ; std::vector<PersonalShopMap,std::allocator<PersonalShopMap> >::max_size
; Function compile flags: /Ogtp
;	COMDAT ?max_size@?$vector@UPersonalShopMap@@V?$allocator@UPersonalShopMap@@@std@@@std@@QBEIXZ
_TEXT	SEGMENT
?max_size@?$vector@UPersonalShopMap@@V?$allocator@UPersonalShopMap@@@std@@@std@@QBEIXZ PROC ; std::vector<PersonalShopMap,std::allocator<PersonalShopMap> >::max_size, COMDAT
; _this$ = ecx

; 884  : 		return (this->_Alval.max_size());

  00000	b8 c4 4e ec 04	 mov	 eax, 82595524		; 04ec4ec4H

; 885  : 		}

  00005	c3		 ret	 0
?max_size@?$vector@UPersonalShopMap@@V?$allocator@UPersonalShopMap@@@std@@@std@@QBEIXZ ENDP ; std::vector<PersonalShopMap,std::allocator<PersonalShopMap> >::max_size
_TEXT	ENDS
PUBLIC	?_Grow_to@?$vector@UPersonalShopMap@@V?$allocator@UPersonalShopMap@@@std@@@std@@IBEII@Z ; std::vector<PersonalShopMap,std::allocator<PersonalShopMap> >::_Grow_to
; Function compile flags: /Ogtp
;	COMDAT ?_Grow_to@?$vector@UPersonalShopMap@@V?$allocator@UPersonalShopMap@@@std@@@std@@IBEII@Z
_TEXT	SEGMENT
__Count$ = 8						; size = 4
?_Grow_to@?$vector@UPersonalShopMap@@V?$allocator@UPersonalShopMap@@@std@@@std@@IBEII@Z PROC ; std::vector<PersonalShopMap,std::allocator<PersonalShopMap> >::_Grow_to, COMDAT
; _this$ = ecx

; 1274 : 		{	// grow by 50% or at least to _Count

  00000	55		 push	 ebp
  00001	8b ec		 mov	 ebp, esp

; 1275 : 		size_type _Capacity = capacity();

  00003	8b 51 08	 mov	 edx, DWORD PTR [ecx+8]
  00006	2b 11		 sub	 edx, DWORD PTR [ecx]
  00008	b8 4f ec c4 4e	 mov	 eax, 1321528399		; 4ec4ec4fH
  0000d	f7 ea		 imul	 edx
  0000f	c1 fa 04	 sar	 edx, 4
  00012	8b c2		 mov	 eax, edx
  00014	c1 e8 1f	 shr	 eax, 31			; 0000001fH
  00017	03 c2		 add	 eax, edx

; 1276 : 
; 1277 : 		_Capacity = max_size() - _Capacity / 2 < _Capacity
; 1278 : 			? 0 : _Capacity + _Capacity / 2;	// try to grow by 50%

  00019	8b c8		 mov	 ecx, eax
  0001b	d1 e9		 shr	 ecx, 1
  0001d	ba c4 4e ec 04	 mov	 edx, 82595524		; 04ec4ec4H
  00022	2b d1		 sub	 edx, ecx
  00024	3b d0		 cmp	 edx, eax
  00026	73 04		 jae	 SHORT $LN4@Grow_to
  00028	33 c0		 xor	 eax, eax
  0002a	eb 02		 jmp	 SHORT $LN5@Grow_to
$LN4@Grow_to:
  0002c	03 c1		 add	 eax, ecx
$LN5@Grow_to:

; 1279 : 		if (_Capacity < _Count)

  0002e	8b 4d 08	 mov	 ecx, DWORD PTR __Count$[ebp]
  00031	3b c1		 cmp	 eax, ecx
  00033	73 02		 jae	 SHORT $LN1@Grow_to

; 1280 : 			_Capacity = _Count;
; 1281 : 		return (_Capacity);

  00035	8b c1		 mov	 eax, ecx
$LN1@Grow_to:

; 1282 : 		}

  00037	5d		 pop	 ebp
  00038	c2 04 00	 ret	 4
?_Grow_to@?$vector@UPersonalShopMap@@V?$allocator@UPersonalShopMap@@@std@@@std@@IBEII@Z ENDP ; std::vector<PersonalShopMap,std::allocator<PersonalShopMap> >::_Grow_to
_TEXT	ENDS
PUBLIC	??0?$_Vector_const_iterator@V?$_Vector_val@UPersonalShopMap@@V?$allocator@UPersonalShopMap@@@std@@@std@@@std@@QAE@PAUPersonalShopMap@@PBU_Container_base0@1@@Z ; std::_Vector_const_iterator<std::_Vector_val<PersonalShopMap,std::allocator<PersonalShopMap> > >::_Vector_const_iterator<std::_Vector_val<PersonalShopMap,std::allocator<PersonalShopMap> > >
; Function compile flags: /Ogtp
;	COMDAT ??0?$_Vector_const_iterator@V?$_Vector_val@UPersonalShopMap@@V?$allocator@UPersonalShopMap@@@std@@@std@@@std@@QAE@PAUPersonalShopMap@@PBU_Container_base0@1@@Z
_TEXT	SEGMENT
__Parg$ = 8						; size = 4
__Pvector$ = 12						; size = 4
??0?$_Vector_const_iterator@V?$_Vector_val@UPersonalShopMap@@V?$allocator@UPersonalShopMap@@@std@@@std@@@std@@QAE@PAUPersonalShopMap@@PBU_Container_base0@1@@Z PROC ; std::_Vector_const_iterator<std::_Vector_val<PersonalShopMap,std::allocator<PersonalShopMap> > >::_Vector_const_iterator<std::_Vector_val<PersonalShopMap,std::allocator<PersonalShopMap> > >, COMDAT
; _this$ = ecx

; 45   : 		{	// construct with pointer _Parg

  00000	55		 push	 ebp
  00001	8b ec		 mov	 ebp, esp
  00003	8b c1		 mov	 eax, ecx
  00005	8b 4d 08	 mov	 ecx, DWORD PTR __Parg$[ebp]
  00008	89 08		 mov	 DWORD PTR [eax], ecx

; 46   : 		this->_Adopt(_Pvector);
; 47   : 		}

  0000a	5d		 pop	 ebp
  0000b	c2 08 00	 ret	 8
??0?$_Vector_const_iterator@V?$_Vector_val@UPersonalShopMap@@V?$allocator@UPersonalShopMap@@@std@@@std@@@std@@QAE@PAUPersonalShopMap@@PBU_Container_base0@1@@Z ENDP ; std::_Vector_const_iterator<std::_Vector_val<PersonalShopMap,std::allocator<PersonalShopMap> > >::_Vector_const_iterator<std::_Vector_val<PersonalShopMap,std::allocator<PersonalShopMap> > >
_TEXT	ENDS
PUBLIC	??$_Cons_val@V?$allocator@UPersonalShopMap@@@std@@UPersonalShopMap@@AAU3@@std@@YAXAAV?$allocator@UPersonalShopMap@@@0@PAUPersonalShopMap@@AAU2@@Z ; std::_Cons_val<std::allocator<PersonalShopMap>,PersonalShopMap,PersonalShopMap &>
; Function compile flags: /Ogtp
; File c:\program files (x86)\microsoft visual studio 10.0\vc\include\xmemory
;	COMDAT ??$_Cons_val@V?$allocator@UPersonalShopMap@@@std@@UPersonalShopMap@@AAU3@@std@@YAXAAV?$allocator@UPersonalShopMap@@@0@PAUPersonalShopMap@@AAU2@@Z
_TEXT	SEGMENT
__Alval$ = 8						; size = 4
__Pdest$ = 12						; size = 4
__Src$ = 16						; size = 4
??$_Cons_val@V?$allocator@UPersonalShopMap@@@std@@UPersonalShopMap@@AAU3@@std@@YAXAAV?$allocator@UPersonalShopMap@@@0@PAUPersonalShopMap@@AAU2@@Z PROC ; std::_Cons_val<std::allocator<PersonalShopMap>,PersonalShopMap,PersonalShopMap &>, COMDAT

; 279  : 	{	// construct using allocator

  00000	55		 push	 ebp
  00001	8b ec		 mov	 ebp, esp
  00003	57		 push	 edi

; 280  : 	_Alval.construct(_Pdest, _STD forward<_Ty2>(_Src));

  00004	8b 7d 0c	 mov	 edi, DWORD PTR __Pdest$[ebp]
  00007	85 ff		 test	 edi, edi
  00009	74 0c		 je	 SHORT $LN7@Cons_val
  0000b	56		 push	 esi
  0000c	8b 75 10	 mov	 esi, DWORD PTR __Src$[ebp]
  0000f	b9 0d 00 00 00	 mov	 ecx, 13			; 0000000dH
  00014	f3 a5		 rep movsd
  00016	5e		 pop	 esi
$LN7@Cons_val:
  00017	5f		 pop	 edi

; 281  : 	}

  00018	5d		 pop	 ebp
  00019	c3		 ret	 0
??$_Cons_val@V?$allocator@UPersonalShopMap@@@std@@UPersonalShopMap@@AAU3@@std@@YAXAAV?$allocator@UPersonalShopMap@@@0@PAUPersonalShopMap@@AAU2@@Z ENDP ; std::_Cons_val<std::allocator<PersonalShopMap>,PersonalShopMap,PersonalShopMap &>
_TEXT	ENDS
PUBLIC	__TI2?AVbad_alloc@std@@
PUBLIC	??$_Allocate@UPersonalShopMap@@@std@@YAPAUPersonalShopMap@@IPAU1@@Z ; std::_Allocate<PersonalShopMap>
PUBLIC	__CTA2?AVbad_alloc@std@@
PUBLIC	__CT??_R0?AVbad_alloc@std@@@8??0bad_alloc@std@@QAE@ABV01@@Z12
PUBLIC	??0bad_alloc@std@@QAE@ABV01@@Z			; std::bad_alloc::bad_alloc
PUBLIC	__CT??_R0?AVexception@std@@@8??0exception@std@@QAE@ABV01@@Z12
EXTRN	??2@YAPAXI@Z:PROC				; operator new
EXTRN	__CxxThrowException@8:PROC
EXTRN	??0exception@std@@QAE@ABV01@@Z:PROC		; std::exception::exception
;	COMDAT __CT??_R0?AVexception@std@@@8??0exception@std@@QAE@ABV01@@Z12
; File c:\program files (x86)\microsoft visual studio 10.0\vc\include\exception
xdata$x	SEGMENT
__CT??_R0?AVexception@std@@@8??0exception@std@@QAE@ABV01@@Z12 DD 00H
	DD	FLAT:??_R0?AVexception@std@@@8
	DD	00H
	DD	0ffffffffH
	ORG $+4
	DD	0cH
	DD	FLAT:??0exception@std@@QAE@ABV01@@Z
xdata$x	ENDS
;	COMDAT __CT??_R0?AVbad_alloc@std@@@8??0bad_alloc@std@@QAE@ABV01@@Z12
xdata$x	SEGMENT
__CT??_R0?AVbad_alloc@std@@@8??0bad_alloc@std@@QAE@ABV01@@Z12 DD 00H
	DD	FLAT:??_R0?AVbad_alloc@std@@@8
	DD	00H
	DD	0ffffffffH
	ORG $+4
	DD	0cH
	DD	FLAT:??0bad_alloc@std@@QAE@ABV01@@Z
xdata$x	ENDS
;	COMDAT __CTA2?AVbad_alloc@std@@
xdata$x	SEGMENT
__CTA2?AVbad_alloc@std@@ DD 02H
	DD	FLAT:__CT??_R0?AVbad_alloc@std@@@8??0bad_alloc@std@@QAE@ABV01@@Z12
	DD	FLAT:__CT??_R0?AVexception@std@@@8??0exception@std@@QAE@ABV01@@Z12
xdata$x	ENDS
;	COMDAT __TI2?AVbad_alloc@std@@
xdata$x	SEGMENT
__TI2?AVbad_alloc@std@@ DD 00H
	DD	FLAT:??1bad_alloc@std@@UAE@XZ
	DD	00H
	DD	FLAT:__CTA2?AVbad_alloc@std@@
; Function compile flags: /Ogtp
; File c:\program files (x86)\microsoft visual studio 10.0\vc\include\xmemory
xdata$x	ENDS
;	COMDAT ??$_Allocate@UPersonalShopMap@@@std@@YAPAUPersonalShopMap@@IPAU1@@Z
_TEXT	SEGMENT
$T169762 = -12						; size = 12
$T169767 = 8						; size = 4
__Count$ = 8						; size = 4
___formal$ = 12						; size = 4
??$_Allocate@UPersonalShopMap@@@std@@YAPAUPersonalShopMap@@IPAU1@@Z PROC ; std::_Allocate<PersonalShopMap>, COMDAT

; 30   : 	{	// allocate storage for _Count elements of type _Ty

  00000	55		 push	 ebp
  00001	8b ec		 mov	 ebp, esp

; 31   : 	void *_Ptr = 0;
; 32   : 
; 33   : 	if (_Count <= 0)

  00003	8b 4d 08	 mov	 ecx, DWORD PTR __Count$[ebp]
  00006	83 ec 0c	 sub	 esp, 12			; 0000000cH
  00009	33 c0		 xor	 eax, eax
  0000b	85 c9		 test	 ecx, ecx

; 34   : 		_Count = 0;
; 35   : 	else if (((_SIZT)(-1) / sizeof (_Ty) < _Count)

  0000d	74 40		 je	 SHORT $LN5@Allocate

; 36   : 		|| (_Ptr = ::operator new(_Count * sizeof (_Ty))) == 0)

  0000f	81 f9 c4 4e ec
	04		 cmp	 ecx, 82595524		; 04ec4ec4H
  00015	77 10		 ja	 SHORT $LN1@Allocate
  00017	6b c9 34	 imul	 ecx, 52			; 00000034H
  0001a	51		 push	 ecx
  0001b	e8 00 00 00 00	 call	 ??2@YAPAXI@Z		; operator new
  00020	83 c4 04	 add	 esp, 4
  00023	85 c0		 test	 eax, eax

; 38   : 
; 39   : 	return ((_Ty _FARQ *)_Ptr);

  00025	75 28		 jne	 SHORT $LN5@Allocate
$LN1@Allocate:

; 37   : 		_THROW_NCEE(bad_alloc, 0);

  00027	8d 45 08	 lea	 eax, DWORD PTR $T169767[ebp]
  0002a	50		 push	 eax
  0002b	8d 4d f4	 lea	 ecx, DWORD PTR $T169762[ebp]
  0002e	c7 45 08 00 00
	00 00		 mov	 DWORD PTR $T169767[ebp], 0
  00035	e8 00 00 00 00	 call	 ??0exception@std@@QAE@ABQBD@Z ; std::exception::exception
  0003a	68 00 00 00 00	 push	 OFFSET __TI2?AVbad_alloc@std@@
  0003f	8d 4d f4	 lea	 ecx, DWORD PTR $T169762[ebp]
  00042	51		 push	 ecx
  00043	c7 45 f4 00 00
	00 00		 mov	 DWORD PTR $T169762[ebp], OFFSET ??_7bad_alloc@std@@6B@
  0004a	e8 00 00 00 00	 call	 __CxxThrowException@8
$LN10@Allocate:
$LN5@Allocate:

; 40   : 	}

  0004f	8b e5		 mov	 esp, ebp
  00051	5d		 pop	 ebp
  00052	c3		 ret	 0
$LN9@Allocate:
??$_Allocate@UPersonalShopMap@@@std@@YAPAUPersonalShopMap@@IPAU1@@Z ENDP ; std::_Allocate<PersonalShopMap>
; Function compile flags: /Ogtp
_TEXT	ENDS
;	COMDAT ??0bad_alloc@std@@QAE@ABV01@@Z
_TEXT	SEGMENT
___that$ = 8						; size = 4
??0bad_alloc@std@@QAE@ABV01@@Z PROC			; std::bad_alloc::bad_alloc, COMDAT
; _this$ = ecx
  00000	55		 push	 ebp
  00001	8b ec		 mov	 ebp, esp
  00003	8b 45 08	 mov	 eax, DWORD PTR ___that$[ebp]
  00006	56		 push	 esi
  00007	50		 push	 eax
  00008	8b f1		 mov	 esi, ecx
  0000a	e8 00 00 00 00	 call	 ??0exception@std@@QAE@ABV01@@Z ; std::exception::exception
  0000f	c7 06 00 00 00
	00		 mov	 DWORD PTR [esi], OFFSET ??_7bad_alloc@std@@6B@
  00015	8b c6		 mov	 eax, esi
  00017	5e		 pop	 esi
  00018	5d		 pop	 ebp
  00019	c2 04 00	 ret	 4
??0bad_alloc@std@@QAE@ABV01@@Z ENDP			; std::bad_alloc::bad_alloc
_TEXT	ENDS
PUBLIC	?construct@?$allocator@UPersonalShopMap@@@std@@QAEXPAUPersonalShopMap@@ABU3@@Z ; std::allocator<PersonalShopMap>::construct
; Function compile flags: /Ogtp
;	COMDAT ?construct@?$allocator@UPersonalShopMap@@@std@@QAEXPAUPersonalShopMap@@ABU3@@Z
_TEXT	SEGMENT
__Ptr$ = 8						; size = 4
__Val$ = 12						; size = 4
?construct@?$allocator@UPersonalShopMap@@@std@@QAEXPAUPersonalShopMap@@ABU3@@Z PROC ; std::allocator<PersonalShopMap>::construct, COMDAT
; _this$ = ecx

; 196  : 		{	// construct object at _Ptr with value _Val

  00000	55		 push	 ebp
  00001	8b ec		 mov	 ebp, esp
  00003	57		 push	 edi

; 197  : 		_Construct(_Ptr, _Val);

  00004	8b 7d 08	 mov	 edi, DWORD PTR __Ptr$[ebp]
  00007	85 ff		 test	 edi, edi
  00009	74 0c		 je	 SHORT $LN5@construct@2
  0000b	56		 push	 esi
  0000c	8b 75 0c	 mov	 esi, DWORD PTR __Val$[ebp]
  0000f	b9 0d 00 00 00	 mov	 ecx, 13			; 0000000dH
  00014	f3 a5		 rep movsd
  00016	5e		 pop	 esi
$LN5@construct@2:
  00017	5f		 pop	 edi

; 198  : 		}

  00018	5d		 pop	 ebp
  00019	c2 08 00	 ret	 8
?construct@?$allocator@UPersonalShopMap@@@std@@QAEXPAUPersonalShopMap@@ABU3@@Z ENDP ; std::allocator<PersonalShopMap>::construct
_TEXT	ENDS
PUBLIC	??$_Move@PAUPersonalShopMap@@PAU1@@std@@YAPAUPersonalShopMap@@PAU1@00U_Nonscalar_ptr_iterator_tag@0@@Z ; std::_Move<PersonalShopMap *,PersonalShopMap *>
; Function compile flags: /Ogtp
; File c:\program files (x86)\microsoft visual studio 10.0\vc\include\xutility
;	COMDAT ??$_Move@PAUPersonalShopMap@@PAU1@@std@@YAPAUPersonalShopMap@@PAU1@00U_Nonscalar_ptr_iterator_tag@0@@Z
_TEXT	SEGMENT
__First$ = 8						; size = 4
__Last$ = 12						; size = 4
__Dest$ = 16						; size = 4
___formal$ = 20						; size = 1
??$_Move@PAUPersonalShopMap@@PAU1@@std@@YAPAUPersonalShopMap@@PAU1@00U_Nonscalar_ptr_iterator_tag@0@@Z PROC ; std::_Move<PersonalShopMap *,PersonalShopMap *>, COMDAT

; 2512 : 	{	// move [_First, _Last) to [_Dest, ...), arbitrary iterators

  00000	55		 push	 ebp
  00001	8b ec		 mov	 ebp, esp

; 2513 : 	for (; _First != _Last; ++_Dest, ++_First)

  00003	8b 55 08	 mov	 edx, DWORD PTR __First$[ebp]
  00006	8b 45 10	 mov	 eax, DWORD PTR __Dest$[ebp]
  00009	53		 push	 ebx
  0000a	8b 5d 0c	 mov	 ebx, DWORD PTR __Last$[ebp]
  0000d	3b d3		 cmp	 edx, ebx
  0000f	74 19		 je	 SHORT $LN1@Move
  00011	56		 push	 esi
  00012	57		 push	 edi
$LL3@Move:

; 2514 : 		*_Dest = _STD move(*_First);

  00013	8b f2		 mov	 esi, edx
  00015	8b f8		 mov	 edi, eax
  00017	83 c2 34	 add	 edx, 52			; 00000034H
  0001a	b9 0d 00 00 00	 mov	 ecx, 13			; 0000000dH
  0001f	83 c0 34	 add	 eax, 52			; 00000034H
  00022	f3 a5		 rep movsd
  00024	3b d3		 cmp	 edx, ebx
  00026	75 eb		 jne	 SHORT $LL3@Move
  00028	5f		 pop	 edi
  00029	5e		 pop	 esi
$LN1@Move:
  0002a	5b		 pop	 ebx

; 2515 : 	return (_Dest);
; 2516 : 	}

  0002b	5d		 pop	 ebp
  0002c	c3		 ret	 0
??$_Move@PAUPersonalShopMap@@PAU1@@std@@YAPAUPersonalShopMap@@PAU1@00U_Nonscalar_ptr_iterator_tag@0@@Z ENDP ; std::_Move<PersonalShopMap *,PersonalShopMap *>
_TEXT	ENDS
PUBLIC	?destroy@?$allocator@UPersonalShopMap@@@std@@QAEXPAUPersonalShopMap@@@Z ; std::allocator<PersonalShopMap>::destroy
; Function compile flags: /Ogtp
; File c:\program files (x86)\microsoft visual studio 10.0\vc\include\xmemory
;	COMDAT ?destroy@?$allocator@UPersonalShopMap@@@std@@QAEXPAUPersonalShopMap@@@Z
_TEXT	SEGMENT
__Ptr$ = 8						; size = 4
?destroy@?$allocator@UPersonalShopMap@@@std@@QAEXPAUPersonalShopMap@@@Z PROC ; std::allocator<PersonalShopMap>::destroy, COMDAT
; _this$ = ecx

; 213  : 		_Destroy(_Ptr);
; 214  : 		}

  00000	c2 04 00	 ret	 4
?destroy@?$allocator@UPersonalShopMap@@@std@@QAEXPAUPersonalShopMap@@@Z ENDP ; std::allocator<PersonalShopMap>::destroy
_TEXT	ENDS
PUBLIC	?construct@?$allocator@UPersonalShopMap@@@std@@QAEXPAUPersonalShopMap@@$$QAU3@@Z ; std::allocator<PersonalShopMap>::construct
; Function compile flags: /Ogtp
;	COMDAT ?construct@?$allocator@UPersonalShopMap@@@std@@QAEXPAUPersonalShopMap@@$$QAU3@@Z
_TEXT	SEGMENT
__Ptr$ = 8						; size = 4
__Val$ = 12						; size = 4
?construct@?$allocator@UPersonalShopMap@@@std@@QAEXPAUPersonalShopMap@@$$QAU3@@Z PROC ; std::allocator<PersonalShopMap>::construct, COMDAT
; _this$ = ecx

; 201  : 		{	// construct object at _Ptr with value _Val

  00000	55		 push	 ebp
  00001	8b ec		 mov	 ebp, esp
  00003	57		 push	 edi

; 202  : 		::new ((void _FARQ *)_Ptr) _Ty(_STD forward<_Ty>(_Val));

  00004	8b 7d 08	 mov	 edi, DWORD PTR __Ptr$[ebp]
  00007	85 ff		 test	 edi, edi
  00009	74 0c		 je	 SHORT $LN3@construct@3
  0000b	56		 push	 esi
  0000c	8b 75 0c	 mov	 esi, DWORD PTR __Val$[ebp]
  0000f	b9 0d 00 00 00	 mov	 ecx, 13			; 0000000dH
  00014	f3 a5		 rep movsd
  00016	5e		 pop	 esi
$LN3@construct@3:
  00017	5f		 pop	 edi

; 203  : 		}

  00018	5d		 pop	 ebp
  00019	c2 08 00	 ret	 8
?construct@?$allocator@UPersonalShopMap@@@std@@QAEXPAUPersonalShopMap@@$$QAU3@@Z ENDP ; std::allocator<PersonalShopMap>::construct
_TEXT	ENDS
PUBLIC	??0?$vector@UPersonalShopMap@@V?$allocator@UPersonalShopMap@@@std@@@std@@QAE@XZ ; std::vector<PersonalShopMap,std::allocator<PersonalShopMap> >::vector<PersonalShopMap,std::allocator<PersonalShopMap> >
; Function compile flags: /Ogtp
; File c:\program files (x86)\microsoft visual studio 10.0\vc\include\vector
;	COMDAT ??0?$vector@UPersonalShopMap@@V?$allocator@UPersonalShopMap@@@std@@@std@@QAE@XZ
_TEXT	SEGMENT
??0?$vector@UPersonalShopMap@@V?$allocator@UPersonalShopMap@@@std@@@std@@QAE@XZ PROC ; std::vector<PersonalShopMap,std::allocator<PersonalShopMap> >::vector<PersonalShopMap,std::allocator<PersonalShopMap> >, COMDAT
; _this$ = ecx

; 507  : 		{	// construct empty vector

  00000	8b c1		 mov	 eax, ecx
  00002	33 c9		 xor	 ecx, ecx
  00004	89 08		 mov	 DWORD PTR [eax], ecx
  00006	89 48 04	 mov	 DWORD PTR [eax+4], ecx
  00009	89 48 08	 mov	 DWORD PTR [eax+8], ecx

; 508  : 		}

  0000c	c3		 ret	 0
??0?$vector@UPersonalShopMap@@V?$allocator@UPersonalShopMap@@@std@@@std@@QAE@XZ ENDP ; std::vector<PersonalShopMap,std::allocator<PersonalShopMap> >::vector<PersonalShopMap,std::allocator<PersonalShopMap> >
_TEXT	ENDS
PUBLIC	??E?$_Vector_iterator@V?$_Vector_val@UPersonalShopMap@@V?$allocator@UPersonalShopMap@@@std@@@std@@@std@@QAE?AV01@H@Z ; std::_Vector_iterator<std::_Vector_val<PersonalShopMap,std::allocator<PersonalShopMap> > >::operator++
; Function compile flags: /Ogtp
;	COMDAT ??E?$_Vector_iterator@V?$_Vector_val@UPersonalShopMap@@V?$allocator@UPersonalShopMap@@@std@@@std@@@std@@QAE?AV01@H@Z
_TEXT	SEGMENT
___$ReturnUdt$ = 8					; size = 4
___formal$ = 12						; size = 4
??E?$_Vector_iterator@V?$_Vector_val@UPersonalShopMap@@V?$allocator@UPersonalShopMap@@@std@@@std@@@std@@QAE?AV01@H@Z PROC ; std::_Vector_iterator<std::_Vector_val<PersonalShopMap,std::allocator<PersonalShopMap> > >::operator++, COMDAT
; _this$ = ecx

; 337  : 		{	// postincrement

  00000	55		 push	 ebp
  00001	8b ec		 mov	 ebp, esp

; 338  : 		_Myiter _Tmp = *this;

  00003	8b 11		 mov	 edx, DWORD PTR [ecx]
  00005	8b 45 08	 mov	 eax, DWORD PTR ___$ReturnUdt$[ebp]
  00008	89 10		 mov	 DWORD PTR [eax], edx

; 339  : 		++*this;

  0000a	83 c2 34	 add	 edx, 52			; 00000034H
  0000d	89 11		 mov	 DWORD PTR [ecx], edx

; 340  : 		return (_Tmp);
; 341  : 		}

  0000f	5d		 pop	 ebp
  00010	c2 08 00	 ret	 8
??E?$_Vector_iterator@V?$_Vector_val@UPersonalShopMap@@V?$allocator@UPersonalShopMap@@@std@@@std@@@std@@QAE?AV01@H@Z ENDP ; std::_Vector_iterator<std::_Vector_val<PersonalShopMap,std::allocator<PersonalShopMap> > >::operator++
_TEXT	ENDS
PUBLIC	??9?$_Vector_const_iterator@V?$_Vector_val@UPersonalShopMap@@V?$allocator@UPersonalShopMap@@@std@@@std@@@std@@QBE_NABV01@@Z ; std::_Vector_const_iterator<std::_Vector_val<PersonalShopMap,std::allocator<PersonalShopMap> > >::operator!=
; Function compile flags: /Ogtp
;	COMDAT ??9?$_Vector_const_iterator@V?$_Vector_val@UPersonalShopMap@@V?$allocator@UPersonalShopMap@@@std@@@std@@@std@@QBE_NABV01@@Z
_TEXT	SEGMENT
__Right$ = 8						; size = 4
??9?$_Vector_const_iterator@V?$_Vector_val@UPersonalShopMap@@V?$allocator@UPersonalShopMap@@@std@@@std@@@std@@QBE_NABV01@@Z PROC ; std::_Vector_const_iterator<std::_Vector_val<PersonalShopMap,std::allocator<PersonalShopMap> > >::operator!=, COMDAT
; _this$ = ecx

; 207  : 		{	// test for iterator inequality

  00000	55		 push	 ebp
  00001	8b ec		 mov	 ebp, esp

; 208  : 		return (!(*this == _Right));

  00003	8b 01		 mov	 eax, DWORD PTR [ecx]
  00005	8b 55 08	 mov	 edx, DWORD PTR __Right$[ebp]
  00008	33 c9		 xor	 ecx, ecx
  0000a	3b 02		 cmp	 eax, DWORD PTR [edx]
  0000c	0f 95 c0	 setne	 al

; 209  : 		}

  0000f	5d		 pop	 ebp
  00010	c2 04 00	 ret	 4
??9?$_Vector_const_iterator@V?$_Vector_val@UPersonalShopMap@@V?$allocator@UPersonalShopMap@@@std@@@std@@@std@@QBE_NABV01@@Z ENDP ; std::_Vector_const_iterator<std::_Vector_val<PersonalShopMap,std::allocator<PersonalShopMap> > >::operator!=
_TEXT	ENDS
PUBLIC	??0?$_Vector_iterator@V?$_Vector_val@UPersonalShopMap@@V?$allocator@UPersonalShopMap@@@std@@@std@@@std@@QAE@PAUPersonalShopMap@@PBU_Container_base0@1@@Z ; std::_Vector_iterator<std::_Vector_val<PersonalShopMap,std::allocator<PersonalShopMap> > >::_Vector_iterator<std::_Vector_val<PersonalShopMap,std::allocator<PersonalShopMap> > >
; Function compile flags: /Ogtp
;	COMDAT ??0?$_Vector_iterator@V?$_Vector_val@UPersonalShopMap@@V?$allocator@UPersonalShopMap@@@std@@@std@@@std@@QAE@PAUPersonalShopMap@@PBU_Container_base0@1@@Z
_TEXT	SEGMENT
__Parg$ = 8						; size = 4
__Pvector$ = 12						; size = 4
??0?$_Vector_iterator@V?$_Vector_val@UPersonalShopMap@@V?$allocator@UPersonalShopMap@@@std@@@std@@@std@@QAE@PAUPersonalShopMap@@PBU_Container_base0@1@@Z PROC ; std::_Vector_iterator<std::_Vector_val<PersonalShopMap,std::allocator<PersonalShopMap> > >::_Vector_iterator<std::_Vector_val<PersonalShopMap,std::allocator<PersonalShopMap> > >, COMDAT
; _this$ = ecx

; 304  : 		{	// construct with pointer _Parg

  00000	55		 push	 ebp
  00001	8b ec		 mov	 ebp, esp
  00003	8b c1		 mov	 eax, ecx
  00005	8b 4d 08	 mov	 ecx, DWORD PTR __Parg$[ebp]
  00008	89 08		 mov	 DWORD PTR [eax], ecx

; 305  : 		}

  0000a	5d		 pop	 ebp
  0000b	c2 08 00	 ret	 8
??0?$_Vector_iterator@V?$_Vector_val@UPersonalShopMap@@V?$allocator@UPersonalShopMap@@@std@@@std@@@std@@QAE@PAUPersonalShopMap@@PBU_Container_base0@1@@Z ENDP ; std::_Vector_iterator<std::_Vector_val<PersonalShopMap,std::allocator<PersonalShopMap> > >::_Vector_iterator<std::_Vector_val<PersonalShopMap,std::allocator<PersonalShopMap> > >
_TEXT	ENDS
PUBLIC	?_Make_iter@?$vector@UPersonalShopMap@@V?$allocator@UPersonalShopMap@@@std@@@std@@QBE?AV?$_Vector_iterator@V?$_Vector_val@UPersonalShopMap@@V?$allocator@UPersonalShopMap@@@std@@@std@@@2@V?$_Vector_const_iterator@V?$_Vector_val@UPersonalShopMap@@V?$allocator@UPersonalShopMap@@@std@@@std@@@2@@Z ; std::vector<PersonalShopMap,std::allocator<PersonalShopMap> >::_Make_iter
; Function compile flags: /Ogtp
;	COMDAT ?_Make_iter@?$vector@UPersonalShopMap@@V?$allocator@UPersonalShopMap@@@std@@@std@@QBE?AV?$_Vector_iterator@V?$_Vector_val@UPersonalShopMap@@V?$allocator@UPersonalShopMap@@@std@@@std@@@2@V?$_Vector_const_iterator@V?$_Vector_val@UPersonalShopMap@@V?$allocator@UPersonalShopMap@@@std@@@std@@@2@@Z
_TEXT	SEGMENT
___$ReturnUdt$ = 8					; size = 4
__Where$ = 12						; size = 4
?_Make_iter@?$vector@UPersonalShopMap@@V?$allocator@UPersonalShopMap@@@std@@@std@@QBE?AV?$_Vector_iterator@V?$_Vector_val@UPersonalShopMap@@V?$allocator@UPersonalShopMap@@@std@@@std@@@2@V?$_Vector_const_iterator@V?$_Vector_val@UPersonalShopMap@@V?$allocator@UPersonalShopMap@@@std@@@std@@@2@@Z PROC ; std::vector<PersonalShopMap,std::allocator<PersonalShopMap> >::_Make_iter, COMDAT
; _this$ = ecx

; 801  : 		{	// make iterator from const_iterator

  00000	55		 push	 ebp
  00001	8b ec		 mov	 ebp, esp

; 802  : 		return (iterator(_Where._Ptr, this));

  00003	8b 45 08	 mov	 eax, DWORD PTR ___$ReturnUdt$[ebp]
  00006	8b 4d 0c	 mov	 ecx, DWORD PTR __Where$[ebp]
  00009	89 08		 mov	 DWORD PTR [eax], ecx

; 803  : 		}

  0000b	5d		 pop	 ebp
  0000c	c2 08 00	 ret	 8
?_Make_iter@?$vector@UPersonalShopMap@@V?$allocator@UPersonalShopMap@@@std@@@std@@QBE?AV?$_Vector_iterator@V?$_Vector_val@UPersonalShopMap@@V?$allocator@UPersonalShopMap@@@std@@@std@@@2@V?$_Vector_const_iterator@V?$_Vector_val@UPersonalShopMap@@V?$allocator@UPersonalShopMap@@@std@@@std@@@2@@Z ENDP ; std::vector<PersonalShopMap,std::allocator<PersonalShopMap> >::_Make_iter
_TEXT	ENDS
PUBLIC	?allocate@?$allocator@UPersonalShopMap@@@std@@QAEPAUPersonalShopMap@@I@Z ; std::allocator<PersonalShopMap>::allocate
; Function compile flags: /Ogtp
; File c:\program files (x86)\microsoft visual studio 10.0\vc\include\xmemory
;	COMDAT ?allocate@?$allocator@UPersonalShopMap@@@std@@QAEPAUPersonalShopMap@@I@Z
_TEXT	SEGMENT
$T169903 = -12						; size = 12
$T169895 = 8						; size = 4
__Count$ = 8						; size = 4
?allocate@?$allocator@UPersonalShopMap@@@std@@QAEPAUPersonalShopMap@@I@Z PROC ; std::allocator<PersonalShopMap>::allocate, COMDAT
; _this$ = ecx

; 186  : 		{	// allocate array of _Count elements

  00000	55		 push	 ebp
  00001	8b ec		 mov	 ebp, esp

; 187  : 		return (_Allocate(_Count, (pointer)0));

  00003	8b 4d 08	 mov	 ecx, DWORD PTR __Count$[ebp]
  00006	83 ec 0c	 sub	 esp, 12			; 0000000cH
  00009	33 c0		 xor	 eax, eax
  0000b	85 c9		 test	 ecx, ecx
  0000d	74 40		 je	 SHORT $LN1@allocate
  0000f	81 f9 c4 4e ec
	04		 cmp	 ecx, 82595524		; 04ec4ec4H
  00015	77 10		 ja	 SHORT $LN3@allocate
  00017	6b c9 34	 imul	 ecx, 52			; 00000034H
  0001a	51		 push	 ecx
  0001b	e8 00 00 00 00	 call	 ??2@YAPAXI@Z		; operator new
  00020	83 c4 04	 add	 esp, 4
  00023	85 c0		 test	 eax, eax
  00025	75 28		 jne	 SHORT $LN1@allocate
$LN3@allocate:
  00027	8d 45 08	 lea	 eax, DWORD PTR $T169895[ebp]
  0002a	50		 push	 eax
  0002b	8d 4d f4	 lea	 ecx, DWORD PTR $T169903[ebp]
  0002e	c7 45 08 00 00
	00 00		 mov	 DWORD PTR $T169895[ebp], 0
  00035	e8 00 00 00 00	 call	 ??0exception@std@@QAE@ABQBD@Z ; std::exception::exception
  0003a	68 00 00 00 00	 push	 OFFSET __TI2?AVbad_alloc@std@@
  0003f	8d 4d f4	 lea	 ecx, DWORD PTR $T169903[ebp]
  00042	51		 push	 ecx
  00043	c7 45 f4 00 00
	00 00		 mov	 DWORD PTR $T169903[ebp], OFFSET ??_7bad_alloc@std@@6B@
  0004a	e8 00 00 00 00	 call	 __CxxThrowException@8
$LN13@allocate:
$LN1@allocate:

; 188  : 		}

  0004f	8b e5		 mov	 esp, ebp
  00051	5d		 pop	 ebp
  00052	c2 04 00	 ret	 4
$LN12@allocate:
?allocate@?$allocator@UPersonalShopMap@@@std@@QAEPAUPersonalShopMap@@I@Z ENDP ; std::allocator<PersonalShopMap>::allocate
_TEXT	ENDS
PUBLIC	??$_Cons_val@V?$allocator@UPersonalShopMap@@@std@@UPersonalShopMap@@ABU3@@std@@YAXAAV?$allocator@UPersonalShopMap@@@0@PAUPersonalShopMap@@ABU2@@Z ; std::_Cons_val<std::allocator<PersonalShopMap>,PersonalShopMap,PersonalShopMap const &>
; Function compile flags: /Ogtp
;	COMDAT ??$_Cons_val@V?$allocator@UPersonalShopMap@@@std@@UPersonalShopMap@@ABU3@@std@@YAXAAV?$allocator@UPersonalShopMap@@@0@PAUPersonalShopMap@@ABU2@@Z
_TEXT	SEGMENT
__Alval$ = 8						; size = 4
__Pdest$ = 12						; size = 4
__Src$ = 16						; size = 4
??$_Cons_val@V?$allocator@UPersonalShopMap@@@std@@UPersonalShopMap@@ABU3@@std@@YAXAAV?$allocator@UPersonalShopMap@@@0@PAUPersonalShopMap@@ABU2@@Z PROC ; std::_Cons_val<std::allocator<PersonalShopMap>,PersonalShopMap,PersonalShopMap const &>, COMDAT

; 279  : 	{	// construct using allocator

  00000	55		 push	 ebp
  00001	8b ec		 mov	 ebp, esp
  00003	57		 push	 edi

; 280  : 	_Alval.construct(_Pdest, _STD forward<_Ty2>(_Src));

  00004	8b 7d 0c	 mov	 edi, DWORD PTR __Pdest$[ebp]
  00007	85 ff		 test	 edi, edi
  00009	74 0c		 je	 SHORT $LN9@Cons_val@2
  0000b	56		 push	 esi
  0000c	8b 75 10	 mov	 esi, DWORD PTR __Src$[ebp]
  0000f	b9 0d 00 00 00	 mov	 ecx, 13			; 0000000dH
  00014	f3 a5		 rep movsd
  00016	5e		 pop	 esi
$LN9@Cons_val@2:
  00017	5f		 pop	 edi

; 281  : 	}

  00018	5d		 pop	 ebp
  00019	c3		 ret	 0
??$_Cons_val@V?$allocator@UPersonalShopMap@@@std@@UPersonalShopMap@@ABU3@@std@@YAXAAV?$allocator@UPersonalShopMap@@@0@PAUPersonalShopMap@@ABU2@@Z ENDP ; std::_Cons_val<std::allocator<PersonalShopMap>,PersonalShopMap,PersonalShopMap const &>
_TEXT	ENDS
PUBLIC	??$_Move@PAUPersonalShopMap@@PAU1@@std@@YAPAUPersonalShopMap@@PAU1@00@Z ; std::_Move<PersonalShopMap *,PersonalShopMap *>
; Function compile flags: /Ogtp
; File c:\program files (x86)\microsoft visual studio 10.0\vc\include\xutility
;	COMDAT ??$_Move@PAUPersonalShopMap@@PAU1@@std@@YAPAUPersonalShopMap@@PAU1@00@Z
_TEXT	SEGMENT
__First$ = 8						; size = 4
__Last$ = 12						; size = 4
__Dest$ = 16						; size = 4
??$_Move@PAUPersonalShopMap@@PAU1@@std@@YAPAUPersonalShopMap@@PAU1@00@Z PROC ; std::_Move<PersonalShopMap *,PersonalShopMap *>, COMDAT

; 2533 : 	{	// move [_First, _Last) to [_Dest, ...), unchecked

  00000	55		 push	 ebp
  00001	8b ec		 mov	 ebp, esp

; 2534 : 	return (_Move(_First, _Last,
; 2535 : 		_Dest, _Ptr_cat(_First, _Dest)));

  00003	8b 55 08	 mov	 edx, DWORD PTR __First$[ebp]
  00006	8b 45 10	 mov	 eax, DWORD PTR __Dest$[ebp]
  00009	53		 push	 ebx
  0000a	8b 5d 0c	 mov	 ebx, DWORD PTR __Last$[ebp]
  0000d	3b d3		 cmp	 edx, ebx
  0000f	74 19		 je	 SHORT $LN5@Move@2
  00011	56		 push	 esi
  00012	57		 push	 edi
$LL7@Move@2:
  00013	8b f2		 mov	 esi, edx
  00015	8b f8		 mov	 edi, eax
  00017	83 c2 34	 add	 edx, 52			; 00000034H
  0001a	b9 0d 00 00 00	 mov	 ecx, 13			; 0000000dH
  0001f	83 c0 34	 add	 eax, 52			; 00000034H
  00022	f3 a5		 rep movsd
  00024	3b d3		 cmp	 edx, ebx
  00026	75 eb		 jne	 SHORT $LL7@Move@2
  00028	5f		 pop	 edi
  00029	5e		 pop	 esi
$LN5@Move@2:
  0002a	5b		 pop	 ebx

; 2536 : 	}

  0002b	5d		 pop	 ebp
  0002c	c3		 ret	 0
??$_Move@PAUPersonalShopMap@@PAU1@@std@@YAPAUPersonalShopMap@@PAU1@00@Z ENDP ; std::_Move<PersonalShopMap *,PersonalShopMap *>
_TEXT	ENDS
PUBLIC	??$_Dest_val@V?$allocator@UPersonalShopMap@@@std@@UPersonalShopMap@@@std@@YAXAAV?$allocator@UPersonalShopMap@@@0@PAUPersonalShopMap@@@Z ; std::_Dest_val<std::allocator<PersonalShopMap>,PersonalShopMap>
; Function compile flags: /Ogtp
; File c:\program files (x86)\microsoft visual studio 10.0\vc\include\xmemory
;	COMDAT ??$_Dest_val@V?$allocator@UPersonalShopMap@@@std@@UPersonalShopMap@@@std@@YAXAAV?$allocator@UPersonalShopMap@@@0@PAUPersonalShopMap@@@Z
_TEXT	SEGMENT
__Alval$ = 8						; size = 4
__Pdest$ = 12						; size = 4
??$_Dest_val@V?$allocator@UPersonalShopMap@@@std@@UPersonalShopMap@@@std@@YAXAAV?$allocator@UPersonalShopMap@@@0@PAUPersonalShopMap@@@Z PROC ; std::_Dest_val<std::allocator<PersonalShopMap>,PersonalShopMap>, COMDAT

; 287  : 	_Alval.destroy(_Pdest);
; 288  : 	}

  00000	c3		 ret	 0
??$_Dest_val@V?$allocator@UPersonalShopMap@@@std@@UPersonalShopMap@@@std@@YAXAAV?$allocator@UPersonalShopMap@@@0@PAUPersonalShopMap@@@Z ENDP ; std::_Dest_val<std::allocator<PersonalShopMap>,PersonalShopMap>
_TEXT	ENDS
PUBLIC	??$_Cons_val@V?$allocator@UPersonalShopMap@@@std@@UPersonalShopMap@@U3@@std@@YAXAAV?$allocator@UPersonalShopMap@@@0@PAUPersonalShopMap@@$$QAU2@@Z ; std::_Cons_val<std::allocator<PersonalShopMap>,PersonalShopMap,PersonalShopMap>
; Function compile flags: /Ogtp
;	COMDAT ??$_Cons_val@V?$allocator@UPersonalShopMap@@@std@@UPersonalShopMap@@U3@@std@@YAXAAV?$allocator@UPersonalShopMap@@@0@PAUPersonalShopMap@@$$QAU2@@Z
_TEXT	SEGMENT
__Alval$ = 8						; size = 4
__Pdest$ = 12						; size = 4
__Src$ = 16						; size = 4
??$_Cons_val@V?$allocator@UPersonalShopMap@@@std@@UPersonalShopMap@@U3@@std@@YAXAAV?$allocator@UPersonalShopMap@@@0@PAUPersonalShopMap@@$$QAU2@@Z PROC ; std::_Cons_val<std::allocator<PersonalShopMap>,PersonalShopMap,PersonalShopMap>, COMDAT

; 279  : 	{	// construct using allocator

  00000	55		 push	 ebp
  00001	8b ec		 mov	 ebp, esp
  00003	57		 push	 edi

; 280  : 	_Alval.construct(_Pdest, _STD forward<_Ty2>(_Src));

  00004	8b 7d 0c	 mov	 edi, DWORD PTR __Pdest$[ebp]
  00007	85 ff		 test	 edi, edi
  00009	74 0c		 je	 SHORT $LN7@Cons_val@3
  0000b	56		 push	 esi
  0000c	8b 75 10	 mov	 esi, DWORD PTR __Src$[ebp]
  0000f	b9 0d 00 00 00	 mov	 ecx, 13			; 0000000dH
  00014	f3 a5		 rep movsd
  00016	5e		 pop	 esi
$LN7@Cons_val@3:
  00017	5f		 pop	 edi

; 281  : 	}

  00018	5d		 pop	 ebp
  00019	c3		 ret	 0
??$_Cons_val@V?$allocator@UPersonalShopMap@@@std@@UPersonalShopMap@@U3@@std@@YAXAAV?$allocator@UPersonalShopMap@@@0@PAUPersonalShopMap@@$$QAU2@@Z ENDP ; std::_Cons_val<std::allocator<PersonalShopMap>,PersonalShopMap,PersonalShopMap>
_TEXT	ENDS
PUBLIC	?begin@?$vector@UPersonalShopMap@@V?$allocator@UPersonalShopMap@@@std@@@std@@QAE?AV?$_Vector_iterator@V?$_Vector_val@UPersonalShopMap@@V?$allocator@UPersonalShopMap@@@std@@@std@@@2@XZ ; std::vector<PersonalShopMap,std::allocator<PersonalShopMap> >::begin
; Function compile flags: /Ogtp
; File c:\program files (x86)\microsoft visual studio 10.0\vc\include\vector
;	COMDAT ?begin@?$vector@UPersonalShopMap@@V?$allocator@UPersonalShopMap@@@std@@@std@@QAE?AV?$_Vector_iterator@V?$_Vector_val@UPersonalShopMap@@V?$allocator@UPersonalShopMap@@@std@@@std@@@2@XZ
_TEXT	SEGMENT
___$ReturnUdt$ = 8					; size = 4
?begin@?$vector@UPersonalShopMap@@V?$allocator@UPersonalShopMap@@@std@@@std@@QAE?AV?$_Vector_iterator@V?$_Vector_val@UPersonalShopMap@@V?$allocator@UPersonalShopMap@@@std@@@std@@@2@XZ PROC ; std::vector<PersonalShopMap,std::allocator<PersonalShopMap> >::begin, COMDAT
; _this$ = ecx

; 781  : 		{	// return iterator for beginning of mutable sequence

  00000	55		 push	 ebp
  00001	8b ec		 mov	 ebp, esp

; 782  : 		return (iterator(this->_Myfirst, this));

  00003	8b 09		 mov	 ecx, DWORD PTR [ecx]
  00005	8b 45 08	 mov	 eax, DWORD PTR ___$ReturnUdt$[ebp]
  00008	89 08		 mov	 DWORD PTR [eax], ecx

; 783  : 		}

  0000a	5d		 pop	 ebp
  0000b	c2 04 00	 ret	 4
?begin@?$vector@UPersonalShopMap@@V?$allocator@UPersonalShopMap@@@std@@@std@@QAE?AV?$_Vector_iterator@V?$_Vector_val@UPersonalShopMap@@V?$allocator@UPersonalShopMap@@@std@@@std@@@2@XZ ENDP ; std::vector<PersonalShopMap,std::allocator<PersonalShopMap> >::begin
_TEXT	ENDS
PUBLIC	?end@?$vector@UPersonalShopMap@@V?$allocator@UPersonalShopMap@@@std@@@std@@QAE?AV?$_Vector_iterator@V?$_Vector_val@UPersonalShopMap@@V?$allocator@UPersonalShopMap@@@std@@@std@@@2@XZ ; std::vector<PersonalShopMap,std::allocator<PersonalShopMap> >::end
; Function compile flags: /Ogtp
;	COMDAT ?end@?$vector@UPersonalShopMap@@V?$allocator@UPersonalShopMap@@@std@@@std@@QAE?AV?$_Vector_iterator@V?$_Vector_val@UPersonalShopMap@@V?$allocator@UPersonalShopMap@@@std@@@std@@@2@XZ
_TEXT	SEGMENT
___$ReturnUdt$ = 8					; size = 4
?end@?$vector@UPersonalShopMap@@V?$allocator@UPersonalShopMap@@@std@@@std@@QAE?AV?$_Vector_iterator@V?$_Vector_val@UPersonalShopMap@@V?$allocator@UPersonalShopMap@@@std@@@std@@@2@XZ PROC ; std::vector<PersonalShopMap,std::allocator<PersonalShopMap> >::end, COMDAT
; _this$ = ecx

; 791  : 		{	// return iterator for end of mutable sequence

  00000	55		 push	 ebp
  00001	8b ec		 mov	 ebp, esp

; 792  : 		return (iterator(this->_Mylast, this));

  00003	8b 49 04	 mov	 ecx, DWORD PTR [ecx+4]
  00006	8b 45 08	 mov	 eax, DWORD PTR ___$ReturnUdt$[ebp]
  00009	89 08		 mov	 DWORD PTR [eax], ecx

; 793  : 		}

  0000b	5d		 pop	 ebp
  0000c	c2 04 00	 ret	 4
?end@?$vector@UPersonalShopMap@@V?$allocator@UPersonalShopMap@@@std@@@std@@QAE?AV?$_Vector_iterator@V?$_Vector_val@UPersonalShopMap@@V?$allocator@UPersonalShopMap@@@std@@@std@@@2@XZ ENDP ; std::vector<PersonalShopMap,std::allocator<PersonalShopMap> >::end
_TEXT	ENDS
PUBLIC	??$_Destroy_range@V?$allocator@UPersonalShopMap@@@std@@@std@@YAXPAUPersonalShopMap@@0AAV?$allocator@UPersonalShopMap@@@0@U_Nonscalar_ptr_iterator_tag@0@@Z ; std::_Destroy_range<std::allocator<PersonalShopMap> >
; Function compile flags: /Ogtp
; File c:\program files (x86)\microsoft visual studio 10.0\vc\include\xmemory
;	COMDAT ??$_Destroy_range@V?$allocator@UPersonalShopMap@@@std@@@std@@YAXPAUPersonalShopMap@@0AAV?$allocator@UPersonalShopMap@@@0@U_Nonscalar_ptr_iterator_tag@0@@Z
_TEXT	SEGMENT
__First$ = 8						; size = 4
__Last$ = 12						; size = 4
__Al$ = 16						; size = 4
___formal$ = 20						; size = 1
??$_Destroy_range@V?$allocator@UPersonalShopMap@@@std@@@std@@YAXPAUPersonalShopMap@@0AAV?$allocator@UPersonalShopMap@@@0@U_Nonscalar_ptr_iterator_tag@0@@Z PROC ; std::_Destroy_range<std::allocator<PersonalShopMap> >, COMDAT

; 96   : 	for (; _First != _Last; ++_First)
; 97   : 		_Dest_val(_Al, _First);
; 98   : 	}

  00000	c3		 ret	 0
??$_Destroy_range@V?$allocator@UPersonalShopMap@@@std@@@std@@YAXPAUPersonalShopMap@@0AAV?$allocator@UPersonalShopMap@@@0@U_Nonscalar_ptr_iterator_tag@0@@Z ENDP ; std::_Destroy_range<std::allocator<PersonalShopMap> >
_TEXT	ENDS
PUBLIC	??$_Uninit_move@PAUPersonalShopMap@@PAU1@V?$allocator@UPersonalShopMap@@@std@@U1@@std@@YAPAUPersonalShopMap@@PAU1@00AAV?$allocator@UPersonalShopMap@@@0@0U_Nonscalar_ptr_iterator_tag@0@@Z ; std::_Uninit_move<PersonalShopMap *,PersonalShopMap *,std::allocator<PersonalShopMap>,PersonalShopMap>
; Function compile flags: /Ogtp
; File c:\program files (x86)\microsoft visual studio 10.0\vc\include\memory
;	COMDAT ??$_Uninit_move@PAUPersonalShopMap@@PAU1@V?$allocator@UPersonalShopMap@@@std@@U1@@std@@YAPAUPersonalShopMap@@PAU1@00AAV?$allocator@UPersonalShopMap@@@0@0U_Nonscalar_ptr_iterator_tag@0@@Z
_TEXT	SEGMENT
__First$ = 8						; size = 4
__Last$ = 12						; size = 4
__Dest$ = 16						; size = 4
__Al$ = 20						; size = 4
___formal$ = 24						; size = 4
___formal$ = 28						; size = 1
??$_Uninit_move@PAUPersonalShopMap@@PAU1@V?$allocator@UPersonalShopMap@@@std@@U1@@std@@YAPAUPersonalShopMap@@PAU1@00AAV?$allocator@UPersonalShopMap@@@0@0U_Nonscalar_ptr_iterator_tag@0@@Z PROC ; std::_Uninit_move<PersonalShopMap *,PersonalShopMap *,std::allocator<PersonalShopMap>,PersonalShopMap>, COMDAT

; 424  : 	{	// move [_First, _Last) to raw _Dest, using _Al, arbitrary type

  00000	55		 push	 ebp
  00001	8b ec		 mov	 ebp, esp
  00003	53		 push	 ebx

; 425  : 	_DEBUG_RANGE(_First, _Last);
; 426  : 	_DEBUG_POINTER(_Dest);
; 427  : 	_FwdIt _Next = _Dest;
; 428  : 
; 429  : 	_TRY_BEGIN
; 430  : 	for (; _First != _Last; ++_Dest, ++_First)

  00004	8b 5d 0c	 mov	 ebx, DWORD PTR __Last$[ebp]
  00007	56		 push	 esi
  00008	8b 75 08	 mov	 esi, DWORD PTR __First$[ebp]
  0000b	3b f3		 cmp	 esi, ebx
  0000d	74 23		 je	 SHORT $LN17@Uninit_mov
  0000f	57		 push	 edi
  00010	8b 7d 10	 mov	 edi, DWORD PTR __Dest$[ebp]
$LL6@Uninit_mov:

; 431  : 		_Cons_val(_Al, _Dest, (_Valty &&)*_First);

  00013	8b 45 14	 mov	 eax, DWORD PTR __Al$[ebp]
  00016	56		 push	 esi
  00017	57		 push	 edi
  00018	50		 push	 eax
  00019	e8 00 00 00 00	 call	 ??$_Cons_val@V?$allocator@UPersonalShopMap@@@std@@UPersonalShopMap@@U3@@std@@YAXAAV?$allocator@UPersonalShopMap@@@0@PAUPersonalShopMap@@$$QAU2@@Z ; std::_Cons_val<std::allocator<PersonalShopMap>,PersonalShopMap,PersonalShopMap>
  0001e	83 c6 34	 add	 esi, 52			; 00000034H
  00021	83 c4 0c	 add	 esp, 12			; 0000000cH
  00024	83 c7 34	 add	 edi, 52			; 00000034H
  00027	3b f3		 cmp	 esi, ebx
  00029	75 e8		 jne	 SHORT $LL6@Uninit_mov

; 432  : 	_CATCH_ALL
; 433  : 	for (; _Next != _Dest; ++_Next)
; 434  : 		_Dest_val(_Al, _Next);
; 435  : 	_RERAISE;
; 436  : 	_CATCH_END
; 437  : 	return (_Dest);

  0002b	8b c7		 mov	 eax, edi
  0002d	5f		 pop	 edi
  0002e	5e		 pop	 esi
  0002f	5b		 pop	 ebx

; 438  : 	}

  00030	5d		 pop	 ebp
  00031	c3		 ret	 0
$LN17@Uninit_mov:

; 432  : 	_CATCH_ALL
; 433  : 	for (; _Next != _Dest; ++_Next)
; 434  : 		_Dest_val(_Al, _Next);
; 435  : 	_RERAISE;
; 436  : 	_CATCH_END
; 437  : 	return (_Dest);

  00032	8b 45 10	 mov	 eax, DWORD PTR __Dest$[ebp]
  00035	5e		 pop	 esi
  00036	5b		 pop	 ebx

; 438  : 	}

  00037	5d		 pop	 ebp
  00038	c3		 ret	 0
??$_Uninit_move@PAUPersonalShopMap@@PAU1@V?$allocator@UPersonalShopMap@@@std@@U1@@std@@YAPAUPersonalShopMap@@PAU1@00AAV?$allocator@UPersonalShopMap@@@0@0U_Nonscalar_ptr_iterator_tag@0@@Z ENDP ; std::_Uninit_move<PersonalShopMap *,PersonalShopMap *,std::allocator<PersonalShopMap>,PersonalShopMap>
_TEXT	ENDS
PUBLIC	??_C@_0N@EOPMBOOA@map?5byte?3?5?$CFd?$AA@	; `string'
PUBLIC	?FindShopAtMap@PersonalShopMapping@@QAEPAUPersonalShopMap@@E@Z ; PersonalShopMapping::FindShopAtMap
EXTRN	?LogAddC@@3P6AXEPADZZA:DWORD			; LogAddC
;	COMDAT ??_C@_0N@EOPMBOOA@map?5byte?3?5?$CFd?$AA@
; File c:\program files (x86)\microsoft visual studio 10.0\vc\include\vector
CONST	SEGMENT
??_C@_0N@EOPMBOOA@map?5byte?3?5?$CFd?$AA@ DB 'map byte: %d', 00H ; `string'
; Function compile flags: /Ogtp
; File c:\muserver_dev\development\mu-s8ep2-repack\gameserver\source\personalshopmapping.cpp
CONST	ENDS
;	COMDAT ?FindShopAtMap@PersonalShopMapping@@QAEPAUPersonalShopMap@@E@Z
_TEXT	SEGMENT
_current$168624 = -52					; size = 52
_map$ = 8						; size = 1
?FindShopAtMap@PersonalShopMapping@@QAEPAUPersonalShopMap@@E@Z PROC ; PersonalShopMapping::FindShopAtMap, COMDAT
; _this$ = ecx

; 80   : {

  00000	55		 push	 ebp
  00001	8b ec		 mov	 ebp, esp
  00003	83 ec 34	 sub	 esp, 52			; 00000034H
  00006	53		 push	 ebx

; 81   : 	BYTE map_b	=	map & 0xFF;
; 82   : 	LogAddC(2, "map byte: %d", map_b);

  00007	8a 5d 08	 mov	 bl, BYTE PTR _map$[ebp]
  0000a	56		 push	 esi
  0000b	0f b6 c3	 movzx	 eax, bl
  0000e	57		 push	 edi
  0000f	50		 push	 eax
  00010	68 00 00 00 00	 push	 OFFSET ??_C@_0N@EOPMBOOA@map?5byte?3?5?$CFd?$AA@
  00015	6a 02		 push	 2
  00017	8b f1		 mov	 esi, ecx
  00019	ff 15 00 00 00
	00		 call	 DWORD PTR ?LogAddC@@3P6AXEPADZZA ; LogAddC

; 83   : 
; 84   : 	for(std::vector<PersonalShopMap>::iterator iter = maps.begin(); iter != maps.end(); iter++)

  0001f	8b 46 08	 mov	 eax, DWORD PTR [esi+8]
  00022	8b 56 0c	 mov	 edx, DWORD PTR [esi+12]
  00025	83 c4 0c	 add	 esp, 12			; 0000000cH
  00028	3b c2		 cmp	 eax, edx
  0002a	74 1c		 je	 SHORT $LN2@FindShopAt
  0002c	8d 64 24 00	 npad	 4
$LL19@FindShopAt:

; 85   : 	{
; 86   : 		PersonalShopMap current	=	*iter;

  00030	b9 0d 00 00 00	 mov	 ecx, 13			; 0000000dH
  00035	8b f0		 mov	 esi, eax
  00037	8d 7d cc	 lea	 edi, DWORD PTR _current$168624[ebp]
  0003a	f3 a5		 rep movsd

; 87   : 		if(current.id == map_b) return &current;

  0003c	38 5d cc	 cmp	 BYTE PTR _current$168624[ebp], bl
  0003f	74 12		 je	 SHORT $LN43@FindShopAt

; 83   : 
; 84   : 	for(std::vector<PersonalShopMap>::iterator iter = maps.begin(); iter != maps.end(); iter++)

  00041	83 c0 34	 add	 eax, 52			; 00000034H
  00044	3b c2		 cmp	 eax, edx
  00046	75 e8		 jne	 SHORT $LL19@FindShopAt
$LN2@FindShopAt:
  00048	5f		 pop	 edi
  00049	5e		 pop	 esi

; 88   : 	}
; 89   : 
; 90   : 	return NULL;

  0004a	33 c0		 xor	 eax, eax
  0004c	5b		 pop	 ebx

; 91   : }

  0004d	8b e5		 mov	 esp, ebp
  0004f	5d		 pop	 ebp
  00050	c2 04 00	 ret	 4
$LN43@FindShopAt:
  00053	5f		 pop	 edi
  00054	5e		 pop	 esi

; 87   : 		if(current.id == map_b) return &current;

  00055	8d 45 cc	 lea	 eax, DWORD PTR _current$168624[ebp]
  00058	5b		 pop	 ebx

; 91   : }

  00059	8b e5		 mov	 esp, ebp
  0005b	5d		 pop	 ebp
  0005c	c2 04 00	 ret	 4
?FindShopAtMap@PersonalShopMapping@@QAEPAUPersonalShopMap@@E@Z ENDP ; PersonalShopMapping::FindShopAtMap
_TEXT	ENDS
PUBLIC	??$_Destroy_range@V?$allocator@UPersonalShopMap@@@std@@@std@@YAXPAUPersonalShopMap@@0AAV?$allocator@UPersonalShopMap@@@0@@Z ; std::_Destroy_range<std::allocator<PersonalShopMap> >
; Function compile flags: /Ogtp
; File c:\program files (x86)\microsoft visual studio 10.0\vc\include\xmemory
;	COMDAT ??$_Destroy_range@V?$allocator@UPersonalShopMap@@@std@@@std@@YAXPAUPersonalShopMap@@0AAV?$allocator@UPersonalShopMap@@@0@@Z
_TEXT	SEGMENT
__First$ = 8						; size = 4
__Last$ = 12						; size = 4
__Al$ = 16						; size = 4
??$_Destroy_range@V?$allocator@UPersonalShopMap@@@std@@@std@@YAXPAUPersonalShopMap@@0AAV?$allocator@UPersonalShopMap@@@0@@Z PROC ; std::_Destroy_range<std::allocator<PersonalShopMap> >, COMDAT

; 88   : 	_Destroy_range(_First, _Last, _Al, _Ptr_cat(_First, _Last));
; 89   : 	}

  00000	c3		 ret	 0
??$_Destroy_range@V?$allocator@UPersonalShopMap@@@std@@@std@@YAXPAUPersonalShopMap@@0AAV?$allocator@UPersonalShopMap@@@0@@Z ENDP ; std::_Destroy_range<std::allocator<PersonalShopMap> >
_TEXT	ENDS
PUBLIC	??$_Uninitialized_move@PAUPersonalShopMap@@PAU1@V?$allocator@UPersonalShopMap@@@std@@@std@@YAPAUPersonalShopMap@@PAU1@00AAV?$allocator@UPersonalShopMap@@@0@@Z ; std::_Uninitialized_move<PersonalShopMap *,PersonalShopMap *,std::allocator<PersonalShopMap> >
; Function compile flags: /Ogtp
; File c:\program files (x86)\microsoft visual studio 10.0\vc\include\memory
;	COMDAT ??$_Uninitialized_move@PAUPersonalShopMap@@PAU1@V?$allocator@UPersonalShopMap@@@std@@@std@@YAPAUPersonalShopMap@@PAU1@00AAV?$allocator@UPersonalShopMap@@@0@@Z
_TEXT	SEGMENT
__Cat$170175 = -4					; size = 1
__First$ = 8						; size = 4
__Last$ = 12						; size = 4
__Dest$ = 16						; size = 4
__Al$ = 20						; size = 4
??$_Uninitialized_move@PAUPersonalShopMap@@PAU1@V?$allocator@UPersonalShopMap@@@std@@@std@@YAPAUPersonalShopMap@@PAU1@00AAV?$allocator@UPersonalShopMap@@@0@@Z PROC ; std::_Uninitialized_move<PersonalShopMap *,PersonalShopMap *,std::allocator<PersonalShopMap> >, COMDAT

; 469  : 	{	// move [_First, _Last) to raw _Dest, using _Al

  00000	55		 push	 ebp
  00001	8b ec		 mov	 ebp, esp
  00003	51		 push	 ecx

; 470  : 	return (_Uninit_move(_First, _Last, _Dest, _Al,
; 471  : 		_Val_type(_First), _Ptr_cat(_First, _Dest)));

  00004	8b 45 fc	 mov	 eax, DWORD PTR __Cat$170175[ebp]
  00007	8b 4d 14	 mov	 ecx, DWORD PTR __Al$[ebp]
  0000a	8b 55 10	 mov	 edx, DWORD PTR __Dest$[ebp]
  0000d	50		 push	 eax
  0000e	8b 45 0c	 mov	 eax, DWORD PTR __Last$[ebp]
  00011	6a 00		 push	 0
  00013	51		 push	 ecx
  00014	8b 4d 08	 mov	 ecx, DWORD PTR __First$[ebp]
  00017	52		 push	 edx
  00018	50		 push	 eax
  00019	51		 push	 ecx
  0001a	e8 00 00 00 00	 call	 ??$_Uninit_move@PAUPersonalShopMap@@PAU1@V?$allocator@UPersonalShopMap@@@std@@U1@@std@@YAPAUPersonalShopMap@@PAU1@00AAV?$allocator@UPersonalShopMap@@@0@0U_Nonscalar_ptr_iterator_tag@0@@Z ; std::_Uninit_move<PersonalShopMap *,PersonalShopMap *,std::allocator<PersonalShopMap>,PersonalShopMap>
  0001f	83 c4 18	 add	 esp, 24			; 00000018H

; 472  : 	}

  00022	8b e5		 mov	 esp, ebp
  00024	5d		 pop	 ebp
  00025	c3		 ret	 0
??$_Uninitialized_move@PAUPersonalShopMap@@PAU1@V?$allocator@UPersonalShopMap@@@std@@@std@@YAPAUPersonalShopMap@@PAU1@00AAV?$allocator@UPersonalShopMap@@@0@@Z ENDP ; std::_Uninitialized_move<PersonalShopMap *,PersonalShopMap *,std::allocator<PersonalShopMap> >
_TEXT	ENDS
PUBLIC	?CanOpenShopAtMap@PersonalShopMapping@@QAE_NE@Z	; PersonalShopMapping::CanOpenShopAtMap
; Function compile flags: /Ogtp
; File c:\muserver_dev\development\mu-s8ep2-repack\gameserver\source\personalshopmapping.cpp
;	COMDAT ?CanOpenShopAtMap@PersonalShopMapping@@QAE_NE@Z
_TEXT	SEGMENT
_map$ = 8						; size = 1
?CanOpenShopAtMap@PersonalShopMapping@@QAE_NE@Z PROC	; PersonalShopMapping::CanOpenShopAtMap, COMDAT
; _this$ = ecx

; 67   : {

  00000	55		 push	 ebp
  00001	8b ec		 mov	 ebp, esp

; 68   : 	if(!this->enabled || (!this->allmaps && this->maps.empty())) 

  00003	80 79 04 00	 cmp	 BYTE PTR [ecx+4], 0
  00007	74 2c		 je	 SHORT $LN4@CanOpenSho
  00009	8a 41 05	 mov	 al, BYTE PTR [ecx+5]
  0000c	84 c0		 test	 al, al
  0000e	75 0c		 jne	 SHORT $LN11@CanOpenSho
  00010	8b 51 08	 mov	 edx, DWORD PTR [ecx+8]
  00013	3b 51 0c	 cmp	 edx, DWORD PTR [ecx+12]
  00016	74 1d		 je	 SHORT $LN4@CanOpenSho

; 70   : 	else if(this->allmaps && this->enabled)

  00018	84 c0		 test	 al, al
  0001a	74 06		 je	 SHORT $LN2@CanOpenSho
$LN11@CanOpenSho:

; 71   : 		return true;

  0001c	b0 01		 mov	 al, 1

; 76   : 	}
; 77   : }

  0001e	5d		 pop	 ebp
  0001f	c2 04 00	 ret	 4
$LN2@CanOpenSho:

; 72   : 	else
; 73   : 	{
; 74   : 		PersonalShopMap* found	=	this->FindShopAtMap(map);

  00022	8b 45 08	 mov	 eax, DWORD PTR _map$[ebp]
  00025	50		 push	 eax
  00026	e8 00 00 00 00	 call	 ?FindShopAtMap@PersonalShopMapping@@QAEPAUPersonalShopMap@@E@Z ; PersonalShopMapping::FindShopAtMap

; 75   : 		return found != NULL;

  0002b	f7 d8		 neg	 eax
  0002d	1b c0		 sbb	 eax, eax
  0002f	f7 d8		 neg	 eax

; 76   : 	}
; 77   : }

  00031	5d		 pop	 ebp
  00032	c2 04 00	 ret	 4
$LN4@CanOpenSho:

; 69   : 		return false;

  00035	32 c0		 xor	 al, al

; 76   : 	}
; 77   : }

  00037	5d		 pop	 ebp
  00038	c2 04 00	 ret	 4
?CanOpenShopAtMap@PersonalShopMapping@@QAE_NE@Z ENDP	; PersonalShopMapping::CanOpenShopAtMap
_TEXT	ENDS
PUBLIC	?_Destroy@?$vector@UPersonalShopMap@@V?$allocator@UPersonalShopMap@@@std@@@std@@IAEXPAUPersonalShopMap@@0@Z ; std::vector<PersonalShopMap,std::allocator<PersonalShopMap> >::_Destroy
; Function compile flags: /Ogtp
; File c:\program files (x86)\microsoft visual studio 10.0\vc\include\vector
;	COMDAT ?_Destroy@?$vector@UPersonalShopMap@@V?$allocator@UPersonalShopMap@@@std@@@std@@IAEXPAUPersonalShopMap@@0@Z
_TEXT	SEGMENT
__First$ = 8						; size = 4
__Last$ = 12						; size = 4
?_Destroy@?$vector@UPersonalShopMap@@V?$allocator@UPersonalShopMap@@@std@@@std@@IAEXPAUPersonalShopMap@@0@Z PROC ; std::vector<PersonalShopMap,std::allocator<PersonalShopMap> >::_Destroy, COMDAT
; _this$ = ecx

; 1270 : 		_Destroy_range(_First, _Last, this->_Alval);
; 1271 : 		}

  00000	c2 08 00	 ret	 8
?_Destroy@?$vector@UPersonalShopMap@@V?$allocator@UPersonalShopMap@@@std@@@std@@IAEXPAUPersonalShopMap@@0@Z ENDP ; std::vector<PersonalShopMap,std::allocator<PersonalShopMap> >::_Destroy
_TEXT	ENDS
PUBLIC	??$_Umove@PAUPersonalShopMap@@@?$vector@UPersonalShopMap@@V?$allocator@UPersonalShopMap@@@std@@@std@@IAEPAUPersonalShopMap@@PAU2@00@Z ; std::vector<PersonalShopMap,std::allocator<PersonalShopMap> >::_Umove<PersonalShopMap *>
; Function compile flags: /Ogtp
;	COMDAT ??$_Umove@PAUPersonalShopMap@@@?$vector@UPersonalShopMap@@V?$allocator@UPersonalShopMap@@@std@@@std@@IAEPAUPersonalShopMap@@PAU2@00@Z
_TEXT	SEGMENT
__First$ = 8						; size = 4
__Last$ = 12						; size = 4
__Cat$170204 = 16					; size = 1
__Ptr$ = 16						; size = 4
??$_Umove@PAUPersonalShopMap@@@?$vector@UPersonalShopMap@@V?$allocator@UPersonalShopMap@@@std@@@std@@IAEPAUPersonalShopMap@@PAU2@00@Z PROC ; std::vector<PersonalShopMap,std::allocator<PersonalShopMap> >::_Umove<PersonalShopMap *>, COMDAT
; _this$ = ecx

; 1322 : 		pointer _Umove(_Iter _First, _Iter _Last, pointer _Ptr)

  00000	55		 push	 ebp
  00001	8b ec		 mov	 ebp, esp

; 1323 : 		{	// move initializing [_First, _Last), using allocator
; 1324 : 		return (_Uninitialized_move(_First, _Last,
; 1325 : 			_Ptr, this->_Alval));

  00003	8b 45 10	 mov	 eax, DWORD PTR __Cat$170204[ebp]
  00006	8b 55 0c	 mov	 edx, DWORD PTR __Last$[ebp]
  00009	50		 push	 eax
  0000a	8b 45 08	 mov	 eax, DWORD PTR __First$[ebp]
  0000d	6a 00		 push	 0
  0000f	83 c1 0c	 add	 ecx, 12			; 0000000cH
  00012	51		 push	 ecx
  00013	8b 4d 10	 mov	 ecx, DWORD PTR __Ptr$[ebp]
  00016	51		 push	 ecx
  00017	52		 push	 edx
  00018	50		 push	 eax
  00019	e8 00 00 00 00	 call	 ??$_Uninit_move@PAUPersonalShopMap@@PAU1@V?$allocator@UPersonalShopMap@@@std@@U1@@std@@YAPAUPersonalShopMap@@PAU1@00AAV?$allocator@UPersonalShopMap@@@0@0U_Nonscalar_ptr_iterator_tag@0@@Z ; std::_Uninit_move<PersonalShopMap *,PersonalShopMap *,std::allocator<PersonalShopMap>,PersonalShopMap>
  0001e	83 c4 18	 add	 esp, 24			; 00000018H

; 1326 : 		}

  00021	5d		 pop	 ebp
  00022	c2 0c 00	 ret	 12			; 0000000cH
??$_Umove@PAUPersonalShopMap@@@?$vector@UPersonalShopMap@@V?$allocator@UPersonalShopMap@@@std@@@std@@IAEPAUPersonalShopMap@@PAU2@00@Z ENDP ; std::vector<PersonalShopMap,std::allocator<PersonalShopMap> >::_Umove<PersonalShopMap *>
_TEXT	ENDS
PUBLIC	?erase@?$vector@UPersonalShopMap@@V?$allocator@UPersonalShopMap@@@std@@@std@@QAE?AV?$_Vector_iterator@V?$_Vector_val@UPersonalShopMap@@V?$allocator@UPersonalShopMap@@@std@@@std@@@2@V?$_Vector_const_iterator@V?$_Vector_val@UPersonalShopMap@@V?$allocator@UPersonalShopMap@@@std@@@std@@@2@0@Z ; std::vector<PersonalShopMap,std::allocator<PersonalShopMap> >::erase
; Function compile flags: /Ogtp
;	COMDAT ?erase@?$vector@UPersonalShopMap@@V?$allocator@UPersonalShopMap@@@std@@@std@@QAE?AV?$_Vector_iterator@V?$_Vector_val@UPersonalShopMap@@V?$allocator@UPersonalShopMap@@@std@@@std@@@2@V?$_Vector_const_iterator@V?$_Vector_val@UPersonalShopMap@@V?$allocator@UPersonalShopMap@@@std@@@std@@@2@0@Z
_TEXT	SEGMENT
__First$ = -8						; size = 4
_this$ = -4						; size = 4
___$ReturnUdt$ = 8					; size = 4
__First_arg$ = 12					; size = 4
__Last_arg$ = 16					; size = 4
?erase@?$vector@UPersonalShopMap@@V?$allocator@UPersonalShopMap@@@std@@@std@@QAE?AV?$_Vector_iterator@V?$_Vector_val@UPersonalShopMap@@V?$allocator@UPersonalShopMap@@@std@@@std@@@2@V?$_Vector_const_iterator@V?$_Vector_val@UPersonalShopMap@@V?$allocator@UPersonalShopMap@@@std@@@std@@@2@0@Z PROC ; std::vector<PersonalShopMap,std::allocator<PersonalShopMap> >::erase, COMDAT
; _this$ = ecx

; 1190 : 		{	// erase [_First, _Last)

  00000	55		 push	 ebp
  00001	8b ec		 mov	 ebp, esp
  00003	83 ec 08	 sub	 esp, 8

; 1191 : 		iterator _First = _Make_iter(_First_arg);

  00006	8b 55 0c	 mov	 edx, DWORD PTR __First_arg$[ebp]

; 1192 : 		iterator _Last = _Make_iter(_Last_arg);
; 1193 : 
; 1194 : 		if (_First != _Last)

  00009	8b 45 10	 mov	 eax, DWORD PTR __Last_arg$[ebp]
  0000c	56		 push	 esi
  0000d	8b f2		 mov	 esi, edx
  0000f	89 4d fc	 mov	 DWORD PTR _this$[ebp], ecx
  00012	89 75 f8	 mov	 DWORD PTR __First$[ebp], esi
  00015	3b d0		 cmp	 edx, eax
  00017	74 29		 je	 SHORT $LN47@erase

; 1195 : 			{	// worth doing, copy down over hole
; 1196 :  #if _ITERATOR_DEBUG_LEVEL == 2
; 1197 : 			if (_Last < _First || _VICONT(_First) != this
; 1198 : 				|| _VIPTR(_First) < this->_Myfirst
; 1199 : 				|| this->_Mylast < _VIPTR(_Last))
; 1200 : 				_DEBUG_ERROR("vector erase iterator outside range");
; 1201 : 			pointer _Ptr = _Move(_VIPTR(_Last), this->_Mylast,
; 1202 : 				_VIPTR(_First));
; 1203 : 			_Orphan_range(_VIPTR(_First), this->_Mylast);
; 1204 : 
; 1205 :  #else /* _ITERATOR_DEBUG_LEVEL == 2 */
; 1206 : 			pointer _Ptr = _Move(_VIPTR(_Last), this->_Mylast,
; 1207 : 				_VIPTR(_First));

  00019	53		 push	 ebx
  0001a	8b 59 04	 mov	 ebx, DWORD PTR [ecx+4]
  0001d	3b c3		 cmp	 eax, ebx
  0001f	74 1d		 je	 SHORT $LN30@erase
  00021	57		 push	 edi
$LL32@erase:
  00022	8b f0		 mov	 esi, eax
  00024	8b fa		 mov	 edi, edx
  00026	83 c0 34	 add	 eax, 52			; 00000034H
  00029	b9 0d 00 00 00	 mov	 ecx, 13			; 0000000dH
  0002e	83 c2 34	 add	 edx, 52			; 00000034H
  00031	f3 a5		 rep movsd
  00033	3b c3		 cmp	 eax, ebx
  00035	75 eb		 jne	 SHORT $LL32@erase
  00037	8b 4d fc	 mov	 ecx, DWORD PTR _this$[ebp]
  0003a	8b 75 f8	 mov	 esi, DWORD PTR __First$[ebp]
  0003d	5f		 pop	 edi
$LN30@erase:

; 1208 :  #endif /* _ITERATOR_DEBUG_LEVEL == 2 */
; 1209 : 
; 1210 : 			_Destroy(_Ptr, this->_Mylast);
; 1211 : 			this->_Mylast = _Ptr;

  0003e	89 51 04	 mov	 DWORD PTR [ecx+4], edx
  00041	5b		 pop	 ebx
$LN47@erase:

; 1212 : 			}
; 1213 : 		return (_Make_iter(_First));

  00042	8b 45 08	 mov	 eax, DWORD PTR ___$ReturnUdt$[ebp]
  00045	89 30		 mov	 DWORD PTR [eax], esi
  00047	5e		 pop	 esi

; 1214 : 		}

  00048	8b e5		 mov	 esp, ebp
  0004a	5d		 pop	 ebp
  0004b	c2 0c 00	 ret	 12			; 0000000cH
?erase@?$vector@UPersonalShopMap@@V?$allocator@UPersonalShopMap@@@std@@@std@@QAE?AV?$_Vector_iterator@V?$_Vector_val@UPersonalShopMap@@V?$allocator@UPersonalShopMap@@@std@@@std@@@2@V?$_Vector_const_iterator@V?$_Vector_val@UPersonalShopMap@@V?$allocator@UPersonalShopMap@@@std@@@std@@@2@0@Z ENDP ; std::vector<PersonalShopMap,std::allocator<PersonalShopMap> >::erase
_TEXT	ENDS
PUBLIC	?_Tidy@?$vector@UPersonalShopMap@@V?$allocator@UPersonalShopMap@@@std@@@std@@IAEXXZ ; std::vector<PersonalShopMap,std::allocator<PersonalShopMap> >::_Tidy
; Function compile flags: /Ogtp
;	COMDAT ?_Tidy@?$vector@UPersonalShopMap@@V?$allocator@UPersonalShopMap@@@std@@@std@@IAEXXZ
_TEXT	SEGMENT
?_Tidy@?$vector@UPersonalShopMap@@V?$allocator@UPersonalShopMap@@@std@@@std@@IAEXXZ PROC ; std::vector<PersonalShopMap,std::allocator<PersonalShopMap> >::_Tidy, COMDAT
; _this$ = ecx

; 1301 : 		{	// free all storage

  00000	56		 push	 esi
  00001	8b f1		 mov	 esi, ecx

; 1302 : 		if (this->_Myfirst != 0)

  00003	8b 06		 mov	 eax, DWORD PTR [esi]
  00005	85 c0		 test	 eax, eax
  00007	74 09		 je	 SHORT $LN6@Tidy

; 1303 : 			{	// something to free, destroy and deallocate it
; 1304 : 			this->_Orphan_all();
; 1305 : 			_Destroy(this->_Myfirst, this->_Mylast);
; 1306 : 			this->_Alval.deallocate(this->_Myfirst,
; 1307 : 				this->_Myend - this->_Myfirst);

  00009	50		 push	 eax
  0000a	e8 00 00 00 00	 call	 ??3@YAXPAX@Z		; operator delete
  0000f	83 c4 04	 add	 esp, 4
$LN6@Tidy:

; 1308 : 			}
; 1309 : 		this->_Myfirst = 0;

  00012	c7 06 00 00 00
	00		 mov	 DWORD PTR [esi], 0

; 1310 : 		this->_Mylast = 0;

  00018	c7 46 04 00 00
	00 00		 mov	 DWORD PTR [esi+4], 0

; 1311 : 		this->_Myend = 0;

  0001f	c7 46 08 00 00
	00 00		 mov	 DWORD PTR [esi+8], 0
  00026	5e		 pop	 esi

; 1312 : 		}

  00027	c3		 ret	 0
?_Tidy@?$vector@UPersonalShopMap@@V?$allocator@UPersonalShopMap@@@std@@@std@@IAEXXZ ENDP ; std::vector<PersonalShopMap,std::allocator<PersonalShopMap> >::_Tidy
_TEXT	ENDS
PUBLIC	?reserve@?$vector@UPersonalShopMap@@V?$allocator@UPersonalShopMap@@@std@@@std@@QAEXI@Z ; std::vector<PersonalShopMap,std::allocator<PersonalShopMap> >::reserve
;	COMDAT xdata$x
; File c:\program files (x86)\microsoft visual studio 10.0\vc\include\xutility
xdata$x	SEGMENT
__catchsym$?reserve@?$vector@UPersonalShopMap@@V?$allocator@UPersonalShopMap@@@std@@@std@@QAEXI@Z$2 DD 040H
	DD	00H
	DD	00H
	DD	FLAT:__catch$?reserve@?$vector@UPersonalShopMap@@V?$allocator@UPersonalShopMap@@@std@@@std@@QAEXI@Z$0
__unwindtable$?reserve@?$vector@UPersonalShopMap@@V?$allocator@UPersonalShopMap@@@std@@@std@@QAEXI@Z DD 0ffffffffH
	DD	00H
	DD	0ffffffffH
	DD	00H
__tryblocktable$?reserve@?$vector@UPersonalShopMap@@V?$allocator@UPersonalShopMap@@@std@@@std@@QAEXI@Z DD 00H
	DD	00H
	DD	01H
	DD	01H
	DD	FLAT:__catchsym$?reserve@?$vector@UPersonalShopMap@@V?$allocator@UPersonalShopMap@@@std@@@std@@QAEXI@Z$2
__ehfuncinfo$?reserve@?$vector@UPersonalShopMap@@V?$allocator@UPersonalShopMap@@@std@@@std@@QAEXI@Z DD 019930522H
	DD	02H
	DD	FLAT:__unwindtable$?reserve@?$vector@UPersonalShopMap@@V?$allocator@UPersonalShopMap@@@std@@@std@@QAEXI@Z
	DD	01H
	DD	FLAT:__tryblocktable$?reserve@?$vector@UPersonalShopMap@@V?$allocator@UPersonalShopMap@@@std@@@std@@QAEXI@Z
	DD	2 DUP(00H)
	DD	00H
	DD	01H
; Function compile flags: /Ogtp
; File c:\program files (x86)\microsoft visual studio 10.0\vc\include\vector
xdata$x	ENDS
;	COMDAT ?reserve@?$vector@UPersonalShopMap@@V?$allocator@UPersonalShopMap@@@std@@@std@@QAEXI@Z
_TEXT	SEGMENT
__Ptr$168769 = -20					; size = 4
__$EHRec$ = -16						; size = 16
__Cat$170401 = 8					; size = 1
__Count$ = 8						; size = 4
?reserve@?$vector@UPersonalShopMap@@V?$allocator@UPersonalShopMap@@@std@@@std@@QAEXI@Z PROC ; std::vector<PersonalShopMap,std::allocator<PersonalShopMap> >::reserve, COMDAT
; _this$ = ecx

; 746  : 		{	// determine new minimum length of allocated storage

  00000	55		 push	 ebp
  00001	8b ec		 mov	 ebp, esp
  00003	6a ff		 push	 -1
  00005	68 00 00 00 00	 push	 __ehhandler$?reserve@?$vector@UPersonalShopMap@@V?$allocator@UPersonalShopMap@@@std@@@std@@QAEXI@Z
  0000a	64 a1 00 00 00
	00		 mov	 eax, DWORD PTR fs:0
  00010	50		 push	 eax
  00011	83 ec 08	 sub	 esp, 8
  00014	53		 push	 ebx
  00015	56		 push	 esi
  00016	57		 push	 edi
  00017	a1 00 00 00 00	 mov	 eax, DWORD PTR ___security_cookie
  0001c	33 c5		 xor	 eax, ebp
  0001e	50		 push	 eax
  0001f	8d 45 f4	 lea	 eax, DWORD PTR __$EHRec$[ebp+4]
  00022	64 a3 00 00 00
	00		 mov	 DWORD PTR fs:0, eax
  00028	89 65 f0	 mov	 DWORD PTR __$EHRec$[ebp], esp
  0002b	8b f1		 mov	 esi, ecx

; 747  : 		if (max_size() < _Count)

  0002d	8b 5d 08	 mov	 ebx, DWORD PTR __Count$[ebp]
  00030	81 fb c4 4e ec
	04		 cmp	 ebx, 82595524		; 04ec4ec4H
  00036	76 0a		 jbe	 SHORT $LN5@reserve

; 748  : 			_Xlen();	// result too long

  00038	68 00 00 00 00	 push	 OFFSET ??_C@_0BD@OLBABOEK@vector?$DMT?$DO?5too?5long?$AA@
  0003d	e8 00 00 00 00	 call	 ?_Xlength_error@std@@YAXPBD@Z ; std::_Xlength_error
$LN42@reserve:
$LN5@reserve:

; 749  : 		else if (capacity() < _Count)

  00042	8b 4e 08	 mov	 ecx, DWORD PTR [esi+8]
  00045	2b 0e		 sub	 ecx, DWORD PTR [esi]
  00047	b8 4f ec c4 4e	 mov	 eax, 1321528399		; 4ec4ec4fH
  0004c	f7 e9		 imul	 ecx
  0004e	c1 fa 04	 sar	 edx, 4
  00051	8b c2		 mov	 eax, edx
  00053	c1 e8 1f	 shr	 eax, 31			; 0000001fH
  00056	03 c2		 add	 eax, edx
  00058	3b c3		 cmp	 eax, ebx
  0005a	73 69		 jae	 SHORT $LN3@reserve

; 750  : 			{	// not enough room, reallocate
; 751  : 			pointer _Ptr = this->_Alval.allocate(_Count);

  0005c	8d 7e 0c	 lea	 edi, DWORD PTR [esi+12]
  0005f	53		 push	 ebx
  00060	8b cf		 mov	 ecx, edi
  00062	e8 00 00 00 00	 call	 ?allocate@?$allocator@UPersonalShopMap@@@std@@QAEPAUPersonalShopMap@@I@Z ; std::allocator<PersonalShopMap>::allocate

; 752  : 
; 753  : 			_TRY_BEGIN
; 754  : 			_Umove(this->_Myfirst, this->_Mylast, _Ptr);

  00067	8b 5d 08	 mov	 ebx, DWORD PTR __Cat$170401[ebp]
  0006a	8b 4e 04	 mov	 ecx, DWORD PTR [esi+4]
  0006d	8b 16		 mov	 edx, DWORD PTR [esi]
  0006f	53		 push	 ebx
  00070	6a 00		 push	 0
  00072	57		 push	 edi
  00073	50		 push	 eax
  00074	51		 push	 ecx
  00075	52		 push	 edx
  00076	89 45 ec	 mov	 DWORD PTR __Ptr$168769[ebp], eax
  00079	c7 45 fc 00 00
	00 00		 mov	 DWORD PTR __$EHRec$[ebp+12], 0
  00080	e8 00 00 00 00	 call	 ??$_Uninit_move@PAUPersonalShopMap@@PAU1@V?$allocator@UPersonalShopMap@@@std@@U1@@std@@YAPAUPersonalShopMap@@PAU1@00AAV?$allocator@UPersonalShopMap@@@0@0U_Nonscalar_ptr_iterator_tag@0@@Z ; std::_Uninit_move<PersonalShopMap *,PersonalShopMap *,std::allocator<PersonalShopMap>,PersonalShopMap>

; 758  : 			_CATCH_END
; 759  : 
; 760  : 			size_type _Size = size();

  00085	8b 1e		 mov	 ebx, DWORD PTR [esi]
  00087	8b 4e 04	 mov	 ecx, DWORD PTR [esi+4]
  0008a	2b cb		 sub	 ecx, ebx
  0008c	b8 4f ec c4 4e	 mov	 eax, 1321528399		; 4ec4ec4fH
  00091	f7 e9		 imul	 ecx
  00093	c1 fa 04	 sar	 edx, 4
  00096	8b fa		 mov	 edi, edx
  00098	c1 ef 1f	 shr	 edi, 31			; 0000001fH
  0009b	83 c4 18	 add	 esp, 24			; 00000018H
  0009e	03 fa		 add	 edi, edx

; 761  : 			if (this->_Myfirst != 0)

  000a0	85 db		 test	 ebx, ebx
  000a2	74 09		 je	 SHORT $LN35@reserve

; 762  : 				{	// destroy and deallocate old array
; 763  : 				_Destroy(this->_Myfirst, this->_Mylast);
; 764  : 				this->_Alval.deallocate(this->_Myfirst,
; 765  : 					this->_Myend - this->_Myfirst);

  000a4	53		 push	 ebx
  000a5	e8 00 00 00 00	 call	 ??3@YAXPAX@Z		; operator delete
  000aa	83 c4 04	 add	 esp, 4
$LN35@reserve:

; 766  : 				}
; 767  : 
; 768  : 			this->_Orphan_all();
; 769  : 			this->_Myend = _Ptr + _Count;

  000ad	8b 45 08	 mov	 eax, DWORD PTR __Count$[ebp]

; 770  : 			this->_Mylast = _Ptr + _Size;

  000b0	6b ff 34	 imul	 edi, 52			; 00000034H
  000b3	8b 4d ec	 mov	 ecx, DWORD PTR __Ptr$168769[ebp]
  000b6	6b c0 34	 imul	 eax, 52			; 00000034H
  000b9	03 c1		 add	 eax, ecx
  000bb	03 f9		 add	 edi, ecx
  000bd	89 46 08	 mov	 DWORD PTR [esi+8], eax
  000c0	89 7e 04	 mov	 DWORD PTR [esi+4], edi

; 771  : 			this->_Myfirst = _Ptr;

  000c3	89 0e		 mov	 DWORD PTR [esi], ecx
$LN3@reserve:

; 772  : 			}
; 773  : 		}

  000c5	8b 4d f4	 mov	 ecx, DWORD PTR __$EHRec$[ebp+4]
  000c8	64 89 0d 00 00
	00 00		 mov	 DWORD PTR fs:0, ecx
  000cf	59		 pop	 ecx
  000d0	5f		 pop	 edi
  000d1	5e		 pop	 esi
  000d2	5b		 pop	 ebx
  000d3	8b e5		 mov	 esp, ebp
  000d5	5d		 pop	 ebp
  000d6	c2 04 00	 ret	 4
__catch$?reserve@?$vector@UPersonalShopMap@@V?$allocator@UPersonalShopMap@@@std@@@std@@QAEXI@Z$0:

; 755  : 			_CATCH_ALL
; 756  : 			this->_Alval.deallocate(_Ptr, _Count);

  000d9	8b 4d ec	 mov	 ecx, DWORD PTR __Ptr$168769[ebp]
  000dc	51		 push	 ecx
  000dd	e8 00 00 00 00	 call	 ??3@YAXPAX@Z		; operator delete
  000e2	83 c4 04	 add	 esp, 4

; 757  : 			_RERAISE;

  000e5	6a 00		 push	 0
  000e7	6a 00		 push	 0
  000e9	e8 00 00 00 00	 call	 __CxxThrowException@8
$LN43@reserve:
$LN41@reserve:
  000ee	cc		 int	 3
_TEXT	ENDS
;	COMDAT text$x
text$x	SEGMENT
__ehhandler$?reserve@?$vector@UPersonalShopMap@@V?$allocator@UPersonalShopMap@@@std@@@std@@QAEXI@Z:
  00000	8b 54 24 08	 mov	 edx, DWORD PTR [esp+8]
  00004	8d 42 0c	 lea	 eax, DWORD PTR [edx+12]
  00007	8b 4a e8	 mov	 ecx, DWORD PTR [edx-24]
  0000a	33 c8		 xor	 ecx, eax
  0000c	e8 00 00 00 00	 call	 @__security_check_cookie@4
  00011	b8 00 00 00 00	 mov	 eax, OFFSET __ehfuncinfo$?reserve@?$vector@UPersonalShopMap@@V?$allocator@UPersonalShopMap@@@std@@@std@@QAEXI@Z
  00016	e9 00 00 00 00	 jmp	 ___CxxFrameHandler3
text$x	ENDS
?reserve@?$vector@UPersonalShopMap@@V?$allocator@UPersonalShopMap@@@std@@@std@@QAEXI@Z ENDP ; std::vector<PersonalShopMap,std::allocator<PersonalShopMap> >::reserve
PUBLIC	??1?$vector@UPersonalShopMap@@V?$allocator@UPersonalShopMap@@@std@@@std@@QAE@XZ ; std::vector<PersonalShopMap,std::allocator<PersonalShopMap> >::~vector<PersonalShopMap,std::allocator<PersonalShopMap> >
; Function compile flags: /Ogtp
;	COMDAT ??1?$vector@UPersonalShopMap@@V?$allocator@UPersonalShopMap@@@std@@@std@@QAE@XZ
_TEXT	SEGMENT
??1?$vector@UPersonalShopMap@@V?$allocator@UPersonalShopMap@@@std@@@std@@QAE@XZ PROC ; std::vector<PersonalShopMap,std::allocator<PersonalShopMap> >::~vector<PersonalShopMap,std::allocator<PersonalShopMap> >, COMDAT
; _this$ = ecx

; 704  : 		{	// destroy the object

  00000	56		 push	 esi
  00001	8b f1		 mov	 esi, ecx

; 705  : 		_Tidy();

  00003	8b 06		 mov	 eax, DWORD PTR [esi]
  00005	85 c0		 test	 eax, eax
  00007	74 09		 je	 SHORT $LN8@vector@2
  00009	50		 push	 eax
  0000a	e8 00 00 00 00	 call	 ??3@YAXPAX@Z		; operator delete
  0000f	83 c4 04	 add	 esp, 4
$LN8@vector@2:
  00012	c7 06 00 00 00
	00		 mov	 DWORD PTR [esi], 0
  00018	c7 46 04 00 00
	00 00		 mov	 DWORD PTR [esi+4], 0
  0001f	c7 46 08 00 00
	00 00		 mov	 DWORD PTR [esi+8], 0
  00026	5e		 pop	 esi

; 706  : 		}

  00027	c3		 ret	 0
??1?$vector@UPersonalShopMap@@V?$allocator@UPersonalShopMap@@@std@@@std@@QAE@XZ ENDP ; std::vector<PersonalShopMap,std::allocator<PersonalShopMap> >::~vector<PersonalShopMap,std::allocator<PersonalShopMap> >
_TEXT	ENDS
PUBLIC	?clear@?$vector@UPersonalShopMap@@V?$allocator@UPersonalShopMap@@@std@@@std@@QAEXXZ ; std::vector<PersonalShopMap,std::allocator<PersonalShopMap> >::clear
; Function compile flags: /Ogtp
;	COMDAT ?clear@?$vector@UPersonalShopMap@@V?$allocator@UPersonalShopMap@@@std@@@std@@QAEXXZ
_TEXT	SEGMENT
_this$ = -4						; size = 4
?clear@?$vector@UPersonalShopMap@@V?$allocator@UPersonalShopMap@@@std@@@std@@QAEXXZ PROC ; std::vector<PersonalShopMap,std::allocator<PersonalShopMap> >::clear, COMDAT
; _this$ = ecx

; 1217 : 		{	// erase all

  00000	55		 push	 ebp
  00001	8b ec		 mov	 ebp, esp
  00003	51		 push	 ecx

; 1218 : 		erase(begin(), end());

  00004	8b 51 04	 mov	 edx, DWORD PTR [ecx+4]
  00007	53		 push	 ebx
  00008	8b 19		 mov	 ebx, DWORD PTR [ecx]
  0000a	89 4d fc	 mov	 DWORD PTR _this$[ebp], ecx
  0000d	3b da		 cmp	 ebx, edx
  0000f	74 2c		 je	 SHORT $LN19@clear
  00011	8b c2		 mov	 eax, edx
  00013	3b d2		 cmp	 edx, edx
  00015	74 23		 je	 SHORT $LN48@clear
  00017	56		 push	 esi
  00018	57		 push	 edi
  00019	8d a4 24 00 00
	00 00		 npad	 7
$LL50@clear:
  00020	8b f0		 mov	 esi, eax
  00022	8b fb		 mov	 edi, ebx
  00024	83 c0 34	 add	 eax, 52			; 00000034H
  00027	b9 0d 00 00 00	 mov	 ecx, 13			; 0000000dH
  0002c	83 c3 34	 add	 ebx, 52			; 00000034H
  0002f	f3 a5		 rep movsd
  00031	3b c2		 cmp	 eax, edx
  00033	75 eb		 jne	 SHORT $LL50@clear
  00035	8b 4d fc	 mov	 ecx, DWORD PTR _this$[ebp]
  00038	5f		 pop	 edi
  00039	5e		 pop	 esi
$LN48@clear:
  0003a	89 59 04	 mov	 DWORD PTR [ecx+4], ebx
$LN19@clear:
  0003d	5b		 pop	 ebx

; 1219 : 		}

  0003e	8b e5		 mov	 esp, ebp
  00040	5d		 pop	 ebp
  00041	c3		 ret	 0
?clear@?$vector@UPersonalShopMap@@V?$allocator@UPersonalShopMap@@@std@@@std@@QAEXXZ ENDP ; std::vector<PersonalShopMap,std::allocator<PersonalShopMap> >::clear
_TEXT	ENDS
PUBLIC	?_Reserve@?$vector@UPersonalShopMap@@V?$allocator@UPersonalShopMap@@@std@@@std@@IAEXI@Z ; std::vector<PersonalShopMap,std::allocator<PersonalShopMap> >::_Reserve
; Function compile flags: /Ogtp
;	COMDAT ?_Reserve@?$vector@UPersonalShopMap@@V?$allocator@UPersonalShopMap@@@std@@@std@@IAEXI@Z
_TEXT	SEGMENT
__Count$ = 8						; size = 4
?_Reserve@?$vector@UPersonalShopMap@@V?$allocator@UPersonalShopMap@@@std@@@std@@IAEXI@Z PROC ; std::vector<PersonalShopMap,std::allocator<PersonalShopMap> >::_Reserve, COMDAT
; _this$ = ecx

; 1290 : 		{	// ensure room for _Count new elements, grow exponentially

  00000	55		 push	 ebp
  00001	8b ec		 mov	 ebp, esp

; 1291 : 		size_type _Size = size();

  00003	8b 51 04	 mov	 edx, DWORD PTR [ecx+4]
  00006	56		 push	 esi
  00007	57		 push	 edi
  00008	8b 39		 mov	 edi, DWORD PTR [ecx]
  0000a	2b d7		 sub	 edx, edi
  0000c	b8 4f ec c4 4e	 mov	 eax, 1321528399		; 4ec4ec4fH
  00011	f7 ea		 imul	 edx

; 1292 : 		if (max_size() - _Count < _Size)

  00013	8b 45 08	 mov	 eax, DWORD PTR __Count$[ebp]
  00016	c1 fa 04	 sar	 edx, 4
  00019	8b f2		 mov	 esi, edx
  0001b	c1 ee 1f	 shr	 esi, 31			; 0000001fH
  0001e	03 f2		 add	 esi, edx
  00020	ba c4 4e ec 04	 mov	 edx, 82595524		; 04ec4ec4H
  00025	2b d0		 sub	 edx, eax
  00027	3b d6		 cmp	 edx, esi
  00029	73 0a		 jae	 SHORT $LN4@Reserve

; 1293 : 			_Xlen();

  0002b	68 00 00 00 00	 push	 OFFSET ??_C@_0BD@OLBABOEK@vector?$DMT?$DO?5too?5long?$AA@
  00030	e8 00 00 00 00	 call	 ?_Xlength_error@std@@YAXPBD@Z ; std::_Xlength_error
$LN34@Reserve:
$LN4@Reserve:

; 1294 : 		else if ((_Size += _Count) <= capacity())

  00035	8b 51 08	 mov	 edx, DWORD PTR [ecx+8]
  00038	03 f0		 add	 esi, eax
  0003a	2b d7		 sub	 edx, edi
  0003c	b8 4f ec c4 4e	 mov	 eax, 1321528399		; 4ec4ec4fH
  00041	f7 ea		 imul	 edx
  00043	c1 fa 04	 sar	 edx, 4
  00046	8b c2		 mov	 eax, edx
  00048	c1 e8 1f	 shr	 eax, 31			; 0000001fH
  0004b	03 c2		 add	 eax, edx
  0004d	3b f0		 cmp	 esi, eax
  0004f	76 21		 jbe	 SHORT $LN1@Reserve

; 1295 : 			;
; 1296 : 		else
; 1297 : 			reserve(_Grow_to(_Size));

  00051	8b d0		 mov	 edx, eax
  00053	d1 ea		 shr	 edx, 1
  00055	bf c4 4e ec 04	 mov	 edi, 82595524		; 04ec4ec4H
  0005a	2b fa		 sub	 edi, edx
  0005c	3b f8		 cmp	 edi, eax
  0005e	73 04		 jae	 SHORT $LN23@Reserve
  00060	33 c0		 xor	 eax, eax
  00062	eb 02		 jmp	 SHORT $LN24@Reserve
$LN23@Reserve:
  00064	03 c2		 add	 eax, edx
$LN24@Reserve:
  00066	3b c6		 cmp	 eax, esi
  00068	73 02		 jae	 SHORT $LN20@Reserve
  0006a	8b c6		 mov	 eax, esi
$LN20@Reserve:
  0006c	50		 push	 eax
  0006d	e8 00 00 00 00	 call	 ?reserve@?$vector@UPersonalShopMap@@V?$allocator@UPersonalShopMap@@@std@@@std@@QAEXI@Z ; std::vector<PersonalShopMap,std::allocator<PersonalShopMap> >::reserve
$LN1@Reserve:
  00072	5f		 pop	 edi
  00073	5e		 pop	 esi

; 1298 : 		}

  00074	5d		 pop	 ebp
  00075	c2 04 00	 ret	 4
$LN33@Reserve:
?_Reserve@?$vector@UPersonalShopMap@@V?$allocator@UPersonalShopMap@@@std@@@std@@IAEXI@Z ENDP ; std::vector<PersonalShopMap,std::allocator<PersonalShopMap> >::_Reserve
_TEXT	ENDS
PUBLIC	??_7PersonalShopMapping@@6B@			; PersonalShopMapping::`vftable'
PUBLIC	??1PersonalShopMapping@@UAE@XZ			; PersonalShopMapping::~PersonalShopMapping
PUBLIC	??_R4PersonalShopMapping@@6B@			; PersonalShopMapping::`RTTI Complete Object Locator'
PUBLIC	??_R0?AVPersonalShopMapping@@@8			; PersonalShopMapping `RTTI Type Descriptor'
PUBLIC	??_R3PersonalShopMapping@@8			; PersonalShopMapping::`RTTI Class Hierarchy Descriptor'
PUBLIC	??_R2PersonalShopMapping@@8			; PersonalShopMapping::`RTTI Base Class Array'
PUBLIC	??_R1A@?0A@EA@PersonalShopMapping@@8		; PersonalShopMapping::`RTTI Base Class Descriptor at (0,-1,0,64)'
EXTRN	??_EPersonalShopMapping@@UAEPAXI@Z:PROC		; PersonalShopMapping::`vector deleting destructor'
;	COMDAT ??_R1A@?0A@EA@PersonalShopMapping@@8
rdata$r	SEGMENT
??_R1A@?0A@EA@PersonalShopMapping@@8 DD FLAT:??_R0?AVPersonalShopMapping@@@8 ; PersonalShopMapping::`RTTI Base Class Descriptor at (0,-1,0,64)'
	DD	00H
	DD	00H
	DD	0ffffffffH
	DD	00H
	DD	040H
	DD	FLAT:??_R3PersonalShopMapping@@8
rdata$r	ENDS
;	COMDAT ??_R2PersonalShopMapping@@8
rdata$r	SEGMENT
??_R2PersonalShopMapping@@8 DD FLAT:??_R1A@?0A@EA@PersonalShopMapping@@8 ; PersonalShopMapping::`RTTI Base Class Array'
rdata$r	ENDS
;	COMDAT ??_R3PersonalShopMapping@@8
rdata$r	SEGMENT
??_R3PersonalShopMapping@@8 DD 00H			; PersonalShopMapping::`RTTI Class Hierarchy Descriptor'
	DD	00H
	DD	01H
	DD	FLAT:??_R2PersonalShopMapping@@8
rdata$r	ENDS
;	COMDAT ??_R0?AVPersonalShopMapping@@@8
_DATA	SEGMENT
??_R0?AVPersonalShopMapping@@@8 DD FLAT:??_7type_info@@6B@ ; PersonalShopMapping `RTTI Type Descriptor'
	DD	00H
	DB	'.?AVPersonalShopMapping@@', 00H
_DATA	ENDS
;	COMDAT ??_R4PersonalShopMapping@@6B@
rdata$r	SEGMENT
??_R4PersonalShopMapping@@6B@ DD 00H			; PersonalShopMapping::`RTTI Complete Object Locator'
	DD	00H
	DD	00H
	DD	FLAT:??_R0?AVPersonalShopMapping@@@8
	DD	FLAT:??_R3PersonalShopMapping@@8
rdata$r	ENDS
;	COMDAT ??_7PersonalShopMapping@@6B@
CONST	SEGMENT
??_7PersonalShopMapping@@6B@ DD FLAT:??_R4PersonalShopMapping@@6B@ ; PersonalShopMapping::`vftable'
	DD	FLAT:??_EPersonalShopMapping@@UAEPAXI@Z
; Function compile flags: /Ogtp
; File c:\muserver_dev\development\mu-s8ep2-repack\gameserver\source\personalshopmapping.cpp
CONST	ENDS
;	COMDAT ??1PersonalShopMapping@@UAE@XZ
_TEXT	SEGMENT
??1PersonalShopMapping@@UAE@XZ PROC			; PersonalShopMapping::~PersonalShopMapping, COMDAT
; _this$ = ecx

; 16   : {

  00000	56		 push	 esi
  00001	8b f1		 mov	 esi, ecx
  00003	c7 06 00 00 00
	00		 mov	 DWORD PTR [esi], OFFSET ??_7PersonalShopMapping@@6B@

; 17   : 
; 18   : }

  00009	8b 46 08	 mov	 eax, DWORD PTR [esi+8]
  0000c	85 c0		 test	 eax, eax
  0000e	74 09		 je	 SHORT $LN11@PersonalSh
  00010	50		 push	 eax
  00011	e8 00 00 00 00	 call	 ??3@YAXPAX@Z		; operator delete
  00016	83 c4 04	 add	 esp, 4
$LN11@PersonalSh:
  00019	c7 46 08 00 00
	00 00		 mov	 DWORD PTR [esi+8], 0
  00020	c7 46 0c 00 00
	00 00		 mov	 DWORD PTR [esi+12], 0
  00027	c7 46 10 00 00
	00 00		 mov	 DWORD PTR [esi+16], 0
  0002e	5e		 pop	 esi
  0002f	c3		 ret	 0
??1PersonalShopMapping@@UAE@XZ ENDP			; PersonalShopMapping::~PersonalShopMapping
_TEXT	ENDS
PUBLIC	?Init@PersonalShopMapping@@QAEXXZ		; PersonalShopMapping::Init
; Function compile flags: /Ogtp
;	COMDAT ?Init@PersonalShopMapping@@QAEXXZ
_TEXT	SEGMENT
_this$ = -4						; size = 4
?Init@PersonalShopMapping@@QAEXXZ PROC			; PersonalShopMapping::Init, COMDAT
; _this$ = ecx

; 21   : {

  00000	55		 push	 ebp
  00001	8b ec		 mov	 ebp, esp
  00003	51		 push	 ecx

; 22   : 	this->maps.clear();

  00004	8b 51 0c	 mov	 edx, DWORD PTR [ecx+12]
  00007	53		 push	 ebx
  00008	8b 59 08	 mov	 ebx, DWORD PTR [ecx+8]
  0000b	89 4d fc	 mov	 DWORD PTR _this$[ebp], ecx
  0000e	3b da		 cmp	 ebx, edx
  00010	74 2b		 je	 SHORT $LN67@Init
  00012	8b c2		 mov	 eax, edx
  00014	3b d2		 cmp	 edx, edx
  00016	74 22		 je	 SHORT $LN50@Init
  00018	56		 push	 esi
  00019	57		 push	 edi
  0001a	8d 9b 00 00 00
	00		 npad	 6
$LL52@Init:
  00020	8b f0		 mov	 esi, eax
  00022	8b fb		 mov	 edi, ebx
  00024	83 c0 34	 add	 eax, 52			; 00000034H
  00027	b9 0d 00 00 00	 mov	 ecx, 13			; 0000000dH
  0002c	83 c3 34	 add	 ebx, 52			; 00000034H
  0002f	f3 a5		 rep movsd
  00031	3b c2		 cmp	 eax, edx
  00033	75 eb		 jne	 SHORT $LL52@Init
  00035	8b 4d fc	 mov	 ecx, DWORD PTR _this$[ebp]
  00038	5f		 pop	 edi
  00039	5e		 pop	 esi
$LN50@Init:
  0003a	89 59 0c	 mov	 DWORD PTR [ecx+12], ebx
$LN67@Init:

; 23   : 	this->allmaps	=	true;

  0003d	66 c7 41 04 01
	01		 mov	 WORD PTR [ecx+4], 257	; 00000101H
  00043	5b		 pop	 ebx

; 24   : 	this->enabled	=	true;
; 25   : }

  00044	8b e5		 mov	 esp, ebp
  00046	5d		 pop	 ebp
  00047	c3		 ret	 0
?Init@PersonalShopMapping@@QAEXXZ ENDP			; PersonalShopMapping::Init
_TEXT	ENDS
PUBLIC	?push_back@?$vector@UPersonalShopMap@@V?$allocator@UPersonalShopMap@@@std@@@std@@QAEXABUPersonalShopMap@@@Z ; std::vector<PersonalShopMap,std::allocator<PersonalShopMap> >::push_back
; Function compile flags: /Ogtp
; File c:\program files (x86)\microsoft visual studio 10.0\vc\include\vector
;	COMDAT ?push_back@?$vector@UPersonalShopMap@@V?$allocator@UPersonalShopMap@@@std@@@std@@QAEXABUPersonalShopMap@@@Z
_TEXT	SEGMENT
__Val$ = 8						; size = 4
?push_back@?$vector@UPersonalShopMap@@V?$allocator@UPersonalShopMap@@@std@@@std@@QAEXABUPersonalShopMap@@@Z PROC ; std::vector<PersonalShopMap,std::allocator<PersonalShopMap> >::push_back, COMDAT
; _this$ = ecx

; 976  : 		{	// insert element at end

  00000	55		 push	 ebp
  00001	8b ec		 mov	 ebp, esp
  00003	56		 push	 esi
  00004	8b f1		 mov	 esi, ecx

; 977  : 		if (_Inside(_STD addressof(_Val)))

  00006	8b 4e 04	 mov	 ecx, DWORD PTR [esi+4]
  00009	57		 push	 edi
  0000a	8b 7d 08	 mov	 edi, DWORD PTR __Val$[ebp]
  0000d	3b f9		 cmp	 edi, ecx
  0000f	73 47		 jae	 SHORT $LN4@push_back
  00011	8b 06		 mov	 eax, DWORD PTR [esi]
  00013	3b c7		 cmp	 eax, edi
  00015	77 41		 ja	 SHORT $LN4@push_back

; 978  : 			{	// push back an element
; 979  : 			size_type _Idx = _STD addressof(_Val) - this->_Myfirst;

  00017	2b f8		 sub	 edi, eax
  00019	b8 4f ec c4 4e	 mov	 eax, 1321528399		; 4ec4ec4fH
  0001e	f7 ef		 imul	 edi
  00020	c1 fa 04	 sar	 edx, 4
  00023	8b fa		 mov	 edi, edx
  00025	c1 ef 1f	 shr	 edi, 31			; 0000001fH
  00028	03 fa		 add	 edi, edx

; 980  : 			if (this->_Mylast == this->_Myend)

  0002a	3b 4e 08	 cmp	 ecx, DWORD PTR [esi+8]
  0002d	75 09		 jne	 SHORT $LN3@push_back

; 981  : 				_Reserve(1);

  0002f	6a 01		 push	 1
  00031	8b ce		 mov	 ecx, esi
  00033	e8 00 00 00 00	 call	 ?_Reserve@?$vector@UPersonalShopMap@@V?$allocator@UPersonalShopMap@@@std@@@std@@IAEXI@Z ; std::vector<PersonalShopMap,std::allocator<PersonalShopMap> >::_Reserve
$LN3@push_back:

; 982  : 			_Orphan_range(this->_Mylast, this->_Mylast);
; 983  : 			_Cons_val(this->_Alval,
; 984  : 				this->_Mylast,
; 985  : 				this->_Myfirst[_Idx]);

  00038	8b 46 04	 mov	 eax, DWORD PTR [esi+4]
  0003b	6b ff 34	 imul	 edi, 52			; 00000034H
  0003e	03 3e		 add	 edi, DWORD PTR [esi]
  00040	8d 4e 0c	 lea	 ecx, DWORD PTR [esi+12]
  00043	57		 push	 edi
  00044	50		 push	 eax
  00045	51		 push	 ecx
  00046	e8 00 00 00 00	 call	 ??$_Cons_val@V?$allocator@UPersonalShopMap@@@std@@UPersonalShopMap@@AAU3@@std@@YAXAAV?$allocator@UPersonalShopMap@@@0@PAUPersonalShopMap@@AAU2@@Z ; std::_Cons_val<std::allocator<PersonalShopMap>,PersonalShopMap,PersonalShopMap &>

; 992  : 			_Orphan_range(this->_Mylast, this->_Mylast);
; 993  : 			_Cons_val(this->_Alval,
; 994  : 				this->_Mylast,
; 995  : 				_Val);

  0004b	83 c4 0c	 add	 esp, 12			; 0000000cH

; 996  : 			++this->_Mylast;

  0004e	83 46 04 34	 add	 DWORD PTR [esi+4], 52	; 00000034H
  00052	5f		 pop	 edi
  00053	5e		 pop	 esi

; 997  : 			}
; 998  : 		}

  00054	5d		 pop	 ebp
  00055	c2 04 00	 ret	 4
$LN4@push_back:

; 986  : 			++this->_Mylast;
; 987  : 			}
; 988  : 		else
; 989  : 			{	// push back a non-element
; 990  : 			if (this->_Mylast == this->_Myend)

  00058	3b 4e 08	 cmp	 ecx, DWORD PTR [esi+8]
  0005b	75 09		 jne	 SHORT $LN1@push_back

; 991  : 				_Reserve(1);

  0005d	6a 01		 push	 1
  0005f	8b ce		 mov	 ecx, esi
  00061	e8 00 00 00 00	 call	 ?_Reserve@?$vector@UPersonalShopMap@@V?$allocator@UPersonalShopMap@@@std@@@std@@IAEXI@Z ; std::vector<PersonalShopMap,std::allocator<PersonalShopMap> >::_Reserve
$LN1@push_back:

; 992  : 			_Orphan_range(this->_Mylast, this->_Mylast);
; 993  : 			_Cons_val(this->_Alval,
; 994  : 				this->_Mylast,
; 995  : 				_Val);

  00066	8b 56 04	 mov	 edx, DWORD PTR [esi+4]
  00069	57		 push	 edi
  0006a	52		 push	 edx
  0006b	8d 46 0c	 lea	 eax, DWORD PTR [esi+12]
  0006e	50		 push	 eax
  0006f	e8 00 00 00 00	 call	 ??$_Cons_val@V?$allocator@UPersonalShopMap@@@std@@UPersonalShopMap@@ABU3@@std@@YAXAAV?$allocator@UPersonalShopMap@@@0@PAUPersonalShopMap@@ABU2@@Z ; std::_Cons_val<std::allocator<PersonalShopMap>,PersonalShopMap,PersonalShopMap const &>
  00074	83 c4 0c	 add	 esp, 12			; 0000000cH

; 996  : 			++this->_Mylast;

  00077	83 46 04 34	 add	 DWORD PTR [esi+4], 52	; 00000034H
  0007b	5f		 pop	 edi
  0007c	5e		 pop	 esi

; 997  : 			}
; 998  : 		}

  0007d	5d		 pop	 ebp
  0007e	c2 04 00	 ret	 4
?push_back@?$vector@UPersonalShopMap@@V?$allocator@UPersonalShopMap@@@std@@@std@@QAEXABUPersonalShopMap@@@Z ENDP ; std::vector<PersonalShopMap,std::allocator<PersonalShopMap> >::push_back
; Function compile flags: /Ogtp
_TEXT	ENDS
;	COMDAT ??_GPersonalShopMapping@@UAEPAXI@Z
_TEXT	SEGMENT
___flags$ = 8						; size = 4
??_GPersonalShopMapping@@UAEPAXI@Z PROC			; PersonalShopMapping::`scalar deleting destructor', COMDAT
; _this$ = ecx
  00000	55		 push	 ebp
  00001	8b ec		 mov	 ebp, esp
  00003	56		 push	 esi
  00004	8b f1		 mov	 esi, ecx
  00006	e8 00 00 00 00	 call	 ??1PersonalShopMapping@@UAE@XZ ; PersonalShopMapping::~PersonalShopMapping
  0000b	f6 45 08 01	 test	 BYTE PTR ___flags$[ebp], 1
  0000f	74 09		 je	 SHORT $LN4@scalar@2
  00011	56		 push	 esi
  00012	e8 00 00 00 00	 call	 ??3@YAXPAX@Z		; operator delete
  00017	83 c4 04	 add	 esp, 4
$LN4@scalar@2:
  0001a	8b c6		 mov	 eax, esi
  0001c	5e		 pop	 esi
  0001d	5d		 pop	 ebp
  0001e	c2 04 00	 ret	 4
??_GPersonalShopMapping@@UAEPAXI@Z ENDP			; PersonalShopMapping::`scalar deleting destructor'
_TEXT	ENDS
PUBLIC	??_C@_00CNPNBAHC@?$AA@				; `string'
PUBLIC	??_C@_02EGCJHIOB@id?$AA@			; `string'
PUBLIC	??_C@_03HBNNNHNM@map?$AA@			; `string'
PUBLIC	??_C@_07PANIJHFC@maplist?$AA@			; `string'
PUBLIC	??_C@_07HGHAIPM@allmaps?$AA@			; `string'
PUBLIC	??_C@_07MHHIKOPA@enabled?$AA@			; `string'
PUBLIC	??_C@_06CDKFANED@pstore?$AA@			; `string'
PUBLIC	??_C@_0CI@FPAONEGA@?$FLPersonalShopMapping?$FN?5file?5?$CFs?5no@ ; `string'
PUBLIC	__$ArrayPad$
PUBLIC	?Read@PersonalShopMapping@@QAEXPAD@Z		; PersonalShopMapping::Read
EXTRN	??1xml_document@pugi@@QAE@XZ:PROC		; pugi::xml_document::~xml_document
EXTRN	?next_sibling@xml_node@pugi@@QBE?AV12@XZ:PROC	; pugi::xml_node::next_sibling
EXTRN	?as_string@xml_text@pugi@@QBEPBDPBD@Z:PROC	; pugi::xml_text::as_string
EXTRN	?as_int@xml_attribute@pugi@@QBEHH@Z:PROC	; pugi::xml_attribute::as_int
EXTRN	?attribute@xml_node@pugi@@QBE?AVxml_attribute@2@PBD@Z:PROC ; pugi::xml_node::attribute
EXTRN	??Bxml_node@pugi@@QBEP6AXPAPAPAV01@@ZXZ:PROC	; pugi::xml_node::operator void (__cdecl*)(pugi::xml_node * * *)
EXTRN	??0xml_node@pugi@@QAE@XZ:PROC			; pugi::xml_node::xml_node
EXTRN	?as_int@xml_text@pugi@@QBEHH@Z:PROC		; pugi::xml_text::as_int
EXTRN	?text@xml_node@pugi@@QBE?AVxml_text@2@XZ:PROC	; pugi::xml_node::text
EXTRN	?child@xml_node@pugi@@QBE?AV12@PBD@Z:PROC	; pugi::xml_node::child
EXTRN	?MsgBox@@YAXPADZZ:PROC				; MsgBox
EXTRN	?load_file@xml_document@pugi@@QAE?AUxml_parse_result@2@PBDIW4xml_encoding@2@@Z:PROC ; pugi::xml_document::load_file
EXTRN	??0xml_document@pugi@@QAE@XZ:PROC		; pugi::xml_document::xml_document
;	COMDAT ??_C@_00CNPNBAHC@?$AA@
; File c:\muserver_dev\development\mu-s8ep2-repack\gameserver\source\personalshopmapping.cpp
CONST	SEGMENT
??_C@_00CNPNBAHC@?$AA@ DB 00H				; `string'
CONST	ENDS
;	COMDAT ??_C@_02EGCJHIOB@id?$AA@
CONST	SEGMENT
??_C@_02EGCJHIOB@id?$AA@ DB 'id', 00H			; `string'
CONST	ENDS
;	COMDAT ??_C@_03HBNNNHNM@map?$AA@
CONST	SEGMENT
??_C@_03HBNNNHNM@map?$AA@ DB 'map', 00H			; `string'
CONST	ENDS
;	COMDAT ??_C@_07PANIJHFC@maplist?$AA@
CONST	SEGMENT
??_C@_07PANIJHFC@maplist?$AA@ DB 'maplist', 00H		; `string'
CONST	ENDS
;	COMDAT ??_C@_07HGHAIPM@allmaps?$AA@
CONST	SEGMENT
??_C@_07HGHAIPM@allmaps?$AA@ DB 'allmaps', 00H		; `string'
CONST	ENDS
;	COMDAT ??_C@_07MHHIKOPA@enabled?$AA@
CONST	SEGMENT
??_C@_07MHHIKOPA@enabled?$AA@ DB 'enabled', 00H		; `string'
CONST	ENDS
;	COMDAT ??_C@_06CDKFANED@pstore?$AA@
CONST	SEGMENT
??_C@_06CDKFANED@pstore?$AA@ DB 'pstore', 00H		; `string'
CONST	ENDS
;	COMDAT ??_C@_0CI@FPAONEGA@?$FLPersonalShopMapping?$FN?5file?5?$CFs?5no@
CONST	SEGMENT
??_C@_0CI@FPAONEGA@?$FLPersonalShopMapping?$FN?5file?5?$CFs?5no@ DB '[Per'
	DB	'sonalShopMapping] file %s not found', 00H	; `string'
CONST	ENDS
;	COMDAT xdata$x
xdata$x	SEGMENT
__unwindtable$?Read@PersonalShopMapping@@QAEXPAD@Z DD 0ffffffffH
	DD	FLAT:__unwindfunclet$?Read@PersonalShopMapping@@QAEXPAD@Z$0
__ehfuncinfo$?Read@PersonalShopMapping@@QAEXPAD@Z DD 019930522H
	DD	01H
	DD	FLAT:__unwindtable$?Read@PersonalShopMapping@@QAEXPAD@Z
	DD	2 DUP(00H)
	DD	2 DUP(00H)
	DD	00H
	DD	01H
; Function compile flags: /Ogtp
xdata$x	ENDS
;	COMDAT ?Read@PersonalShopMapping@@QAEXPAD@Z
_TEXT	SEGMENT
_doc_result$ = -308					; size = 12
$T171137 = -296						; size = 4
$T171134 = -292						; size = 4
_maplist$ = -288					; size = 4
$T171136 = -284						; size = 4
$T171131 = -284						; size = 4
$T171130 = -284						; size = 4
_pstore$ = -280						; size = 4
$T171135 = -276						; size = 4
$T171133 = -276						; size = 4
$T171132 = -276						; size = 4
$T171129 = -276						; size = 4
_node$ = -272						; size = 4
_doc$ = -268						; size = 200
_current$168449 = -68					; size = 52
__$ArrayPad$ = -16					; size = 4
__$EHRec$ = -12						; size = 12
_file$ = 8						; size = 4
?Read@PersonalShopMapping@@QAEXPAD@Z PROC		; PersonalShopMapping::Read, COMDAT
; _this$ = ecx

; 37   : {

  00000	55		 push	 ebp
  00001	8b ec		 mov	 ebp, esp
  00003	6a ff		 push	 -1
  00005	68 00 00 00 00	 push	 __ehhandler$?Read@PersonalShopMapping@@QAEXPAD@Z
  0000a	64 a1 00 00 00
	00		 mov	 eax, DWORD PTR fs:0
  00010	50		 push	 eax
  00011	81 ec 28 01 00
	00		 sub	 esp, 296		; 00000128H
  00017	a1 00 00 00 00	 mov	 eax, DWORD PTR ___security_cookie
  0001c	33 c5		 xor	 eax, ebp
  0001e	89 45 f0	 mov	 DWORD PTR __$ArrayPad$[ebp], eax
  00021	56		 push	 esi
  00022	57		 push	 edi
  00023	50		 push	 eax
  00024	8d 45 f4	 lea	 eax, DWORD PTR __$EHRec$[ebp]
  00027	64 a3 00 00 00
	00		 mov	 DWORD PTR fs:0, eax
  0002d	8b 7d 08	 mov	 edi, DWORD PTR _file$[ebp]
  00030	8b f1		 mov	 esi, ecx

; 38   : 	xml_document doc;

  00032	8d 8d f4 fe ff
	ff		 lea	 ecx, DWORD PTR _doc$[ebp]
  00038	e8 00 00 00 00	 call	 ??0xml_document@pugi@@QAE@XZ ; pugi::xml_document::xml_document

; 39   : 	xml_parse_result doc_result	=	doc.load_file(file);

  0003d	6a 00		 push	 0
  0003f	6a 74		 push	 116			; 00000074H
  00041	57		 push	 edi
  00042	8d 85 cc fe ff
	ff		 lea	 eax, DWORD PTR _doc_result$[ebp]
  00048	50		 push	 eax
  00049	8d 8d f4 fe ff
	ff		 lea	 ecx, DWORD PTR _doc$[ebp]
  0004f	c7 45 fc 00 00
	00 00		 mov	 DWORD PTR __$EHRec$[ebp+8], 0
  00056	e8 00 00 00 00	 call	 ?load_file@xml_document@pugi@@QAE?AUxml_parse_result@2@PBDIW4xml_encoding@2@@Z ; pugi::xml_document::load_file

; 40   : 
; 41   : 	if(doc_result.status != status_ok)

  0005b	83 bd cc fe ff
	ff 00		 cmp	 DWORD PTR _doc_result$[ebp], 0
  00062	74 13		 je	 SHORT $LN4@Read

; 42   : 	{
; 43   : 		MsgBox("[PersonalShopMapping] file %s not found", file);

  00064	57		 push	 edi
  00065	68 00 00 00 00	 push	 OFFSET ??_C@_0CI@FPAONEGA@?$FLPersonalShopMapping?$FN?5file?5?$CFs?5no@
  0006a	e8 00 00 00 00	 call	 ?MsgBox@@YAXPADZZ	; MsgBox
  0006f	83 c4 08	 add	 esp, 8

; 44   : 		return;

  00072	e9 7e 01 00 00	 jmp	 $LN1@Read
$LN4@Read:

; 45   : 	}
; 46   : 
; 47   : 	xml_node pstore		=	doc.child("pstore");

  00077	68 00 00 00 00	 push	 OFFSET ??_C@_06CDKFANED@pstore?$AA@
  0007c	8d 8d e8 fe ff
	ff		 lea	 ecx, DWORD PTR _pstore$[ebp]
  00082	51		 push	 ecx
  00083	8d 8d f4 fe ff
	ff		 lea	 ecx, DWORD PTR _doc$[ebp]
  00089	e8 00 00 00 00	 call	 ?child@xml_node@pugi@@QBE?AV12@PBD@Z ; pugi::xml_node::child

; 48   : 	this->enabled		=	pstore.child("enabled").text().as_int(0);

  0008e	6a 00		 push	 0
  00090	8d 95 e4 fe ff
	ff		 lea	 edx, DWORD PTR $T171130[ebp]
  00096	52		 push	 edx
  00097	68 00 00 00 00	 push	 OFFSET ??_C@_07MHHIKOPA@enabled?$AA@
  0009c	8d 85 ec fe ff
	ff		 lea	 eax, DWORD PTR $T171129[ebp]
  000a2	50		 push	 eax
  000a3	8d 8d e8 fe ff
	ff		 lea	 ecx, DWORD PTR _pstore$[ebp]
  000a9	e8 00 00 00 00	 call	 ?child@xml_node@pugi@@QBE?AV12@PBD@Z ; pugi::xml_node::child
  000ae	8b c8		 mov	 ecx, eax
  000b0	e8 00 00 00 00	 call	 ?text@xml_node@pugi@@QBE?AVxml_text@2@XZ ; pugi::xml_node::text
  000b5	8b c8		 mov	 ecx, eax
  000b7	e8 00 00 00 00	 call	 ?as_int@xml_text@pugi@@QBEHH@Z ; pugi::xml_text::as_int

; 49   : 	this->allmaps		=	pstore.child("allmaps").text().as_int(0);

  000bc	6a 00		 push	 0
  000be	85 c0		 test	 eax, eax
  000c0	8d 95 ec fe ff
	ff		 lea	 edx, DWORD PTR $T171132[ebp]
  000c6	52		 push	 edx
  000c7	0f 95 c1	 setne	 cl
  000ca	68 00 00 00 00	 push	 OFFSET ??_C@_07HGHAIPM@allmaps?$AA@
  000cf	8d 85 e4 fe ff
	ff		 lea	 eax, DWORD PTR $T171131[ebp]
  000d5	88 4e 04	 mov	 BYTE PTR [esi+4], cl
  000d8	50		 push	 eax
  000d9	8d 8d e8 fe ff
	ff		 lea	 ecx, DWORD PTR _pstore$[ebp]
  000df	e8 00 00 00 00	 call	 ?child@xml_node@pugi@@QBE?AV12@PBD@Z ; pugi::xml_node::child
  000e4	8b c8		 mov	 ecx, eax
  000e6	e8 00 00 00 00	 call	 ?text@xml_node@pugi@@QBE?AVxml_text@2@XZ ; pugi::xml_node::text
  000eb	8b c8		 mov	 ecx, eax
  000ed	e8 00 00 00 00	 call	 ?as_int@xml_text@pugi@@QBEHH@Z ; pugi::xml_text::as_int
  000f2	85 c0		 test	 eax, eax
  000f4	0f 95 c1	 setne	 cl

; 50   : 
; 51   : 	xml_node maplist	=	pstore.child("maplist");

  000f7	68 00 00 00 00	 push	 OFFSET ??_C@_07PANIJHFC@maplist?$AA@
  000fc	8d 95 e0 fe ff
	ff		 lea	 edx, DWORD PTR _maplist$[ebp]
  00102	88 4e 05	 mov	 BYTE PTR [esi+5], cl
  00105	52		 push	 edx
  00106	8d 8d e8 fe ff
	ff		 lea	 ecx, DWORD PTR _pstore$[ebp]
  0010c	e8 00 00 00 00	 call	 ?child@xml_node@pugi@@QBE?AV12@PBD@Z ; pugi::xml_node::child

; 52   : 	xml_node node;

  00111	8d 8d f0 fe ff
	ff		 lea	 ecx, DWORD PTR _node$[ebp]
  00117	e8 00 00 00 00	 call	 ??0xml_node@pugi@@QAE@XZ ; pugi::xml_node::xml_node

; 53   : 
; 54   : 	for(node = maplist.child("map"); node; node = node.next_sibling())

  0011c	68 00 00 00 00	 push	 OFFSET ??_C@_03HBNNNHNM@map?$AA@
  00121	8d 85 ec fe ff
	ff		 lea	 eax, DWORD PTR $T171133[ebp]
  00127	50		 push	 eax
  00128	8d 8d e0 fe ff
	ff		 lea	 ecx, DWORD PTR _maplist$[ebp]
  0012e	e8 00 00 00 00	 call	 ?child@xml_node@pugi@@QBE?AV12@PBD@Z ; pugi::xml_node::child
  00133	8b 08		 mov	 ecx, DWORD PTR [eax]
  00135	89 8d f0 fe ff
	ff		 mov	 DWORD PTR _node$[ebp], ecx
  0013b	8d 8d f0 fe ff
	ff		 lea	 ecx, DWORD PTR _node$[ebp]
  00141	e8 00 00 00 00	 call	 ??Bxml_node@pugi@@QBEP6AXPAPAPAV01@@ZXZ ; pugi::xml_node::operator void (__cdecl*)(pugi::xml_node * * *)
  00146	85 c0		 test	 eax, eax
  00148	0f 84 a7 00 00
	00		 je	 $LN1@Read
  0014e	8b ff		 npad	 2
$LL3@Read:

; 55   : 	{
; 56   : 		PersonalShopMap current;
; 57   : 
; 58   : 		current.enabled		=	node.attribute("enabled").as_int(1);

  00150	6a 01		 push	 1
  00152	68 00 00 00 00	 push	 OFFSET ??_C@_07MHHIKOPA@enabled?$AA@
  00157	8d 95 ec fe ff
	ff		 lea	 edx, DWORD PTR $T171135[ebp]
  0015d	52		 push	 edx
  0015e	8d 8d f0 fe ff
	ff		 lea	 ecx, DWORD PTR _node$[ebp]
  00164	e8 00 00 00 00	 call	 ?attribute@xml_node@pugi@@QBE?AVxml_attribute@2@PBD@Z ; pugi::xml_node::attribute
  00169	8b c8		 mov	 ecx, eax
  0016b	e8 00 00 00 00	 call	 ?as_int@xml_attribute@pugi@@QBEHH@Z ; pugi::xml_attribute::as_int

; 59   : 		current.id			=	(node.attribute("id").as_int(1) & 0xFF);

  00170	6a 01		 push	 1
  00172	85 c0		 test	 eax, eax
  00174	68 00 00 00 00	 push	 OFFSET ??_C@_02EGCJHIOB@id?$AA@
  00179	8d 8d e4 fe ff
	ff		 lea	 ecx, DWORD PTR $T171136[ebp]
  0017f	0f 95 c0	 setne	 al
  00182	51		 push	 ecx
  00183	8d 8d f0 fe ff
	ff		 lea	 ecx, DWORD PTR _node$[ebp]
  00189	88 45 bd	 mov	 BYTE PTR _current$168449[ebp+1], al
  0018c	e8 00 00 00 00	 call	 ?attribute@xml_node@pugi@@QBE?AVxml_attribute@2@PBD@Z ; pugi::xml_node::attribute
  00191	8b c8		 mov	 ecx, eax
  00193	e8 00 00 00 00	 call	 ?as_int@xml_attribute@pugi@@QBEHH@Z ; pugi::xml_attribute::as_int

; 60   : 		current.name[0]		=	(char) node.text().as_string();

  00198	68 00 00 00 00	 push	 OFFSET ??_C@_00CNPNBAHC@?$AA@
  0019d	8d 95 d8 fe ff
	ff		 lea	 edx, DWORD PTR $T171137[ebp]
  001a3	52		 push	 edx
  001a4	8d 8d f0 fe ff
	ff		 lea	 ecx, DWORD PTR _node$[ebp]
  001aa	88 45 bc	 mov	 BYTE PTR _current$168449[ebp], al
  001ad	e8 00 00 00 00	 call	 ?text@xml_node@pugi@@QBE?AVxml_text@2@XZ ; pugi::xml_node::text
  001b2	8b c8		 mov	 ecx, eax
  001b4	e8 00 00 00 00	 call	 ?as_string@xml_text@pugi@@QBEPBDPBD@Z ; pugi::xml_text::as_string
  001b9	88 45 be	 mov	 BYTE PTR _current$168449[ebp+2], al

; 61   : 
; 62   : 		maps.push_back(current);

  001bc	8d 45 bc	 lea	 eax, DWORD PTR _current$168449[ebp]
  001bf	50		 push	 eax
  001c0	8d 4e 08	 lea	 ecx, DWORD PTR [esi+8]
  001c3	e8 00 00 00 00	 call	 ?push_back@?$vector@UPersonalShopMap@@V?$allocator@UPersonalShopMap@@@std@@@std@@QAEXABUPersonalShopMap@@@Z ; std::vector<PersonalShopMap,std::allocator<PersonalShopMap> >::push_back
  001c8	8d 8d dc fe ff
	ff		 lea	 ecx, DWORD PTR $T171134[ebp]
  001ce	51		 push	 ecx
  001cf	8d 8d f0 fe ff
	ff		 lea	 ecx, DWORD PTR _node$[ebp]
  001d5	e8 00 00 00 00	 call	 ?next_sibling@xml_node@pugi@@QBE?AV12@XZ ; pugi::xml_node::next_sibling
  001da	8b 10		 mov	 edx, DWORD PTR [eax]
  001dc	8d 8d f0 fe ff
	ff		 lea	 ecx, DWORD PTR _node$[ebp]
  001e2	89 95 f0 fe ff
	ff		 mov	 DWORD PTR _node$[ebp], edx
  001e8	e8 00 00 00 00	 call	 ??Bxml_node@pugi@@QBEP6AXPAPAPAV01@@ZXZ ; pugi::xml_node::operator void (__cdecl*)(pugi::xml_node * * *)
  001ed	85 c0		 test	 eax, eax
  001ef	0f 85 5b ff ff
	ff		 jne	 $LL3@Read
$LN1@Read:

; 63   : 	}
; 64   : }

  001f5	8d 8d f4 fe ff
	ff		 lea	 ecx, DWORD PTR _doc$[ebp]
  001fb	c7 45 fc ff ff
	ff ff		 mov	 DWORD PTR __$EHRec$[ebp+8], -1
  00202	e8 00 00 00 00	 call	 ??1xml_document@pugi@@QAE@XZ ; pugi::xml_document::~xml_document
  00207	8b 4d f4	 mov	 ecx, DWORD PTR __$EHRec$[ebp]
  0020a	64 89 0d 00 00
	00 00		 mov	 DWORD PTR fs:0, ecx
  00211	59		 pop	 ecx
  00212	5f		 pop	 edi
  00213	5e		 pop	 esi
  00214	8b 4d f0	 mov	 ecx, DWORD PTR __$ArrayPad$[ebp]
  00217	33 cd		 xor	 ecx, ebp
  00219	e8 00 00 00 00	 call	 @__security_check_cookie@4
  0021e	8b e5		 mov	 esp, ebp
  00220	5d		 pop	 ebp
  00221	c2 04 00	 ret	 4
_TEXT	ENDS
;	COMDAT text$x
text$x	SEGMENT
__unwindfunclet$?Read@PersonalShopMapping@@QAEXPAD@Z$0:
  00000	8d 8d f4 fe ff
	ff		 lea	 ecx, DWORD PTR _doc$[ebp]
  00006	e9 00 00 00 00	 jmp	 ??1xml_document@pugi@@QAE@XZ ; pugi::xml_document::~xml_document
__ehhandler$?Read@PersonalShopMapping@@QAEXPAD@Z:
  0000b	8b 54 24 08	 mov	 edx, DWORD PTR [esp+8]
  0000f	8d 42 0c	 lea	 eax, DWORD PTR [edx+12]
  00012	8b 8a cc fe ff
	ff		 mov	 ecx, DWORD PTR [edx-308]
  00018	33 c8		 xor	 ecx, eax
  0001a	e8 00 00 00 00	 call	 @__security_check_cookie@4
  0001f	8b 4a fc	 mov	 ecx, DWORD PTR [edx-4]
  00022	33 c8		 xor	 ecx, eax
  00024	e8 00 00 00 00	 call	 @__security_check_cookie@4
  00029	b8 00 00 00 00	 mov	 eax, OFFSET __ehfuncinfo$?Read@PersonalShopMapping@@QAEXPAD@Z
  0002e	e9 00 00 00 00	 jmp	 ___CxxFrameHandler3
text$x	ENDS
?Read@PersonalShopMapping@@QAEXPAD@Z ENDP		; PersonalShopMapping::Read
PUBLIC	??_C@_0BP@JOCNMJNN@Custom?2PersonalShopMapping?4xml?$AA@ ; `string'
PUBLIC	??_C@_08NAJBNDME@?4?4?2Data?2?$AA@		; `string'
PUBLIC	__$ArrayPad$
PUBLIC	?Load@PersonalShopMapping@@QAEXXZ		; PersonalShopMapping::Load
EXTRN	??1CDirPath@@UAE@XZ:PROC			; CDirPath::~CDirPath
EXTRN	?GetNewPath@CDirPath@@QAEPADPAD@Z:PROC		; CDirPath::GetNewPath
EXTRN	?SetFirstPath@CDirPath@@QAEXPAD@Z:PROC		; CDirPath::SetFirstPath
EXTRN	??0CDirPath@@QAE@XZ:PROC			; CDirPath::CDirPath
;	COMDAT ??_C@_0BP@JOCNMJNN@Custom?2PersonalShopMapping?4xml?$AA@
CONST	SEGMENT
??_C@_0BP@JOCNMJNN@Custom?2PersonalShopMapping?4xml?$AA@ DB 'Custom\Perso'
	DB	'nalShopMapping.xml', 00H			; `string'
CONST	ENDS
;	COMDAT ??_C@_08NAJBNDME@?4?4?2Data?2?$AA@
CONST	SEGMENT
??_C@_08NAJBNDME@?4?4?2Data?2?$AA@ DB '..\Data\', 00H	; `string'
CONST	ENDS
;	COMDAT xdata$x
xdata$x	SEGMENT
__unwindtable$?Load@PersonalShopMapping@@QAEXXZ DD 0ffffffffH
	DD	FLAT:__unwindfunclet$?Load@PersonalShopMapping@@QAEXXZ$0
__ehfuncinfo$?Load@PersonalShopMapping@@QAEXXZ DD 019930522H
	DD	01H
	DD	FLAT:__unwindtable$?Load@PersonalShopMapping@@QAEXXZ
	DD	2 DUP(00H)
	DD	2 DUP(00H)
	DD	00H
	DD	01H
; Function compile flags: /Ogtp
xdata$x	ENDS
;	COMDAT ?Load@PersonalShopMapping@@QAEXXZ
_TEXT	SEGMENT
_path$ = -540						; size = 524
__$ArrayPad$ = -16					; size = 4
__$EHRec$ = -12						; size = 12
?Load@PersonalShopMapping@@QAEXXZ PROC			; PersonalShopMapping::Load, COMDAT
; _this$ = ecx

; 28   : {

  00000	55		 push	 ebp
  00001	8b ec		 mov	 ebp, esp
  00003	6a ff		 push	 -1
  00005	68 00 00 00 00	 push	 __ehhandler$?Load@PersonalShopMapping@@QAEXXZ
  0000a	64 a1 00 00 00
	00		 mov	 eax, DWORD PTR fs:0
  00010	50		 push	 eax
  00011	81 ec 10 02 00
	00		 sub	 esp, 528		; 00000210H
  00017	a1 00 00 00 00	 mov	 eax, DWORD PTR ___security_cookie
  0001c	33 c5		 xor	 eax, ebp
  0001e	89 45 f0	 mov	 DWORD PTR __$ArrayPad$[ebp], eax
  00021	56		 push	 esi
  00022	50		 push	 eax
  00023	8d 45 f4	 lea	 eax, DWORD PTR __$EHRec$[ebp]
  00026	64 a3 00 00 00
	00		 mov	 DWORD PTR fs:0, eax
  0002c	8b f1		 mov	 esi, ecx

; 29   : 	this->Init();

  0002e	e8 00 00 00 00	 call	 ?Init@PersonalShopMapping@@QAEXXZ ; PersonalShopMapping::Init

; 30   : 	CDirPath path;

  00033	8d 8d e4 fd ff
	ff		 lea	 ecx, DWORD PTR _path$[ebp]
  00039	e8 00 00 00 00	 call	 ??0CDirPath@@QAE@XZ	; CDirPath::CDirPath

; 31   : 	path.SetFirstPath(FOLDER_DATA);

  0003e	68 00 00 00 00	 push	 OFFSET ??_C@_08NAJBNDME@?4?4?2Data?2?$AA@
  00043	8d 8d e4 fd ff
	ff		 lea	 ecx, DWORD PTR _path$[ebp]
  00049	c7 45 fc 00 00
	00 00		 mov	 DWORD PTR __$EHRec$[ebp+8], 0
  00050	e8 00 00 00 00	 call	 ?SetFirstPath@CDirPath@@QAEXPAD@Z ; CDirPath::SetFirstPath

; 32   : 
; 33   : 	this->Read(path.GetNewPath(FILE_CUSTOM_PERSONALSHOPMAPPING));

  00055	68 00 00 00 00	 push	 OFFSET ??_C@_0BP@JOCNMJNN@Custom?2PersonalShopMapping?4xml?$AA@
  0005a	8d 8d e4 fd ff
	ff		 lea	 ecx, DWORD PTR _path$[ebp]
  00060	e8 00 00 00 00	 call	 ?GetNewPath@CDirPath@@QAEPADPAD@Z ; CDirPath::GetNewPath
  00065	50		 push	 eax
  00066	8b ce		 mov	 ecx, esi
  00068	e8 00 00 00 00	 call	 ?Read@PersonalShopMapping@@QAEXPAD@Z ; PersonalShopMapping::Read

; 34   : }

  0006d	8d 8d e4 fd ff
	ff		 lea	 ecx, DWORD PTR _path$[ebp]
  00073	c7 45 fc ff ff
	ff ff		 mov	 DWORD PTR __$EHRec$[ebp+8], -1
  0007a	e8 00 00 00 00	 call	 ??1CDirPath@@UAE@XZ	; CDirPath::~CDirPath
  0007f	8b 4d f4	 mov	 ecx, DWORD PTR __$EHRec$[ebp]
  00082	64 89 0d 00 00
	00 00		 mov	 DWORD PTR fs:0, ecx
  00089	59		 pop	 ecx
  0008a	5e		 pop	 esi
  0008b	8b 4d f0	 mov	 ecx, DWORD PTR __$ArrayPad$[ebp]
  0008e	33 cd		 xor	 ecx, ebp
  00090	e8 00 00 00 00	 call	 @__security_check_cookie@4
  00095	8b e5		 mov	 esp, ebp
  00097	5d		 pop	 ebp
  00098	c3		 ret	 0
_TEXT	ENDS
;	COMDAT text$x
text$x	SEGMENT
__unwindfunclet$?Load@PersonalShopMapping@@QAEXXZ$0:
  00000	8d 8d e4 fd ff
	ff		 lea	 ecx, DWORD PTR _path$[ebp]
  00006	e9 00 00 00 00	 jmp	 ??1CDirPath@@UAE@XZ	; CDirPath::~CDirPath
__ehhandler$?Load@PersonalShopMapping@@QAEXXZ:
  0000b	8b 54 24 08	 mov	 edx, DWORD PTR [esp+8]
  0000f	8d 42 0c	 lea	 eax, DWORD PTR [edx+12]
  00012	8b 8a e8 fd ff
	ff		 mov	 ecx, DWORD PTR [edx-536]
  00018	33 c8		 xor	 ecx, eax
  0001a	e8 00 00 00 00	 call	 @__security_check_cookie@4
  0001f	8b 4a fc	 mov	 ecx, DWORD PTR [edx-4]
  00022	33 c8		 xor	 ecx, eax
  00024	e8 00 00 00 00	 call	 @__security_check_cookie@4
  00029	b8 00 00 00 00	 mov	 eax, OFFSET __ehfuncinfo$?Load@PersonalShopMapping@@QAEXXZ
  0002e	e9 00 00 00 00	 jmp	 ___CxxFrameHandler3
text$x	ENDS
?Load@PersonalShopMapping@@QAEXXZ ENDP			; PersonalShopMapping::Load
PUBLIC	??0PersonalShopMapping@@QAE@XZ			; PersonalShopMapping::PersonalShopMapping
;	COMDAT xdata$x
; File c:\program files (x86)\microsoft visual studio 10.0\vc\include\xmemory
xdata$x	SEGMENT
__unwindtable$??0PersonalShopMapping@@QAE@XZ DD 0ffffffffH
	DD	FLAT:__unwindfunclet$??0PersonalShopMapping@@QAE@XZ$0
__ehfuncinfo$??0PersonalShopMapping@@QAE@XZ DD 019930522H
	DD	01H
	DD	FLAT:__unwindtable$??0PersonalShopMapping@@QAE@XZ
	DD	2 DUP(00H)
	DD	2 DUP(00H)
	DD	00H
	DD	01H
; Function compile flags: /Ogtp
; File c:\muserver_dev\development\mu-s8ep2-repack\gameserver\source\personalshopmapping.cpp
xdata$x	ENDS
;	COMDAT ??0PersonalShopMapping@@QAE@XZ
_TEXT	SEGMENT
_this$ = -16						; size = 4
__$EHRec$ = -12						; size = 12
??0PersonalShopMapping@@QAE@XZ PROC			; PersonalShopMapping::PersonalShopMapping, COMDAT
; _this$ = ecx

; 11   : {

  00000	55		 push	 ebp
  00001	8b ec		 mov	 ebp, esp
  00003	6a ff		 push	 -1
  00005	68 00 00 00 00	 push	 __ehhandler$??0PersonalShopMapping@@QAE@XZ
  0000a	64 a1 00 00 00
	00		 mov	 eax, DWORD PTR fs:0
  00010	50		 push	 eax
  00011	51		 push	 ecx
  00012	56		 push	 esi
  00013	a1 00 00 00 00	 mov	 eax, DWORD PTR ___security_cookie
  00018	33 c5		 xor	 eax, ebp
  0001a	50		 push	 eax
  0001b	8d 45 f4	 lea	 eax, DWORD PTR __$EHRec$[ebp]
  0001e	64 a3 00 00 00
	00		 mov	 DWORD PTR fs:0, eax
  00024	8b f1		 mov	 esi, ecx
  00026	89 75 f0	 mov	 DWORD PTR _this$[ebp], esi
  00029	33 c0		 xor	 eax, eax
  0002b	c7 06 00 00 00
	00		 mov	 DWORD PTR [esi], OFFSET ??_7PersonalShopMapping@@6B@
  00031	89 46 08	 mov	 DWORD PTR [esi+8], eax
  00034	89 46 0c	 mov	 DWORD PTR [esi+12], eax
  00037	89 46 10	 mov	 DWORD PTR [esi+16], eax
  0003a	89 45 fc	 mov	 DWORD PTR __$EHRec$[ebp+8], eax

; 12   : 	this->Load();

  0003d	e8 00 00 00 00	 call	 ?Load@PersonalShopMapping@@QAEXXZ ; PersonalShopMapping::Load

; 13   : }

  00042	8b c6		 mov	 eax, esi
  00044	8b 4d f4	 mov	 ecx, DWORD PTR __$EHRec$[ebp]
  00047	64 89 0d 00 00
	00 00		 mov	 DWORD PTR fs:0, ecx
  0004e	59		 pop	 ecx
  0004f	5e		 pop	 esi
  00050	8b e5		 mov	 esp, ebp
  00052	5d		 pop	 ebp
  00053	c3		 ret	 0
_TEXT	ENDS
;	COMDAT text$x
text$x	SEGMENT
__unwindfunclet$??0PersonalShopMapping@@QAE@XZ$0:
  00000	8b 4d f0	 mov	 ecx, DWORD PTR _this$[ebp]
  00003	83 c1 08	 add	 ecx, 8
  00006	e9 00 00 00 00	 jmp	 ??1?$vector@UPersonalShopMap@@V?$allocator@UPersonalShopMap@@@std@@@std@@QAE@XZ ; std::vector<PersonalShopMap,std::allocator<PersonalShopMap> >::~vector<PersonalShopMap,std::allocator<PersonalShopMap> >
__ehhandler$??0PersonalShopMapping@@QAE@XZ:
  0000b	8b 54 24 08	 mov	 edx, DWORD PTR [esp+8]
  0000f	8d 42 0c	 lea	 eax, DWORD PTR [edx+12]
  00012	8b 4a f4	 mov	 ecx, DWORD PTR [edx-12]
  00015	33 c8		 xor	 ecx, eax
  00017	e8 00 00 00 00	 call	 @__security_check_cookie@4
  0001c	b8 00 00 00 00	 mov	 eax, OFFSET __ehfuncinfo$??0PersonalShopMapping@@QAE@XZ
  00021	e9 00 00 00 00	 jmp	 ___CxxFrameHandler3
text$x	ENDS
??0PersonalShopMapping@@QAE@XZ ENDP			; PersonalShopMapping::PersonalShopMapping
EXTRN	_atexit:PROC
; Function compile flags: /Ogtp
;	COMDAT ??__EpShop@@YAXXZ
text$yc	SEGMENT
??__EpShop@@YAXXZ PROC					; `dynamic initializer for 'pShop'', COMDAT

; 7    : PersonalShopMapping pShop;

  00000	b9 00 00 00 00	 mov	 ecx, OFFSET ?pShop@@3VPersonalShopMapping@@A ; pShop
  00005	e8 00 00 00 00	 call	 ??0PersonalShopMapping@@QAE@XZ ; PersonalShopMapping::PersonalShopMapping
  0000a	68 00 00 00 00	 push	 OFFSET ??__FpShop@@YAXXZ ; `dynamic atexit destructor for 'pShop''
  0000f	e8 00 00 00 00	 call	 _atexit
  00014	59		 pop	 ecx
  00015	c3		 ret	 0
??__EpShop@@YAXXZ ENDP					; `dynamic initializer for 'pShop''
; Function compile flags: /Ogtp
text$yc	ENDS
;	COMDAT ??__FpShop@@YAXXZ
text$yd	SEGMENT
??__FpShop@@YAXXZ PROC					; `dynamic atexit destructor for 'pShop'', COMDAT
  00000	b9 00 00 00 00	 mov	 ecx, OFFSET ?pShop@@3VPersonalShopMapping@@A ; pShop
  00005	e9 00 00 00 00	 jmp	 ??1PersonalShopMapping@@UAE@XZ ; PersonalShopMapping::~PersonalShopMapping
??__FpShop@@YAXXZ ENDP					; `dynamic atexit destructor for 'pShop''
text$yd	ENDS
PUBLIC	?pShop@@3VPersonalShopMapping@@A		; pShop
_BSS	SEGMENT
?pShop@@3VPersonalShopMapping@@A DB 018H DUP (?)	; pShop
_BSS	ENDS
CRT$XCU	SEGMENT
_pShop$initializer$ DD FLAT:??__EpShop@@YAXXZ
CRT$XCU	ENDS
END
