; Listing generated by Microsoft (R) Optimizing Compiler Version 16.00.40219.01 

	TITLE	C:\muserver_dev\development\MU-S8EP2-Repack\GameServer\Source\protocol.cpp
	.686P
	.XMM
	include listing.inc
	.model	flat

INCLUDELIB LIBCMT
INCLUDELIB OLDNAMES

PUBLIC	?ltesttime@@3HA					; ltesttime
PUBLIC	?logincounttest@@3HA				; logincounttest
PUBLIC	?tempindex@@3HA					; tempindex
PUBLIC	?iCount@@3HA					; iCount
PUBLIC	?BLOCKSIZE@?$FixedBlockSize@$07@CryptoPP@@2HB	; CryptoPP::FixedBlockSize<8>::BLOCKSIZE
PUBLIC	?KEYLENGTH@?$FixedKeyLength@$07$03$0A@@CryptoPP@@2HB ; CryptoPP::FixedKeyLength<8,4,0>::KEYLENGTH
PUBLIC	?MIN_KEYLENGTH@?$FixedKeyLength@$07$03$0A@@CryptoPP@@2HB ; CryptoPP::FixedKeyLength<8,4,0>::MIN_KEYLENGTH
PUBLIC	?MAX_KEYLENGTH@?$FixedKeyLength@$07$03$0A@@CryptoPP@@2HB ; CryptoPP::FixedKeyLength<8,4,0>::MAX_KEYLENGTH
PUBLIC	?DEFAULT_KEYLENGTH@?$FixedKeyLength@$07$03$0A@@CryptoPP@@2HB ; CryptoPP::FixedKeyLength<8,4,0>::DEFAULT_KEYLENGTH
PUBLIC	?IV_REQUIREMENT@?$FixedKeyLength@$07$03$0A@@CryptoPP@@2HB ; CryptoPP::FixedKeyLength<8,4,0>::IV_REQUIREMENT
PUBLIC	?IV_LENGTH@?$FixedKeyLength@$07$03$0A@@CryptoPP@@2HB ; CryptoPP::FixedKeyLength<8,4,0>::IV_LENGTH
PUBLIC	?KEYLENGTH@?$FixedKeyLength@$0BA@$03$0A@@CryptoPP@@2HB ; CryptoPP::FixedKeyLength<16,4,0>::KEYLENGTH
PUBLIC	?MIN_KEYLENGTH@?$FixedKeyLength@$0BA@$03$0A@@CryptoPP@@2HB ; CryptoPP::FixedKeyLength<16,4,0>::MIN_KEYLENGTH
PUBLIC	?MAX_KEYLENGTH@?$FixedKeyLength@$0BA@$03$0A@@CryptoPP@@2HB ; CryptoPP::FixedKeyLength<16,4,0>::MAX_KEYLENGTH
PUBLIC	?DEFAULT_KEYLENGTH@?$FixedKeyLength@$0BA@$03$0A@@CryptoPP@@2HB ; CryptoPP::FixedKeyLength<16,4,0>::DEFAULT_KEYLENGTH
PUBLIC	?IV_REQUIREMENT@?$FixedKeyLength@$0BA@$03$0A@@CryptoPP@@2HB ; CryptoPP::FixedKeyLength<16,4,0>::IV_REQUIREMENT
PUBLIC	?IV_LENGTH@?$FixedKeyLength@$0BA@$03$0A@@CryptoPP@@2HB ; CryptoPP::FixedKeyLength<16,4,0>::IV_LENGTH
PUBLIC	?KEYLENGTH@?$FixedKeyLength@$0BI@$03$0A@@CryptoPP@@2HB ; CryptoPP::FixedKeyLength<24,4,0>::KEYLENGTH
PUBLIC	?MIN_KEYLENGTH@?$FixedKeyLength@$0BI@$03$0A@@CryptoPP@@2HB ; CryptoPP::FixedKeyLength<24,4,0>::MIN_KEYLENGTH
PUBLIC	?MAX_KEYLENGTH@?$FixedKeyLength@$0BI@$03$0A@@CryptoPP@@2HB ; CryptoPP::FixedKeyLength<24,4,0>::MAX_KEYLENGTH
PUBLIC	?DEFAULT_KEYLENGTH@?$FixedKeyLength@$0BI@$03$0A@@CryptoPP@@2HB ; CryptoPP::FixedKeyLength<24,4,0>::DEFAULT_KEYLENGTH
PUBLIC	?IV_REQUIREMENT@?$FixedKeyLength@$0BI@$03$0A@@CryptoPP@@2HB ; CryptoPP::FixedKeyLength<24,4,0>::IV_REQUIREMENT
PUBLIC	?IV_LENGTH@?$FixedKeyLength@$0BI@$03$0A@@CryptoPP@@2HB ; CryptoPP::FixedKeyLength<24,4,0>::IV_LENGTH
_BSS	SEGMENT
?ltesttime@@3HA DD 01H DUP (?)				; ltesttime
?logincounttest@@3HA DD 01H DUP (?)			; logincounttest
?tempindex@@3HA DD 01H DUP (?)				; tempindex
?iCount@@3HA DD	01H DUP (?)				; iCount
_BSS	ENDS
_DATA	SEGMENT
_g_sttKALIMAGATE_LEVEL DD 028H
	DD	082H
	DD	014H
	DD	06eH
	DD	083H
	DD	0b4H
	DD	06fH
	DD	0a0H
	DD	0b5H
	DD	0e6H
	DD	0a1H
	DD	0d2H
	DD	0e7H
	DD	0118H
	DD	0d3H
	DD	0104H
	DD	0119H
	DD	014aH
	DD	0105H
	DD	0136H
	DD	014bH
	DD	015dH
	DD	0137H
	DD	015dH
	DD	015eH
	DD	0190H
	DD	015eH
	DD	0190H
_g_iKalimaGateGateIndex DD 058H
	DD	059H
	DD	05aH
	DD	05bH
	DD	05cH
	DD	05dH
	DD	074H
_IT_TicketRate DD 046H
	DD	046H
	DD	046H
	DD	046H
	DD	046H
	DD	046H
_IT_TicketZen DD 02dc6c0H
	DD	04c4b40H
	DD	06acfc0H
	DD	0895440H
	DD	0a7d8c0H
	DD	0c65d40H
_IT_REWARD_A DD	0493e0H
	DD	053020H
	DD	05cc60H
	DD	0668a0H
	DD	0704e0H
	DD	07a120H
_IT_REWARD_B DD	0c350H
	DD	0ea60H
	DD	011170H
	DD	013880H
	DD	015f90H
	DD	0186a0H
_IT_REWARD_C DD	0258H
	DD	04b0H
	DD	0708H
	DD	0960H
	DD	0bb8H
	DD	0e10H
_IT_REWARD_D DD	04b0H
	DD	0960H
	DD	0e10H
	DD	012c0H
	DD	01770H
	DD	01c20H
_IT_REWARD_E DD	0aH
	DD	014H
	DD	01eH
	DD	028H
	DD	032H
	DD	03cH
_g_iChaosCastle_EnterCost DD 061a8H
	DD	013880H
	DD	0249f0H
	DD	03d090H
	DD	061a80H
	DD	09eb10H
	DD	0f4240H
_g_sttDEVILSQUARE_LEVEL DD 0fH
	DD	082H
	DD	0aH
	DD	06eH
	DD	03aH
	DD	083H
	DD	0b4H
	DD	06fH
	DD	0a0H
	DD	03bH
	DD	0b5H
	DD	0e6H
	DD	0a1H
	DD	0d2H
	DD	03cH
	DD	0e7H
	DD	0118H
	DD	0d3H
	DD	0104H
	DD	03dH
	DD	0119H
	DD	014aH
	DD	0105H
	DD	0136H
	DD	06fH
	DD	014bH
	DD	0190H
	DD	0137H
	DD	0190H
	DD	070H
	DD	00H
	DD	0190H
	DD	00H
	DD	0190H
	DD	010eH
_g_iChaosCastle_GuardSetValue DD 09c4H
	DD	09c4H
	DD	09c4H
	DD	09c4H
	DD	09c4H
	DD	09c4H
	DD	09c4H
_g_sttBLOODCASTLE_LEVEL DD 0fH
	DD	050H
	DD	0aH
	DD	03cH
	DD	051H
	DD	082H
	DD	03dH
	DD	06eH
	DD	083H
	DD	0b4H
	DD	06fH
	DD	0a0H
	DD	0b5H
	DD	0e6H
	DD	0a1H
	DD	0d2H
	DD	0e7H
	DD	0118H
	DD	0d3H
	DD	0104H
	DD	0119H
	DD	014aH
	DD	0105H
	DD	0136H
	DD	014bH
	DD	0190H
	DD	0137H
	DD	0190H
	DD	00H
	DD	0190H
	DD	00H
	DD	0190H
_g_sttCHAOSCASTLE_LEVEL DD 0aH
	DD	031H
	DD	0aH
	DD	01dH
	DD	032H
	DD	077H
	DD	01eH
	DD	063H
	DD	078H
	DD	0b3H
	DD	064H
	DD	09fH
	DD	0b4H
	DD	0efH
	DD	0a0H
	DD	0dbH
	DD	0f0H
	DD	012bH
	DD	0dcH
	DD	0117H
	DD	012cH
	DD	0190H
	DD	0118H
	DD	0190H
	DD	00H
	DD	0190H
	DD	00H
	DD	0190H
_g_iChaosCastle_BlowOutDistance DD 03H
	DD	04H
	DD	03H
	DD	04H
	DD	02H
	DD	03H
	DD	00H
	DD	01H
_g_iChaosCastle_BlowOutDamage DD 0fH
	DD	0fH
	DD	0aH
	DD	05H
_g_iChaosCastle_MonsterItems DD 01c0dH
	DD	01H
	DD	01c0eH
	DD	01H
	DD	01c0dH
	DD	01H
	DD	01c0eH
	DD	01H
	DD	01c0dH
	DD	01H
	DD	01c0eH
	DD	01H
	DD	01c0dH
	DD	01H
	DD	01c0eH
	DD	01H
	DD	01c0dH
	DD	01H
	DD	01c0eH
	DD	02H
	DD	01c0dH
	DD	01H
	DD	01c0eH
	DD	02H
	DD	01c0dH
	DD	01H
	DD	01c0eH
	DD	02H
_g_iChaosCastle_GroundAxis DD 017H
	DD	04bH
	DD	02cH
	DD	06cH
_g_iChaosCastle_DamageAxis DD 017H
	DD	04bH
	DD	02cH
	DD	06cH
	DD	019H
	DD	04dH
	DD	02aH
	DD	06aH
	DD	01bH
	DD	04fH
	DD	028H
	DD	068H
	DD	01dH
	DD	051H
	DD	026H
	DD	066H
_g_iChaosCastle_MapHollowZone DD 017H
	DD	04bH
	DD	02cH
	DD	04cH
	DD	02bH
	DD	04dH
	DD	02cH
	DD	06cH
	DD	017H
	DD	06bH
	DD	02aH
	DD	06cH
	DD	017H
	DD	04dH
	DD	018H
	DD	06aH
	DD	017H
	DD	04bH
	DD	02cH
	DD	04cH
	DD	02bH
	DD	04dH
	DD	02cH
	DD	06cH
	DD	017H
	DD	06bH
	DD	02aH
	DD	06cH
	DD	017H
	DD	04dH
	DD	018H
	DD	06aH
	DD	019H
	DD	04dH
	DD	02aH
	DD	04eH
	DD	029H
	DD	04fH
	DD	02aH
	DD	06aH
	DD	019H
	DD	069H
	DD	028H
	DD	06aH
	DD	019H
	DD	04fH
	DD	01aH
	DD	068H
	DD	01bH
	DD	04fH
	DD	028H
	DD	050H
	DD	027H
	DD	051H
	DD	028H
	DD	068H
	DD	01bH
	DD	067H
	DD	026H
	DD	068H
	DD	01bH
	DD	051H
	DD	01cH
	DD	066H
_DATA	ENDS
;	COMDAT ?IV_LENGTH@?$FixedKeyLength@$0BI@$03$0A@@CryptoPP@@2HB
CONST	SEGMENT
?IV_LENGTH@?$FixedKeyLength@$0BI@$03$0A@@CryptoPP@@2HB DD 00H ; CryptoPP::FixedKeyLength<24,4,0>::IV_LENGTH
CONST	ENDS
;	COMDAT ?IV_REQUIREMENT@?$FixedKeyLength@$0BI@$03$0A@@CryptoPP@@2HB
CONST	SEGMENT
?IV_REQUIREMENT@?$FixedKeyLength@$0BI@$03$0A@@CryptoPP@@2HB DD 04H ; CryptoPP::FixedKeyLength<24,4,0>::IV_REQUIREMENT
CONST	ENDS
;	COMDAT ?DEFAULT_KEYLENGTH@?$FixedKeyLength@$0BI@$03$0A@@CryptoPP@@2HB
CONST	SEGMENT
?DEFAULT_KEYLENGTH@?$FixedKeyLength@$0BI@$03$0A@@CryptoPP@@2HB DD 018H ; CryptoPP::FixedKeyLength<24,4,0>::DEFAULT_KEYLENGTH
CONST	ENDS
;	COMDAT ?MAX_KEYLENGTH@?$FixedKeyLength@$0BI@$03$0A@@CryptoPP@@2HB
CONST	SEGMENT
?MAX_KEYLENGTH@?$FixedKeyLength@$0BI@$03$0A@@CryptoPP@@2HB DD 018H ; CryptoPP::FixedKeyLength<24,4,0>::MAX_KEYLENGTH
CONST	ENDS
;	COMDAT ?MIN_KEYLENGTH@?$FixedKeyLength@$0BI@$03$0A@@CryptoPP@@2HB
CONST	SEGMENT
?MIN_KEYLENGTH@?$FixedKeyLength@$0BI@$03$0A@@CryptoPP@@2HB DD 018H ; CryptoPP::FixedKeyLength<24,4,0>::MIN_KEYLENGTH
CONST	ENDS
;	COMDAT ?KEYLENGTH@?$FixedKeyLength@$0BI@$03$0A@@CryptoPP@@2HB
CONST	SEGMENT
?KEYLENGTH@?$FixedKeyLength@$0BI@$03$0A@@CryptoPP@@2HB DD 018H ; CryptoPP::FixedKeyLength<24,4,0>::KEYLENGTH
CONST	ENDS
;	COMDAT ?IV_LENGTH@?$FixedKeyLength@$0BA@$03$0A@@CryptoPP@@2HB
CONST	SEGMENT
?IV_LENGTH@?$FixedKeyLength@$0BA@$03$0A@@CryptoPP@@2HB DD 00H ; CryptoPP::FixedKeyLength<16,4,0>::IV_LENGTH
CONST	ENDS
;	COMDAT ?IV_REQUIREMENT@?$FixedKeyLength@$0BA@$03$0A@@CryptoPP@@2HB
CONST	SEGMENT
?IV_REQUIREMENT@?$FixedKeyLength@$0BA@$03$0A@@CryptoPP@@2HB DD 04H ; CryptoPP::FixedKeyLength<16,4,0>::IV_REQUIREMENT
CONST	ENDS
;	COMDAT ?DEFAULT_KEYLENGTH@?$FixedKeyLength@$0BA@$03$0A@@CryptoPP@@2HB
CONST	SEGMENT
?DEFAULT_KEYLENGTH@?$FixedKeyLength@$0BA@$03$0A@@CryptoPP@@2HB DD 010H ; CryptoPP::FixedKeyLength<16,4,0>::DEFAULT_KEYLENGTH
CONST	ENDS
;	COMDAT ?MAX_KEYLENGTH@?$FixedKeyLength@$0BA@$03$0A@@CryptoPP@@2HB
CONST	SEGMENT
?MAX_KEYLENGTH@?$FixedKeyLength@$0BA@$03$0A@@CryptoPP@@2HB DD 010H ; CryptoPP::FixedKeyLength<16,4,0>::MAX_KEYLENGTH
CONST	ENDS
;	COMDAT ?MIN_KEYLENGTH@?$FixedKeyLength@$0BA@$03$0A@@CryptoPP@@2HB
CONST	SEGMENT
?MIN_KEYLENGTH@?$FixedKeyLength@$0BA@$03$0A@@CryptoPP@@2HB DD 010H ; CryptoPP::FixedKeyLength<16,4,0>::MIN_KEYLENGTH
CONST	ENDS
;	COMDAT ?KEYLENGTH@?$FixedKeyLength@$0BA@$03$0A@@CryptoPP@@2HB
CONST	SEGMENT
?KEYLENGTH@?$FixedKeyLength@$0BA@$03$0A@@CryptoPP@@2HB DD 010H ; CryptoPP::FixedKeyLength<16,4,0>::KEYLENGTH
CONST	ENDS
;	COMDAT ?IV_LENGTH@?$FixedKeyLength@$07$03$0A@@CryptoPP@@2HB
CONST	SEGMENT
?IV_LENGTH@?$FixedKeyLength@$07$03$0A@@CryptoPP@@2HB DD 00H ; CryptoPP::FixedKeyLength<8,4,0>::IV_LENGTH
CONST	ENDS
;	COMDAT ?IV_REQUIREMENT@?$FixedKeyLength@$07$03$0A@@CryptoPP@@2HB
CONST	SEGMENT
?IV_REQUIREMENT@?$FixedKeyLength@$07$03$0A@@CryptoPP@@2HB DD 04H ; CryptoPP::FixedKeyLength<8,4,0>::IV_REQUIREMENT
CONST	ENDS
;	COMDAT ?DEFAULT_KEYLENGTH@?$FixedKeyLength@$07$03$0A@@CryptoPP@@2HB
CONST	SEGMENT
?DEFAULT_KEYLENGTH@?$FixedKeyLength@$07$03$0A@@CryptoPP@@2HB DD 08H ; CryptoPP::FixedKeyLength<8,4,0>::DEFAULT_KEYLENGTH
CONST	ENDS
;	COMDAT ?MAX_KEYLENGTH@?$FixedKeyLength@$07$03$0A@@CryptoPP@@2HB
CONST	SEGMENT
?MAX_KEYLENGTH@?$FixedKeyLength@$07$03$0A@@CryptoPP@@2HB DD 08H ; CryptoPP::FixedKeyLength<8,4,0>::MAX_KEYLENGTH
CONST	ENDS
;	COMDAT ?MIN_KEYLENGTH@?$FixedKeyLength@$07$03$0A@@CryptoPP@@2HB
CONST	SEGMENT
?MIN_KEYLENGTH@?$FixedKeyLength@$07$03$0A@@CryptoPP@@2HB DD 08H ; CryptoPP::FixedKeyLength<8,4,0>::MIN_KEYLENGTH
CONST	ENDS
;	COMDAT ?KEYLENGTH@?$FixedKeyLength@$07$03$0A@@CryptoPP@@2HB
CONST	SEGMENT
?KEYLENGTH@?$FixedKeyLength@$07$03$0A@@CryptoPP@@2HB DD 08H ; CryptoPP::FixedKeyLength<8,4,0>::KEYLENGTH
CONST	ENDS
;	COMDAT ?BLOCKSIZE@?$FixedBlockSize@$07@CryptoPP@@2HB
CONST	SEGMENT
?BLOCKSIZE@?$FixedBlockSize@$07@CryptoPP@@2HB DD 08H	; CryptoPP::FixedBlockSize<8>::BLOCKSIZE
CONST	ENDS
PUBLIC	?set@PBMSG_HEAD@@QAEXPAEEE@Z			; PBMSG_HEAD::set
; Function compile flags: /Ogtp
; File c:\muserver_dev\development\mu-s8ep2-repack\gameserver\include\prodef.h
;	COMDAT ?set@PBMSG_HEAD@@QAEXPAEEE@Z
_TEXT	SEGMENT
_lpBuf$ = 8						; size = 4
_head$ = 12						; size = 1
_size$ = 16						; size = 1
?set@PBMSG_HEAD@@QAEXPAEEE@Z PROC			; PBMSG_HEAD::set, COMDAT
; _this$ = ecx

; 85   : 	{

  00000	55		 push	 ebp
  00001	8b ec		 mov	 ebp, esp

; 86   : 		lpBuf[0] = 0xC1;

  00003	8b 45 08	 mov	 eax, DWORD PTR _lpBuf$[ebp]

; 87   : 		lpBuf[1] = size;

  00006	8a 4d 10	 mov	 cl, BYTE PTR _size$[ebp]

; 88   : 		lpBuf[2] = head;

  00009	8a 55 0c	 mov	 dl, BYTE PTR _head$[ebp]
  0000c	c6 00 c1	 mov	 BYTE PTR [eax], 193	; 000000c1H
  0000f	88 48 01	 mov	 BYTE PTR [eax+1], cl
  00012	88 50 02	 mov	 BYTE PTR [eax+2], dl

; 89   : 	};	// line : 22

  00015	5d		 pop	 ebp
  00016	c2 0c 00	 ret	 12			; 0000000cH
?set@PBMSG_HEAD@@QAEXPAEEE@Z ENDP			; PBMSG_HEAD::set
_TEXT	ENDS
PUBLIC	?set@PWMSG_HEAD@@QAEXPAEEH@Z			; PWMSG_HEAD::set
; Function compile flags: /Ogtp
;	COMDAT ?set@PWMSG_HEAD@@QAEXPAEEH@Z
_TEXT	SEGMENT
_lpBuf$ = 8						; size = 4
_head$ = 12						; size = 1
_size$ = 16						; size = 4
?set@PWMSG_HEAD@@QAEXPAEEH@Z PROC			; PWMSG_HEAD::set, COMDAT
; _this$ = ecx

; 110  : 	{

  00000	55		 push	 ebp
  00001	8b ec		 mov	 ebp, esp

; 111  : 		lpBuf[0] = 0xC2;

  00003	8b 45 08	 mov	 eax, DWORD PTR _lpBuf$[ebp]

; 112  : 		lpBuf[1] = SET_NUMBERH(size);

  00006	8b 4d 10	 mov	 ecx, DWORD PTR _size$[ebp]
  00009	8b d1		 mov	 edx, ecx

; 113  : 		lpBuf[2] = SET_NUMBERL(size);

  0000b	88 48 02	 mov	 BYTE PTR [eax+2], cl

; 114  : 		lpBuf[3] = head;

  0000e	8a 4d 0c	 mov	 cl, BYTE PTR _head$[ebp]
  00011	c1 ea 08	 shr	 edx, 8
  00014	c6 00 c2	 mov	 BYTE PTR [eax], 194	; 000000c2H
  00017	88 50 01	 mov	 BYTE PTR [eax+1], dl
  0001a	88 48 03	 mov	 BYTE PTR [eax+3], cl

; 115  : 	};

  0001d	5d		 pop	 ebp
  0001e	c2 0c 00	 ret	 12			; 0000000cH
?set@PWMSG_HEAD@@QAEXPAEEH@Z ENDP			; PWMSG_HEAD::set
_TEXT	ENDS
PUBLIC	?set@PBMSG_HEAD2@@QAEXPAEEEE@Z			; PBMSG_HEAD2::set
; Function compile flags: /Ogtp
;	COMDAT ?set@PBMSG_HEAD2@@QAEXPAEEEE@Z
_TEXT	SEGMENT
_lpBuf$ = 8						; size = 4
_head$ = 12						; size = 1
_sub$ = 16						; size = 1
_size$ = 20						; size = 1
?set@PBMSG_HEAD2@@QAEXPAEEEE@Z PROC			; PBMSG_HEAD2::set, COMDAT
; _this$ = ecx

; 139  : 	{

  00000	55		 push	 ebp
  00001	8b ec		 mov	 ebp, esp

; 140  : 		lpBuf[0] = 0xC1;

  00003	8b 45 08	 mov	 eax, DWORD PTR _lpBuf$[ebp]

; 141  : 		lpBuf[1] = size;

  00006	8a 4d 14	 mov	 cl, BYTE PTR _size$[ebp]

; 142  : 		lpBuf[2] = head;

  00009	8a 55 0c	 mov	 dl, BYTE PTR _head$[ebp]
  0000c	88 48 01	 mov	 BYTE PTR [eax+1], cl

; 143  : 		lpBuf[3] = sub;

  0000f	8a 4d 10	 mov	 cl, BYTE PTR _sub$[ebp]
  00012	c6 00 c1	 mov	 BYTE PTR [eax], 193	; 000000c1H
  00015	88 50 02	 mov	 BYTE PTR [eax+2], dl
  00018	88 48 03	 mov	 BYTE PTR [eax+3], cl

; 144  : 	};

  0001b	5d		 pop	 ebp
  0001c	c2 10 00	 ret	 16			; 00000010H
?set@PBMSG_HEAD2@@QAEXPAEEEE@Z ENDP			; PBMSG_HEAD2::set
_TEXT	ENDS
PUBLIC	?GetChatPrice@CGensSystem@@QAEHXZ		; CGensSystem::GetChatPrice
; Function compile flags: /Ogtp
; File c:\muserver_dev\development\mu-s8ep2-repack\gameserver\source\guildclass.h
;	COMDAT ?GetChatPrice@CGensSystem@@QAEHXZ
_TEXT	SEGMENT
?GetChatPrice@CGensSystem@@QAEHXZ PROC			; CGensSystem::GetChatPrice, COMDAT
; _this$ = ecx

; 275  : 	int GetChatPrice(){ return this->m_ChatPrice; };

  00000	8b 41 38	 mov	 eax, DWORD PTR [ecx+56]
  00003	c3		 ret	 0
?GetChatPrice@CGensSystem@@QAEHXZ ENDP			; CGensSystem::GetChatPrice
_TEXT	ENDS
PUBLIC	?IsValidDurationTime@TDurMagicKeyChecker@@QAEHE@Z ; TDurMagicKeyChecker::IsValidDurationTime
EXTRN	__imp__GetTickCount@0:PROC
; Function compile flags: /Ogtp
; File c:\muserver_dev\development\mu-s8ep2-repack\gameserver\source\tdurmagickeychecker.h
;	COMDAT ?IsValidDurationTime@TDurMagicKeyChecker@@QAEHE@Z
_TEXT	SEGMENT
_btMagicKey$ = 8					; size = 1
?IsValidDurationTime@TDurMagicKeyChecker@@QAEHE@Z PROC	; TDurMagicKeyChecker::IsValidDurationTime, COMDAT
; _this$ = ecx

; 19   : 	{

  00000	55		 push	 ebp
  00001	8b ec		 mov	 ebp, esp
  00003	53		 push	 ebx

; 20   : 		if ( btMagicKey <= MAX_DUR_MAGIC_KEY && btMagicKey > 0)

  00004	8a 5d 08	 mov	 bl, BYTE PTR _btMagicKey$[ebp]
  00007	56		 push	 esi
  00008	8b f1		 mov	 esi, ecx
  0000a	8d 43 ff	 lea	 eax, DWORD PTR [ebx-1]
  0000d	3c 3b		 cmp	 al, 59			; 0000003bH
  0000f	77 1e		 ja	 SHORT $LN1@IsValidDur

; 21   : 		{
; 22   : 			if ( (GetTickCount() - this->m_dwDurationTime[btMagicKey]) < 15000 )

  00011	ff 15 00 00 00
	00		 call	 DWORD PTR __imp__GetTickCount@0
  00017	0f b6 cb	 movzx	 ecx, bl
  0001a	2b 04 8e	 sub	 eax, DWORD PTR [esi+ecx*4]
  0001d	3d 98 3a 00 00	 cmp	 eax, 15000		; 00003a98H
  00022	73 0b		 jae	 SHORT $LN1@IsValidDur

; 23   : 			{
; 24   : 				return TRUE;

  00024	5e		 pop	 esi
  00025	b8 01 00 00 00	 mov	 eax, 1
  0002a	5b		 pop	 ebx

; 29   : 
; 30   : 	};	// line : 25

  0002b	5d		 pop	 ebp
  0002c	c2 04 00	 ret	 4
$LN1@IsValidDur:
  0002f	5e		 pop	 esi

; 25   : 			}
; 26   : 		}
; 27   : 
; 28   : 		return FALSE;

  00030	33 c0		 xor	 eax, eax
  00032	5b		 pop	 ebx

; 29   : 
; 30   : 	};	// line : 25

  00033	5d		 pop	 ebp
  00034	c2 04 00	 ret	 4
?IsValidDurationTime@TDurMagicKeyChecker@@QAEHE@Z ENDP	; TDurMagicKeyChecker::IsValidDurationTime
_TEXT	ENDS
PUBLIC	?IsValidCount@TDurMagicKeyChecker@@QAEHE@Z	; TDurMagicKeyChecker::IsValidCount
; Function compile flags: /Ogtp
;	COMDAT ?IsValidCount@TDurMagicKeyChecker@@QAEHE@Z
_TEXT	SEGMENT
_btMagicKey$ = 8					; size = 1
?IsValidCount@TDurMagicKeyChecker@@QAEHE@Z PROC		; TDurMagicKeyChecker::IsValidCount, COMDAT
; _this$ = ecx

; 34   : 	{

  00000	55		 push	 ebp
  00001	8b ec		 mov	 ebp, esp

; 35   : 		if ( btMagicKey <= MAX_DUR_MAGIC_KEY && btMagicKey > 0)

  00003	0f b6 45 08	 movzx	 eax, BYTE PTR _btMagicKey$[ebp]
  00007	fe c8		 dec	 al
  00009	b1 3b		 mov	 cl, 59			; 0000003bH
  0000b	3a c8		 cmp	 cl, al
  0000d	1b c0		 sbb	 eax, eax
  0000f	40		 inc	 eax

; 36   : 		{
; 37   : 			if ( this->m_btValidCount[btMagicKey] >= 0 )
; 38   : 			{
; 39   : 				return TRUE;
; 40   : 			}
; 41   : 		}
; 42   : 		return FALSE;
; 43   : 	};	// line : 38

  00010	5d		 pop	 ebp
  00011	c2 04 00	 ret	 4
?IsValidCount@TDurMagicKeyChecker@@QAEHE@Z ENDP		; TDurMagicKeyChecker::IsValidCount
_TEXT	ENDS
PUBLIC	?SetDurationTime@TDurMagicKeyChecker@@QAEXEK@Z	; TDurMagicKeyChecker::SetDurationTime
; Function compile flags: /Ogtp
;	COMDAT ?SetDurationTime@TDurMagicKeyChecker@@QAEXEK@Z
_TEXT	SEGMENT
_btMagicKey$ = 8					; size = 1
_dwCurrentTickCount$ = 12				; size = 4
?SetDurationTime@TDurMagicKeyChecker@@QAEXEK@Z PROC	; TDurMagicKeyChecker::SetDurationTime, COMDAT
; _this$ = ecx

; 46   : 	{

  00000	55		 push	 ebp
  00001	8b ec		 mov	 ebp, esp

; 47   : 		if ( btMagicKey <= MAX_DUR_MAGIC_KEY && btMagicKey > 0)

  00003	8a 45 08	 mov	 al, BYTE PTR _btMagicKey$[ebp]
  00006	8d 50 ff	 lea	 edx, DWORD PTR [eax-1]
  00009	80 fa 3b	 cmp	 dl, 59			; 0000003bH
  0000c	77 11		 ja	 SHORT $LN1@SetDuratio

; 48   : 		{
; 49   : 			this->m_dwDurationTime[btMagicKey] = dwCurrentTickCount;

  0000e	8b 55 0c	 mov	 edx, DWORD PTR _dwCurrentTickCount$[ebp]
  00011	0f b6 c0	 movzx	 eax, al
  00014	89 14 81	 mov	 DWORD PTR [ecx+eax*4], edx

; 50   : 			this->m_btValidCount[btMagicKey] = 7;

  00017	c6 84 08 f0 00
	00 00 07	 mov	 BYTE PTR [eax+ecx+240], 7
$LN1@SetDuratio:

; 51   : 		}
; 52   : 	};	// line : 47

  0001f	5d		 pop	 ebp
  00020	c2 08 00	 ret	 8
?SetDurationTime@TDurMagicKeyChecker@@QAEXEK@Z ENDP	; TDurMagicKeyChecker::SetDurationTime
_TEXT	ENDS
PUBLIC	?GetValidDurationTime@TDurMagicKeyChecker@@QAEHE@Z ; TDurMagicKeyChecker::GetValidDurationTime
; Function compile flags: /Ogtp
;	COMDAT ?GetValidDurationTime@TDurMagicKeyChecker@@QAEHE@Z
_TEXT	SEGMENT
_btMagicKey$ = 8					; size = 1
?GetValidDurationTime@TDurMagicKeyChecker@@QAEHE@Z PROC	; TDurMagicKeyChecker::GetValidDurationTime, COMDAT
; _this$ = ecx

; 57   : 	{

  00000	55		 push	 ebp
  00001	8b ec		 mov	 ebp, esp

; 58   : 		if ( btMagicKey <= MAX_DUR_MAGIC_KEY && btMagicKey > 0)

  00003	8a 45 08	 mov	 al, BYTE PTR _btMagicKey$[ebp]
  00006	8d 50 ff	 lea	 edx, DWORD PTR [eax-1]
  00009	80 fa 3b	 cmp	 dl, 59			; 0000003bH
  0000c	77 0a		 ja	 SHORT $LN1@GetValidDu

; 59   : 		{
; 60   : 			return this->m_dwDurationTime[btMagicKey];

  0000e	0f b6 c0	 movzx	 eax, al
  00011	8b 04 81	 mov	 eax, DWORD PTR [ecx+eax*4]

; 64   : 	};	// line : 70

  00014	5d		 pop	 ebp
  00015	c2 04 00	 ret	 4
$LN1@GetValidDu:

; 61   : 		}
; 62   : 
; 63   : 		return -77;

  00018	b8 b3 ff ff ff	 mov	 eax, -77		; ffffffb3H

; 64   : 	};	// line : 70

  0001d	5d		 pop	 ebp
  0001e	c2 04 00	 ret	 4
?GetValidDurationTime@TDurMagicKeyChecker@@QAEHE@Z ENDP	; TDurMagicKeyChecker::GetValidDurationTime
_TEXT	ENDS
PUBLIC	?GetValidCount@TDurMagicKeyChecker@@QAEHE@Z	; TDurMagicKeyChecker::GetValidCount
; Function compile flags: /Ogtp
;	COMDAT ?GetValidCount@TDurMagicKeyChecker@@QAEHE@Z
_TEXT	SEGMENT
_btMagicKey$ = 8					; size = 1
?GetValidCount@TDurMagicKeyChecker@@QAEHE@Z PROC	; TDurMagicKeyChecker::GetValidCount, COMDAT
; _this$ = ecx

; 67   : 	{

  00000	55		 push	 ebp
  00001	8b ec		 mov	 ebp, esp

; 68   : 		if ( btMagicKey <= MAX_DUR_MAGIC_KEY && btMagicKey > 0)

  00003	8a 45 08	 mov	 al, BYTE PTR _btMagicKey$[ebp]
  00006	8d 50 ff	 lea	 edx, DWORD PTR [eax-1]
  00009	80 fa 3b	 cmp	 dl, 59			; 0000003bH
  0000c	77 0f		 ja	 SHORT $LN1@GetValidCo

; 69   : 		{		
; 70   : 			return this->m_btValidCount[btMagicKey];

  0000e	0f b6 c0	 movzx	 eax, al
  00011	0f b6 84 08 f0
	00 00 00	 movzx	 eax, BYTE PTR [eax+ecx+240]

; 74   : 	};	// line : 80

  00019	5d		 pop	 ebp
  0001a	c2 04 00	 ret	 4
$LN1@GetValidCo:

; 71   : 		}
; 72   : 
; 73   : 		return -77;

  0001d	b8 b3 ff ff ff	 mov	 eax, -77		; ffffffb3H

; 74   : 	};	// line : 80

  00022	5d		 pop	 ebp
  00023	c2 04 00	 ret	 4
?GetValidCount@TDurMagicKeyChecker@@QAEHE@Z ENDP	; TDurMagicKeyChecker::GetValidCount
_TEXT	ENDS
PUBLIC	??1OBJECTSTRUCT@@QAE@XZ				; OBJECTSTRUCT::~OBJECTSTRUCT
EXTRN	??1CSkillDelay@@UAE@XZ:PROC			; CSkillDelay::~CSkillDelay
EXTRN	??1TMonsterAIAgro@@UAE@XZ:PROC			; TMonsterAIAgro::~TMonsterAIAgro
EXTRN	___security_cookie:DWORD
EXTRN	___CxxFrameHandler3:PROC
EXTRN	@__security_check_cookie@4:PROC
;	COMDAT xdata$x
xdata$x	SEGMENT
__unwindtable$??1OBJECTSTRUCT@@QAE@XZ DD 0ffffffffH
	DD	FLAT:__unwindfunclet$??1OBJECTSTRUCT@@QAE@XZ$0
__ehfuncinfo$??1OBJECTSTRUCT@@QAE@XZ DD 019930522H
	DD	01H
	DD	FLAT:__unwindtable$??1OBJECTSTRUCT@@QAE@XZ
	DD	2 DUP(00H)
	DD	2 DUP(00H)
	DD	00H
	DD	01H
; Function compile flags: /Ogtp
xdata$x	ENDS
;	COMDAT ??1OBJECTSTRUCT@@QAE@XZ
_TEXT	SEGMENT
_this$ = -16						; size = 4
__$EHRec$ = -12						; size = 12
??1OBJECTSTRUCT@@QAE@XZ PROC				; OBJECTSTRUCT::~OBJECTSTRUCT, COMDAT
; _this$ = ecx
  00000	55		 push	 ebp
  00001	8b ec		 mov	 ebp, esp
  00003	6a ff		 push	 -1
  00005	68 00 00 00 00	 push	 __ehhandler$??1OBJECTSTRUCT@@QAE@XZ
  0000a	64 a1 00 00 00
	00		 mov	 eax, DWORD PTR fs:0
  00010	50		 push	 eax
  00011	51		 push	 ecx
  00012	56		 push	 esi
  00013	a1 00 00 00 00	 mov	 eax, DWORD PTR ___security_cookie
  00018	33 c5		 xor	 eax, ebp
  0001a	50		 push	 eax
  0001b	8d 45 f4	 lea	 eax, DWORD PTR __$EHRec$[ebp]
  0001e	64 a3 00 00 00
	00		 mov	 DWORD PTR fs:0, eax
  00024	8b f1		 mov	 esi, ecx
  00026	89 75 f0	 mov	 DWORD PTR _this$[ebp], esi
  00029	8d 8e ec 20 00
	00		 lea	 ecx, DWORD PTR [esi+8428]
  0002f	c7 45 fc 00 00
	00 00		 mov	 DWORD PTR __$EHRec$[ebp+8], 0
  00036	e8 00 00 00 00	 call	 ??1TMonsterAIAgro@@UAE@XZ ; TMonsterAIAgro::~TMonsterAIAgro
  0003b	8d 8e 0c 16 00
	00		 lea	 ecx, DWORD PTR [esi+5644]
  00041	c7 45 fc ff ff
	ff ff		 mov	 DWORD PTR __$EHRec$[ebp+8], -1
  00048	e8 00 00 00 00	 call	 ??1CSkillDelay@@UAE@XZ	; CSkillDelay::~CSkillDelay
  0004d	8b 4d f4	 mov	 ecx, DWORD PTR __$EHRec$[ebp]
  00050	64 89 0d 00 00
	00 00		 mov	 DWORD PTR fs:0, ecx
  00057	59		 pop	 ecx
  00058	5e		 pop	 esi
  00059	8b e5		 mov	 esp, ebp
  0005b	5d		 pop	 ebp
  0005c	c3		 ret	 0
_TEXT	ENDS
;	COMDAT text$x
text$x	SEGMENT
__unwindfunclet$??1OBJECTSTRUCT@@QAE@XZ$0:
  00000	8b 4d f0	 mov	 ecx, DWORD PTR _this$[ebp]
  00003	81 c1 0c 16 00
	00		 add	 ecx, 5644		; 0000160cH
  00009	e9 00 00 00 00	 jmp	 ??1CSkillDelay@@UAE@XZ	; CSkillDelay::~CSkillDelay
__ehhandler$??1OBJECTSTRUCT@@QAE@XZ:
  0000e	8b 54 24 08	 mov	 edx, DWORD PTR [esp+8]
  00012	8d 42 0c	 lea	 eax, DWORD PTR [edx+12]
  00015	8b 4a f4	 mov	 ecx, DWORD PTR [edx-12]
  00018	33 c8		 xor	 ecx, eax
  0001a	e8 00 00 00 00	 call	 @__security_check_cookie@4
  0001f	b8 00 00 00 00	 mov	 eax, OFFSET __ehfuncinfo$??1OBJECTSTRUCT@@QAE@XZ
  00024	e9 00 00 00 00	 jmp	 ___CxxFrameHandler3
text$x	ENDS
??1OBJECTSTRUCT@@QAE@XZ ENDP				; OBJECTSTRUCT::~OBJECTSTRUCT
PUBLIC	?GetQeustCount@CQuestInfo@@QAEHXZ		; CQuestInfo::GetQeustCount
; Function compile flags: /Ogtp
; File c:\muserver_dev\development\mu-s8ep2-repack\gameserver\source\questinfo.h
;	COMDAT ?GetQeustCount@CQuestInfo@@QAEHXZ
_TEXT	SEGMENT
?GetQeustCount@CQuestInfo@@QAEHXZ PROC			; CQuestInfo::GetQeustCount, COMDAT
; _this$ = ecx

; 84   : 	int GetQeustCount(){return m_QuestCount;}

  00000	8b 41 04	 mov	 eax, DWORD PTR [ecx+4]
  00003	c3		 ret	 0
?GetQeustCount@CQuestInfo@@QAEHXZ ENDP			; CQuestInfo::GetQeustCount
_TEXT	ENDS
PUBLIC	?GetCastleState@CCastleSiegeSync@@QAEHXZ	; CCastleSiegeSync::GetCastleState
; Function compile flags: /Ogtp
; File c:\muserver_dev\development\mu-s8ep2-repack\gameserver\source\castlesiegesync.h
;	COMDAT ?GetCastleState@CCastleSiegeSync@@QAEHXZ
_TEXT	SEGMENT
?GetCastleState@CCastleSiegeSync@@QAEHXZ PROC		; CCastleSiegeSync::GetCastleState, COMDAT
; _this$ = ecx

; 34   : 	int  GetCastleState(){return this->m_iCurCastleState;};	// line : 70

  00000	8b 41 04	 mov	 eax, DWORD PTR [ecx+4]
  00003	c3		 ret	 0
?GetCastleState@CCastleSiegeSync@@QAEHXZ ENDP		; CCastleSiegeSync::GetCastleState
_TEXT	ENDS
PUBLIC	?GetCastleOwnerGuild@CCastleSiegeSync@@QAEPADXZ	; CCastleSiegeSync::GetCastleOwnerGuild
; Function compile flags: /Ogtp
;	COMDAT ?GetCastleOwnerGuild@CCastleSiegeSync@@QAEPADXZ
_TEXT	SEGMENT
?GetCastleOwnerGuild@CCastleSiegeSync@@QAEPADXZ PROC	; CCastleSiegeSync::GetCastleOwnerGuild, COMDAT
; _this$ = ecx

; 36   : 	LPSTR GetCastleOwnerGuild(){return this->m_szCastleOwnerGuild;};	// line : 85

  00000	8d 41 18	 lea	 eax, DWORD PTR [ecx+24]
  00003	c3		 ret	 0
?GetCastleOwnerGuild@CCastleSiegeSync@@QAEPADXZ ENDP	; CCastleSiegeSync::GetCastleOwnerGuild
_TEXT	ENDS
PUBLIC	??_H@YGXPAXIHP6EPAX0@Z@Z			; `vector constructor iterator'
; Function compile flags: /Ogtp
;	COMDAT ??_H@YGXPAXIHP6EPAX0@Z@Z
_TEXT	SEGMENT
___t$ = 8						; size = 4
___s$ = 12						; size = 4
___n$ = 16						; size = 4
___f$ = 20						; size = 4
??_H@YGXPAXIHP6EPAX0@Z@Z PROC				; `vector constructor iterator', COMDAT
  00000	55		 push	 ebp
  00001	8b ec		 mov	 ebp, esp
  00003	57		 push	 edi
  00004	8b 7d 10	 mov	 edi, DWORD PTR ___n$[ebp]
  00007	4f		 dec	 edi
  00008	78 14		 js	 SHORT $LN1@vector
  0000a	53		 push	 ebx
  0000b	8b 5d 14	 mov	 ebx, DWORD PTR ___f$[ebp]
  0000e	56		 push	 esi
  0000f	8b 75 08	 mov	 esi, DWORD PTR ___t$[ebp]
$LL2@vector:
  00012	8b ce		 mov	 ecx, esi
  00014	ff d3		 call	 ebx
  00016	03 75 0c	 add	 esi, DWORD PTR ___s$[ebp]
  00019	4f		 dec	 edi
  0001a	79 f6		 jns	 SHORT $LL2@vector
  0001c	5e		 pop	 esi
  0001d	5b		 pop	 ebx
$LN1@vector:
  0001e	5f		 pop	 edi
  0001f	5d		 pop	 ebp
  00020	c2 10 00	 ret	 16			; 00000010H
??_H@YGXPAXIHP6EPAX0@Z@Z ENDP				; `vector constructor iterator'
_TEXT	ENDS
PUBLIC	??_C@_0BK@CPKHJPAP@QeustNpc?5RefCount?5Dec?$DN?5?$CFd?$AA@ ; `string'
PUBLIC	?TalkRefDel@CQeustNpcTeleport@@QAEXXZ		; CQeustNpcTeleport::TalkRefDel
EXTRN	__imp__LeaveCriticalSection@4:PROC
EXTRN	?LogAdd@@3P6AXPADZZA:DWORD			; LogAdd
EXTRN	__imp__EnterCriticalSection@4:PROC
;	COMDAT ??_C@_0BK@CPKHJPAP@QeustNpc?5RefCount?5Dec?$DN?5?$CFd?$AA@
; File c:\muserver_dev\development\mu-s8ep2-repack\gameserver\source\gobjmonster.h
CONST	SEGMENT
??_C@_0BK@CPKHJPAP@QeustNpc?5RefCount?5Dec?$DN?5?$CFd?$AA@ DB 'QeustNpc R'
	DB	'efCount Dec= %d', 00H			; `string'
; Function compile flags: /Ogtp
CONST	ENDS
;	COMDAT ?TalkRefDel@CQeustNpcTeleport@@QAEXXZ
_TEXT	SEGMENT
?TalkRefDel@CQeustNpcTeleport@@QAEXXZ PROC		; CQeustNpcTeleport::TalkRefDel, COMDAT
; _this$ = ecx

; 75   : 	{

  00000	56		 push	 esi
  00001	57		 push	 edi
  00002	8b f1		 mov	 esi, ecx

; 76   : 		EnterCriticalSection(&this->CsRef);

  00004	8d 7e 04	 lea	 edi, DWORD PTR [esi+4]
  00007	57		 push	 edi
  00008	ff 15 00 00 00
	00		 call	 DWORD PTR __imp__EnterCriticalSection@4

; 77   : 		this->RefCount--;

  0000e	ff 0e		 dec	 DWORD PTR [esi]

; 78   : 
; 79   : 		if ( this->RefCount < 0 )

  00010	79 06		 jns	 SHORT $LN1@TalkRefDel

; 80   : 		{
; 81   : 			this->RefCount = 0;

  00012	c7 06 00 00 00
	00		 mov	 DWORD PTR [esi], 0
$LN1@TalkRefDel:

; 82   : 		}
; 83   : 		
; 84   : 		LogAdd("QeustNpc RefCount Dec= %d", this->RefCount);

  00018	8b 06		 mov	 eax, DWORD PTR [esi]
  0001a	50		 push	 eax
  0001b	68 00 00 00 00	 push	 OFFSET ??_C@_0BK@CPKHJPAP@QeustNpc?5RefCount?5Dec?$DN?5?$CFd?$AA@
  00020	ff 15 00 00 00
	00		 call	 DWORD PTR ?LogAdd@@3P6AXPADZZA ; LogAdd
  00026	83 c4 08	 add	 esp, 8

; 85   : 		LeaveCriticalSection(&this->CsRef);

  00029	57		 push	 edi
  0002a	ff 15 00 00 00
	00		 call	 DWORD PTR __imp__LeaveCriticalSection@4
  00030	5f		 pop	 edi
  00031	5e		 pop	 esi

; 86   : 	};	// line : 135

  00032	c3		 ret	 0
?TalkRefDel@CQeustNpcTeleport@@QAEXXZ ENDP		; CQeustNpcTeleport::TalkRefDel
_TEXT	ENDS
PUBLIC	?GetState@CDevilSquare@@QAE?AW4eDevilSquareState@@XZ ; CDevilSquare::GetState
; Function compile flags: /Ogtp
; File c:\muserver_dev\development\mu-s8ep2-repack\gameserver\source\devilsquare.h
;	COMDAT ?GetState@CDevilSquare@@QAE?AW4eDevilSquareState@@XZ
_TEXT	SEGMENT
?GetState@CDevilSquare@@QAE?AW4eDevilSquareState@@XZ PROC ; CDevilSquare::GetState, COMDAT
; _this$ = ecx

; 46   : 	enum eDevilSquareState GetState(){return this->m_eState;};	// line : 93

  00000	8b 41 04	 mov	 eax, DWORD PTR [ecx+4]
  00003	c3		 ret	 0
?GetState@CDevilSquare@@QAE?AW4eDevilSquareState@@XZ ENDP ; CDevilSquare::GetState
_TEXT	ENDS
PUBLIC	?GetMapSvrGroup@CMapServerManager@@QAEHXZ	; CMapServerManager::GetMapSvrGroup
; Function compile flags: /Ogtp
; File c:\muserver_dev\development\mu-s8ep2-repack\gameserver\source\mapservermanager.h
;	COMDAT ?GetMapSvrGroup@CMapServerManager@@QAEHXZ
_TEXT	SEGMENT
?GetMapSvrGroup@CMapServerManager@@QAEHXZ PROC		; CMapServerManager::GetMapSvrGroup, COMDAT
; _this$ = ecx

; 55   : 		if ( this->m_lpThisMapSvrData != NULL )

  00000	8b 81 00 6b 01
	00		 mov	 eax, DWORD PTR [ecx+92928]
  00006	85 c0		 test	 eax, eax
  00008	74 05		 je	 SHORT $LN1@GetMapSvrG

; 56   : 		{
; 57   : 			return m_lpThisMapSvrData->m_btMAPSVR_GROUP;

  0000a	0f b6 40 08	 movzx	 eax, BYTE PTR [eax+8]

; 60   : 	}

  0000e	c3		 ret	 0
$LN1@GetMapSvrG:

; 58   : 		}
; 59   : 		return -1;

  0000f	83 c8 ff	 or	 eax, -1

; 60   : 	}

  00012	c3		 ret	 0
?GetMapSvrGroup@CMapServerManager@@QAEHXZ ENDP		; CMapServerManager::GetMapSvrGroup
_TEXT	ENDS
PUBLIC	??_7_CS_NPC_DATA@@6B@				; _CS_NPC_DATA::`vftable'
PUBLIC	??1_CS_NPC_DATA@@UAE@XZ				; _CS_NPC_DATA::~_CS_NPC_DATA
PUBLIC	??_R4_CS_NPC_DATA@@6B@				; _CS_NPC_DATA::`RTTI Complete Object Locator'
PUBLIC	??_R0?AU_CS_NPC_DATA@@@8			; _CS_NPC_DATA `RTTI Type Descriptor'
PUBLIC	??_R3_CS_NPC_DATA@@8				; _CS_NPC_DATA::`RTTI Class Hierarchy Descriptor'
PUBLIC	??_R2_CS_NPC_DATA@@8				; _CS_NPC_DATA::`RTTI Base Class Array'
PUBLIC	??_R1A@?0A@EA@_CS_NPC_DATA@@8			; _CS_NPC_DATA::`RTTI Base Class Descriptor at (0,-1,0,64)'
EXTRN	??_7type_info@@6B@:QWORD			; type_info::`vftable'
EXTRN	??_E_CS_NPC_DATA@@UAEPAXI@Z:PROC		; _CS_NPC_DATA::`vector deleting destructor'
;	COMDAT ??_R1A@?0A@EA@_CS_NPC_DATA@@8
; File c:\muserver_dev\development\mu-s8ep2-repack\gameserver\source\castlesiege.h
rdata$r	SEGMENT
??_R1A@?0A@EA@_CS_NPC_DATA@@8 DD FLAT:??_R0?AU_CS_NPC_DATA@@@8 ; _CS_NPC_DATA::`RTTI Base Class Descriptor at (0,-1,0,64)'
	DD	00H
	DD	00H
	DD	0ffffffffH
	DD	00H
	DD	040H
	DD	FLAT:??_R3_CS_NPC_DATA@@8
rdata$r	ENDS
;	COMDAT ??_R2_CS_NPC_DATA@@8
rdata$r	SEGMENT
??_R2_CS_NPC_DATA@@8 DD FLAT:??_R1A@?0A@EA@_CS_NPC_DATA@@8 ; _CS_NPC_DATA::`RTTI Base Class Array'
rdata$r	ENDS
;	COMDAT ??_R3_CS_NPC_DATA@@8
rdata$r	SEGMENT
??_R3_CS_NPC_DATA@@8 DD 00H				; _CS_NPC_DATA::`RTTI Class Hierarchy Descriptor'
	DD	00H
	DD	01H
	DD	FLAT:??_R2_CS_NPC_DATA@@8
rdata$r	ENDS
;	COMDAT ??_R0?AU_CS_NPC_DATA@@@8
_DATA	SEGMENT
??_R0?AU_CS_NPC_DATA@@@8 DD FLAT:??_7type_info@@6B@	; _CS_NPC_DATA `RTTI Type Descriptor'
	DD	00H
	DB	'.?AU_CS_NPC_DATA@@', 00H
_DATA	ENDS
;	COMDAT ??_R4_CS_NPC_DATA@@6B@
rdata$r	SEGMENT
??_R4_CS_NPC_DATA@@6B@ DD 00H				; _CS_NPC_DATA::`RTTI Complete Object Locator'
	DD	00H
	DD	00H
	DD	FLAT:??_R0?AU_CS_NPC_DATA@@@8
	DD	FLAT:??_R3_CS_NPC_DATA@@8
rdata$r	ENDS
;	COMDAT ??_7_CS_NPC_DATA@@6B@
CONST	SEGMENT
??_7_CS_NPC_DATA@@6B@ DD FLAT:??_R4_CS_NPC_DATA@@6B@	; _CS_NPC_DATA::`vftable'
	DD	FLAT:??_E_CS_NPC_DATA@@UAEPAXI@Z
; Function compile flags: /Ogtp
CONST	ENDS
;	COMDAT ??1_CS_NPC_DATA@@UAE@XZ
_TEXT	SEGMENT
??1_CS_NPC_DATA@@UAE@XZ PROC				; _CS_NPC_DATA::~_CS_NPC_DATA, COMDAT
; _this$ = ecx

; 75   : 	{

  00000	c7 01 00 00 00
	00		 mov	 DWORD PTR [ecx], OFFSET ??_7_CS_NPC_DATA@@6B@

; 76   : 
; 77   : 	};

  00006	c3		 ret	 0
??1_CS_NPC_DATA@@UAE@XZ ENDP				; _CS_NPC_DATA::~_CS_NPC_DATA
_TEXT	ENDS
PUBLIC	?Clear@_CS_NPC_DATA@@QAEXXZ			; _CS_NPC_DATA::Clear
; Function compile flags: /Ogtp
;	COMDAT ?Clear@_CS_NPC_DATA@@QAEXXZ
_TEXT	SEGMENT
?Clear@_CS_NPC_DATA@@QAEXXZ PROC			; _CS_NPC_DATA::Clear, COMDAT
; _this$ = ecx

; 81   : 		m_bIN_USE = 0;
; 82   : 		m_iNPC_NUM = -1;

  00000	83 c8 ff	 or	 eax, -1
  00003	33 d2		 xor	 edx, edx
  00005	89 51 04	 mov	 DWORD PTR [ecx+4], edx
  00008	89 41 08	 mov	 DWORD PTR [ecx+8], eax

; 83   : 		m_iNPC_INDEX = -1;

  0000b	89 41 0c	 mov	 DWORD PTR [ecx+12], eax

; 84   : 		m_iNPC_LIVE = 0;

  0000e	89 51 68	 mov	 DWORD PTR [ecx+104], edx

; 85   : 		m_iNPC_AUTH = -1;

  00011	89 41 6c	 mov	 DWORD PTR [ecx+108], eax

; 86   : 		m_bNPC_DBSAVE = 0;

  00014	89 51 10	 mov	 DWORD PTR [ecx+16], edx

; 87   : 		m_iNPC_SIDE = 0;

  00017	89 51 14	 mov	 DWORD PTR [ecx+20], edx

; 88   : 		m_iNPC_OBJINDEX = -1;

  0001a	89 41 18	 mov	 DWORD PTR [ecx+24], eax

; 89   : 		m_iNPC_DF_LEVEL = 0;

  0001d	89 51 1c	 mov	 DWORD PTR [ecx+28], edx

; 90   : 		m_iNPC_RG_LEVEL = 0;

  00020	89 51 20	 mov	 DWORD PTR [ecx+32], edx

; 91   : 		m_iNPC_MAXHP = 0;

  00023	89 51 24	 mov	 DWORD PTR [ecx+36], edx

; 92   : 		m_iNPC_HP = 0;

  00026	89 51 28	 mov	 DWORD PTR [ecx+40], edx

; 93   : 		m_iNPC_SX = -1;

  00029	89 41 2c	 mov	 DWORD PTR [ecx+44], eax

; 94   : 		m_iNPC_SY = -1;

  0002c	89 41 30	 mov	 DWORD PTR [ecx+48], eax

; 95   : 		m_iNPC_DX = -1;

  0002f	89 41 34	 mov	 DWORD PTR [ecx+52], eax

; 96   : 		m_iNPC_DY = -1;

  00032	89 41 38	 mov	 DWORD PTR [ecx+56], eax

; 97   : 		m_iNPC_DIR = -1;

  00035	89 41 3c	 mov	 DWORD PTR [ecx+60], eax

; 98   : 		m_iNPC_BASE_DF_LEVEL = 0;

  00038	89 51 40	 mov	 DWORD PTR [ecx+64], edx

; 99   : 		m_iNPC_BASE_RG_LEVEL = 0;

  0003b	89 51 44	 mov	 DWORD PTR [ecx+68], edx

; 100  : 		m_iNPC_BASE_MAXHP = 0;

  0003e	89 51 48	 mov	 DWORD PTR [ecx+72], edx

; 101  : 		m_iNPC_BASE_HP = 0;

  00041	89 51 4c	 mov	 DWORD PTR [ecx+76], edx

; 102  : 		m_iNPC_BASE_SX = -1;

  00044	89 41 50	 mov	 DWORD PTR [ecx+80], eax

; 103  : 		m_iNPC_BASE_SY = -1;

  00047	89 41 54	 mov	 DWORD PTR [ecx+84], eax

; 104  : 		m_iNPC_BASE_DX = -1;

  0004a	89 41 58	 mov	 DWORD PTR [ecx+88], eax

; 105  : 		m_iNPC_BASE_DY = -1;

  0004d	89 41 5c	 mov	 DWORD PTR [ecx+92], eax

; 106  : 		m_iNPC_BASE_DIR = -1;

  00050	89 41 60	 mov	 DWORD PTR [ecx+96], eax

; 107  : 		m_iCsNpcExistVal = 0;

  00053	89 51 70	 mov	 DWORD PTR [ecx+112], edx

; 108  : 	}

  00056	c3		 ret	 0
?Clear@_CS_NPC_DATA@@QAEXXZ ENDP			; _CS_NPC_DATA::Clear
_TEXT	ENDS
EXTRN	??3@YAXPAX@Z:PROC				; operator delete
; Function compile flags: /Ogtp
;	COMDAT ??_G_CS_NPC_DATA@@UAEPAXI@Z
_TEXT	SEGMENT
___flags$ = 8						; size = 4
??_G_CS_NPC_DATA@@UAEPAXI@Z PROC			; _CS_NPC_DATA::`scalar deleting destructor', COMDAT
; _this$ = ecx
  00000	55		 push	 ebp
  00001	8b ec		 mov	 ebp, esp
  00003	f6 45 08 01	 test	 BYTE PTR ___flags$[ebp], 1
  00007	56		 push	 esi
  00008	8b f1		 mov	 esi, ecx
  0000a	c7 06 00 00 00
	00		 mov	 DWORD PTR [esi], OFFSET ??_7_CS_NPC_DATA@@6B@
  00010	74 09		 je	 SHORT $LN6@scalar
  00012	56		 push	 esi
  00013	e8 00 00 00 00	 call	 ??3@YAXPAX@Z		; operator delete
  00018	83 c4 04	 add	 esp, 4
$LN6@scalar:
  0001b	8b c6		 mov	 eax, esi
  0001d	5e		 pop	 esi
  0001e	5d		 pop	 ebp
  0001f	c2 04 00	 ret	 4
??_G_CS_NPC_DATA@@UAEPAXI@Z ENDP			; _CS_NPC_DATA::`scalar deleting destructor'
_TEXT	ENDS
PUBLIC	?IsScroll@SnakeBegins@@QAE_NG@Z			; SnakeBegins::IsScroll
; Function compile flags: /Ogtp
; File c:\muserver_dev\development\mu-s8ep2-repack\gameserver\source\snakebegins.h
;	COMDAT ?IsScroll@SnakeBegins@@QAE_NG@Z
_TEXT	SEGMENT
_ItemType$ = 8						; size = 2
?IsScroll@SnakeBegins@@QAE_NG@Z PROC			; SnakeBegins::IsScroll, COMDAT
; _this$ = ecx

; 18   : 	bool	IsScroll(WORD ItemType) { return ItemType >= ITEMGET(14, 210) && ItemType <= ITEMGET(14, 213); };

  00000	55		 push	 ebp
  00001	8b ec		 mov	 ebp, esp
  00003	8b 45 08	 mov	 eax, DWORD PTR _ItemType$[ebp]
  00006	05 2e e3 ff ff	 add	 eax, -7378		; ffffe32eH
  0000b	66 b9 03 00	 mov	 cx, 3
  0000f	66 3b c8	 cmp	 cx, ax
  00012	1b c0		 sbb	 eax, eax
  00014	40		 inc	 eax
  00015	5d		 pop	 ebp
  00016	c2 04 00	 ret	 4
?IsScroll@SnakeBegins@@QAE_NG@Z ENDP			; SnakeBegins::IsScroll
_TEXT	ENDS
PUBLIC	?IsDuel@CNewPVP@@QAEHAAUOBJECTSTRUCT@@@Z	; CNewPVP::IsDuel
; Function compile flags: /Ogtp
; File c:\muserver_dev\development\mu-s8ep2-repack\gameserver\source\newpvp.h
;	COMDAT ?IsDuel@CNewPVP@@QAEHAAUOBJECTSTRUCT@@@Z
_TEXT	SEGMENT
_obj$ = 8						; size = 4
?IsDuel@CNewPVP@@QAEHAAUOBJECTSTRUCT@@@Z PROC		; CNewPVP::IsDuel, COMDAT
; _this$ = ecx

; 296  : 	{

  00000	55		 push	 ebp
  00001	8b ec		 mov	 ebp, esp

; 297  : 		return CHECK_LIMIT(obj.m_iDuelUser, OBJMAX);

  00003	8b 45 08	 mov	 eax, DWORD PTR _obj$[ebp]
  00006	8b 80 50 12 00
	00		 mov	 eax, DWORD PTR [eax+4688]
  0000c	85 c0		 test	 eax, eax
  0000e	79 06		 jns	 SHORT $LN3@IsDuel
  00010	33 c0		 xor	 eax, eax

; 298  : 	}

  00012	5d		 pop	 ebp
  00013	c2 04 00	 ret	 4
$LN3@IsDuel:

; 297  : 		return CHECK_LIMIT(obj.m_iDuelUser, OBJMAX);

  00016	33 c9		 xor	 ecx, ecx
  00018	3d eb 2c 00 00	 cmp	 eax, 11499		; 00002cebH
  0001d	0f 9e c1	 setle	 cl
  00020	8b c1		 mov	 eax, ecx

; 298  : 	}

  00022	5d		 pop	 ebp
  00023	c2 04 00	 ret	 4
?IsDuel@CNewPVP@@QAEHAAUOBJECTSTRUCT@@@Z ENDP		; CNewPVP::IsDuel
_TEXT	ENDS
PUBLIC	?IsVulcanusMap@CNewPVP@@QAEHH@Z			; CNewPVP::IsVulcanusMap
; Function compile flags: /Ogtp
;	COMDAT ?IsVulcanusMap@CNewPVP@@QAEHH@Z
_TEXT	SEGMENT
_nMapNumber$ = 8					; size = 4
?IsVulcanusMap@CNewPVP@@QAEHH@Z PROC			; CNewPVP::IsVulcanusMap, COMDAT
; _this$ = ecx

; 307  : 	{

  00000	55		 push	 ebp
  00001	8b ec		 mov	 ebp, esp

; 308  : 		return nMapNumber == MAP_INDEX_VULCANUS;

  00003	33 c0		 xor	 eax, eax
  00005	83 7d 08 3f	 cmp	 DWORD PTR _nMapNumber$[ebp], 63 ; 0000003fH
  00009	0f 94 c0	 sete	 al

; 309  : 	}

  0000c	5d		 pop	 ebp
  0000d	c2 04 00	 ret	 4
?IsVulcanusMap@CNewPVP@@QAEHH@Z ENDP			; CNewPVP::IsVulcanusMap
_TEXT	ENDS
PUBLIC	?IsPKFieldMap@CNewPVP@@QAEHH@Z			; CNewPVP::IsPKFieldMap
; Function compile flags: /Ogtp
;	COMDAT ?IsPKFieldMap@CNewPVP@@QAEHH@Z
_TEXT	SEGMENT
_nMapNumber$ = 8					; size = 4
?IsPKFieldMap@CNewPVP@@QAEHH@Z PROC			; CNewPVP::IsPKFieldMap, COMDAT
; _this$ = ecx

; 312  : 	{

  00000	55		 push	 ebp
  00001	8b ec		 mov	 ebp, esp

; 313  : 		return nMapNumber == MAP_INDEX_PKFIELD;

  00003	33 c0		 xor	 eax, eax
  00005	83 7d 08 40	 cmp	 DWORD PTR _nMapNumber$[ebp], 64 ; 00000040H
  00009	0f 94 c0	 sete	 al

; 314  : 	}

  0000c	5d		 pop	 ebp
  0000d	c2 04 00	 ret	 4
?IsPKFieldMap@CNewPVP@@QAEHH@Z ENDP			; CNewPVP::IsPKFieldMap
_TEXT	ENDS
PUBLIC	?getInstance@MonsterSpawnerMng@@SAPAV1@XZ	; MonsterSpawnerMng::getInstance
EXTRN	??0MonsterSpawnerMng@@QAE@XZ:PROC		; MonsterSpawnerMng::MonsterSpawnerMng
EXTRN	??2@YAPAXI@Z:PROC				; operator new
EXTRN	?m_Instance@MonsterSpawnerMng@@0PAV1@A:DWORD	; MonsterSpawnerMng::m_Instance
;	COMDAT xdata$x
; File c:\muserver_dev\development\mu-s8ep2-repack\gameserver\source\monsterspawner.h
xdata$x	SEGMENT
__unwindtable$?getInstance@MonsterSpawnerMng@@SAPAV1@XZ DD 0ffffffffH
	DD	FLAT:__unwindfunclet$?getInstance@MonsterSpawnerMng@@SAPAV1@XZ$0
__ehfuncinfo$?getInstance@MonsterSpawnerMng@@SAPAV1@XZ DD 019930522H
	DD	01H
	DD	FLAT:__unwindtable$?getInstance@MonsterSpawnerMng@@SAPAV1@XZ
	DD	2 DUP(00H)
	DD	2 DUP(00H)
	DD	00H
	DD	01H
; Function compile flags: /Ogtp
xdata$x	ENDS
;	COMDAT ?getInstance@MonsterSpawnerMng@@SAPAV1@XZ
_TEXT	SEGMENT
$T233450 = -16						; size = 4
__$EHRec$ = -12						; size = 12
?getInstance@MonsterSpawnerMng@@SAPAV1@XZ PROC		; MonsterSpawnerMng::getInstance, COMDAT

; 137  : 	static MonsterSpawnerMng* getInstance() {

  00000	55		 push	 ebp
  00001	8b ec		 mov	 ebp, esp
  00003	6a ff		 push	 -1
  00005	68 00 00 00 00	 push	 __ehhandler$?getInstance@MonsterSpawnerMng@@SAPAV1@XZ
  0000a	64 a1 00 00 00
	00		 mov	 eax, DWORD PTR fs:0
  00010	50		 push	 eax
  00011	51		 push	 ecx
  00012	a1 00 00 00 00	 mov	 eax, DWORD PTR ___security_cookie
  00017	33 c5		 xor	 eax, ebp
  00019	50		 push	 eax
  0001a	8d 45 f4	 lea	 eax, DWORD PTR __$EHRec$[ebp]
  0001d	64 a3 00 00 00
	00		 mov	 DWORD PTR fs:0, eax

; 138  : 		if (m_Instance == NULL) {

  00023	a1 00 00 00 00	 mov	 eax, DWORD PTR ?m_Instance@MonsterSpawnerMng@@0PAV1@A ; MonsterSpawnerMng::m_Instance
  00028	85 c0		 test	 eax, eax
  0002a	75 3a		 jne	 SHORT $LN1@getInstanc

; 139  : 			m_Instance = new MonsterSpawnerMng();

  0002c	6a 24		 push	 36			; 00000024H
  0002e	e8 00 00 00 00	 call	 ??2@YAPAXI@Z		; operator new
  00033	83 c4 04	 add	 esp, 4
  00036	89 45 f0	 mov	 DWORD PTR $T233450[ebp], eax
  00039	c7 45 fc 00 00
	00 00		 mov	 DWORD PTR __$EHRec$[ebp+8], 0
  00040	85 c0		 test	 eax, eax
  00042	74 1b		 je	 SHORT $LN4@getInstanc
  00044	8b c8		 mov	 ecx, eax
  00046	e8 00 00 00 00	 call	 ??0MonsterSpawnerMng@@QAE@XZ ; MonsterSpawnerMng::MonsterSpawnerMng
  0004b	a3 00 00 00 00	 mov	 DWORD PTR ?m_Instance@MonsterSpawnerMng@@0PAV1@A, eax ; MonsterSpawnerMng::m_Instance

; 140  : 		}
; 141  : 		return m_Instance;
; 142  : 	}

  00050	8b 4d f4	 mov	 ecx, DWORD PTR __$EHRec$[ebp]
  00053	64 89 0d 00 00
	00 00		 mov	 DWORD PTR fs:0, ecx
  0005a	59		 pop	 ecx
  0005b	8b e5		 mov	 esp, ebp
  0005d	5d		 pop	 ebp
  0005e	c3		 ret	 0
$LN4@getInstanc:

; 139  : 			m_Instance = new MonsterSpawnerMng();

  0005f	33 c0		 xor	 eax, eax
  00061	a3 00 00 00 00	 mov	 DWORD PTR ?m_Instance@MonsterSpawnerMng@@0PAV1@A, eax ; MonsterSpawnerMng::m_Instance
$LN1@getInstanc:

; 140  : 		}
; 141  : 		return m_Instance;
; 142  : 	}

  00066	8b 4d f4	 mov	 ecx, DWORD PTR __$EHRec$[ebp]
  00069	64 89 0d 00 00
	00 00		 mov	 DWORD PTR fs:0, ecx
  00070	59		 pop	 ecx
  00071	8b e5		 mov	 esp, ebp
  00073	5d		 pop	 ebp
  00074	c3		 ret	 0
_TEXT	ENDS
;	COMDAT text$x
text$x	SEGMENT
__unwindfunclet$?getInstance@MonsterSpawnerMng@@SAPAV1@XZ$0:
  00000	8b 45 f0	 mov	 eax, DWORD PTR $T233450[ebp]
  00003	50		 push	 eax
  00004	e8 00 00 00 00	 call	 ??3@YAXPAX@Z		; operator delete
  00009	59		 pop	 ecx
  0000a	c3		 ret	 0
__ehhandler$?getInstance@MonsterSpawnerMng@@SAPAV1@XZ:
  0000b	8b 54 24 08	 mov	 edx, DWORD PTR [esp+8]
  0000f	8d 42 0c	 lea	 eax, DWORD PTR [edx+12]
  00012	8b 4a f8	 mov	 ecx, DWORD PTR [edx-8]
  00015	33 c8		 xor	 ecx, eax
  00017	e8 00 00 00 00	 call	 @__security_check_cookie@4
  0001c	b8 00 00 00 00	 mov	 eax, OFFSET __ehfuncinfo$?getInstance@MonsterSpawnerMng@@SAPAV1@XZ
  00021	e9 00 00 00 00	 jmp	 ___CxxFrameHandler3
text$x	ENDS
?getInstance@MonsterSpawnerMng@@SAPAV1@XZ ENDP		; MonsterSpawnerMng::getInstance
PUBLIC	?PacketCheckTime@@YAHPAUOBJECTSTRUCT@@@Z	; PacketCheckTime
; Function compile flags: /Ogtp
; File c:\muserver_dev\development\mu-s8ep2-repack\gameserver\source\protocol.cpp
;	COMDAT ?PacketCheckTime@@YAHPAUOBJECTSTRUCT@@@Z
_TEXT	SEGMENT
_lpObj$ = 8						; size = 4
?PacketCheckTime@@YAHPAUOBJECTSTRUCT@@@Z PROC		; PacketCheckTime, COMDAT

; 117  : {

  00000	55		 push	 ebp
  00001	8b ec		 mov	 ebp, esp
  00003	56		 push	 esi

; 118  : 	if ( ( GetTickCount() - lpObj->m_PacketCheckTime ) < 300 )

  00004	8b 75 08	 mov	 esi, DWORD PTR _lpObj$[ebp]
  00007	57		 push	 edi
  00008	8b 3d 00 00 00
	00		 mov	 edi, DWORD PTR __imp__GetTickCount@0
  0000e	ff d7		 call	 edi
  00010	2b 86 7c 05 00
	00		 sub	 eax, DWORD PTR [esi+1404]
  00016	3d 2c 01 00 00	 cmp	 eax, 300		; 0000012cH
  0001b	73 06		 jae	 SHORT $LN1@PacketChec

; 119  : 	{
; 120  : 		return FALSE;

  0001d	5f		 pop	 edi
  0001e	33 c0		 xor	 eax, eax
  00020	5e		 pop	 esi

; 125  : }

  00021	5d		 pop	 ebp
  00022	c3		 ret	 0
$LN1@PacketChec:

; 121  : 	}
; 122  : 
; 123  : 	lpObj->m_PacketCheckTime = GetTickCount();

  00023	ff d7		 call	 edi
  00025	89 86 7c 05 00
	00		 mov	 DWORD PTR [esi+1404], eax
  0002b	5f		 pop	 edi

; 124  : 	return TRUE;

  0002c	b8 01 00 00 00	 mov	 eax, 1
  00031	5e		 pop	 esi

; 125  : }

  00032	5d		 pop	 ebp
  00033	c3		 ret	 0
?PacketCheckTime@@YAHPAUOBJECTSTRUCT@@@Z ENDP		; PacketCheckTime
_TEXT	ENDS
PUBLIC	??_C@_0BN@LAHEKONH@Error?9L1?5?3?5Not?5Encrypt?5?$CFs?5?$CFd?$AA@ ; `string'
PUBLIC	?DataEncryptCheck@@YAHHEH@Z			; DataEncryptCheck
EXTRN	?CloseClient@@YAXH@Z:PROC			; CloseClient
EXTRN	?gObj@@3PAUOBJECTSTRUCT@@A:DWORD		; gObj
;	COMDAT ??_C@_0BN@LAHEKONH@Error?9L1?5?3?5Not?5Encrypt?5?$CFs?5?$CFd?$AA@
CONST	SEGMENT
??_C@_0BN@LAHEKONH@Error?9L1?5?3?5Not?5Encrypt?5?$CFs?5?$CFd?$AA@ DB 'Err'
	DB	'or-L1 : Not Encrypt %s %d', 00H		; `string'
; Function compile flags: /Ogtp
CONST	ENDS
;	COMDAT ?DataEncryptCheck@@YAHHEH@Z
_TEXT	SEGMENT
_aIndex$ = 8						; size = 4
_protoNum$ = 12						; size = 1
_Encrypt$ = 16						; size = 4
?DataEncryptCheck@@YAHHEH@Z PROC			; DataEncryptCheck, COMDAT

; 133  : {

  00000	55		 push	 ebp
  00001	8b ec		 mov	 ebp, esp

; 134  : 	if ( Encrypt == FALSE )

  00003	83 7d 10 00	 cmp	 DWORD PTR _Encrypt$[ebp], 0
  00007	75 35		 jne	 SHORT $LN1@DataEncryp

; 135  : 	{
; 136  : 		LogAdd("Error-L1 : Not Encrypt %s %d", gObj[aIndex].AccountID, protoNum);

  00009	0f b6 45 0c	 movzx	 eax, BYTE PTR _protoNum$[ebp]
  0000d	8b 15 00 00 00
	00		 mov	 edx, DWORD PTR ?gObj@@3PAUOBJECTSTRUCT@@A ; gObj
  00013	56		 push	 esi
  00014	8b 75 08	 mov	 esi, DWORD PTR _aIndex$[ebp]
  00017	8b ce		 mov	 ecx, esi
  00019	69 c9 40 27 00
	00		 imul	 ecx, 10048		; 00002740H
  0001f	50		 push	 eax
  00020	8d 44 11 52	 lea	 eax, DWORD PTR [ecx+edx+82]
  00024	50		 push	 eax
  00025	68 00 00 00 00	 push	 OFFSET ??_C@_0BN@LAHEKONH@Error?9L1?5?3?5Not?5Encrypt?5?$CFs?5?$CFd?$AA@
  0002a	ff 15 00 00 00
	00		 call	 DWORD PTR ?LogAdd@@3P6AXPADZZA ; LogAdd

; 137  : 		CloseClient(aIndex);

  00030	56		 push	 esi
  00031	e8 00 00 00 00	 call	 ?CloseClient@@YAXH@Z	; CloseClient
  00036	83 c4 10	 add	 esp, 16			; 00000010H

; 138  : 		return FALSE;

  00039	33 c0		 xor	 eax, eax
  0003b	5e		 pop	 esi

; 142  : }

  0003c	5d		 pop	 ebp
  0003d	c3		 ret	 0
$LN1@DataEncryp:

; 139  : 	}
; 140  : 
; 141  : 	return TRUE;

  0003e	b8 01 00 00 00	 mov	 eax, 1

; 142  : }

  00043	5d		 pop	 ebp
  00044	c3		 ret	 0
?DataEncryptCheck@@YAHHEH@Z ENDP			; DataEncryptCheck
_TEXT	ENDS
PUBLIC	??_C@_0P@KNPEEFN@TEST?5Data?5Send?$AA@		; `string'
PUBLIC	__$ArrayPad$
PUBLIC	?TestSend@@YAXXZ				; TestSend
EXTRN	?DataSend@@YAHHPAEK@Z:PROC			; DataSend
;	COMDAT ??_C@_0P@KNPEEFN@TEST?5Data?5Send?$AA@
CONST	SEGMENT
??_C@_0P@KNPEEFN@TEST?5Data?5Send?$AA@ DB 'TEST Data Send', 00H ; `string'
; Function compile flags: /Ogtp
CONST	ENDS
;	COMDAT ?TestSend@@YAXXZ
_TEXT	SEGMENT
_pMsg$ = -2008						; size = 2004
__$ArrayPad$ = -4					; size = 4
?TestSend@@YAXXZ PROC					; TestSend, COMDAT

; 1381 : {

  00000	55		 push	 ebp
  00001	8b ec		 mov	 ebp, esp
  00003	81 ec d8 07 00
	00		 sub	 esp, 2008		; 000007d8H
  00009	a1 00 00 00 00	 mov	 eax, DWORD PTR ___security_cookie
  0000e	33 c5		 xor	 eax, ebp
  00010	89 45 fc	 mov	 DWORD PTR __$ArrayPad$[ebp], eax

; 1382 : 	PMSG_TEST pMsg;
; 1383 : 	int size = sizeof(pMsg);
; 1384 : 	pMsg.h.c = 0xC2;
; 1385 : 	pMsg.h.headcode = 0xFF;	// Test Packet
; 1386 : 	pMsg.h.sizeH = SET_NUMBERH(size);
; 1387 : 	pMsg.h.sizeL = SET_NUMBERL(size);
; 1388 : 	DataSend( tempindex, (LPBYTE)&pMsg, size);

  00013	8b 0d 00 00 00
	00		 mov	 ecx, DWORD PTR ?tempindex@@3HA ; tempindex
  00019	68 d4 07 00 00	 push	 2004			; 000007d4H
  0001e	8d 85 28 f8 ff
	ff		 lea	 eax, DWORD PTR _pMsg$[ebp]
  00024	50		 push	 eax
  00025	51		 push	 ecx
  00026	c7 85 28 f8 ff
	ff c2 07 d4 ff	 mov	 DWORD PTR _pMsg$[ebp], -2881598 ; ffd407c2H
  00030	e8 00 00 00 00	 call	 ?DataSend@@YAHHPAEK@Z	; DataSend

; 1389 : 	DataSend( tempindex, (LPBYTE)&pMsg, size);

  00035	a1 00 00 00 00	 mov	 eax, DWORD PTR ?tempindex@@3HA ; tempindex
  0003a	68 d4 07 00 00	 push	 2004			; 000007d4H
  0003f	8d 95 28 f8 ff
	ff		 lea	 edx, DWORD PTR _pMsg$[ebp]
  00045	52		 push	 edx
  00046	50		 push	 eax
  00047	e8 00 00 00 00	 call	 ?DataSend@@YAHHPAEK@Z	; DataSend

; 1390 : 	LogAdd("TEST Data Send");

  0004c	68 00 00 00 00	 push	 OFFSET ??_C@_0P@KNPEEFN@TEST?5Data?5Send?$AA@
  00051	ff 15 00 00 00
	00		 call	 DWORD PTR ?LogAdd@@3P6AXPADZZA ; LogAdd

; 1391 : }

  00057	8b 4d fc	 mov	 ecx, DWORD PTR __$ArrayPad$[ebp]
  0005a	33 cd		 xor	 ecx, ebp
  0005c	83 c4 1c	 add	 esp, 28			; 0000001cH
  0005f	e8 00 00 00 00	 call	 @__security_check_cookie@4
  00064	8b e5		 mov	 esp, ebp
  00066	5d		 pop	 ebp
  00067	c3		 ret	 0
?TestSend@@YAXXZ ENDP					; TestSend
_TEXT	ENDS
PUBLIC	?MsgSendV2@@YAXPAUOBJECTSTRUCT@@PAEH@Z		; MsgSendV2
; Function compile flags: /Ogtp
;	COMDAT ?MsgSendV2@@YAXPAUOBJECTSTRUCT@@PAEH@Z
_TEXT	SEGMENT
_lpObj$ = 8						; size = 4
_Msg$ = 12						; size = 4
_size$ = 16						; size = 4
?MsgSendV2@@YAXPAUOBJECTSTRUCT@@PAEH@Z PROC		; MsgSendV2, COMDAT

; 1401 : {

  00000	55		 push	 ebp
  00001	8b ec		 mov	 ebp, esp
  00003	53		 push	 ebx

; 1402 : 	for ( int n=0;n<MAX_VIEWPORT;n++)

  00004	8b 5d 10	 mov	 ebx, DWORD PTR _size$[ebp]
  00007	56		 push	 esi
  00008	8b 75 08	 mov	 esi, DWORD PTR _lpObj$[ebp]
  0000b	57		 push	 edi
  0000c	81 c6 48 0c 00
	00		 add	 esi, 3144		; 00000c48H
  00012	bf 4b 00 00 00	 mov	 edi, 75			; 0000004bH
$LL5@MsgSendV2:

; 1403 : 	{
; 1404 : 		if ( lpObj->VpPlayer2[n].type == OBJ_USER )

  00017	80 7e 04 01	 cmp	 BYTE PTR [esi+4], 1
  0001b	75 17		 jne	 SHORT $LN4@MsgSendV2

; 1405 : 		{
; 1406 : 			if ( lpObj->VpPlayer2[n].state != 0 )

  0001d	80 3e 00	 cmp	 BYTE PTR [esi], 0
  00020	74 12		 je	 SHORT $LN4@MsgSendV2

; 1407 : 			{
; 1408 : 				DataSend(lpObj->VpPlayer2[n].number, Msg, size);

  00022	8b 45 0c	 mov	 eax, DWORD PTR _Msg$[ebp]
  00025	0f bf 4e 02	 movsx	 ecx, WORD PTR [esi+2]
  00029	53		 push	 ebx
  0002a	50		 push	 eax
  0002b	51		 push	 ecx
  0002c	e8 00 00 00 00	 call	 ?DataSend@@YAHHPAEK@Z	; DataSend
  00031	83 c4 0c	 add	 esp, 12			; 0000000cH
$LN4@MsgSendV2:

; 1402 : 	for ( int n=0;n<MAX_VIEWPORT;n++)

  00034	83 c6 0c	 add	 esi, 12			; 0000000cH
  00037	4f		 dec	 edi
  00038	75 dd		 jne	 SHORT $LL5@MsgSendV2
  0003a	5f		 pop	 edi
  0003b	5e		 pop	 esi
  0003c	5b		 pop	 ebx

; 1409 : 			}
; 1410 : 		}
; 1411 : 	}
; 1412 : }

  0003d	5d		 pop	 ebp
  0003e	c3		 ret	 0
?MsgSendV2@@YAXPAUOBJECTSTRUCT@@PAEH@Z ENDP		; MsgSendV2
_TEXT	ENDS
PUBLIC	??_C@_0EJ@EJAGKNML@?$FL?$CFs?$FN?$FL?$CFs?$FN?$FL?$CFs?$FN?5ClientHack?5Detected@ ; `string'
PUBLIC	?CGLiveClient@@YAXPAUPMSG_CLIENTTIME@@F@Z	; CGLiveClient
EXTRN	?LogAddC@@3P6AXEPADZZA:DWORD			; LogAddC
;	COMDAT ??_C@_0EJ@EJAGKNML@?$FL?$CFs?$FN?$FL?$CFs?$FN?$FL?$CFs?$FN?5ClientHack?5Detected@
CONST	SEGMENT
??_C@_0EJ@EJAGKNML@?$FL?$CFs?$FN?$FL?$CFs?$FN?$FL?$CFs?$FN?5ClientHack?5Detected@ DB '['
	DB	'%s][%s][%s] ClientHack Detected : Editing AttackSpeed [%d][%d'
	DB	'] [%d][%d]', 00H				; `string'
; Function compile flags: /Ogtp
CONST	ENDS
;	COMDAT ?CGLiveClient@@YAXPAUPMSG_CLIENTTIME@@F@Z
_TEXT	SEGMENT
_lpClientTime$ = 8					; size = 4
_aIndex$ = 12						; size = 2
?CGLiveClient@@YAXPAUPMSG_CLIENTTIME@@F@Z PROC		; CGLiveClient, COMDAT

; 1417 : {

  00000	55		 push	 ebp
  00001	8b ec		 mov	 ebp, esp

; 1418 : VM_START
; 1419 : 
; 1420 : 	if ( gObj[aIndex].Connected > PLAYER_CONNECTED )

  00003	a1 00 00 00 00	 mov	 eax, DWORD PTR ?gObj@@3PAUOBJECTSTRUCT@@A ; gObj
  00008	56		 push	 esi
  00009	0f bf 75 0c	 movsx	 esi, WORD PTR _aIndex$[ebp]
  0000d	69 f6 40 27 00
	00		 imul	 esi, 10048		; 00002740H
  00013	83 7c 06 04 01	 cmp	 DWORD PTR [esi+eax+4], 1
  00018	7e 15		 jle	 SHORT $LN6@CGLiveClie

; 1421 : 	{
; 1422 : 		gObj[aIndex].ConnectCheckTime = GetTickCount();

  0001a	ff 15 00 00 00
	00		 call	 DWORD PTR __imp__GetTickCount@0
  00020	8b 0d 00 00 00
	00		 mov	 ecx, DWORD PTR ?gObj@@3PAUOBJECTSTRUCT@@A ; gObj
  00026	89 44 0e 3c	 mov	 DWORD PTR [esi+ecx+60], eax
  0002a	a1 00 00 00 00	 mov	 eax, DWORD PTR ?gObj@@3PAUOBJECTSTRUCT@@A ; gObj
$LN6@CGLiveClie:

; 1423 : 	}
; 1424 : 
; 1425 : 	if ( gObj[aIndex].Connected == PLAYER_PLAYING )

  0002f	83 7c 06 04 03	 cmp	 DWORD PTR [esi+eax+4], 3
  00034	0f 85 85 00 00
	00		 jne	 $LN2@CGLiveClie

; 1426 : 	{
; 1427 : 		if ( gObj[aIndex].m_AttackSpeed < lpClientTime->AttackSpeed || gObj[aIndex].m_MagicSpeed < lpClientTime->MagicSpeed )

  0003a	8b 94 06 6c 06
	00 00		 mov	 edx, DWORD PTR [esi+eax+1644]
  00041	57		 push	 edi
  00042	8b 7d 08	 mov	 edi, DWORD PTR _lpClientTime$[ebp]
  00045	0f b7 4f 08	 movzx	 ecx, WORD PTR [edi+8]
  00049	3b d1		 cmp	 edx, ecx
  0004b	7c 1b		 jl	 SHORT $LN9@CGLiveClie
  0004d	53		 push	 ebx
  0004e	0f b7 5f 0a	 movzx	 ebx, WORD PTR [edi+10]
  00052	39 9c 06 70 06
	00 00		 cmp	 DWORD PTR [esi+eax+1648], ebx
  00059	5b		 pop	 ebx
  0005a	7c 0c		 jl	 SHORT $LN9@CGLiveClie

; 1435 : 			}
; 1436 : 		}
; 1437 : 		else
; 1438 : 		{
; 1439 : 			gObj[aIndex].m_AttackSpeedHackDetectedCount = 0;

  0005c	5f		 pop	 edi
  0005d	c6 84 06 78 05
	00 00 00	 mov	 BYTE PTR [esi+eax+1400], 0
  00065	5e		 pop	 esi

; 1440 : 		}
; 1441 : 	}
; 1442 : VM_END
; 1443 : }

  00066	5d		 pop	 ebp
  00067	c3		 ret	 0
$LN9@CGLiveClie:

; 1428 : 		{
; 1429 : 			LogAddC(2, "[%s][%s][%s] ClientHack Detected : Editing AttackSpeed [%d][%d] [%d][%d]", gObj[aIndex].AccountID, gObj[aIndex].Name, gObj[aIndex].Ip_addr, gObj[aIndex].m_AttackSpeed, lpClientTime->AttackSpeed, gObj[aIndex].m_MagicSpeed, lpClientTime->MagicSpeed);

  00068	0f b7 7f 0a	 movzx	 edi, WORD PTR [edi+10]
  0006c	57		 push	 edi
  0006d	8b bc 06 70 06
	00 00		 mov	 edi, DWORD PTR [esi+eax+1648]
  00074	57		 push	 edi
  00075	51		 push	 ecx
  00076	52		 push	 edx
  00077	8d 54 06 1c	 lea	 edx, DWORD PTR [esi+eax+28]
  0007b	52		 push	 edx
  0007c	8d 4c 06 5d	 lea	 ecx, DWORD PTR [esi+eax+93]
  00080	51		 push	 ecx
  00081	8d 54 06 52	 lea	 edx, DWORD PTR [esi+eax+82]
  00085	52		 push	 edx
  00086	68 00 00 00 00	 push	 OFFSET ??_C@_0EJ@EJAGKNML@?$FL?$CFs?$FN?$FL?$CFs?$FN?$FL?$CFs?$FN?5ClientHack?5Detected@
  0008b	6a 02		 push	 2
  0008d	ff 15 00 00 00
	00		 call	 DWORD PTR ?LogAddC@@3P6AXEPADZZA ; LogAddC

; 1430 : 			gObj[aIndex].m_AttackSpeedHackDetectedCount++;

  00093	a1 00 00 00 00	 mov	 eax, DWORD PTR ?gObj@@3PAUOBJECTSTRUCT@@A ; gObj
  00098	fe 84 06 78 05
	00 00		 inc	 BYTE PTR [esi+eax+1400]

; 1431 : 
; 1432 : 			if ( gObj[aIndex].m_AttackSpeedHackDetectedCount > 3 )

  0009f	a1 00 00 00 00	 mov	 eax, DWORD PTR ?gObj@@3PAUOBJECTSTRUCT@@A ; gObj
  000a4	83 c4 24	 add	 esp, 36			; 00000024H
  000a7	80 bc 06 78 05
	00 00 03	 cmp	 BYTE PTR [esi+eax+1400], 3
  000af	76 0d		 jbe	 SHORT $LN10@CGLiveClie

; 1433 : 			{
; 1434 : 				CloseClient(aIndex);

  000b1	0f bf 45 0c	 movsx	 eax, WORD PTR _aIndex$[ebp]
  000b5	50		 push	 eax
  000b6	e8 00 00 00 00	 call	 ?CloseClient@@YAXH@Z	; CloseClient
  000bb	83 c4 04	 add	 esp, 4
$LN10@CGLiveClie:
  000be	5f		 pop	 edi
$LN2@CGLiveClie:
  000bf	5e		 pop	 esi

; 1440 : 		}
; 1441 : 	}
; 1442 : VM_END
; 1443 : }

  000c0	5d		 pop	 ebp
  000c1	c3		 ret	 0
?CGLiveClient@@YAXPAUPMSG_CLIENTTIME@@F@Z ENDP		; CGLiveClient
_TEXT	ENDS
PUBLIC	?EncryptCheckSumKey@@YAGG@Z			; EncryptCheckSumKey
EXTRN	_rand:PROC
; Function compile flags: /Ogtp
;	COMDAT ?EncryptCheckSumKey@@YAGG@Z
_TEXT	SEGMENT
_wSource$ = 8						; size = 2
?EncryptCheckSumKey@@YAGG@Z PROC			; EncryptCheckSumKey, COMDAT

; 1472 : {

  00000	55		 push	 ebp
  00001	8b ec		 mov	 ebp, esp

; 1473 : 	WORD wRandom = rand() % 64;

  00003	e8 00 00 00 00	 call	 _rand
  00008	25 3f 00 00 80	 and	 eax, -2147483585	; 8000003fH
  0000d	79 05		 jns	 SHORT $LN3@EncryptChe
  0000f	48		 dec	 eax
  00010	83 c8 c0	 or	 eax, -64		; ffffffc0H
  00013	40		 inc	 eax
$LN3@EncryptChe:

; 1474 : 	WORD wAcc = ((wSource & 0x3F0) * 64) | (wRandom *16) | (wSource & 0x0F);

  00014	8b 4d 08	 mov	 ecx, DWORD PTR _wSource$[ebp]
  00017	8b d1		 mov	 edx, ecx
  00019	81 e2 f0 03 00
	00		 and	 edx, 1008		; 000003f0H
  0001f	c1 e0 04	 shl	 eax, 4
  00022	c1 e2 06	 shl	 edx, 6
  00025	0b c2		 or	 eax, edx
  00027	83 e1 0f	 and	 ecx, 15			; 0000000fH
  0002a	0b c1		 or	 eax, ecx

; 1475 : 	return wAcc ^ 0xB479;

  0002c	35 79 b4 00 00	 xor	 eax, 46201		; 0000b479H

; 1476 : }

  00031	5d		 pop	 ebp
  00032	c3		 ret	 0
?EncryptCheckSumKey@@YAGG@Z ENDP			; EncryptCheckSumKey
_TEXT	ENDS
PUBLIC	?CGCheckMainRecv@@YAXPAUPMSG_CHECK_MAINEXE_RESULT@@H@Z ; CGCheckMainRecv
; Function compile flags: /Ogtp
;	COMDAT ?CGCheckMainRecv@@YAXPAUPMSG_CHECK_MAINEXE_RESULT@@H@Z
_TEXT	SEGMENT
_lpMsg$ = 8						; size = 4
_aIndex$ = 12						; size = 4
?CGCheckMainRecv@@YAXPAUPMSG_CHECK_MAINEXE_RESULT@@H@Z PROC ; CGCheckMainRecv, COMDAT

; 1484 : {

  00000	55		 push	 ebp
  00001	8b ec		 mov	 ebp, esp

; 1485 : 	/*if ( strcmp(gObj[aIndex].Ip_addr, "89.28.120.69") == 0 )	// #warning To Prevent HAckrs
; 1486 : 	{
; 1487 : 		gObj[aIndex].CheckSumTime = 0;
; 1488 : 		gObj[aIndex].m_InWebzen = true;
; 1489 : 		return;
; 1490 : 	}*/
; 1491 : 
; 1492 : 	gObj[aIndex].CheckSumTime = 0;

  00003	8b 45 0c	 mov	 eax, DWORD PTR _aIndex$[ebp]
  00006	8b 0d 00 00 00
	00		 mov	 ecx, DWORD PTR ?gObj@@3PAUOBJECTSTRUCT@@A ; gObj
  0000c	69 c0 40 27 00
	00		 imul	 eax, 10048		; 00002740H
  00012	c7 44 08 4c 00
	00 00 00	 mov	 DWORD PTR [eax+ecx+76], 0

; 1493 : 	return;
; 1494 : 
; 1495 : 	if ( gObj[aIndex].CheckSumTableNum < 0 || gObj[aIndex].CheckSumTableNum > MAX_CHECKSUM_KEY-1 )
; 1496 : 	{
; 1497 : 		LogAdd("error-L1 : [%s][%s] CheckSum-Exe error ", gObj[aIndex].AccountID, gObj[aIndex].Name);
; 1498 : 		CloseClient(aIndex);
; 1499 : 		return;
; 1500 : 	}
; 1501 : 
; 1502 : 	if ( dwgCheckSum[gObj[aIndex].CheckSumTableNum] != lpMsg->m_dwKey)
; 1503 : 	{
; 1504 : 		LogAddTD("error-L1 : CheckSum-Exe error %d %d %d [%s]", dwgCheckSum[gObj[aIndex].CheckSumTableNum],
; 1505 : 			lpMsg->m_dwKey, gObj[aIndex].CheckSumTableNum, gObj[aIndex].AccountID);
; 1506 : 		CloseClient(aIndex);
; 1507 : 		return;
; 1508 : 	}
; 1509 : 
; 1510 : 	gObj[aIndex].CheckSumTime = 0;
; 1511 : }

  0001a	5d		 pop	 ebp
  0001b	c3		 ret	 0
?CGCheckMainRecv@@YAXPAUPMSG_CHECK_MAINEXE_RESULT@@H@Z ENDP ; CGCheckMainRecv
_TEXT	ENDS
PUBLIC	?PEchoProc@@YAXPAEHF@Z				; PEchoProc
; Function compile flags: /Ogtp
;	COMDAT ?PEchoProc@@YAXPAEHF@Z
_TEXT	SEGMENT
_aMsg$ = 8						; size = 4
_aLen$ = 12						; size = 4
_aIndex$ = 16						; size = 2
?PEchoProc@@YAXPAEHF@Z PROC				; PEchoProc, COMDAT

; 1520 : {

  00000	55		 push	 ebp
  00001	8b ec		 mov	 ebp, esp
  00003	53		 push	 ebx

; 1521 : 	for ( int n = 0 ; n< OBJMAX ; n++)

  00004	8b 5d 0c	 mov	 ebx, DWORD PTR _aLen$[ebp]
  00007	56		 push	 esi
  00008	57		 push	 edi
  00009	33 ff		 xor	 edi, edi
  0000b	33 f6		 xor	 esi, esi
  0000d	8d 49 00	 npad	 3
$LL4@PEchoProc:

; 1522 : 	{
; 1523 : 		if ( gObj[n].Connected >= PLAYER_CONNECTED )

  00010	a1 00 00 00 00	 mov	 eax, DWORD PTR ?gObj@@3PAUOBJECTSTRUCT@@A ; gObj
  00015	83 7c 06 04 01	 cmp	 DWORD PTR [esi+eax+4], 1
  0001a	7c 0e		 jl	 SHORT $LN3@PEchoProc

; 1524 : 		{
; 1525 : 			DataSend(n, aMsg, aLen);

  0001c	8b 4d 08	 mov	 ecx, DWORD PTR _aMsg$[ebp]
  0001f	53		 push	 ebx
  00020	51		 push	 ecx
  00021	57		 push	 edi
  00022	e8 00 00 00 00	 call	 ?DataSend@@YAHHPAEK@Z	; DataSend
  00027	83 c4 0c	 add	 esp, 12			; 0000000cH
$LN3@PEchoProc:

; 1521 : 	for ( int n = 0 ; n< OBJMAX ; n++)

  0002a	81 c6 40 27 00
	00		 add	 esi, 10048		; 00002740H
  00030	47		 inc	 edi
  00031	81 fe 00 2f e3
	06		 cmp	 esi, 115552000		; 06e32f00H
  00037	7c d7		 jl	 SHORT $LL4@PEchoProc
  00039	5f		 pop	 edi
  0003a	5e		 pop	 esi
  0003b	5b		 pop	 ebx

; 1526 : 		}
; 1527 : 	}
; 1528 : }

  0003c	5d		 pop	 ebp
  0003d	c3		 ret	 0
?PEchoProc@@YAXPAEHF@Z ENDP				; PEchoProc
_TEXT	ENDS
PUBLIC	?GCResultSend@@YAXHEE@Z				; GCResultSend
EXTRN	?PHeadSetB@@YAXPAEEH@Z:PROC			; PHeadSetB
; Function compile flags: /Ogtp
;	COMDAT ?GCResultSend@@YAXHEE@Z
_TEXT	SEGMENT
_pResult$ = -4						; size = 4
_aIndex$ = 8						; size = 4
_headcode$ = 12						; size = 1
_result$ = 16						; size = 1
?GCResultSend@@YAXHEE@Z PROC				; GCResultSend, COMDAT

; 1540 : {

  00000	55		 push	 ebp
  00001	8b ec		 mov	 ebp, esp
  00003	51		 push	 ecx

; 1541 : 	PMSG_DEFRESULT pResult;
; 1542 : 
; 1543 : 	PHeadSetB((LPBYTE)&pResult, headcode, sizeof(pResult));

  00004	8b 45 0c	 mov	 eax, DWORD PTR _headcode$[ebp]
  00007	6a 04		 push	 4
  00009	50		 push	 eax
  0000a	8d 4d fc	 lea	 ecx, DWORD PTR _pResult$[ebp]
  0000d	51		 push	 ecx
  0000e	e8 00 00 00 00	 call	 ?PHeadSetB@@YAXPAEEH@Z	; PHeadSetB

; 1544 : 	pResult.result = result;
; 1545 : 	
; 1546 : 	DataSend(aIndex, (UCHAR*)&pResult, pResult.h.size);

  00013	0f b6 45 fd	 movzx	 eax, BYTE PTR _pResult$[ebp+1]
  00017	8a 55 10	 mov	 dl, BYTE PTR _result$[ebp]
  0001a	50		 push	 eax
  0001b	8d 4d fc	 lea	 ecx, DWORD PTR _pResult$[ebp]
  0001e	88 55 ff	 mov	 BYTE PTR _pResult$[ebp+3], dl
  00021	8b 55 08	 mov	 edx, DWORD PTR _aIndex$[ebp]
  00024	51		 push	 ecx
  00025	52		 push	 edx
  00026	e8 00 00 00 00	 call	 ?DataSend@@YAHHPAEK@Z	; DataSend
  0002b	83 c4 18	 add	 esp, 24			; 00000018H

; 1547 : }

  0002e	8b e5		 mov	 esp, ebp
  00030	5d		 pop	 ebp
  00031	c3		 ret	 0
?GCResultSend@@YAXHEE@Z ENDP				; GCResultSend
_TEXT	ENDS
PUBLIC	__$ArrayPad$
PUBLIC	?ChatSend@@YAXPAUOBJECTSTRUCT@@PAD@Z		; ChatSend
; Function compile flags: /Ogtp
;	COMDAT ?ChatSend@@YAXPAUOBJECTSTRUCT@@PAD@Z
_TEXT	SEGMENT
_pMsg$ = -112						; size = 105
__$ArrayPad$ = -4					; size = 4
_lpObj$ = 8						; size = 4
_szChat$ = 12						; size = 4
?ChatSend@@YAXPAUOBJECTSTRUCT@@PAD@Z PROC		; ChatSend, COMDAT

; 1553 : {

  00000	55		 push	 ebp
  00001	8b ec		 mov	 ebp, esp
  00003	83 ec 70	 sub	 esp, 112		; 00000070H
  00006	a1 00 00 00 00	 mov	 eax, DWORD PTR ___security_cookie
  0000b	33 c5		 xor	 eax, ebp
  0000d	89 45 fc	 mov	 DWORD PTR __$ArrayPad$[ebp], eax
  00010	56		 push	 esi
  00011	8b 75 0c	 mov	 esi, DWORD PTR _szChat$[ebp]

; 1554 : 	int len = strlen(szChat);

  00014	8b c6		 mov	 eax, esi
  00016	57		 push	 edi
  00017	8b 7d 08	 mov	 edi, DWORD PTR _lpObj$[ebp]
  0001a	8d 50 01	 lea	 edx, DWORD PTR [eax+1]
  0001d	8d 49 00	 npad	 3
$LL7@ChatSend:
  00020	8a 08		 mov	 cl, BYTE PTR [eax]
  00022	40		 inc	 eax
  00023	84 c9		 test	 cl, cl
  00025	75 f9		 jne	 SHORT $LL7@ChatSend
  00027	2b c2		 sub	 eax, edx

; 1555 : 
; 1556 : 	if ( len < 1 )

  00029	8d 48 ff	 lea	 ecx, DWORD PTR [eax-1]
  0002c	83 f9 58	 cmp	 ecx, 88			; 00000058H
  0002f	77 48		 ja	 SHORT $LN3@ChatSend

; 1557 : 		return;
; 1558 : 
; 1559 : 	if ( len > MAX_CHAT_LEN-1 )
; 1560 : 		return;
; 1561 : 
; 1562 : /*	char szTempMsg[4096] = {0};
; 1563 : 	MultiByteToWideChar(1258, 0, szChat, len, (unsigned short *)szTempMsg, sizeof(szTempMsg));
; 1564 : 	memcpy(&pMsg.szChatMsg, szTempMsg, sizeof(pMsg.szChatMsg));
; 1565 : 	pMsg.szChatMsg[MAX_CHAT_LEN-2]=0;
; 1566 : 	pMsg.szChatMsg[MAX_CHAT_LEN-1]=0;
; 1567 : 	PHeadSetB((LPBYTE)&pMsg, 0x01, wcslen((unsigned short*)pMsg.szChatMsg)*2 + (sizeof(GC_CHATSEND)-sizeof(pMsg.szChatMsg)));
; 1568 : 	pMsg.sIndex[0] = lpObj->m_Index >> 8;
; 1569 : 	pMsg.sIndex[1] = lpObj->m_Index & 0xFF;*/
; 1570 : 
; 1571 : 	PMSG_CHATDATA_NUMBER pMsg;
; 1572 : 
; 1573 : 	PHeadSetB((LPBYTE)&pMsg, 0x01, len+6);

  00031	83 c0 06	 add	 eax, 6
  00034	50		 push	 eax
  00035	8d 55 90	 lea	 edx, DWORD PTR _pMsg$[ebp]
  00038	6a 01		 push	 1
  0003a	52		 push	 edx
  0003b	e8 00 00 00 00	 call	 ?PHeadSetB@@YAXPAEEH@Z	; PHeadSetB

; 1574 : 	strcpy(pMsg.chatmsg, szChat);

  00040	8d 55 95	 lea	 edx, DWORD PTR _pMsg$[ebp+5]
  00043	83 c4 0c	 add	 esp, 12			; 0000000cH
  00046	8b c6		 mov	 eax, esi
  00048	2b d6		 sub	 edx, esi
  0004a	8d 9b 00 00 00
	00		 npad	 6
$LL5@ChatSend:
  00050	8a 08		 mov	 cl, BYTE PTR [eax]
  00052	88 0c 02	 mov	 BYTE PTR [edx+eax], cl
  00055	40		 inc	 eax
  00056	84 c9		 test	 cl, cl
  00058	75 f6		 jne	 SHORT $LL5@ChatSend

; 1575 : 	pMsg.NumberH = SET_NUMBERH(lpObj->m_Index);

  0005a	8b 07		 mov	 eax, DWORD PTR [edi]

; 1576 : 	pMsg.NumberL = SET_NUMBERL(lpObj->m_Index);
; 1577 : 
; 1578 : 	MsgSendV2(lpObj, (UCHAR*)&pMsg, pMsg.h.size);

  0005c	0f b6 55 91	 movzx	 edx, BYTE PTR _pMsg$[ebp+1]
  00060	8a 0f		 mov	 cl, BYTE PTR [edi]
  00062	c1 e8 08	 shr	 eax, 8
  00065	88 45 93	 mov	 BYTE PTR _pMsg$[ebp+3], al
  00068	52		 push	 edx
  00069	8d 45 90	 lea	 eax, DWORD PTR _pMsg$[ebp]
  0006c	50		 push	 eax
  0006d	57		 push	 edi
  0006e	88 4d 94	 mov	 BYTE PTR _pMsg$[ebp+4], cl
  00071	e8 00 00 00 00	 call	 ?MsgSendV2@@YAXPAUOBJECTSTRUCT@@PAEH@Z ; MsgSendV2
  00076	83 c4 0c	 add	 esp, 12			; 0000000cH
$LN3@ChatSend:

; 1579 : }

  00079	8b 4d fc	 mov	 ecx, DWORD PTR __$ArrayPad$[ebp]
  0007c	5f		 pop	 edi
  0007d	33 cd		 xor	 ecx, ebp
  0007f	5e		 pop	 esi
  00080	e8 00 00 00 00	 call	 @__security_check_cookie@4
  00085	8b e5		 mov	 esp, ebp
  00087	5d		 pop	 ebp
  00088	c3		 ret	 0
?ChatSend@@YAXPAUOBJECTSTRUCT@@PAD@Z ENDP		; ChatSend
_TEXT	ENDS
PUBLIC	__$ArrayPad$
PUBLIC	?vChatSend@@YAXPAUOBJECTSTRUCT@@PADZZ		; vChatSend
EXTRN	_vsprintf:PROC
EXTRN	_memset:PROC
; Function compile flags: /Ogtp
;	COMDAT ?vChatSend@@YAXPAUOBJECTSTRUCT@@PADZZ
_TEXT	SEGMENT
_pMsg$ = -368						; size = 105
_szBuffer$ = -260					; size = 256
__$ArrayPad$ = -4					; size = 4
_lpObj$ = 8						; size = 4
_szChat$ = 12						; size = 4
?vChatSend@@YAXPAUOBJECTSTRUCT@@PADZZ PROC		; vChatSend, COMDAT

; 1586 : {

  00000	55		 push	 ebp
  00001	8b ec		 mov	 ebp, esp
  00003	81 ec 70 01 00
	00		 sub	 esp, 368		; 00000170H
  00009	a1 00 00 00 00	 mov	 eax, DWORD PTR ___security_cookie
  0000e	33 c5		 xor	 eax, ebp
  00010	89 45 fc	 mov	 DWORD PTR __$ArrayPad$[ebp], eax
  00013	56		 push	 esi
  00014	8b 75 08	 mov	 esi, DWORD PTR _lpObj$[ebp]

; 1587 : 	char szBuffer[256] = "";

  00017	68 ff 00 00 00	 push	 255			; 000000ffH
  0001c	8d 85 fd fe ff
	ff		 lea	 eax, DWORD PTR _szBuffer$[ebp+1]
  00022	6a 00		 push	 0
  00024	50		 push	 eax
  00025	c6 85 fc fe ff
	ff 00		 mov	 BYTE PTR _szBuffer$[ebp], 0
  0002c	e8 00 00 00 00	 call	 _memset

; 1588 : 	va_list pArguments;
; 1589 : 
; 1590 : 	va_start(pArguments, szChat);
; 1591 : 	vsprintf(szBuffer, szChat, pArguments);

  00031	8b 55 0c	 mov	 edx, DWORD PTR _szChat$[ebp]
  00034	8d 4d 10	 lea	 ecx, DWORD PTR _szChat$[ebp+4]
  00037	51		 push	 ecx
  00038	52		 push	 edx
  00039	8d 85 fc fe ff
	ff		 lea	 eax, DWORD PTR _szBuffer$[ebp]
  0003f	50		 push	 eax
  00040	e8 00 00 00 00	 call	 _vsprintf

; 1592 : 	va_end(pArguments);
; 1593 : 
; 1594 : 	int len = strlen(szBuffer);

  00045	8d 85 fc fe ff
	ff		 lea	 eax, DWORD PTR _szBuffer$[ebp]
  0004b	83 c4 18	 add	 esp, 24			; 00000018H
  0004e	8d 50 01	 lea	 edx, DWORD PTR [eax+1]
$LL7@vChatSend:
  00051	8a 08		 mov	 cl, BYTE PTR [eax]
  00053	40		 inc	 eax
  00054	84 c9		 test	 cl, cl
  00056	75 f9		 jne	 SHORT $LL7@vChatSend
  00058	2b c2		 sub	 eax, edx

; 1595 : 
; 1596 : 	if ( len < 1 )

  0005a	8d 48 ff	 lea	 ecx, DWORD PTR [eax-1]
  0005d	83 f9 58	 cmp	 ecx, 88			; 00000058H
  00060	77 5c		 ja	 SHORT $LN3@vChatSend

; 1597 : 		return;
; 1598 : 
; 1599 : 	if ( len > MAX_CHAT_LEN-1 )
; 1600 : 		return;
; 1601 : 
; 1602 : /*	char szTempMsg[4096] = {0};
; 1603 : 	MultiByteToWideChar(1258, 0, szChat, len, (unsigned short*)szTempMsg, sizeof(szTempMsg));
; 1604 : 	memcpy(&pMsg.szChatMsg, szTempMsg, sizeof(pMsg.szChatMsg));
; 1605 : 	pMsg.szChatMsg[MAX_CHAT_LEN-2]=0;
; 1606 : 	pMsg.szChatMsg[MAX_CHAT_LEN-1]=0;
; 1607 : 	PHeadSetB((LPBYTE)&pMsg, 0x01, wcslen((unsigned short*)pMsg.szChatMsg)*2 + (sizeof(GC_CHATSEND)-sizeof(pMsg.szChatMsg)));
; 1608 : 	pMsg.sIndex[0] = lpObj->m_Index >> 8;
; 1609 : 	pMsg.sIndex[1] = lpObj->m_Index & 0xFF;*/
; 1610 : 
; 1611 : 	PMSG_CHATDATA_NUMBER pMsg;
; 1612 : 
; 1613 : 	PHeadSetB((LPBYTE)&pMsg, 0x01, len+6);

  00062	83 c0 06	 add	 eax, 6
  00065	50		 push	 eax
  00066	8d 95 90 fe ff
	ff		 lea	 edx, DWORD PTR _pMsg$[ebp]
  0006c	6a 01		 push	 1
  0006e	52		 push	 edx
  0006f	e8 00 00 00 00	 call	 ?PHeadSetB@@YAXPAEEH@Z	; PHeadSetB
  00074	83 c4 0c	 add	 esp, 12			; 0000000cH

; 1614 : 	strcpy(pMsg.chatmsg, szBuffer);

  00077	33 c0		 xor	 eax, eax
  00079	8d a4 24 00 00
	00 00		 npad	 7
$LL5@vChatSend:
  00080	8a 8c 05 fc fe
	ff ff		 mov	 cl, BYTE PTR _szBuffer$[ebp+eax]
  00087	88 8c 05 95 fe
	ff ff		 mov	 BYTE PTR _pMsg$[ebp+eax+5], cl
  0008e	40		 inc	 eax
  0008f	84 c9		 test	 cl, cl
  00091	75 ed		 jne	 SHORT $LL5@vChatSend

; 1615 : 	pMsg.NumberH = SET_NUMBERH(lpObj->m_Index);

  00093	8b 06		 mov	 eax, DWORD PTR [esi]

; 1616 : 	pMsg.NumberL = SET_NUMBERL(lpObj->m_Index);
; 1617 : 
; 1618 : 	MsgSendV2(lpObj, (UCHAR*)&pMsg, pMsg.h.size);

  00095	0f b6 95 91 fe
	ff ff		 movzx	 edx, BYTE PTR _pMsg$[ebp+1]
  0009c	8a 0e		 mov	 cl, BYTE PTR [esi]
  0009e	c1 e8 08	 shr	 eax, 8
  000a1	88 85 93 fe ff
	ff		 mov	 BYTE PTR _pMsg$[ebp+3], al
  000a7	52		 push	 edx
  000a8	8d 85 90 fe ff
	ff		 lea	 eax, DWORD PTR _pMsg$[ebp]
  000ae	50		 push	 eax
  000af	56		 push	 esi
  000b0	88 8d 94 fe ff
	ff		 mov	 BYTE PTR _pMsg$[ebp+4], cl
  000b6	e8 00 00 00 00	 call	 ?MsgSendV2@@YAXPAUOBJECTSTRUCT@@PAEH@Z ; MsgSendV2
  000bb	83 c4 0c	 add	 esp, 12			; 0000000cH
$LN3@vChatSend:

; 1619 : }

  000be	8b 4d fc	 mov	 ecx, DWORD PTR __$ArrayPad$[ebp]
  000c1	33 cd		 xor	 ecx, ebp
  000c3	5e		 pop	 esi
  000c4	e8 00 00 00 00	 call	 @__security_check_cookie@4
  000c9	8b e5		 mov	 esp, ebp
  000cb	5d		 pop	 ebp
  000cc	c3		 ret	 0
?vChatSend@@YAXPAUOBJECTSTRUCT@@PADZZ ENDP		; vChatSend
_TEXT	ENDS
PUBLIC	__$ArrayPad$
PUBLIC	?AllSendServerMsg@@YAXPAD@Z			; AllSendServerMsg
EXTRN	?MakeNoticeMsg@TNotice@@SAXPAXEPAD@Z:PROC	; TNotice::MakeNoticeMsg
; Function compile flags: /Ogtp
;	COMDAT ?AllSendServerMsg@@YAXPAD@Z
_TEXT	SEGMENT
_pNotice$ = -276					; size = 272
__$ArrayPad$ = -4					; size = 4
_chatmsg$ = 8						; size = 4
?AllSendServerMsg@@YAXPAD@Z PROC			; AllSendServerMsg, COMDAT

; 1628 : {

  00000	55		 push	 ebp
  00001	8b ec		 mov	 ebp, esp
  00003	81 ec 14 01 00
	00		 sub	 esp, 276		; 00000114H
  00009	a1 00 00 00 00	 mov	 eax, DWORD PTR ___security_cookie
  0000e	33 c5		 xor	 eax, ebp
  00010	89 45 fc	 mov	 DWORD PTR __$ArrayPad$[ebp], eax
  00013	8b 45 08	 mov	 eax, DWORD PTR _chatmsg$[ebp]
  00016	56		 push	 esi
  00017	57		 push	 edi

; 1629 : 	PMSG_NOTICE pNotice;
; 1630 : 	
; 1631 : 	TNotice::MakeNoticeMsg((TNotice*)&pNotice, 0x00,  chatmsg);

  00018	50		 push	 eax
  00019	8d 85 ec fe ff
	ff		 lea	 eax, DWORD PTR _pNotice$[ebp]
  0001f	6a 00		 push	 0
  00021	50		 push	 eax
  00022	e8 00 00 00 00	 call	 ?MakeNoticeMsg@TNotice@@SAXPAXEPAD@Z ; TNotice::MakeNoticeMsg

; 1634 : 	{
; 1635 : 		if ( gObj[n].Connected == PLAYER_PLAYING )

  00027	a1 00 00 00 00	 mov	 eax, DWORD PTR ?gObj@@3PAUOBJECTSTRUCT@@A ; gObj
  0002c	83 c4 0c	 add	 esp, 12			; 0000000cH
  0002f	bf 04 29 00 00	 mov	 edi, 10500		; 00002904H
  00034	be 00 dd 49 06	 mov	 esi, 105504000		; 0649dd00H
  00039	8d a4 24 00 00
	00 00		 npad	 7
$LL5@AllSendSer:
  00040	83 7c 06 04 03	 cmp	 DWORD PTR [esi+eax+4], 3
  00045	75 24		 jne	 SHORT $LN4@AllSendSer

; 1636 : 		{
; 1637 : 			if ( gObj[n].Type == OBJ_USER )

  00047	80 7c 06 50 01	 cmp	 BYTE PTR [esi+eax+80], 1
  0004c	75 1d		 jne	 SHORT $LN4@AllSendSer

; 1638 : 			{
; 1639 : 				DataSend(n, (unsigned char*)&pNotice , pNotice.h.size );

  0004e	0f b6 8d ed fe
	ff ff		 movzx	 ecx, BYTE PTR _pNotice$[ebp+1]
  00055	51		 push	 ecx
  00056	8d 95 ec fe ff
	ff		 lea	 edx, DWORD PTR _pNotice$[ebp]
  0005c	52		 push	 edx
  0005d	57		 push	 edi
  0005e	e8 00 00 00 00	 call	 ?DataSend@@YAHHPAEK@Z	; DataSend
  00063	a1 00 00 00 00	 mov	 eax, DWORD PTR ?gObj@@3PAUOBJECTSTRUCT@@A ; gObj
  00068	83 c4 0c	 add	 esp, 12			; 0000000cH
$LN4@AllSendSer:

; 1632 : 
; 1633 : 	for ( int n = OBJ_STARTUSERINDEX ; n < OBJMAX ; n++)

  0006b	81 c6 40 27 00
	00		 add	 esi, 10048		; 00002740H
  00071	47		 inc	 edi
  00072	81 fe 00 2f e3
	06		 cmp	 esi, 115552000		; 06e32f00H
  00078	7c c6		 jl	 SHORT $LL5@AllSendSer

; 1640 : 			}
; 1641 : 		}
; 1642 : 	}
; 1643 : }

  0007a	8b 4d fc	 mov	 ecx, DWORD PTR __$ArrayPad$[ebp]
  0007d	5f		 pop	 edi
  0007e	33 cd		 xor	 ecx, ebp
  00080	5e		 pop	 esi
  00081	e8 00 00 00 00	 call	 @__security_check_cookie@4
  00086	8b e5		 mov	 esp, ebp
  00088	5d		 pop	 ebp
  00089	c3		 ret	 0
?AllSendServerMsg@@YAXPAD@Z ENDP			; AllSendServerMsg
_TEXT	ENDS
PUBLIC	?DataSendAll@@YAXPAEH@Z				; DataSendAll
; Function compile flags: /Ogtp
;	COMDAT ?DataSendAll@@YAXPAEH@Z
_TEXT	SEGMENT
_lpMsg$ = 8						; size = 4
_iMsgSize$ = 12						; size = 4
?DataSendAll@@YAXPAEH@Z PROC				; DataSendAll, COMDAT

; 1650 : {			

  00000	55		 push	 ebp
  00001	8b ec		 mov	 ebp, esp

; 1651 : 	for ( int n = OBJ_STARTUSERINDEX ; n < OBJMAX ; n++)

  00003	a1 00 00 00 00	 mov	 eax, DWORD PTR ?gObj@@3PAUOBJECTSTRUCT@@A ; gObj
  00008	53		 push	 ebx
  00009	8b 5d 0c	 mov	 ebx, DWORD PTR _iMsgSize$[ebp]
  0000c	56		 push	 esi
  0000d	57		 push	 edi
  0000e	bf 04 29 00 00	 mov	 edi, 10500		; 00002904H
  00013	be 00 dd 49 06	 mov	 esi, 105504000		; 0649dd00H
$LL5@DataSendAl:

; 1652 : 	{
; 1653 : 		if ( gObj[n].Connected == PLAYER_PLAYING )

  00018	83 7c 06 04 03	 cmp	 DWORD PTR [esi+eax+4], 3
  0001d	75 1a		 jne	 SHORT $LN4@DataSendAl

; 1654 : 		{
; 1655 : 			if ( gObj[n].Type == OBJ_USER )

  0001f	80 7c 06 50 01	 cmp	 BYTE PTR [esi+eax+80], 1
  00024	75 13		 jne	 SHORT $LN4@DataSendAl

; 1656 : 			{
; 1657 : 				DataSend(n, (unsigned char*)lpMsg , iMsgSize );

  00026	8b 45 08	 mov	 eax, DWORD PTR _lpMsg$[ebp]
  00029	53		 push	 ebx
  0002a	50		 push	 eax
  0002b	57		 push	 edi
  0002c	e8 00 00 00 00	 call	 ?DataSend@@YAHHPAEK@Z	; DataSend
  00031	a1 00 00 00 00	 mov	 eax, DWORD PTR ?gObj@@3PAUOBJECTSTRUCT@@A ; gObj
  00036	83 c4 0c	 add	 esp, 12			; 0000000cH
$LN4@DataSendAl:

; 1651 : 	for ( int n = OBJ_STARTUSERINDEX ; n < OBJMAX ; n++)

  00039	81 c6 40 27 00
	00		 add	 esi, 10048		; 00002740H
  0003f	47		 inc	 edi
  00040	81 fe 00 2f e3
	06		 cmp	 esi, 115552000		; 06e32f00H
  00046	7c d0		 jl	 SHORT $LL5@DataSendAl
  00048	5f		 pop	 edi
  00049	5e		 pop	 esi
  0004a	5b		 pop	 ebx

; 1658 : 			}
; 1659 : 		}
; 1660 : 	}
; 1661 : }

  0004b	5d		 pop	 ebp
  0004c	c3		 ret	 0
?DataSendAll@@YAXPAEH@Z ENDP				; DataSendAll
_TEXT	ENDS
PUBLIC	__$ArrayPad$
PUBLIC	?ChatTargetSend@@YAXPAUOBJECTSTRUCT@@PADH@Z	; ChatTargetSend
; Function compile flags: /Ogtp
;	COMDAT ?ChatTargetSend@@YAXPAUOBJECTSTRUCT@@PADH@Z
_TEXT	SEGMENT
_pMsg$ = -112						; size = 105
__$ArrayPad$ = -4					; size = 4
_lpObj$ = 8						; size = 4
_szChat$ = 12						; size = 4
_senduser$ = 16						; size = 4
?ChatTargetSend@@YAXPAUOBJECTSTRUCT@@PADH@Z PROC	; ChatTargetSend, COMDAT

; 1669 : {

  00000	55		 push	 ebp
  00001	8b ec		 mov	 ebp, esp
  00003	83 ec 70	 sub	 esp, 112		; 00000070H
  00006	a1 00 00 00 00	 mov	 eax, DWORD PTR ___security_cookie
  0000b	33 c5		 xor	 eax, ebp
  0000d	89 45 fc	 mov	 DWORD PTR __$ArrayPad$[ebp], eax
  00010	53		 push	 ebx
  00011	8b 5d 08	 mov	 ebx, DWORD PTR _lpObj$[ebp]
  00014	56		 push	 esi
  00015	8b 75 0c	 mov	 esi, DWORD PTR _szChat$[ebp]

; 1670 : 	int len = strlen(szChat);

  00018	8b c6		 mov	 eax, esi
  0001a	57		 push	 edi
  0001b	8d 50 01	 lea	 edx, DWORD PTR [eax+1]
  0001e	8b ff		 npad	 2
$LL7@ChatTarget:
  00020	8a 08		 mov	 cl, BYTE PTR [eax]
  00022	40		 inc	 eax
  00023	84 c9		 test	 cl, cl
  00025	75 f9		 jne	 SHORT $LL7@ChatTarget
  00027	2b c2		 sub	 eax, edx
  00029	8b f8		 mov	 edi, eax

; 1671 : 
; 1672 : 	if ( len < 1 || len > MAX_CHAT_LEN-1)

  0002b	8d 47 ff	 lea	 eax, DWORD PTR [edi-1]
  0002e	83 f8 58	 cmp	 eax, 88			; 00000058H
  00031	77 4e		 ja	 SHORT $LN1@ChatTarget

; 1673 : 		return;
; 1674 : 
; 1675 : 	/*char szTempMsg[4096] = {0};
; 1676 : 	MultiByteToWideChar(1258, 0, szChat, len, (unsigned short*)szTempMsg, sizeof(szTempMsg));
; 1677 : 	memcpy(&pMsg.szChatMsg, szTempMsg, sizeof(pMsg.szChatMsg));
; 1678 : 	pMsg.szChatMsg[MAX_CHAT_LEN-2]=0;
; 1679 : 	pMsg.szChatMsg[MAX_CHAT_LEN-1]=0;
; 1680 : 	PHeadSetB((LPBYTE)&pMsg, 0x01, wcslen((unsigned short*)pMsg.szChatMsg)*2 + (sizeof(GC_CHATSEND)-sizeof(pMsg.szChatMsg)));
; 1681 : 	pMsg.sIndex[0] = lpObj->m_Index >> 8;
; 1682 : 	pMsg.sIndex[1] = lpObj->m_Index & 0xFF;*/
; 1683 : 
; 1684 : 	PMSG_CHATDATA_NUMBER pMsg;
; 1685 : 
; 1686 : 	PHeadSetB((LPBYTE)&pMsg, 0x01, len+6);

  00033	8d 4f 06	 lea	 ecx, DWORD PTR [edi+6]
  00036	51		 push	 ecx
  00037	8d 55 90	 lea	 edx, DWORD PTR _pMsg$[ebp]
  0003a	6a 01		 push	 1
  0003c	52		 push	 edx
  0003d	e8 00 00 00 00	 call	 ?PHeadSetB@@YAXPAEEH@Z	; PHeadSetB

; 1687 : 	strcpy(pMsg.chatmsg, szChat);

  00042	8d 55 95	 lea	 edx, DWORD PTR _pMsg$[ebp+5]
  00045	83 c4 0c	 add	 esp, 12			; 0000000cH
  00048	8b c6		 mov	 eax, esi
  0004a	2b d6		 sub	 edx, esi
  0004c	8d 64 24 00	 npad	 4
$LL5@ChatTarget:
  00050	8a 08		 mov	 cl, BYTE PTR [eax]
  00052	88 0c 02	 mov	 BYTE PTR [edx+eax], cl
  00055	40		 inc	 eax
  00056	84 c9		 test	 cl, cl
  00058	75 f6		 jne	 SHORT $LL5@ChatTarget

; 1688 : 	pMsg.NumberH = SET_NUMBERH(lpObj->m_Index);

  0005a	8b 03		 mov	 eax, DWORD PTR [ebx]

; 1689 : 	pMsg.NumberL = SET_NUMBERL(lpObj->m_Index);

  0005c	8a 0b		 mov	 cl, BYTE PTR [ebx]
  0005e	c1 e8 08	 shr	 eax, 8
  00061	88 45 93	 mov	 BYTE PTR _pMsg$[ebp+3], al
  00064	88 4d 94	 mov	 BYTE PTR _pMsg$[ebp+4], cl

; 1690 : 	pMsg.chatmsg[len+1] = 0;
; 1691 : 
; 1692 : 	DataSend(senduser, (UCHAR*)&pMsg, pMsg.h.size);

  00067	8b 4d 10	 mov	 ecx, DWORD PTR _senduser$[ebp]
  0006a	c6 44 3d 96 00	 mov	 BYTE PTR _pMsg$[ebp+edi+6], 0
  0006f	0f b6 55 91	 movzx	 edx, BYTE PTR _pMsg$[ebp+1]
  00073	52		 push	 edx
  00074	8d 45 90	 lea	 eax, DWORD PTR _pMsg$[ebp]
  00077	50		 push	 eax
  00078	51		 push	 ecx
  00079	e8 00 00 00 00	 call	 ?DataSend@@YAHHPAEK@Z	; DataSend
  0007e	83 c4 0c	 add	 esp, 12			; 0000000cH
$LN1@ChatTarget:

; 1693 : }

  00081	8b 4d fc	 mov	 ecx, DWORD PTR __$ArrayPad$[ebp]
  00084	5f		 pop	 edi
  00085	5e		 pop	 esi
  00086	33 cd		 xor	 ecx, ebp
  00088	5b		 pop	 ebx
  00089	e8 00 00 00 00	 call	 @__security_check_cookie@4
  0008e	8b e5		 mov	 esp, ebp
  00090	5d		 pop	 ebp
  00091	c3		 ret	 0
?ChatTargetSend@@YAXPAUOBJECTSTRUCT@@PADH@Z ENDP	; ChatTargetSend
_TEXT	ENDS
PUBLIC	?CGChatRecv@@YAXPAUPMSG_CHATDATA_NUMBER@@H@Z	; CGChatRecv
; Function compile flags: /Ogtp
;	COMDAT ?CGChatRecv@@YAXPAUPMSG_CHATDATA_NUMBER@@H@Z
_TEXT	SEGMENT
_lpMsg$ = 8						; size = 4
_aIndex$ = 12						; size = 4
?CGChatRecv@@YAXPAUPMSG_CHATDATA_NUMBER@@H@Z PROC	; CGChatRecv, COMDAT

; 1987 : {

  00000	55		 push	 ebp
  00001	8b ec		 mov	 ebp, esp
  00003	53		 push	 ebx

; 1988 : 	LPOBJ lpObj = &gObj[aIndex];

  00004	8b 5d 0c	 mov	 ebx, DWORD PTR _aIndex$[ebp]
  00007	56		 push	 esi
  00008	8b f3		 mov	 esi, ebx
  0000a	69 f6 40 27 00
	00		 imul	 esi, 10048		; 00002740H
  00010	03 35 00 00 00
	00		 add	 esi, DWORD PTR ?gObj@@3PAUOBJECTSTRUCT@@A ; gObj

; 1989 : 
; 1990 : 	if ( PacketCheckTime(lpObj) == FALSE )

  00016	56		 push	 esi
  00017	e8 00 00 00 00	 call	 ?PacketCheckTime@@YAHPAUOBJECTSTRUCT@@@Z ; PacketCheckTime
  0001c	83 c4 04	 add	 esp, 4
  0001f	85 c0		 test	 eax, eax
  00021	74 20		 je	 SHORT $LN2@CGChatRecv

; 1991 : 	{
; 1992 : 		return;
; 1993 : 	}
; 1994 : 
; 1995 : 	DataSend(aIndex, (LPBYTE)lpMsg, lpMsg->h.size);

  00023	57		 push	 edi
  00024	8b 7d 08	 mov	 edi, DWORD PTR _lpMsg$[ebp]
  00027	0f b6 47 01	 movzx	 eax, BYTE PTR [edi+1]
  0002b	50		 push	 eax
  0002c	57		 push	 edi
  0002d	53		 push	 ebx
  0002e	e8 00 00 00 00	 call	 ?DataSend@@YAHHPAEK@Z	; DataSend

; 1996 : 	MsgSendV2(lpObj, (LPBYTE)lpMsg, lpMsg->h.size);

  00033	0f b6 4f 01	 movzx	 ecx, BYTE PTR [edi+1]
  00037	51		 push	 ecx
  00038	57		 push	 edi
  00039	56		 push	 esi
  0003a	e8 00 00 00 00	 call	 ?MsgSendV2@@YAXPAUOBJECTSTRUCT@@PAEH@Z ; MsgSendV2
  0003f	83 c4 18	 add	 esp, 24			; 00000018H
  00042	5f		 pop	 edi
$LN2@CGChatRecv:
  00043	5e		 pop	 esi
  00044	5b		 pop	 ebx

; 1997 : }

  00045	5d		 pop	 ebp
  00046	c3		 ret	 0
?CGChatRecv@@YAXPAUPMSG_CHATDATA_NUMBER@@H@Z ENDP	; CGChatRecv
_TEXT	ENDS
PUBLIC	?GCServerMsgSend@@YAXEH@Z			; GCServerMsgSend
; Function compile flags: /Ogtp
;	COMDAT ?GCServerMsgSend@@YAXEH@Z
_TEXT	SEGMENT
_pMsg$ = -4						; size = 4
_msg$ = 8						; size = 1
_aIndex$ = 12						; size = 4
?GCServerMsgSend@@YAXEH@Z PROC				; GCServerMsgSend, COMDAT

; 2011 : {

  00000	55		 push	 ebp
  00001	8b ec		 mov	 ebp, esp
  00003	51		 push	 ecx

; 2012 : 	PMSG_SERVERMSG pMsg;
; 2013 : 
; 2014 : 	PHeadSetB((LPBYTE)&pMsg, 0x0C, sizeof(pMsg));

  00004	6a 04		 push	 4
  00006	8d 45 fc	 lea	 eax, DWORD PTR _pMsg$[ebp]
  00009	6a 0c		 push	 12			; 0000000cH
  0000b	50		 push	 eax
  0000c	e8 00 00 00 00	 call	 ?PHeadSetB@@YAXPAEEH@Z	; PHeadSetB

; 2015 : 	pMsg.MsgNumber = msg;
; 2016 : 	DataSend(aIndex, (UCHAR*)&pMsg, pMsg.h.size);

  00011	0f b6 55 fd	 movzx	 edx, BYTE PTR _pMsg$[ebp+1]
  00015	8a 4d 08	 mov	 cl, BYTE PTR _msg$[ebp]
  00018	52		 push	 edx
  00019	8d 45 fc	 lea	 eax, DWORD PTR _pMsg$[ebp]
  0001c	88 4d ff	 mov	 BYTE PTR _pMsg$[ebp+3], cl
  0001f	8b 4d 0c	 mov	 ecx, DWORD PTR _aIndex$[ebp]
  00022	50		 push	 eax
  00023	51		 push	 ecx
  00024	e8 00 00 00 00	 call	 ?DataSend@@YAHHPAEK@Z	; DataSend
  00029	83 c4 18	 add	 esp, 24			; 00000018H

; 2017 : }

  0002c	8b e5		 mov	 esp, ebp
  0002e	5d		 pop	 ebp
  0002f	c3		 ret	 0
?GCServerMsgSend@@YAXEH@Z ENDP				; GCServerMsgSend
_TEXT	ENDS
PUBLIC	__$ArrayPad$
PUBLIC	?GCServerMsgStringSend@@YAXPADHE@Z		; GCServerMsgStringSend
; Function compile flags: /Ogtp
;	COMDAT ?GCServerMsgStringSend@@YAXPADHE@Z
_TEXT	SEGMENT
_pNotice$ = -276					; size = 272
__$ArrayPad$ = -4					; size = 4
_szMsg$ = 8						; size = 4
_aIndex$ = 12						; size = 4
_type$ = 16						; size = 1
?GCServerMsgStringSend@@YAXPADHE@Z PROC			; GCServerMsgStringSend, COMDAT

; 2025 : {

  00000	55		 push	 ebp
  00001	8b ec		 mov	 ebp, esp
  00003	81 ec 14 01 00
	00		 sub	 esp, 276		; 00000114H
  00009	a1 00 00 00 00	 mov	 eax, DWORD PTR ___security_cookie
  0000e	33 c5		 xor	 eax, ebp
  00010	89 45 fc	 mov	 DWORD PTR __$ArrayPad$[ebp], eax
  00013	8b 45 08	 mov	 eax, DWORD PTR _szMsg$[ebp]

; 2026 : 	PMSG_NOTICE pNotice;
; 2027 : 	
; 2028 : 	TNotice::MakeNoticeMsg((TNotice*)&pNotice, type, szMsg);

  00016	50		 push	 eax
  00017	8b 45 10	 mov	 eax, DWORD PTR _type$[ebp]
  0001a	50		 push	 eax
  0001b	8d 8d ec fe ff
	ff		 lea	 ecx, DWORD PTR _pNotice$[ebp]
  00021	51		 push	 ecx
  00022	e8 00 00 00 00	 call	 ?MakeNoticeMsg@TNotice@@SAXPAXEPAD@Z ; TNotice::MakeNoticeMsg

; 2029 : 	DataSend(aIndex, (UCHAR*)&pNotice, pNotice.h.size);

  00027	0f b6 95 ed fe
	ff ff		 movzx	 edx, BYTE PTR _pNotice$[ebp+1]
  0002e	8b 4d 0c	 mov	 ecx, DWORD PTR _aIndex$[ebp]
  00031	52		 push	 edx
  00032	8d 85 ec fe ff
	ff		 lea	 eax, DWORD PTR _pNotice$[ebp]
  00038	50		 push	 eax
  00039	51		 push	 ecx
  0003a	e8 00 00 00 00	 call	 ?DataSend@@YAHHPAEK@Z	; DataSend

; 2030 : }

  0003f	8b 4d fc	 mov	 ecx, DWORD PTR __$ArrayPad$[ebp]
  00042	33 cd		 xor	 ecx, ebp
  00044	83 c4 18	 add	 esp, 24			; 00000018H
  00047	e8 00 00 00 00	 call	 @__security_check_cookie@4
  0004c	8b e5		 mov	 esp, ebp
  0004e	5d		 pop	 ebp
  0004f	c3		 ret	 0
?GCServerMsgStringSend@@YAXPADHE@Z ENDP			; GCServerMsgStringSend
_TEXT	ENDS
PUBLIC	?GCServerMsgStringSendGuild@@YAXPAU_GUILD_INFO_STRUCT@@PADE@Z ; GCServerMsgStringSendGuild
; Function compile flags: /Ogtp
;	COMDAT ?GCServerMsgStringSendGuild@@YAXPAU_GUILD_INFO_STRUCT@@PADE@Z
_TEXT	SEGMENT
_lpNode$ = 8						; size = 4
_szMsg$ = 12						; size = 4
_type$ = 16						; size = 1
?GCServerMsgStringSendGuild@@YAXPAU_GUILD_INFO_STRUCT@@PADE@Z PROC ; GCServerMsgStringSendGuild, COMDAT

; 2037 : {

  00000	55		 push	 ebp
  00001	8b ec		 mov	 ebp, esp
  00003	53		 push	 ebx

; 2038 : 	if ( lpNode == NULL )

  00004	8b 5d 08	 mov	 ebx, DWORD PTR _lpNode$[ebp]
  00007	85 db		 test	 ebx, ebx
  00009	74 3b		 je	 SHORT $LN2@GCServerMs

; 2039 : 	{
; 2040 : 		return;
; 2041 : 	}
; 2042 : 
; 2043 : 	for ( int n = 0; n<MAX_USER_GUILD ; n++)

  0000b	56		 push	 esi
  0000c	57		 push	 edi
  0000d	33 f6		 xor	 esi, esi
  0000f	8d bb a0 03 00
	00		 lea	 edi, DWORD PTR [ebx+928]
$LL10@GCServerMs:

; 2044 : 	{
; 2045 : 		if (lpNode->Use[n] > 0 && lpNode->Index[n] >= 0 )

  00015	80 bc 33 40 04
	00 00 00	 cmp	 BYTE PTR [ebx+esi+1088], 0
  0001d	76 1c		 jbe	 SHORT $LN3@GCServerMs
  0001f	0f b7 07	 movzx	 eax, WORD PTR [edi]
  00022	66 85 c0	 test	 ax, ax
  00025	78 14		 js	 SHORT $LN3@GCServerMs

; 2046 : 		{
; 2047 : 			GCServerMsgStringSend((char*)szMsg, lpNode->Index[n], type);

  00027	8b 4d 10	 mov	 ecx, DWORD PTR _type$[ebp]
  0002a	0f bf d0	 movsx	 edx, ax
  0002d	8b 45 0c	 mov	 eax, DWORD PTR _szMsg$[ebp]
  00030	51		 push	 ecx
  00031	52		 push	 edx
  00032	50		 push	 eax
  00033	e8 00 00 00 00	 call	 ?GCServerMsgStringSend@@YAXPADHE@Z ; GCServerMsgStringSend
  00038	83 c4 0c	 add	 esp, 12			; 0000000cH
$LN3@GCServerMs:

; 2039 : 	{
; 2040 : 		return;
; 2041 : 	}
; 2042 : 
; 2043 : 	for ( int n = 0; n<MAX_USER_GUILD ; n++)

  0003b	46		 inc	 esi
  0003c	83 c7 02	 add	 edi, 2
  0003f	83 fe 50	 cmp	 esi, 80			; 00000050H
  00042	7c d1		 jl	 SHORT $LL10@GCServerMs
  00044	5f		 pop	 edi
  00045	5e		 pop	 esi
$LN2@GCServerMs:
  00046	5b		 pop	 ebx

; 2048 : 		}
; 2049 : 	}
; 2050 : }

  00047	5d		 pop	 ebp
  00048	c3		 ret	 0
?GCServerMsgStringSendGuild@@YAXPAU_GUILD_INFO_STRUCT@@PADE@Z ENDP ; GCServerMsgStringSendGuild
_TEXT	ENDS
PUBLIC	?GCEventStateSend@@YAXHEE@Z			; GCEventStateSend
; Function compile flags: /Ogtp
;	COMDAT ?GCEventStateSend@@YAXHEE@Z
_TEXT	SEGMENT
_pMsg$ = -8						; size = 5
_aIndex$ = 8						; size = 4
_state$ = 12						; size = 1
_event$ = 16						; size = 1
?GCEventStateSend@@YAXHEE@Z PROC			; GCEventStateSend, COMDAT

; 2064 : {

  00000	55		 push	 ebp
  00001	8b ec		 mov	 ebp, esp
  00003	83 ec 08	 sub	 esp, 8

; 2065 : 	PMSG_EVENT pMsg;
; 2066 : 
; 2067 : 	PHeadSetB((LPBYTE)&pMsg, 0x0B, sizeof(pMsg));

  00006	6a 05		 push	 5
  00008	8d 45 f8	 lea	 eax, DWORD PTR _pMsg$[ebp]
  0000b	6a 0b		 push	 11			; 0000000bH
  0000d	50		 push	 eax
  0000e	e8 00 00 00 00	 call	 ?PHeadSetB@@YAXPAEEH@Z	; PHeadSetB

; 2068 : 	pMsg.Event = event;
; 2069 : 	pMsg.State = state;
; 2070 : 
; 2071 : 	DataSend(aIndex, (UCHAR*)&pMsg, pMsg.h.size);

  00013	0f b6 45 f9	 movzx	 eax, BYTE PTR _pMsg$[ebp+1]
  00017	8a 4d 10	 mov	 cl, BYTE PTR _event$[ebp]
  0001a	8a 55 0c	 mov	 dl, BYTE PTR _state$[ebp]
  0001d	88 4d fc	 mov	 BYTE PTR _pMsg$[ebp+4], cl
  00020	50		 push	 eax
  00021	8d 4d f8	 lea	 ecx, DWORD PTR _pMsg$[ebp]
  00024	88 55 fb	 mov	 BYTE PTR _pMsg$[ebp+3], dl
  00027	8b 55 08	 mov	 edx, DWORD PTR _aIndex$[ebp]
  0002a	51		 push	 ecx
  0002b	52		 push	 edx
  0002c	e8 00 00 00 00	 call	 ?DataSend@@YAHHPAEK@Z	; DataSend
  00031	83 c4 18	 add	 esp, 24			; 00000018H

; 2072 : }

  00034	8b e5		 mov	 esp, ebp
  00036	5d		 pop	 ebp
  00037	c3		 ret	 0
?GCEventStateSend@@YAXHEE@Z ENDP			; GCEventStateSend
_TEXT	ENDS
PUBLIC	?GCMapEventStateSend@@YAXHEE@Z			; GCMapEventStateSend
; Function compile flags: /Ogtp
;	COMDAT ?GCMapEventStateSend@@YAXHEE@Z
_TEXT	SEGMENT
_pMsg$ = -8						; size = 5
_map$ = 8						; size = 4
_state$ = 12						; size = 1
_event$ = 16						; size = 1
?GCMapEventStateSend@@YAXHEE@Z PROC			; GCMapEventStateSend, COMDAT

; 2079 : {

  00000	55		 push	 ebp
  00001	8b ec		 mov	 ebp, esp
  00003	83 ec 08	 sub	 esp, 8
  00006	56		 push	 esi
  00007	57		 push	 edi

; 2080 : 	PMSG_EVENT pMsg;
; 2081 : 
; 2082 : 	PHeadSetB((LPBYTE)&pMsg, 0x0B, sizeof(pMsg));

  00008	6a 05		 push	 5
  0000a	8d 45 f8	 lea	 eax, DWORD PTR _pMsg$[ebp]
  0000d	6a 0b		 push	 11			; 0000000bH
  0000f	50		 push	 eax
  00010	e8 00 00 00 00	 call	 ?PHeadSetB@@YAXPAEEH@Z	; PHeadSetB

; 2083 : 	pMsg.Event = event;

  00015	8a 4d 10	 mov	 cl, BYTE PTR _event$[ebp]

; 2084 : 	pMsg.State = state;

  00018	8a 55 0c	 mov	 dl, BYTE PTR _state$[ebp]
  0001b	a1 00 00 00 00	 mov	 eax, DWORD PTR ?gObj@@3PAUOBJECTSTRUCT@@A ; gObj
  00020	83 c4 0c	 add	 esp, 12			; 0000000cH

; 2085 : 
; 2086 : 	for ( int n=0; n<OBJMAX ; n++ )

  00023	33 ff		 xor	 edi, edi
  00025	88 4d fc	 mov	 BYTE PTR _pMsg$[ebp+4], cl
  00028	88 55 fb	 mov	 BYTE PTR _pMsg$[ebp+3], dl
  0002b	33 f6		 xor	 esi, esi
  0002d	8d 49 00	 npad	 3
$LL4@GCMapEvent:

; 2087 : 	{
; 2088 : 		if ( gObj[n].Connected == PLAYER_PLAYING && gObj[n].Type == OBJ_USER && map == gObj[n].MapNumber )

  00030	83 7c 06 04 03	 cmp	 DWORD PTR [esi+eax+4], 3
  00035	75 2b		 jne	 SHORT $LN3@GCMapEvent
  00037	80 7c 06 50 01	 cmp	 BYTE PTR [esi+eax+80], 1
  0003c	75 24		 jne	 SHORT $LN3@GCMapEvent
  0003e	0f b6 8c 06 23
	01 00 00	 movzx	 ecx, BYTE PTR [esi+eax+291]
  00046	39 4d 08	 cmp	 DWORD PTR _map$[ebp], ecx
  00049	75 17		 jne	 SHORT $LN3@GCMapEvent

; 2089 : 		{
; 2090 : 			DataSend(n, (UCHAR*)&pMsg, pMsg.h.size);

  0004b	0f b6 55 f9	 movzx	 edx, BYTE PTR _pMsg$[ebp+1]
  0004f	52		 push	 edx
  00050	8d 45 f8	 lea	 eax, DWORD PTR _pMsg$[ebp]
  00053	50		 push	 eax
  00054	57		 push	 edi
  00055	e8 00 00 00 00	 call	 ?DataSend@@YAHHPAEK@Z	; DataSend
  0005a	a1 00 00 00 00	 mov	 eax, DWORD PTR ?gObj@@3PAUOBJECTSTRUCT@@A ; gObj
  0005f	83 c4 0c	 add	 esp, 12			; 0000000cH
$LN3@GCMapEvent:

; 2085 : 
; 2086 : 	for ( int n=0; n<OBJMAX ; n++ )

  00062	81 c6 40 27 00
	00		 add	 esi, 10048		; 00002740H
  00068	47		 inc	 edi
  00069	81 fe 00 2f e3
	06		 cmp	 esi, 115552000		; 06e32f00H
  0006f	7c bf		 jl	 SHORT $LL4@GCMapEvent
  00071	5f		 pop	 edi
  00072	5e		 pop	 esi

; 2091 : 		}
; 2092 : 	}
; 2093 : }

  00073	8b e5		 mov	 esp, ebp
  00075	5d		 pop	 ebp
  00076	c3		 ret	 0
?GCMapEventStateSend@@YAXHEE@Z ENDP			; GCMapEventStateSend
_TEXT	ENDS
PUBLIC	_lpMsg$GSCopy$
PUBLIC	__$ArrayPad$
PUBLIC	?CGChatWhisperRecv@@YAXPAUPMSG_CHATDATA_WHISPER@@H@Z ; CGChatWhisperRecv
EXTRN	?AddCash@CWhisperCash@@QAEHPAD@Z:PROC		; CWhisperCash::AddCash
EXTRN	?WhisperCash@@3VCWhisperCash@@A:BYTE		; WhisperCash
EXTRN	?MsgOutput@@YAXHPADZZ:PROC			; MsgOutput
EXTRN	?Get@Message@@QAEPADH@Z:PROC			; Message::Get
EXTRN	?lMsg@@3VMessage@@A:BYTE			; lMsg
; Function compile flags: /Ogtp
;	COMDAT ?CGChatWhisperRecv@@YAXPAUPMSG_CHATDATA_WHISPER@@H@Z
_TEXT	SEGMENT
_lpMsg$GSCopy$ = -136					; size = 4
_index$ = -136						; size = 4
_pWhisper$ = -132					; size = 113
_tid$ = -16						; size = 11
__$ArrayPad$ = -4					; size = 4
_lpMsg$ = 8						; size = 4
_aIndex$ = 12						; size = 4
?CGChatWhisperRecv@@YAXPAUPMSG_CHATDATA_WHISPER@@H@Z PROC ; CGChatWhisperRecv, COMDAT

; 2099 : {

  00000	55		 push	 ebp
  00001	8b ec		 mov	 ebp, esp
  00003	81 ec 88 00 00
	00		 sub	 esp, 136		; 00000088H
  00009	a1 00 00 00 00	 mov	 eax, DWORD PTR ___security_cookie
  0000e	33 c5		 xor	 eax, ebp
  00010	89 45 fc	 mov	 DWORD PTR __$ArrayPad$[ebp], eax

; 2100 : 	char tid[11];
; 2101 : 	PMSG_CHATDATA_WHISPER pWhisper;
; 2102 : 	int len;
; 2103 : 	LPOBJ lpObj = &gObj[aIndex];

  00013	8b 0d 00 00 00
	00		 mov	 ecx, DWORD PTR ?gObj@@3PAUOBJECTSTRUCT@@A ; gObj
  00019	8b 45 08	 mov	 eax, DWORD PTR _lpMsg$[ebp]
  0001c	53		 push	 ebx
  0001d	8b 5d 0c	 mov	 ebx, DWORD PTR _aIndex$[ebp]
  00020	56		 push	 esi
  00021	8b f3		 mov	 esi, ebx
  00023	69 f6 40 27 00
	00		 imul	 esi, 10048		; 00002740H
  00029	57		 push	 edi
  0002a	8d 3c 0e	 lea	 edi, DWORD PTR [esi+ecx]

; 2104 : 	int index;
; 2105 : 
; 2106 : 	if ( PacketCheckTime(lpObj) == FALSE )

  0002d	57		 push	 edi

; 2127 : 	{
; 2128 : 		GCServerMsgSend(0, aIndex);

  0002e	89 85 78 ff ff
	ff		 mov	 DWORD PTR _lpMsg$GSCopy$[ebp], eax
  00034	e8 00 00 00 00	 call	 ?PacketCheckTime@@YAHPAUOBJECTSTRUCT@@@Z ; PacketCheckTime
  00039	83 c4 04	 add	 esp, 4
  0003c	85 c0		 test	 eax, eax
  0003e	0f 84 13 01 00
	00		 je	 $LN1@CGChatWhis

; 2107 : 	{
; 2108 : 		return;
; 2109 : 	}
; 2110 : 
; 2111 : 	if ( lpObj->ChatLimitTime > 0 )

  00044	0f b7 87 f8 00
	00 00		 movzx	 eax, WORD PTR [edi+248]
  0004b	66 85 c0	 test	 ax, ax
  0004e	74 2d		 je	 SHORT $LN4@CGChatWhis

; 2112 : 	{
; 2113 : 		MsgOutput(lpObj->m_Index, lMsg.Get(MSGGET(4, 223)), lpObj->ChatLimitTime);

  00050	50		 push	 eax
  00051	68 df 04 00 00	 push	 1247			; 000004dfH
  00056	b9 00 00 00 00	 mov	 ecx, OFFSET ?lMsg@@3VMessage@@A ; lMsg
  0005b	e8 00 00 00 00	 call	 ?Get@Message@@QAEPADH@Z	; Message::Get
  00060	50		 push	 eax
  00061	8b 07		 mov	 eax, DWORD PTR [edi]
  00063	50		 push	 eax
  00064	e8 00 00 00 00	 call	 ?MsgOutput@@YAXHPADZZ	; MsgOutput

; 2141 : 		DataSend(index, (UCHAR*)&pWhisper, pWhisper.h.size);

  00069	83 c4 0c	 add	 esp, 12			; 0000000cH
  0006c	5f		 pop	 edi
  0006d	5e		 pop	 esi
  0006e	5b		 pop	 ebx

; 2142 : 	}
; 2143 : }

  0006f	8b 4d fc	 mov	 ecx, DWORD PTR __$ArrayPad$[ebp]
  00072	33 cd		 xor	 ecx, ebp
  00074	e8 00 00 00 00	 call	 @__security_check_cookie@4
  00079	8b e5		 mov	 esp, ebp
  0007b	5d		 pop	 ebp
  0007c	c3		 ret	 0
$LN4@CGChatWhis:

; 2114 : 		return;
; 2115 : 	}
; 2116 : 
; 2117 : 	if ( (lpObj->Penalty & 2) == 2 )

  0007d	f6 87 c0 01 00
	00 02		 test	 BYTE PTR [edi+448], 2
  00084	0f 85 cd 00 00
	00		 jne	 $LN1@CGChatWhis

; 2118 : 	{
; 2119 : 		return;
; 2120 : 	}
; 2121 : 
; 2122 : 	tid[10]=0;
; 2123 : 	memcpy(tid, lpMsg->id, sizeof(lpMsg->id));

  0008a	8b bd 78 ff ff
	ff		 mov	 edi, DWORD PTR _lpMsg$GSCopy$[ebp]
  00090	8b 4f 03	 mov	 ecx, DWORD PTR [edi+3]
  00093	8b 57 07	 mov	 edx, DWORD PTR [edi+7]
  00096	66 8b 47 0b	 mov	 ax, WORD PTR [edi+11]
  0009a	89 4d f0	 mov	 DWORD PTR _tid$[ebp], ecx

; 2124 : 	index = WhisperCash.AddCash(tid);

  0009d	8d 4d f0	 lea	 ecx, DWORD PTR _tid$[ebp]
  000a0	51		 push	 ecx
  000a1	b9 00 00 00 00	 mov	 ecx, OFFSET ?WhisperCash@@3VCWhisperCash@@A ; WhisperCash
  000a6	c6 45 fa 00	 mov	 BYTE PTR _tid$[ebp+10], 0
  000aa	89 55 f4	 mov	 DWORD PTR _tid$[ebp+4], edx
  000ad	66 89 45 f8	 mov	 WORD PTR _tid$[ebp+8], ax
  000b1	e8 00 00 00 00	 call	 ?AddCash@CWhisperCash@@QAEHPAD@Z ; CWhisperCash::AddCash
  000b6	89 85 78 ff ff
	ff		 mov	 DWORD PTR _index$[ebp], eax

; 2125 : 
; 2126 : 	if ( index < 0 )

  000bc	85 c0		 test	 eax, eax
  000be	79 1c		 jns	 SHORT $LN2@CGChatWhis

; 2127 : 	{
; 2128 : 		GCServerMsgSend(0, aIndex);

  000c0	53		 push	 ebx
  000c1	6a 00		 push	 0
  000c3	e8 00 00 00 00	 call	 ?GCServerMsgSend@@YAXEH@Z ; GCServerMsgSend
  000c8	83 c4 08	 add	 esp, 8
  000cb	5f		 pop	 edi
  000cc	5e		 pop	 esi
  000cd	5b		 pop	 ebx

; 2142 : 	}
; 2143 : }

  000ce	8b 4d fc	 mov	 ecx, DWORD PTR __$ArrayPad$[ebp]
  000d1	33 cd		 xor	 ecx, ebp
  000d3	e8 00 00 00 00	 call	 @__security_check_cookie@4
  000d8	8b e5		 mov	 esp, ebp
  000da	5d		 pop	 ebp
  000db	c3		 ret	 0
$LN2@CGChatWhis:

; 2129 : 		return;
; 2130 : 	}
; 2131 : 
; 2132 : 	PHeadSetB((LPBYTE)&pWhisper, 0x02, sizeof(pWhisper));

  000dc	6a 71		 push	 113			; 00000071H
  000de	8d 95 7c ff ff
	ff		 lea	 edx, DWORD PTR _pWhisper$[ebp]
  000e4	6a 02		 push	 2
  000e6	52		 push	 edx
  000e7	e8 00 00 00 00	 call	 ?PHeadSetB@@YAXPAEEH@Z	; PHeadSetB

; 2133 : 	strcpy(pWhisper.id, gObj[aIndex].Name);

  000ec	a1 00 00 00 00	 mov	 eax, DWORD PTR ?gObj@@3PAUOBJECTSTRUCT@@A ; gObj
  000f1	8d 44 06 5d	 lea	 eax, DWORD PTR [esi+eax+93]
  000f5	8d 95 7f ff ff
	ff		 lea	 edx, DWORD PTR _pWhisper$[ebp+3]
  000fb	83 c4 0c	 add	 esp, 12			; 0000000cH
  000fe	2b d0		 sub	 edx, eax
$LL8@CGChatWhis:
  00100	8a 08		 mov	 cl, BYTE PTR [eax]
  00102	88 0c 02	 mov	 BYTE PTR [edx+eax], cl
  00105	40		 inc	 eax
  00106	84 c9		 test	 cl, cl
  00108	75 f6		 jne	 SHORT $LL8@CGChatWhis

; 2134 : 	memcpy(pWhisper.chatmsg, lpMsg->chatmsg, sizeof(lpMsg->chatmsg));

  0010a	8d 77 0d	 lea	 esi, DWORD PTR [edi+13]
  0010d	b9 19 00 00 00	 mov	 ecx, 25			; 00000019H
  00112	8d 7d 89	 lea	 edi, DWORD PTR _pWhisper$[ebp+13]

; 2135 : 	len = strlen(pWhisper.chatmsg);

  00115	8d 45 89	 lea	 eax, DWORD PTR _pWhisper$[ebp+13]
  00118	f3 a5		 rep movsd
  0011a	8d 50 01	 lea	 edx, DWORD PTR [eax+1]
  0011d	8d 49 00	 npad	 3
$LL10@CGChatWhis:
  00120	8a 08		 mov	 cl, BYTE PTR [eax]
  00122	40		 inc	 eax
  00123	84 c9		 test	 cl, cl
  00125	75 f9		 jne	 SHORT $LL10@CGChatWhis
  00127	2b c2		 sub	 eax, edx

; 2136 : 
; 2137 : 	if ( len > 0 )

  00129	85 c0		 test	 eax, eax
  0012b	7e 2a		 jle	 SHORT $LN1@CGChatWhis

; 2138 : 	{
; 2139 : 		pWhisper.h.size -= sizeof(pWhisper.chatmsg);
; 2140 : 		pWhisper.h.size += len + 1;

  0012d	8a 8d 7d ff ff
	ff		 mov	 cl, BYTE PTR _pWhisper$[ebp+1]
  00133	2c 63		 sub	 al, 99			; 00000063H
  00135	02 c8		 add	 cl, al

; 2141 : 		DataSend(index, (UCHAR*)&pWhisper, pWhisper.h.size);

  00137	8b 85 78 ff ff
	ff		 mov	 eax, DWORD PTR _index$[ebp]
  0013d	88 8d 7d ff ff
	ff		 mov	 BYTE PTR _pWhisper$[ebp+1], cl
  00143	0f b6 c9	 movzx	 ecx, cl
  00146	51		 push	 ecx
  00147	8d 95 7c ff ff
	ff		 lea	 edx, DWORD PTR _pWhisper$[ebp]
  0014d	52		 push	 edx
  0014e	50		 push	 eax
  0014f	e8 00 00 00 00	 call	 ?DataSend@@YAHHPAEK@Z	; DataSend
  00154	83 c4 0c	 add	 esp, 12			; 0000000cH
$LN1@CGChatWhis:

; 2142 : 	}
; 2143 : }

  00157	8b 4d fc	 mov	 ecx, DWORD PTR __$ArrayPad$[ebp]
  0015a	5f		 pop	 edi
  0015b	5e		 pop	 esi
  0015c	33 cd		 xor	 ecx, ebp
  0015e	5b		 pop	 ebx
  0015f	e8 00 00 00 00	 call	 @__security_check_cookie@4
  00164	8b e5		 mov	 esp, ebp
  00166	5d		 pop	 ebp
  00167	c3		 ret	 0
?CGChatWhisperRecv@@YAXPAUPMSG_CHATDATA_WHISPER@@H@Z ENDP ; CGChatWhisperRecv
_TEXT	ENDS
PUBLIC	__$ArrayPad$
PUBLIC	?SCPJoinResultSend@@YAXHE@Z			; SCPJoinResultSend
EXTRN	?szClientVersion@@3PADA:QWORD			; szClientVersion
; Function compile flags: /Ogtp
;	COMDAT ?SCPJoinResultSend@@YAXHE@Z
_TEXT	SEGMENT
_pResult$ = -16						; size = 12
__$ArrayPad$ = -4					; size = 4
_aIndex$ = 8						; size = 4
_result$ = 12						; size = 1
?SCPJoinResultSend@@YAXHE@Z PROC			; SCPJoinResultSend, COMDAT

; 2162 : {

  00000	55		 push	 ebp
  00001	8b ec		 mov	 ebp, esp
  00003	83 ec 10	 sub	 esp, 16			; 00000010H
  00006	a1 00 00 00 00	 mov	 eax, DWORD PTR ___security_cookie
  0000b	33 c5		 xor	 eax, ebp
  0000d	89 45 fc	 mov	 DWORD PTR __$ArrayPad$[ebp], eax

; 2163 : 	PMSG_JOINRESULT pResult;
; 2164 : 
; 2165 : 	memset(&pResult, 0, sizeof(pResult));
; 2166 : 
; 2167 : 	pResult.h.size = sizeof(pResult);
; 2168 : 	pResult.h.c = 0xC1;
; 2169 : 	pResult.h.headcode = 0xF1;
; 2170 : 	pResult.scode = 0x00;
; 2171 : 	pResult.result = result;
; 2172 : 	pResult.NumberH = SET_NUMBERH(aIndex);
; 2173 : 	pResult.NumberL = SET_NUMBERL(aIndex);
; 2174 : 	pResult.CliVersion[0] = szClientVersion[0];

  00010	0f b6 15 00 00
	00 00		 movzx	 edx, BYTE PTR ?szClientVersion@@3PADA
  00017	33 c0		 xor	 eax, eax
  00019	89 45 f4	 mov	 DWORD PTR _pResult$[ebp+4], eax
  0001c	89 45 f8	 mov	 DWORD PTR _pResult$[ebp+8], eax
  0001f	53		 push	 ebx
  00020	8b 5d 08	 mov	 ebx, DWORD PTR _aIndex$[ebp]
  00023	89 45 f0	 mov	 DWORD PTR _pResult$[ebp], eax
  00026	8a 45 0c	 mov	 al, BYTE PTR _result$[ebp]
  00029	8b cb		 mov	 ecx, ebx
  0002b	c1 e9 08	 shr	 ecx, 8
  0002e	88 45 f4	 mov	 BYTE PTR _pResult$[ebp+4], al

; 2175 : 	pResult.CliVersion[1] = szClientVersion[1];

  00031	0f b6 05 01 00
	00 00		 movzx	 eax, BYTE PTR ?szClientVersion@@3PADA+1
  00038	88 4d f5	 mov	 BYTE PTR _pResult$[ebp+5], cl

; 2176 : 	pResult.CliVersion[2] = szClientVersion[2];

  0003b	8a 0d 02 00 00
	00		 mov	 cl, BYTE PTR ?szClientVersion@@3PADA+2
  00041	88 4d f9	 mov	 BYTE PTR _pResult$[ebp+9], cl
  00044	88 55 f7	 mov	 BYTE PTR _pResult$[ebp+7], dl

; 2177 : 	pResult.CliVersion[3] = szClientVersion[3];

  00047	0f b6 15 03 00
	00 00		 movzx	 edx, BYTE PTR ?szClientVersion@@3PADA+3
  0004e	88 45 f8	 mov	 BYTE PTR _pResult$[ebp+8], al

; 2178 : 	pResult.CliVersion[4] = szClientVersion[4];

  00051	0f b6 05 04 00
	00 00		 movzx	 eax, BYTE PTR ?szClientVersion@@3PADA+4

; 2179 : 
; 2180 : 	DataSend(aIndex, (unsigned char*)&pResult, pResult.h.size);

  00058	6a 0c		 push	 12			; 0000000cH
  0005a	8d 4d f0	 lea	 ecx, DWORD PTR _pResult$[ebp]
  0005d	51		 push	 ecx
  0005e	53		 push	 ebx
  0005f	c7 45 f0 c1 0c
	f1 00		 mov	 DWORD PTR _pResult$[ebp], 15797441 ; 00f10cc1H
  00066	88 5d f6	 mov	 BYTE PTR _pResult$[ebp+6], bl
  00069	88 55 fa	 mov	 BYTE PTR _pResult$[ebp+10], dl
  0006c	88 45 fb	 mov	 BYTE PTR _pResult$[ebp+11], al
  0006f	e8 00 00 00 00	 call	 ?DataSend@@YAHHPAEK@Z	; DataSend
  00074	83 c4 0c	 add	 esp, 12			; 0000000cH

; 2181 : 	gObj[aIndex].ConnectCheckTime = GetTickCount();

  00077	ff 15 00 00 00
	00		 call	 DWORD PTR __imp__GetTickCount@0
  0007d	69 db 40 27 00
	00		 imul	 ebx, 10048		; 00002740H
  00083	8b 15 00 00 00
	00		 mov	 edx, DWORD PTR ?gObj@@3PAUOBJECTSTRUCT@@A ; gObj

; 2182 : }

  00089	8b 4d fc	 mov	 ecx, DWORD PTR __$ArrayPad$[ebp]
  0008c	89 44 13 3c	 mov	 DWORD PTR [ebx+edx+60], eax
  00090	33 cd		 xor	 ecx, ebp
  00092	5b		 pop	 ebx
  00093	e8 00 00 00 00	 call	 @__security_check_cookie@4
  00098	8b e5		 mov	 esp, ebp
  0009a	5d		 pop	 ebp
  0009b	c3		 ret	 0
?SCPJoinResultSend@@YAXHE@Z ENDP			; SCPJoinResultSend
_TEXT	ENDS
PUBLIC	??_C@_0BD@CNPHLENH@login?5send?5?3?5?$CFs?5?$CFs?$AA@ ; `string'
PUBLIC	??_C@_04FLFDNKBN@m321?$AA@			; `string'
PUBLIC	??_C@_08NPLAPO@?$LN?$LI?$LF?$LJ?$MA?L?$CFd?$AA@	; `string'
PUBLIC	__$ArrayPad$
PUBLIC	?CSPJoinIdPassRequestTEST@@YAXPAUPMSG_IDPASS@@H@Z ; CSPJoinIdPassRequestTEST
EXTRN	?DataSend@wsJoinServerCli@@QAEHPADH@Z:PROC	; wsJoinServerCli::DataSend
EXTRN	?wsJServerCli@@3VwsJoinServerCli@@A:BYTE	; wsJServerCli
EXTRN	?BuxConvert@@YAXPADH@Z:PROC			; BuxConvert
EXTRN	__imp__wsprintfA:PROC
;	COMDAT ??_C@_0BD@CNPHLENH@login?5send?5?3?5?$CFs?5?$CFs?$AA@
CONST	SEGMENT
??_C@_0BD@CNPHLENH@login?5send?5?3?5?$CFs?5?$CFs?$AA@ DB 'login send : %s'
	DB	' %s', 00H					; `string'
CONST	ENDS
;	COMDAT ??_C@_04FLFDNKBN@m321?$AA@
CONST	SEGMENT
??_C@_04FLFDNKBN@m321?$AA@ DB 'm321', 00H		; `string'
CONST	ENDS
;	COMDAT ??_C@_08NPLAPO@?$LN?$LI?$LF?$LJ?$MA?L?$CFd?$AA@
CONST	SEGMENT
??_C@_08NPLAPO@?$LN?$LI?$LF?$LJ?$MA?L?$CFd?$AA@ DB 0bdH, 0b8H, 0b5H, 0b9H
	DB	0c0H, 0ccH, '%d', 00H			; `string'
; Function compile flags: /Ogtp
CONST	ENDS
;	COMDAT ?CSPJoinIdPassRequestTEST@@YAXPAUPMSG_IDPASS@@H@Z
_TEXT	SEGMENT
_spMsg$ = -84						; size = 54
_szId$ = -28						; size = 11
_szPass$ = -16						; size = 11
__$ArrayPad$ = -4					; size = 4
_lpMsg$ = 8						; size = 4
_aIndex$ = 12						; size = 4
?CSPJoinIdPassRequestTEST@@YAXPAUPMSG_IDPASS@@H@Z PROC	; CSPJoinIdPassRequestTEST, COMDAT

; 2298 : {

  00000	55		 push	 ebp
  00001	8b ec		 mov	 ebp, esp
  00003	83 ec 54	 sub	 esp, 84			; 00000054H
  00006	a1 00 00 00 00	 mov	 eax, DWORD PTR ___security_cookie
  0000b	33 c5		 xor	 eax, ebp
  0000d	89 45 fc	 mov	 DWORD PTR __$ArrayPad$[ebp], eax
  00010	56		 push	 esi
  00011	8b 75 0c	 mov	 esi, DWORD PTR _aIndex$[ebp]

; 2299 : 	char szId[11];
; 2300 : 	char szPass[11];
; 2301 : 	LPOBJ lpObj = &gObj[aIndex];
; 2302 : 	SDHP_IDPASS spMsg;
; 2303 : 
; 2304 : 	PHeadSetB((LPBYTE)&spMsg, 0x11, sizeof(spMsg));

  00014	6a 36		 push	 54			; 00000036H
  00016	8d 45 ac	 lea	 eax, DWORD PTR _spMsg$[ebp]
  00019	6a 11		 push	 17			; 00000011H
  0001b	50		 push	 eax
  0001c	e8 00 00 00 00	 call	 ?PHeadSetB@@YAXPAEEH@Z	; PHeadSetB

; 2305 : 	spMsg.Number = aIndex;
; 2306 : 	wsprintf(szId, "%d", logincounttest);

  00021	8b 0d 00 00 00
	00		 mov	 ecx, DWORD PTR ?logincounttest@@3HA ; logincounttest
  00027	51		 push	 ecx
  00028	8d 55 e4	 lea	 edx, DWORD PTR _szId$[ebp]
  0002b	66 89 75 ce	 mov	 WORD PTR _spMsg$[ebp+34], si
  0002f	8b 35 00 00 00
	00		 mov	 esi, DWORD PTR __imp__wsprintfA
  00035	68 00 00 00 00	 push	 OFFSET ??_C@_08NPLAPO@?$LN?$LI?$LF?$LJ?$MA?L?$CFd?$AA@
  0003a	52		 push	 edx
  0003b	ff d6		 call	 esi

; 2307 : 	wsprintf(szPass, "m321", rand()%9);

  0003d	e8 00 00 00 00	 call	 _rand
  00042	99		 cdq
  00043	b9 09 00 00 00	 mov	 ecx, 9
  00048	f7 f9		 idiv	 ecx
  0004a	52		 push	 edx
  0004b	8d 55 f0	 lea	 edx, DWORD PTR _szPass$[ebp]
  0004e	68 00 00 00 00	 push	 OFFSET ??_C@_04FLFDNKBN@m321?$AA@
  00053	52		 push	 edx
  00054	ff d6		 call	 esi

; 2308 : 	LogAdd("login send : %s %s", szId, szPass);

  00056	8d 45 f0	 lea	 eax, DWORD PTR _szPass$[ebp]
  00059	50		 push	 eax
  0005a	8d 4d e4	 lea	 ecx, DWORD PTR _szId$[ebp]
  0005d	51		 push	 ecx
  0005e	68 00 00 00 00	 push	 OFFSET ??_C@_0BD@CNPHLENH@login?5send?5?3?5?$CFs?5?$CFs?$AA@
  00063	ff 15 00 00 00
	00		 call	 DWORD PTR ?LogAdd@@3P6AXPADZZA ; LogAdd

; 2309 : 	
; 2310 : 	BuxConvert(szId, MAX_ACCOUNT_LEN);

  00069	8d 55 e4	 lea	 edx, DWORD PTR _szId$[ebp]
  0006c	6a 0a		 push	 10			; 0000000aH
  0006e	52		 push	 edx
  0006f	e8 00 00 00 00	 call	 ?BuxConvert@@YAXPADH@Z	; BuxConvert

; 2311 : 	BuxConvert(szPass, MAX_ACCOUNT_LEN);

  00074	8d 45 f0	 lea	 eax, DWORD PTR _szPass$[ebp]
  00077	6a 0a		 push	 10			; 0000000aH
  00079	50		 push	 eax
  0007a	e8 00 00 00 00	 call	 ?BuxConvert@@YAXPADH@Z	; BuxConvert

; 2312 : 	memcpy(spMsg.Id, szId, MAX_ACCOUNT_LEN);

  0007f	0f b7 45 ec	 movzx	 eax, WORD PTR _szId$[ebp+8]
  00083	8b 4d e4	 mov	 ecx, DWORD PTR _szId$[ebp]
  00086	8b 55 e8	 mov	 edx, DWORD PTR _szId$[ebp+4]

; 2313 : 	memcpy(spMsg.Pass, szPass, MAX_ACCOUNT_LEN);
; 2314 : 	logincounttest++;
; 2315 : 	
; 2316 : 	if ( (GetTickCount()-ltesttime) > 1000 )

  00089	8b 35 00 00 00
	00		 mov	 esi, DWORD PTR __imp__GetTickCount@0
  0008f	ff 05 00 00 00
	00		 inc	 DWORD PTR ?logincounttest@@3HA ; logincounttest
  00095	66 89 45 b7	 mov	 WORD PTR _spMsg$[ebp+11], ax
  00099	0f b7 45 f8	 movzx	 eax, WORD PTR _szPass$[ebp+8]
  0009d	89 4d af	 mov	 DWORD PTR _spMsg$[ebp+3], ecx
  000a0	8b 4d f0	 mov	 ecx, DWORD PTR _szPass$[ebp]
  000a3	89 55 b3	 mov	 DWORD PTR _spMsg$[ebp+7], edx
  000a6	8b 55 f4	 mov	 edx, DWORD PTR _szPass$[ebp+4]
  000a9	83 c4 40	 add	 esp, 64			; 00000040H
  000ac	89 4d b9	 mov	 DWORD PTR _spMsg$[ebp+13], ecx
  000af	89 55 bd	 mov	 DWORD PTR _spMsg$[ebp+17], edx
  000b2	66 89 45 c1	 mov	 WORD PTR _spMsg$[ebp+21], ax
  000b6	ff d6		 call	 esi
  000b8	2b 05 00 00 00
	00		 sub	 eax, DWORD PTR ?ltesttime@@3HA ; ltesttime
  000be	3d e8 03 00 00	 cmp	 eax, 1000		; 000003e8H
  000c3	76 11		 jbe	 SHORT $LN1@CSPJoinIdP

; 2317 : 	{
; 2318 : 		ltesttime = GetTickCount();

  000c5	ff d6		 call	 esi
  000c7	a3 00 00 00 00	 mov	 DWORD PTR ?ltesttime@@3HA, eax ; ltesttime

; 2319 : 		logincounttest=0;

  000cc	c7 05 00 00 00
	00 00 00 00 00	 mov	 DWORD PTR ?logincounttest@@3HA, 0 ; logincounttest
$LN1@CSPJoinIdP:

; 2320 : 	}
; 2321 : 
; 2322 : 	wsJServerCli.DataSend((char*)&spMsg, spMsg.h.size);

  000d6	0f b6 4d ad	 movzx	 ecx, BYTE PTR _spMsg$[ebp+1]
  000da	51		 push	 ecx
  000db	8d 55 ac	 lea	 edx, DWORD PTR _spMsg$[ebp]
  000de	52		 push	 edx
  000df	b9 00 00 00 00	 mov	 ecx, OFFSET ?wsJServerCli@@3VwsJoinServerCli@@A ; wsJServerCli
  000e4	e8 00 00 00 00	 call	 ?DataSend@wsJoinServerCli@@QAEHPADH@Z ; wsJoinServerCli::DataSend

; 2323 : 	spMsg.h.headcode = 0x01;
; 2324 : 	wsJServerCli.DataSend((char*)&spMsg, spMsg.h.size);

  000e9	0f b6 45 ad	 movzx	 eax, BYTE PTR _spMsg$[ebp+1]
  000ed	50		 push	 eax
  000ee	8d 4d ac	 lea	 ecx, DWORD PTR _spMsg$[ebp]
  000f1	51		 push	 ecx
  000f2	b9 00 00 00 00	 mov	 ecx, OFFSET ?wsJServerCli@@3VwsJoinServerCli@@A ; wsJServerCli
  000f7	c6 45 ae 01	 mov	 BYTE PTR _spMsg$[ebp+2], 1
  000fb	e8 00 00 00 00	 call	 ?DataSend@wsJoinServerCli@@QAEHPADH@Z ; wsJoinServerCli::DataSend

; 2325 : }

  00100	8b 4d fc	 mov	 ecx, DWORD PTR __$ArrayPad$[ebp]
  00103	33 cd		 xor	 ecx, ebp
  00105	5e		 pop	 esi
  00106	e8 00 00 00 00	 call	 @__security_check_cookie@4
  0010b	8b e5		 mov	 esp, ebp
  0010d	5d		 pop	 ebp
  0010e	c3		 ret	 0
?CSPJoinIdPassRequestTEST@@YAXPAUPMSG_IDPASS@@H@Z ENDP	; CSPJoinIdPassRequestTEST
_TEXT	ENDS
PUBLIC	__$ArrayPad$
PUBLIC	?GCJoinBillCheckSend@@YAXPADH@Z			; GCJoinBillCheckSend
; Function compile flags: /Ogtp
;	COMDAT ?GCJoinBillCheckSend@@YAXPADH@Z
_TEXT	SEGMENT
_pMsg$ = -20						; size = 16
__$ArrayPad$ = -4					; size = 4
_AccountId$ = 8						; size = 4
_aIndex$ = 12						; size = 4
?GCJoinBillCheckSend@@YAXPADH@Z PROC			; GCJoinBillCheckSend, COMDAT

; 2343 : {

  00000	55		 push	 ebp
  00001	8b ec		 mov	 ebp, esp
  00003	83 ec 14	 sub	 esp, 20			; 00000014H
  00006	a1 00 00 00 00	 mov	 eax, DWORD PTR ___security_cookie
  0000b	33 c5		 xor	 eax, ebp
  0000d	89 45 fc	 mov	 DWORD PTR __$ArrayPad$[ebp], eax
  00010	56		 push	 esi
  00011	8b 75 08	 mov	 esi, DWORD PTR _AccountId$[ebp]

; 2344 : 	SDHP_BILLSEARCH pMsg;
; 2345 : 
; 2346 : 	PHeadSetB((LPBYTE)&pMsg, 0x06, sizeof(pMsg));

  00014	6a 10		 push	 16			; 00000010H
  00016	8d 45 ec	 lea	 eax, DWORD PTR _pMsg$[ebp]
  00019	6a 06		 push	 6
  0001b	50		 push	 eax
  0001c	e8 00 00 00 00	 call	 ?PHeadSetB@@YAXPAEEH@Z	; PHeadSetB

; 2347 : 	memcpy(pMsg.Id, AccountId, sizeof(pMsg.Id));

  00021	8b 56 04	 mov	 edx, DWORD PTR [esi+4]
  00024	8b 0e		 mov	 ecx, DWORD PTR [esi]
  00026	66 8b 46 08	 mov	 ax, WORD PTR [esi+8]
  0002a	89 55 f3	 mov	 DWORD PTR _pMsg$[ebp+7], edx

; 2348 : 	pMsg.Number = aIndex;
; 2349 : 
; 2350 : 	wsJServerCli.DataSend((char*)&pMsg, pMsg.h.size);

  0002d	0f b6 55 ed	 movzx	 edx, BYTE PTR _pMsg$[ebp+1]
  00031	83 c4 0c	 add	 esp, 12			; 0000000cH
  00034	89 4d ef	 mov	 DWORD PTR _pMsg$[ebp+3], ecx
  00037	66 8b 4d 0c	 mov	 cx, WORD PTR _aIndex$[ebp]
  0003b	66 89 45 f7	 mov	 WORD PTR _pMsg$[ebp+11], ax
  0003f	52		 push	 edx
  00040	8d 45 ec	 lea	 eax, DWORD PTR _pMsg$[ebp]
  00043	66 89 4d fa	 mov	 WORD PTR _pMsg$[ebp+14], cx
  00047	50		 push	 eax
  00048	b9 00 00 00 00	 mov	 ecx, OFFSET ?wsJServerCli@@3VwsJoinServerCli@@A ; wsJServerCli
  0004d	e8 00 00 00 00	 call	 ?DataSend@wsJoinServerCli@@QAEHPADH@Z ; wsJoinServerCli::DataSend

; 2351 : }

  00052	8b 4d fc	 mov	 ecx, DWORD PTR __$ArrayPad$[ebp]
  00055	33 cd		 xor	 ecx, ebp
  00057	5e		 pop	 esi
  00058	e8 00 00 00 00	 call	 @__security_check_cookie@4
  0005d	8b e5		 mov	 esp, ebp
  0005f	5d		 pop	 ebp
  00060	c3		 ret	 0
?GCJoinBillCheckSend@@YAXPADH@Z ENDP			; GCJoinBillCheckSend
_TEXT	ENDS
PUBLIC	?GCJoinResult@@YAXEH@Z				; GCJoinResult
EXTRN	?PHeadSubSetB@@YAXPAEEEH@Z:PROC			; PHeadSubSetB
; Function compile flags: /Ogtp
;	COMDAT ?GCJoinResult@@YAXEH@Z
_TEXT	SEGMENT
_pResult$ = -8						; size = 5
_result$ = 8						; size = 1
_aIndex$ = 12						; size = 4
?GCJoinResult@@YAXEH@Z PROC				; GCJoinResult, COMDAT

; 2359 : {

  00000	55		 push	 ebp
  00001	8b ec		 mov	 ebp, esp
  00003	83 ec 08	 sub	 esp, 8

; 2360 : 	PMSG_RESULT  pResult;
; 2361 : 
; 2362 : 	PHeadSubSetB((LPBYTE)&pResult, 0xF1, 0x01, sizeof(pResult));

  00006	6a 05		 push	 5
  00008	6a 01		 push	 1
  0000a	8d 45 f8	 lea	 eax, DWORD PTR _pResult$[ebp]
  0000d	68 f1 00 00 00	 push	 241			; 000000f1H
  00012	50		 push	 eax
  00013	e8 00 00 00 00	 call	 ?PHeadSubSetB@@YAXPAEEEH@Z ; PHeadSubSetB

; 2363 : 	pResult.result = result;
; 2364 : 	DataSend(aIndex, (UCHAR*)&pResult, pResult.h.size);

  00018	0f b6 55 f9	 movzx	 edx, BYTE PTR _pResult$[ebp+1]
  0001c	8a 4d 08	 mov	 cl, BYTE PTR _result$[ebp]
  0001f	52		 push	 edx
  00020	8d 45 f8	 lea	 eax, DWORD PTR _pResult$[ebp]
  00023	88 4d fc	 mov	 BYTE PTR _pResult$[ebp+4], cl
  00026	8b 4d 0c	 mov	 ecx, DWORD PTR _aIndex$[ebp]
  00029	50		 push	 eax
  0002a	51		 push	 ecx
  0002b	e8 00 00 00 00	 call	 ?DataSend@@YAHHPAEK@Z	; DataSend
  00030	83 c4 1c	 add	 esp, 28			; 0000001cH

; 2365 : }

  00033	8b e5		 mov	 esp, ebp
  00035	5d		 pop	 ebp
  00036	c3		 ret	 0
?GCJoinResult@@YAXEH@Z ENDP				; GCJoinResult
_TEXT	ENDS
PUBLIC	?GCJoinSocketResult@@YAXEI@Z			; GCJoinSocketResult
EXTRN	?DataSocketSend@CwsGameServer@@QAEHIPADH@Z:PROC	; CwsGameServer::DataSocketSend
EXTRN	?wsGServer@@3VCwsGameServer@@A:BYTE		; wsGServer
; Function compile flags: /Ogtp
;	COMDAT ?GCJoinSocketResult@@YAXEI@Z
_TEXT	SEGMENT
_pResult$ = -8						; size = 5
_result$ = 8						; size = 1
_Socket$ = 12						; size = 4
?GCJoinSocketResult@@YAXEI@Z PROC			; GCJoinSocketResult, COMDAT

; 2371 : {

  00000	55		 push	 ebp
  00001	8b ec		 mov	 ebp, esp
  00003	83 ec 08	 sub	 esp, 8

; 2372 : 	PMSG_RESULT pResult;
; 2373 : 
; 2374 : 	PHeadSubSetB((LPBYTE)&pResult , 0xF1, 0x01, sizeof(pResult) );

  00006	6a 05		 push	 5
  00008	6a 01		 push	 1
  0000a	8d 45 f8	 lea	 eax, DWORD PTR _pResult$[ebp]
  0000d	68 f1 00 00 00	 push	 241			; 000000f1H
  00012	50		 push	 eax
  00013	e8 00 00 00 00	 call	 ?PHeadSubSetB@@YAXPAEEEH@Z ; PHeadSubSetB

; 2375 : 	pResult.result= result;
; 2376 : 
; 2377 : 	wsGServer.DataSocketSend(Socket, (char*)&pResult, pResult.h.size);

  00018	0f b6 55 f9	 movzx	 edx, BYTE PTR _pResult$[ebp+1]
  0001c	8a 4d 08	 mov	 cl, BYTE PTR _result$[ebp]
  0001f	83 c4 10	 add	 esp, 16			; 00000010H
  00022	52		 push	 edx
  00023	88 4d fc	 mov	 BYTE PTR _pResult$[ebp+4], cl
  00026	8b 4d 0c	 mov	 ecx, DWORD PTR _Socket$[ebp]
  00029	8d 45 f8	 lea	 eax, DWORD PTR _pResult$[ebp]
  0002c	50		 push	 eax
  0002d	51		 push	 ecx
  0002e	b9 00 00 00 00	 mov	 ecx, OFFSET ?wsGServer@@3VCwsGameServer@@A ; wsGServer
  00033	e8 00 00 00 00	 call	 ?DataSocketSend@CwsGameServer@@QAEHIPADH@Z ; CwsGameServer::DataSocketSend

; 2378 : }

  00038	8b e5		 mov	 esp, ebp
  0003a	5d		 pop	 ebp
  0003b	c3		 ret	 0
?GCJoinSocketResult@@YAXEI@Z ENDP			; GCJoinSocketResult
_TEXT	ENDS
PUBLIC	??_C@_0DA@BEHJLACI@?$FLUserSelClose?$FN?5Go?5Exit?5?$FL?$CFs?$FN?$FL?$CFs?$FN?5@ ; `string'
PUBLIC	??_C@_0DG@JEMIEEON@?$FLUserSelClose?$FN?5Go?5CharSelect?5?$FL?$CFs@ ; `string'
PUBLIC	??_C@_0DG@MAGKNHGP@?$FLUserSelClose?$FN?5Go?5ServerList?5?$FL?$CFs@ ; `string'
PUBLIC	?CGClientCloseMsg@@YAXPAUPMSG_CLIENTCLOSE@@H@Z	; CGClientCloseMsg
EXTRN	?LogAddTD@@3P6AXPADZZA:DWORD			; LogAddTD
EXTRN	?gObjCloseSet@@YAXHH@Z:PROC			; gObjCloseSet
;	COMDAT ??_C@_0DA@BEHJLACI@?$FLUserSelClose?$FN?5Go?5Exit?5?$FL?$CFs?$FN?$FL?$CFs?$FN?5@
CONST	SEGMENT
??_C@_0DA@BEHJLACI@?$FLUserSelClose?$FN?5Go?5Exit?5?$FL?$CFs?$FN?$FL?$CFs?$FN?5@ DB '['
	DB	'UserSelClose] Go Exit [%s][%s] Map:[%d][%d/%d]', 00H ; `string'
CONST	ENDS
;	COMDAT ??_C@_0DG@JEMIEEON@?$FLUserSelClose?$FN?5Go?5CharSelect?5?$FL?$CFs@
CONST	SEGMENT
??_C@_0DG@JEMIEEON@?$FLUserSelClose?$FN?5Go?5CharSelect?5?$FL?$CFs@ DB '['
	DB	'UserSelClose] Go CharSelect [%s][%s] Map:[%d][%d/%d]', 00H ; `string'
CONST	ENDS
;	COMDAT ??_C@_0DG@MAGKNHGP@?$FLUserSelClose?$FN?5Go?5ServerList?5?$FL?$CFs@
CONST	SEGMENT
??_C@_0DG@MAGKNHGP@?$FLUserSelClose?$FN?5Go?5ServerList?5?$FL?$CFs@ DB '['
	DB	'UserSelClose] Go ServerList [%s][%s] Map:[%d][%d/%d]', 00H ; `string'
; Function compile flags: /Ogtp
CONST	ENDS
;	COMDAT ?CGClientCloseMsg@@YAXPAUPMSG_CLIENTCLOSE@@H@Z
_TEXT	SEGMENT
_lpMsg$ = 8						; size = 4
_aIndex$ = 12						; size = 4
?CGClientCloseMsg@@YAXPAUPMSG_CLIENTCLOSE@@H@Z PROC	; CGClientCloseMsg, COMDAT

; 2386 : {

  00000	55		 push	 ebp
  00001	8b ec		 mov	 ebp, esp

; 2387 : 	switch ( lpMsg->Flag )

  00003	8b 45 08	 mov	 eax, DWORD PTR _lpMsg$[ebp]
  00006	0f b6 40 04	 movzx	 eax, BYTE PTR [eax+4]
  0000a	83 e8 00	 sub	 eax, 0
  0000d	56		 push	 esi
  0000e	0f 84 c0 00 00
	00		 je	 $LN9@CGClientCl
  00014	48		 dec	 eax
  00015	74 62		 je	 SHORT $LN3@CGClientCl
  00017	48		 dec	 eax
  00018	0f 85 09 01 00
	00		 jne	 $LN7@CGClientCl

; 2400 : 			break;
; 2401 : 
; 2402 : 		case 2:	// ServerList
; 2403 : 			gObjCloseSet(aIndex, 2);

  0001e	8b 75 0c	 mov	 esi, DWORD PTR _aIndex$[ebp]
  00021	6a 02		 push	 2
  00023	56		 push	 esi
  00024	e8 00 00 00 00	 call	 ?gObjCloseSet@@YAXHH@Z	; gObjCloseSet
  00029	83 c4 08	 add	 esp, 8

; 2404 : 
; 2405 : 			if ( aIndex < 0 || aIndex > OBJMAX-1)

  0002c	81 fe eb 2c 00
	00		 cmp	 esi, 11499		; 00002cebH
  00032	0f 87 ef 00 00
	00		 ja	 $LN7@CGClientCl

; 2406 : 			{
; 2407 : 				return;
; 2408 : 			}
; 2409 : 
; 2410 : 			LogAddTD("[UserSelClose] Go ServerList [%s][%s] Map:[%d][%d/%d]",
; 2411 : 				gObj[aIndex].AccountID, gObj[aIndex].Name,
; 2412 : 				gObj[aIndex].MapNumber, gObj[aIndex].X, gObj[aIndex].Y);

  00038	8b 0d 00 00 00
	00		 mov	 ecx, DWORD PTR ?gObj@@3PAUOBJECTSTRUCT@@A ; gObj
  0003e	69 f6 40 27 00
	00		 imul	 esi, 10048		; 00002740H
  00044	0f b6 94 0e 21
	01 00 00	 movzx	 edx, BYTE PTR [esi+ecx+289]
  0004c	8d 04 0e	 lea	 eax, DWORD PTR [esi+ecx]
  0004f	0f b6 88 20 01
	00 00		 movzx	 ecx, BYTE PTR [eax+288]
  00056	52		 push	 edx
  00057	0f b6 90 23 01
	00 00		 movzx	 edx, BYTE PTR [eax+291]
  0005e	51		 push	 ecx
  0005f	52		 push	 edx
  00060	8d 48 5d	 lea	 ecx, DWORD PTR [eax+93]
  00063	51		 push	 ecx
  00064	83 c0 52	 add	 eax, 82			; 00000052H
  00067	50		 push	 eax
  00068	68 00 00 00 00	 push	 OFFSET ??_C@_0DG@MAGKNHGP@?$FLUserSelClose?$FN?5Go?5ServerList?5?$FL?$CFs@
  0006d	ff 15 00 00 00
	00		 call	 DWORD PTR ?LogAddTD@@3P6AXPADZZA ; LogAddTD
  00073	83 c4 18	 add	 esp, 24			; 00000018H
  00076	5e		 pop	 esi

; 2426 : 			break;
; 2427 : 	}
; 2428 : }

  00077	5d		 pop	 ebp
  00078	c3		 ret	 0
$LN3@CGClientCl:

; 2413 : 			break;
; 2414 : 
; 2415 : 		case 1:	// Select Character
; 2416 : 			gObjCloseSet(aIndex, 1);

  00079	8b 75 0c	 mov	 esi, DWORD PTR _aIndex$[ebp]
  0007c	6a 01		 push	 1
  0007e	56		 push	 esi
  0007f	e8 00 00 00 00	 call	 ?gObjCloseSet@@YAXHH@Z	; gObjCloseSet
  00084	83 c4 08	 add	 esp, 8

; 2417 : 
; 2418 : 			if ( aIndex < 0 || aIndex > OBJMAX-1)

  00087	81 fe eb 2c 00
	00		 cmp	 esi, 11499		; 00002cebH
  0008d	0f 87 94 00 00
	00		 ja	 $LN7@CGClientCl

; 2419 : 			{
; 2420 : 				return;
; 2421 : 			}
; 2422 : 
; 2423 : 			LogAddTD("[UserSelClose] Go CharSelect [%s][%s] Map:[%d][%d/%d]",
; 2424 : 				gObj[aIndex].AccountID, gObj[aIndex].Name,
; 2425 : 				gObj[aIndex].MapNumber, gObj[aIndex].X, gObj[aIndex].Y);

  00093	8b 15 00 00 00
	00		 mov	 edx, DWORD PTR ?gObj@@3PAUOBJECTSTRUCT@@A ; gObj
  00099	69 f6 40 27 00
	00		 imul	 esi, 10048		; 00002740H
  0009f	0f b6 8c 16 21
	01 00 00	 movzx	 ecx, BYTE PTR [esi+edx+289]
  000a7	8d 04 16	 lea	 eax, DWORD PTR [esi+edx]
  000aa	0f b6 90 20 01
	00 00		 movzx	 edx, BYTE PTR [eax+288]
  000b1	51		 push	 ecx
  000b2	0f b6 88 23 01
	00 00		 movzx	 ecx, BYTE PTR [eax+291]
  000b9	52		 push	 edx
  000ba	51		 push	 ecx
  000bb	8d 50 5d	 lea	 edx, DWORD PTR [eax+93]
  000be	52		 push	 edx
  000bf	83 c0 52	 add	 eax, 82			; 00000052H
  000c2	50		 push	 eax
  000c3	68 00 00 00 00	 push	 OFFSET ??_C@_0DG@JEMIEEON@?$FLUserSelClose?$FN?5Go?5CharSelect?5?$FL?$CFs@
  000c8	ff 15 00 00 00
	00		 call	 DWORD PTR ?LogAddTD@@3P6AXPADZZA ; LogAddTD
  000ce	83 c4 18	 add	 esp, 24			; 00000018H
  000d1	5e		 pop	 esi

; 2426 : 			break;
; 2427 : 	}
; 2428 : }

  000d2	5d		 pop	 ebp
  000d3	c3		 ret	 0
$LN9@CGClientCl:

; 2388 : 	{
; 2389 : 		case 0:	// Close Game
; 2390 : 			gObjCloseSet(aIndex, 0);

  000d4	8b 75 0c	 mov	 esi, DWORD PTR _aIndex$[ebp]
  000d7	6a 00		 push	 0
  000d9	56		 push	 esi
  000da	e8 00 00 00 00	 call	 ?gObjCloseSet@@YAXHH@Z	; gObjCloseSet
  000df	83 c4 08	 add	 esp, 8

; 2391 : 
; 2392 : 			if ( aIndex < 0 || aIndex > OBJMAX-1)

  000e2	81 fe eb 2c 00
	00		 cmp	 esi, 11499		; 00002cebH
  000e8	77 3d		 ja	 SHORT $LN7@CGClientCl

; 2393 : 			{
; 2394 : 				return;
; 2395 : 			}
; 2396 : 
; 2397 : 			LogAddTD("[UserSelClose] Go Exit [%s][%s] Map:[%d][%d/%d]",
; 2398 : 				gObj[aIndex].AccountID, gObj[aIndex].Name,
; 2399 : 				gObj[aIndex].MapNumber, gObj[aIndex].X, gObj[aIndex].Y);

  000ea	a1 00 00 00 00	 mov	 eax, DWORD PTR ?gObj@@3PAUOBJECTSTRUCT@@A ; gObj
  000ef	69 f6 40 27 00
	00		 imul	 esi, 10048		; 00002740H
  000f5	0f b6 8c 30 21
	01 00 00	 movzx	 ecx, BYTE PTR [eax+esi+289]
  000fd	0f b6 94 30 20
	01 00 00	 movzx	 edx, BYTE PTR [eax+esi+288]
  00105	03 c6		 add	 eax, esi
  00107	51		 push	 ecx
  00108	0f b6 88 23 01
	00 00		 movzx	 ecx, BYTE PTR [eax+291]
  0010f	52		 push	 edx
  00110	51		 push	 ecx
  00111	8d 50 5d	 lea	 edx, DWORD PTR [eax+93]
  00114	52		 push	 edx
  00115	83 c0 52	 add	 eax, 82			; 00000052H
  00118	50		 push	 eax
  00119	68 00 00 00 00	 push	 OFFSET ??_C@_0DA@BEHJLACI@?$FLUserSelClose?$FN?5Go?5Exit?5?$FL?$CFs?$FN?$FL?$CFs?$FN?5@
  0011e	ff 15 00 00 00
	00		 call	 DWORD PTR ?LogAddTD@@3P6AXPADZZA ; LogAddTD
  00124	83 c4 18	 add	 esp, 24			; 00000018H
$LN7@CGClientCl:
  00127	5e		 pop	 esi

; 2426 : 			break;
; 2427 : 	}
; 2428 : }

  00128	5d		 pop	 ebp
  00129	c3		 ret	 0
?CGClientCloseMsg@@YAXPAUPMSG_CLIENTCLOSE@@H@Z ENDP	; CGClientCloseMsg
_TEXT	ENDS
PUBLIC	?GCCloseMsgSend@@YAXHE@Z			; GCCloseMsgSend
EXTRN	?PHeadSubSetBE@@YAXPAEEEH@Z:PROC		; PHeadSubSetBE
; Function compile flags: /Ogtp
;	COMDAT ?GCCloseMsgSend@@YAXHE@Z
_TEXT	SEGMENT
_pMsg$ = -8						; size = 5
_aIndex$ = 8						; size = 4
_result$ = 12						; size = 1
?GCCloseMsgSend@@YAXHE@Z PROC				; GCCloseMsgSend, COMDAT

; 2436 : {

  00000	55		 push	 ebp
  00001	8b ec		 mov	 ebp, esp
  00003	83 ec 08	 sub	 esp, 8

; 2437 : 	PMSG_RESULT pMsg;
; 2438 : 
; 2439 : 	PHeadSubSetBE((LPBYTE)&pMsg, 0xF1, 0x02, sizeof(pMsg));

  00006	6a 05		 push	 5
  00008	6a 02		 push	 2
  0000a	8d 45 f8	 lea	 eax, DWORD PTR _pMsg$[ebp]
  0000d	68 f1 00 00 00	 push	 241			; 000000f1H
  00012	50		 push	 eax
  00013	e8 00 00 00 00	 call	 ?PHeadSubSetBE@@YAXPAEEEH@Z ; PHeadSubSetBE

; 2440 : 	pMsg.result = result;
; 2441 : 	
; 2442 : 	DataSend(aIndex, (UCHAR*)&pMsg, pMsg.h.size);

  00018	0f b6 55 f9	 movzx	 edx, BYTE PTR _pMsg$[ebp+1]
  0001c	8a 4d 0c	 mov	 cl, BYTE PTR _result$[ebp]
  0001f	52		 push	 edx
  00020	8d 45 f8	 lea	 eax, DWORD PTR _pMsg$[ebp]
  00023	88 4d fc	 mov	 BYTE PTR _pMsg$[ebp+4], cl
  00026	8b 4d 08	 mov	 ecx, DWORD PTR _aIndex$[ebp]
  00029	50		 push	 eax
  0002a	51		 push	 ecx
  0002b	e8 00 00 00 00	 call	 ?DataSend@@YAHHPAEK@Z	; DataSend
  00030	83 c4 1c	 add	 esp, 28			; 0000001cH

; 2443 : }

  00033	8b e5		 mov	 esp, ebp
  00035	5d		 pop	 ebp
  00036	c3		 ret	 0
?GCCloseMsgSend@@YAXHE@Z ENDP				; GCCloseMsgSend
_TEXT	ENDS
PUBLIC	??_C@_0CI@KOHNJIIP@error?9L1?5?3?5HackCheck?5?$FL?$CFs?$FN?$FL?$CFs?$FN?50x@ ; `string'
PUBLIC	?CGClientMsg@@YAXPAUPMSG_CLIENTMSG@@H@Z		; CGClientMsg
;	COMDAT ??_C@_0CI@KOHNJIIP@error?9L1?5?3?5HackCheck?5?$FL?$CFs?$FN?$FL?$CFs?$FN?50x@
CONST	SEGMENT
??_C@_0CI@KOHNJIIP@error?9L1?5?3?5HackCheck?5?$FL?$CFs?$FN?$FL?$CFs?$FN?50x@ DB 'e'
	DB	'rror-L1 : HackCheck [%s][%s] 0x%x 0x%x', 00H ; `string'
; Function compile flags: /Ogtp
CONST	ENDS
;	COMDAT ?CGClientMsg@@YAXPAUPMSG_CLIENTMSG@@H@Z
_TEXT	SEGMENT
_lpMsg$ = 8						; size = 4
_aIndex$ = 12						; size = 4
?CGClientMsg@@YAXPAUPMSG_CLIENTMSG@@H@Z PROC		; CGClientMsg, COMDAT

; 2450 : {

  00000	55		 push	 ebp
  00001	8b ec		 mov	 ebp, esp

; 2451 : 	if ( lpMsg->Flag )

  00003	8b 55 08	 mov	 edx, DWORD PTR _lpMsg$[ebp]
  00006	8a 4a 04	 mov	 cl, BYTE PTR [edx+4]
  00009	56		 push	 esi
  0000a	84 c9		 test	 cl, cl
  0000c	74 33		 je	 SHORT $LN4@CGClientMs

; 2452 : 	{
; 2453 : 		LogAddC(2,"error-L1 : HackCheck [%s][%s] 0x%x 0x%x",
; 2454 : 			gObj[aIndex].AccountID, gObj[aIndex].Name,
; 2455 : 			lpMsg->Flag, lpMsg->subFlag);

  0000e	8b 45 0c	 mov	 eax, DWORD PTR _aIndex$[ebp]
  00011	0f b6 52 05	 movzx	 edx, BYTE PTR [edx+5]
  00015	69 c0 40 27 00
	00		 imul	 eax, 10048		; 00002740H
  0001b	03 05 00 00 00
	00		 add	 eax, DWORD PTR ?gObj@@3PAUOBJECTSTRUCT@@A ; gObj
  00021	52		 push	 edx
  00022	0f b6 c9	 movzx	 ecx, cl
  00025	51		 push	 ecx
  00026	8d 50 5d	 lea	 edx, DWORD PTR [eax+93]
  00029	52		 push	 edx
  0002a	83 c0 52	 add	 eax, 82			; 00000052H
  0002d	50		 push	 eax
  0002e	68 00 00 00 00	 push	 OFFSET ??_C@_0CI@KOHNJIIP@error?9L1?5?3?5HackCheck?5?$FL?$CFs?$FN?$FL?$CFs?$FN?50x@
  00033	6a 02		 push	 2
  00035	ff 15 00 00 00
	00		 call	 DWORD PTR ?LogAddC@@3P6AXEPADZZA ; LogAddC
  0003b	83 c4 18	 add	 esp, 24			; 00000018H
  0003e	5e		 pop	 esi

; 2470 : 	}
; 2471 : }

  0003f	5d		 pop	 ebp
  00040	c3		 ret	 0
$LN4@CGClientMs:

; 2456 : 	}
; 2457 : 	else 
; 2458 : 	{
; 2459 : 		if ( gObj[aIndex].m_ClientHackLogCount < 100 )

  00041	8b 75 0c	 mov	 esi, DWORD PTR _aIndex$[ebp]
  00044	a1 00 00 00 00	 mov	 eax, DWORD PTR ?gObj@@3PAUOBJECTSTRUCT@@A ; gObj
  00049	69 f6 40 27 00
	00		 imul	 esi, 10048		; 00002740H
  0004f	80 bc 06 77 14
	00 00 64	 cmp	 BYTE PTR [esi+eax+5239], 100 ; 00000064H
  00057	73 26		 jae	 SHORT $LN2@CGClientMs

; 2460 : 		{
; 2461 : 			LogAddC(2, "error-L1 : HackCheck [%s][%s] 0x%x 0x%x",
; 2462 : 				gObj[aIndex].AccountID, gObj[aIndex].Name,
; 2463 : 				lpMsg->Flag, lpMsg->subFlag);

  00059	0f b6 4a 05	 movzx	 ecx, BYTE PTR [edx+5]
  0005d	51		 push	 ecx
  0005e	6a 00		 push	 0
  00060	8d 54 06 5d	 lea	 edx, DWORD PTR [esi+eax+93]
  00064	52		 push	 edx
  00065	8d 44 06 52	 lea	 eax, DWORD PTR [esi+eax+82]
  00069	50		 push	 eax
  0006a	68 00 00 00 00	 push	 OFFSET ??_C@_0CI@KOHNJIIP@error?9L1?5?3?5HackCheck?5?$FL?$CFs?$FN?$FL?$CFs?$FN?50x@
  0006f	6a 02		 push	 2
  00071	ff 15 00 00 00
	00		 call	 DWORD PTR ?LogAddC@@3P6AXEPADZZA ; LogAddC
  00077	a1 00 00 00 00	 mov	 eax, DWORD PTR ?gObj@@3PAUOBJECTSTRUCT@@A ; gObj
  0007c	83 c4 18	 add	 esp, 24			; 00000018H
$LN2@CGClientMs:

; 2464 : 		}
; 2465 : 
; 2466 : 		gObj[aIndex].m_ClientHackLogCount++;

  0007f	fe 84 06 77 14
	00 00		 inc	 BYTE PTR [esi+eax+5239]

; 2467 : 
; 2468 : 		if ( gObj[aIndex].m_ClientHackLogCount >= 100 )

  00086	a1 00 00 00 00	 mov	 eax, DWORD PTR ?gObj@@3PAUOBJECTSTRUCT@@A ; gObj
  0008b	80 bc 06 77 14
	00 00 64	 cmp	 BYTE PTR [esi+eax+5239], 100 ; 00000064H
  00093	72 08		 jb	 SHORT $LN1@CGClientMs

; 2469 : 			gObj[aIndex].m_ClientHackLogCount = 100;

  00095	c6 84 06 77 14
	00 00 64	 mov	 BYTE PTR [esi+eax+5239], 100 ; 00000064H
$LN1@CGClientMs:
  0009d	5e		 pop	 esi

; 2470 : 	}
; 2471 : }

  0009e	5d		 pop	 ebp
  0009f	c3		 ret	 0
?CGClientMsg@@YAXPAUPMSG_CLIENTMSG@@H@Z ENDP		; CGClientMsg
_TEXT	ENDS
PUBLIC	??_C@_0BJ@GDNNOEGN@Character?5create?5?3?5?$CFs?0?$CFs?$AA@ ; `string'
PUBLIC	??_C@_0CP@FFBFNNND@error?9L1?3?5Darklord?5Character?5cre@ ; `string'
PUBLIC	??_C@_0CO@FCKNKLJK@error?9L1?3?5Magumsa?5Character?5crea@ ; `string'
PUBLIC	??_C@_0DN@NJBNDAEI@?$FL?$CFs?$FN?5Create?5character?5error?5?$CIReq@ ; `string'
PUBLIC	??_C@_0CA@LCMJGFID@Character?5creation?5is?5disabled?$CB?$AA@ ; `string'
PUBLIC	??_C@_0FF@BEFIFKBL@?$FLAnti?9HACK?$FN?$FLCGPCharacterCreate?$FN?5@ ; `string'
PUBLIC	__$ArrayPad$
PUBLIC	?CGPCharacterCreate@@YAXPAUPMSG_CHARCREATE@@H@Z	; CGPCharacterCreate
EXTRN	?Send@DBSockMng@@QAEHPADH@Z:PROC		; DBSockMng::Send
EXTRN	?cDBSMng@@3VDBSockMng@@A:BYTE			; cDBSMng
EXTRN	_isalnum:PROC
EXTRN	?g_MultilangCharacterName@@3EA:BYTE		; g_MultilangCharacterName
EXTRN	?g_CreateCharLevelRF@@3FA:WORD			; g_CreateCharLevelRF
EXTRN	?g_CreateCharLevelSUM@@3FA:WORD			; g_CreateCharLevelSUM
EXTRN	?g_CreateCharLevelDL@@3FA:WORD			; g_CreateCharLevelDL
EXTRN	?g_CreateCharLevelMG@@3FA:WORD			; g_CreateCharLevelMG
EXTRN	?gCreateCharacter@@3HA:DWORD			; gCreateCharacter
EXTRN	?JGCharacterCreateFailSend@@YAXHPAD@Z:PROC	; JGCharacterCreateFailSend
;	COMDAT ??_C@_0BJ@GDNNOEGN@Character?5create?5?3?5?$CFs?0?$CFs?$AA@
CONST	SEGMENT
??_C@_0BJ@GDNNOEGN@Character?5create?5?3?5?$CFs?0?$CFs?$AA@ DB 'Character'
	DB	' create : %s,%s', 00H			; `string'
CONST	ENDS
;	COMDAT ??_C@_0CP@FFBFNNND@error?9L1?3?5Darklord?5Character?5cre@
CONST	SEGMENT
??_C@_0CP@FFBFNNND@error?9L1?3?5Darklord?5Character?5cre@ DB 'error-L1: D'
	DB	'arklord Character create error [%s]', 00H	; `string'
CONST	ENDS
;	COMDAT ??_C@_0CO@FCKNKLJK@error?9L1?3?5Magumsa?5Character?5crea@
CONST	SEGMENT
??_C@_0CO@FCKNKLJK@error?9L1?3?5Magumsa?5Character?5crea@ DB 'error-L1: M'
	DB	'agumsa Character create error [%s]', 00H	; `string'
CONST	ENDS
;	COMDAT ??_C@_0DN@NJBNDAEI@?$FL?$CFs?$FN?5Create?5character?5error?5?$CIReq@
CONST	SEGMENT
??_C@_0DN@NJBNDAEI@?$FL?$CFs?$FN?5Create?5character?5error?5?$CIReq@ DB '['
	DB	'%s] Create character error (ReqLevel: %d, AccountLevel: %d)', 00H ; `string'
CONST	ENDS
;	COMDAT ??_C@_0CA@LCMJGFID@Character?5creation?5is?5disabled?$CB?$AA@
CONST	SEGMENT
??_C@_0CA@LCMJGFID@Character?5creation?5is?5disabled?$CB?$AA@ DB 'Charact'
	DB	'er creation is disabled!', 00H		; `string'
CONST	ENDS
;	COMDAT ??_C@_0FF@BEFIFKBL@?$FLAnti?9HACK?$FN?$FLCGPCharacterCreate?$FN?5@
CONST	SEGMENT
??_C@_0FF@BEFIFKBL@?$FLAnti?9HACK?$FN?$FLCGPCharacterCreate?$FN?5@ DB '[A'
	DB	'nti-HACK][CGPCharacterCreate] Attempted Character Create duri'
	DB	'ng GamePlay. [%s][%s]', 00H			; `string'
; Function compile flags: /Ogtp
CONST	ENDS
;	COMDAT ?CGPCharacterCreate@@YAXPAUPMSG_CHARCREATE@@H@Z
_TEXT	SEGMENT
tv297 = -136						; size = 4
_i$217885 = -132					; size = 4
tv463 = -125						; size = 1
_pResult$217890 = -124					; size = 44
_sCreate$ = -80						; size = 36
_szTemp2$ = -44						; size = 20
_szTemp$ = -24						; size = 20
__$ArrayPad$ = -4					; size = 4
_lpMsg$ = 8						; size = 4
_aIndex$ = 12						; size = 4
?CGPCharacterCreate@@YAXPAUPMSG_CHARCREATE@@H@Z PROC	; CGPCharacterCreate, COMDAT

; 2490 : {

  00000	55		 push	 ebp
  00001	8b ec		 mov	 ebp, esp
  00003	81 ec 88 00 00
	00		 sub	 esp, 136		; 00000088H
  00009	a1 00 00 00 00	 mov	 eax, DWORD PTR ___security_cookie
  0000e	33 c5		 xor	 eax, ebp
  00010	89 45 fc	 mov	 DWORD PTR __$ArrayPad$[ebp], eax

; 2491 : 	if ( !PacketCheckTime(&gObj[aIndex]))

  00013	a1 00 00 00 00	 mov	 eax, DWORD PTR ?gObj@@3PAUOBJECTSTRUCT@@A ; gObj
  00018	53		 push	 ebx
  00019	8b 5d 0c	 mov	 ebx, DWORD PTR _aIndex$[ebp]
  0001c	56		 push	 esi
  0001d	8b 75 08	 mov	 esi, DWORD PTR _lpMsg$[ebp]
  00020	57		 push	 edi
  00021	8b fb		 mov	 edi, ebx
  00023	69 ff 40 27 00
	00		 imul	 edi, 10048		; 00002740H
  00029	8d 0c 07	 lea	 ecx, DWORD PTR [edi+eax]
  0002c	51		 push	 ecx
  0002d	e8 00 00 00 00	 call	 ?PacketCheckTime@@YAHPAUOBJECTSTRUCT@@@Z ; PacketCheckTime
  00032	83 c4 04	 add	 esp, 4
  00035	85 c0		 test	 eax, eax
  00037	75 1e		 jne	 SHORT $LN22@CGPCharact
$LN38@CGPCharact:

; 2492 : 	{
; 2493 : 		JGCharacterCreateFailSend(aIndex, lpMsg->Name);

  00039	83 c6 04	 add	 esi, 4
  0003c	56		 push	 esi
  0003d	53		 push	 ebx
  0003e	e8 00 00 00 00	 call	 ?JGCharacterCreateFailSend@@YAXHPAD@Z ; JGCharacterCreateFailSend
  00043	83 c4 08	 add	 esp, 8
  00046	5f		 pop	 edi
  00047	5e		 pop	 esi
  00048	5b		 pop	 ebx

; 2634 : }

  00049	8b 4d fc	 mov	 ecx, DWORD PTR __$ArrayPad$[ebp]
  0004c	33 cd		 xor	 ecx, ebp
  0004e	e8 00 00 00 00	 call	 @__security_check_cookie@4
  00053	8b e5		 mov	 esp, ebp
  00055	5d		 pop	 ebp
  00056	c3		 ret	 0
$LN22@CGPCharact:

; 2494 : 		return;
; 2495 : 	}
; 2496 : 
; 2497 : 	if ( gObj[aIndex].Connected < PLAYER_LOGGED )

  00057	a1 00 00 00 00	 mov	 eax, DWORD PTR ?gObj@@3PAUOBJECTSTRUCT@@A ; gObj
  0005c	8b 4c 07 04	 mov	 ecx, DWORD PTR [edi+eax+4]
  00060	83 f9 02	 cmp	 ecx, 2
  00063	7d 36		 jge	 SHORT $LN21@CGPCharact

; 2498 : 	{
; 2499 : 		LogAdd(lMsg.Get(MSGGET(1, 220)), aIndex, gObj[aIndex].Ip_addr);

  00065	8d 54 07 1c	 lea	 edx, DWORD PTR [edi+eax+28]
  00069	52		 push	 edx
  0006a	53		 push	 ebx
  0006b	68 dc 01 00 00	 push	 476			; 000001dcH
  00070	b9 00 00 00 00	 mov	 ecx, OFFSET ?lMsg@@3VMessage@@A ; lMsg
  00075	e8 00 00 00 00	 call	 ?Get@Message@@QAEPADH@Z	; Message::Get
  0007a	50		 push	 eax
  0007b	ff 15 00 00 00
	00		 call	 DWORD PTR ?LogAdd@@3P6AXPADZZA ; LogAdd

; 2500 : 		CloseClient(aIndex);

  00081	53		 push	 ebx
  00082	e8 00 00 00 00	 call	 ?CloseClient@@YAXH@Z	; CloseClient
  00087	83 c4 10	 add	 esp, 16			; 00000010H
  0008a	5f		 pop	 edi
  0008b	5e		 pop	 esi
  0008c	5b		 pop	 ebx

; 2634 : }

  0008d	8b 4d fc	 mov	 ecx, DWORD PTR __$ArrayPad$[ebp]
  00090	33 cd		 xor	 ecx, ebp
  00092	e8 00 00 00 00	 call	 @__security_check_cookie@4
  00097	8b e5		 mov	 esp, ebp
  00099	5d		 pop	 ebp
  0009a	c3		 ret	 0
$LN21@CGPCharact:

; 2501 : 
; 2502 : 		return;
; 2503 : 	}
; 2504 : 
; 2505 : 	if ( gObj[aIndex].Connected == PLAYER_PLAYING )

  0009b	83 f9 03	 cmp	 ecx, 3
  0009e	75 2f		 jne	 SHORT $LN20@CGPCharact

; 2506 : 	{
; 2507 : 		LogAddTD("[Anti-HACK][CGPCharacterCreate] Attempted Character Create during GamePlay. [%s][%s]",
; 2508 : 			gObj[aIndex].AccountID, gObj[aIndex].Name);

  000a0	8d 4c 07 5d	 lea	 ecx, DWORD PTR [edi+eax+93]
  000a4	51		 push	 ecx
  000a5	8d 54 07 52	 lea	 edx, DWORD PTR [edi+eax+82]
  000a9	52		 push	 edx
  000aa	68 00 00 00 00	 push	 OFFSET ??_C@_0FF@BEFIFKBL@?$FLAnti?9HACK?$FN?$FLCGPCharacterCreate?$FN?5@
  000af	ff 15 00 00 00
	00		 call	 DWORD PTR ?LogAddTD@@3P6AXPADZZA ; LogAddTD

; 2509 : 		CloseClient(aIndex);

  000b5	53		 push	 ebx
  000b6	e8 00 00 00 00	 call	 ?CloseClient@@YAXH@Z	; CloseClient
  000bb	83 c4 10	 add	 esp, 16			; 00000010H
  000be	5f		 pop	 edi
  000bf	5e		 pop	 esi
  000c0	5b		 pop	 ebx

; 2634 : }

  000c1	8b 4d fc	 mov	 ecx, DWORD PTR __$ArrayPad$[ebp]
  000c4	33 cd		 xor	 ecx, ebp
  000c6	e8 00 00 00 00	 call	 @__security_check_cookie@4
  000cb	8b e5		 mov	 esp, ebp
  000cd	5d		 pop	 ebp
  000ce	c3		 ret	 0
$LN20@CGPCharact:

; 2510 : 
; 2511 : 		return;
; 2512 : 	}
; 2513 : 
; 2514 : 	if ( !gCreateCharacter )

  000cf	83 3d 00 00 00
	00 00		 cmp	 DWORD PTR ?gCreateCharacter@@3HA, 0 ; gCreateCharacter
  000d6	75 2b		 jne	 SHORT $LN19@CGPCharact

; 2515 : 	{
; 2516 : 		GCServerMsgStringSend("Character creation is disabled!", aIndex, 1);

  000d8	6a 01		 push	 1
  000da	53		 push	 ebx
  000db	68 00 00 00 00	 push	 OFFSET ??_C@_0CA@LCMJGFID@Character?5creation?5is?5disabled?$CB?$AA@
  000e0	e8 00 00 00 00	 call	 ?GCServerMsgStringSend@@YAXPADHE@Z ; GCServerMsgStringSend

; 2517 : 		JGCharacterCreateFailSend(aIndex, lpMsg->Name);

  000e5	83 c6 04	 add	 esi, 4
  000e8	56		 push	 esi
  000e9	53		 push	 ebx
  000ea	e8 00 00 00 00	 call	 ?JGCharacterCreateFailSend@@YAXHPAD@Z ; JGCharacterCreateFailSend
  000ef	83 c4 14	 add	 esp, 20			; 00000014H
  000f2	5f		 pop	 edi
  000f3	5e		 pop	 esi
  000f4	5b		 pop	 ebx

; 2634 : }

  000f5	8b 4d fc	 mov	 ecx, DWORD PTR __$ArrayPad$[ebp]
  000f8	33 cd		 xor	 ecx, ebp
  000fa	e8 00 00 00 00	 call	 @__security_check_cookie@4
  000ff	8b e5		 mov	 esp, ebp
  00101	5d		 pop	 ebp
  00102	c3		 ret	 0
$LN19@CGPCharact:

; 2518 : 		return;
; 2519 : 	}
; 2520 : 
; 2521 : 
; 2522 : 	if ( lpMsg->ClassSkin == 0x00 ||
; 2523 : 		 lpMsg->ClassSkin == 0x10 ||
; 2524 : 		 lpMsg->ClassSkin == 0x20 ||
; 2525 : 		 lpMsg->ClassSkin == 0x30 ||
; 2526 : 		 lpMsg->ClassSkin == 0x40 ||
; 2527 : 		 lpMsg->ClassSkin == 0x50 ||
; 2528 : 		 lpMsg->ClassSkin == 0x60 )

  00103	8a 4e 0e	 mov	 cl, BYTE PTR [esi+14]
  00106	84 c9		 test	 cl, cl
  00108	74 22		 je	 SHORT $LN17@CGPCharact
  0010a	80 f9 10	 cmp	 cl, 16			; 00000010H
  0010d	74 1d		 je	 SHORT $LN17@CGPCharact
  0010f	80 f9 20	 cmp	 cl, 32			; 00000020H
  00112	74 18		 je	 SHORT $LN17@CGPCharact
  00114	80 f9 30	 cmp	 cl, 48			; 00000030H
  00117	74 1c		 je	 SHORT $LN37@CGPCharact
  00119	80 f9 40	 cmp	 cl, 64			; 00000040H
  0011c	74 0e		 je	 SHORT $LN17@CGPCharact
  0011e	80 f9 50	 cmp	 cl, 80			; 00000050H
  00121	74 09		 je	 SHORT $LN17@CGPCharact
  00123	80 f9 60	 cmp	 cl, 96			; 00000060H

; 2529 : 	{
; 2530 : 
; 2531 : 	}
; 2532 : 	else
; 2533 : 	{
; 2534 : 		JGCharacterCreateFailSend(aIndex, lpMsg->Name);
; 2535 : 		return;

  00126	0f 85 0d ff ff
	ff		 jne	 $LN38@CGPCharact
$LN17@CGPCharact:

; 2536 : 	}
; 2537 : 
; 2538 : 	
; 2539 : 
; 2540 : 	if( lpMsg->ClassSkin == 0x30 ) // MG

  0012c	80 f9 30	 cmp	 cl, 48			; 00000030H
  0012f	0f 85 83 00 00
	00		 jne	 $LN13@CGPCharact
$LN37@CGPCharact:

; 2541 : 	{
; 2542 : 		if( gObj[aIndex].m_AccountMaxLevel < g_CreateCharLevelMG )

  00135	0f b7 4c 07 08	 movzx	 ecx, WORD PTR [edi+eax+8]
  0013a	66 8b 15 00 00
	00 00		 mov	 dx, WORD PTR ?g_CreateCharLevelMG@@3FA ; g_CreateCharLevelMG
  00141	66 3b ca	 cmp	 cx, dx
  00144	7d 38		 jge	 SHORT $LN14@CGPCharact
$LN39@CGPCharact:

; 2543 : 		{
; 2544 : 			LogAddC(2, "[%s] Create character error (ReqLevel: %d, AccountLevel: %d)", 
; 2545 : 				gObj[aIndex].AccountID, g_CreateCharLevelMG, gObj[aIndex].m_AccountMaxLevel);

  00146	0f bf c9	 movsx	 ecx, cx
  00149	51		 push	 ecx
  0014a	0f bf d2	 movsx	 edx, dx
  0014d	52		 push	 edx
  0014e	8d 44 07 52	 lea	 eax, DWORD PTR [edi+eax+82]
  00152	50		 push	 eax
  00153	68 00 00 00 00	 push	 OFFSET ??_C@_0DN@NJBNDAEI@?$FL?$CFs?$FN?5Create?5character?5error?5?$CIReq@
  00158	6a 02		 push	 2
  0015a	ff 15 00 00 00
	00		 call	 DWORD PTR ?LogAddC@@3P6AXEPADZZA ; LogAddC

; 2546 : 			JGCharacterCreateFailSend(aIndex, lpMsg->Name);

  00160	83 c6 04	 add	 esi, 4
  00163	56		 push	 esi
  00164	53		 push	 ebx
  00165	e8 00 00 00 00	 call	 ?JGCharacterCreateFailSend@@YAXHPAD@Z ; JGCharacterCreateFailSend
  0016a	83 c4 1c	 add	 esp, 28			; 0000001cH
  0016d	5f		 pop	 edi
  0016e	5e		 pop	 esi
  0016f	5b		 pop	 ebx

; 2634 : }

  00170	8b 4d fc	 mov	 ecx, DWORD PTR __$ArrayPad$[ebp]
  00173	33 cd		 xor	 ecx, ebp
  00175	e8 00 00 00 00	 call	 @__security_check_cookie@4
  0017a	8b e5		 mov	 esp, ebp
  0017c	5d		 pop	 ebp
  0017d	c3		 ret	 0
$LN14@CGPCharact:

; 2547 : 			return;
; 2548 : 		}
; 2549 : 
; 2550 : 		if ( gObj[aIndex].Magumsa == 0 )

  0017e	80 7c 07 34 00	 cmp	 BYTE PTR [edi+eax+52], 0
  00183	75 30		 jne	 SHORT $LN30@CGPCharact

; 2551 : 		{
; 2552 : 			LogAddC(2, "error-L1: Magumsa Character create error [%s]", gObj[aIndex].AccountID);

  00185	8d 4c 07 52	 lea	 ecx, DWORD PTR [edi+eax+82]
  00189	51		 push	 ecx
  0018a	68 00 00 00 00	 push	 OFFSET ??_C@_0CO@FCKNKLJK@error?9L1?3?5Magumsa?5Character?5crea@
$LN40@CGPCharact:
  0018f	6a 02		 push	 2
  00191	ff 15 00 00 00
	00		 call	 DWORD PTR ?LogAddC@@3P6AXEPADZZA ; LogAddC

; 2553 : 			JGCharacterCreateFailSend(aIndex, lpMsg->Name);

  00197	83 c6 04	 add	 esi, 4
  0019a	56		 push	 esi
  0019b	53		 push	 ebx
  0019c	e8 00 00 00 00	 call	 ?JGCharacterCreateFailSend@@YAXHPAD@Z ; JGCharacterCreateFailSend
  001a1	83 c4 14	 add	 esp, 20			; 00000014H
  001a4	5f		 pop	 edi
  001a5	5e		 pop	 esi
  001a6	5b		 pop	 ebx

; 2634 : }

  001a7	8b 4d fc	 mov	 ecx, DWORD PTR __$ArrayPad$[ebp]
  001aa	33 cd		 xor	 ecx, ebp
  001ac	e8 00 00 00 00	 call	 @__security_check_cookie@4
  001b1	8b e5		 mov	 esp, ebp
  001b3	5d		 pop	 ebp
  001b4	c3		 ret	 0
$LN30@CGPCharact:

; 2554 : 			return;

  001b5	8a 4e 0e	 mov	 cl, BYTE PTR [esi+14]
$LN13@CGPCharact:

; 2555 : 		}
; 2556 : 	}
; 2557 : 
; 2558 : 	if ( lpMsg->ClassSkin == 0x40 ) // DL

  001b8	80 f9 40	 cmp	 cl, 64			; 00000040H
  001bb	75 2b		 jne	 SHORT $LN10@CGPCharact

; 2559 : 	{
; 2560 : 		if( gObj[aIndex].m_AccountMaxLevel < g_CreateCharLevelDL )

  001bd	0f b7 4c 07 08	 movzx	 ecx, WORD PTR [edi+eax+8]
  001c2	66 8b 15 00 00
	00 00		 mov	 dx, WORD PTR ?g_CreateCharLevelDL@@3FA ; g_CreateCharLevelDL
  001c9	66 3b ca	 cmp	 cx, dx

; 2561 : 		{
; 2562 : 			LogAddC(2, "[%s] Create character error (ReqLevel: %d, AccountLevel: %d)", 
; 2563 : 				gObj[aIndex].AccountID, g_CreateCharLevelDL, gObj[aIndex].m_AccountMaxLevel);
; 2564 : 			JGCharacterCreateFailSend(aIndex, lpMsg->Name);
; 2565 : 			return;

  001cc	0f 8c 74 ff ff
	ff		 jl	 $LN39@CGPCharact

; 2566 : 		}
; 2567 : 
; 2568 : 		if ( gObj[aIndex].Magumsa != 2 )

  001d2	80 7c 07 34 02	 cmp	 BYTE PTR [edi+eax+52], 2
  001d7	74 0c		 je	 SHORT $LN31@CGPCharact

; 2569 : 		{
; 2570 : 			LogAddC(2, "error-L1: Darklord Character create error [%s]", gObj[aIndex].AccountID);

  001d9	8d 4c 07 52	 lea	 ecx, DWORD PTR [edi+eax+82]
  001dd	51		 push	 ecx
  001de	68 00 00 00 00	 push	 OFFSET ??_C@_0CP@FFBFNNND@error?9L1?3?5Darklord?5Character?5cre@

; 2571 : 			JGCharacterCreateFailSend(aIndex, lpMsg->Name);
; 2572 : 			return;

  001e3	eb aa		 jmp	 SHORT $LN40@CGPCharact
$LN31@CGPCharact:
  001e5	8a 4e 0e	 mov	 cl, BYTE PTR [esi+14]
$LN10@CGPCharact:

; 2573 : 		}
; 2574 : 	}
; 2575 : 	
; 2576 : 	if ( lpMsg->ClassSkin == 0x50 ) // SUM

  001e8	80 f9 50	 cmp	 cl, 80			; 00000050H
  001eb	75 18		 jne	 SHORT $LN8@CGPCharact

; 2577 : 	{
; 2578 : 		if( gObj[aIndex].m_AccountMaxLevel < g_CreateCharLevelSUM )

  001ed	0f b7 4c 07 08	 movzx	 ecx, WORD PTR [edi+eax+8]
  001f2	66 8b 15 00 00
	00 00		 mov	 dx, WORD PTR ?g_CreateCharLevelSUM@@3FA ; g_CreateCharLevelSUM
  001f9	66 3b ca	 cmp	 cx, dx

; 2579 : 		{
; 2580 : 			LogAddC(2, "[%s] Create character error (ReqLevel: %d, AccountLevel: %d)", 
; 2581 : 				gObj[aIndex].AccountID, g_CreateCharLevelSUM, gObj[aIndex].m_AccountMaxLevel);
; 2582 : 			JGCharacterCreateFailSend(aIndex, lpMsg->Name);
; 2583 : 			return;

  001fc	0f 8c 44 ff ff
	ff		 jl	 $LN39@CGPCharact
  00202	8a 4e 0e	 mov	 cl, BYTE PTR [esi+14]
$LN8@CGPCharact:

; 2584 : 		}
; 2585 : 	}
; 2586 : 
; 2587 : 	if ( lpMsg->ClassSkin == 0x60 ) // RF

  00205	80 f9 60	 cmp	 cl, 96			; 00000060H
  00208	75 15		 jne	 SHORT $LN33@CGPCharact

; 2588 : 	{
; 2589 : 		if( gObj[aIndex].m_AccountMaxLevel < g_CreateCharLevelRF )

  0020a	0f b7 4c 07 08	 movzx	 ecx, WORD PTR [edi+eax+8]
  0020f	66 8b 15 00 00
	00 00		 mov	 dx, WORD PTR ?g_CreateCharLevelRF@@3FA ; g_CreateCharLevelRF
  00216	66 3b ca	 cmp	 cx, dx

; 2590 : 		{
; 2591 : 			LogAddC(2, "[%s] Create character error (ReqLevel: %d, AccountLevel: %d)", 
; 2592 : 				gObj[aIndex].AccountID, g_CreateCharLevelRF, gObj[aIndex].m_AccountMaxLevel);
; 2593 : 			JGCharacterCreateFailSend(aIndex, lpMsg->Name);
; 2594 : 			return;

  00219	0f 8c 27 ff ff
	ff		 jl	 $LN39@CGPCharact
$LN33@CGPCharact:

; 2595 : 		}
; 2596 : 	}
; 2597 : 
; 2598 : 	if( g_MultilangCharacterName == 0 )

  0021f	80 3d 00 00 00
	00 00		 cmp	 BYTE PTR ?g_MultilangCharacterName@@3EA, 0 ; g_MultilangCharacterName
  00226	75 59		 jne	 SHORT $LN35@CGPCharact

; 2599 : 	{
; 2600 : 		for(int i = 0; i < strlen(lpMsg->Name); i++)

  00228	8d 46 04	 lea	 eax, DWORD PTR [esi+4]
  0022b	c7 85 7c ff ff
	ff 00 00 00 00	 mov	 DWORD PTR _i$217885[ebp], 0
  00235	8d 50 01	 lea	 edx, DWORD PTR [eax+1]
$LL28@CGPCharact:
  00238	8a 08		 mov	 cl, BYTE PTR [eax]
  0023a	40		 inc	 eax
  0023b	84 c9		 test	 cl, cl
  0023d	75 f9		 jne	 SHORT $LL28@CGPCharact
  0023f	2b c2		 sub	 eax, edx
  00241	74 3e		 je	 SHORT $LN35@CGPCharact
$LL34@CGPCharact:

; 2601 : 		{
; 2602 : 			if( !isalnum(lpMsg->Name[i]) )	

  00243	8b 8d 7c ff ff
	ff		 mov	 ecx, DWORD PTR _i$217885[ebp]
  00249	0f be 54 0e 04	 movsx	 edx, BYTE PTR [esi+ecx+4]
  0024e	52		 push	 edx
  0024f	e8 00 00 00 00	 call	 _isalnum
  00254	83 c4 04	 add	 esp, 4
  00257	85 c0		 test	 eax, eax
  00259	0f 84 e6 00 00
	00		 je	 $LN26@CGPCharact

; 2599 : 	{
; 2600 : 		for(int i = 0; i < strlen(lpMsg->Name); i++)

  0025f	ff 85 7c ff ff
	ff		 inc	 DWORD PTR _i$217885[ebp]
  00265	8d 46 04	 lea	 eax, DWORD PTR [esi+4]
  00268	8d 50 01	 lea	 edx, DWORD PTR [eax+1]
  0026b	eb 03 8d 49 00	 npad	 5
$LL29@CGPCharact:
  00270	8a 08		 mov	 cl, BYTE PTR [eax]
  00272	40		 inc	 eax
  00273	84 c9		 test	 cl, cl
  00275	75 f9		 jne	 SHORT $LL29@CGPCharact
  00277	2b c2		 sub	 eax, edx
  00279	39 85 7c ff ff
	ff		 cmp	 DWORD PTR _i$217885[ebp], eax
  0027f	72 c2		 jb	 SHORT $LL34@CGPCharact
$LN35@CGPCharact:

; 2611 : 				return;
; 2612 : 			}
; 2613 : 		}
; 2614 : 	}
; 2615 : 
; 2616 : 	SDHP_CREATECHAR sCreate;
; 2617 : 
; 2618 : 	memset(&sCreate, 0, sizeof(sCreate));

  00281	33 c0		 xor	 eax, eax

; 2619 : 	PHeadSetB((LPBYTE)&sCreate, 0x04, sizeof(sCreate));

  00283	6a 24		 push	 36			; 00000024H
  00285	8d 55 b0	 lea	 edx, DWORD PTR _sCreate$[ebp]
  00288	6a 04		 push	 4
  0028a	52		 push	 edx
  0028b	89 45 b0	 mov	 DWORD PTR _sCreate$[ebp], eax
  0028e	89 45 b4	 mov	 DWORD PTR _sCreate$[ebp+4], eax
  00291	89 45 b8	 mov	 DWORD PTR _sCreate$[ebp+8], eax
  00294	89 45 bc	 mov	 DWORD PTR _sCreate$[ebp+12], eax
  00297	89 45 c0	 mov	 DWORD PTR _sCreate$[ebp+16], eax
  0029a	89 45 c4	 mov	 DWORD PTR _sCreate$[ebp+20], eax
  0029d	89 45 c8	 mov	 DWORD PTR _sCreate$[ebp+24], eax
  002a0	89 45 cc	 mov	 DWORD PTR _sCreate$[ebp+28], eax
  002a3	89 45 d0	 mov	 DWORD PTR _sCreate$[ebp+32], eax
  002a6	e8 00 00 00 00	 call	 ?PHeadSetB@@YAXPAEEH@Z	; PHeadSetB

; 2620 : 	sCreate.ClassSkin = lpMsg->ClassSkin;

  002ab	8a 46 0e	 mov	 al, BYTE PTR [esi+14]
  002ae	88 45 d2	 mov	 BYTE PTR _sCreate$[ebp+34], al

; 2621 : 	sCreate.Number = aIndex;
; 2622 : 	memcpy(sCreate.AccountId, gObj[aIndex].AccountID, MAX_ACCOUNT_LEN);

  002b1	a1 00 00 00 00	 mov	 eax, DWORD PTR ?gObj@@3PAUOBJECTSTRUCT@@A ; gObj
  002b6	66 89 5d bc	 mov	 WORD PTR _sCreate$[ebp+12], bx
  002ba	8b 4c 07 52	 mov	 ecx, DWORD PTR [edi+eax+82]
  002be	89 4d be	 mov	 DWORD PTR _sCreate$[ebp+14], ecx
  002c1	8b 54 07 56	 mov	 edx, DWORD PTR [edi+eax+86]
  002c5	89 55 c2	 mov	 DWORD PTR _sCreate$[ebp+18], edx
  002c8	66 8b 44 07 5a	 mov	 ax, WORD PTR [edi+eax+90]

; 2623 : 	memcpy(sCreate.Name, lpMsg->Name, MAX_ACCOUNT_LEN);

  002cd	8b 7e 04	 mov	 edi, DWORD PTR [esi+4]
  002d0	89 7d c8	 mov	 DWORD PTR _sCreate$[ebp+24], edi
  002d3	8b 7e 08	 mov	 edi, DWORD PTR [esi+8]
  002d6	89 7d cc	 mov	 DWORD PTR _sCreate$[ebp+28], edi
  002d9	66 8b 7e 0c	 mov	 di, WORD PTR [esi+12]
  002dd	66 89 7d d0	 mov	 WORD PTR _sCreate$[ebp+32], di

; 2624 : 	char szTemp[20];
; 2625 : 	char szTemp2[20];
; 2626 : 	szTemp[10]=0;
; 2627 : 	szTemp2[10]=0;
; 2628 : 	memcpy(szTemp, sCreate.Name, MAX_ACCOUNT_LEN);

  002e1	8b 7e 04	 mov	 edi, DWORD PTR [esi+4]

; 2629 : 	memcpy(szTemp2, sCreate.AccountId, MAX_ACCOUNT_LEN);

  002e4	89 4d d4	 mov	 DWORD PTR _szTemp2$[ebp], ecx

; 2630 : 
; 2631 : 	LogAddTD("Character create : %s,%s", szTemp2, szTemp);

  002e7	8d 4d e8	 lea	 ecx, DWORD PTR _szTemp$[ebp]
  002ea	89 55 d8	 mov	 DWORD PTR _szTemp2$[ebp+4], edx
  002ed	51		 push	 ecx
  002ee	8d 55 d4	 lea	 edx, DWORD PTR _szTemp2$[ebp]
  002f1	89 7d e8	 mov	 DWORD PTR _szTemp$[ebp], edi
  002f4	8b 7e 08	 mov	 edi, DWORD PTR [esi+8]
  002f7	66 8b 76 0c	 mov	 si, WORD PTR [esi+12]
  002fb	52		 push	 edx
  002fc	68 00 00 00 00	 push	 OFFSET ??_C@_0BJ@GDNNOEGN@Character?5create?5?3?5?$CFs?0?$CFs?$AA@
  00301	66 89 45 c6	 mov	 WORD PTR _sCreate$[ebp+22], ax
  00305	c6 45 f2 00	 mov	 BYTE PTR _szTemp$[ebp+10], 0
  00309	c6 45 de 00	 mov	 BYTE PTR _szTemp2$[ebp+10], 0
  0030d	89 7d ec	 mov	 DWORD PTR _szTemp$[ebp+4], edi
  00310	66 89 75 f0	 mov	 WORD PTR _szTemp$[ebp+8], si
  00314	66 89 45 dc	 mov	 WORD PTR _szTemp2$[ebp+8], ax
  00318	ff 15 00 00 00
	00		 call	 DWORD PTR ?LogAddTD@@3P6AXPADZZA ; LogAddTD

; 2632 : 
; 2633 : 	cDBSMng.Send((char*)&sCreate, sCreate.h.size);

  0031e	0f b6 45 b1	 movzx	 eax, BYTE PTR _sCreate$[ebp+1]
  00322	83 c4 18	 add	 esp, 24			; 00000018H
  00325	50		 push	 eax
  00326	8d 4d b0	 lea	 ecx, DWORD PTR _sCreate$[ebp]
  00329	51		 push	 ecx
  0032a	b9 00 00 00 00	 mov	 ecx, OFFSET ?cDBSMng@@3VDBSockMng@@A ; cDBSMng
  0032f	e8 00 00 00 00	 call	 ?Send@DBSockMng@@QAEHPADH@Z ; DBSockMng::Send
  00334	5f		 pop	 edi
  00335	5e		 pop	 esi
  00336	5b		 pop	 ebx

; 2634 : }

  00337	8b 4d fc	 mov	 ecx, DWORD PTR __$ArrayPad$[ebp]
  0033a	33 cd		 xor	 ecx, ebp
  0033c	e8 00 00 00 00	 call	 @__security_check_cookie@4
  00341	8b e5		 mov	 esp, ebp
  00343	5d		 pop	 ebp
  00344	c3		 ret	 0
$LN26@CGPCharact:

; 2603 : 			{
; 2604 : 				PMSG_CHARCREATERESULT pResult = { 0 };

  00345	6a 2b		 push	 43			; 0000002bH
  00347	8d 45 85	 lea	 eax, DWORD PTR _pResult$217890[ebp+1]
  0034a	6a 00		 push	 0
  0034c	50		 push	 eax
  0034d	e8 00 00 00 00	 call	 _memset

; 2605 : 				pResult.h.c = 0xC1;
; 2606 : 				pResult.h.size = sizeof(PMSG_CHARCREATERESULT);
; 2607 : 				pResult.h.headcode = 0xF3;
; 2608 : 				pResult.subcode = 0x01;
; 2609 : 				pResult.Result = 2;
; 2610 : 				DataSend(aIndex, (LPBYTE)&pResult, pResult.h.size);

  00352	6a 2c		 push	 44			; 0000002cH
  00354	8d 4d 84	 lea	 ecx, DWORD PTR _pResult$217890[ebp]
  00357	51		 push	 ecx
  00358	53		 push	 ebx
  00359	c7 45 84 c1 2c
	f3 01		 mov	 DWORD PTR _pResult$217890[ebp], 32713921 ; 01f32cc1H
  00360	c6 45 88 02	 mov	 BYTE PTR _pResult$217890[ebp+4], 2
  00364	e8 00 00 00 00	 call	 ?DataSend@@YAHHPAEK@Z	; DataSend

; 2634 : }

  00369	8b 4d fc	 mov	 ecx, DWORD PTR __$ArrayPad$[ebp]
  0036c	83 c4 18	 add	 esp, 24			; 00000018H
  0036f	5f		 pop	 edi
  00370	5e		 pop	 esi
  00371	33 cd		 xor	 ecx, ebp
  00373	5b		 pop	 ebx
  00374	e8 00 00 00 00	 call	 @__security_check_cookie@4
  00379	8b e5		 mov	 esp, ebp
  0037b	5d		 pop	 ebp
  0037c	c3		 ret	 0
?CGPCharacterCreate@@YAXPAUPMSG_CHARCREATE@@H@Z ENDP	; CGPCharacterCreate
_TEXT	ENDS
PUBLIC	??_C@_0BJ@HPDAEMEM@Character?5delete?5?3?5?$CFs?0?$CFs?$AA@ ; `string'
PUBLIC	??_C@_0FD@NNHNDILD@?$FLAnti?9HACK?$FN?$FLCGPCharDel?$FN?5Attempte@ ; `string'
PUBLIC	??_C@_0EN@HJCICDL@?$FLAnti?9HACK?$FN?$FLCGPCharDel?$FN?5Attempte@ ; `string'
PUBLIC	__$ArrayPad$
PUBLIC	?CGPCharDel@@YAXPAUPMSG_CHARDELETE@@H@Z		; CGPCharDel
EXTRN	?GDReqPeriodItemDelete@CCashItemPeriodSystem@@QAEXPAUOBJECTSTRUCT@@PAD@Z:PROC ; CCashItemPeriodSystem::GDReqPeriodItemDelete
EXTRN	?g_CashItemPeriodSystem@@3VCCashItemPeriodSystem@@A:BYTE ; g_CashItemPeriodSystem
EXTRN	?gObjJoominCheck@@YAHHPAD@Z:PROC		; gObjJoominCheck
EXTRN	?gc_bPersonalID@@3HA:DWORD			; gc_bPersonalID
EXTRN	?gGuildDestroy@@3HA:DWORD			; gGuildDestroy
;	COMDAT ??_C@_0BJ@HPDAEMEM@Character?5delete?5?3?5?$CFs?0?$CFs?$AA@
CONST	SEGMENT
??_C@_0BJ@HPDAEMEM@Character?5delete?5?3?5?$CFs?0?$CFs?$AA@ DB 'Character'
	DB	' delete : %s,%s', 00H			; `string'
CONST	ENDS
;	COMDAT ??_C@_0FD@NNHNDILD@?$FLAnti?9HACK?$FN?$FLCGPCharDel?$FN?5Attempte@
CONST	SEGMENT
??_C@_0FD@NNHNDILD@?$FLAnti?9HACK?$FN?$FLCGPCharDel?$FN?5Attempte@ DB '[A'
	DB	'nti-HACK][CGPCharDel] Attempted Character Delete during Preve'
	DB	'nted Time. [%s][%s]', 00H			; `string'
CONST	ENDS
;	COMDAT ??_C@_0EN@HJCICDL@?$FLAnti?9HACK?$FN?$FLCGPCharDel?$FN?5Attempte@
CONST	SEGMENT
??_C@_0EN@HJCICDL@?$FLAnti?9HACK?$FN?$FLCGPCharDel?$FN?5Attempte@ DB '[An'
	DB	'ti-HACK][CGPCharDel] Attempted Character Delete during GamePl'
	DB	'ay. [%s][%s]', 00H				; `string'
; Function compile flags: /Ogtp
CONST	ENDS
;	COMDAT ?CGPCharDel@@YAXPAUPMSG_CHARDELETE@@H@Z
_TEXT	SEGMENT
_pResult$ = -112					; size = 5
_pCDel$ = -104						; size = 36
_szTemp$ = -68						; size = 20
_szTemp2$ = -48						; size = 20
_szJoomin$ = -28					; size = 21
__$ArrayPad$ = -4					; size = 4
_lpMsg$ = 8						; size = 4
_aIndex$ = 12						; size = 4
?CGPCharDel@@YAXPAUPMSG_CHARDELETE@@H@Z PROC		; CGPCharDel, COMDAT

; 2655 : {

  00000	55		 push	 ebp
  00001	8b ec		 mov	 ebp, esp
  00003	83 ec 70	 sub	 esp, 112		; 00000070H
  00006	a1 00 00 00 00	 mov	 eax, DWORD PTR ___security_cookie
  0000b	33 c5		 xor	 eax, ebp
  0000d	89 45 fc	 mov	 DWORD PTR __$ArrayPad$[ebp], eax

; 2656 : 	if ( !PacketCheckTime(&gObj[aIndex]))

  00010	a1 00 00 00 00	 mov	 eax, DWORD PTR ?gObj@@3PAUOBJECTSTRUCT@@A ; gObj
  00015	53		 push	 ebx
  00016	8b 5d 08	 mov	 ebx, DWORD PTR _lpMsg$[ebp]
  00019	56		 push	 esi
  0001a	57		 push	 edi
  0001b	8b 7d 0c	 mov	 edi, DWORD PTR _aIndex$[ebp]
  0001e	8b f7		 mov	 esi, edi
  00020	69 f6 40 27 00
	00		 imul	 esi, 10048		; 00002740H
  00026	8d 0c 06	 lea	 ecx, DWORD PTR [esi+eax]
  00029	51		 push	 ecx
  0002a	e8 00 00 00 00	 call	 ?PacketCheckTime@@YAHPAUOBJECTSTRUCT@@@Z ; PacketCheckTime
  0002f	83 c4 04	 add	 esp, 4
  00032	85 c0		 test	 eax, eax
  00034	0f 84 9d 02 00
	00		 je	 $LN11@CGPCharDel

; 2657 : 		return;
; 2658 : 
; 2659 : 	if ( gObj[aIndex].Connected < PLAYER_LOGGED )

  0003a	a1 00 00 00 00	 mov	 eax, DWORD PTR ?gObj@@3PAUOBJECTSTRUCT@@A ; gObj
  0003f	8b 4c 06 04	 mov	 ecx, DWORD PTR [esi+eax+4]
  00043	83 f9 02	 cmp	 ecx, 2
  00046	7d 1a		 jge	 SHORT $LN9@CGPCharDel

; 2660 : 	{
; 2661 : 		CloseClient(aIndex);

  00048	57		 push	 edi
  00049	e8 00 00 00 00	 call	 ?CloseClient@@YAXH@Z	; CloseClient
  0004e	83 c4 04	 add	 esp, 4
  00051	5f		 pop	 edi
  00052	5e		 pop	 esi
  00053	5b		 pop	 ebx

; 2749 : }

  00054	8b 4d fc	 mov	 ecx, DWORD PTR __$ArrayPad$[ebp]
  00057	33 cd		 xor	 ecx, ebp
  00059	e8 00 00 00 00	 call	 @__security_check_cookie@4
  0005e	8b e5		 mov	 esp, ebp
  00060	5d		 pop	 ebp
  00061	c3		 ret	 0
$LN9@CGPCharDel:

; 2662 : 		return;
; 2663 : 	}
; 2664 : 
; 2665 : 	if ( gObj[aIndex].Connected == PLAYER_PLAYING )

  00062	83 f9 03	 cmp	 ecx, 3
  00065	75 2f		 jne	 SHORT $LN8@CGPCharDel

; 2666 : 	{
; 2667 : 		LogAddTD("[Anti-HACK][CGPCharDel] Attempted Character Delete during GamePlay. [%s][%s]",
; 2668 : 			gObj[aIndex].AccountID, gObj[aIndex].Name);

  00067	8d 54 06 5d	 lea	 edx, DWORD PTR [esi+eax+93]
  0006b	52		 push	 edx
  0006c	8d 44 06 52	 lea	 eax, DWORD PTR [esi+eax+82]
  00070	50		 push	 eax
  00071	68 00 00 00 00	 push	 OFFSET ??_C@_0EN@HJCICDL@?$FLAnti?9HACK?$FN?$FLCGPCharDel?$FN?5Attempte@
  00076	ff 15 00 00 00
	00		 call	 DWORD PTR ?LogAddTD@@3P6AXPADZZA ; LogAddTD

; 2669 : 		CloseClient(aIndex);

  0007c	57		 push	 edi
  0007d	e8 00 00 00 00	 call	 ?CloseClient@@YAXH@Z	; CloseClient
  00082	83 c4 10	 add	 esp, 16			; 00000010H
  00085	5f		 pop	 edi
  00086	5e		 pop	 esi
  00087	5b		 pop	 ebx

; 2749 : }

  00088	8b 4d fc	 mov	 ecx, DWORD PTR __$ArrayPad$[ebp]
  0008b	33 cd		 xor	 ecx, ebp
  0008d	e8 00 00 00 00	 call	 @__security_check_cookie@4
  00092	8b e5		 mov	 esp, ebp
  00094	5d		 pop	 ebp
  00095	c3		 ret	 0
$LN8@CGPCharDel:

; 2670 : 		return;
; 2671 : 	}
; 2672 : 
; 2673 : 	if ( gObj[aIndex].bEnableDelCharacter == FALSE )

  00096	83 7c 06 10 00	 cmp	 DWORD PTR [esi+eax+16], 0
  0009b	75 2f		 jne	 SHORT $LN7@CGPCharDel

; 2674 : 	{
; 2675 : 		LogAddTD("[Anti-HACK][CGPCharDel] Attempted Character Delete during Prevented Time. [%s][%s]",
; 2676 : 			gObj[aIndex].AccountID, gObj[aIndex].Name);

  0009d	8d 4c 06 5d	 lea	 ecx, DWORD PTR [esi+eax+93]
  000a1	51		 push	 ecx
  000a2	8d 54 06 52	 lea	 edx, DWORD PTR [esi+eax+82]
  000a6	52		 push	 edx
  000a7	68 00 00 00 00	 push	 OFFSET ??_C@_0FD@NNHNDILD@?$FLAnti?9HACK?$FN?$FLCGPCharDel?$FN?5Attempte@
  000ac	ff 15 00 00 00
	00		 call	 DWORD PTR ?LogAddTD@@3P6AXPADZZA ; LogAddTD

; 2677 : 		CloseClient(aIndex);

  000b2	57		 push	 edi
  000b3	e8 00 00 00 00	 call	 ?CloseClient@@YAXH@Z	; CloseClient
  000b8	83 c4 10	 add	 esp, 16			; 00000010H
  000bb	5f		 pop	 edi
  000bc	5e		 pop	 esi
  000bd	5b		 pop	 ebx

; 2749 : }

  000be	8b 4d fc	 mov	 ecx, DWORD PTR __$ArrayPad$[ebp]
  000c1	33 cd		 xor	 ecx, ebp
  000c3	e8 00 00 00 00	 call	 @__security_check_cookie@4
  000c8	8b e5		 mov	 esp, ebp
  000ca	5d		 pop	 ebp
  000cb	c3		 ret	 0
$LN7@CGPCharDel:

; 2678 : 		return;
; 2679 : 	}
; 2680 : 
; 2681 : 	SDHP_CHARDELETE pCDel;
; 2682 : 	PMSG_RESULT pResult;
; 2683 : 
; 2684 : 	PHeadSubSetB((LPBYTE)&pResult, 0xF3, 0x02, sizeof(pResult));

  000cc	6a 05		 push	 5
  000ce	6a 02		 push	 2
  000d0	8d 45 90	 lea	 eax, DWORD PTR _pResult$[ebp]
  000d3	68 f3 00 00 00	 push	 243			; 000000f3H
  000d8	50		 push	 eax
  000d9	e8 00 00 00 00	 call	 ?PHeadSubSetB@@YAXPAEEEH@Z ; PHeadSubSetB

; 2685 : 	pResult.result = 0;
; 2686 : 
; 2687 : 	if ( gObj[aIndex].m_cAccountItemBlock )

  000de	8b 0d 00 00 00
	00		 mov	 ecx, DWORD PTR ?gObj@@3PAUOBJECTSTRUCT@@A ; gObj
  000e4	83 c4 10	 add	 esp, 16			; 00000010H
  000e7	c6 45 94 00	 mov	 BYTE PTR _pResult$[ebp+4], 0
  000eb	80 bc 0e c4 01
	00 00 00	 cmp	 BYTE PTR [esi+ecx+452], 0
  000f3	74 27		 je	 SHORT $LN6@CGPCharDel

; 2688 : 	{
; 2689 : 		pResult.result = 3;
; 2690 : 		DataSend(aIndex, (LPBYTE)&pResult, pResult.h.size);

  000f5	0f b6 55 91	 movzx	 edx, BYTE PTR _pResult$[ebp+1]
  000f9	52		 push	 edx
  000fa	8d 45 90	 lea	 eax, DWORD PTR _pResult$[ebp]
  000fd	50		 push	 eax
  000fe	57		 push	 edi
  000ff	c6 45 94 03	 mov	 BYTE PTR _pResult$[ebp+4], 3
  00103	e8 00 00 00 00	 call	 ?DataSend@@YAHHPAEK@Z	; DataSend
  00108	83 c4 0c	 add	 esp, 12			; 0000000cH
  0010b	5f		 pop	 edi
  0010c	5e		 pop	 esi
  0010d	5b		 pop	 ebx

; 2749 : }

  0010e	8b 4d fc	 mov	 ecx, DWORD PTR __$ArrayPad$[ebp]
  00111	33 cd		 xor	 ecx, ebp
  00113	e8 00 00 00 00	 call	 @__security_check_cookie@4
  00118	8b e5		 mov	 esp, ebp
  0011a	5d		 pop	 ebp
  0011b	c3		 ret	 0
$LN6@CGPCharDel:

; 2691 : 		return;
; 2692 : 	}
; 2693 : 
; 2694 : 	if ( !gGuildDestroy )

  0011c	83 3d 00 00 00
	00 00		 cmp	 DWORD PTR ?gGuildDestroy@@3HA, 0 ; gGuildDestroy
  00123	75 27		 jne	 SHORT $LN5@CGPCharDel

; 2695 : 	{
; 2696 : 		pResult.result = 0;
; 2697 : 		DataSend(aIndex, (LPBYTE)&pResult, pResult.h.size);

  00125	0f b6 4d 91	 movzx	 ecx, BYTE PTR _pResult$[ebp+1]
  00129	51		 push	 ecx
  0012a	8d 55 90	 lea	 edx, DWORD PTR _pResult$[ebp]
  0012d	52		 push	 edx
  0012e	57		 push	 edi
  0012f	c6 45 94 00	 mov	 BYTE PTR _pResult$[ebp+4], 0
  00133	e8 00 00 00 00	 call	 ?DataSend@@YAHHPAEK@Z	; DataSend
  00138	83 c4 0c	 add	 esp, 12			; 0000000cH
  0013b	5f		 pop	 edi
  0013c	5e		 pop	 esi
  0013d	5b		 pop	 ebx

; 2749 : }

  0013e	8b 4d fc	 mov	 ecx, DWORD PTR __$ArrayPad$[ebp]
  00141	33 cd		 xor	 ecx, ebp
  00143	e8 00 00 00 00	 call	 @__security_check_cookie@4
  00148	8b e5		 mov	 esp, ebp
  0014a	5d		 pop	 ebp
  0014b	c3		 ret	 0
$LN5@CGPCharDel:

; 2698 : 		return;
; 2699 : 	}
; 2700 : 
; 2701 : 	char szJoomin[21];
; 2702 : 	char szTemp[20];
; 2703 : 	char szTemp2[20];
; 2704 : 
; 2705 : 	memset(szJoomin, 0, sizeof(szJoomin));
; 2706 : 	memcpy(szJoomin, lpMsg->LastJoominNumber, 20);

  0014c	8b 4b 12	 mov	 ecx, DWORD PTR [ebx+18]
  0014f	8b 53 16	 mov	 edx, DWORD PTR [ebx+22]
  00152	33 c0		 xor	 eax, eax

; 2707 : 
; 2708 : #if (__CUSTOM__ == 1)
; 2709 : 	if (gc_bPersonalID == TRUE && gObjJoominCheck(aIndex, szJoomin) == FALSE )

  00154	83 3d 00 00 00
	00 01		 cmp	 DWORD PTR ?gc_bPersonalID@@3HA, 1 ; gc_bPersonalID
  0015b	89 45 e4	 mov	 DWORD PTR _szJoomin$[ebp], eax
  0015e	89 45 e8	 mov	 DWORD PTR _szJoomin$[ebp+4], eax
  00161	89 45 ec	 mov	 DWORD PTR _szJoomin$[ebp+8], eax
  00164	89 45 f0	 mov	 DWORD PTR _szJoomin$[ebp+12], eax
  00167	89 45 f4	 mov	 DWORD PTR _szJoomin$[ebp+16], eax
  0016a	88 45 f8	 mov	 BYTE PTR _szJoomin$[ebp+20], al
  0016d	8b 43 0e	 mov	 eax, DWORD PTR [ebx+14]
  00170	89 45 e4	 mov	 DWORD PTR _szJoomin$[ebp], eax
  00173	8b 43 1a	 mov	 eax, DWORD PTR [ebx+26]
  00176	89 4d e8	 mov	 DWORD PTR _szJoomin$[ebp+4], ecx
  00179	8b 4b 1e	 mov	 ecx, DWORD PTR [ebx+30]
  0017c	89 55 ec	 mov	 DWORD PTR _szJoomin$[ebp+8], edx
  0017f	89 45 f0	 mov	 DWORD PTR _szJoomin$[ebp+12], eax
  00182	89 4d f4	 mov	 DWORD PTR _szJoomin$[ebp+16], ecx
  00185	75 38		 jne	 SHORT $LN4@CGPCharDel
  00187	8d 55 e4	 lea	 edx, DWORD PTR _szJoomin$[ebp]
  0018a	52		 push	 edx
  0018b	57		 push	 edi
  0018c	e8 00 00 00 00	 call	 ?gObjJoominCheck@@YAHHPAD@Z ; gObjJoominCheck
  00191	83 c4 08	 add	 esp, 8
  00194	85 c0		 test	 eax, eax
  00196	75 27		 jne	 SHORT $LN4@CGPCharDel

; 2710 : #else
; 2711 : 	if (gObjJoominCheck(aIndex, szJoomin) == FALSE )
; 2712 : #endif
; 2713 : 	{
; 2714 : 		pResult.result = 2;
; 2715 : 		DataSend(aIndex, (LPBYTE)&pResult, pResult.h.size);

  00198	0f b6 45 91	 movzx	 eax, BYTE PTR _pResult$[ebp+1]
  0019c	50		 push	 eax
  0019d	8d 4d 90	 lea	 ecx, DWORD PTR _pResult$[ebp]
  001a0	51		 push	 ecx
  001a1	57		 push	 edi
  001a2	c6 45 94 02	 mov	 BYTE PTR _pResult$[ebp+4], 2
  001a6	e8 00 00 00 00	 call	 ?DataSend@@YAHHPAEK@Z	; DataSend
  001ab	83 c4 0c	 add	 esp, 12			; 0000000cH
  001ae	5f		 pop	 edi
  001af	5e		 pop	 esi
  001b0	5b		 pop	 ebx

; 2749 : }

  001b1	8b 4d fc	 mov	 ecx, DWORD PTR __$ArrayPad$[ebp]
  001b4	33 cd		 xor	 ecx, ebp
  001b6	e8 00 00 00 00	 call	 @__security_check_cookie@4
  001bb	8b e5		 mov	 esp, ebp
  001bd	5d		 pop	 ebp
  001be	c3		 ret	 0
$LN4@CGPCharDel:

; 2716 : 		return;
; 2717 : 	}
; 2718 : 
; 2719 : 	PHeadSetB((LPBYTE)&pCDel, 0x05, sizeof(pCDel));

  001bf	6a 24		 push	 36			; 00000024H
  001c1	8d 55 98	 lea	 edx, DWORD PTR _pCDel$[ebp]
  001c4	6a 05		 push	 5
  001c6	52		 push	 edx
  001c7	e8 00 00 00 00	 call	 ?PHeadSetB@@YAXPAEEH@Z	; PHeadSetB

; 2720 : 	pCDel.Number = aIndex;
; 2721 : 	memcpy(pCDel.AccountID, gObj[aIndex].AccountID, sizeof(pCDel.AccountID));

  001cc	a1 00 00 00 00	 mov	 eax, DWORD PTR ?gObj@@3PAUOBJECTSTRUCT@@A ; gObj
  001d1	03 c6		 add	 eax, esi
  001d3	66 89 7d 9c	 mov	 WORD PTR _pCDel$[ebp+4], di
  001d7	8b 48 52	 mov	 ecx, DWORD PTR [eax+82]
  001da	89 4d 9e	 mov	 DWORD PTR _pCDel$[ebp+6], ecx
  001dd	8b 50 56	 mov	 edx, DWORD PTR [eax+86]

; 2722 : 	memcpy(pCDel.Name, lpMsg->Name, sizeof(pCDel.Name));

  001e0	83 c3 04	 add	 ebx, 4
  001e3	89 55 a2	 mov	 DWORD PTR _pCDel$[ebp+10], edx
  001e6	66 8b 48 5a	 mov	 cx, WORD PTR [eax+90]
  001ea	8b 13		 mov	 edx, DWORD PTR [ebx]
  001ec	66 89 4d a6	 mov	 WORD PTR _pCDel$[ebp+14], cx
  001f0	8b 4b 04	 mov	 ecx, DWORD PTR [ebx+4]
  001f3	89 55 a8	 mov	 DWORD PTR _pCDel$[ebp+16], edx
  001f6	66 8b 53 08	 mov	 dx, WORD PTR [ebx+8]
  001fa	83 c4 0c	 add	 esp, 12			; 0000000cH
  001fd	89 4d ac	 mov	 DWORD PTR _pCDel$[ebp+20], ecx
  00200	66 89 55 b0	 mov	 WORD PTR _pCDel$[ebp+24], dx

; 2723 : 	pCDel.Guild = 0;

  00204	c6 45 b2 00	 mov	 BYTE PTR _pCDel$[ebp+26], 0

; 2724 : 
; 2725 : 	if ( gObj[aIndex].GuildNumber > 0 && gObj[aIndex].lpGuild != NULL)

  00208	83 b8 14 06 00
	00 00		 cmp	 DWORD PTR [eax+1556], 0
  0020f	7e 51		 jle	 SHORT $LN3@CGPCharDel
  00211	8b b8 18 06 00
	00		 mov	 edi, DWORD PTR [eax+1560]
  00217	85 ff		 test	 edi, edi
  00219	74 47		 je	 SHORT $LN3@CGPCharDel

; 2726 : 	{
; 2727 : 		if ( !strcmp(gObj[aIndex].Name, gObj[aIndex].lpGuild->Names[0] ))

  0021b	83 c7 2f	 add	 edi, 47			; 0000002fH
  0021e	8d 48 5d	 lea	 ecx, DWORD PTR [eax+93]
$LL13@CGPCharDel:
  00221	8a 11		 mov	 dl, BYTE PTR [ecx]
  00223	3a 17		 cmp	 dl, BYTE PTR [edi]
  00225	75 1a		 jne	 SHORT $LN14@CGPCharDel
  00227	84 d2		 test	 dl, dl
  00229	74 12		 je	 SHORT $LN15@CGPCharDel
  0022b	8a 51 01	 mov	 dl, BYTE PTR [ecx+1]
  0022e	3a 57 01	 cmp	 dl, BYTE PTR [edi+1]
  00231	75 0e		 jne	 SHORT $LN14@CGPCharDel
  00233	83 c1 02	 add	 ecx, 2
  00236	83 c7 02	 add	 edi, 2
  00239	84 d2		 test	 dl, dl
  0023b	75 e4		 jne	 SHORT $LL13@CGPCharDel
$LN15@CGPCharDel:
  0023d	33 c9		 xor	 ecx, ecx
  0023f	eb 05		 jmp	 SHORT $LN16@CGPCharDel
$LN14@CGPCharDel:
  00241	1b c9		 sbb	 ecx, ecx
  00243	83 d9 ff	 sbb	 ecx, -1
$LN16@CGPCharDel:
  00246	85 c9		 test	 ecx, ecx
  00248	0f 95 c1	 setne	 cl
  0024b	fe c1		 inc	 cl
  0024d	88 4d b2	 mov	 BYTE PTR _pCDel$[ebp+26], cl

; 2728 : 		{
; 2729 : 			pCDel.Guild = 1;	// Master
; 2730 : 		}
; 2731 : 		else
; 2732 : 		{
; 2733 : 			pCDel.Guild = 2;	// Member
; 2734 : 		}
; 2735 : 
; 2736 : 		memcpy(pCDel.GuildName, gObj[aIndex].lpGuild->Name, MAX_GUILD_LEN);

  00250	8b 88 18 06 00
	00		 mov	 ecx, DWORD PTR [eax+1560]
  00256	8b 51 04	 mov	 edx, DWORD PTR [ecx+4]
  00259	89 55 b3	 mov	 DWORD PTR _pCDel$[ebp+27], edx
  0025c	8b 49 08	 mov	 ecx, DWORD PTR [ecx+8]
  0025f	89 4d b7	 mov	 DWORD PTR _pCDel$[ebp+31], ecx
$LN3@CGPCharDel:

; 2737 : 	}
; 2738 : 
; 2739 : 	g_CashItemPeriodSystem.GDReqPeriodItemDelete(&gObj[aIndex], lpMsg->Name);

  00262	53		 push	 ebx
  00263	50		 push	 eax
  00264	b9 00 00 00 00	 mov	 ecx, OFFSET ?g_CashItemPeriodSystem@@3VCCashItemPeriodSystem@@A ; g_CashItemPeriodSystem
  00269	e8 00 00 00 00	 call	 ?GDReqPeriodItemDelete@CCashItemPeriodSystem@@QAEXPAUOBJECTSTRUCT@@PAD@Z ; CCashItemPeriodSystem::GDReqPeriodItemDelete

; 2740 : 	szTemp[10]=0;
; 2741 : 	szTemp2[10]=0;
; 2742 : 	memcpy(szTemp, pCDel.Name, MAX_ACCOUNT_LEN);

  0026e	8b 55 a8	 mov	 edx, DWORD PTR _pCDel$[ebp+16]
  00271	8b 45 ac	 mov	 eax, DWORD PTR _pCDel$[ebp+20]
  00274	0f b7 4d b0	 movzx	 ecx, WORD PTR _pCDel$[ebp+24]
  00278	89 55 bc	 mov	 DWORD PTR _szTemp$[ebp], edx

; 2743 : 	memcpy(szTemp2, pCDel.AccountID, MAX_ACCOUNT_LEN);

  0027b	8b 55 9e	 mov	 edx, DWORD PTR _pCDel$[ebp+6]
  0027e	89 45 c0	 mov	 DWORD PTR _szTemp$[ebp+4], eax
  00281	8b 45 a2	 mov	 eax, DWORD PTR _pCDel$[ebp+10]
  00284	89 55 d0	 mov	 DWORD PTR _szTemp2$[ebp], edx

; 2744 : 
; 2745 : 	LogAddTD("Character delete : %s,%s", szTemp2, szTemp);

  00287	8d 55 bc	 lea	 edx, DWORD PTR _szTemp$[ebp]
  0028a	89 45 d4	 mov	 DWORD PTR _szTemp2$[ebp+4], eax
  0028d	52		 push	 edx
  0028e	66 89 4d c4	 mov	 WORD PTR _szTemp$[ebp+8], cx
  00292	0f b7 4d a6	 movzx	 ecx, WORD PTR _pCDel$[ebp+14]
  00296	8d 45 d0	 lea	 eax, DWORD PTR _szTemp2$[ebp]
  00299	50		 push	 eax
  0029a	68 00 00 00 00	 push	 OFFSET ??_C@_0BJ@HPDAEMEM@Character?5delete?5?3?5?$CFs?0?$CFs?$AA@
  0029f	c6 45 c6 00	 mov	 BYTE PTR _szTemp$[ebp+10], 0
  002a3	c6 45 da 00	 mov	 BYTE PTR _szTemp2$[ebp+10], 0
  002a7	66 89 4d d8	 mov	 WORD PTR _szTemp2$[ebp+8], cx
  002ab	ff 15 00 00 00
	00		 call	 DWORD PTR ?LogAddTD@@3P6AXPADZZA ; LogAddTD

; 2746 : 
; 2747 : 	cDBSMng.Send((PCHAR)&pCDel, pCDel.h.size);

  002b1	0f b6 4d 99	 movzx	 ecx, BYTE PTR _pCDel$[ebp+1]
  002b5	83 c4 0c	 add	 esp, 12			; 0000000cH
  002b8	51		 push	 ecx
  002b9	8d 55 98	 lea	 edx, DWORD PTR _pCDel$[ebp]
  002bc	52		 push	 edx
  002bd	b9 00 00 00 00	 mov	 ecx, OFFSET ?cDBSMng@@3VDBSockMng@@A ; cDBSMng
  002c2	e8 00 00 00 00	 call	 ?Send@DBSockMng@@QAEHPADH@Z ; DBSockMng::Send

; 2748 : 	gObj[aIndex].Level = 0;

  002c7	8b 0d 00 00 00
	00		 mov	 ecx, DWORD PTR ?gObj@@3PAUOBJECTSTRUCT@@A ; gObj
  002cd	33 c0		 xor	 eax, eax
  002cf	66 89 84 0e 96
	00 00 00	 mov	 WORD PTR [esi+ecx+150], ax
$LN11@CGPCharDel:

; 2749 : }

  002d7	8b 4d fc	 mov	 ecx, DWORD PTR __$ArrayPad$[ebp]
  002da	5f		 pop	 edi
  002db	5e		 pop	 esi
  002dc	33 cd		 xor	 ecx, ebp
  002de	5b		 pop	 ebx
  002df	e8 00 00 00 00	 call	 @__security_check_cookie@4
  002e4	8b e5		 mov	 esp, ebp
  002e6	5d		 pop	 ebp
  002e7	c3		 ret	 0
?CGPCharDel@@YAXPAUPMSG_CHARDELETE@@H@Z ENDP		; CGPCharDel
_TEXT	ENDS
PUBLIC	__$ArrayPad$
PUBLIC	?CGPCharacterMapJoinRequest@@YAXPAUPMSG_CHARMAPJOIN@@H@Z ; CGPCharacterMapJoinRequest
EXTRN	?gGensSystem@@3VCGensSystem@@A:BYTE		; gGensSystem
EXTRN	?gObjIsAccontConnect@@YAHHPAD@Z:PROC		; gObjIsAccontConnect
; Function compile flags: /Ogtp
;	COMDAT ?CGPCharacterMapJoinRequest@@YAXPAUPMSG_CHARMAPJOIN@@H@Z
_TEXT	SEGMENT
_lpInfo$ = -72						; size = 26
_pCRequest$ = -44					; size = 28
__name$ = -16						; size = 11
__$ArrayPad$ = -4					; size = 4
_lpMsg$ = 8						; size = 4
_aIndex$ = 12						; size = 4
?CGPCharacterMapJoinRequest@@YAXPAUPMSG_CHARMAPJOIN@@H@Z PROC ; CGPCharacterMapJoinRequest, COMDAT

; 2756 : {

  00000	55		 push	 ebp
  00001	8b ec		 mov	 ebp, esp
  00003	83 ec 48	 sub	 esp, 72			; 00000048H
  00006	a1 00 00 00 00	 mov	 eax, DWORD PTR ___security_cookie
  0000b	33 c5		 xor	 eax, ebp
  0000d	89 45 fc	 mov	 DWORD PTR __$ArrayPad$[ebp], eax

; 2757 : 	if ( !PacketCheckTime(&gObj[aIndex]))

  00010	a1 00 00 00 00	 mov	 eax, DWORD PTR ?gObj@@3PAUOBJECTSTRUCT@@A ; gObj
  00015	53		 push	 ebx
  00016	8b 5d 0c	 mov	 ebx, DWORD PTR _aIndex$[ebp]
  00019	56		 push	 esi
  0001a	8b f3		 mov	 esi, ebx
  0001c	69 f6 40 27 00
	00		 imul	 esi, 10048		; 00002740H
  00022	57		 push	 edi
  00023	8b 7d 08	 mov	 edi, DWORD PTR _lpMsg$[ebp]
  00026	8d 0c 06	 lea	 ecx, DWORD PTR [esi+eax]
  00029	51		 push	 ecx
  0002a	e8 00 00 00 00	 call	 ?PacketCheckTime@@YAHPAUOBJECTSTRUCT@@@Z ; PacketCheckTime
  0002f	83 c4 04	 add	 esp, 4
  00032	85 c0		 test	 eax, eax
  00034	0f 84 02 01 00
	00		 je	 $LN7@CGPCharact@2

; 2758 : 	{
; 2759 : 		//JGCharacterCreateFailSend(aIndex, lpMsg->Name);
; 2760 : 		return;
; 2761 : 	}
; 2762 : 
; 2763 : 	if ( !gObjIsAccontConnect(aIndex, gObj[aIndex].AccountID))

  0003a	8b 15 00 00 00
	00		 mov	 edx, DWORD PTR ?gObj@@3PAUOBJECTSTRUCT@@A ; gObj
  00040	8d 44 16 52	 lea	 eax, DWORD PTR [esi+edx+82]
  00044	50		 push	 eax
  00045	53		 push	 ebx
  00046	e8 00 00 00 00	 call	 ?gObjIsAccontConnect@@YAHHPAD@Z ; gObjIsAccontConnect
  0004b	83 c4 08	 add	 esp, 8
  0004e	85 c0		 test	 eax, eax
  00050	0f 84 e6 00 00
	00		 je	 $LN7@CGPCharact@2

; 2764 : 		return;
; 2765 : 
; 2766 : 	if ( gObj[aIndex].Connected == PLAYER_PLAYING )

  00056	a1 00 00 00 00	 mov	 eax, DWORD PTR ?gObj@@3PAUOBJECTSTRUCT@@A ; gObj
  0005b	83 7c 06 04 03	 cmp	 DWORD PTR [esi+eax+4], 3
  00060	0f 84 d6 00 00
	00		 je	 $LN7@CGPCharact@2

; 2767 : 		return;
; 2768 : 
; 2769 : 	gObj[aIndex].bEnableDelCharacter = FALSE;
; 2770 : 
; 2771 : 	char _name[MAX_ACCOUNT_LEN+1];
; 2772 : 	SDHP_DBCHARINFOREQUEST pCRequest;
; 2773 : 
; 2774 : 	PHeadSetB((LPBYTE)&pCRequest, 0x06, sizeof(pCRequest));

  00066	6a 1c		 push	 28			; 0000001cH
  00068	8d 4d d4	 lea	 ecx, DWORD PTR _pCRequest$[ebp]
  0006b	6a 06		 push	 6
  0006d	51		 push	 ecx
  0006e	c7 44 06 10 00
	00 00 00	 mov	 DWORD PTR [esi+eax+16], 0
  00076	e8 00 00 00 00	 call	 ?PHeadSetB@@YAXPAEEH@Z	; PHeadSetB

; 2775 : 	memset(_name, 0, MAX_ACCOUNT_LEN);
; 2776 : 	memcpy(_name, lpMsg->Name, MAX_ACCOUNT_LEN);

  0007b	8b 57 04	 mov	 edx, DWORD PTR [edi+4]
  0007e	66 8b 4f 0c	 mov	 cx, WORD PTR [edi+12]
  00082	33 c0		 xor	 eax, eax
  00084	89 45 f0	 mov	 DWORD PTR __name$[ebp], eax
  00087	89 45 f4	 mov	 DWORD PTR __name$[ebp+4], eax
  0008a	66 89 45 f8	 mov	 WORD PTR __name$[ebp+8], ax
  0008e	8b 47 08	 mov	 eax, DWORD PTR [edi+8]
  00091	89 55 f0	 mov	 DWORD PTR __name$[ebp], edx

; 2777 : #if( ENABLE_ZMULTISERVER_UPDATE_3 == 0 )
; 2778 : 	BuxConvert(_name, MAX_ACCOUNT_LEN);

  00094	8d 55 f0	 lea	 edx, DWORD PTR __name$[ebp]
  00097	6a 0a		 push	 10			; 0000000aH
  00099	52		 push	 edx
  0009a	89 45 f4	 mov	 DWORD PTR __name$[ebp+4], eax
  0009d	66 89 4d f8	 mov	 WORD PTR __name$[ebp+8], cx
  000a1	e8 00 00 00 00	 call	 ?BuxConvert@@YAXPADH@Z	; BuxConvert

; 2779 : #endif
; 2780 : 	memcpy(pCRequest.Name, _name, MAX_ACCOUNT_LEN);

  000a6	8b 45 f0	 mov	 eax, DWORD PTR __name$[ebp]
  000a9	66 8b 55 f8	 mov	 dx, WORD PTR __name$[ebp+8]
  000ad	8b 4d f4	 mov	 ecx, DWORD PTR __name$[ebp+4]
  000b0	89 45 e2	 mov	 DWORD PTR _pCRequest$[ebp+14], eax

; 2781 : 	strcpy(pCRequest.AccountID, gObj[aIndex].AccountID);

  000b3	a1 00 00 00 00	 mov	 eax, DWORD PTR ?gObj@@3PAUOBJECTSTRUCT@@A ; gObj
  000b8	66 89 55 ea	 mov	 WORD PTR _pCRequest$[ebp+22], dx
  000bc	8d 44 06 52	 lea	 eax, DWORD PTR [esi+eax+82]
  000c0	8d 55 d7	 lea	 edx, DWORD PTR _pCRequest$[ebp+3]
  000c3	83 c4 14	 add	 esp, 20			; 00000014H
  000c6	89 4d e6	 mov	 DWORD PTR _pCRequest$[ebp+18], ecx
  000c9	2b d0		 sub	 edx, eax
  000cb	eb 03 8d 49 00	 npad	 5
$LL9@CGPCharact@2:
  000d0	8a 08		 mov	 cl, BYTE PTR [eax]
  000d2	88 0c 02	 mov	 BYTE PTR [edx+eax], cl
  000d5	40		 inc	 eax
  000d6	84 c9		 test	 cl, cl
  000d8	75 f6		 jne	 SHORT $LL9@CGPCharact@2

; 2782 : 	pCRequest.Number = aIndex;
; 2783 : 	cDBSMng.Send((char*)&pCRequest, pCRequest.h.size);

  000da	0f b6 4d d5	 movzx	 ecx, BYTE PTR _pCRequest$[ebp+1]
  000de	51		 push	 ecx
  000df	8d 55 d4	 lea	 edx, DWORD PTR _pCRequest$[ebp]
  000e2	52		 push	 edx
  000e3	b9 00 00 00 00	 mov	 ecx, OFFSET ?cDBSMng@@3VDBSockMng@@A ; cDBSMng
  000e8	66 89 5d ee	 mov	 WORD PTR _pCRequest$[ebp+26], bx
  000ec	e8 00 00 00 00	 call	 ?Send@DBSockMng@@QAEHPADH@Z ; DBSockMng::Send

; 2784 : 	
; 2785 : 	USER_GET_BATTLEINFO lpInfo;
; 2786 : 	PHeadSubSetB((LPBYTE)&lpInfo, 0xFD, 0x01, sizeof(USER_GET_BATTLEINFO));

  000f1	6a 1a		 push	 26			; 0000001aH
  000f3	6a 01		 push	 1
  000f5	8d 45 b8	 lea	 eax, DWORD PTR _lpInfo$[ebp]
  000f8	68 fd 00 00 00	 push	 253			; 000000fdH
  000fd	50		 push	 eax
  000fe	e8 00 00 00 00	 call	 ?PHeadSubSetB@@YAXPAEEEH@Z ; PHeadSubSetB
  00103	83 c4 10	 add	 esp, 16			; 00000010H

; 2787 : 	// ----
; 2788 : 	for(int i = 0; i < 11; i++ )

  00106	33 c0		 xor	 eax, eax
  00108	eb 06 8d 9b 00
	00 00 00	 npad	 8
$LL3@CGPCharact@2:

; 2789 : 	{
; 2790 : 		lpInfo.BattleMapList[i] = gGensSystem.m_MapList[i];

  00110	8a 88 53 00 00
	00		 mov	 cl, BYTE PTR ?gGensSystem@@3VCGensSystem@@A[eax+83]

; 2791 : 		lpInfo.BattleZoneList[i] = gGensSystem.m_ZoneList[i];

  00116	8a 90 5e 00 00
	00		 mov	 dl, BYTE PTR ?gGensSystem@@3VCGensSystem@@A[eax+94]
  0011c	88 4c 05 bc	 mov	 BYTE PTR _lpInfo$[ebp+eax+4], cl
  00120	88 54 05 c7	 mov	 BYTE PTR _lpInfo$[ebp+eax+15], dl
  00124	40		 inc	 eax
  00125	83 f8 0b	 cmp	 eax, 11			; 0000000bH
  00128	7c e6		 jl	 SHORT $LL3@CGPCharact@2

; 2792 : 	}
; 2793 : 	// ----
; 2794 : 	DataSend(aIndex, (LPBYTE)&lpInfo, lpInfo.h.size);

  0012a	0f b6 45 b9	 movzx	 eax, BYTE PTR _lpInfo$[ebp+1]
  0012e	50		 push	 eax
  0012f	8d 4d b8	 lea	 ecx, DWORD PTR _lpInfo$[ebp]
  00132	51		 push	 ecx
  00133	53		 push	 ebx
  00134	e8 00 00 00 00	 call	 ?DataSend@@YAHHPAEK@Z	; DataSend
  00139	83 c4 0c	 add	 esp, 12			; 0000000cH
$LN7@CGPCharact@2:

; 2795 : }

  0013c	8b 4d fc	 mov	 ecx, DWORD PTR __$ArrayPad$[ebp]
  0013f	5f		 pop	 edi
  00140	5e		 pop	 esi
  00141	33 cd		 xor	 ecx, ebp
  00143	5b		 pop	 ebx
  00144	e8 00 00 00 00	 call	 @__security_check_cookie@4
  00149	8b e5		 mov	 esp, ebp
  0014b	5d		 pop	 ebp
  0014c	c3		 ret	 0
?CGPCharacterMapJoinRequest@@YAXPAUPMSG_CHARMAPJOIN@@H@Z ENDP ; CGPCharacterMapJoinRequest
_TEXT	ENDS
PUBLIC	__$ArrayPad$
PUBLIC	?CGLevelUpPointAdd@@YAXPAUPMSG_LVPOINTADD@@H@Z	; CGLevelUpPointAdd
EXTRN	?gObjSetBP@@YAXH@Z:PROC				; gObjSetBP
EXTRN	?gObjLevelUpPointAdd@@YAHEPAUOBJECTSTRUCT@@@Z:PROC ; gObjLevelUpPointAdd
EXTRN	?gObjIsConnected@@YAHH@Z:PROC			; gObjIsConnected
EXTRN	__fltused:DWORD
EXTRN	__ftol2_sse:PROC
; Function compile flags: /Ogtp
;	COMDAT ?CGLevelUpPointAdd@@YAXPAUPMSG_LVPOINTADD@@H@Z
_TEXT	SEGMENT
tv292 = -36						; size = 4
tv290 = -36						; size = 4
tv276 = -36						; size = 4
tv274 = -36						; size = 4
tv295 = -30						; size = 2
tv280 = -30						; size = 2
_pMsg$ = -28						; size = 24
__$ArrayPad$ = -4					; size = 4
_lpMsg$ = 8						; size = 4
_aIndex$ = 12						; size = 4
?CGLevelUpPointAdd@@YAXPAUPMSG_LVPOINTADD@@H@Z PROC	; CGLevelUpPointAdd, COMDAT

; 2863 : {

  00000	55		 push	 ebp
  00001	8b ec		 mov	 ebp, esp
  00003	83 ec 24	 sub	 esp, 36			; 00000024H
  00006	a1 00 00 00 00	 mov	 eax, DWORD PTR ___security_cookie
  0000b	33 c5		 xor	 eax, ebp
  0000d	89 45 fc	 mov	 DWORD PTR __$ArrayPad$[ebp], eax
  00010	53		 push	 ebx
  00011	8b 5d 0c	 mov	 ebx, DWORD PTR _aIndex$[ebp]
  00014	57		 push	 edi
  00015	8b 7d 08	 mov	 edi, DWORD PTR _lpMsg$[ebp]

; 2864 : 	if ( !gObjIsConnected(aIndex))

  00018	53		 push	 ebx
  00019	e8 00 00 00 00	 call	 ?gObjIsConnected@@YAHH@Z ; gObjIsConnected
  0001e	83 c4 04	 add	 esp, 4
  00021	85 c0		 test	 eax, eax
  00023	75 19		 jne	 SHORT $LN6@CGLevelUpP

; 2865 : 	{
; 2866 : 		CloseClient(aIndex);

  00025	53		 push	 ebx
  00026	e8 00 00 00 00	 call	 ?CloseClient@@YAXH@Z	; CloseClient
  0002b	83 c4 04	 add	 esp, 4
  0002e	5f		 pop	 edi
  0002f	5b		 pop	 ebx

; 2906 : 
; 2907 : }

  00030	8b 4d fc	 mov	 ecx, DWORD PTR __$ArrayPad$[ebp]
  00033	33 cd		 xor	 ecx, ebp
  00035	e8 00 00 00 00	 call	 @__security_check_cookie@4
  0003a	8b e5		 mov	 esp, ebp
  0003c	5d		 pop	 ebp
  0003d	c3		 ret	 0
$LN6@CGLevelUpP:
  0003e	56		 push	 esi

; 2867 : 		return;
; 2868 : 	}
; 2869 : 
; 2870 : 	PMSG_LVPOINTADDRESULT pMsg;
; 2871 : 
; 2872 : 	PHeadSubSetB((LPBYTE)&pMsg, 0xF3, 0x06, sizeof(pMsg));

  0003f	6a 18		 push	 24			; 00000018H
  00041	6a 06		 push	 6
  00043	8d 45 e4	 lea	 eax, DWORD PTR _pMsg$[ebp]
  00046	68 f3 00 00 00	 push	 243			; 000000f3H
  0004b	50		 push	 eax
  0004c	e8 00 00 00 00	 call	 ?PHeadSubSetB@@YAXPAEEEH@Z ; PHeadSubSetB

; 2873 : 	pMsg.ResultType = 0;
; 2874 : 	
; 2875 : 	if (::gObjLevelUpPointAdd(lpMsg->Type, &gObj[aIndex]) == TRUE )

  00051	8b 0d 00 00 00
	00		 mov	 ecx, DWORD PTR ?gObj@@3PAUOBJECTSTRUCT@@A ; gObj
  00057	0f b6 47 04	 movzx	 eax, BYTE PTR [edi+4]
  0005b	8b f3		 mov	 esi, ebx
  0005d	69 f6 40 27 00
	00		 imul	 esi, 10048		; 00002740H
  00063	8d 14 0e	 lea	 edx, DWORD PTR [esi+ecx]
  00066	52		 push	 edx
  00067	50		 push	 eax
  00068	c6 45 e8 00	 mov	 BYTE PTR _pMsg$[ebp+4], 0
  0006c	e8 00 00 00 00	 call	 ?gObjLevelUpPointAdd@@YAHEPAUOBJECTSTRUCT@@@Z ; gObjLevelUpPointAdd
  00071	83 c4 18	 add	 esp, 24			; 00000018H
  00074	83 f8 01	 cmp	 eax, 1
  00077	0f 85 e7 00 00
	00		 jne	 $LN5@CGLevelUpP

; 2876 : 	{
; 2877 : 		pMsg.ResultType = 0x10;
; 2878 : 		pMsg.ResultType += lpMsg->Type;

  0007d	8a 47 04	 mov	 al, BYTE PTR [edi+4]

; 2879 : 
; 2880 : 		switch ( lpMsg->Type )

  00080	8b 3d 00 00 00
	00		 mov	 edi, DWORD PTR ?gObj@@3PAUOBJECTSTRUCT@@A ; gObj
  00086	8d 48 10	 lea	 ecx, DWORD PTR [eax+16]
  00089	0f b6 c0	 movzx	 eax, al
  0008c	83 e8 02	 sub	 eax, 2
  0008f	88 4d e8	 mov	 BYTE PTR _pMsg$[ebp+4], cl
  00092	74 45		 je	 SHORT $LN2@CGLevelUpP
  00094	48		 dec	 eax
  00095	0f 85 82 00 00
	00		 jne	 $LN3@CGLevelUpP

; 2886 : #endif
; 2887 : 				break;
; 2888 : 
; 2889 : 			case 3:	// Energy
; 2890 : 				pMsg.MaxLifeAndMana = (WORD)(gObj[aIndex].MaxMana + gObj[aIndex].AddMana);

  0009b	db 84 3e 28 01
	00 00		 fild	 DWORD PTR [esi+edi+296]
  000a2	d9 7d e2	 fnstcw	 WORD PTR tv295[ebp]
  000a5	0f b7 45 e2	 movzx	 eax, WORD PTR tv295[ebp]
  000a9	d8 84 3e f0 00
	00 00		 fadd	 DWORD PTR [esi+edi+240]
  000b0	0d 00 0c 00 00	 or	 eax, 3072		; 00000c00H
  000b5	89 45 dc	 mov	 DWORD PTR tv292[ebp], eax
  000b8	d9 6d dc	 fldcw	 WORD PTR tv292[ebp]
  000bb	db 5d dc	 fistp	 DWORD PTR tv290[ebp]
  000be	66 8b 55 dc	 mov	 dx, WORD PTR tv290[ebp]
  000c2	66 89 55 ea	 mov	 WORD PTR _pMsg$[ebp+6], dx
  000c6	d9 6d e2	 fldcw	 WORD PTR tv295[ebp]

; 2891 : #if (FIX_HP==1)
; 2892 : 				pMsg.MAXHPANDMANA = (int)(gObj[aIndex].MaxMana+gObj[aIndex].AddMana);

  000c9	db 84 3e 28 01
	00 00		 fild	 DWORD PTR [esi+edi+296]
  000d0	d8 84 3e f0 00
	00 00		 fadd	 DWORD PTR [esi+edi+240]

; 2893 : #endif
; 2894 : 				break;

  000d7	eb 3c		 jmp	 SHORT $LN9@CGLevelUpP
$LN2@CGLevelUpP:

; 2881 : 		{
; 2882 : 			case 2:	// Vit
; 2883 : 				pMsg.MaxLifeAndMana = (WORD)(gObj[aIndex].MaxLife + gObj[aIndex].AddLife);

  000d9	db 84 3e 24 01
	00 00		 fild	 DWORD PTR [esi+edi+292]
  000e0	d9 7d e2	 fnstcw	 WORD PTR tv280[ebp]
  000e3	0f b7 45 e2	 movzx	 eax, WORD PTR tv280[ebp]
  000e7	d8 84 3e dc 00
	00 00		 fadd	 DWORD PTR [esi+edi+220]
  000ee	0d 00 0c 00 00	 or	 eax, 3072		; 00000c00H
  000f3	89 45 dc	 mov	 DWORD PTR tv276[ebp], eax
  000f6	d9 6d dc	 fldcw	 WORD PTR tv276[ebp]
  000f9	db 5d dc	 fistp	 DWORD PTR tv274[ebp]
  000fc	66 8b 45 dc	 mov	 ax, WORD PTR tv274[ebp]
  00100	66 89 45 ea	 mov	 WORD PTR _pMsg$[ebp+6], ax
  00104	d9 6d e2	 fldcw	 WORD PTR tv280[ebp]

; 2884 : #if (FIX_HP==1)
; 2885 : 				pMsg.MAXHPANDMANA = (int)(gObj[aIndex].MaxLife+gObj[aIndex].AddLife);

  00107	db 84 3e 24 01
	00 00		 fild	 DWORD PTR [esi+edi+292]
  0010e	d8 84 3e dc 00
	00 00		 fadd	 DWORD PTR [esi+edi+220]
$LN9@CGLevelUpP:
  00115	e8 00 00 00 00	 call	 __ftol2_sse
  0011a	89 45 f4	 mov	 DWORD PTR _pMsg$[ebp+16], eax
$LN3@CGLevelUpP:

; 2895 : 		}
; 2896 : 		pMsg.wMaxShield = gObj[aIndex].iMaxShield + gObj[aIndex].iAddShield;

  0011d	66 8b 8c 3e 34
	01 00 00	 mov	 cx, WORD PTR [esi+edi+308]
  00125	66 03 8c 3e 30
	01 00 00	 add	 cx, WORD PTR [esi+edi+304]

; 2897 : 		gObjSetBP(aIndex);

  0012d	53		 push	 ebx
  0012e	66 89 4d ec	 mov	 WORD PTR _pMsg$[ebp+8], cx
  00132	e8 00 00 00 00	 call	 ?gObjSetBP@@YAXH@Z	; gObjSetBP

; 2898 : 		pMsg.MaxBP = gObj[aIndex].MaxBP + gObj[aIndex].AddBP;

  00137	a1 00 00 00 00	 mov	 eax, DWORD PTR ?gObj@@3PAUOBJECTSTRUCT@@A ; gObj
  0013c	66 8b 94 06 0c
	01 00 00	 mov	 dx, WORD PTR [esi+eax+268]
  00144	66 03 94 06 08
	01 00 00	 add	 dx, WORD PTR [esi+eax+264]
  0014c	83 c4 04	 add	 esp, 4
  0014f	66 89 55 ee	 mov	 WORD PTR _pMsg$[ebp+10], dx

; 2899 : 
; 2900 : #if (FIX_HP==1)
; 2901 : 		pMsg.MAXSD = gObj[aIndex].iMaxShield+gObj[aIndex].iAddShield;

  00153	8b 8c 06 34 01
	00 00		 mov	 ecx, DWORD PTR [esi+eax+308]
  0015a	03 8c 06 30 01
	00 00		 add	 ecx, DWORD PTR [esi+eax+304]
  00161	89 4d f8	 mov	 DWORD PTR _pMsg$[ebp+20], ecx
$LN5@CGLevelUpP:

; 2902 : #endif
; 2903 : 	}
; 2904 : 
; 2905 : 	DataSend(aIndex, (UCHAR *)&pMsg, pMsg.h.size);

  00164	0f b6 55 e5	 movzx	 edx, BYTE PTR _pMsg$[ebp+1]
  00168	52		 push	 edx
  00169	8d 45 e4	 lea	 eax, DWORD PTR _pMsg$[ebp]
  0016c	50		 push	 eax
  0016d	53		 push	 ebx
  0016e	e8 00 00 00 00	 call	 ?DataSend@@YAHHPAEK@Z	; DataSend

; 2906 : 
; 2907 : }

  00173	8b 4d fc	 mov	 ecx, DWORD PTR __$ArrayPad$[ebp]
  00176	83 c4 0c	 add	 esp, 12			; 0000000cH
  00179	5e		 pop	 esi
  0017a	5f		 pop	 edi
  0017b	33 cd		 xor	 ecx, ebp
  0017d	5b		 pop	 ebx
  0017e	e8 00 00 00 00	 call	 @__security_check_cookie@4
  00183	8b e5		 mov	 esp, ebp
  00185	5d		 pop	 ebp
  00186	c3		 ret	 0
?CGLevelUpPointAdd@@YAXPAUPMSG_LVPOINTADD@@H@Z ENDP	; CGLevelUpPointAdd
_TEXT	ENDS
PUBLIC	_pos$GSCopy$
PUBLIC	__$ArrayPad$
PUBLIC	?GCInventoryItemOneSend@@YAXHH@Z		; GCInventoryItemOneSend
EXTRN	?ItemByteConvert@@YAXPAEVCItem@@@Z:PROC		; ItemByteConvert
EXTRN	?IsItem@CItem@@QAEHXZ:PROC			; CItem::IsItem
; Function compile flags: /Ogtp
;	COMDAT ?GCInventoryItemOneSend@@YAXHH@Z
_TEXT	SEGMENT
_pos$GSCopy$ = -28					; size = 4
_pMsg$ = -24						; size = 17
__$ArrayPad$ = -4					; size = 4
_aIndex$ = 8						; size = 4
_pos$ = 12						; size = 4
?GCInventoryItemOneSend@@YAXHH@Z PROC			; GCInventoryItemOneSend, COMDAT

; 2922 : {

  00000	55		 push	 ebp
  00001	8b ec		 mov	 ebp, esp
  00003	83 ec 1c	 sub	 esp, 28			; 0000001cH
  00006	a1 00 00 00 00	 mov	 eax, DWORD PTR ___security_cookie
  0000b	33 c5		 xor	 eax, ebp
  0000d	89 45 fc	 mov	 DWORD PTR __$ArrayPad$[ebp], eax

; 2923 : 	if ( !gObj[aIndex].pInventory[pos].IsItem())

  00010	a1 00 00 00 00	 mov	 eax, DWORD PTR ?gObj@@3PAUOBJECTSTRUCT@@A ; gObj
  00015	53		 push	 ebx
  00016	8b 5d 08	 mov	 ebx, DWORD PTR _aIndex$[ebp]
  00019	56		 push	 esi
  0001a	57		 push	 edi
  0001b	8b 7d 0c	 mov	 edi, DWORD PTR _pos$[ebp]
  0001e	8b f3		 mov	 esi, ebx
  00020	69 f6 40 27 00
	00		 imul	 esi, 10048		; 00002740H
  00026	8b 8c 06 c0 11
	00 00		 mov	 ecx, DWORD PTR [esi+eax+4544]

; 2924 : 		return;
; 2925 : 
; 2926 : 	PMSG_INVENTORYITEMMODIFY pMsg;
; 2927 : 
; 2928 : 	PHeadSubSetB((LPBYTE)&pMsg, 0xF3, 0x14, sizeof(pMsg));

  0002d	89 7d e4	 mov	 DWORD PTR _pos$GSCopy$[ebp], edi
  00030	69 ff d4 00 00
	00		 imul	 edi, 212		; 000000d4H
  00036	03 cf		 add	 ecx, edi
  00038	e8 00 00 00 00	 call	 ?IsItem@CItem@@QAEHXZ	; CItem::IsItem
  0003d	85 c0		 test	 eax, eax
  0003f	74 53		 je	 SHORT $LN2@GCInventor
  00041	6a 11		 push	 17			; 00000011H
  00043	6a 14		 push	 20			; 00000014H
  00045	8d 4d e8	 lea	 ecx, DWORD PTR _pMsg$[ebp]
  00048	68 f3 00 00 00	 push	 243			; 000000f3H
  0004d	51		 push	 ecx
  0004e	e8 00 00 00 00	 call	 ?PHeadSubSetB@@YAXPAEEEH@Z ; PHeadSubSetB

; 2929 : 	pMsg.Pos = pos;

  00053	8a 55 e4	 mov	 dl, BYTE PTR _pos$GSCopy$[ebp]

; 2930 : 	ItemByteConvert(pMsg.ItemInfo, gObj[aIndex].pInventory[pos]);

  00056	a1 00 00 00 00	 mov	 eax, DWORD PTR ?gObj@@3PAUOBJECTSTRUCT@@A ; gObj
  0005b	88 55 ec	 mov	 BYTE PTR _pMsg$[ebp+4], dl
  0005e	8b b4 06 c0 11
	00 00		 mov	 esi, DWORD PTR [esi+eax+4544]
  00065	81 ec c4 00 00
	00		 sub	 esp, 196		; 000000c4H
  0006b	03 f7		 add	 esi, edi
  0006d	8b fc		 mov	 edi, esp
  0006f	b9 35 00 00 00	 mov	 ecx, 53			; 00000035H
  00074	f3 a5		 rep movsd
  00076	8d 4d ed	 lea	 ecx, DWORD PTR _pMsg$[ebp+5]
  00079	51		 push	 ecx
  0007a	e8 00 00 00 00	 call	 ?ItemByteConvert@@YAXPAEVCItem@@@Z ; ItemByteConvert

; 2931 : 
; 2932 : 	DataSend(aIndex, (UCHAR *)&pMsg, pMsg.h.size);

  0007f	0f b6 55 e9	 movzx	 edx, BYTE PTR _pMsg$[ebp+1]
  00083	52		 push	 edx
  00084	8d 45 e8	 lea	 eax, DWORD PTR _pMsg$[ebp]
  00087	50		 push	 eax
  00088	53		 push	 ebx
  00089	e8 00 00 00 00	 call	 ?DataSend@@YAHHPAEK@Z	; DataSend
  0008e	81 c4 e4 00 00
	00		 add	 esp, 228		; 000000e4H
$LN2@GCInventor:

; 2933 : }

  00094	8b 4d fc	 mov	 ecx, DWORD PTR __$ArrayPad$[ebp]
  00097	5f		 pop	 edi
  00098	5e		 pop	 esi
  00099	33 cd		 xor	 ecx, ebp
  0009b	5b		 pop	 ebx
  0009c	e8 00 00 00 00	 call	 @__security_check_cookie@4
  000a1	8b e5		 mov	 esp, ebp
  000a3	5d		 pop	 ebp
  000a4	c3		 ret	 0
?GCInventoryItemOneSend@@YAXHH@Z ENDP			; GCInventoryItemOneSend
_TEXT	ENDS
PUBLIC	?GCPkLevelSend@@YAXHE@Z				; GCPkLevelSend
; Function compile flags: /Ogtp
;	COMDAT ?GCPkLevelSend@@YAXHE@Z
_TEXT	SEGMENT
_pMsg$ = -8						; size = 7
_aIndex$ = 8						; size = 4
_pklevel$ = 12						; size = 1
?GCPkLevelSend@@YAXHE@Z PROC				; GCPkLevelSend, COMDAT

; 2948 : {

  00000	55		 push	 ebp
  00001	8b ec		 mov	 ebp, esp
  00003	83 ec 08	 sub	 esp, 8
  00006	53		 push	 ebx

; 2949 : 	PMSG_PKLEVEL pMsg;
; 2950 : 
; 2951 : 	PHeadSubSetB((LPBYTE)&pMsg, 0xF3, 0x08, sizeof(pMsg));

  00007	6a 07		 push	 7
  00009	6a 08		 push	 8
  0000b	8d 45 f8	 lea	 eax, DWORD PTR _pMsg$[ebp]
  0000e	68 f3 00 00 00	 push	 243			; 000000f3H
  00013	50		 push	 eax
  00014	e8 00 00 00 00	 call	 ?PHeadSubSetB@@YAXPAEEEH@Z ; PHeadSubSetB

; 2952 : 	pMsg.NumberH = SET_NUMBERH(aIndex);

  00019	8b 5d 08	 mov	 ebx, DWORD PTR _aIndex$[ebp]

; 2953 : 	pMsg.NumberL = SET_NUMBERL(aIndex);
; 2954 : 	pMsg.PkLevel = pklevel;
; 2955 : 
; 2956 : 	DataSend(aIndex, (UCHAR*)&pMsg, pMsg.h.size);

  0001c	0f b6 45 f9	 movzx	 eax, BYTE PTR _pMsg$[ebp+1]
  00020	8a 55 0c	 mov	 dl, BYTE PTR _pklevel$[ebp]
  00023	8b cb		 mov	 ecx, ebx
  00025	c1 e9 08	 shr	 ecx, 8
  00028	88 4d fc	 mov	 BYTE PTR _pMsg$[ebp+4], cl
  0002b	50		 push	 eax
  0002c	8d 4d f8	 lea	 ecx, DWORD PTR _pMsg$[ebp]
  0002f	51		 push	 ecx
  00030	53		 push	 ebx
  00031	88 5d fd	 mov	 BYTE PTR _pMsg$[ebp+5], bl
  00034	88 55 fe	 mov	 BYTE PTR _pMsg$[ebp+6], dl
  00037	e8 00 00 00 00	 call	 ?DataSend@@YAHHPAEK@Z	; DataSend

; 2957 : 	MsgSendV2(&gObj[aIndex], (UCHAR*)&pMsg, pMsg.h.size);

  0003c	69 db 40 27 00
	00		 imul	 ebx, 10048		; 00002740H
  00042	0f b6 55 f9	 movzx	 edx, BYTE PTR _pMsg$[ebp+1]
  00046	03 1d 00 00 00
	00		 add	 ebx, DWORD PTR ?gObj@@3PAUOBJECTSTRUCT@@A ; gObj
  0004c	52		 push	 edx
  0004d	8d 45 f8	 lea	 eax, DWORD PTR _pMsg$[ebp]
  00050	50		 push	 eax
  00051	53		 push	 ebx
  00052	e8 00 00 00 00	 call	 ?MsgSendV2@@YAXPAUOBJECTSTRUCT@@PAEH@Z ; MsgSendV2
  00057	83 c4 28	 add	 esp, 40			; 00000028H
  0005a	5b		 pop	 ebx

; 2958 : }

  0005b	8b e5		 mov	 esp, ebp
  0005d	5d		 pop	 ebp
  0005e	c3		 ret	 0
?GCPkLevelSend@@YAXHE@Z ENDP				; GCPkLevelSend
_TEXT	ENDS
PUBLIC	__$ArrayPad$
PUBLIC	?GCMagicListOneSend@@YAXHDGEEE@Z		; GCMagicListOneSend
; Function compile flags: /Ogtp
;	COMDAT ?GCMagicListOneSend@@YAXHDGEEE@Z
_TEXT	SEGMENT
_pList$ = -1016						; size = 4
_pCount$ = -1012					; size = 6
_sendbuf$ = -1004					; size = 1000
__$ArrayPad$ = -4					; size = 4
_aIndex$ = 8						; size = 4
_Pos$ = 12						; size = 1
_type$ = 16						; size = 2
_level$ = 20						; size = 1
_skill$ = 24						; size = 1
_btListType$ = 28					; size = 1
?GCMagicListOneSend@@YAXHDGEEE@Z PROC			; GCMagicListOneSend, COMDAT

; 2982 : {

  00000	55		 push	 ebp
  00001	8b ec		 mov	 ebp, esp
  00003	81 ec f8 03 00
	00		 sub	 esp, 1016		; 000003f8H
  00009	a1 00 00 00 00	 mov	 eax, DWORD PTR ___security_cookie
  0000e	33 c5		 xor	 eax, ebp
  00010	89 45 fc	 mov	 DWORD PTR __$ArrayPad$[ebp], eax

; 2983 : 	PMSG_MAGICLISTCOUNT pCount;
; 2984 : 	PMSG_MAGICLIST pList;
; 2985 : 	BYTE sendbuf[1000];
; 2986 : 	int lOfs = sizeof(pCount);
; 2987 : 
; 2988 : 	PHeadSubSetB((LPBYTE)&pCount, 0xF3, 0x11, 0);

  00013	6a 00		 push	 0
  00015	6a 11		 push	 17			; 00000011H
  00017	8d 85 0c fc ff
	ff		 lea	 eax, DWORD PTR _pCount$[ebp]
  0001d	68 f3 00 00 00	 push	 243			; 000000f3H
  00022	50		 push	 eax
  00023	e8 00 00 00 00	 call	 ?PHeadSubSetB@@YAXPAEEEH@Z ; PHeadSubSetB

; 2989 : 	pCount.Count = 0xFE;
; 2990 : 	pCount.btListType = btListType;

  00028	8a 4d 1c	 mov	 cl, BYTE PTR _btListType$[ebp]

; 2991 : 	pList.Pos = Pos;

  0002b	8a 55 0c	 mov	 dl, BYTE PTR _Pos$[ebp]

; 2992 : 	pList.m_Skill = type;

  0002e	66 8b 45 10	 mov	 ax, WORD PTR _type$[ebp]
  00032	88 8d 11 fc ff
	ff		 mov	 BYTE PTR _pCount$[ebp+5], cl

; 2993 : 
; 2994 : 	pList.m_Level = level<<3;

  00038	8a 4d 14	 mov	 cl, BYTE PTR _level$[ebp]
  0003b	02 c9		 add	 cl, cl
  0003d	88 95 08 fc ff
	ff		 mov	 BYTE PTR _pList$[ebp], dl

; 2995 : 	pList.m_Level |= skill & 0x07;

  00043	8a 55 18	 mov	 dl, BYTE PTR _skill$[ebp]
  00046	02 c9		 add	 cl, cl
  00048	02 c9		 add	 cl, cl
  0004a	80 e2 07	 and	 dl, 7
  0004d	0a ca		 or	 cl, dl
  0004f	88 8d 0b fc ff
	ff		 mov	 BYTE PTR _pList$[ebp+3], cl
  00055	66 89 85 09 fc
	ff ff		 mov	 WORD PTR _pList$[ebp+1], ax

; 2996 : 
; 2997 : 	memcpy(&sendbuf[lOfs], &pList, sizeof(pList));

  0005c	8b 85 08 fc ff
	ff		 mov	 eax, DWORD PTR _pList$[ebp]

; 2998 : 	lOfs+= sizeof(pList);
; 2999 : 	pCount.h.size = lOfs;

  00062	c6 85 0d fc ff
	ff 0a		 mov	 BYTE PTR _pCount$[ebp+1], 10 ; 0000000aH

; 3000 : 	memcpy(sendbuf, &pCount, sizeof(pCount));

  00069	8b 8d 0c fc ff
	ff		 mov	 ecx, DWORD PTR _pCount$[ebp]
  0006f	89 85 1a fc ff
	ff		 mov	 DWORD PTR _sendbuf$[ebp+6], eax

; 3001 : 
; 3002 : 	DataSend(aIndex, sendbuf, lOfs);

  00075	6a 0a		 push	 10			; 0000000aH
  00077	8d 85 14 fc ff
	ff		 lea	 eax, DWORD PTR _sendbuf$[ebp]
  0007d	89 8d 14 fc ff
	ff		 mov	 DWORD PTR _sendbuf$[ebp], ecx
  00083	8b 4d 08	 mov	 ecx, DWORD PTR _aIndex$[ebp]
  00086	c6 85 10 fc ff
	ff fe		 mov	 BYTE PTR _pCount$[ebp+4], 254 ; 000000feH
  0008d	66 8b 95 10 fc
	ff ff		 mov	 dx, WORD PTR _pCount$[ebp+4]
  00094	50		 push	 eax
  00095	51		 push	 ecx
  00096	66 89 95 18 fc
	ff ff		 mov	 WORD PTR _sendbuf$[ebp+4], dx
  0009d	e8 00 00 00 00	 call	 ?DataSend@@YAHHPAEK@Z	; DataSend

; 3003 : }

  000a2	8b 4d fc	 mov	 ecx, DWORD PTR __$ArrayPad$[ebp]
  000a5	33 cd		 xor	 ecx, ebp
  000a7	83 c4 1c	 add	 esp, 28			; 0000001cH
  000aa	e8 00 00 00 00	 call	 @__security_check_cookie@4
  000af	8b e5		 mov	 esp, ebp
  000b1	5d		 pop	 ebp
  000b2	c3		 ret	 0
?GCMagicListOneSend@@YAXHDGEEE@Z ENDP			; GCMagicListOneSend
_TEXT	ENDS
PUBLIC	__$ArrayPad$
PUBLIC	?GCMagicListOneDelSend@@YAXHDGEEE@Z		; GCMagicListOneDelSend
; Function compile flags: /Ogtp
;	COMDAT ?GCMagicListOneDelSend@@YAXHDGEEE@Z
_TEXT	SEGMENT
_pList$ = -1016						; size = 4
_pCount$ = -1012					; size = 6
_sendbuf$ = -1004					; size = 1000
__$ArrayPad$ = -4					; size = 4
_aIndex$ = 8						; size = 4
_Pos$ = 12						; size = 1
_type$ = 16						; size = 2
_level$ = 20						; size = 1
_skill$ = 24						; size = 1
_btListType$ = 28					; size = 1
?GCMagicListOneDelSend@@YAXHDGEEE@Z PROC		; GCMagicListOneDelSend, COMDAT

; 3008 : {

  00000	55		 push	 ebp
  00001	8b ec		 mov	 ebp, esp
  00003	81 ec f8 03 00
	00		 sub	 esp, 1016		; 000003f8H
  00009	a1 00 00 00 00	 mov	 eax, DWORD PTR ___security_cookie
  0000e	33 c5		 xor	 eax, ebp
  00010	89 45 fc	 mov	 DWORD PTR __$ArrayPad$[ebp], eax

; 3009 : 	PMSG_MAGICLISTCOUNT pCount;
; 3010 : 	PMSG_MAGICLIST pList;
; 3011 : 
; 3012 : 	BYTE sendbuf[1000];
; 3013 : 	int lOfs = sizeof(pCount);
; 3014 : 
; 3015 : 	PHeadSubSetB((LPBYTE)&pCount, 0xF3, 0x11, 0);

  00013	6a 00		 push	 0
  00015	6a 11		 push	 17			; 00000011H
  00017	8d 85 0c fc ff
	ff		 lea	 eax, DWORD PTR _pCount$[ebp]
  0001d	68 f3 00 00 00	 push	 243			; 000000f3H
  00022	50		 push	 eax
  00023	e8 00 00 00 00	 call	 ?PHeadSubSetB@@YAXPAEEEH@Z ; PHeadSubSetB

; 3016 : 	pCount.h.size = 0;
; 3017 : 	pCount.Count = 0xFF;
; 3018 : 	pCount.btListType = btListType;

  00028	8a 4d 1c	 mov	 cl, BYTE PTR _btListType$[ebp]

; 3019 : 	pList.Pos = Pos;

  0002b	8a 55 0c	 mov	 dl, BYTE PTR _Pos$[ebp]

; 3020 : 
; 3021 : 	pList.m_Skill = type;

  0002e	66 8b 45 10	 mov	 ax, WORD PTR _type$[ebp]
  00032	88 8d 11 fc ff
	ff		 mov	 BYTE PTR _pCount$[ebp+5], cl

; 3022 : 
; 3023 : 	pList.m_Level = level<<3;

  00038	8a 4d 14	 mov	 cl, BYTE PTR _level$[ebp]
  0003b	02 c9		 add	 cl, cl
  0003d	88 95 08 fc ff
	ff		 mov	 BYTE PTR _pList$[ebp], dl

; 3024 : 	pList.m_Level |= skill & 0x07;

  00043	8a 55 18	 mov	 dl, BYTE PTR _skill$[ebp]
  00046	02 c9		 add	 cl, cl
  00048	02 c9		 add	 cl, cl
  0004a	80 e2 07	 and	 dl, 7
  0004d	0a ca		 or	 cl, dl
  0004f	88 8d 0b fc ff
	ff		 mov	 BYTE PTR _pList$[ebp+3], cl
  00055	66 89 85 09 fc
	ff ff		 mov	 WORD PTR _pList$[ebp+1], ax

; 3025 : 
; 3026 : 	memcpy(&sendbuf[lOfs], &pList, sizeof(pList));

  0005c	8b 85 08 fc ff
	ff		 mov	 eax, DWORD PTR _pList$[ebp]

; 3027 : 	lOfs+= sizeof(pList);
; 3028 : 	pCount.h.size = lOfs;

  00062	c6 85 0d fc ff
	ff 0a		 mov	 BYTE PTR _pCount$[ebp+1], 10 ; 0000000aH

; 3029 : 	memcpy(sendbuf, &pCount, sizeof(pCount));

  00069	8b 8d 0c fc ff
	ff		 mov	 ecx, DWORD PTR _pCount$[ebp]
  0006f	89 85 1a fc ff
	ff		 mov	 DWORD PTR _sendbuf$[ebp+6], eax

; 3030 : 
; 3031 : 	DataSend(aIndex, sendbuf, lOfs);

  00075	6a 0a		 push	 10			; 0000000aH
  00077	8d 85 14 fc ff
	ff		 lea	 eax, DWORD PTR _sendbuf$[ebp]
  0007d	89 8d 14 fc ff
	ff		 mov	 DWORD PTR _sendbuf$[ebp], ecx
  00083	8b 4d 08	 mov	 ecx, DWORD PTR _aIndex$[ebp]
  00086	c6 85 10 fc ff
	ff ff		 mov	 BYTE PTR _pCount$[ebp+4], 255 ; 000000ffH
  0008d	66 8b 95 10 fc
	ff ff		 mov	 dx, WORD PTR _pCount$[ebp+4]
  00094	50		 push	 eax
  00095	51		 push	 ecx
  00096	66 89 95 18 fc
	ff ff		 mov	 WORD PTR _sendbuf$[ebp+4], dx
  0009d	e8 00 00 00 00	 call	 ?DataSend@@YAHHPAEK@Z	; DataSend

; 3032 : }

  000a2	8b 4d fc	 mov	 ecx, DWORD PTR __$ArrayPad$[ebp]
  000a5	33 cd		 xor	 ecx, ebp
  000a7	83 c4 1c	 add	 esp, 28			; 0000001cH
  000aa	e8 00 00 00 00	 call	 @__security_check_cookie@4
  000af	8b e5		 mov	 esp, ebp
  000b1	5d		 pop	 ebp
  000b2	c3		 ret	 0
?GCMagicListOneDelSend@@YAXHDGEEE@Z ENDP		; GCMagicListOneDelSend
_TEXT	ENDS
PUBLIC	__$ArrayPad$
PUBLIC	?GCMagicListMultiSend@@YAXPAUOBJECTSTRUCT@@E@Z	; GCMagicListMultiSend
EXTRN	?IsExistMLSBasedSkill@CMasterLevelSkillTreeSystem@@QAEHPAUOBJECTSTRUCT@@H@Z:PROC ; CMasterLevelSkillTreeSystem::IsExistMLSBasedSkill
EXTRN	?GetSkillUseType@CMagicDamage@@QAEHH@Z:PROC	; CMagicDamage::GetSkillUseType
EXTRN	?MagicDamageC@@3VCMagicDamage@@A:BYTE		; MagicDamageC
EXTRN	?CheckMasterLevelSkill@CMasterLevelSkillTreeSystem@@QAEHH@Z:PROC ; CMasterLevelSkillTreeSystem::CheckMasterLevelSkill
EXTRN	?CheckUsableWeaponSkill@CMasterLevelSkillTreeSystem@@QAEHPAUOBJECTSTRUCT@@H@Z:PROC ; CMasterLevelSkillTreeSystem::CheckUsableWeaponSkill
EXTRN	?g_MasterSkillSystem@@3VCMasterLevelSkillTreeSystem@@A:BYTE ; g_MasterSkillSystem
EXTRN	?IsMagic@CMagicInf@@QAEHXZ:PROC			; CMagicInf::IsMagic
; Function compile flags: /Ogtp
;	COMDAT ?GCMagicListMultiSend@@YAXPAUOBJECTSTRUCT@@E@Z
_TEXT	SEGMENT
_Count$ = -1024						; size = 4
_pList$ = -1020						; size = 4
_pCount$ = -1016					; size = 6
_lOfs$ = -1008						; size = 4
_sendbuf$ = -1004					; size = 1000
__$ArrayPad$ = -4					; size = 4
_lpObj$ = 8						; size = 4
_btListType$ = 12					; size = 1
?GCMagicListMultiSend@@YAXPAUOBJECTSTRUCT@@E@Z PROC	; GCMagicListMultiSend, COMDAT

; 3037 : {

  00000	55		 push	 ebp
  00001	8b ec		 mov	 ebp, esp
  00003	81 ec 00 04 00
	00		 sub	 esp, 1024		; 00000400H
  00009	a1 00 00 00 00	 mov	 eax, DWORD PTR ___security_cookie
  0000e	33 c5		 xor	 eax, ebp
  00010	89 45 fc	 mov	 DWORD PTR __$ArrayPad$[ebp], eax

; 3038 : 	PMSG_MAGICLISTCOUNT pCount;
; 3039 : 	PMSG_MAGICLIST pList;
; 3040 : 	BYTE sendbuf[1000];
; 3041 : 	int lOfs = sizeof(pCount);
; 3042 : 	int Count = 0;
; 3043 : 	pCount.btListType = btListType;

  00013	8a 45 0c	 mov	 al, BYTE PTR _btListType$[ebp]
  00016	53		 push	 ebx
  00017	56		 push	 esi
  00018	57		 push	 edi
  00019	8b 7d 08	 mov	 edi, DWORD PTR _lpObj$[ebp]
  0001c	33 f6		 xor	 esi, esi

; 3044 : 
; 3045 : 	PHeadSubSetB((LPBYTE)&pCount, 0xF3, 0x11, 0);

  0001e	56		 push	 esi
  0001f	6a 11		 push	 17			; 00000011H
  00021	8d 8d 08 fc ff
	ff		 lea	 ecx, DWORD PTR _pCount$[ebp]
  00027	68 f3 00 00 00	 push	 243			; 000000f3H
  0002c	51		 push	 ecx
  0002d	c7 85 10 fc ff
	ff 06 00 00 00	 mov	 DWORD PTR _lOfs$[ebp], 6
  00037	89 b5 00 fc ff
	ff		 mov	 DWORD PTR _Count$[ebp], esi
  0003d	88 85 0d fc ff
	ff		 mov	 BYTE PTR _pCount$[ebp+5], al
  00043	e8 00 00 00 00	 call	 ?PHeadSubSetB@@YAXPAEEEH@Z ; PHeadSubSetB
  00048	83 c4 10	 add	 esp, 16			; 00000010H

; 3046 : 
; 3047 : 	for ( int n=0;n<MAX_MAGIC;n++)

  0004b	33 db		 xor	 ebx, ebx
  0004d	8d 49 00	 npad	 3
$LL8@GCMagicLis:

; 3048 : 	{
; 3049 : 		if ( lpObj->Magic[n].IsMagic() == TRUE )

  00050	8b 8f a8 06 00
	00		 mov	 ecx, DWORD PTR [edi+1704]
  00056	03 ce		 add	 ecx, esi
  00058	e8 00 00 00 00	 call	 ?IsMagic@CMagicInf@@QAEHXZ ; CMagicInf::IsMagic
  0005d	83 f8 01	 cmp	 eax, 1
  00060	0f 85 b8 00 00
	00		 jne	 $LN7@GCMagicLis

; 3050 : 		{
; 3051 : 			if( !g_MasterSkillSystem.CheckUsableWeaponSkill(lpObj,n) )

  00066	53		 push	 ebx
  00067	57		 push	 edi
  00068	b9 00 00 00 00	 mov	 ecx, OFFSET ?g_MasterSkillSystem@@3VCMasterLevelSkillTreeSystem@@A ; g_MasterSkillSystem
  0006d	e8 00 00 00 00	 call	 ?CheckUsableWeaponSkill@CMasterLevelSkillTreeSystem@@QAEHPAUOBJECTSTRUCT@@H@Z ; CMasterLevelSkillTreeSystem::CheckUsableWeaponSkill
  00072	85 c0		 test	 eax, eax
  00074	0f 84 a4 00 00
	00		 je	 $LN7@GCMagicLis

; 3052 : 				continue;
; 3053 : 
; 3054 : 			if( g_MasterSkillSystem.CheckMasterLevelSkill(lpObj->Magic[n].m_Skill) &&
; 3055 : 				MagicDamageC.GetSkillUseType(lpObj->Magic[n].m_Skill) == 3 )

  0007a	8b 97 a8 06 00
	00		 mov	 edx, DWORD PTR [edi+1704]
  00080	8b 44 16 08	 mov	 eax, DWORD PTR [esi+edx+8]
  00084	50		 push	 eax
  00085	b9 00 00 00 00	 mov	 ecx, OFFSET ?g_MasterSkillSystem@@3VCMasterLevelSkillTreeSystem@@A ; g_MasterSkillSystem
  0008a	e8 00 00 00 00	 call	 ?CheckMasterLevelSkill@CMasterLevelSkillTreeSystem@@QAEHH@Z ; CMasterLevelSkillTreeSystem::CheckMasterLevelSkill
  0008f	85 c0		 test	 eax, eax
  00091	74 1a		 je	 SHORT $LN3@GCMagicLis
  00093	8b 8f a8 06 00
	00		 mov	 ecx, DWORD PTR [edi+1704]
  00099	8b 54 0e 08	 mov	 edx, DWORD PTR [esi+ecx+8]
  0009d	52		 push	 edx
  0009e	b9 00 00 00 00	 mov	 ecx, OFFSET ?MagicDamageC@@3VCMagicDamage@@A ; MagicDamageC
  000a3	e8 00 00 00 00	 call	 ?GetSkillUseType@CMagicDamage@@QAEHH@Z ; CMagicDamage::GetSkillUseType
  000a8	83 f8 03	 cmp	 eax, 3
  000ab	74 71		 je	 SHORT $LN7@GCMagicLis
$LN3@GCMagicLis:

; 3056 : 				continue;
; 3057 : 
; 3058 : 			if( g_MasterSkillSystem.IsExistMLSBasedSkill(lpObj,lpObj->Magic[n].m_Skill) )

  000ad	8b 87 a8 06 00
	00		 mov	 eax, DWORD PTR [edi+1704]
  000b3	8b 4c 06 08	 mov	 ecx, DWORD PTR [esi+eax+8]
  000b7	51		 push	 ecx
  000b8	57		 push	 edi
  000b9	b9 00 00 00 00	 mov	 ecx, OFFSET ?g_MasterSkillSystem@@3VCMasterLevelSkillTreeSystem@@A ; g_MasterSkillSystem
  000be	e8 00 00 00 00	 call	 ?IsExistMLSBasedSkill@CMasterLevelSkillTreeSystem@@QAEHPAUOBJECTSTRUCT@@H@Z ; CMasterLevelSkillTreeSystem::IsExistMLSBasedSkill
  000c3	85 c0		 test	 eax, eax
  000c5	75 57		 jne	 SHORT $LN7@GCMagicLis

; 3059 : 				continue;
; 3060 : 
; 3061 : 			if( lpObj->Magic[n].m_bBrand )

  000c7	8b 97 a8 06 00
	00		 mov	 edx, DWORD PTR [edi+1704]
  000cd	38 44 16 14	 cmp	 BYTE PTR [esi+edx+20], al
  000d1	75 4b		 jne	 SHORT $LN7@GCMagicLis

; 3062 : 				continue;
; 3063 : 
; 3064 : 			pList.Pos = n;
; 3065 : 			pList.m_Skill = lpObj->Magic[n].m_Skill;

  000d3	8b c2		 mov	 eax, edx

; 3066 : 			pList.m_Level = lpObj->Magic[n].m_Level << 3;

  000d5	8a 54 30 04	 mov	 dl, BYTE PTR [eax+esi+4]
  000d9	66 8b 4c 30 08	 mov	 cx, WORD PTR [eax+esi+8]

; 3067 : 			pList.m_Level |= lpObj->Magic[n].m_Skill & 7;
; 3068 : 			memcpy(&sendbuf[lOfs], &pList, sizeof(pList));

  000de	8b 85 10 fc ff
	ff		 mov	 eax, DWORD PTR _lOfs$[ebp]
  000e4	02 d2		 add	 dl, dl
  000e6	02 d2		 add	 dl, dl
  000e8	66 89 8d 05 fc
	ff ff		 mov	 WORD PTR _pList$[ebp+1], cx
  000ef	80 e1 07	 and	 cl, 7
  000f2	02 d2		 add	 dl, dl
  000f4	0a d1		 or	 dl, cl
  000f6	88 9d 04 fc ff
	ff		 mov	 BYTE PTR _pList$[ebp], bl
  000fc	88 95 07 fc ff
	ff		 mov	 BYTE PTR _pList$[ebp+3], dl
  00102	8b 8d 04 fc ff
	ff		 mov	 ecx, DWORD PTR _pList$[ebp]
  00108	89 8c 05 14 fc
	ff ff		 mov	 DWORD PTR _sendbuf$[ebp+eax], ecx

; 3069 : 			lOfs+= sizeof(pList);

  0010f	83 c0 04	 add	 eax, 4

; 3070 : 			Count++;

  00112	ff 85 00 fc ff
	ff		 inc	 DWORD PTR _Count$[ebp]
  00118	89 85 10 fc ff
	ff		 mov	 DWORD PTR _lOfs$[ebp], eax
$LN7@GCMagicLis:

; 3046 : 
; 3047 : 	for ( int n=0;n<MAX_MAGIC;n++)

  0011e	83 c6 18	 add	 esi, 24			; 00000018H
  00121	43		 inc	 ebx
  00122	81 fe 10 0e 00
	00		 cmp	 esi, 3600		; 00000e10H
  00128	0f 8c 22 ff ff
	ff		 jl	 $LL8@GCMagicLis

; 3071 : 		}
; 3072 : 	}
; 3073 : 
; 3074 : 	pCount.Count = Count;
; 3075 : 	pCount.h.size = lOfs;

  0012e	8b 85 10 fc ff
	ff		 mov	 eax, DWORD PTR _lOfs$[ebp]
  00134	8a 95 00 fc ff
	ff		 mov	 dl, BYTE PTR _Count$[ebp]
  0013a	88 85 09 fc ff
	ff		 mov	 BYTE PTR _pCount$[ebp+1], al

; 3076 : 	memcpy(sendbuf, &pCount, sizeof(pCount));

  00140	8b 8d 08 fc ff
	ff		 mov	 ecx, DWORD PTR _pCount$[ebp]

; 3077 : 
; 3078 : 	DataSend(lpObj->m_Index, sendbuf, lOfs);

  00146	50		 push	 eax
  00147	8d 85 14 fc ff
	ff		 lea	 eax, DWORD PTR _sendbuf$[ebp]
  0014d	89 8d 14 fc ff
	ff		 mov	 DWORD PTR _sendbuf$[ebp], ecx
  00153	8b 0f		 mov	 ecx, DWORD PTR [edi]
  00155	88 95 0c fc ff
	ff		 mov	 BYTE PTR _pCount$[ebp+4], dl
  0015b	66 8b 95 0c fc
	ff ff		 mov	 dx, WORD PTR _pCount$[ebp+4]
  00162	50		 push	 eax
  00163	51		 push	 ecx
  00164	66 89 95 18 fc
	ff ff		 mov	 WORD PTR _sendbuf$[ebp+4], dx
  0016b	e8 00 00 00 00	 call	 ?DataSend@@YAHHPAEK@Z	; DataSend

; 3079 : }

  00170	8b 4d fc	 mov	 ecx, DWORD PTR __$ArrayPad$[ebp]
  00173	83 c4 0c	 add	 esp, 12			; 0000000cH
  00176	5f		 pop	 edi
  00177	5e		 pop	 esi
  00178	33 cd		 xor	 ecx, ebp
  0017a	5b		 pop	 ebx
  0017b	e8 00 00 00 00	 call	 @__security_check_cookie@4
  00180	8b e5		 mov	 esp, ebp
  00182	5d		 pop	 ebp
  00183	c3		 ret	 0
?GCMagicListMultiSend@@YAXPAUOBJECTSTRUCT@@E@Z ENDP	; GCMagicListMultiSend
_TEXT	ENDS
PUBLIC	__$ArrayPad$
PUBLIC	?GCEquipmentSend@@YAXH@Z			; GCEquipmentSend
EXTRN	?gObjMakePreviewCharSet@@YAXH@Z:PROC		; gObjMakePreviewCharSet
; Function compile flags: /Ogtp
;	COMDAT ?GCEquipmentSend@@YAXH@Z
_TEXT	SEGMENT
_pMsg$ = -28						; size = 24
__$ArrayPad$ = -4					; size = 4
_aIndex$ = 8						; size = 4
?GCEquipmentSend@@YAXH@Z PROC				; GCEquipmentSend, COMDAT

; 3095 : {

  00000	55		 push	 ebp
  00001	8b ec		 mov	 ebp, esp
  00003	83 ec 1c	 sub	 esp, 28			; 0000001cH
  00006	a1 00 00 00 00	 mov	 eax, DWORD PTR ___security_cookie
  0000b	33 c5		 xor	 eax, ebp
  0000d	89 45 fc	 mov	 DWORD PTR __$ArrayPad$[ebp], eax
  00010	53		 push	 ebx
  00011	8b 5d 08	 mov	 ebx, DWORD PTR _aIndex$[ebp]

; 3096 : 	PMSG_EQUIPMENTLIST pMsg;
; 3097 : 
; 3098 : 	PHeadSubSetB((LPBYTE)&pMsg, 0xF3, 0x13, sizeof(pMsg));

  00014	6a 18		 push	 24			; 00000018H
  00016	6a 13		 push	 19			; 00000013H
  00018	8d 45 e4	 lea	 eax, DWORD PTR _pMsg$[ebp]
  0001b	68 f3 00 00 00	 push	 243			; 000000f3H
  00020	50		 push	 eax
  00021	e8 00 00 00 00	 call	 ?PHeadSubSetB@@YAXPAEEEH@Z ; PHeadSubSetB

; 3099 : 	pMsg.NumberH = SET_NUMBERH(aIndex);

  00026	8b cb		 mov	 ecx, ebx
  00028	c1 e9 08	 shr	 ecx, 8

; 3100 : 	pMsg.NumberL = SET_NUMBERL(aIndex);
; 3101 : 	gObjMakePreviewCharSet(aIndex);

  0002b	53		 push	 ebx
  0002c	88 4d e8	 mov	 BYTE PTR _pMsg$[ebp+4], cl
  0002f	88 5d e9	 mov	 BYTE PTR _pMsg$[ebp+5], bl
  00032	e8 00 00 00 00	 call	 ?gObjMakePreviewCharSet@@YAXH@Z ; gObjMakePreviewCharSet

; 3102 : 	LPOBJ lpObj = &gObj[aIndex];

  00037	69 db 40 27 00
	00		 imul	 ebx, 10048		; 00002740H
  0003d	03 1d 00 00 00
	00		 add	 ebx, DWORD PTR ?gObj@@3PAUOBJECTSTRUCT@@A ; gObj

; 3103 : 
; 3104 : 	memcpy(pMsg.Equipment, lpObj->CharSet, sizeof(lpObj->CharSet));

  00043	8b 93 84 08 00
	00		 mov	 edx, DWORD PTR [ebx+2180]
  00049	89 55 ea	 mov	 DWORD PTR _pMsg$[ebp+6], edx
  0004c	8b 83 88 08 00
	00		 mov	 eax, DWORD PTR [ebx+2184]
  00052	89 45 ee	 mov	 DWORD PTR _pMsg$[ebp+10], eax
  00055	8b 8b 8c 08 00
	00		 mov	 ecx, DWORD PTR [ebx+2188]
  0005b	89 4d f2	 mov	 DWORD PTR _pMsg$[ebp+14], ecx
  0005e	8b 93 90 08 00
	00		 mov	 edx, DWORD PTR [ebx+2192]

; 3105 : 	MsgSendV2(lpObj, (LPBYTE)&pMsg, pMsg.h.size);

  00064	0f b6 4d e5	 movzx	 ecx, BYTE PTR _pMsg$[ebp+1]
  00068	89 55 f6	 mov	 DWORD PTR _pMsg$[ebp+18], edx
  0006b	66 8b 83 94 08
	00 00		 mov	 ax, WORD PTR [ebx+2196]
  00072	51		 push	 ecx
  00073	8d 55 e4	 lea	 edx, DWORD PTR _pMsg$[ebp]
  00076	52		 push	 edx
  00077	53		 push	 ebx
  00078	66 89 45 fa	 mov	 WORD PTR _pMsg$[ebp+22], ax
  0007c	e8 00 00 00 00	 call	 ?MsgSendV2@@YAXPAUOBJECTSTRUCT@@PAEH@Z ; MsgSendV2

; 3106 : }

  00081	8b 4d fc	 mov	 ecx, DWORD PTR __$ArrayPad$[ebp]
  00084	83 c4 20	 add	 esp, 32			; 00000020H
  00087	33 cd		 xor	 ecx, ebp
  00089	5b		 pop	 ebx
  0008a	e8 00 00 00 00	 call	 @__security_check_cookie@4
  0008f	8b e5		 mov	 esp, ebp
  00091	5d		 pop	 ebp
  00092	c3		 ret	 0
?GCEquipmentSend@@YAXH@Z ENDP				; GCEquipmentSend
_TEXT	ENDS
PUBLIC	?GCRecallMonLife@@YAXHHH@Z			; GCRecallMonLife
; Function compile flags: /Ogtp
;	COMDAT ?GCRecallMonLife@@YAXHHH@Z
_TEXT	SEGMENT
_pMsg$ = -8						; size = 5
_aIndex$ = 8						; size = 4
_maxlife$ = 12						; size = 4
_life$ = 16						; size = 4
?GCRecallMonLife@@YAXHHH@Z PROC				; GCRecallMonLife, COMDAT

; 3119 : {

  00000	55		 push	 ebp
  00001	8b ec		 mov	 ebp, esp
  00003	83 ec 08	 sub	 esp, 8
  00006	56		 push	 esi

; 3120 : 	if ( maxlife <= 0 )

  00007	8b 75 0c	 mov	 esi, DWORD PTR _maxlife$[ebp]
  0000a	85 f6		 test	 esi, esi
  0000c	7e 33		 jle	 SHORT $LN2@GCRecallMo

; 3121 : 		return;
; 3122 : 	
; 3123 : 	PMSG_RECALLMONLIFE pMsg;
; 3124 : 	BYTE per = life * 100 / maxlife;
; 3125 : 	PHeadSubSetB((LPBYTE)&pMsg, 0xF3, 0x20, sizeof(pMsg));

  0000e	6a 05		 push	 5
  00010	6a 20		 push	 32			; 00000020H
  00012	8d 45 f8	 lea	 eax, DWORD PTR _pMsg$[ebp]
  00015	68 f3 00 00 00	 push	 243			; 000000f3H
  0001a	50		 push	 eax
  0001b	e8 00 00 00 00	 call	 ?PHeadSubSetB@@YAXPAEEEH@Z ; PHeadSubSetB
  00020	8b 45 10	 mov	 eax, DWORD PTR _life$[ebp]
  00023	6b c0 64	 imul	 eax, 100		; 00000064H
  00026	99		 cdq
  00027	f7 fe		 idiv	 esi

; 3126 : 	pMsg.Life = per;
; 3127 : 
; 3128 : 	DataSend(aIndex, (UCHAR*)&pMsg, pMsg.h.size);

  00029	0f b6 4d f9	 movzx	 ecx, BYTE PTR _pMsg$[ebp+1]
  0002d	51		 push	 ecx
  0002e	8d 55 f8	 lea	 edx, DWORD PTR _pMsg$[ebp]
  00031	52		 push	 edx
  00032	88 45 fc	 mov	 BYTE PTR _pMsg$[ebp+4], al
  00035	8b 45 08	 mov	 eax, DWORD PTR _aIndex$[ebp]
  00038	50		 push	 eax
  00039	e8 00 00 00 00	 call	 ?DataSend@@YAHHPAEK@Z	; DataSend
  0003e	83 c4 1c	 add	 esp, 28			; 0000001cH
$LN2@GCRecallMo:
  00041	5e		 pop	 esi

; 3129 : }

  00042	8b e5		 mov	 esp, ebp
  00044	5d		 pop	 ebp
  00045	c3		 ret	 0
?GCRecallMonLife@@YAXHHH@Z ENDP				; GCRecallMonLife
_TEXT	ENDS
PUBLIC	?GCTimeViewSend@@YAXHH@Z			; GCTimeViewSend
; Function compile flags: /Ogtp
;	COMDAT ?GCTimeViewSend@@YAXHH@Z
_TEXT	SEGMENT
_pMsg$ = -8						; size = 6
_aIndex$ = 8						; size = 4
_second$ = 12						; size = 4
?GCTimeViewSend@@YAXHH@Z PROC				; GCTimeViewSend, COMDAT

; 3144 : {

  00000	55		 push	 ebp
  00001	8b ec		 mov	 ebp, esp
  00003	83 ec 08	 sub	 esp, 8

; 3145 : 	PMSG_TIMEVIEW pMsg;
; 3146 : 
; 3147 : 	PHeadSubSetB((LPBYTE)&pMsg, 0xF3, 0x22, sizeof(pMsg));

  00006	6a 06		 push	 6
  00008	6a 22		 push	 34			; 00000022H
  0000a	8d 45 f8	 lea	 eax, DWORD PTR _pMsg$[ebp]
  0000d	68 f3 00 00 00	 push	 243			; 000000f3H
  00012	50		 push	 eax
  00013	e8 00 00 00 00	 call	 ?PHeadSubSetB@@YAXPAEEEH@Z ; PHeadSubSetB

; 3148 : 	pMsg.Second = second;
; 3149 : 
; 3150 : 	DataSend(aIndex, (UCHAR *)&pMsg, pMsg.h.size);

  00018	0f b6 55 f9	 movzx	 edx, BYTE PTR _pMsg$[ebp+1]
  0001c	66 8b 4d 0c	 mov	 cx, WORD PTR _second$[ebp]
  00020	52		 push	 edx
  00021	8d 45 f8	 lea	 eax, DWORD PTR _pMsg$[ebp]
  00024	66 89 4d fc	 mov	 WORD PTR _pMsg$[ebp+4], cx
  00028	8b 4d 08	 mov	 ecx, DWORD PTR _aIndex$[ebp]
  0002b	50		 push	 eax
  0002c	51		 push	 ecx
  0002d	e8 00 00 00 00	 call	 ?DataSend@@YAHHPAEK@Z	; DataSend
  00032	83 c4 1c	 add	 esp, 28			; 0000001cH

; 3151 : }

  00035	8b e5		 mov	 esp, ebp
  00037	5d		 pop	 ebp
  00038	c3		 ret	 0
?GCTimeViewSend@@YAXHH@Z ENDP				; GCTimeViewSend
_TEXT	ENDS
PUBLIC	__$ArrayPad$
PUBLIC	?GCGoalSend@@YAXHPADE0E@Z			; GCGoalSend
; Function compile flags: /Ogtp
;	COMDAT ?GCGoalSend@@YAXHPADE0E@Z
_TEXT	SEGMENT
_pMsg$ = -28						; size = 22
__$ArrayPad$ = -4					; size = 4
_aIndex$ = 8						; size = 4
_Name1$ = 12						; size = 4
_score1$ = 16						; size = 1
_Name2$ = 20						; size = 4
_score2$ = 24						; size = 1
?GCGoalSend@@YAXHPADE0E@Z PROC				; GCGoalSend, COMDAT

; 3168 : {

  00000	55		 push	 ebp
  00001	8b ec		 mov	 ebp, esp
  00003	83 ec 1c	 sub	 esp, 28			; 0000001cH
  00006	a1 00 00 00 00	 mov	 eax, DWORD PTR ___security_cookie
  0000b	33 c5		 xor	 eax, ebp
  0000d	89 45 fc	 mov	 DWORD PTR __$ArrayPad$[ebp], eax
  00010	56		 push	 esi
  00011	8b 75 0c	 mov	 esi, DWORD PTR _Name1$[ebp]
  00014	57		 push	 edi
  00015	8b 7d 14	 mov	 edi, DWORD PTR _Name2$[ebp]

; 3169 : 	PMSG_GOALSEND pMsg;
; 3170 : 
; 3171 : 	PHeadSubSetB((LPBYTE)&pMsg, 0xF3, 0x23, sizeof(pMsg));

  00018	6a 16		 push	 22			; 00000016H
  0001a	6a 23		 push	 35			; 00000023H
  0001c	8d 45 e4	 lea	 eax, DWORD PTR _pMsg$[ebp]
  0001f	68 f3 00 00 00	 push	 243			; 000000f3H
  00024	50		 push	 eax
  00025	e8 00 00 00 00	 call	 ?PHeadSubSetB@@YAXPAEEEH@Z ; PHeadSubSetB

; 3172 : 	memcpy(pMsg.RedTeamName, Name1, sizeof(pMsg.RedTeamName));

  0002a	8b 0e		 mov	 ecx, DWORD PTR [esi]
  0002c	8b 56 04	 mov	 edx, DWORD PTR [esi+4]

; 3173 : 	pMsg.RedTeamScore = score1;

  0002f	8a 45 10	 mov	 al, BYTE PTR _score1$[ebp]
  00032	89 4d e8	 mov	 DWORD PTR _pMsg$[ebp+4], ecx

; 3174 : 	memcpy(pMsg.BlueTeamName, Name2, sizeof(pMsg.BlueTeamName));

  00035	8b 0f		 mov	 ecx, DWORD PTR [edi]
  00037	89 55 ec	 mov	 DWORD PTR _pMsg$[ebp+8], edx
  0003a	8b 57 04	 mov	 edx, DWORD PTR [edi+4]
  0003d	89 4d f1	 mov	 DWORD PTR _pMsg$[ebp+13], ecx

; 3175 : 	pMsg.BlueTeamScore = score2;
; 3176 : 
; 3177 : 	DataSend(aIndex, (UCHAR*)&pMsg, pMsg.h.size);

  00040	0f b6 4d e5	 movzx	 ecx, BYTE PTR _pMsg$[ebp+1]
  00044	88 45 f0	 mov	 BYTE PTR _pMsg$[ebp+12], al
  00047	8a 45 18	 mov	 al, BYTE PTR _score2$[ebp]
  0004a	89 55 f5	 mov	 DWORD PTR _pMsg$[ebp+17], edx
  0004d	51		 push	 ecx
  0004e	8d 55 e4	 lea	 edx, DWORD PTR _pMsg$[ebp]
  00051	88 45 f9	 mov	 BYTE PTR _pMsg$[ebp+21], al
  00054	8b 45 08	 mov	 eax, DWORD PTR _aIndex$[ebp]
  00057	52		 push	 edx
  00058	50		 push	 eax
  00059	e8 00 00 00 00	 call	 ?DataSend@@YAHHPAEK@Z	; DataSend

; 3178 : }

  0005e	8b 4d fc	 mov	 ecx, DWORD PTR __$ArrayPad$[ebp]
  00061	83 c4 1c	 add	 esp, 28			; 0000001cH
  00064	5f		 pop	 edi
  00065	33 cd		 xor	 ecx, ebp
  00067	5e		 pop	 esi
  00068	e8 00 00 00 00	 call	 @__security_check_cookie@4
  0006d	8b e5		 mov	 esp, ebp
  0006f	5d		 pop	 ebp
  00070	c3		 ret	 0
?GCGoalSend@@YAXHPADE0E@Z ENDP				; GCGoalSend
_TEXT	ENDS
PUBLIC	??_C@_0BO@LCFCBICD@Option?5Recv?5?$CFd?5?$CFd?5?$CFd?5?$CFd?5?$CFd?5?$CFd?$AA@ ; `string'
PUBLIC	?GCSkillKeyRecv@@YAXPAUPMSG_SKILLKEY@@H@Z	; GCSkillKeyRecv
EXTRN	?LogAddL@@3P6AXPADZZA:DWORD			; LogAddL
EXTRN	?DGOptionDataSend@@YAXHPADPAEEEEEEEKD@Z:PROC	; DGOptionDataSend
EXTRN	__imp__ntohl@4:PROC
EXTRN	?gObjIsGamePlaing@@YAHPAUOBJECTSTRUCT@@@Z:PROC	; gObjIsGamePlaing
;	COMDAT ??_C@_0BO@LCFCBICD@Option?5Recv?5?$CFd?5?$CFd?5?$CFd?5?$CFd?5?$CFd?5?$CFd?$AA@
CONST	SEGMENT
??_C@_0BO@LCFCBICD@Option?5Recv?5?$CFd?5?$CFd?5?$CFd?5?$CFd?5?$CFd?5?$CFd?$AA@ DB 'O'
	DB	'ption Recv %d %d %d %d %d %d', 00H		; `string'
; Function compile flags: /Ogtp
CONST	ENDS
;	COMDAT ?GCSkillKeyRecv@@YAXPAUPMSG_SKILLKEY@@H@Z
_TEXT	SEGMENT
_RkeyDefine$ = -4					; size = 1
_lpMsg$ = 8						; size = 4
_aIndex$ = 12						; size = 4
?GCSkillKeyRecv@@YAXPAUPMSG_SKILLKEY@@H@Z PROC		; GCSkillKeyRecv, COMDAT

; 3184 : {

  00000	55		 push	 ebp
  00001	8b ec		 mov	 ebp, esp
  00003	51		 push	 ecx

; 3185 : 	if ( !gObjIsGamePlaing(&gObj[aIndex]))

  00004	a1 00 00 00 00	 mov	 eax, DWORD PTR ?gObj@@3PAUOBJECTSTRUCT@@A ; gObj
  00009	57		 push	 edi
  0000a	8b 7d 0c	 mov	 edi, DWORD PTR _aIndex$[ebp]
  0000d	69 ff 40 27 00
	00		 imul	 edi, 10048		; 00002740H
  00013	8d 0c 07	 lea	 ecx, DWORD PTR [edi+eax]
  00016	51		 push	 ecx
  00017	e8 00 00 00 00	 call	 ?gObjIsGamePlaing@@YAHPAUOBJECTSTRUCT@@@Z ; gObjIsGamePlaing
  0001c	83 c4 04	 add	 esp, 4
  0001f	85 c0		 test	 eax, eax
  00021	0f 84 9b 00 00
	00		 je	 $LN3@GCSkillKey

; 3186 : 		return;
; 3187 : 
; 3188 : 	if ( gObj[aIndex].iOptionRecv == TRUE )

  00027	a1 00 00 00 00	 mov	 eax, DWORD PTR ?gObj@@3PAUOBJECTSTRUCT@@A ; gObj
  0002c	b1 01		 mov	 cl, 1
  0002e	38 8c 07 7c 24
	00 00		 cmp	 BYTE PTR [edi+eax+9340], cl
  00035	0f 84 87 00 00
	00		 je	 $LN3@GCSkillKey

; 3189 : 		return;
; 3190 : 
; 3191 : 	gObj[aIndex].iOptionRecv = TRUE;
; 3192 : 
; 3193 : 	BYTE RkeyDefine = 0;
; 3194 : 	RkeyDefine = lpMsg->RkeyDefine;

  0003b	53		 push	 ebx
  0003c	56		 push	 esi
  0003d	8b 75 08	 mov	 esi, DWORD PTR _lpMsg$[ebp]
  00040	88 8c 07 7c 24
	00 00		 mov	 BYTE PTR [edi+eax+9340], cl

; 3195 : 
; 3196 : 	DWORD QWERLevel = 0;
; 3197 : 	QWERLevel = ntohl(lpMsg->QWERLevel);

  00047	8b 56 1e	 mov	 edx, DWORD PTR [esi+30]
  0004a	8a 5e 1d	 mov	 bl, BYTE PTR [esi+29]
  0004d	52		 push	 edx
  0004e	88 5d fc	 mov	 BYTE PTR _RkeyDefine$[ebp], bl
  00051	ff 15 00 00 00
	00		 call	 DWORD PTR __imp__ntohl@4

; 3198 : 
; 3199 : 	DGOptionDataSend(aIndex, gObj[aIndex].Name,
; 3200 : 		lpMsg->SKillKey, lpMsg->GameOption,
; 3201 : 		lpMsg->QkeyDefine,  lpMsg->WkeyDefine, lpMsg->EkeyDefine,lpMsg->ChatWindow,RkeyDefine,QWERLevel, gObj[aIndex].m_EnableUseChangeSkin);

  00057	8b 0d 00 00 00
	00		 mov	 ecx, DWORD PTR ?gObj@@3PAUOBJECTSTRUCT@@A ; gObj
  0005d	0f b6 94 0f 12
	27 00 00	 movzx	 edx, BYTE PTR [edi+ecx+10002]
  00065	52		 push	 edx
  00066	0f b6 56 1c	 movzx	 edx, BYTE PTR [esi+28]
  0006a	50		 push	 eax
  0006b	8b 45 fc	 mov	 eax, DWORD PTR _RkeyDefine$[ebp]
  0006e	50		 push	 eax
  0006f	0f b6 46 1b	 movzx	 eax, BYTE PTR [esi+27]
  00073	52		 push	 edx
  00074	0f b6 56 1a	 movzx	 edx, BYTE PTR [esi+26]
  00078	50		 push	 eax
  00079	0f b6 46 19	 movzx	 eax, BYTE PTR [esi+25]
  0007d	52		 push	 edx
  0007e	0f b6 56 18	 movzx	 edx, BYTE PTR [esi+24]
  00082	50		 push	 eax
  00083	52		 push	 edx
  00084	8b 55 0c	 mov	 edx, DWORD PTR _aIndex$[ebp]
  00087	8d 46 04	 lea	 eax, DWORD PTR [esi+4]
  0008a	50		 push	 eax
  0008b	8d 4c 0f 5d	 lea	 ecx, DWORD PTR [edi+ecx+93]
  0008f	51		 push	 ecx
  00090	52		 push	 edx
  00091	e8 00 00 00 00	 call	 ?DGOptionDataSend@@YAXHPADPAEEEEEEEKD@Z ; DGOptionDataSend

; 3202 : 
; 3203 : 	LogAddL("Option Recv %d %d %d %d %d %d", lpMsg->GameOption,
; 3204 : 		lpMsg->QkeyDefine,  lpMsg->WkeyDefine, lpMsg->EkeyDefine, RkeyDefine, lpMsg->QWERLevel);

  00096	8b 46 1e	 mov	 eax, DWORD PTR [esi+30]
  00099	0f b6 56 1b	 movzx	 edx, BYTE PTR [esi+27]
  0009d	50		 push	 eax
  0009e	0f b6 46 1a	 movzx	 eax, BYTE PTR [esi+26]
  000a2	0f b6 cb	 movzx	 ecx, bl
  000a5	51		 push	 ecx
  000a6	0f b6 4e 19	 movzx	 ecx, BYTE PTR [esi+25]
  000aa	52		 push	 edx
  000ab	0f b6 56 18	 movzx	 edx, BYTE PTR [esi+24]
  000af	50		 push	 eax
  000b0	51		 push	 ecx
  000b1	52		 push	 edx
  000b2	68 00 00 00 00	 push	 OFFSET ??_C@_0BO@LCFCBICD@Option?5Recv?5?$CFd?5?$CFd?5?$CFd?5?$CFd?5?$CFd?5?$CFd?$AA@
  000b7	ff 15 00 00 00
	00		 call	 DWORD PTR ?LogAddL@@3P6AXPADZZA ; LogAddL
  000bd	83 c4 48	 add	 esp, 72			; 00000048H
  000c0	5e		 pop	 esi
  000c1	5b		 pop	 ebx
$LN3@GCSkillKey:
  000c2	5f		 pop	 edi

; 3205 : }

  000c3	8b e5		 mov	 esp, ebp
  000c5	5d		 pop	 ebp
  000c6	c3		 ret	 0
?GCSkillKeyRecv@@YAXPAUPMSG_SKILLKEY@@H@Z ENDP		; GCSkillKeyRecv
_TEXT	ENDS
PUBLIC	??_C@_0BO@KLPIKBAN@Option?5Send?5?$CFd?5?$CFd?5?$CFd?5?$CFd?5?$CFd?5?$CFd?$AA@ ; `string'
PUBLIC	__$ArrayPad$
PUBLIC	?GCSkillKeySend@@YAXHPAEEEEEEEK@Z		; GCSkillKeySend
;	COMDAT ??_C@_0BO@KLPIKBAN@Option?5Send?5?$CFd?5?$CFd?5?$CFd?5?$CFd?5?$CFd?5?$CFd?$AA@
CONST	SEGMENT
??_C@_0BO@KLPIKBAN@Option?5Send?5?$CFd?5?$CFd?5?$CFd?5?$CFd?5?$CFd?5?$CFd?$AA@ DB 'O'
	DB	'ption Send %d %d %d %d %d %d', 00H		; `string'
; Function compile flags: /Ogtp
CONST	ENDS
;	COMDAT ?GCSkillKeySend@@YAXHPAEEEEEEEK@Z
_TEXT	SEGMENT
_pMsg$ = -40						; size = 34
__$ArrayPad$ = -4					; size = 4
_aIndex$ = 8						; size = 4
_keybuffer$ = 12					; size = 4
_GO$ = 16						; size = 1
_Qk$ = 20						; size = 1
_Wk$ = 24						; size = 1
_Ek$ = 28						; size = 1
_ChatWnd$ = 32						; size = 1
_Rk$ = 36						; size = 1
_QWERLevel$ = 40					; size = 4
?GCSkillKeySend@@YAXHPAEEEEEEEK@Z PROC			; GCSkillKeySend, COMDAT

; 3215 : {

  00000	55		 push	 ebp
  00001	8b ec		 mov	 ebp, esp
  00003	83 ec 28	 sub	 esp, 40			; 00000028H
  00006	a1 00 00 00 00	 mov	 eax, DWORD PTR ___security_cookie
  0000b	33 c5		 xor	 eax, ebp
  0000d	89 45 fc	 mov	 DWORD PTR __$ArrayPad$[ebp], eax
  00010	53		 push	 ebx
  00011	56		 push	 esi
  00012	8b 75 0c	 mov	 esi, DWORD PTR _keybuffer$[ebp]

; 3216 : 	PMSG_SKILLKEY pMsg;
; 3217 : 
; 3218 : 	PHeadSubSetB((LPBYTE)&pMsg, 0xF3, 0x30, sizeof(pMsg));

  00015	6a 22		 push	 34			; 00000022H
  00017	6a 30		 push	 48			; 00000030H
  00019	8d 45 d8	 lea	 eax, DWORD PTR _pMsg$[ebp]
  0001c	68 f3 00 00 00	 push	 243			; 000000f3H
  00021	50		 push	 eax
  00022	e8 00 00 00 00	 call	 ?PHeadSubSetB@@YAXPAEEEH@Z ; PHeadSubSetB

; 3219 : 	memcpy(pMsg.SKillKey, keybuffer, sizeof(pMsg.SKillKey));

  00027	8b 56 04	 mov	 edx, DWORD PTR [esi+4]
  0002a	8b 0e		 mov	 ecx, DWORD PTR [esi]
  0002c	8b 46 08	 mov	 eax, DWORD PTR [esi+8]

; 3220 : 	pMsg.GameOption = GO;

  0002f	8a 5d 10	 mov	 bl, BYTE PTR _GO$[ebp]
  00032	89 55 e0	 mov	 DWORD PTR _pMsg$[ebp+8], edx
  00035	8b 56 10	 mov	 edx, DWORD PTR [esi+16]
  00038	89 4d dc	 mov	 DWORD PTR _pMsg$[ebp+4], ecx
  0003b	8b 4e 0c	 mov	 ecx, DWORD PTR [esi+12]

; 3221 : 	pMsg.QkeyDefine = Qk;
; 3222 : 	pMsg.WkeyDefine = Wk;
; 3223 : 	pMsg.EkeyDefine = Ek;
; 3224 : 	pMsg.ChatWindow = ChatWnd;
; 3225 : 	pMsg.RkeyDefine = Rk;
; 3226 : 	pMsg.QWERLevel = QWERLevel;

  0003e	8b 75 28	 mov	 esi, DWORD PTR _QWERLevel$[ebp]
  00041	89 45 e4	 mov	 DWORD PTR _pMsg$[ebp+12], eax
  00044	8a 45 14	 mov	 al, BYTE PTR _Qk$[ebp]
  00047	89 55 ec	 mov	 DWORD PTR _pMsg$[ebp+20], edx
  0004a	8a 55 1c	 mov	 dl, BYTE PTR _Ek$[ebp]
  0004d	89 4d e8	 mov	 DWORD PTR _pMsg$[ebp+16], ecx
  00050	8a 4d 18	 mov	 cl, BYTE PTR _Wk$[ebp]
  00053	88 45 f1	 mov	 BYTE PTR _pMsg$[ebp+25], al
  00056	8a 45 20	 mov	 al, BYTE PTR _ChatWnd$[ebp]
  00059	88 55 f3	 mov	 BYTE PTR _pMsg$[ebp+27], dl

; 3227 : 
; 3228 : 	DataSend(aIndex, (UCHAR*)&pMsg, pMsg.h.size);

  0005c	0f b6 55 d9	 movzx	 edx, BYTE PTR _pMsg$[ebp+1]
  00060	88 4d f2	 mov	 BYTE PTR _pMsg$[ebp+26], cl
  00063	8a 4d 24	 mov	 cl, BYTE PTR _Rk$[ebp]
  00066	88 45 f4	 mov	 BYTE PTR _pMsg$[ebp+28], al
  00069	52		 push	 edx
  0006a	8d 45 d8	 lea	 eax, DWORD PTR _pMsg$[ebp]
  0006d	88 4d f5	 mov	 BYTE PTR _pMsg$[ebp+29], cl
  00070	8b 4d 08	 mov	 ecx, DWORD PTR _aIndex$[ebp]
  00073	50		 push	 eax
  00074	51		 push	 ecx
  00075	88 5d f0	 mov	 BYTE PTR _pMsg$[ebp+24], bl
  00078	89 75 f6	 mov	 DWORD PTR _pMsg$[ebp+30], esi
  0007b	e8 00 00 00 00	 call	 ?DataSend@@YAHHPAEK@Z	; DataSend

; 3229 : 	LogAddL("Option Send %d %d %d %d %d %d", GO, Qk, Wk, Ek, Rk, QWERLevel);

  00080	0f b6 55 24	 movzx	 edx, BYTE PTR _Rk$[ebp]
  00084	0f b6 45 1c	 movzx	 eax, BYTE PTR _Ek$[ebp]
  00088	0f b6 4d 18	 movzx	 ecx, BYTE PTR _Wk$[ebp]
  0008c	56		 push	 esi
  0008d	52		 push	 edx
  0008e	0f b6 55 14	 movzx	 edx, BYTE PTR _Qk$[ebp]
  00092	50		 push	 eax
  00093	51		 push	 ecx
  00094	0f b6 c3	 movzx	 eax, bl
  00097	52		 push	 edx
  00098	50		 push	 eax
  00099	68 00 00 00 00	 push	 OFFSET ??_C@_0BO@KLPIKBAN@Option?5Send?5?$CFd?5?$CFd?5?$CFd?5?$CFd?5?$CFd?5?$CFd?$AA@
  0009e	ff 15 00 00 00
	00		 call	 DWORD PTR ?LogAddL@@3P6AXPADZZA ; LogAddL

; 3230 : }

  000a4	8b 4d fc	 mov	 ecx, DWORD PTR __$ArrayPad$[ebp]
  000a7	83 c4 38	 add	 esp, 56			; 00000038H
  000aa	5e		 pop	 esi
  000ab	33 cd		 xor	 ecx, ebp
  000ad	5b		 pop	 ebx
  000ae	e8 00 00 00 00	 call	 @__security_check_cookie@4
  000b3	8b e5		 mov	 esp, ebp
  000b5	5d		 pop	 ebp
  000b6	c3		 ret	 0
?GCSkillKeySend@@YAXHPAEEEEEEEK@Z ENDP			; GCSkillKeySend
_TEXT	ENDS
PUBLIC	__$ArrayPad$
PUBLIC	?GCMoneySend@@YAXHK@Z				; GCMoneySend
; Function compile flags: /Ogtp
;	COMDAT ?GCMoneySend@@YAXHK@Z
_TEXT	SEGMENT
_pMsg$ = -20						; size = 16
__$ArrayPad$ = -4					; size = 4
_aIndex$ = 8						; size = 4
_money$ = 12						; size = 4
?GCMoneySend@@YAXHK@Z PROC				; GCMoneySend, COMDAT

; 3243 : {

  00000	55		 push	 ebp
  00001	8b ec		 mov	 ebp, esp
  00003	83 ec 14	 sub	 esp, 20			; 00000014H
  00006	a1 00 00 00 00	 mov	 eax, DWORD PTR ___security_cookie
  0000b	33 c5		 xor	 eax, ebp
  0000d	89 45 fc	 mov	 DWORD PTR __$ArrayPad$[ebp], eax

; 3244 : 	PMSG_ITEMGETRESULT pMsg;
; 3245 : 
; 3246 : 	pMsg.h.c = 0xC3;
; 3247 : 	pMsg.h.headcode = 0x22;
; 3248 : 	pMsg.h.size = sizeof(pMsg);
; 3249 : 	pMsg.result = 0xFE;
; 3250 : 
; 3251 : 	WORD hiWord = SET_NUMBERHW(money);

  00010	8b 4d 0c	 mov	 ecx, DWORD PTR _money$[ebp]
  00013	8b c1		 mov	 eax, ecx
  00015	c1 e8 10	 shr	 eax, 16			; 00000010H

; 3252 : 	WORD loWord = SET_NUMBERLW(money);
; 3253 : 	pMsg.Data[0] = SET_NUMBERH(hiWord);

  00018	8b d0		 mov	 edx, eax

; 3254 : 	pMsg.Data[1] = SET_NUMBERL(hiWord);

  0001a	88 45 f1	 mov	 BYTE PTR _pMsg$[ebp+5], al
  0001d	c1 ea 08	 shr	 edx, 8

; 3255 : 	pMsg.Data[2] = SET_NUMBERH(loWord);

  00020	8b c1		 mov	 eax, ecx

; 3256 : 	pMsg.Data[3] = SET_NUMBERL(loWord);

  00022	88 4d f3	 mov	 BYTE PTR _pMsg$[ebp+7], cl

; 3257 : 
; 3258 : 	DataSend(aIndex, (UCHAR*)&pMsg, pMsg.h.size);

  00025	6a 10		 push	 16			; 00000010H
  00027	8d 4d ec	 lea	 ecx, DWORD PTR _pMsg$[ebp]
  0002a	88 55 f0	 mov	 BYTE PTR _pMsg$[ebp+4], dl
  0002d	8b 55 08	 mov	 edx, DWORD PTR _aIndex$[ebp]
  00030	51		 push	 ecx
  00031	c1 e8 08	 shr	 eax, 8
  00034	52		 push	 edx
  00035	c6 45 ec c3	 mov	 BYTE PTR _pMsg$[ebp], 195 ; 000000c3H
  00039	66 c7 45 ed 10
	22		 mov	 WORD PTR _pMsg$[ebp+1], 8720 ; 00002210H
  0003f	c6 45 ef fe	 mov	 BYTE PTR _pMsg$[ebp+3], 254 ; 000000feH
  00043	88 45 f2	 mov	 BYTE PTR _pMsg$[ebp+6], al
  00046	e8 00 00 00 00	 call	 ?DataSend@@YAHHPAEK@Z	; DataSend

; 3259 : }

  0004b	8b 4d fc	 mov	 ecx, DWORD PTR __$ArrayPad$[ebp]
  0004e	33 cd		 xor	 ecx, ebp
  00050	83 c4 0c	 add	 esp, 12			; 0000000cH
  00053	e8 00 00 00 00	 call	 @__security_check_cookie@4
  00058	8b e5		 mov	 esp, ebp
  0005a	5d		 pop	 ebp
  0005b	c3		 ret	 0
?GCMoneySend@@YAXHK@Z ENDP				; GCMoneySend
_TEXT	ENDS
PUBLIC	__$ArrayPad$
PUBLIC	?GCItemInventoryPutSend@@YAXHEEE@Z		; GCItemInventoryPutSend
; Function compile flags: /Ogtp
;	COMDAT ?GCItemInventoryPutSend@@YAXHEEE@Z
_TEXT	SEGMENT
_pResult$ = -20						; size = 16
__$ArrayPad$ = -4					; size = 4
_aIndex$ = 8						; size = 4
_result$ = 12						; size = 1
_iteminfo1$ = 16					; size = 1
_iteminfo2$ = 20					; size = 1
?GCItemInventoryPutSend@@YAXHEEE@Z PROC			; GCItemInventoryPutSend, COMDAT

; 3264 : {

  00000	55		 push	 ebp
  00001	8b ec		 mov	 ebp, esp
  00003	83 ec 14	 sub	 esp, 20			; 00000014H
  00006	a1 00 00 00 00	 mov	 eax, DWORD PTR ___security_cookie
  0000b	33 c5		 xor	 eax, ebp
  0000d	89 45 fc	 mov	 DWORD PTR __$ArrayPad$[ebp], eax

; 3265 : 	PMSG_ITEMGETRESULT pResult;
; 3266 : 
; 3267 : 	pResult.h.c = 0xC3;
; 3268 : 	pResult.h.headcode = 0x22;
; 3269 : 	pResult.h.size = sizeof(pResult);
; 3270 : 	pResult.result = result;

  00010	8a 45 0c	 mov	 al, BYTE PTR _result$[ebp]

; 3271 : 	pResult.Data[0] = iteminfo1;

  00013	8a 4d 10	 mov	 cl, BYTE PTR _iteminfo1$[ebp]

; 3272 : 	pResult.Data[1] = iteminfo2;

  00016	8a 55 14	 mov	 dl, BYTE PTR _iteminfo2$[ebp]
  00019	88 45 ef	 mov	 BYTE PTR _pResult$[ebp+3], al

; 3273 : 	pResult.h.size -= 2;
; 3274 : 
; 3275 : 	DataSend(aIndex, (UCHAR*)&pResult, pResult.h.size);

  0001c	6a 0e		 push	 14			; 0000000eH
  0001e	8d 45 ec	 lea	 eax, DWORD PTR _pResult$[ebp]
  00021	88 4d f0	 mov	 BYTE PTR _pResult$[ebp+4], cl
  00024	8b 4d 08	 mov	 ecx, DWORD PTR _aIndex$[ebp]
  00027	50		 push	 eax
  00028	51		 push	 ecx
  00029	c6 45 ec c3	 mov	 BYTE PTR _pResult$[ebp], 195 ; 000000c3H
  0002d	88 55 f1	 mov	 BYTE PTR _pResult$[ebp+5], dl
  00030	66 c7 45 ed 0e
	22		 mov	 WORD PTR _pResult$[ebp+1], 8718 ; 0000220eH
  00036	e8 00 00 00 00	 call	 ?DataSend@@YAHHPAEK@Z	; DataSend

; 3276 : }

  0003b	8b 4d fc	 mov	 ecx, DWORD PTR __$ArrayPad$[ebp]
  0003e	33 cd		 xor	 ecx, ebp
  00040	83 c4 0c	 add	 esp, 12			; 0000000cH
  00043	e8 00 00 00 00	 call	 @__security_check_cookie@4
  00048	8b e5		 mov	 esp, ebp
  0004a	5d		 pop	 ebp
  0004b	c3		 ret	 0
?GCItemInventoryPutSend@@YAXHEEE@Z ENDP			; GCItemInventoryPutSend
_TEXT	ENDS
PUBLIC	??_C@_0EM@HPFBFIFH@?$FL?$CFs?$FN?$FL?$CFs?$FN?$FL?$CFd?$FN?$CFd?1?$CFd?5Used?5Fireworks@ ; `string'
PUBLIC	??_C@_0CP@KAEBPCMA@?$FLSnakeBegins?$FN?5?$FL?$CFs?$FN?$FL?$CFs?$FN?5Success?5t@ ; `string'
PUBLIC	??_C@_0EK@IDAEHEED@?$FLKalima?$FN?5?$FL?$CFs?$FN?$FL?$CFs?$FN?5Success?5to?5Mak@ ; `string'
PUBLIC	??_C@_0EF@GOCIBGLO@?$FLHidden?5TreasureBox?5Event?$FN?5?$FL?$CFs?$FN?$FL@ ; `string'
PUBLIC	??_C@_0EM@LPMBPPDG@?$FLHidden?5TreasureBox?5Event?$FN?5?$FL?$CFs?$FN?$FL@ ; `string'
PUBLIC	??_C@_0ED@PDKMNGPH@?$FLHidden?5TreasureBox?5Event?$FN?5?$FL?$CFs?$FN?$FL@ ; `string'
PUBLIC	??_C@_0FC@GOMPGJDH@?$FLHidden?5TreasureBox?5Event?$FN?5?$FL?$CFs?$FN?$FL@ ; `string'
PUBLIC	??_C@_0EA@MFJKFJAM@?$FLANTI?9HACK?$FN?$FLSerial?50?5Item?$FN?5?$FLItem@ ; `string'
PUBLIC	??_C@_04BGCMBJDA@Item?$AA@			; `string'
PUBLIC	??_C@_0M@HHKDDFJH@error?3?$CFs?5?$CFd?$AA@	; `string'
PUBLIC	??_C@_0EF@ILLBNEEI@?$FL?$CFs?$FN?$FL?$CFs?$FN?5CGItemDropRequest?$CI?$CJ?5Fai@ ; `string'
PUBLIC	??_C@_0CG@NFDFKIHI@?$FLFix?5Inv?4Ptr?$FN?5False?5Location?5?9?5?$CF@ ; `string'
PUBLIC	??_C@_0N@ENFKFPKA@protocol?4cpp?$AA@		; `string'
PUBLIC	??_C@_0EJ@FINNND@?$FLANTI?9HACK?$FN?$FLItem?5Duplication?$FN?5?9?5@ ; `string'
PUBLIC	_aIndex$GSCopy$
PUBLIC	_lpMsg$GSCopy$
PUBLIC	__$ArrayPad$
PUBLIC	?CGItemDropRequest@@YAHPAUPMSG_ITEMTHROW@@HH@Z	; CGItemDropRequest
EXTRN	?ItemDrop@MapClass@@QAEHHHMHHEEEEEKHHHEPAEE@Z:PROC ; MapClass::ItemDrop
EXTRN	?procCreate@MonsterSpawnerMng@@QAE_NFH@Z:PROC	; MonsterSpawnerMng::procCreate
EXTRN	?isKeyItem@MonsterSpawnerMng@@QAE_NH@Z:PROC	; MonsterSpawnerMng::isKeyItem
EXTRN	?DropScroll@SnakeBegins@@QAE_NPAUOBJECTSTRUCT@@G@Z:PROC ; SnakeBegins::DropScroll
EXTRN	?g_SnakeBegins@@3VSnakeBegins@@A:BYTE		; g_SnakeBegins
EXTRN	?CreateLifeStone@CLifeStone@@QAEHH@Z:PROC	; CLifeStone::CreateLifeStone
EXTRN	?g_CsNPC_LifeStone@@3VCLifeStone@@A:DWORD	; g_CsNPC_LifeStone
EXTRN	?CreateGuardian@CGuardian@@QAEHH@Z:PROC		; CGuardian::CreateGuardian
EXTRN	?g_CsNPC_Guardian@@3VCGuardian@@A:DWORD		; g_CsNPC_Guardian
EXTRN	?CreateMercenary@CMercenary@@QAEHHHEE@Z:PROC	; CMercenary::CreateMercenary
EXTRN	?g_CsNPC_Mercenary@@3VCMercenary@@A:QWORD	; g_CsNPC_Mercenary
EXTRN	?CreateKalimaGate@CKalimaGate@@QAEHHEEE@Z:PROC	; CKalimaGate::CreateKalimaGate
EXTRN	?g_KalimaGate@@3VCKalimaGate@@A:BYTE		; g_KalimaGate
EXTRN	?MoneyItemDrop@MapClass@@QAEHHHH@Z:PROC		; MapClass::MoneyItemDrop
EXTRN	?MapC@@3PAVMapClass@@A:BYTE			; MapC
EXTRN	?ItemSerialCreateSend@@YAXHEEEHEEEEEHEEEPAE@Z:PROC ; ItemSerialCreateSend
EXTRN	?gObjInventoryDeleteItem@@YAEHH@Z:PROC		; gObjInventoryDeleteItem
EXTRN	?OpenBox@EventItemBagManager@@QAEEHHE@Z:PROC	; EventItemBagManager::OpenBox
EXTRN	?g_EventItemBagManager@@3VEventItemBagManager@@A:BYTE ; g_EventItemBagManager
EXTRN	?LevelSmallConvert@@YAEHH@Z:PROC		; LevelSmallConvert
EXTRN	?SkillChangeUse@CObjUseSkill@@QAEHH@Z:PROC	; CObjUseSkill::SkillChangeUse
EXTRN	?gObjUseSkill@@3VCObjUseSkill@@A:DWORD		; gObjUseSkill
EXTRN	?GCItemListSend@@YAXH@Z:PROC			; GCItemListSend
EXTRN	?gObjInventorySearchSerialNumber@@YAHPAUOBJECTSTRUCT@@K@Z:PROC ; gObjInventorySearchSerialNumber
EXTRN	?GetName@CItem@@QAEPADXZ:PROC			; CItem::GetName
EXTRN	?gObjCheckSerial0ItemList@@YAHPAVCItem@@@Z:PROC	; gObjCheckSerial0ItemList
EXTRN	?GetItemOptionLevel@CJewelOfHarmonySystem@@QAEEPAVCItem@@@Z:PROC ; CJewelOfHarmonySystem::GetItemOptionLevel
EXTRN	?GetItemStrengthenOption@CJewelOfHarmonySystem@@QAEEPAVCItem@@@Z:PROC ; CJewelOfHarmonySystem::GetItemStrengthenOption
EXTRN	?GetItemOptions@CSocketItems@@QAEXPAVCItem@@PAE1@Z:PROC ; CSocketItems::GetItemOptions
EXTRN	?g_SocketItem@@3VCSocketItems@@A:BYTE		; g_SocketItem
EXTRN	?ItemIsBufExOption@@YAXPAEPAVCItem@@@Z:PROC	; ItemIsBufExOption
EXTRN	?g_NewPVP@@3VCNewPVP@@A:BYTE			; g_NewPVP
EXTRN	?IsElementalItem@CElementalSystem@@QAEHH@Z:PROC	; CElementalSystem::IsElementalItem
EXTRN	?g_ElementalSystem@@3VCElementalSystem@@A:BYTE	; g_ElementalSystem
EXTRN	?IsCashSpecialItem@@YAHH@Z:PROC			; IsCashSpecialItem
EXTRN	?IsCashItem@@YAHH@Z:PROC			; IsCashItem
EXTRN	?IsJewelOfHarmonySmeltingItems@CJewelOfHarmonySystem@@QAEHF@Z:PROC ; CJewelOfHarmonySystem::IsJewelOfHarmonySmeltingItems
EXTRN	?IsJewelOfHarmonyPurity@CJewelOfHarmonySystem@@QAEHF@Z:PROC ; CJewelOfHarmonySystem::IsJewelOfHarmonyPurity
EXTRN	?IsJewelOfHarmonyOriginal@CJewelOfHarmonySystem@@QAEHF@Z:PROC ; CJewelOfHarmonySystem::IsJewelOfHarmonyOriginal
EXTRN	?IsStrengthenByJewelOfHarmony@CJewelOfHarmonySystem@@QAEHPAVCItem@@@Z:PROC ; CJewelOfHarmonySystem::IsStrengthenByJewelOfHarmony
EXTRN	?g_kJewelOfHarmonySystem@@3VCJewelOfHarmonySystem@@A:BYTE ; g_kJewelOfHarmonySystem
EXTRN	?IsExtItem@CItem@@QAEHXZ:PROC			; CItem::IsExtItem
EXTRN	?IsSetItem@CItem@@QAEHXZ:PROC			; CItem::IsSetItem
EXTRN	?gPkLimitFree@@3HA:DWORD			; gPkLimitFree
EXTRN	?gObjCanItemTouch@@YAHPAUOBJECTSTRUCT@@H@Z:PROC	; gObjCanItemTouch
EXTRN	?gObjFixInventoryPointer@@YA_NH@Z:PROC		; gObjFixInventoryPointer
;	COMDAT ??_C@_0EM@HPFBFIFH@?$FL?$CFs?$FN?$FL?$CFs?$FN?$FL?$CFd?$FN?$CFd?1?$CFd?5Used?5Fireworks@
; File c:\muserver_dev\development\mu-s8ep2-repack\gameserver\source\snakebegins.h
CONST	SEGMENT
??_C@_0EM@HPFBFIFH@?$FL?$CFs?$FN?$FL?$CFs?$FN?$FL?$CFd?$FN?$CFd?1?$CFd?5Used?5Fireworks@ DB '['
	DB	'%s][%s][%d]%d/%d Used Fireworks:%u (%s:%d/level:%d/skill:%d/o'
	DB	'p2:%d/op3:%d)', 00H				; `string'
CONST	ENDS
;	COMDAT ??_C@_0CP@KAEBPCMA@?$FLSnakeBegins?$FN?5?$FL?$CFs?$FN?$FL?$CFs?$FN?5Success?5t@
CONST	SEGMENT
??_C@_0CP@KAEBPCMA@?$FLSnakeBegins?$FN?5?$FL?$CFs?$FN?$FL?$CFs?$FN?5Success?5t@ DB '['
	DB	'SnakeBegins] [%s][%s] Success to create Snake', 00H ; `string'
CONST	ENDS
;	COMDAT ??_C@_0EK@IDAEHEED@?$FLKalima?$FN?5?$FL?$CFs?$FN?$FL?$CFs?$FN?5Success?5to?5Mak@
CONST	SEGMENT
??_C@_0EK@IDAEHEED@?$FLKalima?$FN?5?$FL?$CFs?$FN?$FL?$CFs?$FN?5Success?5to?5Mak@ DB '['
	DB	'Kalima] [%s][%s] Success to Make Kalima Gate (Lost Kalima Map'
	DB	' Serial:%d)', 00H				; `string'
CONST	ENDS
;	COMDAT ??_C@_0EF@GOCIBGLO@?$FLHidden?5TreasureBox?5Event?$FN?5?$FL?$CFs?$FN?$FL@
CONST	SEGMENT
??_C@_0EF@GOCIBGLO@?$FLHidden?5TreasureBox?5Event?$FN?5?$FL?$CFs?$FN?$FL@ DB '['
	DB	'Hidden TreasureBox Event] [%s][%s] Event ZenDrop : %d : (%d)('
	DB	'%d/%d)', 00H				; `string'
CONST	ENDS
;	COMDAT ??_C@_0EM@LPMBPPDG@?$FLHidden?5TreasureBox?5Event?$FN?5?$FL?$CFs?$FN?$FL@
CONST	SEGMENT
??_C@_0EM@LPMBPPDG@?$FLHidden?5TreasureBox?5Event?$FN?5?$FL?$CFs?$FN?$FL@ DB '['
	DB	'Hidden TreasureBox Event] [%s][%s] Throw Surprise Treasure Bo'
	DB	'x - serial:%d', 00H				; `string'
CONST	ENDS
;	COMDAT ??_C@_0ED@PDKMNGPH@?$FLHidden?5TreasureBox?5Event?$FN?5?$FL?$CFs?$FN?$FL@
CONST	SEGMENT
??_C@_0ED@PDKMNGPH@?$FLHidden?5TreasureBox?5Event?$FN?5?$FL?$CFs?$FN?$FL@ DB '['
	DB	'Hidden TreasureBox Event] [%s][%s] Throw Crystal (%d) - seria'
	DB	'l:%d', 00H					; `string'
CONST	ENDS
;	COMDAT ??_C@_0FC@GOMPGJDH@?$FLHidden?5TreasureBox?5Event?$FN?5?$FL?$CFs?$FN?$FL@
CONST	SEGMENT
??_C@_0FC@GOMPGJDH@?$FLHidden?5TreasureBox?5Event?$FN?5?$FL?$CFs?$FN?$FL@ DB '['
	DB	'Hidden TreasureBox Event] [%s][%s] Throw Mysterious Bead : Dr'
	DB	'op (%d) - serial:%d', 00H			; `string'
CONST	ENDS
;	COMDAT ??_C@_0EA@MFJKFJAM@?$FLANTI?9HACK?$FN?$FLSerial?50?5Item?$FN?5?$FLItem@
CONST	SEGMENT
??_C@_0EA@MFJKFJAM@?$FLANTI?9HACK?$FN?$FLSerial?50?5Item?$FN?5?$FLItem@ DB '['
	DB	'ANTI-HACK][Serial 0 Item] [ItemDrop] (%s)(%s) Item(%s) Pos(%d'
	DB	')', 00H					; `string'
CONST	ENDS
;	COMDAT ??_C@_04BGCMBJDA@Item?$AA@
CONST	SEGMENT
??_C@_04BGCMBJDA@Item?$AA@ DB 'Item', 00H		; `string'
CONST	ENDS
;	COMDAT ??_C@_0M@HHKDDFJH@error?3?$CFs?5?$CFd?$AA@
CONST	SEGMENT
??_C@_0M@HHKDDFJH@error?3?$CFs?5?$CFd?$AA@ DB 'error:%s %d', 00H ; `string'
CONST	ENDS
;	COMDAT ??_C@_0EF@ILLBNEEI@?$FL?$CFs?$FN?$FL?$CFs?$FN?5CGItemDropRequest?$CI?$CJ?5Fai@
CONST	SEGMENT
??_C@_0EF@ILLBNEEI@?$FL?$CFs?$FN?$FL?$CFs?$FN?5CGItemDropRequest?$CI?$CJ?5Fai@ DB '['
	DB	'%s][%s] CGItemDropRequest() Failed : Transaction == 1, IF_TYP'
	DB	'E : %d', 00H				; `string'
CONST	ENDS
;	COMDAT ??_C@_0CG@NFDFKIHI@?$FLFix?5Inv?4Ptr?$FN?5False?5Location?5?9?5?$CF@
CONST	SEGMENT
??_C@_0CG@NFDFKIHI@?$FLFix?5Inv?4Ptr?$FN?5False?5Location?5?9?5?$CF@ DB '['
	DB	'Fix Inv.Ptr] False Location - %s, %d', 00H	; `string'
CONST	ENDS
;	COMDAT ??_C@_0N@ENFKFPKA@protocol?4cpp?$AA@
CONST	SEGMENT
??_C@_0N@ENFKFPKA@protocol?4cpp?$AA@ DB 'protocol.cpp', 00H ; `string'
CONST	ENDS
;	COMDAT ??_C@_0EJ@FINNND@?$FLANTI?9HACK?$FN?$FLItem?5Duplication?$FN?5?9?5@
CONST	SEGMENT
??_C@_0EJ@FINNND@?$FLANTI?9HACK?$FN?$FLItem?5Duplication?$FN?5?9?5@ DB '['
	DB	'ANTI-HACK][Item Duplication] - Item Drop during MapServer Mov'
	DB	'e [%s][%s]', 00H				; `string'
; Function compile flags: /Ogtp
; File c:\muserver_dev\development\mu-s8ep2-repack\gameserver\source\protocol.cpp
CONST	ENDS
;	COMDAT ?CGItemDropRequest@@YAHPAUPMSG_ITEMTHROW@@HH@Z
_TEXT	SEGMENT
_PetExp$218651 = -192					; size = 4
_PetLevel$218650 = -188					; size = 4
_SocketBonus$218655 = -184				; size = 1
tv1739 = -180						; size = 4
_NOption$218648 = -176					; size = 1
_bIsItem$218644 = -172					; size = 4
_lpMsg$GSCopy$ = -168					; size = 4
_serial2$218656 = -164					; size = 4
tv1696 = -160						; size = 4
_CopyItem$ = -156					; size = 4
_SOption$218652 = -152					; size = 1
_dur$218643 = -148					; size = 4
_btItemEffectEx$218653 = -144				; size = 1
_Option1$218645 = -140					; size = 1
_Option3$218647 = -136					; size = 1
_Option2$218646 = -132					; size = 1
_serial$218649 = -128					; size = 4
_ServerCmd$218694 = -124				; size = 7
_ServerCmd$218673 = -124				; size = 7
_map$218640 = -124					; size = 4
_JOHOption$218659 = -113				; size = 1
_level$218642 = -112					; size = 4
_JOHOptionLevel$218660 = -105				; size = 1
_aIndex$GSCopy$ = -104					; size = 4
_pResult$ = -100					; size = 5
_pChange$218756 = -92					; size = 17
_szItemName$218657 = -72				; size = 50
_SocketOptions$218654 = -20				; size = 5
_NewOption$ = -12					; size = 8
__$ArrayPad$ = -4					; size = 4
_lpMsg$ = 8						; size = 4
_aIndex$ = 12						; size = 4
_drop_type$ = 16					; size = 4
?CGItemDropRequest@@YAHPAUPMSG_ITEMTHROW@@HH@Z PROC	; CGItemDropRequest, COMDAT

; 4043 : {

  00000	55		 push	 ebp
  00001	8b ec		 mov	 ebp, esp
  00003	81 ec c0 00 00
	00		 sub	 esp, 192		; 000000c0H
  00009	a1 00 00 00 00	 mov	 eax, DWORD PTR ___security_cookie
  0000e	33 c5		 xor	 eax, ebp
  00010	89 45 fc	 mov	 DWORD PTR __$ArrayPad$[ebp], eax

; 4044 : 	BOOL CopyItem = FALSE;
; 4045 : 	BYTE NewOption[MAX_EXOPTION_SIZE];
; 4046 : 
; 4047 : 	if ( !PacketCheckTime(&gObj[aIndex]))

  00013	a1 00 00 00 00	 mov	 eax, DWORD PTR ?gObj@@3PAUOBJECTSTRUCT@@A ; gObj
  00018	53		 push	 ebx
  00019	8b 5d 0c	 mov	 ebx, DWORD PTR _aIndex$[ebp]
  0001c	56		 push	 esi
  0001d	8b 75 08	 mov	 esi, DWORD PTR _lpMsg$[ebp]
  00020	57		 push	 edi
  00021	8b fb		 mov	 edi, ebx
  00023	69 ff 40 27 00
	00		 imul	 edi, 10048		; 00002740H
  00029	8d 0c 07	 lea	 ecx, DWORD PTR [edi+eax]
  0002c	51		 push	 ecx

; 4586 : 			}
; 4587 : 
; 4588 : 
; 4589 : 			::gObjMakePreviewCharSet(aIndex);

  0002d	89 b5 58 ff ff
	ff		 mov	 DWORD PTR _lpMsg$GSCopy$[ebp], esi
  00033	89 5d 98	 mov	 DWORD PTR _aIndex$GSCopy$[ebp], ebx
  00036	c7 85 64 ff ff
	ff 00 00 00 00	 mov	 DWORD PTR _CopyItem$[ebp], 0
  00040	89 bd 60 ff ff
	ff		 mov	 DWORD PTR tv1696[ebp], edi
  00046	e8 00 00 00 00	 call	 ?PacketCheckTime@@YAHPAUOBJECTSTRUCT@@@Z ; PacketCheckTime
  0004b	83 c4 04	 add	 esp, 4
  0004e	85 c0		 test	 eax, eax
  00050	0f 84 cb 00 00
	00		 je	 $LN129@CGItemDrop

; 4048 : 		return FALSE;
; 4049 : 
; 4050 : 	PMSG_ITEMTHROW_RESULT pResult;
; 4051 : 
; 4052 : 	PHeadSetB((LPBYTE)&pResult, 0x23, sizeof(pResult));

  00056	6a 05		 push	 5
  00058	8d 55 9c	 lea	 edx, DWORD PTR _pResult$[ebp]
  0005b	6a 23		 push	 35			; 00000023H
  0005d	52		 push	 edx
  0005e	e8 00 00 00 00	 call	 ?PHeadSetB@@YAXPAEEH@Z	; PHeadSetB

; 4053 : 	pResult.Result = true;
; 4054 : 	pResult.Ipos = lpMsg->Ipos;

  00063	8a 46 05	 mov	 al, BYTE PTR [esi+5]
  00066	88 45 a0	 mov	 BYTE PTR _pResult$[ebp+4], al

; 4055 : 
; 4056 : 	if ( gObj[aIndex].m_IfState.use != 0 )

  00069	a1 00 00 00 00	 mov	 eax, DWORD PTR ?gObj@@3PAUOBJECTSTRUCT@@A ; gObj
  0006e	c6 45 9f 01	 mov	 BYTE PTR _pResult$[ebp+3], 1
  00072	8b 8c 07 b8 11
	00 00		 mov	 ecx, DWORD PTR [edi+eax+4536]
  00079	83 c4 0c	 add	 esp, 12			; 0000000cH
  0007c	f6 c1 03	 test	 cl, 3
  0007f	74 12		 je	 SHORT $LN109@CGItemDrop

; 4057 : 	{
; 4058 : 		if ( gObj[aIndex].m_IfState.type != 3 )

  00081	81 e1 c0 ff 00
	00		 and	 ecx, 65472		; 0000ffc0H
  00087	81 f9 c0 00 00
	00		 cmp	 ecx, 192		; 000000c0H

; 4059 : 		{
; 4060 : 			pResult.Result = false;
; 4061 : 			return FALSE;

  0008d	0f 85 8e 00 00
	00		 jne	 $LN129@CGItemDrop
$LN109@CGItemDrop:

; 4062 : 		}
; 4063 : 	}
; 4064 : 
; 4065 : 	if ( gObj[aIndex].CloseType != -1 )

  00093	80 7c 07 0d ff	 cmp	 BYTE PTR [edi+eax+13], -1
  00098	74 04		 je	 SHORT $LN108@CGItemDrop

; 4066 : 		pResult.Result = false;

  0009a	c6 45 9f 00	 mov	 BYTE PTR _pResult$[ebp+3], 0
$LN108@CGItemDrop:

; 4067 : 
; 4068 : 	if ( gObj[aIndex].m_bMapSvrMoveQuit == true )

  0009e	80 bc 07 3c 20
	00 00 01	 cmp	 BYTE PTR [edi+eax+8252], 1
  000a6	75 1c		 jne	 SHORT $LN107@CGItemDrop

; 4069 : 	{
; 4070 : 		LogAddTD("[ANTI-HACK][Item Duplication] - Item Drop during MapServer Move [%s][%s]",
; 4071 : 			gObj[aIndex].AccountID, gObj[aIndex].Name);

  000a8	8d 4c 07 5d	 lea	 ecx, DWORD PTR [edi+eax+93]
  000ac	51		 push	 ecx
  000ad	8d 54 07 52	 lea	 edx, DWORD PTR [edi+eax+82]
  000b1	52		 push	 edx
  000b2	68 00 00 00 00	 push	 OFFSET ??_C@_0EJ@FINNND@?$FLANTI?9HACK?$FN?$FLItem?5Duplication?$FN?5?9?5@
  000b7	ff 15 00 00 00
	00		 call	 DWORD PTR ?LogAddTD@@3P6AXPADZZA ; LogAddTD
  000bd	83 c4 0c	 add	 esp, 12			; 0000000cH

; 4072 : 		pResult.Result = false;

  000c0	c6 45 9f 00	 mov	 BYTE PTR _pResult$[ebp+3], 0
$LN107@CGItemDrop:

; 4073 : 	}
; 4074 : 
; 4075 : 
; 4076 : 	if ( !::gObjFixInventoryPointer(aIndex))

  000c4	53		 push	 ebx
  000c5	e8 00 00 00 00	 call	 ?gObjFixInventoryPointer@@YA_NH@Z ; gObjFixInventoryPointer
  000ca	83 c4 04	 add	 esp, 4
  000cd	84 c0		 test	 al, al
  000cf	75 18		 jne	 SHORT $LN106@CGItemDrop

; 4077 : 		LogAdd("[Fix Inv.Ptr] False Location - %s, %d", __FILE__, __LINE__);

  000d1	68 ed 0f 00 00	 push	 4077			; 00000fedH
  000d6	68 00 00 00 00	 push	 OFFSET ??_C@_0N@ENFKFPKA@protocol?4cpp?$AA@
  000db	68 00 00 00 00	 push	 OFFSET ??_C@_0CG@NFDFKIHI@?$FLFix?5Inv?4Ptr?$FN?5False?5Location?5?9?5?$CF@
  000e0	ff 15 00 00 00
	00		 call	 DWORD PTR ?LogAdd@@3P6AXPADZZA ; LogAdd
  000e6	83 c4 0c	 add	 esp, 12			; 0000000cH
$LN106@CGItemDrop:

; 4078 : 
; 4079 : 	if ( gObj[aIndex].pTransaction == 1 )

  000e9	a1 00 00 00 00	 mov	 eax, DWORD PTR ?gObj@@3PAUOBJECTSTRUCT@@A ; gObj
  000ee	80 bc 07 cc 11
	00 00 01	 cmp	 BYTE PTR [edi+eax+4556], 1
  000f6	8d 1c 07	 lea	 ebx, DWORD PTR [edi+eax]
  000f9	75 39		 jne	 SHORT $LN105@CGItemDrop

; 4080 : 	{
; 4081 : 		LogAddTD("[%s][%s] CGItemDropRequest() Failed : Transaction == 1, IF_TYPE : %d",
; 4082 : 			gObj[aIndex].AccountID, gObj[aIndex].Name, gObj[aIndex].m_IfState.type);

  000fb	8b 8b b8 11 00
	00		 mov	 ecx, DWORD PTR [ebx+4536]
  00101	c1 e9 06	 shr	 ecx, 6
  00104	81 e1 ff 03 00
	00		 and	 ecx, 1023		; 000003ffH
  0010a	51		 push	 ecx
  0010b	8d 53 5d	 lea	 edx, DWORD PTR [ebx+93]
  0010e	52		 push	 edx
  0010f	83 c3 52	 add	 ebx, 82			; 00000052H
  00112	53		 push	 ebx
  00113	68 00 00 00 00	 push	 OFFSET ??_C@_0EF@ILLBNEEI@?$FL?$CFs?$FN?$FL?$CFs?$FN?5CGItemDropRequest?$CI?$CJ?5Fai@
  00118	ff 15 00 00 00
	00		 call	 DWORD PTR ?LogAddTD@@3P6AXPADZZA ; LogAddTD
  0011e	83 c4 10	 add	 esp, 16			; 00000010H
$LN129@CGItemDrop:

; 4083 : 		pResult.Result = false;
; 4084 : 		
; 4085 : 		return false;

  00121	33 c0		 xor	 eax, eax

; 4606 : }

  00123	5f		 pop	 edi
  00124	5e		 pop	 esi
  00125	5b		 pop	 ebx
  00126	8b 4d fc	 mov	 ecx, DWORD PTR __$ArrayPad$[ebp]
  00129	33 cd		 xor	 ecx, ebp
  0012b	e8 00 00 00 00	 call	 @__security_check_cookie@4
  00130	8b e5		 mov	 esp, ebp
  00132	5d		 pop	 ebp
  00133	c3		 ret	 0
$LN105@CGItemDrop:

; 4086 : 	}
; 4087 : 
; 4088 : 	LPOBJ lpObj = &gObj[aIndex];
; 4089 : 
; 4090 : 	if ( lpMsg->Ipos == 0xFF )	// Null Position

  00134	80 7e 05 ff	 cmp	 BYTE PTR [esi+5], 255	; 000000ffH
  00138	75 1c		 jne	 SHORT $LN104@CGItemDrop

; 4091 : 	{
; 4092 : 		LogAdd("error:%s %d", __FILE__, __LINE__);

  0013a	68 fc 0f 00 00	 push	 4092			; 00000ffcH
  0013f	68 00 00 00 00	 push	 OFFSET ??_C@_0N@ENFKFPKA@protocol?4cpp?$AA@
  00144	68 00 00 00 00	 push	 OFFSET ??_C@_0M@HHKDDFJH@error?3?$CFs?5?$CFd?$AA@
  00149	ff 15 00 00 00
	00		 call	 DWORD PTR ?LogAdd@@3P6AXPADZZA ; LogAdd
  0014f	83 c4 0c	 add	 esp, 12			; 0000000cH

; 4093 : 		pResult.Result = false;

  00152	c6 45 9f 00	 mov	 BYTE PTR _pResult$[ebp+3], 0
$LN104@CGItemDrop:

; 4094 : 	}
; 4095 : 
; 4096 : 	if ( lpMsg->Ipos < 0 || lpMsg->Ipos > MAIN_INVENTORY_SIZE-1)	// Out of Bounds

  00156	80 7e 05 cb	 cmp	 BYTE PTR [esi+5], 203	; 000000cbH
  0015a	76 04		 jbe	 SHORT $LN103@CGItemDrop

; 4097 : 		pResult.Result = false;

  0015c	c6 45 9f 00	 mov	 BYTE PTR _pResult$[ebp+3], 0
$LN103@CGItemDrop:

; 4098 : 
; 4099 : 	if (!::gObjCanItemTouch(lpObj, 0))

  00160	6a 00		 push	 0
  00162	53		 push	 ebx
  00163	e8 00 00 00 00	 call	 ?gObjCanItemTouch@@YAHPAUOBJECTSTRUCT@@H@Z ; gObjCanItemTouch
  00168	83 c4 08	 add	 esp, 8
  0016b	85 c0		 test	 eax, eax
  0016d	75 03		 jne	 SHORT $LN101@CGItemDrop

; 4100 : 		pResult.Result = false;

  0016f	88 45 9f	 mov	 BYTE PTR _pResult$[ebp+3], al
$LN101@CGItemDrop:

; 4101 : 
; 4102 : 	// Icarus Preventions about Dinorant
; 4103 : 	if ( gObj[aIndex].MapNumber == MAP_INDEX_ICARUS)

  00172	a1 00 00 00 00	 mov	 eax, DWORD PTR ?gObj@@3PAUOBJECTSTRUCT@@A ; gObj
  00177	80 bc 07 23 01
	00 00 0a	 cmp	 BYTE PTR [edi+eax+291], 10 ; 0000000aH
  0017f	75 48		 jne	 SHORT $LN94@CGItemDrop

; 4104 : 	{
; 4105 : 		if ( lpMsg->Ipos == 8 )

  00181	8a 46 05	 mov	 al, BYTE PTR [esi+5]
  00184	3c 08		 cmp	 al, 8
  00186	75 25		 jne	 SHORT $LN99@CGItemDrop

; 4106 : 		{
; 4107 : 			if ( lpObj->pInventory[lpMsg->Ipos].m_Type == ITEMGET(13,3) ) // Dinorant

  00188	8b 83 c0 11 00
	00		 mov	 eax, DWORD PTR [ebx+4544]
  0018e	b9 03 1a 00 00	 mov	 ecx, 6659		; 00001a03H
  00193	66 39 88 a6 06
	00 00		 cmp	 WORD PTR [eax+1702], cx
  0019a	75 2d		 jne	 SHORT $LN94@CGItemDrop

; 4108 : 			{
; 4109 : 				if( lpObj->pInventory[7].IsItem() == FALSE )

  0019c	8d 88 cc 05 00
	00		 lea	 ecx, DWORD PTR [eax+1484]
  001a2	e8 00 00 00 00	 call	 ?IsItem@CItem@@QAEHXZ	; CItem::IsItem
  001a7	85 c0		 test	 eax, eax
  001a9	75 1e		 jne	 SHORT $LN94@CGItemDrop

; 4110 : 				{
; 4111 : 					pResult.Result = false;
; 4112 : 				}
; 4113 : 			}
; 4114 : 		}

  001ab	eb 18		 jmp	 SHORT $LN127@CGItemDrop
$LN99@CGItemDrop:

; 4115 : 		else if ( lpMsg->Ipos == 7 )

  001ad	3c 07		 cmp	 al, 7
  001af	75 18		 jne	 SHORT $LN94@CGItemDrop

; 4116 : 		{
; 4117 : 			if ( lpObj->pInventory[8].m_Type != ITEMGET(13,3) ) // Dinorant 

  001b1	8b 93 c0 11 00
	00		 mov	 edx, DWORD PTR [ebx+4544]
  001b7	b8 03 1a 00 00	 mov	 eax, 6659		; 00001a03H
  001bc	66 39 82 a6 06
	00 00		 cmp	 WORD PTR [edx+1702], ax
  001c3	74 04		 je	 SHORT $LN94@CGItemDrop
$LN127@CGItemDrop:

; 4118 : 			{
; 4119 : 				pResult.Result = false;

  001c5	c6 45 9f 00	 mov	 BYTE PTR _pResult$[ebp+3], 0
$LN94@CGItemDrop:

; 4120 : 			}
; 4121 : 		}
; 4122 : 	}
; 4123 : 
; 4124 : 	if ( lpObj->pInventory[lpMsg->Ipos].m_Type == ITEMGET(12,30) ||
; 4125 : 		 lpObj->pInventory[lpMsg->Ipos].m_Type == ITEMGET(12,31) ||
; 4126 : 		 lpObj->pInventory[lpMsg->Ipos].m_Type == ITEMGET(13,36) ||
; 4127 : 		 lpObj->pInventory[lpMsg->Ipos].m_Type == ITEMGET(13,37) )

  001c9	0f b6 7e 05	 movzx	 edi, BYTE PTR [esi+5]
  001cd	8b 8b c0 11 00
	00		 mov	 ecx, DWORD PTR [ebx+4544]
  001d3	69 ff d4 00 00
	00		 imul	 edi, 212		; 000000d4H
  001d9	0f b7 44 0f 06	 movzx	 eax, WORD PTR [edi+ecx+6]
  001de	ba 1e 18 00 00	 mov	 edx, 6174		; 0000181eH
  001e3	66 3b c2	 cmp	 ax, dx
  001e6	74 1e		 je	 SHORT $LN92@CGItemDrop
  001e8	b9 1f 18 00 00	 mov	 ecx, 6175		; 0000181fH
  001ed	66 3b c1	 cmp	 ax, cx
  001f0	74 14		 je	 SHORT $LN92@CGItemDrop
  001f2	ba 24 1a 00 00	 mov	 edx, 6692		; 00001a24H
  001f7	66 3b c2	 cmp	 ax, dx
  001fa	74 0a		 je	 SHORT $LN92@CGItemDrop
  001fc	b9 25 1a 00 00	 mov	 ecx, 6693		; 00001a25H
  00201	66 3b c1	 cmp	 ax, cx
  00204	75 04		 jne	 SHORT $LN93@CGItemDrop
$LN92@CGItemDrop:

; 4128 : 	{
; 4129 : 		pResult.Result = false;

  00206	c6 45 9f 00	 mov	 BYTE PTR _pResult$[ebp+3], 0
$LN93@CGItemDrop:

; 4130 : 	}
; 4131 : 
; 4132 : 	if ( lpObj->pInventory[lpMsg->Ipos].m_Type == ITEMGET(13,42) )

  0020a	8b 93 c0 11 00
	00		 mov	 edx, DWORD PTR [ebx+4544]
  00210	b8 2a 1a 00 00	 mov	 eax, 6698		; 00001a2aH
  00215	66 39 44 17 06	 cmp	 WORD PTR [edi+edx+6], ax
  0021a	75 04		 jne	 SHORT $LN91@CGItemDrop

; 4133 : 	{
; 4134 : 		pResult.Result = false;

  0021c	c6 45 9f 00	 mov	 BYTE PTR _pResult$[ebp+3], 0
$LN91@CGItemDrop:

; 4135 : 	}
; 4136 : 
; 4137 : 	if ( IT_MAP_RANGE( lpObj->MapNumber ) )

  00220	0f b6 83 23 01
	00 00		 movzx	 eax, BYTE PTR [ebx+291]
  00227	3c 2d		 cmp	 al, 45			; 0000002dH
  00229	72 1f		 jb	 SHORT $LN126@CGItemDrop
  0022b	b1 32		 mov	 cl, 50			; 00000032H
  0022d	3a c8		 cmp	 cl, al
  0022f	1b c0		 sbb	 eax, eax
  00231	40		 inc	 eax
  00232	74 16		 je	 SHORT $LN126@CGItemDrop

; 4138 : 	{
; 4139 : 		if( lpObj->pInventory[lpMsg->Ipos].m_Type == ITEMGET(13,51) )

  00234	8b 93 c0 11 00
	00		 mov	 edx, DWORD PTR [ebx+4544]
  0023a	b8 33 1a 00 00	 mov	 eax, 6707		; 00001a33H
  0023f	66 39 44 17 06	 cmp	 WORD PTR [edi+edx+6], ax
  00244	75 04		 jne	 SHORT $LN126@CGItemDrop

; 4140 : 		{
; 4141 : 			pResult.Result = false;

  00246	c6 45 9f 00	 mov	 BYTE PTR _pResult$[ebp+3], 0
$LN126@CGItemDrop:

; 4142 : 		}
; 4143 : 	}
; 4144 : 
; 4145 : 	if ( lpObj->pInventory[lpMsg->Ipos].m_Type == ITEMGET(14,64) )

  0024a	8b 8b c0 11 00
	00		 mov	 ecx, DWORD PTR [ebx+4544]
  00250	ba 40 1c 00 00	 mov	 edx, 7232		; 00001c40H
  00255	66 39 54 0f 06	 cmp	 WORD PTR [edi+ecx+6], dx
  0025a	75 04		 jne	 SHORT $LN88@CGItemDrop

; 4146 : 	{
; 4147 : 		pResult.Result = false;

  0025c	c6 45 9f 00	 mov	 BYTE PTR _pResult$[ebp+3], 0
$LN88@CGItemDrop:

; 4148 : 	}
; 4149 : 
; 4150 : 	if ( lpObj->pInventory[lpMsg->Ipos].m_Type >= ITEMGET(12,36) &&
; 4151 : 		 lpObj->pInventory[lpMsg->Ipos].m_Type <= ITEMGET(12,40) )

  00260	8b 83 c0 11 00
	00		 mov	 eax, DWORD PTR [ebx+4544]
  00266	0f b7 44 07 06	 movzx	 eax, WORD PTR [edi+eax+6]
  0026b	8b 15 00 00 00
	00		 mov	 edx, DWORD PTR ?gPkLimitFree@@3HA ; gPkLimitFree
  00271	b9 24 18 00 00	 mov	 ecx, 6180		; 00001824H
  00276	66 3b c1	 cmp	 ax, cx
  00279	7c 11		 jl	 SHORT $LN86@CGItemDrop
  0027b	b9 28 18 00 00	 mov	 ecx, 6184		; 00001828H
  00280	66 3b c1	 cmp	 ax, cx
  00283	7f 07		 jg	 SHORT $LN86@CGItemDrop

; 4152 : 	{
; 4153 : 		if ( gPkLimitFree == FALSE )

  00285	85 d2		 test	 edx, edx
  00287	75 03		 jne	 SHORT $LN86@CGItemDrop

; 4154 : 		{
; 4155 : 			pResult.Result = false;

  00289	88 55 9f	 mov	 BYTE PTR _pResult$[ebp+3], dl
$LN86@CGItemDrop:

; 4156 : 		}
; 4157 : 	}
; 4158 : 
; 4159 : 	if ( lpObj->pInventory[lpMsg->Ipos].m_Type == ITEMGET(12,49) ||
; 4160 : 		 lpObj->pInventory[lpMsg->Ipos].m_Type == ITEMGET(12,50) )

  0028c	8b 83 c0 11 00
	00		 mov	 eax, DWORD PTR [ebx+4544]
  00292	0f b7 44 07 06	 movzx	 eax, WORD PTR [edi+eax+6]
  00297	b9 31 18 00 00	 mov	 ecx, 6193		; 00001831H
  0029c	66 3b c1	 cmp	 ax, cx
  0029f	74 0a		 je	 SHORT $LN84@CGItemDrop
  002a1	b9 32 18 00 00	 mov	 ecx, 6194		; 00001832H
  002a6	66 3b c1	 cmp	 ax, cx
  002a9	75 07		 jne	 SHORT $LN83@CGItemDrop
$LN84@CGItemDrop:

; 4161 : 	{
; 4162 : 		if ( gPkLimitFree == FALSE )

  002ab	85 d2		 test	 edx, edx
  002ad	75 03		 jne	 SHORT $LN83@CGItemDrop

; 4163 : 		{
; 4164 : 			pResult.Result = false;

  002af	88 55 9f	 mov	 BYTE PTR _pResult$[ebp+3], dl
$LN83@CGItemDrop:

; 4165 : 		}
; 4166 : 	}
; 4167 : 
; 4168 : 	if ( lpObj->pInventory[lpMsg->Ipos].m_Type >= ITEMGET(12,130) &&
; 4169 : 		 lpObj->pInventory[lpMsg->Ipos].m_Type <= ITEMGET(12,135) )

  002b2	8b 83 c0 11 00
	00		 mov	 eax, DWORD PTR [ebx+4544]
  002b8	0f b7 44 07 06	 movzx	 eax, WORD PTR [edi+eax+6]
  002bd	b9 82 18 00 00	 mov	 ecx, 6274		; 00001882H
  002c2	66 3b c1	 cmp	 ax, cx
  002c5	7c 11		 jl	 SHORT $LN81@CGItemDrop
  002c7	b9 87 18 00 00	 mov	 ecx, 6279		; 00001887H
  002cc	66 3b c1	 cmp	 ax, cx
  002cf	7f 07		 jg	 SHORT $LN81@CGItemDrop

; 4170 : 	{
; 4171 : 		if ( gPkLimitFree == FALSE )

  002d1	85 d2		 test	 edx, edx
  002d3	75 03		 jne	 SHORT $LN81@CGItemDrop

; 4172 : 		{
; 4173 : 			pResult.Result = false;

  002d5	88 55 9f	 mov	 BYTE PTR _pResult$[ebp+3], dl
$LN81@CGItemDrop:

; 4174 : 		}
; 4175 : 	}
; 4176 : 
; 4177 : 	if ( lpObj->pInventory[lpMsg->Ipos].m_Type >= ITEMGET(12,262) &&
; 4178 : 		 lpObj->pInventory[lpMsg->Ipos].m_Type <= ITEMGET(12,267) )

  002d8	8b 83 c0 11 00
	00		 mov	 eax, DWORD PTR [ebx+4544]
  002de	0f b7 44 07 06	 movzx	 eax, WORD PTR [edi+eax+6]
  002e3	b9 06 19 00 00	 mov	 ecx, 6406		; 00001906H
  002e8	66 3b c1	 cmp	 ax, cx
  002eb	7c 11		 jl	 SHORT $LN79@CGItemDrop
  002ed	b9 0b 19 00 00	 mov	 ecx, 6411		; 0000190bH
  002f2	66 3b c1	 cmp	 ax, cx
  002f5	7f 07		 jg	 SHORT $LN79@CGItemDrop

; 4179 : 	{
; 4180 : 		if ( gPkLimitFree == FALSE )

  002f7	85 d2		 test	 edx, edx
  002f9	75 03		 jne	 SHORT $LN79@CGItemDrop

; 4181 : 		{
; 4182 : 			pResult.Result = false;

  002fb	88 55 9f	 mov	 BYTE PTR _pResult$[ebp+3], dl
$LN79@CGItemDrop:

; 4183 : 		}
; 4184 : 	}
; 4185 : 
; 4186 : 
; 4187 : #if (CUSTOM_WINGS == 1)
; 4188 : 
; 4189 : 	if ( lpObj->pInventory[lpMsg->Ipos].m_Type >= ITEMGET(12,440) &&
; 4190 : 		 lpObj->pInventory[lpMsg->Ipos].m_Type <= ITEMGET(12,445) )
; 4191 : 	{
; 4192 : 		if ( gPkLimitFree == FALSE )
; 4193 : 		{
; 4194 : 			pResult.Result = false;
; 4195 : 		}
; 4196 : 	}
; 4197 : 
; 4198 : #endif
; 4199 : 
; 4200 : 	if ( lpObj->pInventory[lpMsg->Ipos].m_Type == ITEMGET(13,52) ||
; 4201 : 		 lpObj->pInventory[lpMsg->Ipos].m_Type == ITEMGET(13,53) )

  002fe	8b 83 c0 11 00
	00		 mov	 eax, DWORD PTR [ebx+4544]
  00304	0f b7 44 07 06	 movzx	 eax, WORD PTR [edi+eax+6]
  00309	b9 34 1a 00 00	 mov	 ecx, 6708		; 00001a34H
  0030e	66 3b c1	 cmp	 ax, cx
  00311	74 0a		 je	 SHORT $LN77@CGItemDrop
  00313	b9 35 1a 00 00	 mov	 ecx, 6709		; 00001a35H
  00318	66 3b c1	 cmp	 ax, cx
  0031b	75 04		 jne	 SHORT $LN78@CGItemDrop
$LN77@CGItemDrop:

; 4202 : 	{
; 4203 : 		pResult.Result = false;

  0031d	c6 45 9f 00	 mov	 BYTE PTR _pResult$[ebp+3], 0
$LN78@CGItemDrop:

; 4204 : 	}
; 4205 : 
; 4206 : 	if (	lpObj->pInventory[lpMsg->Ipos].m_Type == ITEMGET(14,13) 
; 4207 : 		||	lpObj->pInventory[lpMsg->Ipos].m_Type == ITEMGET(14,14) 
; 4208 : 		||	lpObj->pInventory[lpMsg->Ipos].m_Type == ITEMGET(14,16)
; 4209 : 		||	(lpObj->pInventory[lpMsg->Ipos].m_Type >= ITEMGET(12,0) && lpObj->pInventory[lpMsg->Ipos].m_Type <= ITEMGET(12,6)) 
; 4210 : 		||	lpObj->pInventory[lpMsg->Ipos].m_Type == ITEMGET(12,15) 
; 4211 : 		||	(lpObj->pInventory[lpMsg->Ipos].m_Level >= 7  && lpObj->pInventory[lpMsg->Ipos].m_Type < ITEMGET(12,0)) 
; 4212 : 		||	lpObj->pInventory[lpMsg->Ipos].IsSetItem() != FALSE 
; 4213 : 		||	lpObj->pInventory[lpMsg->Ipos].IsExtItem() != FALSE
; 4214 : 		||	lpObj->pInventory[lpMsg->Ipos].m_Type == ITEMGET(13,14)
; 4215 : 		||	lpObj->pInventory[lpMsg->Ipos].m_Type == ITEMGET(13,19)
; 4216 : 		||	lpObj->pInventory[lpMsg->Ipos].m_Type == ITEMGET(13,15) 
; 4217 : 		||	lpObj->pInventory[lpMsg->Ipos].m_Type == ITEMGET(13,34) 
; 4218 : 		||	lpObj->pInventory[lpMsg->Ipos].m_Type == ITEMGET(14,31)
; 4219 : 		||	lpObj->pInventory[lpMsg->Ipos].m_Type == ITEMGET(14,41)
; 4220 : 		||	lpObj->pInventory[lpMsg->Ipos].m_Type == ITEMGET(14,42)
; 4221 : 		||	lpObj->pInventory[lpMsg->Ipos].m_Type == ITEMGET(14,43) 
; 4222 : 		||	lpObj->pInventory[lpMsg->Ipos].m_Type == ITEMGET(14,44) 
; 4223 : 		||	lpObj->pInventory[lpMsg->Ipos].m_Type == ITEMGET(12,41)
; 4224 : 		||	lpObj->pInventory[lpMsg->Ipos].m_Type == ITEMGET(12,42)
; 4225 : 		||	lpObj->pInventory[lpMsg->Ipos].m_Type == ITEMGET(12,43) )

  00321	8b 83 c0 11 00
	00		 mov	 eax, DWORD PTR [ebx+4544]
  00327	8d 0c 07	 lea	 ecx, DWORD PTR [edi+eax]
