; Listing generated by Microsoft (R) Optimizing Compiler Version 16.00.40219.01 

	TITLE	C:\muserver_dev\development\MU-S8EP2-Repack\GameServer\Source\RaklionBattleOfSelupan.cpp
	.686P
	.XMM
	include listing.inc
	.model	flat

INCLUDELIB LIBCMT
INCLUDELIB OLDNAMES

PUBLIC	?BLOCKSIZE@?$FixedBlockSize@$07@CryptoPP@@2HB	; CryptoPP::FixedBlockSize<8>::BLOCKSIZE
PUBLIC	?KEYLENGTH@?$FixedKeyLength@$07$03$0A@@CryptoPP@@2HB ; CryptoPP::FixedKeyLength<8,4,0>::KEYLENGTH
PUBLIC	?MIN_KEYLENGTH@?$FixedKeyLength@$07$03$0A@@CryptoPP@@2HB ; CryptoPP::FixedKeyLength<8,4,0>::MIN_KEYLENGTH
PUBLIC	?MAX_KEYLENGTH@?$FixedKeyLength@$07$03$0A@@CryptoPP@@2HB ; CryptoPP::FixedKeyLength<8,4,0>::MAX_KEYLENGTH
PUBLIC	?DEFAULT_KEYLENGTH@?$FixedKeyLength@$07$03$0A@@CryptoPP@@2HB ; CryptoPP::FixedKeyLength<8,4,0>::DEFAULT_KEYLENGTH
PUBLIC	?IV_REQUIREMENT@?$FixedKeyLength@$07$03$0A@@CryptoPP@@2HB ; CryptoPP::FixedKeyLength<8,4,0>::IV_REQUIREMENT
PUBLIC	?IV_LENGTH@?$FixedKeyLength@$07$03$0A@@CryptoPP@@2HB ; CryptoPP::FixedKeyLength<8,4,0>::IV_LENGTH
PUBLIC	?KEYLENGTH@?$FixedKeyLength@$0BA@$03$0A@@CryptoPP@@2HB ; CryptoPP::FixedKeyLength<16,4,0>::KEYLENGTH
PUBLIC	?MIN_KEYLENGTH@?$FixedKeyLength@$0BA@$03$0A@@CryptoPP@@2HB ; CryptoPP::FixedKeyLength<16,4,0>::MIN_KEYLENGTH
PUBLIC	?MAX_KEYLENGTH@?$FixedKeyLength@$0BA@$03$0A@@CryptoPP@@2HB ; CryptoPP::FixedKeyLength<16,4,0>::MAX_KEYLENGTH
PUBLIC	?DEFAULT_KEYLENGTH@?$FixedKeyLength@$0BA@$03$0A@@CryptoPP@@2HB ; CryptoPP::FixedKeyLength<16,4,0>::DEFAULT_KEYLENGTH
PUBLIC	?IV_REQUIREMENT@?$FixedKeyLength@$0BA@$03$0A@@CryptoPP@@2HB ; CryptoPP::FixedKeyLength<16,4,0>::IV_REQUIREMENT
PUBLIC	?IV_LENGTH@?$FixedKeyLength@$0BA@$03$0A@@CryptoPP@@2HB ; CryptoPP::FixedKeyLength<16,4,0>::IV_LENGTH
PUBLIC	?KEYLENGTH@?$FixedKeyLength@$0BI@$03$0A@@CryptoPP@@2HB ; CryptoPP::FixedKeyLength<24,4,0>::KEYLENGTH
PUBLIC	?MIN_KEYLENGTH@?$FixedKeyLength@$0BI@$03$0A@@CryptoPP@@2HB ; CryptoPP::FixedKeyLength<24,4,0>::MIN_KEYLENGTH
PUBLIC	?MAX_KEYLENGTH@?$FixedKeyLength@$0BI@$03$0A@@CryptoPP@@2HB ; CryptoPP::FixedKeyLength<24,4,0>::MAX_KEYLENGTH
PUBLIC	?DEFAULT_KEYLENGTH@?$FixedKeyLength@$0BI@$03$0A@@CryptoPP@@2HB ; CryptoPP::FixedKeyLength<24,4,0>::DEFAULT_KEYLENGTH
PUBLIC	?IV_REQUIREMENT@?$FixedKeyLength@$0BI@$03$0A@@CryptoPP@@2HB ; CryptoPP::FixedKeyLength<24,4,0>::IV_REQUIREMENT
PUBLIC	?IV_LENGTH@?$FixedKeyLength@$0BI@$03$0A@@CryptoPP@@2HB ; CryptoPP::FixedKeyLength<24,4,0>::IV_LENGTH
;	COMDAT ?IV_LENGTH@?$FixedKeyLength@$0BI@$03$0A@@CryptoPP@@2HB
CONST	SEGMENT
?IV_LENGTH@?$FixedKeyLength@$0BI@$03$0A@@CryptoPP@@2HB DD 00H ; CryptoPP::FixedKeyLength<24,4,0>::IV_LENGTH
CONST	ENDS
;	COMDAT ?IV_REQUIREMENT@?$FixedKeyLength@$0BI@$03$0A@@CryptoPP@@2HB
CONST	SEGMENT
?IV_REQUIREMENT@?$FixedKeyLength@$0BI@$03$0A@@CryptoPP@@2HB DD 04H ; CryptoPP::FixedKeyLength<24,4,0>::IV_REQUIREMENT
CONST	ENDS
;	COMDAT ?DEFAULT_KEYLENGTH@?$FixedKeyLength@$0BI@$03$0A@@CryptoPP@@2HB
CONST	SEGMENT
?DEFAULT_KEYLENGTH@?$FixedKeyLength@$0BI@$03$0A@@CryptoPP@@2HB DD 018H ; CryptoPP::FixedKeyLength<24,4,0>::DEFAULT_KEYLENGTH
CONST	ENDS
;	COMDAT ?MAX_KEYLENGTH@?$FixedKeyLength@$0BI@$03$0A@@CryptoPP@@2HB
CONST	SEGMENT
?MAX_KEYLENGTH@?$FixedKeyLength@$0BI@$03$0A@@CryptoPP@@2HB DD 018H ; CryptoPP::FixedKeyLength<24,4,0>::MAX_KEYLENGTH
CONST	ENDS
;	COMDAT ?MIN_KEYLENGTH@?$FixedKeyLength@$0BI@$03$0A@@CryptoPP@@2HB
CONST	SEGMENT
?MIN_KEYLENGTH@?$FixedKeyLength@$0BI@$03$0A@@CryptoPP@@2HB DD 018H ; CryptoPP::FixedKeyLength<24,4,0>::MIN_KEYLENGTH
CONST	ENDS
;	COMDAT ?KEYLENGTH@?$FixedKeyLength@$0BI@$03$0A@@CryptoPP@@2HB
CONST	SEGMENT
?KEYLENGTH@?$FixedKeyLength@$0BI@$03$0A@@CryptoPP@@2HB DD 018H ; CryptoPP::FixedKeyLength<24,4,0>::KEYLENGTH
CONST	ENDS
;	COMDAT ?IV_LENGTH@?$FixedKeyLength@$0BA@$03$0A@@CryptoPP@@2HB
CONST	SEGMENT
?IV_LENGTH@?$FixedKeyLength@$0BA@$03$0A@@CryptoPP@@2HB DD 00H ; CryptoPP::FixedKeyLength<16,4,0>::IV_LENGTH
CONST	ENDS
;	COMDAT ?IV_REQUIREMENT@?$FixedKeyLength@$0BA@$03$0A@@CryptoPP@@2HB
CONST	SEGMENT
?IV_REQUIREMENT@?$FixedKeyLength@$0BA@$03$0A@@CryptoPP@@2HB DD 04H ; CryptoPP::FixedKeyLength<16,4,0>::IV_REQUIREMENT
CONST	ENDS
;	COMDAT ?DEFAULT_KEYLENGTH@?$FixedKeyLength@$0BA@$03$0A@@CryptoPP@@2HB
CONST	SEGMENT
?DEFAULT_KEYLENGTH@?$FixedKeyLength@$0BA@$03$0A@@CryptoPP@@2HB DD 010H ; CryptoPP::FixedKeyLength<16,4,0>::DEFAULT_KEYLENGTH
CONST	ENDS
;	COMDAT ?MAX_KEYLENGTH@?$FixedKeyLength@$0BA@$03$0A@@CryptoPP@@2HB
CONST	SEGMENT
?MAX_KEYLENGTH@?$FixedKeyLength@$0BA@$03$0A@@CryptoPP@@2HB DD 010H ; CryptoPP::FixedKeyLength<16,4,0>::MAX_KEYLENGTH
CONST	ENDS
;	COMDAT ?MIN_KEYLENGTH@?$FixedKeyLength@$0BA@$03$0A@@CryptoPP@@2HB
CONST	SEGMENT
?MIN_KEYLENGTH@?$FixedKeyLength@$0BA@$03$0A@@CryptoPP@@2HB DD 010H ; CryptoPP::FixedKeyLength<16,4,0>::MIN_KEYLENGTH
CONST	ENDS
;	COMDAT ?KEYLENGTH@?$FixedKeyLength@$0BA@$03$0A@@CryptoPP@@2HB
CONST	SEGMENT
?KEYLENGTH@?$FixedKeyLength@$0BA@$03$0A@@CryptoPP@@2HB DD 010H ; CryptoPP::FixedKeyLength<16,4,0>::KEYLENGTH
CONST	ENDS
;	COMDAT ?IV_LENGTH@?$FixedKeyLength@$07$03$0A@@CryptoPP@@2HB
CONST	SEGMENT
?IV_LENGTH@?$FixedKeyLength@$07$03$0A@@CryptoPP@@2HB DD 00H ; CryptoPP::FixedKeyLength<8,4,0>::IV_LENGTH
CONST	ENDS
;	COMDAT ?IV_REQUIREMENT@?$FixedKeyLength@$07$03$0A@@CryptoPP@@2HB
CONST	SEGMENT
?IV_REQUIREMENT@?$FixedKeyLength@$07$03$0A@@CryptoPP@@2HB DD 04H ; CryptoPP::FixedKeyLength<8,4,0>::IV_REQUIREMENT
CONST	ENDS
;	COMDAT ?DEFAULT_KEYLENGTH@?$FixedKeyLength@$07$03$0A@@CryptoPP@@2HB
CONST	SEGMENT
?DEFAULT_KEYLENGTH@?$FixedKeyLength@$07$03$0A@@CryptoPP@@2HB DD 08H ; CryptoPP::FixedKeyLength<8,4,0>::DEFAULT_KEYLENGTH
CONST	ENDS
;	COMDAT ?MAX_KEYLENGTH@?$FixedKeyLength@$07$03$0A@@CryptoPP@@2HB
CONST	SEGMENT
?MAX_KEYLENGTH@?$FixedKeyLength@$07$03$0A@@CryptoPP@@2HB DD 08H ; CryptoPP::FixedKeyLength<8,4,0>::MAX_KEYLENGTH
CONST	ENDS
;	COMDAT ?MIN_KEYLENGTH@?$FixedKeyLength@$07$03$0A@@CryptoPP@@2HB
CONST	SEGMENT
?MIN_KEYLENGTH@?$FixedKeyLength@$07$03$0A@@CryptoPP@@2HB DD 08H ; CryptoPP::FixedKeyLength<8,4,0>::MIN_KEYLENGTH
CONST	ENDS
;	COMDAT ?KEYLENGTH@?$FixedKeyLength@$07$03$0A@@CryptoPP@@2HB
CONST	SEGMENT
?KEYLENGTH@?$FixedKeyLength@$07$03$0A@@CryptoPP@@2HB DD 08H ; CryptoPP::FixedKeyLength<8,4,0>::KEYLENGTH
CONST	ENDS
;	COMDAT ?BLOCKSIZE@?$FixedBlockSize@$07@CryptoPP@@2HB
CONST	SEGMENT
?BLOCKSIZE@?$FixedBlockSize@$07@CryptoPP@@2HB DD 08H	; CryptoPP::FixedBlockSize<8>::BLOCKSIZE
CONST	ENDS
PUBLIC	?SetBattleOfSelupanState@CRaklionBattleOfSelupan@@QAEXH@Z ; CRaklionBattleOfSelupan::SetBattleOfSelupanState
; Function compile flags: /Ogtp
; File c:\muserver_dev\development\mu-s8ep2-repack\gameserver\source\raklionbattleofselupan.h
;	COMDAT ?SetBattleOfSelupanState@CRaklionBattleOfSelupan@@QAEXH@Z
_TEXT	SEGMENT
_m_iBattleOfSelupanState$ = 8				; size = 4
?SetBattleOfSelupanState@CRaklionBattleOfSelupan@@QAEXH@Z PROC ; CRaklionBattleOfSelupan::SetBattleOfSelupanState, COMDAT
; _this$ = ecx

; 95   : 	void SetBattleOfSelupanState	(int m_iBattleOfSelupanState)	{			this->m_iBattleOfSelupanState	= m_iBattleOfSelupanState;	}

  00000	55		 push	 ebp
  00001	8b ec		 mov	 ebp, esp
  00003	8b 45 08	 mov	 eax, DWORD PTR _m_iBattleOfSelupanState$[ebp]
  00006	89 41 08	 mov	 DWORD PTR [ecx+8], eax
  00009	5d		 pop	 ebp
  0000a	c2 04 00	 ret	 4
?SetBattleOfSelupanState@CRaklionBattleOfSelupan@@QAEXH@Z ENDP ; CRaklionBattleOfSelupan::SetBattleOfSelupanState
_TEXT	ENDS
PUBLIC	?GetBattleOfSelupanState@CRaklionBattleOfSelupan@@QAEHXZ ; CRaklionBattleOfSelupan::GetBattleOfSelupanState
; Function compile flags: /Ogtp
;	COMDAT ?GetBattleOfSelupanState@CRaklionBattleOfSelupan@@QAEHXZ
_TEXT	SEGMENT
?GetBattleOfSelupanState@CRaklionBattleOfSelupan@@QAEHXZ PROC ; CRaklionBattleOfSelupan::GetBattleOfSelupanState, COMDAT
; _this$ = ecx

; 96   : 	int GetBattleOfSelupanState		(							)	{	return	this->m_iBattleOfSelupanState;								}

  00000	8b 41 08	 mov	 eax, DWORD PTR [ecx+8]
  00003	c3		 ret	 0
?GetBattleOfSelupanState@CRaklionBattleOfSelupan@@QAEHXZ ENDP ; CRaklionBattleOfSelupan::GetBattleOfSelupanState
_TEXT	ENDS
PUBLIC	?SetSuccessValue@CRaklionBattleOfSelupan@@QAEXH@Z ; CRaklionBattleOfSelupan::SetSuccessValue
; Function compile flags: /Ogtp
;	COMDAT ?SetSuccessValue@CRaklionBattleOfSelupan@@QAEXH@Z
_TEXT	SEGMENT
_bIsSuccess$ = 8					; size = 4
?SetSuccessValue@CRaklionBattleOfSelupan@@QAEXH@Z PROC	; CRaklionBattleOfSelupan::SetSuccessValue, COMDAT
; _this$ = ecx

; 97   : 	void SetSuccessValue			(BOOL bIsSuccess)				{			this->m_bIsSucccess				= bIsSuccess;				}

  00000	55		 push	 ebp
  00001	8b ec		 mov	 ebp, esp
  00003	8b 45 08	 mov	 eax, DWORD PTR _bIsSuccess$[ebp]
  00006	89 41 30	 mov	 DWORD PTR [ecx+48], eax
  00009	5d		 pop	 ebp
  0000a	c2 04 00	 ret	 4
?SetSuccessValue@CRaklionBattleOfSelupan@@QAEXH@Z ENDP	; CRaklionBattleOfSelupan::SetSuccessValue
_TEXT	ENDS
PUBLIC	??1OBJECTSTRUCT@@QAE@XZ				; OBJECTSTRUCT::~OBJECTSTRUCT
EXTRN	??1CSkillDelay@@UAE@XZ:PROC			; CSkillDelay::~CSkillDelay
EXTRN	??1TMonsterAIAgro@@UAE@XZ:PROC			; TMonsterAIAgro::~TMonsterAIAgro
EXTRN	___security_cookie:DWORD
EXTRN	___CxxFrameHandler3:PROC
EXTRN	@__security_check_cookie@4:PROC
;	COMDAT xdata$x
xdata$x	SEGMENT
__unwindtable$??1OBJECTSTRUCT@@QAE@XZ DD 0ffffffffH
	DD	FLAT:__unwindfunclet$??1OBJECTSTRUCT@@QAE@XZ$0
__ehfuncinfo$??1OBJECTSTRUCT@@QAE@XZ DD 019930522H
	DD	01H
	DD	FLAT:__unwindtable$??1OBJECTSTRUCT@@QAE@XZ
	DD	2 DUP(00H)
	DD	2 DUP(00H)
	DD	00H
	DD	01H
; Function compile flags: /Ogtp
xdata$x	ENDS
;	COMDAT ??1OBJECTSTRUCT@@QAE@XZ
_TEXT	SEGMENT
_this$ = -16						; size = 4
__$EHRec$ = -12						; size = 12
??1OBJECTSTRUCT@@QAE@XZ PROC				; OBJECTSTRUCT::~OBJECTSTRUCT, COMDAT
; _this$ = ecx
  00000	55		 push	 ebp
  00001	8b ec		 mov	 ebp, esp
  00003	6a ff		 push	 -1
  00005	68 00 00 00 00	 push	 __ehhandler$??1OBJECTSTRUCT@@QAE@XZ
  0000a	64 a1 00 00 00
	00		 mov	 eax, DWORD PTR fs:0
  00010	50		 push	 eax
  00011	51		 push	 ecx
  00012	56		 push	 esi
  00013	a1 00 00 00 00	 mov	 eax, DWORD PTR ___security_cookie
  00018	33 c5		 xor	 eax, ebp
  0001a	50		 push	 eax
  0001b	8d 45 f4	 lea	 eax, DWORD PTR __$EHRec$[ebp]
  0001e	64 a3 00 00 00
	00		 mov	 DWORD PTR fs:0, eax
  00024	8b f1		 mov	 esi, ecx
  00026	89 75 f0	 mov	 DWORD PTR _this$[ebp], esi
  00029	8d 8e ec 20 00
	00		 lea	 ecx, DWORD PTR [esi+8428]
  0002f	c7 45 fc 00 00
	00 00		 mov	 DWORD PTR __$EHRec$[ebp+8], 0
  00036	e8 00 00 00 00	 call	 ??1TMonsterAIAgro@@UAE@XZ ; TMonsterAIAgro::~TMonsterAIAgro
  0003b	8d 8e 0c 16 00
	00		 lea	 ecx, DWORD PTR [esi+5644]
  00041	c7 45 fc ff ff
	ff ff		 mov	 DWORD PTR __$EHRec$[ebp+8], -1
  00048	e8 00 00 00 00	 call	 ??1CSkillDelay@@UAE@XZ	; CSkillDelay::~CSkillDelay
  0004d	8b 4d f4	 mov	 ecx, DWORD PTR __$EHRec$[ebp]
  00050	64 89 0d 00 00
	00 00		 mov	 DWORD PTR fs:0, ecx
  00057	59		 pop	 ecx
  00058	5e		 pop	 esi
  00059	8b e5		 mov	 esp, ebp
  0005b	5d		 pop	 ebp
  0005c	c3		 ret	 0
_TEXT	ENDS
;	COMDAT text$x
text$x	SEGMENT
__unwindfunclet$??1OBJECTSTRUCT@@QAE@XZ$0:
  00000	8b 4d f0	 mov	 ecx, DWORD PTR _this$[ebp]
  00003	81 c1 0c 16 00
	00		 add	 ecx, 5644		; 0000160cH
  00009	e9 00 00 00 00	 jmp	 ??1CSkillDelay@@UAE@XZ	; CSkillDelay::~CSkillDelay
__ehhandler$??1OBJECTSTRUCT@@QAE@XZ:
  0000e	8b 54 24 08	 mov	 edx, DWORD PTR [esp+8]
  00012	8d 42 0c	 lea	 eax, DWORD PTR [edx+12]
  00015	8b 4a f4	 mov	 ecx, DWORD PTR [edx-12]
  00018	33 c8		 xor	 ecx, eax
  0001a	e8 00 00 00 00	 call	 @__security_check_cookie@4
  0001f	b8 00 00 00 00	 mov	 eax, OFFSET __ehfuncinfo$??1OBJECTSTRUCT@@QAE@XZ
  00024	e9 00 00 00 00	 jmp	 ___CxxFrameHandler3
text$x	ENDS
??1OBJECTSTRUCT@@QAE@XZ ENDP				; OBJECTSTRUCT::~OBJECTSTRUCT
EXTRN	__localtime64:PROC
; Function compile flags: /Ogtp
; File c:\program files (x86)\microsoft visual studio 10.0\vc\include\time.inl
;	COMDAT _localtime
_TEXT	SEGMENT
_localtime PROC						; COMDAT
; __Time$ = eax

; 114  : #pragma warning( push )
; 115  : #pragma warning( disable : 4996 )
; 116  :     return _localtime64(_Time);

  00000	50		 push	 eax
  00001	e8 00 00 00 00	 call	 __localtime64
  00006	83 c4 04	 add	 esp, 4

; 117  : #pragma warning( pop )
; 118  : }

  00009	c3		 ret	 0
_localtime ENDP
_TEXT	ENDS
EXTRN	__time64:PROC
; Function compile flags: /Ogtp
;	COMDAT _time
_TEXT	SEGMENT
_time	PROC						; COMDAT
; __Time$ = eax

; 133  :     return _time64(_Time);

  00000	50		 push	 eax
  00001	e8 00 00 00 00	 call	 __time64
  00006	83 c4 04	 add	 esp, 4

; 134  : }

  00009	c3		 ret	 0
_time	ENDP
_TEXT	ENDS
PUBLIC	??_7CRaklionBattleOfSelupan@@6B@		; CRaklionBattleOfSelupan::`vftable'
PUBLIC	??1CRaklionBattleOfSelupan@@UAE@XZ		; CRaklionBattleOfSelupan::~CRaklionBattleOfSelupan
PUBLIC	??_R4CRaklionBattleOfSelupan@@6B@		; CRaklionBattleOfSelupan::`RTTI Complete Object Locator'
PUBLIC	??_R0?AVCRaklionBattleOfSelupan@@@8		; CRaklionBattleOfSelupan `RTTI Type Descriptor'
PUBLIC	??_R3CRaklionBattleOfSelupan@@8			; CRaklionBattleOfSelupan::`RTTI Class Hierarchy Descriptor'
PUBLIC	??_R2CRaklionBattleOfSelupan@@8			; CRaklionBattleOfSelupan::`RTTI Base Class Array'
PUBLIC	??_R1A@?0A@EA@CRaklionBattleOfSelupan@@8	; CRaklionBattleOfSelupan::`RTTI Base Class Descriptor at (0,-1,0,64)'
EXTRN	??1CRaklionSelupan@@UAE@XZ:PROC			; CRaklionSelupan::~CRaklionSelupan
EXTRN	??_7type_info@@6B@:QWORD			; type_info::`vftable'
EXTRN	??_ECRaklionBattleOfSelupan@@UAEPAXI@Z:PROC	; CRaklionBattleOfSelupan::`vector deleting destructor'
;	COMDAT ??_R1A@?0A@EA@CRaklionBattleOfSelupan@@8
; File c:\muserver_dev\development\mu-s8ep2-repack\gameserver\source\raklionbattleofselupan.cpp
rdata$r	SEGMENT
??_R1A@?0A@EA@CRaklionBattleOfSelupan@@8 DD FLAT:??_R0?AVCRaklionBattleOfSelupan@@@8 ; CRaklionBattleOfSelupan::`RTTI Base Class Descriptor at (0,-1,0,64)'
	DD	00H
	DD	00H
	DD	0ffffffffH
	DD	00H
	DD	040H
	DD	FLAT:??_R3CRaklionBattleOfSelupan@@8
rdata$r	ENDS
;	COMDAT ??_R2CRaklionBattleOfSelupan@@8
rdata$r	SEGMENT
??_R2CRaklionBattleOfSelupan@@8 DD FLAT:??_R1A@?0A@EA@CRaklionBattleOfSelupan@@8 ; CRaklionBattleOfSelupan::`RTTI Base Class Array'
rdata$r	ENDS
;	COMDAT ??_R3CRaklionBattleOfSelupan@@8
rdata$r	SEGMENT
??_R3CRaklionBattleOfSelupan@@8 DD 00H			; CRaklionBattleOfSelupan::`RTTI Class Hierarchy Descriptor'
	DD	00H
	DD	01H
	DD	FLAT:??_R2CRaklionBattleOfSelupan@@8
rdata$r	ENDS
;	COMDAT ??_R0?AVCRaklionBattleOfSelupan@@@8
_DATA	SEGMENT
??_R0?AVCRaklionBattleOfSelupan@@@8 DD FLAT:??_7type_info@@6B@ ; CRaklionBattleOfSelupan `RTTI Type Descriptor'
	DD	00H
	DB	'.?AVCRaklionBattleOfSelupan@@', 00H
_DATA	ENDS
;	COMDAT ??_R4CRaklionBattleOfSelupan@@6B@
rdata$r	SEGMENT
??_R4CRaklionBattleOfSelupan@@6B@ DD 00H		; CRaklionBattleOfSelupan::`RTTI Complete Object Locator'
	DD	00H
	DD	00H
	DD	FLAT:??_R0?AVCRaklionBattleOfSelupan@@@8
	DD	FLAT:??_R3CRaklionBattleOfSelupan@@8
rdata$r	ENDS
;	COMDAT ??_7CRaklionBattleOfSelupan@@6B@
CONST	SEGMENT
??_7CRaklionBattleOfSelupan@@6B@ DD FLAT:??_R4CRaklionBattleOfSelupan@@6B@ ; CRaklionBattleOfSelupan::`vftable'
	DD	FLAT:??_ECRaklionBattleOfSelupan@@UAEPAXI@Z
; Function compile flags: /Ogtp
CONST	ENDS
;	COMDAT ??1CRaklionBattleOfSelupan@@UAE@XZ
_TEXT	SEGMENT
??1CRaklionBattleOfSelupan@@UAE@XZ PROC			; CRaklionBattleOfSelupan::~CRaklionBattleOfSelupan, COMDAT
; _this$ = ecx

; 22   : {

  00000	c7 01 00 00 00
	00		 mov	 DWORD PTR [ecx], OFFSET ??_7CRaklionBattleOfSelupan@@6B@

; 23   : 
; 24   : }

  00006	83 c1 34	 add	 ecx, 52			; 00000034H
  00009	e9 00 00 00 00	 jmp	 ??1CRaklionSelupan@@UAE@XZ ; CRaklionSelupan::~CRaklionSelupan
??1CRaklionBattleOfSelupan@@UAE@XZ ENDP			; CRaklionBattleOfSelupan::~CRaklionBattleOfSelupan
_TEXT	ENDS
PUBLIC	?ResetAllData@CRaklionBattleOfSelupan@@QAEXXZ	; CRaklionBattleOfSelupan::ResetAllData
EXTRN	_memset:PROC
; Function compile flags: /Ogtp
;	COMDAT ?ResetAllData@CRaklionBattleOfSelupan@@QAEXXZ
_TEXT	SEGMENT
?ResetAllData@CRaklionBattleOfSelupan@@QAEXXZ PROC	; CRaklionBattleOfSelupan::ResetAllData, COMDAT
; _this$ = ecx

; 27   : {

  00000	56		 push	 esi
  00001	57		 push	 edi
  00002	8b f1		 mov	 esi, ecx

; 28   : 	this->m_004 = 0;

  00004	33 ff		 xor	 edi, edi

; 29   : 	this->m_dwSkillDelay		= 0;
; 30   : 	this->m_dwSkillDelayTick	= 0;
; 31   : 	this->m_bIsUseFirstSkill = 0;
; 32   : 
; 33   : 	memset(this->m_PatternSkill,0,sizeof(this->m_PatternSkill)); //0x1C size

  00006	68 fc 00 00 00	 push	 252			; 000000fcH
  0000b	8d 86 d4 0c 00
	00		 lea	 eax, DWORD PTR [esi+3284]
  00011	57		 push	 edi
  00012	50		 push	 eax
  00013	89 7e 04	 mov	 DWORD PTR [esi+4], edi
  00016	89 7e 24	 mov	 DWORD PTR [esi+36], edi
  00019	89 7e 28	 mov	 DWORD PTR [esi+40], edi
  0001c	89 7e 2c	 mov	 DWORD PTR [esi+44], edi
  0001f	e8 00 00 00 00	 call	 _memset

; 34   : 
; 35   : 	for(int i = 0 ; i< MAX_STATE_PATTERN_COUNT ; i++)
; 36   : 	{
; 37   : 		 this->m_PatternSkill[i].bIsSkillEnabled[SKILL_POISON_ATTACK]		= TRUE;

  00024	b8 01 00 00 00	 mov	 eax, 1
  00029	89 86 d8 0c 00
	00		 mov	 DWORD PTR [esi+3288], eax

; 38   : 		 this->m_PatternSkill[i].bIsSkillEnabled[SKILL_ICESTORM]			= TRUE;

  0002f	89 86 dc 0c 00
	00		 mov	 DWORD PTR [esi+3292], eax

; 39   : 		 this->m_PatternSkill[i].bIsSkillEnabled[SKILL_ICESTRIKE]			= TRUE;

  00035	89 86 e0 0c 00
	00		 mov	 DWORD PTR [esi+3296], eax

; 40   : 		 this->m_PatternSkill[i].bIsSkillEnabled[SKILL_TELEPORT]			= TRUE;

  0003b	89 86 f0 0c 00
	00		 mov	 DWORD PTR [esi+3312], eax
  00041	89 86 fc 0c 00
	00		 mov	 DWORD PTR [esi+3324], eax
  00047	89 86 00 0d 00
	00		 mov	 DWORD PTR [esi+3328], eax
  0004d	89 86 04 0d 00
	00		 mov	 DWORD PTR [esi+3332], eax
  00053	89 86 14 0d 00
	00		 mov	 DWORD PTR [esi+3348], eax
  00059	89 86 20 0d 00
	00		 mov	 DWORD PTR [esi+3360], eax
  0005f	89 86 24 0d 00
	00		 mov	 DWORD PTR [esi+3364], eax
  00065	89 86 28 0d 00
	00		 mov	 DWORD PTR [esi+3368], eax
  0006b	89 86 38 0d 00
	00		 mov	 DWORD PTR [esi+3384], eax
  00071	89 86 44 0d 00
	00		 mov	 DWORD PTR [esi+3396], eax
  00077	89 86 48 0d 00
	00		 mov	 DWORD PTR [esi+3400], eax
  0007d	89 86 4c 0d 00
	00		 mov	 DWORD PTR [esi+3404], eax
  00083	89 86 5c 0d 00
	00		 mov	 DWORD PTR [esi+3420], eax
  00089	89 86 68 0d 00
	00		 mov	 DWORD PTR [esi+3432], eax
  0008f	89 86 6c 0d 00
	00		 mov	 DWORD PTR [esi+3436], eax
  00095	89 86 70 0d 00
	00		 mov	 DWORD PTR [esi+3440], eax
  0009b	89 86 80 0d 00
	00		 mov	 DWORD PTR [esi+3456], eax
  000a1	89 86 8c 0d 00
	00		 mov	 DWORD PTR [esi+3468], eax
  000a7	89 86 90 0d 00
	00		 mov	 DWORD PTR [esi+3472], eax
  000ad	89 86 94 0d 00
	00		 mov	 DWORD PTR [esi+3476], eax
  000b3	89 86 a4 0d 00
	00		 mov	 DWORD PTR [esi+3492], eax
  000b9	89 86 b0 0d 00
	00		 mov	 DWORD PTR [esi+3504], eax
  000bf	89 86 b4 0d 00
	00		 mov	 DWORD PTR [esi+3508], eax
  000c5	89 86 b8 0d 00
	00		 mov	 DWORD PTR [esi+3512], eax
  000cb	89 86 c8 0d 00
	00		 mov	 DWORD PTR [esi+3528], eax
  000d1	83 c4 0c	 add	 esp, 12			; 0000000cH

; 41   : 	}
; 42   : 
; 43   : 	this->m_PatternSkill[STATE_PATTERN_2].bIsSkillEnabled[SKILL_FREEZE]			= TRUE;//D10
; 44   : 	this->m_PatternSkill[STATE_PATTERN_3].bIsSkillEnabled[SKILL_FREEZE]			= TRUE;//D34
; 45   : 
; 46   : 	this->m_PatternSkill[STATE_PATTERN_4].bIsSkillEnabled[SKILL_FREEZE]			= TRUE;//D58
; 47   : 	this->m_PatternSkill[STATE_PATTERN_4].bIsSkillEnabled[SKILL_HEAL]			= TRUE;//D54
; 48   : 
; 49   : 	this->m_PatternSkill[STATE_PATTERN_5].bIsSkillEnabled[SKILL_SUMMON]			= TRUE;//D74
; 50   : 	this->m_PatternSkill[STATE_PATTERN_5].bIsSkillEnabled[SKILL_FREEZE]			= TRUE;//D7C
; 51   : 	this->m_PatternSkill[STATE_PATTERN_5].bIsSkillEnabled[SKILL_HEAL]			= TRUE;//D78
; 52   : 
; 53   : 	this->m_PatternSkill[STATE_PATTERN_6].bIsSkillEnabled[SKILL_SUMMON]			= TRUE;//D98
; 54   : 	this->m_PatternSkill[STATE_PATTERN_6].bIsSkillEnabled[SKILL_FREEZE]			= TRUE;//DA0
; 55   : 	this->m_PatternSkill[STATE_PATTERN_6].bIsSkillEnabled[SKILL_HEAL]			= TRUE;//D9C
; 56   : 
; 57   : 	this->m_PatternSkill[STATE_PATTERN_7].bIsSkillEnabled[SKILL_SUMMON]			= TRUE;//DBC
; 58   : 	this->m_PatternSkill[STATE_PATTERN_7].bIsSkillEnabled[SKILL_FREEZE]			= TRUE;//DC4
; 59   : 	this->m_PatternSkill[STATE_PATTERN_7].bIsSkillEnabled[SKILL_HEAL]			= TRUE;//DC0
; 60   : 	this->m_PatternSkill[STATE_PATTERN_7].bIsSkillEnabled[SKILL_INVINCIBILITY]	= TRUE;//DCC
; 61   : 	
; 62   : 	this->SetSuccessValue(FALSE);

  000d4	89 7e 30	 mov	 DWORD PTR [esi+48], edi

; 63   : 	this->SetBattleOfSelupanState(SELUPAN_STATE_NONE);

  000d7	89 7e 08	 mov	 DWORD PTR [esi+8], edi
  000da	5f		 pop	 edi
  000db	89 86 10 0d 00
	00		 mov	 DWORD PTR [esi+3344], eax
  000e1	89 86 34 0d 00
	00		 mov	 DWORD PTR [esi+3380], eax
  000e7	89 86 58 0d 00
	00		 mov	 DWORD PTR [esi+3416], eax
  000ed	89 86 54 0d 00
	00		 mov	 DWORD PTR [esi+3412], eax
  000f3	89 86 74 0d 00
	00		 mov	 DWORD PTR [esi+3444], eax
  000f9	89 86 7c 0d 00
	00		 mov	 DWORD PTR [esi+3452], eax
  000ff	89 86 78 0d 00
	00		 mov	 DWORD PTR [esi+3448], eax
  00105	89 86 98 0d 00
	00		 mov	 DWORD PTR [esi+3480], eax
  0010b	89 86 a0 0d 00
	00		 mov	 DWORD PTR [esi+3488], eax
  00111	89 86 9c 0d 00
	00		 mov	 DWORD PTR [esi+3484], eax
  00117	89 86 bc 0d 00
	00		 mov	 DWORD PTR [esi+3516], eax
  0011d	89 86 c4 0d 00
	00		 mov	 DWORD PTR [esi+3524], eax
  00123	89 86 c0 0d 00
	00		 mov	 DWORD PTR [esi+3520], eax
  00129	89 86 cc 0d 00
	00		 mov	 DWORD PTR [esi+3532], eax
  0012f	5e		 pop	 esi

; 64   : }

  00130	c3		 ret	 0
?ResetAllData@CRaklionBattleOfSelupan@@QAEXXZ ENDP	; CRaklionBattleOfSelupan::ResetAllData
_TEXT	ENDS
PUBLIC	?Init@CRaklionBattleOfSelupan@@QAEHXZ		; CRaklionBattleOfSelupan::Init
; Function compile flags: /Ogtp
;	COMDAT ?Init@CRaklionBattleOfSelupan@@QAEHXZ
_TEXT	SEGMENT
?Init@CRaklionBattleOfSelupan@@QAEHXZ PROC		; CRaklionBattleOfSelupan::Init, COMDAT
; _this$ = ecx

; 68   : 	//need fix size
; 69   : 	return 1;

  00000	b8 01 00 00 00	 mov	 eax, 1

; 70   : }

  00005	c3		 ret	 0
?Init@CRaklionBattleOfSelupan@@QAEHXZ ENDP		; CRaklionBattleOfSelupan::Init
_TEXT	ENDS
PUBLIC	??_C@_0DB@JPEONBGN@?$FL?5RAKLION?5?$FN?$FL?5BattleOfSelupan?5?$FN?5S@ ; `string'
PUBLIC	?SetState_NONE@CRaklionBattleOfSelupan@@QAEXXZ	; CRaklionBattleOfSelupan::SetState_NONE
EXTRN	?SelupanAct_BerserkCansel@CRaklionSelupan@@QAEXXZ:PROC ; CRaklionSelupan::SelupanAct_BerserkCansel
EXTRN	?LogAddC@@3P6AXEPADZZA:DWORD			; LogAddC
;	COMDAT ??_C@_0DB@JPEONBGN@?$FL?5RAKLION?5?$FN?$FL?5BattleOfSelupan?5?$FN?5S@
; File c:\muserver_dev\development\mu-s8ep2-repack\gameserver\source\raklionbattleofselupan.h
CONST	SEGMENT
??_C@_0DB@JPEONBGN@?$FL?5RAKLION?5?$FN?$FL?5BattleOfSelupan?5?$FN?5S@ DB '['
	DB	' RAKLION ][ BattleOfSelupan ] State(%d) -> NONE', 00H ; `string'
; Function compile flags: /Ogtp
; File c:\muserver_dev\development\mu-s8ep2-repack\gameserver\source\raklionbattleofselupan.cpp
CONST	ENDS
;	COMDAT ?SetState_NONE@CRaklionBattleOfSelupan@@QAEXXZ
_TEXT	SEGMENT
?SetState_NONE@CRaklionBattleOfSelupan@@QAEXXZ PROC	; CRaklionBattleOfSelupan::SetState_NONE, COMDAT
; _this$ = ecx

; 125  : {

  00000	56		 push	 esi
  00001	8b f1		 mov	 esi, ecx

; 126  : 	LogAddC(5, "[ RAKLION ][ BattleOfSelupan ] State(%d) -> NONE", this->m_iBattleOfSelupanState);

  00003	8b 46 08	 mov	 eax, DWORD PTR [esi+8]
  00006	50		 push	 eax
  00007	68 00 00 00 00	 push	 OFFSET ??_C@_0DB@JPEONBGN@?$FL?5RAKLION?5?$FN?$FL?5BattleOfSelupan?5?$FN?5S@
  0000c	6a 05		 push	 5
  0000e	ff 15 00 00 00
	00		 call	 DWORD PTR ?LogAddC@@3P6AXEPADZZA ; LogAddC
  00014	83 c4 0c	 add	 esp, 12			; 0000000cH

; 127  : 	
; 128  : 	this->m_RaklionSelupan.SelupanAct_BerserkCansel();

  00017	8d 4e 34	 lea	 ecx, DWORD PTR [esi+52]
  0001a	e8 00 00 00 00	 call	 ?SelupanAct_BerserkCansel@CRaklionSelupan@@QAEXXZ ; CRaklionSelupan::SelupanAct_BerserkCansel

; 129  : 	
; 130  : 	this->SetBattleOfSelupanState(SELUPAN_STATE_NONE);

  0001f	c7 46 08 00 00
	00 00		 mov	 DWORD PTR [esi+8], 0
  00026	5e		 pop	 esi

; 131  : 
; 132  : }

  00027	c3		 ret	 0
?SetState_NONE@CRaklionBattleOfSelupan@@QAEXXZ ENDP	; CRaklionBattleOfSelupan::SetState_NONE
_TEXT	ENDS
PUBLIC	??_C@_0DE@EBLINPPG@?$FL?5RAKLION?5?$FN?$FL?5BattleOfSelupan?5?$FN?5S@ ; `string'
PUBLIC	?SetState_STANDBY@CRaklionBattleOfSelupan@@QAEXXZ ; CRaklionBattleOfSelupan::SetState_STANDBY
EXTRN	?CreateSelupan@CRaklionSelupan@@QAEHXZ:PROC	; CRaklionSelupan::CreateSelupan
EXTRN	?InitSelupanObjIndex@CRaklionSelupan@@QAEXXZ:PROC ; CRaklionSelupan::InitSelupanObjIndex
;	COMDAT ??_C@_0DE@EBLINPPG@?$FL?5RAKLION?5?$FN?$FL?5BattleOfSelupan?5?$FN?5S@
; File c:\muserver_dev\development\mu-s8ep2-repack\gameserver\source\raklionbattleofselupan.h
CONST	SEGMENT
??_C@_0DE@EBLINPPG@?$FL?5RAKLION?5?$FN?$FL?5BattleOfSelupan?5?$FN?5S@ DB '['
	DB	' RAKLION ][ BattleOfSelupan ] State(%d) -> STANDBY', 00H ; `string'
; Function compile flags: /Ogtp
; File c:\muserver_dev\development\mu-s8ep2-repack\gameserver\source\raklionbattleofselupan.cpp
CONST	ENDS
;	COMDAT ?SetState_STANDBY@CRaklionBattleOfSelupan@@QAEXXZ
_TEXT	SEGMENT
?SetState_STANDBY@CRaklionBattleOfSelupan@@QAEXXZ PROC	; CRaklionBattleOfSelupan::SetState_STANDBY, COMDAT
; _this$ = ecx

; 135  : {

  00000	56		 push	 esi
  00001	8b f1		 mov	 esi, ecx

; 136  : 	LogAddC(5, "[ RAKLION ][ BattleOfSelupan ] State(%d) -> STANDBY", this->m_iBattleOfSelupanState);

  00003	8b 46 08	 mov	 eax, DWORD PTR [esi+8]
  00006	57		 push	 edi
  00007	50		 push	 eax
  00008	68 00 00 00 00	 push	 OFFSET ??_C@_0DE@EBLINPPG@?$FL?5RAKLION?5?$FN?$FL?5BattleOfSelupan?5?$FN?5S@
  0000d	6a 05		 push	 5
  0000f	ff 15 00 00 00
	00		 call	 DWORD PTR ?LogAddC@@3P6AXEPADZZA ; LogAddC
  00015	83 c4 0c	 add	 esp, 12			; 0000000cH

; 137  : 	
; 138  : 	this->m_RaklionSelupan.InitSelupanObjIndex();

  00018	8d 4e 34	 lea	 ecx, DWORD PTR [esi+52]
  0001b	e8 00 00 00 00	 call	 ?InitSelupanObjIndex@CRaklionSelupan@@QAEXXZ ; CRaklionSelupan::InitSelupanObjIndex

; 139  : 	this->m_RaklionSelupan.CreateSelupan();

  00020	8d 4e 34	 lea	 ecx, DWORD PTR [esi+52]
  00023	e8 00 00 00 00	 call	 ?CreateSelupan@CRaklionSelupan@@QAEHXZ ; CRaklionSelupan::CreateSelupan

; 140  : 	this->m_RaklionSelupan.SelupanAct_BerserkCansel();

  00028	8d 4e 34	 lea	 ecx, DWORD PTR [esi+52]
  0002b	e8 00 00 00 00	 call	 ?SelupanAct_BerserkCansel@CRaklionSelupan@@QAEXXZ ; CRaklionSelupan::SelupanAct_BerserkCansel
  00030	5f		 pop	 edi

; 141  : 	
; 142  : 	this->SetBattleOfSelupanState(SELUPAN_STATE_STANDBY);

  00031	c7 46 08 01 00
	00 00		 mov	 DWORD PTR [esi+8], 1
  00038	5e		 pop	 esi

; 143  : }

  00039	c3		 ret	 0
?SetState_STANDBY@CRaklionBattleOfSelupan@@QAEXXZ ENDP	; CRaklionBattleOfSelupan::SetState_STANDBY
_TEXT	ENDS
PUBLIC	??_C@_0EK@JNGGHGMA@?$FL?5RAKLION?5?$FN?$FL?5BattleOfSelupan?5?$FN?5S@ ; `string'
PUBLIC	?SetState_PATTERN_1@CRaklionBattleOfSelupan@@QAEXXZ ; CRaklionBattleOfSelupan::SetState_PATTERN_1
EXTRN	?GetSelupanLife@CRaklionSelupan@@QAEKXZ:PROC	; CRaklionSelupan::GetSelupanLife
;	COMDAT ??_C@_0EK@JNGGHGMA@?$FL?5RAKLION?5?$FN?$FL?5BattleOfSelupan?5?$FN?5S@
; File c:\muserver_dev\development\mu-s8ep2-repack\gameserver\source\raklionbattleofselupan.h
CONST	SEGMENT
??_C@_0EK@JNGGHGMA@?$FL?5RAKLION?5?$FN?$FL?5BattleOfSelupan?5?$FN?5S@ DB '['
	DB	' RAKLION ][ BattleOfSelupan ] State(%d) -> PATTERN_1 // Life('
	DB	'%d/4800000)', 00H				; `string'
; Function compile flags: /Ogtp
; File c:\muserver_dev\development\mu-s8ep2-repack\gameserver\source\raklionbattleofselupan.cpp
CONST	ENDS
;	COMDAT ?SetState_PATTERN_1@CRaklionBattleOfSelupan@@QAEXXZ
_TEXT	SEGMENT
?SetState_PATTERN_1@CRaklionBattleOfSelupan@@QAEXXZ PROC ; CRaklionBattleOfSelupan::SetState_PATTERN_1, COMDAT
; _this$ = ecx

; 146  : {

  00000	56		 push	 esi
  00001	8b f1		 mov	 esi, ecx
  00003	57		 push	 edi

; 147  : 	LogAddC(5, "[ RAKLION ][ BattleOfSelupan ] State(%d) -> PATTERN_1 // Life(%d/4800000)", this->m_iBattleOfSelupanState,this->m_RaklionSelupan.GetSelupanLife());

  00004	8d 4e 34	 lea	 ecx, DWORD PTR [esi+52]
  00007	e8 00 00 00 00	 call	 ?GetSelupanLife@CRaklionSelupan@@QAEKXZ ; CRaklionSelupan::GetSelupanLife
  0000c	50		 push	 eax
  0000d	8b 46 08	 mov	 eax, DWORD PTR [esi+8]
  00010	50		 push	 eax
  00011	68 00 00 00 00	 push	 OFFSET ??_C@_0EK@JNGGHGMA@?$FL?5RAKLION?5?$FN?$FL?5BattleOfSelupan?5?$FN?5S@
  00016	6a 05		 push	 5
  00018	ff 15 00 00 00
	00		 call	 DWORD PTR ?LogAddC@@3P6AXEPADZZA ; LogAddC
  0001e	83 c4 10	 add	 esp, 16			; 00000010H

; 148  : 	
; 149  : 	this->m_RaklionSelupan.SelupanAct_BerserkCansel();

  00021	8d 4e 34	 lea	 ecx, DWORD PTR [esi+52]
  00024	e8 00 00 00 00	 call	 ?SelupanAct_BerserkCansel@CRaklionSelupan@@QAEXXZ ; CRaklionSelupan::SelupanAct_BerserkCansel
  00029	5f		 pop	 edi

; 150  : 	
; 151  : 	this->SetBattleOfSelupanState(SELUPAN_STATE_PATTERN_1);

  0002a	c7 46 08 02 00
	00 00		 mov	 DWORD PTR [esi+8], 2
  00031	5e		 pop	 esi

; 152  : }

  00032	c3		 ret	 0
?SetState_PATTERN_1@CRaklionBattleOfSelupan@@QAEXXZ ENDP ; CRaklionBattleOfSelupan::SetState_PATTERN_1
_TEXT	ENDS
PUBLIC	??_C@_0EK@KEBONLIA@?$FL?5RAKLION?5?$FN?$FL?5BattleOfSelupan?5?$FN?5S@ ; `string'
PUBLIC	?SetState_PATTERN_2@CRaklionBattleOfSelupan@@QAEXXZ ; CRaklionBattleOfSelupan::SetState_PATTERN_2
EXTRN	?SelupanAct_Berserk1@CRaklionSelupan@@QAEXXZ:PROC ; CRaklionSelupan::SelupanAct_Berserk1
;	COMDAT ??_C@_0EK@KEBONLIA@?$FL?5RAKLION?5?$FN?$FL?5BattleOfSelupan?5?$FN?5S@
; File c:\muserver_dev\development\mu-s8ep2-repack\gameserver\source\raklionbattleofselupan.h
CONST	SEGMENT
??_C@_0EK@KEBONLIA@?$FL?5RAKLION?5?$FN?$FL?5BattleOfSelupan?5?$FN?5S@ DB '['
	DB	' RAKLION ][ BattleOfSelupan ] State(%d) -> PATTERN_2 // Life('
	DB	'%d/4800000)', 00H				; `string'
; Function compile flags: /Ogtp
; File c:\muserver_dev\development\mu-s8ep2-repack\gameserver\source\raklionbattleofselupan.cpp
CONST	ENDS
;	COMDAT ?SetState_PATTERN_2@CRaklionBattleOfSelupan@@QAEXXZ
_TEXT	SEGMENT
?SetState_PATTERN_2@CRaklionBattleOfSelupan@@QAEXXZ PROC ; CRaklionBattleOfSelupan::SetState_PATTERN_2, COMDAT
; _this$ = ecx

; 155  : {

  00000	56		 push	 esi
  00001	8b f1		 mov	 esi, ecx
  00003	57		 push	 edi

; 156  : 	LogAddC(5, "[ RAKLION ][ BattleOfSelupan ] State(%d) -> PATTERN_2 // Life(%d/4800000)", this->m_iBattleOfSelupanState,this->m_RaklionSelupan.GetSelupanLife());

  00004	8d 4e 34	 lea	 ecx, DWORD PTR [esi+52]
  00007	e8 00 00 00 00	 call	 ?GetSelupanLife@CRaklionSelupan@@QAEKXZ ; CRaklionSelupan::GetSelupanLife
  0000c	50		 push	 eax
  0000d	8b 46 08	 mov	 eax, DWORD PTR [esi+8]
  00010	50		 push	 eax
  00011	68 00 00 00 00	 push	 OFFSET ??_C@_0EK@KEBONLIA@?$FL?5RAKLION?5?$FN?$FL?5BattleOfSelupan?5?$FN?5S@
  00016	6a 05		 push	 5
  00018	ff 15 00 00 00
	00		 call	 DWORD PTR ?LogAddC@@3P6AXEPADZZA ; LogAddC
  0001e	83 c4 10	 add	 esp, 16			; 00000010H

; 157  : 
; 158  : 	this->m_RaklionSelupan.SelupanAct_Berserk1();  

  00021	8d 4e 34	 lea	 ecx, DWORD PTR [esi+52]
  00024	e8 00 00 00 00	 call	 ?SelupanAct_Berserk1@CRaklionSelupan@@QAEXXZ ; CRaklionSelupan::SelupanAct_Berserk1
  00029	5f		 pop	 edi

; 159  : 	
; 160  : 	this->SetBattleOfSelupanState(SELUPAN_STATE_PATTERN_2);

  0002a	c7 46 08 03 00
	00 00		 mov	 DWORD PTR [esi+8], 3
  00031	5e		 pop	 esi

; 161  : }

  00032	c3		 ret	 0
?SetState_PATTERN_2@CRaklionBattleOfSelupan@@QAEXXZ ENDP ; CRaklionBattleOfSelupan::SetState_PATTERN_2
_TEXT	ENDS
PUBLIC	??_C@_0EK@LDDGLPEA@?$FL?5RAKLION?5?$FN?$FL?5BattleOfSelupan?5?$FN?5S@ ; `string'
PUBLIC	?SetState_PATTERN_3@CRaklionBattleOfSelupan@@QAEXXZ ; CRaklionBattleOfSelupan::SetState_PATTERN_3
EXTRN	?SelupanAct_Berserk2@CRaklionSelupan@@QAEXXZ:PROC ; CRaklionSelupan::SelupanAct_Berserk2
;	COMDAT ??_C@_0EK@LDDGLPEA@?$FL?5RAKLION?5?$FN?$FL?5BattleOfSelupan?5?$FN?5S@
; File c:\muserver_dev\development\mu-s8ep2-repack\gameserver\source\raklionbattleofselupan.h
CONST	SEGMENT
??_C@_0EK@LDDGLPEA@?$FL?5RAKLION?5?$FN?$FL?5BattleOfSelupan?5?$FN?5S@ DB '['
	DB	' RAKLION ][ BattleOfSelupan ] State(%d) -> PATTERN_3 // Life('
	DB	'%d/4800000)', 00H				; `string'
; Function compile flags: /Ogtp
; File c:\muserver_dev\development\mu-s8ep2-repack\gameserver\source\raklionbattleofselupan.cpp
CONST	ENDS
;	COMDAT ?SetState_PATTERN_3@CRaklionBattleOfSelupan@@QAEXXZ
_TEXT	SEGMENT
?SetState_PATTERN_3@CRaklionBattleOfSelupan@@QAEXXZ PROC ; CRaklionBattleOfSelupan::SetState_PATTERN_3, COMDAT
; _this$ = ecx

; 164  : {

  00000	56		 push	 esi
  00001	8b f1		 mov	 esi, ecx
  00003	57		 push	 edi

; 165  : 	LogAddC(5, "[ RAKLION ][ BattleOfSelupan ] State(%d) -> PATTERN_3 // Life(%d/4800000)", this->m_iBattleOfSelupanState,this->m_RaklionSelupan.GetSelupanLife());

  00004	8d 4e 34	 lea	 ecx, DWORD PTR [esi+52]
  00007	e8 00 00 00 00	 call	 ?GetSelupanLife@CRaklionSelupan@@QAEKXZ ; CRaklionSelupan::GetSelupanLife
  0000c	50		 push	 eax
  0000d	8b 46 08	 mov	 eax, DWORD PTR [esi+8]
  00010	50		 push	 eax
  00011	68 00 00 00 00	 push	 OFFSET ??_C@_0EK@LDDGLPEA@?$FL?5RAKLION?5?$FN?$FL?5BattleOfSelupan?5?$FN?5S@
  00016	6a 05		 push	 5
  00018	ff 15 00 00 00
	00		 call	 DWORD PTR ?LogAddC@@3P6AXEPADZZA ; LogAddC
  0001e	83 c4 10	 add	 esp, 16			; 00000010H

; 166  : 	
; 167  : 	this->m_RaklionSelupan.SelupanAct_Berserk2();

  00021	8d 4e 34	 lea	 ecx, DWORD PTR [esi+52]
  00024	e8 00 00 00 00	 call	 ?SelupanAct_Berserk2@CRaklionSelupan@@QAEXXZ ; CRaklionSelupan::SelupanAct_Berserk2
  00029	5f		 pop	 edi

; 168  : 	
; 169  : 	this->SetBattleOfSelupanState(SELUPAN_STATE_PATTERN_3);

  0002a	c7 46 08 04 00
	00 00		 mov	 DWORD PTR [esi+8], 4
  00031	5e		 pop	 esi

; 170  : }

  00032	c3		 ret	 0
?SetState_PATTERN_3@CRaklionBattleOfSelupan@@QAEXXZ ENDP ; CRaklionBattleOfSelupan::SetState_PATTERN_3
_TEXT	ENDS
PUBLIC	??_C@_0EK@NGOPIBAA@?$FL?5RAKLION?5?$FN?$FL?5BattleOfSelupan?5?$FN?5S@ ; `string'
PUBLIC	?SetState_PATTERN_4@CRaklionBattleOfSelupan@@QAEXXZ ; CRaklionBattleOfSelupan::SetState_PATTERN_4
EXTRN	?GetBerserkIndex@CRaklionSelupan@@QAEHXZ:PROC	; CRaklionSelupan::GetBerserkIndex
;	COMDAT ??_C@_0EK@NGOPIBAA@?$FL?5RAKLION?5?$FN?$FL?5BattleOfSelupan?5?$FN?5S@
; File c:\muserver_dev\development\mu-s8ep2-repack\gameserver\source\raklionbattleofselupan.h
CONST	SEGMENT
??_C@_0EK@NGOPIBAA@?$FL?5RAKLION?5?$FN?$FL?5BattleOfSelupan?5?$FN?5S@ DB '['
	DB	' RAKLION ][ BattleOfSelupan ] State(%d) -> PATTERN_4 // Life('
	DB	'%d/4800000)', 00H				; `string'
; Function compile flags: /Ogtp
; File c:\muserver_dev\development\mu-s8ep2-repack\gameserver\source\raklionbattleofselupan.cpp
CONST	ENDS
;	COMDAT ?SetState_PATTERN_4@CRaklionBattleOfSelupan@@QAEXXZ
_TEXT	SEGMENT
?SetState_PATTERN_4@CRaklionBattleOfSelupan@@QAEXXZ PROC ; CRaklionBattleOfSelupan::SetState_PATTERN_4, COMDAT
; _this$ = ecx

; 173  : {

  00000	56		 push	 esi
  00001	8b f1		 mov	 esi, ecx
  00003	57		 push	 edi

; 174  : 	LogAddC(5, "[ RAKLION ][ BattleOfSelupan ] State(%d) -> PATTERN_4 // Life(%d/4800000)", this->m_iBattleOfSelupanState,this->m_RaklionSelupan.GetSelupanLife());

  00004	8d 4e 34	 lea	 ecx, DWORD PTR [esi+52]
  00007	e8 00 00 00 00	 call	 ?GetSelupanLife@CRaklionSelupan@@QAEKXZ ; CRaklionSelupan::GetSelupanLife
  0000c	50		 push	 eax
  0000d	8b 46 08	 mov	 eax, DWORD PTR [esi+8]
  00010	50		 push	 eax
  00011	68 00 00 00 00	 push	 OFFSET ??_C@_0EK@NGOPIBAA@?$FL?5RAKLION?5?$FN?$FL?5BattleOfSelupan?5?$FN?5S@
  00016	6a 05		 push	 5
  00018	ff 15 00 00 00
	00		 call	 DWORD PTR ?LogAddC@@3P6AXEPADZZA ; LogAddC
  0001e	83 c4 10	 add	 esp, 16			; 00000010H

; 175  : 	
; 176  : 	if ( this->m_RaklionSelupan.GetBerserkIndex() != 2 )

  00021	8d 4e 34	 lea	 ecx, DWORD PTR [esi+52]
  00024	e8 00 00 00 00	 call	 ?GetBerserkIndex@CRaklionSelupan@@QAEHXZ ; CRaklionSelupan::GetBerserkIndex
  00029	83 f8 02	 cmp	 eax, 2
  0002c	74 08		 je	 SHORT $LN6@SetState_P

; 177  : 	{
; 178  : 		this->m_RaklionSelupan.SelupanAct_Berserk2();

  0002e	8d 4e 34	 lea	 ecx, DWORD PTR [esi+52]
  00031	e8 00 00 00 00	 call	 ?SelupanAct_Berserk2@CRaklionSelupan@@QAEXXZ ; CRaklionSelupan::SelupanAct_Berserk2
$LN6@SetState_P:

; 179  : 	}
; 180  : 	
; 181  : 	this->SetBattleOfSelupanState(SELUPAN_STATE_PATTERN_4);

  00036	5f		 pop	 edi
  00037	c7 46 08 05 00
	00 00		 mov	 DWORD PTR [esi+8], 5
  0003e	5e		 pop	 esi

; 182  : }

  0003f	c3		 ret	 0
?SetState_PATTERN_4@CRaklionBattleOfSelupan@@QAEXXZ ENDP ; CRaklionBattleOfSelupan::SetState_PATTERN_4
_TEXT	ENDS
PUBLIC	??_C@_0EK@MBMHOFMA@?$FL?5RAKLION?5?$FN?$FL?5BattleOfSelupan?5?$FN?5S@ ; `string'
PUBLIC	?SetState_PATTERN_5@CRaklionBattleOfSelupan@@QAEXXZ ; CRaklionBattleOfSelupan::SetState_PATTERN_5
EXTRN	?SelupanAct_Berserk3@CRaklionSelupan@@QAEXXZ:PROC ; CRaklionSelupan::SelupanAct_Berserk3
;	COMDAT ??_C@_0EK@MBMHOFMA@?$FL?5RAKLION?5?$FN?$FL?5BattleOfSelupan?5?$FN?5S@
; File c:\muserver_dev\development\mu-s8ep2-repack\gameserver\source\raklionbattleofselupan.h
CONST	SEGMENT
??_C@_0EK@MBMHOFMA@?$FL?5RAKLION?5?$FN?$FL?5BattleOfSelupan?5?$FN?5S@ DB '['
	DB	' RAKLION ][ BattleOfSelupan ] State(%d) -> PATTERN_5 // Life('
	DB	'%d/4800000)', 00H				; `string'
; Function compile flags: /Ogtp
; File c:\muserver_dev\development\mu-s8ep2-repack\gameserver\source\raklionbattleofselupan.cpp
CONST	ENDS
;	COMDAT ?SetState_PATTERN_5@CRaklionBattleOfSelupan@@QAEXXZ
_TEXT	SEGMENT
?SetState_PATTERN_5@CRaklionBattleOfSelupan@@QAEXXZ PROC ; CRaklionBattleOfSelupan::SetState_PATTERN_5, COMDAT
; _this$ = ecx

; 185  : {

  00000	56		 push	 esi
  00001	8b f1		 mov	 esi, ecx
  00003	57		 push	 edi

; 186  : 	LogAddC(5, "[ RAKLION ][ BattleOfSelupan ] State(%d) -> PATTERN_5 // Life(%d/4800000)", this->m_iBattleOfSelupanState,this->m_RaklionSelupan.GetSelupanLife());

  00004	8d 4e 34	 lea	 ecx, DWORD PTR [esi+52]
  00007	e8 00 00 00 00	 call	 ?GetSelupanLife@CRaklionSelupan@@QAEKXZ ; CRaklionSelupan::GetSelupanLife
  0000c	50		 push	 eax
  0000d	8b 46 08	 mov	 eax, DWORD PTR [esi+8]
  00010	50		 push	 eax
  00011	68 00 00 00 00	 push	 OFFSET ??_C@_0EK@MBMHOFMA@?$FL?5RAKLION?5?$FN?$FL?5BattleOfSelupan?5?$FN?5S@
  00016	6a 05		 push	 5
  00018	ff 15 00 00 00
	00		 call	 DWORD PTR ?LogAddC@@3P6AXEPADZZA ; LogAddC
  0001e	83 c4 10	 add	 esp, 16			; 00000010H

; 187  : 	
; 188  : 	this->m_RaklionSelupan.SelupanAct_Berserk3();

  00021	8d 4e 34	 lea	 ecx, DWORD PTR [esi+52]
  00024	e8 00 00 00 00	 call	 ?SelupanAct_Berserk3@CRaklionSelupan@@QAEXXZ ; CRaklionSelupan::SelupanAct_Berserk3
  00029	5f		 pop	 edi

; 189  : 	
; 190  : 	this->SetBattleOfSelupanState(SELUPAN_STATE_PATTERN_5);

  0002a	c7 46 08 06 00
	00 00		 mov	 DWORD PTR [esi+8], 6
  00031	5e		 pop	 esi

; 191  : }

  00032	c3		 ret	 0
?SetState_PATTERN_5@CRaklionBattleOfSelupan@@QAEXXZ ENDP ; CRaklionBattleOfSelupan::SetState_PATTERN_5
_TEXT	ENDS
PUBLIC	??_C@_0EK@PILPEIIA@?$FL?5RAKLION?5?$FN?$FL?5BattleOfSelupan?5?$FN?5S@ ; `string'
PUBLIC	?SetState_PATTERN_6@CRaklionBattleOfSelupan@@QAEXXZ ; CRaklionBattleOfSelupan::SetState_PATTERN_6
EXTRN	?SelupanAct_Berserk4@CRaklionSelupan@@QAEXXZ:PROC ; CRaklionSelupan::SelupanAct_Berserk4
;	COMDAT ??_C@_0EK@PILPEIIA@?$FL?5RAKLION?5?$FN?$FL?5BattleOfSelupan?5?$FN?5S@
; File c:\muserver_dev\development\mu-s8ep2-repack\gameserver\source\raklionbattleofselupan.h
CONST	SEGMENT
??_C@_0EK@PILPEIIA@?$FL?5RAKLION?5?$FN?$FL?5BattleOfSelupan?5?$FN?5S@ DB '['
	DB	' RAKLION ][ BattleOfSelupan ] State(%d) -> PATTERN_6 // Life('
	DB	'%d/4800000)', 00H				; `string'
; Function compile flags: /Ogtp
; File c:\muserver_dev\development\mu-s8ep2-repack\gameserver\source\raklionbattleofselupan.cpp
CONST	ENDS
;	COMDAT ?SetState_PATTERN_6@CRaklionBattleOfSelupan@@QAEXXZ
_TEXT	SEGMENT
?SetState_PATTERN_6@CRaklionBattleOfSelupan@@QAEXXZ PROC ; CRaklionBattleOfSelupan::SetState_PATTERN_6, COMDAT
; _this$ = ecx

; 194  : {

  00000	56		 push	 esi
  00001	8b f1		 mov	 esi, ecx
  00003	57		 push	 edi

; 195  : 	LogAddC(5, "[ RAKLION ][ BattleOfSelupan ] State(%d) -> PATTERN_6 // Life(%d/4800000)", this->m_iBattleOfSelupanState,this->m_RaklionSelupan.GetSelupanLife());

  00004	8d 4e 34	 lea	 ecx, DWORD PTR [esi+52]
  00007	e8 00 00 00 00	 call	 ?GetSelupanLife@CRaklionSelupan@@QAEKXZ ; CRaklionSelupan::GetSelupanLife
  0000c	50		 push	 eax
  0000d	8b 46 08	 mov	 eax, DWORD PTR [esi+8]
  00010	50		 push	 eax
  00011	68 00 00 00 00	 push	 OFFSET ??_C@_0EK@PILPEIIA@?$FL?5RAKLION?5?$FN?$FL?5BattleOfSelupan?5?$FN?5S@
  00016	6a 05		 push	 5
  00018	ff 15 00 00 00
	00		 call	 DWORD PTR ?LogAddC@@3P6AXEPADZZA ; LogAddC
  0001e	83 c4 10	 add	 esp, 16			; 00000010H

; 196  : 	
; 197  : 	this->m_RaklionSelupan.SelupanAct_Berserk4();

  00021	8d 4e 34	 lea	 ecx, DWORD PTR [esi+52]
  00024	e8 00 00 00 00	 call	 ?SelupanAct_Berserk4@CRaklionSelupan@@QAEXXZ ; CRaklionSelupan::SelupanAct_Berserk4
  00029	5f		 pop	 edi

; 198  : 	
; 199  : 	this->SetBattleOfSelupanState(SELUPAN_STATE_PATTERN_6);

  0002a	c7 46 08 07 00
	00 00		 mov	 DWORD PTR [esi+8], 7
  00031	5e		 pop	 esi

; 200  : }

  00032	c3		 ret	 0
?SetState_PATTERN_6@CRaklionBattleOfSelupan@@QAEXXZ ENDP ; CRaklionBattleOfSelupan::SetState_PATTERN_6
_TEXT	ENDS
PUBLIC	??_C@_0EK@OPJHCMEA@?$FL?5RAKLION?5?$FN?$FL?5BattleOfSelupan?5?$FN?5S@ ; `string'
PUBLIC	?SetState_PATTERN_7@CRaklionBattleOfSelupan@@QAEXXZ ; CRaklionBattleOfSelupan::SetState_PATTERN_7
;	COMDAT ??_C@_0EK@OPJHCMEA@?$FL?5RAKLION?5?$FN?$FL?5BattleOfSelupan?5?$FN?5S@
; File c:\muserver_dev\development\mu-s8ep2-repack\gameserver\source\raklionbattleofselupan.h
CONST	SEGMENT
??_C@_0EK@OPJHCMEA@?$FL?5RAKLION?5?$FN?$FL?5BattleOfSelupan?5?$FN?5S@ DB '['
	DB	' RAKLION ][ BattleOfSelupan ] State(%d) -> PATTERN_7 // Life('
	DB	'%d/4800000)', 00H				; `string'
; Function compile flags: /Ogtp
; File c:\muserver_dev\development\mu-s8ep2-repack\gameserver\source\raklionbattleofselupan.cpp
CONST	ENDS
;	COMDAT ?SetState_PATTERN_7@CRaklionBattleOfSelupan@@QAEXXZ
_TEXT	SEGMENT
?SetState_PATTERN_7@CRaklionBattleOfSelupan@@QAEXXZ PROC ; CRaklionBattleOfSelupan::SetState_PATTERN_7, COMDAT
; _this$ = ecx

; 203  : {

  00000	56		 push	 esi
  00001	8b f1		 mov	 esi, ecx
  00003	57		 push	 edi

; 204  : 	LogAddC(5, "[ RAKLION ][ BattleOfSelupan ] State(%d) -> PATTERN_7 // Life(%d/4800000)", this->m_iBattleOfSelupanState,this->m_RaklionSelupan.GetSelupanLife());

  00004	8d 4e 34	 lea	 ecx, DWORD PTR [esi+52]
  00007	e8 00 00 00 00	 call	 ?GetSelupanLife@CRaklionSelupan@@QAEKXZ ; CRaklionSelupan::GetSelupanLife
  0000c	50		 push	 eax
  0000d	8b 46 08	 mov	 eax, DWORD PTR [esi+8]
  00010	50		 push	 eax
  00011	68 00 00 00 00	 push	 OFFSET ??_C@_0EK@OPJHCMEA@?$FL?5RAKLION?5?$FN?$FL?5BattleOfSelupan?5?$FN?5S@
  00016	6a 05		 push	 5
  00018	ff 15 00 00 00
	00		 call	 DWORD PTR ?LogAddC@@3P6AXEPADZZA ; LogAddC
  0001e	83 c4 10	 add	 esp, 16			; 00000010H

; 205  : 	
; 206  : 	if ( this->m_RaklionSelupan.GetBerserkIndex() != 4 )

  00021	8d 4e 34	 lea	 ecx, DWORD PTR [esi+52]
  00024	e8 00 00 00 00	 call	 ?GetBerserkIndex@CRaklionSelupan@@QAEHXZ ; CRaklionSelupan::GetBerserkIndex
  00029	83 f8 04	 cmp	 eax, 4
  0002c	74 08		 je	 SHORT $LN6@SetState_P@2

; 207  : 	{
; 208  : 		this->m_RaklionSelupan.SelupanAct_Berserk4();

  0002e	8d 4e 34	 lea	 ecx, DWORD PTR [esi+52]
  00031	e8 00 00 00 00	 call	 ?SelupanAct_Berserk4@CRaklionSelupan@@QAEXXZ ; CRaklionSelupan::SelupanAct_Berserk4
$LN6@SetState_P@2:

; 209  : 	}
; 210  : 
; 211  : 	this->SetBattleOfSelupanState(SELUPAN_STATE_PATTERN_7);

  00036	5f		 pop	 edi
  00037	c7 46 08 08 00
	00 00		 mov	 DWORD PTR [esi+8], 8
  0003e	5e		 pop	 esi

; 212  : }

  0003f	c3		 ret	 0
?SetState_PATTERN_7@CRaklionBattleOfSelupan@@QAEXXZ ENDP ; CRaklionBattleOfSelupan::SetState_PATTERN_7
_TEXT	ENDS
PUBLIC	?ProcState_NONE@CRaklionBattleOfSelupan@@QAEXXZ	; CRaklionBattleOfSelupan::ProcState_NONE
; Function compile flags: /Ogtp
;	COMDAT ?ProcState_NONE@CRaklionBattleOfSelupan@@QAEXXZ
_TEXT	SEGMENT
?ProcState_NONE@CRaklionBattleOfSelupan@@QAEXXZ PROC	; CRaklionBattleOfSelupan::ProcState_NONE, COMDAT
; _this$ = ecx

; 244  : 
; 245  : }

  00000	c3		 ret	 0
?ProcState_NONE@CRaklionBattleOfSelupan@@QAEXXZ ENDP	; CRaklionBattleOfSelupan::ProcState_NONE
_TEXT	ENDS
PUBLIC	?ProcState_STANDBY@CRaklionBattleOfSelupan@@QAEXXZ ; CRaklionBattleOfSelupan::ProcState_STANDBY
; Function compile flags: /Ogtp
;	COMDAT ?ProcState_STANDBY@CRaklionBattleOfSelupan@@QAEXXZ
_TEXT	SEGMENT
?ProcState_STANDBY@CRaklionBattleOfSelupan@@QAEXXZ PROC	; CRaklionBattleOfSelupan::ProcState_STANDBY, COMDAT
; _this$ = ecx

; 249  : 
; 250  : }

  00000	c3		 ret	 0
?ProcState_STANDBY@CRaklionBattleOfSelupan@@QAEXXZ ENDP	; CRaklionBattleOfSelupan::ProcState_STANDBY
_TEXT	ENDS
PUBLIC	?ProcState_DIE@CRaklionBattleOfSelupan@@QAEXXZ	; CRaklionBattleOfSelupan::ProcState_DIE
; Function compile flags: /Ogtp
;	COMDAT ?ProcState_DIE@CRaklionBattleOfSelupan@@QAEXXZ
_TEXT	SEGMENT
?ProcState_DIE@CRaklionBattleOfSelupan@@QAEXXZ PROC	; CRaklionBattleOfSelupan::ProcState_DIE, COMDAT
; _this$ = ecx

; 338  : 
; 339  : }

  00000	c3		 ret	 0
?ProcState_DIE@CRaklionBattleOfSelupan@@QAEXXZ ENDP	; CRaklionBattleOfSelupan::ProcState_DIE
_TEXT	ENDS
PUBLIC	?PatternStateSkillUseProc@CRaklionBattleOfSelupan@@QAEXH@Z ; CRaklionBattleOfSelupan::PatternStateSkillUseProc
EXTRN	?GetSelupanSkillDelay@CRaklionSelupan@@QAEHXZ:PROC ; CRaklionSelupan::GetSelupanSkillDelay
EXTRN	__imp__GetTickCount@0:PROC
EXTRN	?SelupanAct_Invincibility@CRaklionSelupan@@QAEXXZ:PROC ; CRaklionSelupan::SelupanAct_Invincibility
EXTRN	?SelupanAct_Teleport@CRaklionSelupan@@QAEXXZ:PROC ; CRaklionSelupan::SelupanAct_Teleport
EXTRN	?SelupanAct_Freeze@CRaklionSelupan@@QAEXXZ:PROC	; CRaklionSelupan::SelupanAct_Freeze
EXTRN	?SelupanAct_Heal@CRaklionSelupan@@QAEXXZ:PROC	; CRaklionSelupan::SelupanAct_Heal
EXTRN	?SelupanAct_SummonMonster@CRaklionSelupan@@QAEXXZ:PROC ; CRaklionSelupan::SelupanAct_SummonMonster
EXTRN	?SelupanAct_IceStrike@CRaklionSelupan@@QAEXXZ:PROC ; CRaklionSelupan::SelupanAct_IceStrike
EXTRN	?SelupanAct_IceStorm@CRaklionSelupan@@QAEXXZ:PROC ; CRaklionSelupan::SelupanAct_IceStorm
EXTRN	?SelupanAct_PoisonAttack@CRaklionSelupan@@QAEXXZ:PROC ; CRaklionSelupan::SelupanAct_PoisonAttack
EXTRN	?SelupanAct_FirstSkill@CRaklionSelupan@@QAEXXZ:PROC ; CRaklionSelupan::SelupanAct_FirstSkill
EXTRN	?gObj@@3PAUOBJECTSTRUCT@@A:DWORD		; gObj
EXTRN	?GetSelupanObjIndex@CRaklionSelupan@@QAEHXZ:PROC ; CRaklionSelupan::GetSelupanObjIndex
; Function compile flags: /Ogtp
;	COMDAT ?PatternStateSkillUseProc@CRaklionBattleOfSelupan@@QAEXH@Z
_TEXT	SEGMENT
_SkillIndex$ = 8					; size = 4
?PatternStateSkillUseProc@CRaklionBattleOfSelupan@@QAEXH@Z PROC ; CRaklionBattleOfSelupan::PatternStateSkillUseProc, COMDAT
; _this$ = ecx

; 342  : {

  00000	55		 push	 ebp
  00001	8b ec		 mov	 ebp, esp
  00003	56		 push	 esi
  00004	57		 push	 edi
  00005	8b f9		 mov	 edi, ecx

; 343  : 	int iSelupanIndex = this->m_RaklionSelupan.GetSelupanObjIndex();

  00007	8d 4f 34	 lea	 ecx, DWORD PTR [edi+52]
  0000a	e8 00 00 00 00	 call	 ?GetSelupanObjIndex@CRaklionSelupan@@QAEHXZ ; CRaklionSelupan::GetSelupanObjIndex

; 344  : 
; 345  : 	LPOBJ lpObj = &gObj[iSelupanIndex];

  0000f	69 c0 40 27 00
	00		 imul	 eax, 10048		; 00002740H
  00015	03 05 00 00 00
	00		 add	 eax, DWORD PTR ?gObj@@3PAUOBJECTSTRUCT@@A ; gObj

; 346  : 
; 347  : 	if ( lpObj->Teleport != 0 || lpObj->m_ActState.Move != FALSE )

  0001b	80 b8 88 05 00
	00 00		 cmp	 BYTE PTR [eax+1416], 0
  00022	0f 85 84 00 00
	00		 jne	 $LN12@PatternSta
  00028	f6 80 c8 01 00
	00 04		 test	 BYTE PTR [eax+456], 4
  0002f	75 7b		 jne	 SHORT $LN12@PatternSta

; 348  : 	{
; 349  : 		return;
; 350  : 	}
; 351  : 
; 352  : 	if ( SkillIndex < 0 || SkillIndex >= 9)

  00031	8b 45 08	 mov	 eax, DWORD PTR _SkillIndex$[ebp]
  00034	83 f8 08	 cmp	 eax, 8
  00037	77 73		 ja	 SHORT $LN12@PatternSta

; 353  : 	{
; 354  : 		return;
; 355  : 	}
; 356  : 
; 357  : 	switch ( SkillIndex )

  00039	ff 24 85 00 00
	00 00		 jmp	 DWORD PTR $LN18@PatternSta[eax*4]
$LN9@PatternSta:

; 358  : 	{
; 359  : 	case SKILL_FIRSTSKILL:		this->m_RaklionSelupan.SelupanAct_FirstSkill();		break;

  00040	8d 4f 34	 lea	 ecx, DWORD PTR [edi+52]
  00043	e8 00 00 00 00	 call	 ?SelupanAct_FirstSkill@CRaklionSelupan@@QAEXXZ ; CRaklionSelupan::SelupanAct_FirstSkill
  00048	eb 4e		 jmp	 SHORT $LN10@PatternSta
$LN8@PatternSta:

; 360  : 	case SKILL_POISON_ATTACK:	this->m_RaklionSelupan.SelupanAct_PoisonAttack();	break;

  0004a	8d 4f 34	 lea	 ecx, DWORD PTR [edi+52]
  0004d	e8 00 00 00 00	 call	 ?SelupanAct_PoisonAttack@CRaklionSelupan@@QAEXXZ ; CRaklionSelupan::SelupanAct_PoisonAttack
  00052	eb 44		 jmp	 SHORT $LN10@PatternSta
$LN7@PatternSta:

; 361  : 	case SKILL_ICESTORM:		this->m_RaklionSelupan.SelupanAct_IceStorm();		break;

  00054	8d 4f 34	 lea	 ecx, DWORD PTR [edi+52]
  00057	e8 00 00 00 00	 call	 ?SelupanAct_IceStorm@CRaklionSelupan@@QAEXXZ ; CRaklionSelupan::SelupanAct_IceStorm
  0005c	eb 3a		 jmp	 SHORT $LN10@PatternSta
$LN6@PatternSta:

; 362  : 	case SKILL_ICESTRIKE:		this->m_RaklionSelupan.SelupanAct_IceStrike();		break;

  0005e	8d 4f 34	 lea	 ecx, DWORD PTR [edi+52]
  00061	e8 00 00 00 00	 call	 ?SelupanAct_IceStrike@CRaklionSelupan@@QAEXXZ ; CRaklionSelupan::SelupanAct_IceStrike
  00066	eb 30		 jmp	 SHORT $LN10@PatternSta
$LN5@PatternSta:

; 363  : 	case SKILL_SUMMON:			this->m_RaklionSelupan.SelupanAct_SummonMonster();	break;

  00068	8d 4f 34	 lea	 ecx, DWORD PTR [edi+52]
  0006b	e8 00 00 00 00	 call	 ?SelupanAct_SummonMonster@CRaklionSelupan@@QAEXXZ ; CRaklionSelupan::SelupanAct_SummonMonster
  00070	eb 26		 jmp	 SHORT $LN10@PatternSta
$LN4@PatternSta:

; 364  : 	case SKILL_HEAL:			this->m_RaklionSelupan.SelupanAct_Heal();			break;

  00072	8d 4f 34	 lea	 ecx, DWORD PTR [edi+52]
  00075	e8 00 00 00 00	 call	 ?SelupanAct_Heal@CRaklionSelupan@@QAEXXZ ; CRaklionSelupan::SelupanAct_Heal
  0007a	eb 1c		 jmp	 SHORT $LN10@PatternSta
$LN3@PatternSta:

; 365  : 	case SKILL_FREEZE:			this->m_RaklionSelupan.SelupanAct_Freeze();			break;

  0007c	8d 4f 34	 lea	 ecx, DWORD PTR [edi+52]
  0007f	e8 00 00 00 00	 call	 ?SelupanAct_Freeze@CRaklionSelupan@@QAEXXZ ; CRaklionSelupan::SelupanAct_Freeze
  00084	eb 12		 jmp	 SHORT $LN10@PatternSta
$LN2@PatternSta:

; 366  : 	case SKILL_TELEPORT:		this->m_RaklionSelupan.SelupanAct_Teleport();		break;

  00086	8d 4f 34	 lea	 ecx, DWORD PTR [edi+52]
  00089	e8 00 00 00 00	 call	 ?SelupanAct_Teleport@CRaklionSelupan@@QAEXXZ ; CRaklionSelupan::SelupanAct_Teleport
  0008e	eb 08		 jmp	 SHORT $LN10@PatternSta
$LN1@PatternSta:

; 367  : 	case SKILL_INVINCIBILITY:	this->m_RaklionSelupan.SelupanAct_Invincibility();	break;

  00090	8d 4f 34	 lea	 ecx, DWORD PTR [edi+52]
  00093	e8 00 00 00 00	 call	 ?SelupanAct_Invincibility@CRaklionSelupan@@QAEXXZ ; CRaklionSelupan::SelupanAct_Invincibility
$LN10@PatternSta:

; 368  : 	}
; 369  : 	
; 370  : 	this->m_dwSkillDelayTick	= GetTickCount();

  00098	ff 15 00 00 00
	00		 call	 DWORD PTR __imp__GetTickCount@0

; 371  : 	this->m_dwSkillDelay		= this->m_RaklionSelupan.GetSelupanSkillDelay();

  0009e	8d 4f 34	 lea	 ecx, DWORD PTR [edi+52]
  000a1	89 47 28	 mov	 DWORD PTR [edi+40], eax
  000a4	e8 00 00 00 00	 call	 ?GetSelupanSkillDelay@CRaklionSelupan@@QAEHXZ ; CRaklionSelupan::GetSelupanSkillDelay
  000a9	89 47 24	 mov	 DWORD PTR [edi+36], eax
$LN12@PatternSta:
  000ac	5f		 pop	 edi
  000ad	5e		 pop	 esi

; 372  : }

  000ae	5d		 pop	 ebp
  000af	c2 04 00	 ret	 4
  000b2	8b ff		 npad	 2
$LN18@PatternSta:
  000b4	00 00 00 00	 DD	 $LN9@PatternSta
  000b8	00 00 00 00	 DD	 $LN8@PatternSta
  000bc	00 00 00 00	 DD	 $LN7@PatternSta
  000c0	00 00 00 00	 DD	 $LN6@PatternSta
  000c4	00 00 00 00	 DD	 $LN5@PatternSta
  000c8	00 00 00 00	 DD	 $LN4@PatternSta
  000cc	00 00 00 00	 DD	 $LN3@PatternSta
  000d0	00 00 00 00	 DD	 $LN2@PatternSta
  000d4	00 00 00 00	 DD	 $LN1@PatternSta
?PatternStateSkillUseProc@CRaklionBattleOfSelupan@@QAEXH@Z ENDP ; CRaklionBattleOfSelupan::PatternStateSkillUseProc
_TEXT	ENDS
PUBLIC	??_C@_0EF@LJPNAIFB@?$FLRAKLION?$FN?$FLSetPatternCondition?$FN?5e@ ; `string'
PUBLIC	?SetPatternCondition@CRaklionBattleOfSelupan@@QAEXHH@Z ; CRaklionBattleOfSelupan::SetPatternCondition
;	COMDAT ??_C@_0EF@LJPNAIFB@?$FLRAKLION?$FN?$FLSetPatternCondition?$FN?5e@
CONST	SEGMENT
??_C@_0EF@LJPNAIFB@?$FLRAKLION?$FN?$FLSetPatternCondition?$FN?5e@ DB '[RA'
	DB	'KLION][SetPatternCondition] error : PatternNum(%d), Condition'
	DB	'(%d)', 00H					; `string'
; Function compile flags: /Ogtp
CONST	ENDS
;	COMDAT ?SetPatternCondition@CRaklionBattleOfSelupan@@QAEXHH@Z
_TEXT	SEGMENT
_iPattern$ = 8						; size = 4
_iCondition$ = 12					; size = 4
?SetPatternCondition@CRaklionBattleOfSelupan@@QAEXHH@Z PROC ; CRaklionBattleOfSelupan::SetPatternCondition, COMDAT
; _this$ = ecx

; 375  : {

  00000	55		 push	 ebp
  00001	8b ec		 mov	 ebp, esp
  00003	53		 push	 ebx
  00004	56		 push	 esi

; 376  : 	if ( iPattern < 0 || iCondition < 0 )

  00005	8b 75 08	 mov	 esi, DWORD PTR _iPattern$[ebp]
  00008	57		 push	 edi
  00009	8b 7d 0c	 mov	 edi, DWORD PTR _iCondition$[ebp]
  0000c	8b d9		 mov	 ebx, ecx
  0000e	85 f6		 test	 esi, esi
  00010	78 04		 js	 SHORT $LN1@SetPattern
  00012	85 ff		 test	 edi, edi
  00014	79 12		 jns	 SHORT $LN5@SetPattern
$LN1@SetPattern:

; 377  : 	{
; 378  : 		LogAddC(2,"[RAKLION][SetPatternCondition] error : PatternNum(%d), Condition(%d)",iPattern,iCondition);

  00016	57		 push	 edi
  00017	56		 push	 esi
  00018	68 00 00 00 00	 push	 OFFSET ??_C@_0EF@LJPNAIFB@?$FLRAKLION?$FN?$FLSetPatternCondition?$FN?5e@
  0001d	6a 02		 push	 2
  0001f	ff 15 00 00 00
	00		 call	 DWORD PTR ?LogAddC@@3P6AXEPADZZA ; LogAddC
  00025	83 c4 10	 add	 esp, 16			; 00000010H
$LN5@SetPattern:

; 379  : 	}
; 380  : 
; 381  : 	this->m_PatternCondition[iPattern] = iCondition;

  00028	89 7c b3 0c	 mov	 DWORD PTR [ebx+esi*4+12], edi
  0002c	5f		 pop	 edi
  0002d	5e		 pop	 esi
  0002e	5b		 pop	 ebx

; 382  : }

  0002f	5d		 pop	 ebp
  00030	c2 08 00	 ret	 8
?SetPatternCondition@CRaklionBattleOfSelupan@@QAEXHH@Z ENDP ; CRaklionBattleOfSelupan::SetPatternCondition
_TEXT	ENDS
PUBLIC	?GetBattleUserCount@CRaklionBattleOfSelupan@@QAEHXZ ; CRaklionBattleOfSelupan::GetBattleUserCount
EXTRN	?GetBattleUserCount@CRaklionBattleUserMng@@QAEHXZ:PROC ; CRaklionBattleUserMng::GetBattleUserCount
EXTRN	?g_RaklionBattleUserMng@@3VCRaklionBattleUserMng@@A:BYTE ; g_RaklionBattleUserMng
; Function compile flags: /Ogtp
;	COMDAT ?GetBattleUserCount@CRaklionBattleOfSelupan@@QAEHXZ
_TEXT	SEGMENT
?GetBattleUserCount@CRaklionBattleOfSelupan@@QAEHXZ PROC ; CRaklionBattleOfSelupan::GetBattleUserCount, COMDAT
; _this$ = ecx

; 476  : 	return g_RaklionBattleUserMng.GetBattleUserCount();

  00000	b9 00 00 00 00	 mov	 ecx, OFFSET ?g_RaklionBattleUserMng@@3VCRaklionBattleUserMng@@A ; g_RaklionBattleUserMng
  00005	e9 00 00 00 00	 jmp	 ?GetBattleUserCount@CRaklionBattleUserMng@@QAEHXZ ; CRaklionBattleUserMng::GetBattleUserCount
?GetBattleUserCount@CRaklionBattleOfSelupan@@QAEHXZ ENDP ; CRaklionBattleOfSelupan::GetBattleUserCount
_TEXT	ENDS
PUBLIC	?CreateSelupan@CRaklionBattleOfSelupan@@QAEXXZ	; CRaklionBattleOfSelupan::CreateSelupan
; Function compile flags: /Ogtp
;	COMDAT ?CreateSelupan@CRaklionBattleOfSelupan@@QAEXXZ
_TEXT	SEGMENT
?CreateSelupan@CRaklionBattleOfSelupan@@QAEXXZ PROC	; CRaklionBattleOfSelupan::CreateSelupan, COMDAT
; _this$ = ecx

; 481  : 	this->m_RaklionSelupan.CreateSelupan();

  00000	83 c1 34	 add	 ecx, 52			; 00000034H
  00003	e9 00 00 00 00	 jmp	 ?CreateSelupan@CRaklionSelupan@@QAEHXZ ; CRaklionSelupan::CreateSelupan
?CreateSelupan@CRaklionBattleOfSelupan@@QAEXXZ ENDP	; CRaklionBattleOfSelupan::CreateSelupan
_TEXT	ENDS
PUBLIC	?DeleteSelupan@CRaklionBattleOfSelupan@@QAEXXZ	; CRaklionBattleOfSelupan::DeleteSelupan
EXTRN	?DeleteSelupan@CRaklionSelupan@@QAEXXZ:PROC	; CRaklionSelupan::DeleteSelupan
; Function compile flags: /Ogtp
;	COMDAT ?DeleteSelupan@CRaklionBattleOfSelupan@@QAEXXZ
_TEXT	SEGMENT
?DeleteSelupan@CRaklionBattleOfSelupan@@QAEXXZ PROC	; CRaklionBattleOfSelupan::DeleteSelupan, COMDAT
; _this$ = ecx

; 486  : 	this->m_RaklionSelupan.DeleteSelupan();

  00000	83 c1 34	 add	 ecx, 52			; 00000034H
  00003	e9 00 00 00 00	 jmp	 ?DeleteSelupan@CRaklionSelupan@@QAEXXZ ; CRaklionSelupan::DeleteSelupan
?DeleteSelupan@CRaklionBattleOfSelupan@@QAEXXZ ENDP	; CRaklionBattleOfSelupan::DeleteSelupan
_TEXT	ENDS
PUBLIC	?GetSelupanObjIndex@CRaklionBattleOfSelupan@@QAEHXZ ; CRaklionBattleOfSelupan::GetSelupanObjIndex
; Function compile flags: /Ogtp
;	COMDAT ?GetSelupanObjIndex@CRaklionBattleOfSelupan@@QAEHXZ
_TEXT	SEGMENT
?GetSelupanObjIndex@CRaklionBattleOfSelupan@@QAEHXZ PROC ; CRaklionBattleOfSelupan::GetSelupanObjIndex, COMDAT
; _this$ = ecx

; 491  : 	return this->m_RaklionSelupan.GetSelupanObjIndex();

  00000	83 c1 34	 add	 ecx, 52			; 00000034H
  00003	e9 00 00 00 00	 jmp	 ?GetSelupanObjIndex@CRaklionSelupan@@QAEHXZ ; CRaklionSelupan::GetSelupanObjIndex
?GetSelupanObjIndex@CRaklionBattleOfSelupan@@QAEHXZ ENDP ; CRaklionBattleOfSelupan::GetSelupanObjIndex
_TEXT	ENDS
PUBLIC	?DeleteSummonMonster@CRaklionBattleOfSelupan@@QAEXXZ ; CRaklionBattleOfSelupan::DeleteSummonMonster
EXTRN	?DeleteSummonMonster@CRaklionSelupan@@QAEXXZ:PROC ; CRaklionSelupan::DeleteSummonMonster
; Function compile flags: /Ogtp
;	COMDAT ?DeleteSummonMonster@CRaklionBattleOfSelupan@@QAEXXZ
_TEXT	SEGMENT
?DeleteSummonMonster@CRaklionBattleOfSelupan@@QAEXXZ PROC ; CRaklionBattleOfSelupan::DeleteSummonMonster, COMDAT
; _this$ = ecx

; 496  : 	this->m_RaklionSelupan.DeleteSummonMonster();

  00000	83 c1 34	 add	 ecx, 52			; 00000034H
  00003	e9 00 00 00 00	 jmp	 ?DeleteSummonMonster@CRaklionSelupan@@QAEXXZ ; CRaklionSelupan::DeleteSummonMonster
?DeleteSummonMonster@CRaklionBattleOfSelupan@@QAEXXZ ENDP ; CRaklionBattleOfSelupan::DeleteSummonMonster
_TEXT	ENDS
PUBLIC	?SetSelupanSkillDelay@CRaklionBattleOfSelupan@@QAEXH@Z ; CRaklionBattleOfSelupan::SetSelupanSkillDelay
EXTRN	?SetSelupanSkillDelay@CRaklionSelupan@@QAEXH@Z:PROC ; CRaklionSelupan::SetSelupanSkillDelay
; Function compile flags: /Ogtp
;	COMDAT ?SetSelupanSkillDelay@CRaklionBattleOfSelupan@@QAEXH@Z
_TEXT	SEGMENT
_SkillDelay$ = 8					; size = 4
?SetSelupanSkillDelay@CRaklionBattleOfSelupan@@QAEXH@Z PROC ; CRaklionBattleOfSelupan::SetSelupanSkillDelay, COMDAT
; _this$ = ecx

; 500  : {

  00000	55		 push	 ebp
  00001	8b ec		 mov	 ebp, esp

; 501  : 	this->m_RaklionSelupan.SetSelupanSkillDelay(SkillDelay);

  00003	83 c1 34	 add	 ecx, 52			; 00000034H

; 502  : }

  00006	5d		 pop	 ebp

; 501  : 	this->m_RaklionSelupan.SetSelupanSkillDelay(SkillDelay);

  00007	e9 00 00 00 00	 jmp	 ?SetSelupanSkillDelay@CRaklionSelupan@@QAEXH@Z ; CRaklionSelupan::SetSelupanSkillDelay
?SetSelupanSkillDelay@CRaklionBattleOfSelupan@@QAEXH@Z ENDP ; CRaklionBattleOfSelupan::SetSelupanSkillDelay
_TEXT	ENDS
PUBLIC	??_C@_0EA@NKBJDPKP@?$FLRAKLION?$FN?5?$FLGmCommandSelupanPatte@ ; `string'
PUBLIC	?GmCommandSelupanPattern@CRaklionBattleOfSelupan@@QAEXH@Z ; CRaklionBattleOfSelupan::GmCommandSelupanPattern
EXTRN	?SetSelupanLife@CRaklionSelupan@@QAEXH@Z:PROC	; CRaklionSelupan::SetSelupanLife
;	COMDAT ??_C@_0EA@NKBJDPKP@?$FLRAKLION?$FN?5?$FLGmCommandSelupanPatte@
CONST	SEGMENT
??_C@_0EA@NKBJDPKP@?$FLRAKLION?$FN?5?$FLGmCommandSelupanPatte@ DB '[RAKLI'
	DB	'ON] [GmCommandSelupanPattern] Invalid pattern number : %d', 00H ; `string'
; Function compile flags: /Ogtp
CONST	ENDS
;	COMDAT ?GmCommandSelupanPattern@CRaklionBattleOfSelupan@@QAEXH@Z
_TEXT	SEGMENT
_StatePattern$ = 8					; size = 4
?GmCommandSelupanPattern@CRaklionBattleOfSelupan@@QAEXH@Z PROC ; CRaklionBattleOfSelupan::GmCommandSelupanPattern, COMDAT
; _this$ = ecx

; 505  : {

  00000	55		 push	 ebp
  00001	8b ec		 mov	 ebp, esp

; 506  : 	if ( StatePattern < 2 || StatePattern > 8)

  00003	8b 45 08	 mov	 eax, DWORD PTR _StatePattern$[ebp]
  00006	8d 50 fe	 lea	 edx, DWORD PTR [eax-2]
  00009	83 fa 06	 cmp	 edx, 6
  0000c	77 71		 ja	 SHORT $LN10@GmCommandS

; 509  : 		return;
; 510  : 	}
; 511  : 	
; 512  : 	switch(StatePattern)

  0000e	83 c0 fe	 add	 eax, -2			; fffffffeH
  00011	83 f8 06	 cmp	 eax, 6
  00014	77 7a		 ja	 SHORT $LN8@GmCommandS
  00016	ff 24 85 00 00
	00 00		 jmp	 DWORD PTR $LN14@GmCommandS[eax*4]
$LN7@GmCommandS:

; 513  : 	{
; 514  : 	case 2: this->m_RaklionSelupan.SetSelupanLife(100);	break;

  0001d	6a 64		 push	 100			; 00000064H
  0001f	83 c1 34	 add	 ecx, 52			; 00000034H
  00022	e8 00 00 00 00	 call	 ?SetSelupanLife@CRaklionSelupan@@QAEXH@Z ; CRaklionSelupan::SetSelupanLife

; 521  : 	}
; 522  : }

  00027	5d		 pop	 ebp
  00028	c2 04 00	 ret	 4
$LN6@GmCommandS:

; 515  : 	case 3: this->m_RaklionSelupan.SetSelupanLife(80);	break;

  0002b	6a 50		 push	 80			; 00000050H
  0002d	83 c1 34	 add	 ecx, 52			; 00000034H
  00030	e8 00 00 00 00	 call	 ?SetSelupanLife@CRaklionSelupan@@QAEXH@Z ; CRaklionSelupan::SetSelupanLife

; 521  : 	}
; 522  : }

  00035	5d		 pop	 ebp
  00036	c2 04 00	 ret	 4
$LN5@GmCommandS:

; 516  : 	case 4:	this->m_RaklionSelupan.SetSelupanLife(60);	break;

  00039	6a 3c		 push	 60			; 0000003cH
  0003b	83 c1 34	 add	 ecx, 52			; 00000034H
  0003e	e8 00 00 00 00	 call	 ?SetSelupanLife@CRaklionSelupan@@QAEXH@Z ; CRaklionSelupan::SetSelupanLife

; 521  : 	}
; 522  : }

  00043	5d		 pop	 ebp
  00044	c2 04 00	 ret	 4
$LN4@GmCommandS:

; 517  : 	case 5:	this->m_RaklionSelupan.SetSelupanLife(50);	break;

  00047	6a 32		 push	 50			; 00000032H
  00049	83 c1 34	 add	 ecx, 52			; 00000034H
  0004c	e8 00 00 00 00	 call	 ?SetSelupanLife@CRaklionSelupan@@QAEXH@Z ; CRaklionSelupan::SetSelupanLife

; 521  : 	}
; 522  : }

  00051	5d		 pop	 ebp
  00052	c2 04 00	 ret	 4
$LN3@GmCommandS:

; 518  : 	case 6:	this->m_RaklionSelupan.SetSelupanLife(40);	break;

  00055	6a 28		 push	 40			; 00000028H
  00057	83 c1 34	 add	 ecx, 52			; 00000034H
  0005a	e8 00 00 00 00	 call	 ?SetSelupanLife@CRaklionSelupan@@QAEXH@Z ; CRaklionSelupan::SetSelupanLife

; 521  : 	}
; 522  : }

  0005f	5d		 pop	 ebp
  00060	c2 04 00	 ret	 4
$LN2@GmCommandS:

; 519  : 	case 7:	this->m_RaklionSelupan.SetSelupanLife(20);	break;

  00063	6a 14		 push	 20			; 00000014H
  00065	83 c1 34	 add	 ecx, 52			; 00000034H
  00068	e8 00 00 00 00	 call	 ?SetSelupanLife@CRaklionSelupan@@QAEXH@Z ; CRaklionSelupan::SetSelupanLife

; 521  : 	}
; 522  : }

  0006d	5d		 pop	 ebp
  0006e	c2 04 00	 ret	 4
$LN1@GmCommandS:

; 520  : 	case 8:	this->m_RaklionSelupan.SetSelupanLife(10);	break;

  00071	6a 0a		 push	 10			; 0000000aH
  00073	83 c1 34	 add	 ecx, 52			; 00000034H
  00076	e8 00 00 00 00	 call	 ?SetSelupanLife@CRaklionSelupan@@QAEXH@Z ; CRaklionSelupan::SetSelupanLife

; 521  : 	}
; 522  : }

  0007b	5d		 pop	 ebp
  0007c	c2 04 00	 ret	 4
$LN10@GmCommandS:

; 507  : 	{
; 508  : 		LogAddC(2,"[RAKLION] [GmCommandSelupanPattern] Invalid pattern number : %d",StatePattern);

  0007f	50		 push	 eax
  00080	68 00 00 00 00	 push	 OFFSET ??_C@_0EA@NKBJDPKP@?$FLRAKLION?$FN?5?$FLGmCommandSelupanPatte@
  00085	6a 02		 push	 2
  00087	ff 15 00 00 00
	00		 call	 DWORD PTR ?LogAddC@@3P6AXEPADZZA ; LogAddC
  0008d	83 c4 0c	 add	 esp, 12			; 0000000cH
$LN8@GmCommandS:

; 521  : 	}
; 522  : }

  00090	5d		 pop	 ebp
  00091	c2 04 00	 ret	 4
$LN14@GmCommandS:
  00094	00 00 00 00	 DD	 $LN7@GmCommandS
  00098	00 00 00 00	 DD	 $LN6@GmCommandS
  0009c	00 00 00 00	 DD	 $LN5@GmCommandS
  000a0	00 00 00 00	 DD	 $LN4@GmCommandS
  000a4	00 00 00 00	 DD	 $LN3@GmCommandS
  000a8	00 00 00 00	 DD	 $LN2@GmCommandS
  000ac	00 00 00 00	 DD	 $LN1@GmCommandS
?GmCommandSelupanPattern@CRaklionBattleOfSelupan@@QAEXH@Z ENDP ; CRaklionBattleOfSelupan::GmCommandSelupanPattern
_TEXT	ENDS
PUBLIC	??_EOBJECTSTRUCT@@QAEPAXI@Z			; OBJECTSTRUCT::`vector deleting destructor'
EXTRN	??3@YAXPAX@Z:PROC				; operator delete
EXTRN	??_V@YAXPAX@Z:PROC				; operator delete[]
EXTRN	??_M@YGXPAXIHP6EX0@Z@Z:PROC			; `eh vector destructor iterator'
;	COMDAT xdata$x
xdata$x	SEGMENT
__unwindtable$??_EOBJECTSTRUCT@@QAEPAXI@Z DD 0ffffffffH
	DD	FLAT:__unwindfunclet$??_EOBJECTSTRUCT@@QAEPAXI@Z$0
__ehfuncinfo$??_EOBJECTSTRUCT@@QAEPAXI@Z DD 019930522H
	DD	01H
	DD	FLAT:__unwindtable$??_EOBJECTSTRUCT@@QAEPAXI@Z
	DD	2 DUP(00H)
	DD	2 DUP(00H)
	DD	00H
	DD	01H
; Function compile flags: /Ogtp
xdata$x	ENDS
;	COMDAT ??_EOBJECTSTRUCT@@QAEPAXI@Z
_TEXT	SEGMENT
_this$ = -16						; size = 4
__$EHRec$ = -12						; size = 12
___flags$ = 8						; size = 4
??_EOBJECTSTRUCT@@QAEPAXI@Z PROC			; OBJECTSTRUCT::`vector deleting destructor', COMDAT
; _this$ = ecx
  00000	55		 push	 ebp
  00001	8b ec		 mov	 ebp, esp
  00003	6a ff		 push	 -1
  00005	68 00 00 00 00	 push	 __ehhandler$??_EOBJECTSTRUCT@@QAEPAXI@Z
  0000a	64 a1 00 00 00
	00		 mov	 eax, DWORD PTR fs:0
  00010	50		 push	 eax
  00011	51		 push	 ecx
  00012	53		 push	 ebx
  00013	56		 push	 esi
  00014	57		 push	 edi
  00015	a1 00 00 00 00	 mov	 eax, DWORD PTR ___security_cookie
  0001a	33 c5		 xor	 eax, ebp
  0001c	50		 push	 eax
  0001d	8d 45 f4	 lea	 eax, DWORD PTR __$EHRec$[ebp]
  00020	64 a3 00 00 00
	00		 mov	 DWORD PTR fs:0, eax
  00026	8b f1		 mov	 esi, ecx
  00028	89 75 f0	 mov	 DWORD PTR _this$[ebp], esi
  0002b	8a 5d 08	 mov	 bl, BYTE PTR ___flags$[ebp]
  0002e	f6 c3 02	 test	 bl, 2
  00031	74 3b		 je	 SHORT $LN3@vector
  00033	8b 46 fc	 mov	 eax, DWORD PTR [esi-4]
  00036	68 00 00 00 00	 push	 OFFSET ??1OBJECTSTRUCT@@QAE@XZ
  0003b	8d 7e fc	 lea	 edi, DWORD PTR [esi-4]
  0003e	50		 push	 eax
  0003f	68 40 27 00 00	 push	 10048			; 00002740H
  00044	56		 push	 esi
  00045	e8 00 00 00 00	 call	 ??_M@YGXPAXIHP6EX0@Z@Z
  0004a	f6 c3 01	 test	 bl, 1
  0004d	74 09		 je	 SHORT $LN2@vector
  0004f	57		 push	 edi
  00050	e8 00 00 00 00	 call	 ??_V@YAXPAX@Z		; operator delete[]
  00055	83 c4 04	 add	 esp, 4
$LN2@vector:
  00058	8b c7		 mov	 eax, edi
  0005a	8b 4d f4	 mov	 ecx, DWORD PTR __$EHRec$[ebp]
  0005d	64 89 0d 00 00
	00 00		 mov	 DWORD PTR fs:0, ecx
  00064	59		 pop	 ecx
  00065	5f		 pop	 edi
  00066	5e		 pop	 esi
  00067	5b		 pop	 ebx
  00068	8b e5		 mov	 esp, ebp
  0006a	5d		 pop	 ebp
  0006b	c2 04 00	 ret	 4
$LN3@vector:
  0006e	8d 8e ec 20 00
	00		 lea	 ecx, DWORD PTR [esi+8428]
  00074	c7 45 fc 00 00
	00 00		 mov	 DWORD PTR __$EHRec$[ebp+8], 0
  0007b	e8 00 00 00 00	 call	 ??1TMonsterAIAgro@@UAE@XZ ; TMonsterAIAgro::~TMonsterAIAgro
  00080	8d 8e 0c 16 00
	00		 lea	 ecx, DWORD PTR [esi+5644]
  00086	c7 45 fc ff ff
	ff ff		 mov	 DWORD PTR __$EHRec$[ebp+8], -1
  0008d	e8 00 00 00 00	 call	 ??1CSkillDelay@@UAE@XZ	; CSkillDelay::~CSkillDelay
  00092	f6 c3 01	 test	 bl, 1
  00095	74 09		 je	 SHORT $LN1@vector
  00097	56		 push	 esi
  00098	e8 00 00 00 00	 call	 ??3@YAXPAX@Z		; operator delete
  0009d	83 c4 04	 add	 esp, 4
$LN1@vector:
  000a0	8b c6		 mov	 eax, esi
  000a2	8b 4d f4	 mov	 ecx, DWORD PTR __$EHRec$[ebp]
  000a5	64 89 0d 00 00
	00 00		 mov	 DWORD PTR fs:0, ecx
  000ac	59		 pop	 ecx
  000ad	5f		 pop	 edi
  000ae	5e		 pop	 esi
  000af	5b		 pop	 ebx
  000b0	8b e5		 mov	 esp, ebp
  000b2	5d		 pop	 ebp
  000b3	c2 04 00	 ret	 4
_TEXT	ENDS
;	COMDAT text$x
text$x	SEGMENT
__unwindfunclet$??_EOBJECTSTRUCT@@QAEPAXI@Z$0:
  00000	8b 4d f0	 mov	 ecx, DWORD PTR _this$[ebp]
  00003	81 c1 0c 16 00
	00		 add	 ecx, 5644		; 0000160cH
  00009	e9 00 00 00 00	 jmp	 ??1CSkillDelay@@UAE@XZ	; CSkillDelay::~CSkillDelay
__ehhandler$??_EOBJECTSTRUCT@@QAEPAXI@Z:
  0000e	8b 54 24 08	 mov	 edx, DWORD PTR [esp+8]
  00012	8d 42 0c	 lea	 eax, DWORD PTR [edx+12]
  00015	8b 4a ec	 mov	 ecx, DWORD PTR [edx-20]
  00018	33 c8		 xor	 ecx, eax
  0001a	e8 00 00 00 00	 call	 @__security_check_cookie@4
  0001f	b8 00 00 00 00	 mov	 eax, OFFSET __ehfuncinfo$??_EOBJECTSTRUCT@@QAEPAXI@Z
  00024	e9 00 00 00 00	 jmp	 ___CxxFrameHandler3
text$x	ENDS
??_EOBJECTSTRUCT@@QAEPAXI@Z ENDP			; OBJECTSTRUCT::`vector deleting destructor'
PUBLIC	??0CRaklionBattleOfSelupan@@QAE@XZ		; CRaklionBattleOfSelupan::CRaklionBattleOfSelupan
EXTRN	??0CRaklionSelupan@@QAE@XZ:PROC			; CRaklionSelupan::CRaklionSelupan
; Function compile flags: /Ogtp
;	COMDAT ??0CRaklionBattleOfSelupan@@QAE@XZ
_TEXT	SEGMENT
??0CRaklionBattleOfSelupan@@QAE@XZ PROC			; CRaklionBattleOfSelupan::CRaklionBattleOfSelupan, COMDAT
; _this$ = ecx

; 17   : {

  00000	56		 push	 esi
  00001	8b f1		 mov	 esi, ecx
  00003	8d 4e 34	 lea	 ecx, DWORD PTR [esi+52]
  00006	c7 06 00 00 00
	00		 mov	 DWORD PTR [esi], OFFSET ??_7CRaklionBattleOfSelupan@@6B@
  0000c	e8 00 00 00 00	 call	 ??0CRaklionSelupan@@QAE@XZ ; CRaklionSelupan::CRaklionSelupan

; 18   : 	this->ResetAllData();

  00011	8b ce		 mov	 ecx, esi
  00013	e8 00 00 00 00	 call	 ?ResetAllData@CRaklionBattleOfSelupan@@QAEXXZ ; CRaklionBattleOfSelupan::ResetAllData

; 19   : }

  00018	8b c6		 mov	 eax, esi
  0001a	5e		 pop	 esi
  0001b	c3		 ret	 0
??0CRaklionBattleOfSelupan@@QAE@XZ ENDP			; CRaklionBattleOfSelupan::CRaklionBattleOfSelupan
; Function compile flags: /Ogtp
_TEXT	ENDS
;	COMDAT ??_GCRaklionBattleOfSelupan@@UAEPAXI@Z
_TEXT	SEGMENT
___flags$ = 8						; size = 4
??_GCRaklionBattleOfSelupan@@UAEPAXI@Z PROC		; CRaklionBattleOfSelupan::`scalar deleting destructor', COMDAT
; _this$ = ecx
  00000	55		 push	 ebp
  00001	8b ec		 mov	 ebp, esp
  00003	56		 push	 esi
  00004	8b f1		 mov	 esi, ecx
  00006	e8 00 00 00 00	 call	 ??1CRaklionBattleOfSelupan@@UAE@XZ ; CRaklionBattleOfSelupan::~CRaklionBattleOfSelupan
  0000b	f6 45 08 01	 test	 BYTE PTR ___flags$[ebp], 1
  0000f	74 09		 je	 SHORT $LN4@scalar
  00011	56		 push	 esi
  00012	e8 00 00 00 00	 call	 ??3@YAXPAX@Z		; operator delete
  00017	83 c4 04	 add	 esp, 4
$LN4@scalar:
  0001a	8b c6		 mov	 eax, esi
  0001c	5e		 pop	 esi
  0001d	5d		 pop	 ebp
  0001e	c2 04 00	 ret	 4
??_GCRaklionBattleOfSelupan@@UAEPAXI@Z ENDP		; CRaklionBattleOfSelupan::`scalar deleting destructor'
_TEXT	ENDS
PUBLIC	??_C@_0DO@FBHKOMND@?$FLRaklion?$FN?$FLSelupanDie?$FN?5?$CFd?1?$CFd?1?$CFd?5?$CF@ ; `string'
PUBLIC	??_C@_0DA@HPEHDIEE@?$FL?5RAKLION?5?$FN?$FL?5BattleOfSelupan?5?$FN?5S@ ; `string'
PUBLIC	?SetState_DIE@CRaklionBattleOfSelupan@@QAEXXZ	; CRaklionBattleOfSelupan::SetState_DIE
EXTRN	?LogAdd@@3P6AXPADZZA:DWORD			; LogAdd
EXTRN	?GetBattleUserIndex@CRaklionBattleUserMng@@QAEHH@Z:PROC ; CRaklionBattleUserMng::GetBattleUserIndex
EXTRN	?SendMsgAllUser@CRaklionUtil@@QAAXPADZZ:PROC	; CRaklionUtil::SendMsgAllUser
EXTRN	?g_RaklionUtil@@3VCRaklionUtil@@A:DWORD		; g_RaklionUtil
EXTRN	?Get@Message@@QAEPADH@Z:PROC			; Message::Get
EXTRN	?lMsg@@3VMessage@@A:BYTE			; lMsg
EXTRN	?GetSelupanTargetIndex@CRaklionSelupan@@QAEHXZ:PROC ; CRaklionSelupan::GetSelupanTargetIndex
;	COMDAT ??_C@_0DO@FBHKOMND@?$FLRaklion?$FN?$FLSelupanDie?$FN?5?$CFd?1?$CFd?1?$CFd?5?$CF@
; File c:\muserver_dev\development\mu-s8ep2-repack\gameserver\source\raklionbattleofselupan.h
CONST	SEGMENT
??_C@_0DO@FBHKOMND@?$FLRaklion?$FN?$FLSelupanDie?$FN?5?$CFd?1?$CFd?1?$CFd?5?$CF@ DB '['
	DB	'Raklion][SelupanDie] %d/%d/%d %d:%d:%d %dth Winner : %s (%s)', 00H ; `string'
CONST	ENDS
;	COMDAT ??_C@_0DA@HPEHDIEE@?$FL?5RAKLION?5?$FN?$FL?5BattleOfSelupan?5?$FN?5S@
CONST	SEGMENT
??_C@_0DA@HPEHDIEE@?$FL?5RAKLION?5?$FN?$FL?5BattleOfSelupan?5?$FN?5S@ DB '['
	DB	' RAKLION ][ BattleOfSelupan ] State(%d) -> DIE', 00H ; `string'
; Function compile flags: /Ogtp
; File c:\muserver_dev\development\mu-s8ep2-repack\gameserver\source\raklionbattleofselupan.cpp
CONST	ENDS
;	COMDAT ?SetState_DIE@CRaklionBattleOfSelupan@@QAEXXZ
_TEXT	SEGMENT
_ltime$ = -12						; size = 8
_this$ = -4						; size = 4
?SetState_DIE@CRaklionBattleOfSelupan@@QAEXXZ PROC	; CRaklionBattleOfSelupan::SetState_DIE, COMDAT
; _this$ = ecx

; 215  : {

  00000	55		 push	 ebp
  00001	8b ec		 mov	 ebp, esp
  00003	83 ec 0c	 sub	 esp, 12			; 0000000cH
  00006	53		 push	 ebx
  00007	56		 push	 esi
  00008	8b d9		 mov	 ebx, ecx

; 216  : 	LogAddC(5, "[ RAKLION ][ BattleOfSelupan ] State(%d) -> DIE", this->m_iBattleOfSelupanState);

  0000a	8b 43 08	 mov	 eax, DWORD PTR [ebx+8]
  0000d	57		 push	 edi
  0000e	50		 push	 eax
  0000f	68 00 00 00 00	 push	 OFFSET ??_C@_0DA@HPEHDIEE@?$FL?5RAKLION?5?$FN?$FL?5BattleOfSelupan?5?$FN?5S@
  00014	6a 05		 push	 5
  00016	89 5d fc	 mov	 DWORD PTR _this$[ebp], ebx
  00019	ff 15 00 00 00
	00		 call	 DWORD PTR ?LogAddC@@3P6AXEPADZZA ; LogAddC
  0001f	83 c4 0c	 add	 esp, 12			; 0000000cH

; 217  : 	
; 218  : 	this->m_RaklionSelupan.SelupanAct_BerserkCansel();

  00022	8d 4b 34	 lea	 ecx, DWORD PTR [ebx+52]
  00025	e8 00 00 00 00	 call	 ?SelupanAct_BerserkCansel@CRaklionSelupan@@QAEXXZ ; CRaklionSelupan::SelupanAct_BerserkCansel

; 219  : 	
; 220  : 	this->DeleteSummonMonster();

  0002a	8b cb		 mov	 ecx, ebx
  0002c	e8 00 00 00 00	 call	 ?DeleteSummonMonster@CRaklionBattleOfSelupan@@QAEXXZ ; CRaklionBattleOfSelupan::DeleteSummonMonster

; 221  : 	
; 222  : 	int aIndex = this->m_RaklionSelupan.GetSelupanTargetIndex();

  00031	8d 4b 34	 lea	 ecx, DWORD PTR [ebx+52]
  00034	e8 00 00 00 00	 call	 ?GetSelupanTargetIndex@CRaklionSelupan@@QAEHXZ ; CRaklionSelupan::GetSelupanTargetIndex

; 223  : 
; 224  : 	LPOBJ lpObj = &gObj[aIndex];

  00039	69 c0 40 27 00
	00		 imul	 eax, 10048		; 00002740H
  0003f	03 05 00 00 00
	00		 add	 eax, DWORD PTR ?gObj@@3PAUOBJECTSTRUCT@@A ; gObj

; 225  : 
; 226  : 	g_RaklionUtil.SendMsgAllUser(lMsg.Get(3412),lpObj->Name);

  00045	b9 00 00 00 00	 mov	 ecx, OFFSET ?lMsg@@3VMessage@@A ; lMsg
  0004a	83 c0 5d	 add	 eax, 93			; 0000005dH
  0004d	50		 push	 eax
  0004e	68 54 0d 00 00	 push	 3412			; 00000d54H
  00053	e8 00 00 00 00	 call	 ?Get@Message@@QAEPADH@Z	; Message::Get
  00058	50		 push	 eax
  00059	68 00 00 00 00	 push	 OFFSET ?g_RaklionUtil@@3VCRaklionUtil@@A ; g_RaklionUtil
  0005e	e8 00 00 00 00	 call	 ?SendMsgAllUser@CRaklionUtil@@QAAXPADZZ ; CRaklionUtil::SendMsgAllUser

; 227  : 
; 228  : 	time_t ltime;
; 229  : 	time(&ltime);

  00063	8d 4d f4	 lea	 ecx, DWORD PTR _ltime$[ebp]
  00066	51		 push	 ecx
  00067	e8 00 00 00 00	 call	 __time64

; 230  : 	tm * today=localtime(&ltime);

  0006c	8d 55 f4	 lea	 edx, DWORD PTR _ltime$[ebp]
  0006f	52		 push	 edx
  00070	e8 00 00 00 00	 call	 __localtime64
  00075	83 c4 14	 add	 esp, 20			; 00000014H

; 231  : 
; 232  : 	for ( int i = 0; i < g_RaklionBattleUserMng.GetBattleUserCount(); ++i )

  00078	b9 00 00 00 00	 mov	 ecx, OFFSET ?g_RaklionBattleUserMng@@3VCRaklionBattleUserMng@@A ; g_RaklionBattleUserMng
  0007d	8b f0		 mov	 esi, eax
  0007f	33 ff		 xor	 edi, edi
  00081	e8 00 00 00 00	 call	 ?GetBattleUserCount@CRaklionBattleUserMng@@QAEHXZ ; CRaklionBattleUserMng::GetBattleUserCount
  00086	85 c0		 test	 eax, eax
  00088	0f 8e 8b 00 00
	00		 jle	 $LN14@SetState_D
  0008e	8b ff		 npad	 2
$LL3@SetState_D:

; 233  : 	{
; 234  : 		LogAdd("[Raklion][SelupanDie] %d/%d/%d %d:%d:%d %dth Winner : %s (%s)",
; 235  : 			today->tm_year+1900,today->tm_mon+1,today->tm_mday,today->tm_hour,
; 236  : 			today->tm_min,today->tm_sec,i+1,gObj[g_RaklionBattleUserMng.GetBattleUserIndex(i)].Name,gObj[g_RaklionBattleUserMng.GetBattleUserIndex(i)].AccountID);

  00090	57		 push	 edi
  00091	b9 00 00 00 00	 mov	 ecx, OFFSET ?g_RaklionBattleUserMng@@3VCRaklionBattleUserMng@@A ; g_RaklionBattleUserMng
  00096	8d 5f 01	 lea	 ebx, DWORD PTR [edi+1]
  00099	e8 00 00 00 00	 call	 ?GetBattleUserIndex@CRaklionBattleUserMng@@QAEHH@Z ; CRaklionBattleUserMng::GetBattleUserIndex
  0009e	69 c0 40 27 00
	00		 imul	 eax, 10048		; 00002740H
  000a4	8b 0d 00 00 00
	00		 mov	 ecx, DWORD PTR ?gObj@@3PAUOBJECTSTRUCT@@A ; gObj
  000aa	8d 54 08 52	 lea	 edx, DWORD PTR [eax+ecx+82]
  000ae	52		 push	 edx
  000af	57		 push	 edi
  000b0	b9 00 00 00 00	 mov	 ecx, OFFSET ?g_RaklionBattleUserMng@@3VCRaklionBattleUserMng@@A ; g_RaklionBattleUserMng
  000b5	e8 00 00 00 00	 call	 ?GetBattleUserIndex@CRaklionBattleUserMng@@QAEHH@Z ; CRaklionBattleUserMng::GetBattleUserIndex
  000ba	69 c0 40 27 00
	00		 imul	 eax, 10048		; 00002740H
  000c0	8b 0d 00 00 00
	00		 mov	 ecx, DWORD PTR ?gObj@@3PAUOBJECTSTRUCT@@A ; gObj
  000c6	8d 54 08 5d	 lea	 edx, DWORD PTR [eax+ecx+93]
  000ca	8b 06		 mov	 eax, DWORD PTR [esi]
  000cc	8b 4e 04	 mov	 ecx, DWORD PTR [esi+4]
  000cf	52		 push	 edx
  000d0	8b 56 08	 mov	 edx, DWORD PTR [esi+8]
  000d3	53		 push	 ebx
  000d4	50		 push	 eax
  000d5	8b 46 0c	 mov	 eax, DWORD PTR [esi+12]
  000d8	51		 push	 ecx
  000d9	8b 4e 10	 mov	 ecx, DWORD PTR [esi+16]
  000dc	52		 push	 edx
  000dd	8b 56 14	 mov	 edx, DWORD PTR [esi+20]
  000e0	50		 push	 eax
  000e1	41		 inc	 ecx
  000e2	51		 push	 ecx
  000e3	81 c2 6c 07 00
	00		 add	 edx, 1900		; 0000076cH
  000e9	52		 push	 edx
  000ea	68 00 00 00 00	 push	 OFFSET ??_C@_0DO@FBHKOMND@?$FLRaklion?$FN?$FLSelupanDie?$FN?5?$CFd?1?$CFd?1?$CFd?5?$CF@
  000ef	ff 15 00 00 00
	00		 call	 DWORD PTR ?LogAdd@@3P6AXPADZZA ; LogAdd
  000f5	83 c4 28	 add	 esp, 40			; 00000028H
  000f8	b9 00 00 00 00	 mov	 ecx, OFFSET ?g_RaklionBattleUserMng@@3VCRaklionBattleUserMng@@A ; g_RaklionBattleUserMng
  000fd	8b fb		 mov	 edi, ebx
  000ff	e8 00 00 00 00	 call	 ?GetBattleUserCount@CRaklionBattleUserMng@@QAEHXZ ; CRaklionBattleUserMng::GetBattleUserCount
  00104	3b f8		 cmp	 edi, eax
  00106	7c 88		 jl	 SHORT $LL3@SetState_D

; 237  : 	}
; 238  : 
; 239  : 	this->SetBattleOfSelupanState(SELUPAN_STATE_DIE);

  00108	8b 45 fc	 mov	 eax, DWORD PTR _this$[ebp]
  0010b	5f		 pop	 edi
  0010c	5e		 pop	 esi
  0010d	c7 40 08 09 00
	00 00		 mov	 DWORD PTR [eax+8], 9
  00114	5b		 pop	 ebx

; 240  : }

  00115	8b e5		 mov	 esp, ebp
  00117	5d		 pop	 ebp
  00118	c3		 ret	 0
$LN14@SetState_D:
  00119	5f		 pop	 edi
  0011a	5e		 pop	 esi

; 237  : 	}
; 238  : 
; 239  : 	this->SetBattleOfSelupanState(SELUPAN_STATE_DIE);

  0011b	c7 43 08 09 00
	00 00		 mov	 DWORD PTR [ebx+8], 9
  00122	5b		 pop	 ebx

; 240  : }

  00123	8b e5		 mov	 esp, ebp
  00125	5d		 pop	 ebp
  00126	c3		 ret	 0
?SetState_DIE@CRaklionBattleOfSelupan@@QAEXXZ ENDP	; CRaklionBattleOfSelupan::SetState_DIE
_TEXT	ENDS
PUBLIC	?ProcState_PATTERN_1@CRaklionBattleOfSelupan@@QAEXXZ ; CRaklionBattleOfSelupan::ProcState_PATTERN_1
EXTRN	_rand:PROC
; Function compile flags: /Ogtp
;	COMDAT ?ProcState_PATTERN_1@CRaklionBattleOfSelupan@@QAEXXZ
_TEXT	SEGMENT
?ProcState_PATTERN_1@CRaklionBattleOfSelupan@@QAEXXZ PROC ; CRaklionBattleOfSelupan::ProcState_PATTERN_1, COMDAT
; _this$ = ecx

; 253  : {

  00000	56		 push	 esi
  00001	8b f1		 mov	 esi, ecx

; 254  : 	int skill = 0;

  00003	33 d2		 xor	 edx, edx

; 255  : 
; 256  : 	while(this->m_PatternSkill[STATE_PATTERN_1].bIsSkillEnabled[skill] == 0)

  00005	39 96 d4 0c 00
	00		 cmp	 DWORD PTR [esi+3284], edx
  0000b	75 1a		 jne	 SHORT $LN1@ProcState_
  0000d	8d 49 00	 npad	 3
$LL2@ProcState_:

; 257  : 	{
; 258  : 		skill = rand() % 9;

  00010	e8 00 00 00 00	 call	 _rand
  00015	99		 cdq
  00016	b9 09 00 00 00	 mov	 ecx, 9
  0001b	f7 f9		 idiv	 ecx
  0001d	83 bc 96 d4 0c
	00 00 00	 cmp	 DWORD PTR [esi+edx*4+3284], 0
  00025	74 e9		 je	 SHORT $LL2@ProcState_
$LN1@ProcState_:

; 259  : 	}
; 260  : 	
; 261  : 	this->PatternStateSkillUseProc(skill);

  00027	52		 push	 edx
  00028	8b ce		 mov	 ecx, esi
  0002a	e8 00 00 00 00	 call	 ?PatternStateSkillUseProc@CRaklionBattleOfSelupan@@QAEXH@Z ; CRaklionBattleOfSelupan::PatternStateSkillUseProc
  0002f	5e		 pop	 esi

; 262  : }

  00030	c3		 ret	 0
?ProcState_PATTERN_1@CRaklionBattleOfSelupan@@QAEXXZ ENDP ; CRaklionBattleOfSelupan::ProcState_PATTERN_1
_TEXT	ENDS
PUBLIC	?ProcState_PATTERN_2@CRaklionBattleOfSelupan@@QAEXXZ ; CRaklionBattleOfSelupan::ProcState_PATTERN_2
; Function compile flags: /Ogtp
;	COMDAT ?ProcState_PATTERN_2@CRaklionBattleOfSelupan@@QAEXXZ
_TEXT	SEGMENT
?ProcState_PATTERN_2@CRaklionBattleOfSelupan@@QAEXXZ PROC ; CRaklionBattleOfSelupan::ProcState_PATTERN_2, COMDAT
; _this$ = ecx

; 265  : {

  00000	56		 push	 esi
  00001	8b f1		 mov	 esi, ecx

; 266  : 	int skill = 0;

  00003	33 d2		 xor	 edx, edx

; 267  : 
; 268  : 	while(this->m_PatternSkill[STATE_PATTERN_2].bIsSkillEnabled[skill] == 0)

  00005	39 96 f8 0c 00
	00		 cmp	 DWORD PTR [esi+3320], edx
  0000b	75 1a		 jne	 SHORT $LN1@ProcState_@2
  0000d	8d 49 00	 npad	 3
$LL2@ProcState_@2:

; 269  : 	{
; 270  : 		skill = rand() % 9;

  00010	e8 00 00 00 00	 call	 _rand
  00015	99		 cdq
  00016	b9 09 00 00 00	 mov	 ecx, 9
  0001b	f7 f9		 idiv	 ecx
  0001d	83 bc 96 f8 0c
	00 00 00	 cmp	 DWORD PTR [esi+edx*4+3320], 0
  00025	74 e9		 je	 SHORT $LL2@ProcState_@2
$LN1@ProcState_@2:

; 271  : 	}
; 272  : 	
; 273  : 	this->PatternStateSkillUseProc(skill);

  00027	52		 push	 edx
  00028	8b ce		 mov	 ecx, esi
  0002a	e8 00 00 00 00	 call	 ?PatternStateSkillUseProc@CRaklionBattleOfSelupan@@QAEXH@Z ; CRaklionBattleOfSelupan::PatternStateSkillUseProc
  0002f	5e		 pop	 esi

; 274  : }

  00030	c3		 ret	 0
?ProcState_PATTERN_2@CRaklionBattleOfSelupan@@QAEXXZ ENDP ; CRaklionBattleOfSelupan::ProcState_PATTERN_2
_TEXT	ENDS
PUBLIC	?ProcState_PATTERN_3@CRaklionBattleOfSelupan@@QAEXXZ ; CRaklionBattleOfSelupan::ProcState_PATTERN_3
; Function compile flags: /Ogtp
;	COMDAT ?ProcState_PATTERN_3@CRaklionBattleOfSelupan@@QAEXXZ
_TEXT	SEGMENT
?ProcState_PATTERN_3@CRaklionBattleOfSelupan@@QAEXXZ PROC ; CRaklionBattleOfSelupan::ProcState_PATTERN_3, COMDAT
; _this$ = ecx

; 277  : {

  00000	56		 push	 esi
  00001	8b f1		 mov	 esi, ecx

; 278  : 	int skill = 0;

  00003	33 d2		 xor	 edx, edx

; 279  : 
; 280  : 	while(this->m_PatternSkill[STATE_PATTERN_3].bIsSkillEnabled[skill] == 0)

  00005	39 96 1c 0d 00
	00		 cmp	 DWORD PTR [esi+3356], edx
  0000b	75 1a		 jne	 SHORT $LN1@ProcState_@3
  0000d	8d 49 00	 npad	 3
$LL2@ProcState_@3:

; 281  : 	{
; 282  : 		skill = rand() % 9;

  00010	e8 00 00 00 00	 call	 _rand
  00015	99		 cdq
  00016	b9 09 00 00 00	 mov	 ecx, 9
  0001b	f7 f9		 idiv	 ecx
  0001d	83 bc 96 1c 0d
	00 00 00	 cmp	 DWORD PTR [esi+edx*4+3356], 0
  00025	74 e9		 je	 SHORT $LL2@ProcState_@3
$LN1@ProcState_@3:

; 283  : 	}
; 284  : 	
; 285  : 	this->PatternStateSkillUseProc(skill);

  00027	52		 push	 edx
  00028	8b ce		 mov	 ecx, esi
  0002a	e8 00 00 00 00	 call	 ?PatternStateSkillUseProc@CRaklionBattleOfSelupan@@QAEXH@Z ; CRaklionBattleOfSelupan::PatternStateSkillUseProc
  0002f	5e		 pop	 esi

; 286  : }

  00030	c3		 ret	 0
?ProcState_PATTERN_3@CRaklionBattleOfSelupan@@QAEXXZ ENDP ; CRaklionBattleOfSelupan::ProcState_PATTERN_3
_TEXT	ENDS
PUBLIC	?ProcState_PATTERN_4@CRaklionBattleOfSelupan@@QAEXXZ ; CRaklionBattleOfSelupan::ProcState_PATTERN_4
; Function compile flags: /Ogtp
;	COMDAT ?ProcState_PATTERN_4@CRaklionBattleOfSelupan@@QAEXXZ
_TEXT	SEGMENT
?ProcState_PATTERN_4@CRaklionBattleOfSelupan@@QAEXXZ PROC ; CRaklionBattleOfSelupan::ProcState_PATTERN_4, COMDAT
; _this$ = ecx

; 289  : {

  00000	56		 push	 esi
  00001	8b f1		 mov	 esi, ecx

; 290  : 	int skill = 0;

  00003	33 d2		 xor	 edx, edx

; 291  : 
; 292  : 	while(this->m_PatternSkill[STATE_PATTERN_4].bIsSkillEnabled[skill] == 0)

  00005	39 96 40 0d 00
	00		 cmp	 DWORD PTR [esi+3392], edx
  0000b	75 1a		 jne	 SHORT $LN1@ProcState_@4
  0000d	8d 49 00	 npad	 3
$LL2@ProcState_@4:

; 293  : 	{
; 294  : 		skill = rand() % 9;

  00010	e8 00 00 00 00	 call	 _rand
  00015	99		 cdq
  00016	b9 09 00 00 00	 mov	 ecx, 9
  0001b	f7 f9		 idiv	 ecx
  0001d	83 bc 96 40 0d
	00 00 00	 cmp	 DWORD PTR [esi+edx*4+3392], 0
  00025	74 e9		 je	 SHORT $LL2@ProcState_@4
$LN1@ProcState_@4:

; 295  : 	}
; 296  : 	
; 297  : 	this->PatternStateSkillUseProc(skill);

  00027	52		 push	 edx
  00028	8b ce		 mov	 ecx, esi
  0002a	e8 00 00 00 00	 call	 ?PatternStateSkillUseProc@CRaklionBattleOfSelupan@@QAEXH@Z ; CRaklionBattleOfSelupan::PatternStateSkillUseProc
  0002f	5e		 pop	 esi

; 298  : }

  00030	c3		 ret	 0
?ProcState_PATTERN_4@CRaklionBattleOfSelupan@@QAEXXZ ENDP ; CRaklionBattleOfSelupan::ProcState_PATTERN_4
_TEXT	ENDS
PUBLIC	?ProcState_PATTERN_5@CRaklionBattleOfSelupan@@QAEXXZ ; CRaklionBattleOfSelupan::ProcState_PATTERN_5
; Function compile flags: /Ogtp
;	COMDAT ?ProcState_PATTERN_5@CRaklionBattleOfSelupan@@QAEXXZ
_TEXT	SEGMENT
?ProcState_PATTERN_5@CRaklionBattleOfSelupan@@QAEXXZ PROC ; CRaklionBattleOfSelupan::ProcState_PATTERN_5, COMDAT
; _this$ = ecx

; 301  : {

  00000	56		 push	 esi
  00001	8b f1		 mov	 esi, ecx

; 302  : 	int skill = 0;

  00003	33 d2		 xor	 edx, edx

; 303  : 
; 304  : 	while(this->m_PatternSkill[STATE_PATTERN_5].bIsSkillEnabled[skill] == 0)

  00005	39 96 64 0d 00
	00		 cmp	 DWORD PTR [esi+3428], edx
  0000b	75 1a		 jne	 SHORT $LN1@ProcState_@5
  0000d	8d 49 00	 npad	 3
$LL2@ProcState_@5:

; 305  : 	{
; 306  : 		skill = rand() % 9;

  00010	e8 00 00 00 00	 call	 _rand
  00015	99		 cdq
  00016	b9 09 00 00 00	 mov	 ecx, 9
  0001b	f7 f9		 idiv	 ecx
  0001d	83 bc 96 64 0d
	00 00 00	 cmp	 DWORD PTR [esi+edx*4+3428], 0
  00025	74 e9		 je	 SHORT $LL2@ProcState_@5
$LN1@ProcState_@5:

; 307  : 	}
; 308  : 	
; 309  : 	this->PatternStateSkillUseProc(skill);

  00027	52		 push	 edx
  00028	8b ce		 mov	 ecx, esi
  0002a	e8 00 00 00 00	 call	 ?PatternStateSkillUseProc@CRaklionBattleOfSelupan@@QAEXH@Z ; CRaklionBattleOfSelupan::PatternStateSkillUseProc
  0002f	5e		 pop	 esi

; 310  : }

  00030	c3		 ret	 0
?ProcState_PATTERN_5@CRaklionBattleOfSelupan@@QAEXXZ ENDP ; CRaklionBattleOfSelupan::ProcState_PATTERN_5
_TEXT	ENDS
PUBLIC	?ProcState_PATTERN_6@CRaklionBattleOfSelupan@@QAEXXZ ; CRaklionBattleOfSelupan::ProcState_PATTERN_6
; Function compile flags: /Ogtp
;	COMDAT ?ProcState_PATTERN_6@CRaklionBattleOfSelupan@@QAEXXZ
_TEXT	SEGMENT
?ProcState_PATTERN_6@CRaklionBattleOfSelupan@@QAEXXZ PROC ; CRaklionBattleOfSelupan::ProcState_PATTERN_6, COMDAT
; _this$ = ecx

; 313  : {

  00000	56		 push	 esi
  00001	8b f1		 mov	 esi, ecx

; 314  : 	int skill = 0;

  00003	33 d2		 xor	 edx, edx

; 315  : 
; 316  : 	while(this->m_PatternSkill[STATE_PATTERN_6].bIsSkillEnabled[skill] == 0)

  00005	39 96 88 0d 00
	00		 cmp	 DWORD PTR [esi+3464], edx
  0000b	75 1a		 jne	 SHORT $LN1@ProcState_@6
  0000d	8d 49 00	 npad	 3
$LL2@ProcState_@6:

; 317  : 	{
; 318  : 		skill = rand() % 9;

  00010	e8 00 00 00 00	 call	 _rand
  00015	99		 cdq
  00016	b9 09 00 00 00	 mov	 ecx, 9
  0001b	f7 f9		 idiv	 ecx
  0001d	83 bc 96 88 0d
	00 00 00	 cmp	 DWORD PTR [esi+edx*4+3464], 0
  00025	74 e9		 je	 SHORT $LL2@ProcState_@6
$LN1@ProcState_@6:

; 319  : 	}
; 320  : 	
; 321  : 	this->PatternStateSkillUseProc(skill);

  00027	52		 push	 edx
  00028	8b ce		 mov	 ecx, esi
  0002a	e8 00 00 00 00	 call	 ?PatternStateSkillUseProc@CRaklionBattleOfSelupan@@QAEXH@Z ; CRaklionBattleOfSelupan::PatternStateSkillUseProc
  0002f	5e		 pop	 esi

; 322  : }

  00030	c3		 ret	 0
?ProcState_PATTERN_6@CRaklionBattleOfSelupan@@QAEXXZ ENDP ; CRaklionBattleOfSelupan::ProcState_PATTERN_6
_TEXT	ENDS
PUBLIC	?ProcState_PATTERN_7@CRaklionBattleOfSelupan@@QAEXXZ ; CRaklionBattleOfSelupan::ProcState_PATTERN_7
; Function compile flags: /Ogtp
;	COMDAT ?ProcState_PATTERN_7@CRaklionBattleOfSelupan@@QAEXXZ
_TEXT	SEGMENT
?ProcState_PATTERN_7@CRaklionBattleOfSelupan@@QAEXXZ PROC ; CRaklionBattleOfSelupan::ProcState_PATTERN_7, COMDAT
; _this$ = ecx

; 325  : {

  00000	56		 push	 esi
  00001	8b f1		 mov	 esi, ecx

; 326  : 	int skill = 0;

  00003	33 d2		 xor	 edx, edx

; 327  : 
; 328  : 	while(this->m_PatternSkill[STATE_PATTERN_7].bIsSkillEnabled[skill] == 0)

  00005	39 96 ac 0d 00
	00		 cmp	 DWORD PTR [esi+3500], edx
  0000b	75 1a		 jne	 SHORT $LN1@ProcState_@7
  0000d	8d 49 00	 npad	 3
$LL2@ProcState_@7:

; 329  : 	{
; 330  : 		skill = rand() % 9;

  00010	e8 00 00 00 00	 call	 _rand
  00015	99		 cdq
  00016	b9 09 00 00 00	 mov	 ecx, 9
  0001b	f7 f9		 idiv	 ecx
  0001d	83 bc 96 ac 0d
	00 00 00	 cmp	 DWORD PTR [esi+edx*4+3500], 0
  00025	74 e9		 je	 SHORT $LL2@ProcState_@7
$LN1@ProcState_@7:

; 331  : 	}
; 332  : 	
; 333  : 	this->PatternStateSkillUseProc(skill);

  00027	52		 push	 edx
  00028	8b ce		 mov	 ecx, esi
  0002a	e8 00 00 00 00	 call	 ?PatternStateSkillUseProc@CRaklionBattleOfSelupan@@QAEXH@Z ; CRaklionBattleOfSelupan::PatternStateSkillUseProc
  0002f	5e		 pop	 esi

; 334  : }

  00030	c3		 ret	 0
?ProcState_PATTERN_7@CRaklionBattleOfSelupan@@QAEXXZ ENDP ; CRaklionBattleOfSelupan::ProcState_PATTERN_7
_TEXT	ENDS
PUBLIC	?SetState@CRaklionBattleOfSelupan@@QAEXH@Z	; CRaklionBattleOfSelupan::SetState
EXTRN	?NotifyRaklionChangeState@CRaklionUtil@@QAEXHH@Z:PROC ; CRaklionUtil::NotifyRaklionChangeState
; Function compile flags: /Ogtp
;	COMDAT ?SetState@CRaklionBattleOfSelupan@@QAEXH@Z
_TEXT	SEGMENT
_iBattleOfSelupanState$ = 8				; size = 4
?SetState@CRaklionBattleOfSelupan@@QAEXH@Z PROC		; CRaklionBattleOfSelupan::SetState, COMDAT
; _this$ = ecx

; 101  : {

  00000	55		 push	 ebp
  00001	8b ec		 mov	 ebp, esp
  00003	56		 push	 esi
  00004	8b f1		 mov	 esi, ecx

; 102  : 	if ( this->m_dwSkillDelay > GetTickCount() - this->m_dwSkillDelayTick )

  00006	ff 15 00 00 00
	00		 call	 DWORD PTR __imp__GetTickCount@0
  0000c	2b 46 28	 sub	 eax, DWORD PTR [esi+40]
  0000f	39 46 24	 cmp	 DWORD PTR [esi+36], eax
  00012	77 77		 ja	 SHORT $LN14@SetState

; 103  : 	{
; 104  : 		return;
; 105  : 	}
; 106  : 		
; 107  : 	switch ( iBattleOfSelupanState )

  00014	8b 45 08	 mov	 eax, DWORD PTR _iBattleOfSelupanState$[ebp]
  00017	83 f8 09	 cmp	 eax, 9
  0001a	77 5f		 ja	 SHORT $LN11@SetState
  0001c	ff 24 85 00 00
	00 00		 jmp	 DWORD PTR $LN18@SetState[eax*4]
$LN10@SetState:

; 108  : 	{
; 109  : 	case SELUPAN_STATE_NONE:		this->SetState_NONE();		break;

  00023	8b ce		 mov	 ecx, esi
  00025	e8 00 00 00 00	 call	 ?SetState_NONE@CRaklionBattleOfSelupan@@QAEXXZ ; CRaklionBattleOfSelupan::SetState_NONE
  0002a	eb 4f		 jmp	 SHORT $LN11@SetState
$LN9@SetState:

; 110  : 	case SELUPAN_STATE_STANDBY:		this->SetState_STANDBY();	break;

  0002c	8b ce		 mov	 ecx, esi
  0002e	e8 00 00 00 00	 call	 ?SetState_STANDBY@CRaklionBattleOfSelupan@@QAEXXZ ; CRaklionBattleOfSelupan::SetState_STANDBY
  00033	eb 46		 jmp	 SHORT $LN11@SetState
$LN8@SetState:

; 111  : 	case SELUPAN_STATE_PATTERN_1:	this->SetState_PATTERN_1();	break;

  00035	8b ce		 mov	 ecx, esi
  00037	e8 00 00 00 00	 call	 ?SetState_PATTERN_1@CRaklionBattleOfSelupan@@QAEXXZ ; CRaklionBattleOfSelupan::SetState_PATTERN_1
  0003c	eb 3d		 jmp	 SHORT $LN11@SetState
$LN7@SetState:

; 112  : 	case SELUPAN_STATE_PATTERN_2:	this->SetState_PATTERN_2();	break;

  0003e	8b ce		 mov	 ecx, esi
  00040	e8 00 00 00 00	 call	 ?SetState_PATTERN_2@CRaklionBattleOfSelupan@@QAEXXZ ; CRaklionBattleOfSelupan::SetState_PATTERN_2
  00045	eb 34		 jmp	 SHORT $LN11@SetState
$LN6@SetState:

; 113  : 	case SELUPAN_STATE_PATTERN_3:	this->SetState_PATTERN_3();	break;

  00047	8b ce		 mov	 ecx, esi
  00049	e8 00 00 00 00	 call	 ?SetState_PATTERN_3@CRaklionBattleOfSelupan@@QAEXXZ ; CRaklionBattleOfSelupan::SetState_PATTERN_3
  0004e	eb 2b		 jmp	 SHORT $LN11@SetState
$LN5@SetState:

; 114  : 	case SELUPAN_STATE_PATTERN_4:	this->SetState_PATTERN_4();	break;

  00050	8b ce		 mov	 ecx, esi
  00052	e8 00 00 00 00	 call	 ?SetState_PATTERN_4@CRaklionBattleOfSelupan@@QAEXXZ ; CRaklionBattleOfSelupan::SetState_PATTERN_4
  00057	eb 22		 jmp	 SHORT $LN11@SetState
$LN4@SetState:

; 115  : 	case SELUPAN_STATE_PATTERN_5:	this->SetState_PATTERN_5();	break;

  00059	8b ce		 mov	 ecx, esi
  0005b	e8 00 00 00 00	 call	 ?SetState_PATTERN_5@CRaklionBattleOfSelupan@@QAEXXZ ; CRaklionBattleOfSelupan::SetState_PATTERN_5
  00060	eb 19		 jmp	 SHORT $LN11@SetState
$LN3@SetState:

; 116  : 	case SELUPAN_STATE_PATTERN_6:	this->SetState_PATTERN_6();	break;

  00062	8b ce		 mov	 ecx, esi
  00064	e8 00 00 00 00	 call	 ?SetState_PATTERN_6@CRaklionBattleOfSelupan@@QAEXXZ ; CRaklionBattleOfSelupan::SetState_PATTERN_6
  00069	eb 10		 jmp	 SHORT $LN11@SetState
$LN2@SetState:

; 117  : 	case SELUPAN_STATE_PATTERN_7:	this->SetState_PATTERN_7();	break;

  0006b	8b ce		 mov	 ecx, esi
  0006d	e8 00 00 00 00	 call	 ?SetState_PATTERN_7@CRaklionBattleOfSelupan@@QAEXXZ ; CRaklionBattleOfSelupan::SetState_PATTERN_7
  00072	eb 07		 jmp	 SHORT $LN11@SetState
$LN1@SetState:

; 118  : 	case SELUPAN_STATE_DIE:			this->SetState_DIE();		break;

  00074	8b ce		 mov	 ecx, esi
  00076	e8 00 00 00 00	 call	 ?SetState_DIE@CRaklionBattleOfSelupan@@QAEXXZ ; CRaklionBattleOfSelupan::SetState_DIE
$LN11@SetState:

; 119  : 	}
; 120  : 
; 121  : 	g_RaklionUtil.NotifyRaklionChangeState(11, this->GetBattleOfSelupanState());

  0007b	8b 46 08	 mov	 eax, DWORD PTR [esi+8]
  0007e	50		 push	 eax
  0007f	6a 0b		 push	 11			; 0000000bH
  00081	b9 00 00 00 00	 mov	 ecx, OFFSET ?g_RaklionUtil@@3VCRaklionUtil@@A ; g_RaklionUtil
  00086	e8 00 00 00 00	 call	 ?NotifyRaklionChangeState@CRaklionUtil@@QAEXHH@Z ; CRaklionUtil::NotifyRaklionChangeState
$LN14@SetState:
  0008b	5e		 pop	 esi

; 122  : }

  0008c	5d		 pop	 ebp
  0008d	c2 04 00	 ret	 4
$LN18@SetState:
  00090	00 00 00 00	 DD	 $LN10@SetState
  00094	00 00 00 00	 DD	 $LN9@SetState
  00098	00 00 00 00	 DD	 $LN8@SetState
  0009c	00 00 00 00	 DD	 $LN7@SetState
  000a0	00 00 00 00	 DD	 $LN6@SetState
  000a4	00 00 00 00	 DD	 $LN5@SetState
  000a8	00 00 00 00	 DD	 $LN4@SetState
  000ac	00 00 00 00	 DD	 $LN3@SetState
  000b0	00 00 00 00	 DD	 $LN2@SetState
  000b4	00 00 00 00	 DD	 $LN1@SetState
?SetState@CRaklionBattleOfSelupan@@QAEXH@Z ENDP		; CRaklionBattleOfSelupan::SetState
_TEXT	ENDS
PUBLIC	??_C@_0DM@PLDDFBE@?$FLRAKLION?$FN?5SelupanLifePercent?5err@ ; `string'
PUBLIC	??_C@_0DI@MFMEMJKM@?$FLRAKLION?$FN?5SelupanMAXLife?5error?5?3@ ; `string'
PUBLIC	?SelupanLifeCheck@CRaklionBattleOfSelupan@@QAEXXZ ; CRaklionBattleOfSelupan::SelupanLifeCheck
EXTRN	__fltused:DWORD
EXTRN	__ftol2_sse:PROC
;	COMDAT ??_C@_0DM@PLDDFBE@?$FLRAKLION?$FN?5SelupanLifePercent?5err@
; File c:\muserver_dev\development\mu-s8ep2-repack\gameserver\source\raklionbattleofselupan.h
CONST	SEGMENT
??_C@_0DM@PLDDFBE@?$FLRAKLION?$FN?5SelupanLifePercent?5err@ DB '[RAKLION]'
	DB	' SelupanLifePercent error : Index(%d), MaxLife(%d)', 00H ; `string'
CONST	ENDS
;	COMDAT ??_C@_0DI@MFMEMJKM@?$FLRAKLION?$FN?5SelupanMAXLife?5error?5?3@
CONST	SEGMENT
??_C@_0DI@MFMEMJKM@?$FLRAKLION?$FN?5SelupanMAXLife?5error?5?3@ DB '[RAKLI'
	DB	'ON] SelupanMAXLife error : Index(%d), MaxLife(%d)', 00H ; `string'
; Function compile flags: /Ogtp
; File c:\muserver_dev\development\mu-s8ep2-repack\gameserver\source\raklionbattleofselupan.cpp
CONST	ENDS
;	COMDAT ?SelupanLifeCheck@CRaklionBattleOfSelupan@@QAEXXZ
_TEXT	SEGMENT
_MaxLife$ = -4						; size = 4
?SelupanLifeCheck@CRaklionBattleOfSelupan@@QAEXXZ PROC	; CRaklionBattleOfSelupan::SelupanLifeCheck, COMDAT
; _this$ = ecx

; 385  : {

  00000	55		 push	 ebp
  00001	8b ec		 mov	 ebp, esp
  00003	51		 push	 ecx
  00004	53		 push	 ebx
  00005	56		 push	 esi
  00006	8b f1		 mov	 esi, ecx
  00008	57		 push	 edi

; 386  : 	int aIndex = 0;
; 387  : 	int MaxLife = 0;
; 388  : 	int Percent = 0;
; 389  : 	LPOBJ lpObj = 0;
; 390  : 
; 391  : 	aIndex = this->m_RaklionSelupan.GetSelupanObjIndex();

  00009	8d 4e 34	 lea	 ecx, DWORD PTR [esi+52]
  0000c	e8 00 00 00 00	 call	 ?GetSelupanObjIndex@CRaklionSelupan@@QAEHXZ ; CRaklionSelupan::GetSelupanObjIndex

; 392  : 	
; 393  : 	lpObj = &gObj[aIndex];

  00011	69 c0 40 27 00
	00		 imul	 eax, 10048		; 00002740H
  00017	03 05 00 00 00
	00		 add	 eax, DWORD PTR ?gObj@@3PAUOBJECTSTRUCT@@A ; gObj
  0001d	8b f8		 mov	 edi, eax

; 394  : 	
; 395  : 	if ( lpObj->DieRegen != 0)

  0001f	80 bf 8a 05 00
	00 00		 cmp	 BYTE PTR [edi+1418], 0
  00026	0f 85 43 01 00
	00		 jne	 $LN1@SelupanLif

; 396  : 	{
; 397  : 		return;
; 398  : 	}
; 399  : 
; 400  : 	MaxLife = lpObj->AddLife + lpObj->MaxLife;

  0002c	db 87 24 01 00
	00		 fild	 DWORD PTR [edi+292]
  00032	d8 87 dc 00 00
	00		 fadd	 DWORD PTR [edi+220]
  00038	e8 00 00 00 00	 call	 __ftol2_sse
  0003d	89 45 fc	 mov	 DWORD PTR _MaxLife$[ebp], eax

; 401  : 	
; 402  : 	if (MaxLife <= 0)

  00040	85 c0		 test	 eax, eax
  00042	7f 26		 jg	 SHORT $LN23@SelupanLif

; 403  : 	{
; 404  : 		LogAddC(2,"[RAKLION] SelupanMAXLife error : Index(%d), MaxLife(%d)",lpObj->m_Index,lpObj->MaxLife);

  00044	d9 87 dc 00 00
	00		 fld	 DWORD PTR [edi+220]
  0004a	8b 07		 mov	 eax, DWORD PTR [edi]
  0004c	83 ec 08	 sub	 esp, 8
  0004f	dd 1c 24	 fstp	 QWORD PTR [esp]
  00052	50		 push	 eax
  00053	68 00 00 00 00	 push	 OFFSET ??_C@_0DI@MFMEMJKM@?$FLRAKLION?$FN?5SelupanMAXLife?5error?5?3@
  00058	6a 02		 push	 2
  0005a	ff 15 00 00 00
	00		 call	 DWORD PTR ?LogAddC@@3P6AXEPADZZA ; LogAddC
  00060	83 c4 14	 add	 esp, 20			; 00000014H
  00063	5f		 pop	 edi
  00064	5e		 pop	 esi
  00065	5b		 pop	 ebx

; 470  : 		}
; 471  : 	}
; 472  : }

  00066	8b e5		 mov	 esp, ebp
  00068	5d		 pop	 ebp
  00069	c3		 ret	 0
$LN23@SelupanLif:

; 405  : 		return;
; 406  : 	}	
; 407  : 
; 408  : 	Percent = this->m_RaklionSelupan.GetSelupanLife() * 100 / MaxLife;

  0006a	8d 4e 34	 lea	 ecx, DWORD PTR [esi+52]
  0006d	e8 00 00 00 00	 call	 ?GetSelupanLife@CRaklionSelupan@@QAEKXZ ; CRaklionSelupan::GetSelupanLife
  00072	6b c0 64	 imul	 eax, 100		; 00000064H
  00075	33 d2		 xor	 edx, edx
  00077	f7 75 fc	 div	 DWORD PTR _MaxLife$[ebp]

; 409  : 	
; 410  : 	if ( Percent < 0 )

  0007a	85 c0		 test	 eax, eax
  0007c	79 1b		 jns	 SHORT $LN22@SelupanLif

; 411  : 	{
; 412  : 		LogAddC(2,"[RAKLION] SelupanLifePercent error : Index(%d), MaxLife(%d)",lpObj->m_Index,Percent);

  0007e	8b 0f		 mov	 ecx, DWORD PTR [edi]
  00080	50		 push	 eax
  00081	51		 push	 ecx
  00082	68 00 00 00 00	 push	 OFFSET ??_C@_0DM@PLDDFBE@?$FLRAKLION?$FN?5SelupanLifePercent?5err@
  00087	6a 02		 push	 2
  00089	ff 15 00 00 00
	00		 call	 DWORD PTR ?LogAddC@@3P6AXEPADZZA ; LogAddC
  0008f	83 c4 10	 add	 esp, 16			; 00000010H
  00092	5f		 pop	 edi
  00093	5e		 pop	 esi
  00094	5b		 pop	 ebx

; 470  : 		}
; 471  : 	}
; 472  : }

  00095	8b e5		 mov	 esp, ebp
  00097	5d		 pop	 ebp
  00098	c3		 ret	 0
$LN22@SelupanLif:

; 413  : 		return;
; 414  : 	}
; 415  : 	
; 416  : 	if ( this->m_bIsUseFirstSkill == FALSE )

  00099	83 7e 2c 00	 cmp	 DWORD PTR [esi+44], 0
  0009d	75 17		 jne	 SHORT $LN21@SelupanLif

; 417  :     {
; 418  : 		this->PatternStateSkillUseProc(SKILL_FIRSTSKILL);

  0009f	6a 00		 push	 0
  000a1	8b ce		 mov	 ecx, esi
  000a3	e8 00 00 00 00	 call	 ?PatternStateSkillUseProc@CRaklionBattleOfSelupan@@QAEXH@Z ; CRaklionBattleOfSelupan::PatternStateSkillUseProc
  000a8	5f		 pop	 edi

; 419  : 		this->m_bIsUseFirstSkill = 1;

  000a9	c7 46 2c 01 00
	00 00		 mov	 DWORD PTR [esi+44], 1
  000b0	5e		 pop	 esi
  000b1	5b		 pop	 ebx

; 470  : 		}
; 471  : 	}
; 472  : }

  000b2	8b e5		 mov	 esp, ebp
  000b4	5d		 pop	 ebp
  000b5	c3		 ret	 0
$LN21@SelupanLif:

; 420  : 		return;
; 421  : 	}
; 422  : 	
; 423  : 	if ( Percent > this->m_PatternCondition[0] )

  000b6	3b 46 0c	 cmp	 eax, DWORD PTR [esi+12]
  000b9	7e 1a		 jle	 SHORT $LN20@SelupanLif

; 424  : 	{
; 425  : 		if(this->GetBattleOfSelupanState() != SELUPAN_STATE_PATTERN_1)

  000bb	83 7e 08 02	 cmp	 DWORD PTR [esi+8], 2
  000bf	0f 84 aa 00 00
	00		 je	 $LN1@SelupanLif

; 426  : 		{
; 427  : 			this->SetState(SELUPAN_STATE_PATTERN_1);

  000c5	6a 02		 push	 2

; 468  : 		{
; 469  : 			this->SetState(SELUPAN_STATE_PATTERN_7);

  000c7	8b ce		 mov	 ecx, esi
  000c9	e8 00 00 00 00	 call	 ?SetState@CRaklionBattleOfSelupan@@QAEXH@Z ; CRaklionBattleOfSelupan::SetState
  000ce	5f		 pop	 edi
  000cf	5e		 pop	 esi
  000d0	5b		 pop	 ebx

; 470  : 		}
; 471  : 	}
; 472  : }

  000d1	8b e5		 mov	 esp, ebp
  000d3	5d		 pop	 ebp
  000d4	c3		 ret	 0
$LN20@SelupanLif:

; 428  : 		}
; 429  : 	}
; 430  : 	else if ( Percent > this->m_PatternCondition[1] )

  000d5	3b 46 10	 cmp	 eax, DWORD PTR [esi+16]
  000d8	7e 1a		 jle	 SHORT $LN17@SelupanLif

; 431  : 	{
; 432  : 		if ( this->GetBattleOfSelupanState() != SELUPAN_STATE_PATTERN_2 )

  000da	83 7e 08 03	 cmp	 DWORD PTR [esi+8], 3
  000de	0f 84 8b 00 00
	00		 je	 $LN1@SelupanLif

; 433  : 		{
; 434  : 			this->SetState(SELUPAN_STATE_PATTERN_2);

  000e4	6a 03		 push	 3

; 468  : 		{
; 469  : 			this->SetState(SELUPAN_STATE_PATTERN_7);

  000e6	8b ce		 mov	 ecx, esi
  000e8	e8 00 00 00 00	 call	 ?SetState@CRaklionBattleOfSelupan@@QAEXH@Z ; CRaklionBattleOfSelupan::SetState
  000ed	5f		 pop	 edi
  000ee	5e		 pop	 esi
  000ef	5b		 pop	 ebx

; 470  : 		}
; 471  : 	}
; 472  : }

  000f0	8b e5		 mov	 esp, ebp
  000f2	5d		 pop	 ebp
  000f3	c3		 ret	 0
$LN17@SelupanLif:

; 435  : 		}
; 436  : 	}
; 437  : 	else if ( Percent > this->m_PatternCondition[2] )

  000f4	3b 46 14	 cmp	 eax, DWORD PTR [esi+20]
  000f7	7e 16		 jle	 SHORT $LN14@SelupanLif

; 438  : 	{
; 439  : 		if ( this->GetBattleOfSelupanState() != SELUPAN_STATE_PATTERN_3 )

  000f9	83 7e 08 04	 cmp	 DWORD PTR [esi+8], 4
  000fd	74 70		 je	 SHORT $LN1@SelupanLif

; 440  : 		{
; 441  : 			this->SetState(SELUPAN_STATE_PATTERN_3);

  000ff	6a 04		 push	 4

; 468  : 		{
; 469  : 			this->SetState(SELUPAN_STATE_PATTERN_7);

  00101	8b ce		 mov	 ecx, esi
  00103	e8 00 00 00 00	 call	 ?SetState@CRaklionBattleOfSelupan@@QAEXH@Z ; CRaklionBattleOfSelupan::SetState
  00108	5f		 pop	 edi
  00109	5e		 pop	 esi
  0010a	5b		 pop	 ebx

; 470  : 		}
; 471  : 	}
; 472  : }

  0010b	8b e5		 mov	 esp, ebp
  0010d	5d		 pop	 ebp
  0010e	c3		 ret	 0
$LN14@SelupanLif:

; 442  : 		}
; 443  : 	}
; 444  : 	else if ( Percent > this->m_PatternCondition[3] )

  0010f	3b 46 18	 cmp	 eax, DWORD PTR [esi+24]
  00112	7e 16		 jle	 SHORT $LN11@SelupanLif

; 445  : 	{
; 446  : 		if ( this->GetBattleOfSelupanState() != SELUPAN_STATE_PATTERN_4 )

  00114	83 7e 08 05	 cmp	 DWORD PTR [esi+8], 5
  00118	74 55		 je	 SHORT $LN1@SelupanLif

; 447  : 		{
; 448  : 			this->SetState(SELUPAN_STATE_PATTERN_4);

  0011a	6a 05		 push	 5

; 468  : 		{
; 469  : 			this->SetState(SELUPAN_STATE_PATTERN_7);

  0011c	8b ce		 mov	 ecx, esi
  0011e	e8 00 00 00 00	 call	 ?SetState@CRaklionBattleOfSelupan@@QAEXH@Z ; CRaklionBattleOfSelupan::SetState
  00123	5f		 pop	 edi
  00124	5e		 pop	 esi
  00125	5b		 pop	 ebx

; 470  : 		}
; 471  : 	}
; 472  : }

  00126	8b e5		 mov	 esp, ebp
  00128	5d		 pop	 ebp
  00129	c3		 ret	 0
$LN11@SelupanLif:

; 449  : 		}
; 450  : 	}
; 451  : 	else if ( Percent > this->m_PatternCondition[4] )

  0012a	3b 46 1c	 cmp	 eax, DWORD PTR [esi+28]
  0012d	7e 16		 jle	 SHORT $LN8@SelupanLif

; 452  : 	{
; 453  : 		if ( this->GetBattleOfSelupanState() != SELUPAN_STATE_PATTERN_5 )

  0012f	83 7e 08 06	 cmp	 DWORD PTR [esi+8], 6
  00133	74 3a		 je	 SHORT $LN1@SelupanLif

; 454  : 		{
; 455  : 			this->SetState(SELUPAN_STATE_PATTERN_5);

  00135	6a 06		 push	 6

; 468  : 		{
; 469  : 			this->SetState(SELUPAN_STATE_PATTERN_7);

  00137	8b ce		 mov	 ecx, esi
  00139	e8 00 00 00 00	 call	 ?SetState@CRaklionBattleOfSelupan@@QAEXH@Z ; CRaklionBattleOfSelupan::SetState
  0013e	5f		 pop	 edi
  0013f	5e		 pop	 esi
  00140	5b		 pop	 ebx

; 470  : 		}
; 471  : 	}
; 472  : }

  00141	8b e5		 mov	 esp, ebp
  00143	5d		 pop	 ebp
  00144	c3		 ret	 0
$LN8@SelupanLif:

; 456  : 		}
; 457  : 	}
; 458  : 	else if ( Percent > this->m_PatternCondition[5] )

  00145	3b 46 20	 cmp	 eax, DWORD PTR [esi+32]
  00148	7e 16		 jle	 SHORT $LN5@SelupanLif

; 459  : 	{
; 460  : 		if ( this->GetBattleOfSelupanState() != SELUPAN_STATE_PATTERN_6 )

  0014a	83 7e 08 07	 cmp	 DWORD PTR [esi+8], 7
  0014e	74 1f		 je	 SHORT $LN1@SelupanLif

; 461  : 		{
; 462  : 			this->SetState(SELUPAN_STATE_PATTERN_6);

  00150	6a 07		 push	 7

; 468  : 		{
; 469  : 			this->SetState(SELUPAN_STATE_PATTERN_7);

  00152	8b ce		 mov	 ecx, esi
  00154	e8 00 00 00 00	 call	 ?SetState@CRaklionBattleOfSelupan@@QAEXH@Z ; CRaklionBattleOfSelupan::SetState
  00159	5f		 pop	 edi
  0015a	5e		 pop	 esi
  0015b	5b		 pop	 ebx

; 470  : 		}
; 471  : 	}
; 472  : }

  0015c	8b e5		 mov	 esp, ebp
  0015e	5d		 pop	 ebp
  0015f	c3		 ret	 0
$LN5@SelupanLif:

; 463  : 		}
; 464  : 	}
; 465  : 	else if ( Percent <= this->m_PatternCondition[5] )
; 466  : 	{
; 467  : 		if ( this->GetBattleOfSelupanState() != SELUPAN_STATE_PATTERN_7 )

  00160	83 7e 08 08	 cmp	 DWORD PTR [esi+8], 8
  00164	74 09		 je	 SHORT $LN1@SelupanLif

; 468  : 		{
; 469  : 			this->SetState(SELUPAN_STATE_PATTERN_7);

  00166	6a 08		 push	 8
  00168	8b ce		 mov	 ecx, esi
  0016a	e8 00 00 00 00	 call	 ?SetState@CRaklionBattleOfSelupan@@QAEXH@Z ; CRaklionBattleOfSelupan::SetState
$LN1@SelupanLif:
  0016f	5f		 pop	 edi
  00170	5e		 pop	 esi
  00171	5b		 pop	 ebx

; 470  : 		}
; 471  : 	}
; 472  : }

  00172	8b e5		 mov	 esp, ebp
  00174	5d		 pop	 ebp
  00175	c3		 ret	 0
?SelupanLifeCheck@CRaklionBattleOfSelupan@@QAEXXZ ENDP	; CRaklionBattleOfSelupan::SelupanLifeCheck
_TEXT	ENDS
PUBLIC	?Run@CRaklionBattleOfSelupan@@QAEXXZ		; CRaklionBattleOfSelupan::Run
; Function compile flags: /Ogtp
;	COMDAT ?Run@CRaklionBattleOfSelupan@@QAEXXZ
_TEXT	SEGMENT
?Run@CRaklionBattleOfSelupan@@QAEXXZ PROC		; CRaklionBattleOfSelupan::Run, COMDAT
; _this$ = ecx

; 73   : {

  00000	56		 push	 esi
  00001	8b f1		 mov	 esi, ecx

; 74   : 	if ( this->m_RaklionSelupan.GetSelupanLife() <= 0 && this->GetBattleOfSelupanState() != SELUPAN_STATE_DIE  )

  00003	8d 4e 34	 lea	 ecx, DWORD PTR [esi+52]
  00006	e8 00 00 00 00	 call	 ?GetSelupanLife@CRaklionSelupan@@QAEKXZ ; CRaklionSelupan::GetSelupanLife
  0000b	85 c0		 test	 eax, eax
  0000d	75 11		 jne	 SHORT $LN14@Run
  0000f	83 7e 08 09	 cmp	 DWORD PTR [esi+8], 9
  00013	74 0b		 je	 SHORT $LN14@Run

; 75   : 	{
; 76   : 		this->SetState(SELUPAN_STATE_DIE);

  00015	6a 09		 push	 9
  00017	8b ce		 mov	 ecx, esi
  00019	e8 00 00 00 00	 call	 ?SetState@CRaklionBattleOfSelupan@@QAEXH@Z ; CRaklionBattleOfSelupan::SetState
$LN1@Run:
  0001e	5e		 pop	 esi

; 96   : 	case SELUPAN_STATE_DIE:			this->ProcState_DIE();		break;
; 97   : 	}
; 98   : }

  0001f	c3		 ret	 0
$LN14@Run:

; 77   : 		return;
; 78   : 	}
; 79   : 
; 80   : 	if ( this->m_dwSkillDelay > GetTickCount() - this->m_dwSkillDelayTick )

  00020	ff 15 00 00 00
	00		 call	 DWORD PTR __imp__GetTickCount@0
  00026	2b 46 28	 sub	 eax, DWORD PTR [esi+40]
  00029	39 46 24	 cmp	 DWORD PTR [esi+36], eax
  0002c	77 f0		 ja	 SHORT $LN1@Run

; 81   : 	{
; 82   : 		return;
; 83   : 	}
; 84   : 
; 85   : 	switch ( this->m_iBattleOfSelupanState )

  0002e	8b 46 08	 mov	 eax, DWORD PTR [esi+8]
  00031	83 f8 09	 cmp	 eax, 9
  00034	77 e8		 ja	 SHORT $LN1@Run
  00036	ff 24 85 00 00
	00 00		 jmp	 DWORD PTR $LN21@Run[eax*4]
$LN8@Run:

; 86   : 	{
; 87   : 	case SELUPAN_STATE_NONE:		this->ProcState_NONE();		break;
; 88   : 	case SELUPAN_STATE_STANDBY:		this->ProcState_STANDBY();	break;
; 89   : 	case SELUPAN_STATE_PATTERN_1:	this->ProcState_PATTERN_1();break;

  0003d	8b ce		 mov	 ecx, esi
  0003f	5e		 pop	 esi
  00040	e9 00 00 00 00	 jmp	 ?ProcState_PATTERN_1@CRaklionBattleOfSelupan@@QAEXXZ ; CRaklionBattleOfSelupan::ProcState_PATTERN_1
$LN7@Run:

; 90   : 	case SELUPAN_STATE_PATTERN_2:	this->ProcState_PATTERN_2();break;

  00045	8b ce		 mov	 ecx, esi
  00047	5e		 pop	 esi
  00048	e9 00 00 00 00	 jmp	 ?ProcState_PATTERN_2@CRaklionBattleOfSelupan@@QAEXXZ ; CRaklionBattleOfSelupan::ProcState_PATTERN_2
$LN6@Run:

; 91   : 	case SELUPAN_STATE_PATTERN_3:	this->ProcState_PATTERN_3();break;

  0004d	8b ce		 mov	 ecx, esi
  0004f	5e		 pop	 esi
  00050	e9 00 00 00 00	 jmp	 ?ProcState_PATTERN_3@CRaklionBattleOfSelupan@@QAEXXZ ; CRaklionBattleOfSelupan::ProcState_PATTERN_3
$LN5@Run:

; 92   : 	case SELUPAN_STATE_PATTERN_4:	this->ProcState_PATTERN_4();break;

  00055	8b ce		 mov	 ecx, esi
  00057	5e		 pop	 esi
  00058	e9 00 00 00 00	 jmp	 ?ProcState_PATTERN_4@CRaklionBattleOfSelupan@@QAEXXZ ; CRaklionBattleOfSelupan::ProcState_PATTERN_4
$LN4@Run:

; 93   : 	case SELUPAN_STATE_PATTERN_5:	this->ProcState_PATTERN_5();break;

  0005d	8b ce		 mov	 ecx, esi
  0005f	5e		 pop	 esi
  00060	e9 00 00 00 00	 jmp	 ?ProcState_PATTERN_5@CRaklionBattleOfSelupan@@QAEXXZ ; CRaklionBattleOfSelupan::ProcState_PATTERN_5
$LN3@Run:

; 94   : 	case SELUPAN_STATE_PATTERN_6:	this->ProcState_PATTERN_6();break;

  00065	8b ce		 mov	 ecx, esi
  00067	5e		 pop	 esi
  00068	e9 00 00 00 00	 jmp	 ?ProcState_PATTERN_6@CRaklionBattleOfSelupan@@QAEXXZ ; CRaklionBattleOfSelupan::ProcState_PATTERN_6
$LN2@Run:

; 95   : 	case SELUPAN_STATE_PATTERN_7:	this->ProcState_PATTERN_7();break;

  0006d	8b ce		 mov	 ecx, esi
  0006f	5e		 pop	 esi
  00070	e9 00 00 00 00	 jmp	 ?ProcState_PATTERN_7@CRaklionBattleOfSelupan@@QAEXXZ ; CRaklionBattleOfSelupan::ProcState_PATTERN_7
  00075	8d 49 00	 npad	 3
$LN21@Run:

; 96   : 	case SELUPAN_STATE_DIE:			this->ProcState_DIE();		break;
; 97   : 	}
; 98   : }

  00078	00 00 00 00	 DD	 $LN1@Run
  0007c	00 00 00 00	 DD	 $LN1@Run
  00080	00 00 00 00	 DD	 $LN8@Run
  00084	00 00 00 00	 DD	 $LN7@Run
  00088	00 00 00 00	 DD	 $LN6@Run
  0008c	00 00 00 00	 DD	 $LN5@Run
  00090	00 00 00 00	 DD	 $LN4@Run
  00094	00 00 00 00	 DD	 $LN3@Run
  00098	00 00 00 00	 DD	 $LN2@Run
  0009c	00 00 00 00	 DD	 $LN1@Run
?Run@CRaklionBattleOfSelupan@@QAEXXZ ENDP		; CRaklionBattleOfSelupan::Run
_TEXT	ENDS
END
