; Listing generated by Microsoft (R) Optimizing Compiler Version 16.00.40219.01 

	TITLE	C:\muserver_dev\development\MU-S8EP2-Repack\GameServer\common\SetItemOption.cpp
	.686P
	.XMM
	include listing.inc
	.model	flat

INCLUDELIB LIBCMT
INCLUDELIB OLDNAMES

PUBLIC	__$ArrayPad$
EXTRN	_isalnum:PROC
EXTRN	_isalpha:PROC
EXTRN	_atof:PROC
EXTRN	_isdigit:PROC
EXTRN	_getc:PROC
EXTRN	_ungetc:PROC
EXTRN	_isspace:PROC
EXTRN	_fgetc:PROC
EXTRN	___security_cookie:DWORD
EXTRN	__fltused:DWORD
EXTRN	@__security_check_cookie@4:PROC
_BSS	SEGMENT
_CurrentToken DD 01H DUP (?)
_TokenNumber DD	01H DUP (?)
_SMDFile DD	01H DUP (?)
_TokenString DB	064H DUP (?)
; Function compile flags: /Ogtp
; File c:\muserver_dev\development\mu-s8ep2-repack\gameserver\include\readscript.h
_BSS	ENDS
;	COMDAT ?GetToken@@YA?AW4SMDToken@@XZ
_TEXT	SEGMENT
_TempString$ = -104					; size = 100
__$ArrayPad$ = -4					; size = 4
?GetToken@@YA?AW4SMDToken@@XZ PROC			; GetToken, COMDAT

; 24   : {

  00000	55		 push	 ebp
  00001	8b ec		 mov	 ebp, esp
  00003	83 ec 68	 sub	 esp, 104		; 00000068H
  00006	a1 00 00 00 00	 mov	 eax, DWORD PTR ___security_cookie
  0000b	33 c5		 xor	 eax, ebp
  0000d	89 45 fc	 mov	 DWORD PTR __$ArrayPad$[ebp], eax

; 25   : 	int ch;
; 26   : 	char* p;
; 27   : 	char TempString[100];
; 28   : 
; 29   : 	TokenString[0]=0;

  00010	c6 05 00 00 00
	00 00		 mov	 BYTE PTR _TokenString, 0
  00017	53		 push	 ebx
  00018	eb 06 8d 9b 00
	00 00 00	 npad	 8
$LL31@GetToken:

; 30   : 
; 31   : 	do
; 32   : 	{
; 33   : 		if ((ch=fgetc(SMDFile)) == -1)

  00020	a1 00 00 00 00	 mov	 eax, DWORD PTR _SMDFile
  00025	50		 push	 eax
  00026	e8 00 00 00 00	 call	 _fgetc
  0002b	8b d8		 mov	 ebx, eax
  0002d	83 c4 04	 add	 esp, 4
  00030	83 fb ff	 cmp	 ebx, -1
  00033	74 5e		 je	 SHORT $LN39@GetToken

; 36   : 		}
; 37   : 		else
; 38   : 		{	
; 39   : 			if (ch=='/')		// this is /

  00035	83 fb 2f	 cmp	 ebx, 47			; 0000002fH
  00038	75 31		 jne	 SHORT $LN30@GetToken

; 40   : 			{
; 41   : 				if((ch=fgetc(SMDFile)) == '/')

  0003a	8b 0d 00 00 00
	00		 mov	 ecx, DWORD PTR _SMDFile
  00040	51		 push	 ecx
  00041	e8 00 00 00 00	 call	 _fgetc
  00046	8b d8		 mov	 ebx, eax
  00048	83 c4 04	 add	 esp, 4
  0004b	83 fb 2f	 cmp	 ebx, 47			; 0000002fH
  0004e	75 1b		 jne	 SHORT $LN30@GetToken
$LL24@GetToken:

; 42   : 				{
; 43   : 					while ((ch != '\n') && (ch != -1))	// End of Line (EOL)

  00050	83 fb ff	 cmp	 ebx, -1
  00053	74 3e		 je	 SHORT $LN39@GetToken

; 44   : 					{
; 45   : 						ch=fgetc(SMDFile);

  00055	8b 15 00 00 00
	00		 mov	 edx, DWORD PTR _SMDFile
  0005b	52		 push	 edx
  0005c	e8 00 00 00 00	 call	 _fgetc
  00061	8b d8		 mov	 ebx, eax
  00063	83 c4 04	 add	 esp, 4
  00066	83 fb 0a	 cmp	 ebx, 10			; 0000000aH
  00069	75 e5		 jne	 SHORT $LL24@GetToken
$LN30@GetToken:

; 46   : 					}
; 47   : 	
; 48   : 					if (ch == -1)
; 49   : 					{
; 50   : 						return END;	// End of FILE
; 51   : 					}
; 52   : 				}
; 53   : 			}
; 54   : 		}
; 55   : 	}
; 56   : 	while (isspace(ch) != 0);

  0006b	53		 push	 ebx
  0006c	e8 00 00 00 00	 call	 _isspace
  00071	83 c4 04	 add	 esp, 4
  00074	85 c0		 test	 eax, eax
  00076	75 a8		 jne	 SHORT $LL31@GetToken

; 57   : 
; 58   : 	
; 59   : 	switch(ch)

  00078	8d 43 de	 lea	 eax, DWORD PTR [ebx-34]
  0007b	56		 push	 esi
  0007c	83 f8 5b	 cmp	 eax, 91			; 0000005bH
  0007f	0f 87 29 01 00
	00		 ja	 $LN6@GetToken
  00085	0f b6 80 00 00
	00 00		 movzx	 eax, BYTE PTR $LN46@GetToken[eax]
  0008c	ff 24 85 00 00
	00 00		 jmp	 DWORD PTR $LN50@GetToken[eax*4]
$LN39@GetToken:

; 34   : 		{
; 35   : 			return END;	// End of FILE (EOF)

  00093	b8 02 00 00 00	 mov	 eax, 2
  00098	5b		 pop	 ebx

; 147  : 		}
; 148  : 		break;
; 149  : 
; 150  : 	}
; 151  : 
; 152  : 	return NAME;
; 153  : }

  00099	8b 4d fc	 mov	 ecx, DWORD PTR __$ArrayPad$[ebp]
  0009c	33 cd		 xor	 ecx, ebp
  0009e	e8 00 00 00 00	 call	 @__security_check_cookie@4
  000a3	8b e5		 mov	 esp, ebp
  000a5	5d		 pop	 ebp
  000a6	c3		 ret	 0
$LN19@GetToken:

; 60   : 	{
; 61   : 
; 62   : 	case 0x23:	// #
; 63   : 		return CurrentToken=COMMAND;

  000a7	b8 23 00 00 00	 mov	 eax, 35			; 00000023H
  000ac	e9 92 01 00 00	 jmp	 $LN48@GetToken
$LN18@GetToken:

; 64   : 		break;
; 65   : 	
; 66   : 	case 0x3B:	// ;
; 67   : 		return CurrentToken=SEMICOLON;

  000b1	b8 3b 00 00 00	 mov	 eax, 59			; 0000003bH
  000b6	e9 88 01 00 00	 jmp	 $LN48@GetToken
$LN17@GetToken:

; 68   : 		break;
; 69   : 	
; 70   : 	case 0x2C:	// ,
; 71   : 
; 72   : 		return CurrentToken=COMMA;

  000bb	b8 2c 00 00 00	 mov	 eax, 44			; 0000002cH
  000c0	e9 7e 01 00 00	 jmp	 $LN48@GetToken
$LN16@GetToken:

; 73   : 		break;
; 74   : 	
; 75   : 	case 0x7B:	// {
; 76   : 		return CurrentToken = LP;

  000c5	b8 7b 00 00 00	 mov	 eax, 123		; 0000007bH
  000ca	e9 74 01 00 00	 jmp	 $LN48@GetToken
$LN15@GetToken:

; 77   : 		break;
; 78   : 
; 79   : 	case 0x7D:	// }
; 80   : 		return CurrentToken = RP;

  000cf	b8 7d 00 00 00	 mov	 eax, 125		; 0000007dH
  000d4	e9 6a 01 00 00	 jmp	 $LN48@GetToken
$LN14@GetToken:

; 81   : 		break;
; 82   : 	// Nice Index Table :)	by Deathway
; 83   : 	// Numbers Case
; 84   : 	case 0x2D:	//-
; 85   : 	case 0x2E:	//.
; 86   : 	case '0':	//0
; 87   : 	case '1':	//1
; 88   : 	case '2':	//2
; 89   : 	case '3':	//3
; 90   : 	case '4':	//4		
; 91   : 	case '5':	//5
; 92   : 	case '6':	//6
; 93   : 	case '7':	//7
; 94   : 	case '8':	//8
; 95   : 	case '9':	//9
; 96   : 		ungetc(ch, SMDFile);

  000d9	8b 0d 00 00 00
	00		 mov	 ecx, DWORD PTR _SMDFile
  000df	51		 push	 ecx
  000e0	53		 push	 ebx
  000e1	e8 00 00 00 00	 call	 _ungetc

; 97   : 		p = TempString;
; 98   : 		
; 99   : 		while (((ch=getc(SMDFile)) != -1) && ((ch == 0x2E) || (isdigit(ch) != 0) || (ch == 0x2D)))  // 2e '.'  2D '-'

  000e6	8b 15 00 00 00
	00		 mov	 edx, DWORD PTR _SMDFile
  000ec	52		 push	 edx
  000ed	8d 75 98	 lea	 esi, DWORD PTR _TempString$[ebp]
  000f0	e8 00 00 00 00	 call	 _getc
  000f5	8b d8		 mov	 ebx, eax
  000f7	83 c4 0c	 add	 esp, 12			; 0000000cH
  000fa	83 fb ff	 cmp	 ebx, -1
  000fd	74 30		 je	 SHORT $LN12@GetToken
  000ff	90		 npad	 1
$LL13@GetToken:
  00100	83 fb 2e	 cmp	 ebx, 46			; 0000002eH
  00103	74 12		 je	 SHORT $LN11@GetToken
  00105	53		 push	 ebx
  00106	e8 00 00 00 00	 call	 _isdigit
  0010b	83 c4 04	 add	 esp, 4
  0010e	85 c0		 test	 eax, eax
  00110	75 05		 jne	 SHORT $LN11@GetToken
  00112	83 fb 2d	 cmp	 ebx, 45			; 0000002dH
  00115	75 18		 jne	 SHORT $LN12@GetToken
$LN11@GetToken:
  00117	a1 00 00 00 00	 mov	 eax, DWORD PTR _SMDFile

; 100  : 		{
; 101  : 			*p = ch;	// Construct a String

  0011c	88 1e		 mov	 BYTE PTR [esi], bl
  0011e	50		 push	 eax

; 102  : 			p++;

  0011f	46		 inc	 esi
  00120	e8 00 00 00 00	 call	 _getc
  00125	8b d8		 mov	 ebx, eax
  00127	83 c4 04	 add	 esp, 4
  0012a	83 fb ff	 cmp	 ebx, -1
  0012d	75 d1		 jne	 SHORT $LL13@GetToken
$LN12@GetToken:

; 103  : 		}		
; 104  : 		*p = 0;
; 105  : 		TokenNumber = (float)atof( TempString);	// Select the first Byte as Main ID

  0012f	8d 4d 98	 lea	 ecx, DWORD PTR _TempString$[ebp]
  00132	51		 push	 ecx
  00133	c6 06 00	 mov	 BYTE PTR [esi], 0
  00136	e8 00 00 00 00	 call	 _atof
  0013b	d9 1d 00 00 00
	00		 fstp	 DWORD PTR _TokenNumber
  00141	83 c4 04	 add	 esp, 4
  00144	5e		 pop	 esi

; 106  : 		return CurrentToken  = NUMBER ;

  00145	c7 05 00 00 00
	00 01 00 00 00	 mov	 DWORD PTR _CurrentToken, 1
  0014f	b8 01 00 00 00	 mov	 eax, 1
  00154	5b		 pop	 ebx

; 147  : 		}
; 148  : 		break;
; 149  : 
; 150  : 	}
; 151  : 
; 152  : 	return NAME;
; 153  : }

  00155	8b 4d fc	 mov	 ecx, DWORD PTR __$ArrayPad$[ebp]
  00158	33 cd		 xor	 ecx, ebp
  0015a	e8 00 00 00 00	 call	 @__security_check_cookie@4
  0015f	8b e5		 mov	 esp, ebp
  00161	5d		 pop	 ebp
  00162	c3		 ret	 0
$LN10@GetToken:

; 107  : 		break;
; 108  : 
; 109  : 	case '\"':	// "	String Case
; 110  : 		p=&TokenString[0];
; 111  : 		
; 112  : 		while (((ch=getc(SMDFile)) != -1 ) && (ch != 0x22))	// nice

  00163	8b 15 00 00 00
	00		 mov	 edx, DWORD PTR _SMDFile
  00169	52		 push	 edx
  0016a	be 00 00 00 00	 mov	 esi, OFFSET _TokenString
  0016f	e8 00 00 00 00	 call	 _getc
  00174	83 c4 04	 add	 esp, 4
  00177	83 f8 ff	 cmp	 eax, -1
  0017a	74 23		 je	 SHORT $LN8@GetToken
  0017c	8d 64 24 00	 npad	 4
$LL9@GetToken:
  00180	83 f8 22	 cmp	 eax, 34			; 00000022H
  00183	0f 84 96 00 00
	00		 je	 $LN7@GetToken

; 113  : 		{
; 114  : 			*p = ch;

  00189	88 06		 mov	 BYTE PTR [esi], al
  0018b	a1 00 00 00 00	 mov	 eax, DWORD PTR _SMDFile
  00190	50		 push	 eax

; 115  : 			p++;

  00191	46		 inc	 esi
  00192	e8 00 00 00 00	 call	 _getc
  00197	83 c4 04	 add	 esp, 4
  0019a	83 f8 ff	 cmp	 eax, -1
  0019d	75 e1		 jne	 SHORT $LL9@GetToken
$LN8@GetToken:

; 116  : 		}
; 117  : 		if (ch != 0x22 )

  0019f	83 f8 22	 cmp	 eax, 34			; 00000022H
  001a2	74 7b		 je	 SHORT $LN7@GetToken

; 118  : 		{
; 119  : 			ungetc(ch, SMDFile);

  001a4	8b 0d 00 00 00
	00		 mov	 ecx, DWORD PTR _SMDFile
  001aa	51		 push	 ecx
  001ab	50		 push	 eax

; 120  : 		}
; 121  : 		*p = 0;
; 122  : 		return CurrentToken = NAME;

  001ac	eb 69		 jmp	 SHORT $LN49@GetToken
$LN6@GetToken:

; 123  : 		break;
; 124  : 
; 125  : 	default:	// Others
; 126  : 		if (isalpha(ch))

  001ae	53		 push	 ebx
  001af	e8 00 00 00 00	 call	 _isalpha
  001b4	83 c4 04	 add	 esp, 4
  001b7	85 c0		 test	 eax, eax
  001b9	0f 84 7f 00 00
	00		 je	 $LN5@GetToken

; 127  : 		{
; 128  : 			p=&TokenString[0];
; 129  : 			*p=ch;
; 130  : 			p++;
; 131  : 
; 132  : 			while ( ((ch=getc(SMDFile)) != -1) && ( (ch == 0x2E) || (ch == 0x5F) || (isalnum(ch) != 0) ) )

  001bf	8b 15 00 00 00
	00		 mov	 edx, DWORD PTR _SMDFile
  001c5	52		 push	 edx
  001c6	88 1d 00 00 00
	00		 mov	 BYTE PTR _TokenString, bl
  001cc	be 01 00 00 00	 mov	 esi, OFFSET _TokenString+1
  001d1	e8 00 00 00 00	 call	 _getc
  001d6	8b d8		 mov	 ebx, eax
  001d8	83 c4 04	 add	 esp, 4
  001db	83 fb ff	 cmp	 ebx, -1
  001de	74 2f		 je	 SHORT $LN3@GetToken
$LL4@GetToken:
  001e0	83 fb 2e	 cmp	 ebx, 46			; 0000002eH
  001e3	74 12		 je	 SHORT $LN2@GetToken
  001e5	83 fb 5f	 cmp	 ebx, 95			; 0000005fH
  001e8	74 0d		 je	 SHORT $LN2@GetToken
  001ea	53		 push	 ebx
  001eb	e8 00 00 00 00	 call	 _isalnum
  001f0	83 c4 04	 add	 esp, 4
  001f3	85 c0		 test	 eax, eax
  001f5	74 18		 je	 SHORT $LN3@GetToken
$LN2@GetToken:
  001f7	a1 00 00 00 00	 mov	 eax, DWORD PTR _SMDFile

; 133  : 			{
; 134  : 				*p=ch;

  001fc	88 1e		 mov	 BYTE PTR [esi], bl
  001fe	50		 push	 eax

; 135  : 				p++;

  001ff	46		 inc	 esi
  00200	e8 00 00 00 00	 call	 _getc
  00205	8b d8		 mov	 ebx, eax
  00207	83 c4 04	 add	 esp, 4
  0020a	83 fb ff	 cmp	 ebx, -1
  0020d	75 d1		 jne	 SHORT $LL4@GetToken
$LN3@GetToken:

; 136  : 				
; 137  : 			}
; 138  : 
; 139  : 			ungetc(ch, SMDFile);

  0020f	8b 0d 00 00 00
	00		 mov	 ecx, DWORD PTR _SMDFile
  00215	51		 push	 ecx
  00216	53		 push	 ebx
$LN49@GetToken:
  00217	e8 00 00 00 00	 call	 _ungetc
  0021c	83 c4 08	 add	 esp, 8
$LN7@GetToken:

; 140  : 			*p=0;

  0021f	c6 06 00	 mov	 BYTE PTR [esi], 0
  00222	5e		 pop	 esi

; 141  : 			CurrentToken=NAME;

  00223	c7 05 00 00 00
	00 00 00 00 00	 mov	 DWORD PTR _CurrentToken, 0

; 142  : 			return CurrentToken;

  0022d	33 c0		 xor	 eax, eax
  0022f	5b		 pop	 ebx

; 147  : 		}
; 148  : 		break;
; 149  : 
; 150  : 	}
; 151  : 
; 152  : 	return NAME;
; 153  : }

  00230	8b 4d fc	 mov	 ecx, DWORD PTR __$ArrayPad$[ebp]
  00233	33 cd		 xor	 ecx, ebp
  00235	e8 00 00 00 00	 call	 @__security_check_cookie@4
  0023a	8b e5		 mov	 esp, ebp
  0023c	5d		 pop	 ebp
  0023d	c3		 ret	 0
$LN5@GetToken:

; 143  : 		}
; 144  : 		else
; 145  : 		{
; 146  : 			return CurrentToken = SMD_ERROR; // '<'

  0023e	b8 3c 00 00 00	 mov	 eax, 60			; 0000003cH
$LN48@GetToken:

; 147  : 		}
; 148  : 		break;
; 149  : 
; 150  : 	}
; 151  : 
; 152  : 	return NAME;
; 153  : }

  00243	8b 4d fc	 mov	 ecx, DWORD PTR __$ArrayPad$[ebp]
  00246	5e		 pop	 esi
  00247	33 cd		 xor	 ecx, ebp
  00249	a3 00 00 00 00	 mov	 DWORD PTR _CurrentToken, eax
  0024e	5b		 pop	 ebx
  0024f	e8 00 00 00 00	 call	 @__security_check_cookie@4
  00254	8b e5		 mov	 esp, ebp
  00256	5d		 pop	 ebp
  00257	c3		 ret	 0
$LN50@GetToken:
  00258	00 00 00 00	 DD	 $LN10@GetToken
  0025c	00 00 00 00	 DD	 $LN19@GetToken
  00260	00 00 00 00	 DD	 $LN17@GetToken
  00264	00 00 00 00	 DD	 $LN14@GetToken
  00268	00 00 00 00	 DD	 $LN18@GetToken
  0026c	00 00 00 00	 DD	 $LN16@GetToken
  00270	00 00 00 00	 DD	 $LN15@GetToken
  00274	00 00 00 00	 DD	 $LN6@GetToken
$LN46@GetToken:
  00278	00		 DB	 0
  00279	01		 DB	 1
  0027a	07		 DB	 7
  0027b	07		 DB	 7
  0027c	07		 DB	 7
  0027d	07		 DB	 7
  0027e	07		 DB	 7
  0027f	07		 DB	 7
  00280	07		 DB	 7
  00281	07		 DB	 7
  00282	02		 DB	 2
  00283	03		 DB	 3
  00284	03		 DB	 3
  00285	07		 DB	 7
  00286	03		 DB	 3
  00287	03		 DB	 3
  00288	03		 DB	 3
  00289	03		 DB	 3
  0028a	03		 DB	 3
  0028b	03		 DB	 3
  0028c	03		 DB	 3
  0028d	03		 DB	 3
  0028e	03		 DB	 3
  0028f	03		 DB	 3
  00290	07		 DB	 7
  00291	04		 DB	 4
  00292	07		 DB	 7
  00293	07		 DB	 7
  00294	07		 DB	 7
  00295	07		 DB	 7
  00296	07		 DB	 7
  00297	07		 DB	 7
  00298	07		 DB	 7
  00299	07		 DB	 7
  0029a	07		 DB	 7
  0029b	07		 DB	 7
  0029c	07		 DB	 7
  0029d	07		 DB	 7
  0029e	07		 DB	 7
  0029f	07		 DB	 7
  002a0	07		 DB	 7
  002a1	07		 DB	 7
  002a2	07		 DB	 7
  002a3	07		 DB	 7
  002a4	07		 DB	 7
  002a5	07		 DB	 7
  002a6	07		 DB	 7
  002a7	07		 DB	 7
  002a8	07		 DB	 7
  002a9	07		 DB	 7
  002aa	07		 DB	 7
  002ab	07		 DB	 7
  002ac	07		 DB	 7
  002ad	07		 DB	 7
  002ae	07		 DB	 7
  002af	07		 DB	 7
  002b0	07		 DB	 7
  002b1	07		 DB	 7
  002b2	07		 DB	 7
  002b3	07		 DB	 7
  002b4	07		 DB	 7
  002b5	07		 DB	 7
  002b6	07		 DB	 7
  002b7	07		 DB	 7
  002b8	07		 DB	 7
  002b9	07		 DB	 7
  002ba	07		 DB	 7
  002bb	07		 DB	 7
  002bc	07		 DB	 7
  002bd	07		 DB	 7
  002be	07		 DB	 7
  002bf	07		 DB	 7
  002c0	07		 DB	 7
  002c1	07		 DB	 7
  002c2	07		 DB	 7
  002c3	07		 DB	 7
  002c4	07		 DB	 7
  002c5	07		 DB	 7
  002c6	07		 DB	 7
  002c7	07		 DB	 7
  002c8	07		 DB	 7
  002c9	07		 DB	 7
  002ca	07		 DB	 7
  002cb	07		 DB	 7
  002cc	07		 DB	 7
  002cd	07		 DB	 7
  002ce	07		 DB	 7
  002cf	07		 DB	 7
  002d0	07		 DB	 7
  002d1	05		 DB	 5
  002d2	07		 DB	 7
  002d3	06		 DB	 6
?GetToken@@YA?AW4SMDToken@@XZ ENDP			; GetToken
_TEXT	ENDS
PUBLIC	??_7CSetItemOption@@6B@				; CSetItemOption::`vftable'
PUBLIC	??0CSetItemOption@@QAE@XZ			; CSetItemOption::CSetItemOption
PUBLIC	??_R4CSetItemOption@@6B@			; CSetItemOption::`RTTI Complete Object Locator'
PUBLIC	??_R0?AVCSetItemOption@@@8			; CSetItemOption `RTTI Type Descriptor'
PUBLIC	??_R3CSetItemOption@@8				; CSetItemOption::`RTTI Class Hierarchy Descriptor'
PUBLIC	??_R2CSetItemOption@@8				; CSetItemOption::`RTTI Base Class Array'
PUBLIC	??_R1A@?0A@EA@CSetItemOption@@8			; CSetItemOption::`RTTI Base Class Descriptor at (0,-1,0,64)'
EXTRN	??_7type_info@@6B@:QWORD			; type_info::`vftable'
EXTRN	??_ECSetItemOption@@UAEPAXI@Z:PROC		; CSetItemOption::`vector deleting destructor'
;	COMDAT ??_R1A@?0A@EA@CSetItemOption@@8
; File c:\muserver_dev\development\mu-s8ep2-repack\gameserver\common\setitemoption.cpp
rdata$r	SEGMENT
??_R1A@?0A@EA@CSetItemOption@@8 DD FLAT:??_R0?AVCSetItemOption@@@8 ; CSetItemOption::`RTTI Base Class Descriptor at (0,-1,0,64)'
	DD	00H
	DD	00H
	DD	0ffffffffH
	DD	00H
	DD	040H
	DD	FLAT:??_R3CSetItemOption@@8
rdata$r	ENDS
;	COMDAT ??_R2CSetItemOption@@8
rdata$r	SEGMENT
??_R2CSetItemOption@@8 DD FLAT:??_R1A@?0A@EA@CSetItemOption@@8 ; CSetItemOption::`RTTI Base Class Array'
rdata$r	ENDS
;	COMDAT ??_R3CSetItemOption@@8
rdata$r	SEGMENT
??_R3CSetItemOption@@8 DD 00H				; CSetItemOption::`RTTI Class Hierarchy Descriptor'
	DD	00H
	DD	01H
	DD	FLAT:??_R2CSetItemOption@@8
rdata$r	ENDS
;	COMDAT ??_R0?AVCSetItemOption@@@8
_DATA	SEGMENT
??_R0?AVCSetItemOption@@@8 DD FLAT:??_7type_info@@6B@	; CSetItemOption `RTTI Type Descriptor'
	DD	00H
	DB	'.?AVCSetItemOption@@', 00H
_DATA	ENDS
;	COMDAT ??_R4CSetItemOption@@6B@
rdata$r	SEGMENT
??_R4CSetItemOption@@6B@ DD 00H				; CSetItemOption::`RTTI Complete Object Locator'
	DD	00H
	DD	00H
	DD	FLAT:??_R0?AVCSetItemOption@@@8
	DD	FLAT:??_R3CSetItemOption@@8
rdata$r	ENDS
;	COMDAT ??_7CSetItemOption@@6B@
CONST	SEGMENT
??_7CSetItemOption@@6B@ DD FLAT:??_R4CSetItemOption@@6B@ ; CSetItemOption::`vftable'
	DD	FLAT:??_ECSetItemOption@@UAEPAXI@Z
; Function compile flags: /Ogtp
CONST	ENDS
;	COMDAT ??0CSetItemOption@@QAE@XZ
_TEXT	SEGMENT
??0CSetItemOption@@QAE@XZ PROC				; CSetItemOption::CSetItemOption, COMDAT
; _this$ = ecx

; 20   : {

  00000	8b c1		 mov	 eax, ecx
  00002	c7 00 00 00 00
	00		 mov	 DWORD PTR [eax], OFFSET ??_7CSetItemOption@@6B@

; 21   : 	return;
; 22   : }

  00008	c3		 ret	 0
??0CSetItemOption@@QAE@XZ ENDP				; CSetItemOption::CSetItemOption
_TEXT	ENDS
PUBLIC	??1CSetItemOption@@UAE@XZ			; CSetItemOption::~CSetItemOption
; Function compile flags: /Ogtp
;	COMDAT ??1CSetItemOption@@UAE@XZ
_TEXT	SEGMENT
??1CSetItemOption@@UAE@XZ PROC				; CSetItemOption::~CSetItemOption, COMDAT
; _this$ = ecx

; 25   : {

  00000	c7 01 00 00 00
	00		 mov	 DWORD PTR [ecx], OFFSET ??_7CSetItemOption@@6B@

; 26   : 	return;
; 27   : }

  00006	c3		 ret	 0
??1CSetItemOption@@UAE@XZ ENDP				; CSetItemOption::~CSetItemOption
_TEXT	ENDS
PUBLIC	??_C@_03JBJLGPFL@end?$AA@			; `string'
PUBLIC	??_C@_01KDCPPGHE@r?$AA@				; `string'
PUBLIC	?LoadTypeInfo@CSetItemOption@@QAEHPAD@Z		; CSetItemOption::LoadTypeInfo
EXTRN	_fopen:PROC
EXTRN	__ftol2_sse:PROC
EXTRN	_memset:PROC
;	COMDAT ??_C@_03JBJLGPFL@end?$AA@
CONST	SEGMENT
??_C@_03JBJLGPFL@end?$AA@ DB 'end', 00H			; `string'
CONST	ENDS
;	COMDAT ??_C@_01KDCPPGHE@r?$AA@
CONST	SEGMENT
??_C@_01KDCPPGHE@r?$AA@ DB 'r', 00H			; `string'
; Function compile flags: /Ogtp
CONST	ENDS
;	COMDAT ?LoadTypeInfo@CSetItemOption@@QAEHPAD@Z
_TEXT	SEGMENT
_this$ = -4						; size = 4
_filename$ = 8						; size = 4
?LoadTypeInfo@CSetItemOption@@QAEHPAD@Z PROC		; CSetItemOption::LoadTypeInfo, COMDAT
; _this$ = ecx

; 30   : {

  00000	55		 push	 ebp
  00001	8b ec		 mov	 ebp, esp
  00003	51		 push	 ecx

; 31   : 	int i;
; 32   : 	int Token;
; 33   : 
; 34   : 	SMDFile=fopen(filename,"r");

  00004	8b 45 08	 mov	 eax, DWORD PTR _filename$[ebp]
  00007	56		 push	 esi
  00008	8b f1		 mov	 esi, ecx
  0000a	68 00 00 00 00	 push	 OFFSET ??_C@_01KDCPPGHE@r?$AA@
  0000f	50		 push	 eax
  00010	89 75 fc	 mov	 DWORD PTR _this$[ebp], esi
  00013	e8 00 00 00 00	 call	 _fopen
  00018	83 c4 08	 add	 esp, 8
  0001b	a3 00 00 00 00	 mov	 DWORD PTR _SMDFile, eax

; 35   : 	if (SMDFile == NULL )

  00020	85 c0		 test	 eax, eax
  00022	75 07		 jne	 SHORT $LN12@LoadTypeIn
  00024	5e		 pop	 esi

; 92   : }

  00025	8b e5		 mov	 esp, ebp
  00027	5d		 pop	 ebp
  00028	c2 04 00	 ret	 4
$LN12@LoadTypeIn:

; 36   : 	{
; 37   : 		return 0;
; 38   : 	}
; 39   : 	memset(this->m_SetItemTypeInfo , -1, sizeof(this->m_SetItemTypeInfo) );

  0002b	68 00 80 02 00	 push	 163840			; 00028000H
  00030	83 c6 04	 add	 esi, 4
  00033	6a ff		 push	 -1
  00035	56		 push	 esi
  00036	e8 00 00 00 00	 call	 _memset
  0003b	83 c4 0c	 add	 esp, 12			; 0000000cH
  0003e	8b c6		 mov	 eax, esi
  00040	b9 00 20 00 00	 mov	 ecx, 8192		; 00002000H
$LL11@LoadTypeIn:

; 40   : 	
; 41   : 	for ( i=0; i<MAX_ITEMS; i++)
; 42   : 	{
; 43   : 		this->m_SetItemTypeInfo[i].IsLoad = FALSE;

  00045	c7 00 00 00 00
	00		 mov	 DWORD PTR [eax], 0
  0004b	83 c0 14	 add	 eax, 20			; 00000014H
  0004e	49		 dec	 ecx
  0004f	75 f4		 jne	 SHORT $LL11@LoadTypeIn

; 44   : 	}
; 45   : 	
; 46   : 	while ( true )
; 47   : 	{
; 48   : 		int number;
; 49   : 		
; 50   : 		Token=GetToken();

  00051	e8 00 00 00 00	 call	 ?GetToken@@YA?AW4SMDToken@@XZ ; GetToken

; 51   : 		if (Token == END)

  00056	83 f8 02	 cmp	 eax, 2
  00059	0f 84 d9 00 00
	00		 je	 $LN27@LoadTypeIn
  0005f	53		 push	 ebx
  00060	57		 push	 edi
$LL8@LoadTypeIn:

; 52   : 		{
; 53   : 			break;
; 54   : 		}
; 55   : 
; 56   : 		if (Token == NUMBER)

  00061	83 f8 01	 cmp	 eax, 1
  00064	0f 85 be 00 00
	00		 jne	 $LN26@LoadTypeIn

; 57   : 		{
; 58   : 			number = TokenNumber;

  0006a	d9 05 00 00 00
	00		 fld	 DWORD PTR _TokenNumber
  00070	e8 00 00 00 00	 call	 __ftol2_sse
  00075	8b f8		 mov	 edi, eax
$LL4@LoadTypeIn:

; 59   : 			
; 60   : 			while ( true )
; 61   : 			{
; 62   : 				int number2;
; 63   : 				LPSETITEM_TYPEINFO pointer;
; 64   : 
; 65   : 				Token = GetToken();

  00077	e8 00 00 00 00	 call	 ?GetToken@@YA?AW4SMDToken@@XZ ; GetToken

; 66   : 				number2=TokenNumber;

  0007c	d9 05 00 00 00
	00		 fld	 DWORD PTR _TokenNumber
  00082	8b f0		 mov	 esi, eax
  00084	e8 00 00 00 00	 call	 __ftol2_sse

; 67   : 				if ( ( Token== 0) && (strcmp("end", &TokenString[0]) == 0))

  00089	85 f6		 test	 esi, esi
  0008b	75 33		 jne	 SHORT $LN2@LoadTypeIn
  0008d	ba 00 00 00 00	 mov	 edx, OFFSET _TokenString
  00092	b9 00 00 00 00	 mov	 ecx, OFFSET ??_C@_03JBJLGPFL@end?$AA@
$LL22@LoadTypeIn:
  00097	8a 19		 mov	 bl, BYTE PTR [ecx]
  00099	3a 1a		 cmp	 bl, BYTE PTR [edx]
  0009b	75 1a		 jne	 SHORT $LN23@LoadTypeIn
  0009d	84 db		 test	 bl, bl
  0009f	74 12		 je	 SHORT $LN24@LoadTypeIn
  000a1	8a 59 01	 mov	 bl, BYTE PTR [ecx+1]
  000a4	3a 5a 01	 cmp	 bl, BYTE PTR [edx+1]
  000a7	75 0e		 jne	 SHORT $LN23@LoadTypeIn
  000a9	83 c1 02	 add	 ecx, 2
  000ac	83 c2 02	 add	 edx, 2
  000af	84 db		 test	 bl, bl
  000b1	75 e4		 jne	 SHORT $LL22@LoadTypeIn
$LN24@LoadTypeIn:
  000b3	33 c9		 xor	 ecx, ecx
  000b5	eb 05		 jmp	 SHORT $LN25@LoadTypeIn
$LN23@LoadTypeIn:
  000b7	1b c9		 sbb	 ecx, ecx
  000b9	83 d9 ff	 sbb	 ecx, -1
$LN25@LoadTypeIn:
  000bc	85 c9		 test	 ecx, ecx
  000be	74 68		 je	 SHORT $LN26@LoadTypeIn
$LN2@LoadTypeIn:

; 68   : 				{
; 69   : 					break;
; 70   : 				}
; 71   : 				else
; 72   : 				{
; 73   : 					pointer = &this->m_SetItemTypeInfo[number*MAX_SUBTYPE_ITEMS+number2];

  000c0	8b 55 fc	 mov	 edx, DWORD PTR _this$[ebp]
  000c3	8b cf		 mov	 ecx, edi
  000c5	c1 e1 09	 shl	 ecx, 9
  000c8	03 c8		 add	 ecx, eax
  000ca	8d 0c 89	 lea	 ecx, DWORD PTR [ecx+ecx*4]
  000cd	8d 74 8a 04	 lea	 esi, DWORD PTR [edx+ecx*4+4]

; 74   : 
; 75   : 					Token=GetToken();

  000d1	e8 00 00 00 00	 call	 ?GetToken@@YA?AW4SMDToken@@XZ ; GetToken

; 76   : 					pointer->OptionIndex[0]=TokenNumber;

  000d6	d9 05 00 00 00
	00		 fld	 DWORD PTR _TokenNumber
  000dc	e8 00 00 00 00	 call	 __ftol2_sse
  000e1	89 46 04	 mov	 DWORD PTR [esi+4], eax

; 77   : 					Token=GetToken();

  000e4	e8 00 00 00 00	 call	 ?GetToken@@YA?AW4SMDToken@@XZ ; GetToken

; 78   : 					pointer->OptionIndex[1]=TokenNumber;

  000e9	d9 05 00 00 00
	00		 fld	 DWORD PTR _TokenNumber
  000ef	e8 00 00 00 00	 call	 __ftol2_sse
  000f4	89 46 08	 mov	 DWORD PTR [esi+8], eax

; 79   : 					Token=GetToken();

  000f7	e8 00 00 00 00	 call	 ?GetToken@@YA?AW4SMDToken@@XZ ; GetToken

; 80   : 					pointer->ChaosMixLevel[0]=TokenNumber;

  000fc	d9 05 00 00 00
	00		 fld	 DWORD PTR _TokenNumber
  00102	e8 00 00 00 00	 call	 __ftol2_sse
  00107	89 46 0c	 mov	 DWORD PTR [esi+12], eax

; 81   : 					Token=GetToken();

  0010a	e8 00 00 00 00	 call	 ?GetToken@@YA?AW4SMDToken@@XZ ; GetToken

; 82   : 					pointer->ChaosMixLevel[1]=TokenNumber;

  0010f	d9 05 00 00 00
	00		 fld	 DWORD PTR _TokenNumber
  00115	e8 00 00 00 00	 call	 __ftol2_sse
  0011a	89 46 10	 mov	 DWORD PTR [esi+16], eax

; 83   : 
; 84   : 					pointer->IsLoad=TRUE;

  0011d	c7 06 01 00 00
	00		 mov	 DWORD PTR [esi], 1

; 85   : 				}
; 86   : 			}

  00123	e9 4f ff ff ff	 jmp	 $LL4@LoadTypeIn
$LN26@LoadTypeIn:

; 44   : 	}
; 45   : 	
; 46   : 	while ( true )
; 47   : 	{
; 48   : 		int number;
; 49   : 		
; 50   : 		Token=GetToken();

  00128	e8 00 00 00 00	 call	 ?GetToken@@YA?AW4SMDToken@@XZ ; GetToken

; 51   : 		if (Token == END)

  0012d	83 f8 02	 cmp	 eax, 2
  00130	0f 85 2b ff ff
	ff		 jne	 $LL8@LoadTypeIn
  00136	5f		 pop	 edi
  00137	5b		 pop	 ebx
$LN27@LoadTypeIn:

; 87   : 		}
; 88   : 
; 89   : 	}
; 90   : 
; 91   : 	return TRUE;

  00138	b8 01 00 00 00	 mov	 eax, 1
  0013d	5e		 pop	 esi

; 92   : }

  0013e	8b e5		 mov	 esp, ebp
  00140	5d		 pop	 ebp
  00141	c2 04 00	 ret	 4
?LoadTypeInfo@CSetItemOption@@QAEHPAD@Z ENDP		; CSetItemOption::LoadTypeInfo
_TEXT	ENDS
PUBLIC	?LoadOptionInfo@CSetItemOption@@QAEHPAD@Z	; CSetItemOption::LoadOptionInfo
; Function compile flags: /Ogtp
;	COMDAT ?LoadOptionInfo@CSetItemOption@@QAEHPAD@Z
_TEXT	SEGMENT
_this$ = -8						; size = 4
tv506 = -4						; size = 4
tv504 = -4						; size = 4
tv498 = -4						; size = 4
tv496 = -4						; size = 4
tv490 = -4						; size = 4
tv488 = -4						; size = 4
tv482 = -4						; size = 4
tv480 = -4						; size = 4
tv474 = -4						; size = 4
tv472 = -4						; size = 4
tv466 = -4						; size = 4
tv464 = -4						; size = 4
tv458 = -4						; size = 4
tv456 = -4						; size = 4
_filename$ = 8						; size = 4
tv509 = 10						; size = 2
tv501 = 10						; size = 2
tv493 = 10						; size = 2
tv485 = 10						; size = 2
tv477 = 10						; size = 2
tv469 = 10						; size = 2
tv461 = 10						; size = 2
?LoadOptionInfo@CSetItemOption@@QAEHPAD@Z PROC		; CSetItemOption::LoadOptionInfo, COMDAT
; _this$ = ecx

; 96   : {

  00000	55		 push	 ebp
  00001	8b ec		 mov	 ebp, esp
  00003	83 ec 08	 sub	 esp, 8

; 97   : 	int i;
; 98   : 	int Token;
; 99   : 	
; 100  : 	SMDFile=fopen(filename, "r");

  00006	8b 45 08	 mov	 eax, DWORD PTR _filename$[ebp]
  00009	53		 push	 ebx
  0000a	8b d9		 mov	 ebx, ecx
  0000c	68 00 00 00 00	 push	 OFFSET ??_C@_01KDCPPGHE@r?$AA@
  00011	50		 push	 eax
  00012	89 5d f8	 mov	 DWORD PTR _this$[ebp], ebx
  00015	e8 00 00 00 00	 call	 _fopen
  0001a	83 c4 08	 add	 esp, 8
  0001d	a3 00 00 00 00	 mov	 DWORD PTR _SMDFile, eax

; 101  : 	if (SMDFile == NULL )

  00022	85 c0		 test	 eax, eax
  00024	75 07		 jne	 SHORT $LN15@LoadOption
  00026	5b		 pop	 ebx

; 224  : }

  00027	8b e5		 mov	 esp, ebp
  00029	5d		 pop	 ebp
  0002a	c2 04 00	 ret	 4
$LN15@LoadOption:
  0002d	56		 push	 esi
  0002e	57		 push	 edi

; 102  : 	{
; 103  : 		return 0;
; 104  : 	}
; 105  : 	memset(&this->m_SetItemOptionInfo, 0, sizeof(this->m_SetItemOptionInfo));

  0002f	68 80 84 00 00	 push	 33920			; 00008480H
  00034	8d 8b 04 80 02
	00		 lea	 ecx, DWORD PTR [ebx+163844]
  0003a	6a 00		 push	 0
  0003c	51		 push	 ecx
  0003d	e8 00 00 00 00	 call	 _memset
  00042	83 c4 0c	 add	 esp, 12			; 0000000cH
  00045	8d b3 6c 81 02
	00		 lea	 esi, DWORD PTR [ebx+164204]
  0004b	bf 50 00 00 00	 mov	 edi, 80			; 00000050H
$LL14@LoadOption:

; 106  : 
; 107  : 	for ( i=0;i<MAX_SETITEM_OPTION;i++)
; 108  : 	{
; 109  : 		memset(&this->m_SetItemOptionInfo[i].SetOptionTable[0], -1, sizeof(this->m_SetItemOptionInfo[0].SetOptionTable) );

  00050	6a 30		 push	 48			; 00000030H
  00052	8d 56 a0	 lea	 edx, DWORD PTR [esi-96]
  00055	6a ff		 push	 -1
  00057	52		 push	 edx
  00058	e8 00 00 00 00	 call	 _memset

; 110  : 		memset(&this->m_SetItemOptionInfo[i].SetExPOptionTable, -1, sizeof(this->m_SetItemOptionInfo[0].SetExPOptionTable) );

  0005d	83 c8 ff	 or	 eax, -1
  00060	89 06		 mov	 DWORD PTR [esi], eax
  00062	89 46 04	 mov	 DWORD PTR [esi+4], eax

; 111  : 		memset(&this->m_SetItemOptionInfo[i].SetFullOtionTable[0], -1, sizeof(this->m_SetItemOptionInfo[0].SetFullOtionTable) );

  00065	0b c0		 or	 eax, eax
  00067	89 46 10	 mov	 DWORD PTR [esi+16], eax
  0006a	89 46 14	 mov	 DWORD PTR [esi+20], eax
  0006d	89 46 18	 mov	 DWORD PTR [esi+24], eax
  00070	89 46 1c	 mov	 DWORD PTR [esi+28], eax
  00073	89 46 20	 mov	 DWORD PTR [esi+32], eax
  00076	83 c4 0c	 add	 esp, 12			; 0000000cH
  00079	81 c6 a8 01 00
	00		 add	 esi, 424		; 000001a8H
  0007f	4f		 dec	 edi
  00080	75 ce		 jne	 SHORT $LL14@LoadOption
$LL11@LoadOption:

; 112  : 	}
; 113  : 
; 114  : 	while ( true )
; 115  : 	{
; 116  : 		Token=GetToken();

  00082	e8 00 00 00 00	 call	 ?GetToken@@YA?AW4SMDToken@@XZ ; GetToken

; 117  : 		int number=TokenNumber;

  00087	d9 05 00 00 00
	00		 fld	 DWORD PTR _TokenNumber
  0008d	8b f8		 mov	 edi, eax
  0008f	e8 00 00 00 00	 call	 __ftol2_sse
  00094	8b f0		 mov	 esi, eax

; 118  : 		
; 119  : 		if (Token==0 && strcmp("end", &TokenString[0]) == 0)

  00096	85 ff		 test	 edi, edi
  00098	75 37		 jne	 SHORT $LN38@LoadOption
  0009a	ba 00 00 00 00	 mov	 edx, OFFSET _TokenString
  0009f	b9 00 00 00 00	 mov	 ecx, OFFSET ??_C@_03JBJLGPFL@end?$AA@
$LL43@LoadOption:
  000a4	8a 01		 mov	 al, BYTE PTR [ecx]
  000a6	3a 02		 cmp	 al, BYTE PTR [edx]
  000a8	75 1a		 jne	 SHORT $LN31@LoadOption
  000aa	84 c0		 test	 al, al
  000ac	74 12		 je	 SHORT $LN32@LoadOption
  000ae	8a 41 01	 mov	 al, BYTE PTR [ecx+1]
  000b1	3a 42 01	 cmp	 al, BYTE PTR [edx+1]
  000b4	75 0e		 jne	 SHORT $LN31@LoadOption
  000b6	83 c1 02	 add	 ecx, 2
  000b9	83 c2 02	 add	 edx, 2
  000bc	84 c0		 test	 al, al
  000be	75 e4		 jne	 SHORT $LL43@LoadOption
$LN32@LoadOption:
  000c0	33 c0		 xor	 eax, eax
  000c2	eb 05		 jmp	 SHORT $LN33@LoadOption
$LN31@LoadOption:
  000c4	1b c0		 sbb	 eax, eax
  000c6	83 d8 ff	 sbb	 eax, -1
$LN33@LoadOption:
  000c9	85 c0		 test	 eax, eax
  000cb	0f 84 33 03 00
	00		 je	 $LN24@LoadOption
$LN38@LoadOption:

; 120  : 		{
; 121  : 			break;
; 122  : 		}
; 123  : 		else
; 124  : 		{
; 125  : 			LPSETITEM_OPTIONINFO p;
; 126  : 			p=&this->m_SetItemOptionInfo[number];

  000d1	69 f6 a8 01 00
	00		 imul	 esi, 424		; 000001a8H
  000d7	8d b4 1e 04 80
	02 00		 lea	 esi, DWORD PTR [esi+ebx+163844]

; 127  : 
; 128  : 			Token=GetToken();

  000de	e8 00 00 00 00	 call	 ?GetToken@@YA?AW4SMDToken@@XZ ; GetToken

; 129  : 			strcpy(&p->Name[0], &TokenString[0]);

  000e3	b8 00 00 00 00	 mov	 eax, OFFSET _TokenString
  000e8	8b d6		 mov	 edx, esi
  000ea	2b d0		 sub	 edx, eax
  000ec	8d 64 24 00	 npad	 4
$LL44@LoadOption:
  000f0	8a 08		 mov	 cl, BYTE PTR [eax]
  000f2	88 4c 02 04	 mov	 BYTE PTR [edx+eax+4], cl
  000f6	40		 inc	 eax
  000f7	84 c9		 test	 cl, cl
  000f9	75 f5		 jne	 SHORT $LL44@LoadOption

; 130  : 
; 131  : 			for (i=0;i<OPTION_TABLE_SIZE;i++)

  000fb	8d be 08 01 00
	00		 lea	 edi, DWORD PTR [esi+264]
  00101	bb 06 00 00 00	 mov	 ebx, 6
$LL45@LoadOption:

; 132  : 			{
; 133  : 				Token=GetToken();

  00106	e8 00 00 00 00	 call	 ?GetToken@@YA?AW4SMDToken@@XZ ; GetToken

; 134  : 				p->SetOptionTable[i][0] = TokenNumber;

  0010b	d9 05 00 00 00
	00		 fld	 DWORD PTR _TokenNumber
  00111	e8 00 00 00 00	 call	 __ftol2_sse
  00116	89 07		 mov	 DWORD PTR [edi], eax

; 135  : 				Token=GetToken();

  00118	e8 00 00 00 00	 call	 ?GetToken@@YA?AW4SMDToken@@XZ ; GetToken

; 136  : 				p->SetOptionTableValue[i][0] =TokenNumber;

  0011d	d9 05 00 00 00
	00		 fld	 DWORD PTR _TokenNumber
  00123	e8 00 00 00 00	 call	 __ftol2_sse
  00128	89 47 30	 mov	 DWORD PTR [edi+48], eax

; 137  : 
; 138  : 				Token=GetToken();

  0012b	e8 00 00 00 00	 call	 ?GetToken@@YA?AW4SMDToken@@XZ ; GetToken

; 139  : 				p->SetOptionTable[i][1] = TokenNumber;

  00130	d9 05 00 00 00
	00		 fld	 DWORD PTR _TokenNumber
  00136	e8 00 00 00 00	 call	 __ftol2_sse
  0013b	89 47 04	 mov	 DWORD PTR [edi+4], eax

; 140  : 				Token=GetToken();

  0013e	e8 00 00 00 00	 call	 ?GetToken@@YA?AW4SMDToken@@XZ ; GetToken

; 141  : 				p->SetOptionTableValue[i][1] =TokenNumber;

  00143	d9 05 00 00 00
	00		 fld	 DWORD PTR _TokenNumber
  00149	e8 00 00 00 00	 call	 __ftol2_sse

; 142  : 
; 143  : 				if ( (p->SetOptionTable[i][0] != -1) || (p->SetOptionTable[i][1] != -1) )

  0014e	83 3f ff	 cmp	 DWORD PTR [edi], -1
  00151	89 47 34	 mov	 DWORD PTR [edi+52], eax
  00154	75 06		 jne	 SHORT $LN3@LoadOption
  00156	83 7f 04 ff	 cmp	 DWORD PTR [edi+4], -1
  0015a	74 06		 je	 SHORT $LN6@LoadOption
$LN3@LoadOption:

; 144  : 				{
; 145  : 					p->SetOptionCount++;

  0015c	ff 86 04 01 00
	00		 inc	 DWORD PTR [esi+260]
$LN6@LoadOption:

; 130  : 
; 131  : 			for (i=0;i<OPTION_TABLE_SIZE;i++)

  00162	83 c7 08	 add	 edi, 8
  00165	4b		 dec	 ebx
  00166	75 9e		 jne	 SHORT $LL45@LoadOption

; 146  : 				}
; 147  : 			}
; 148  : 			
; 149  : 			// Special Set Item Options
; 150  : 			Token=GetToken();

  00168	e8 00 00 00 00	 call	 ?GetToken@@YA?AW4SMDToken@@XZ ; GetToken

; 151  : 			p->SetExPOptionTable[0]  = TokenNumber;

  0016d	d9 05 00 00 00
	00		 fld	 DWORD PTR _TokenNumber
  00173	e8 00 00 00 00	 call	 __ftol2_sse
  00178	89 86 68 01 00
	00		 mov	 DWORD PTR [esi+360], eax

; 152  : 			Token=GetToken();

  0017e	e8 00 00 00 00	 call	 ?GetToken@@YA?AW4SMDToken@@XZ ; GetToken

; 153  : 			p->SetExPOptionTableValue[0] = TokenNumber;

  00183	d9 05 00 00 00
	00		 fld	 DWORD PTR _TokenNumber
  00189	e8 00 00 00 00	 call	 __ftol2_sse

; 154  : 
; 155  : 			if ( p->SetExPOptionTable[0] != -1)

  0018e	83 cf ff	 or	 edi, -1
  00191	89 86 70 01 00
	00		 mov	 DWORD PTR [esi+368], eax
  00197	39 be 68 01 00
	00		 cmp	 DWORD PTR [esi+360], edi
  0019d	74 06		 je	 SHORT $LN40@LoadOption

; 156  : 			{
; 157  : 				p->SetOptionCount ++;

  0019f	ff 86 04 01 00
	00		 inc	 DWORD PTR [esi+260]
$LN40@LoadOption:

; 158  : 			}
; 159  : 
; 160  : 			Token=GetToken();

  001a5	e8 00 00 00 00	 call	 ?GetToken@@YA?AW4SMDToken@@XZ ; GetToken

; 161  : 			p->SetExPOptionTable[1]  = TokenNumber;

  001aa	d9 05 00 00 00
	00		 fld	 DWORD PTR _TokenNumber
  001b0	e8 00 00 00 00	 call	 __ftol2_sse
  001b5	89 86 6c 01 00
	00		 mov	 DWORD PTR [esi+364], eax

; 162  : 			Token=GetToken();

  001bb	e8 00 00 00 00	 call	 ?GetToken@@YA?AW4SMDToken@@XZ ; GetToken

; 163  : 			p->SetExPOptionTableValue[1] = TokenNumber;

  001c0	d9 05 00 00 00
	00		 fld	 DWORD PTR _TokenNumber
  001c6	e8 00 00 00 00	 call	 __ftol2_sse
  001cb	89 86 74 01 00
	00		 mov	 DWORD PTR [esi+372], eax

; 164  : 
; 165  : 			if ( p->SetExPOptionTable[1] != -1)

  001d1	39 be 6c 01 00
	00		 cmp	 DWORD PTR [esi+364], edi
  001d7	74 06		 je	 SHORT $LN41@LoadOption

; 166  : 			{
; 167  : 				p->SetOptionCount ++;

  001d9	ff 86 04 01 00
	00		 inc	 DWORD PTR [esi+260]
$LN41@LoadOption:

; 168  : 			}
; 169  : 			
; 170  : 			// Full Type Set Item
; 171  : 			Token=GetToken();

  001df	e8 00 00 00 00	 call	 ?GetToken@@YA?AW4SMDToken@@XZ ; GetToken

; 172  : 			p->SetFullOtionTable[0]=TokenNumber;

  001e4	d9 05 00 00 00
	00		 fld	 DWORD PTR _TokenNumber
  001ea	e8 00 00 00 00	 call	 __ftol2_sse
  001ef	89 86 78 01 00
	00		 mov	 DWORD PTR [esi+376], eax

; 173  : 			Token=GetToken();

  001f5	e8 00 00 00 00	 call	 ?GetToken@@YA?AW4SMDToken@@XZ ; GetToken

; 174  : 			p->SetFullOtionTableValue[0]=TokenNumber;

  001fa	d9 05 00 00 00
	00		 fld	 DWORD PTR _TokenNumber
  00200	e8 00 00 00 00	 call	 __ftol2_sse
  00205	89 86 8c 01 00
	00		 mov	 DWORD PTR [esi+396], eax

; 175  : 
; 176  : 			Token=GetToken();

  0020b	e8 00 00 00 00	 call	 ?GetToken@@YA?AW4SMDToken@@XZ ; GetToken

; 177  : 			p->SetFullOtionTable[1]=TokenNumber;

  00210	d9 05 00 00 00
	00		 fld	 DWORD PTR _TokenNumber
  00216	e8 00 00 00 00	 call	 __ftol2_sse
  0021b	89 86 7c 01 00
	00		 mov	 DWORD PTR [esi+380], eax

; 178  : 			Token=GetToken();

  00221	e8 00 00 00 00	 call	 ?GetToken@@YA?AW4SMDToken@@XZ ; GetToken

; 179  : 			p->SetFullOtionTableValue[1]=TokenNumber;

  00226	d9 05 00 00 00
	00		 fld	 DWORD PTR _TokenNumber
  0022c	e8 00 00 00 00	 call	 __ftol2_sse
  00231	89 86 90 01 00
	00		 mov	 DWORD PTR [esi+400], eax

; 180  : 
; 181  : 			Token=GetToken();

  00237	e8 00 00 00 00	 call	 ?GetToken@@YA?AW4SMDToken@@XZ ; GetToken

; 182  : 			p->SetFullOtionTable[2]=TokenNumber;

  0023c	d9 05 00 00 00
	00		 fld	 DWORD PTR _TokenNumber
  00242	e8 00 00 00 00	 call	 __ftol2_sse
  00247	89 86 80 01 00
	00		 mov	 DWORD PTR [esi+384], eax

; 183  : 			Token=GetToken();

  0024d	e8 00 00 00 00	 call	 ?GetToken@@YA?AW4SMDToken@@XZ ; GetToken

; 184  : 			p->SetFullOtionTableValue[2]=TokenNumber;

  00252	d9 05 00 00 00
	00		 fld	 DWORD PTR _TokenNumber
  00258	e8 00 00 00 00	 call	 __ftol2_sse
  0025d	89 86 94 01 00
	00		 mov	 DWORD PTR [esi+404], eax

; 185  : 
; 186  : 			Token=GetToken();

  00263	e8 00 00 00 00	 call	 ?GetToken@@YA?AW4SMDToken@@XZ ; GetToken

; 187  : 			p->SetFullOtionTable[3]=TokenNumber;

  00268	d9 05 00 00 00
	00		 fld	 DWORD PTR _TokenNumber
  0026e	e8 00 00 00 00	 call	 __ftol2_sse
  00273	89 86 84 01 00
	00		 mov	 DWORD PTR [esi+388], eax

; 188  : 			Token=GetToken();

  00279	e8 00 00 00 00	 call	 ?GetToken@@YA?AW4SMDToken@@XZ ; GetToken

; 189  : 			p->SetFullOtionTableValue[3]=TokenNumber;

  0027e	d9 05 00 00 00
	00		 fld	 DWORD PTR _TokenNumber
  00284	e8 00 00 00 00	 call	 __ftol2_sse
  00289	89 86 98 01 00
	00		 mov	 DWORD PTR [esi+408], eax

; 190  : 
; 191  : 			Token=GetToken();

  0028f	e8 00 00 00 00	 call	 ?GetToken@@YA?AW4SMDToken@@XZ ; GetToken

; 192  : 			p->SetFullOtionTable[4]=TokenNumber;

  00294	d9 05 00 00 00
	00		 fld	 DWORD PTR _TokenNumber
  0029a	e8 00 00 00 00	 call	 __ftol2_sse
  0029f	89 86 88 01 00
	00		 mov	 DWORD PTR [esi+392], eax

; 193  : 			Token=GetToken();

  002a5	e8 00 00 00 00	 call	 ?GetToken@@YA?AW4SMDToken@@XZ ; GetToken

; 194  : 			p->SetFullOtionTableValue[4]=TokenNumber;

  002aa	d9 05 00 00 00
	00		 fld	 DWORD PTR _TokenNumber
  002b0	e8 00 00 00 00	 call	 __ftol2_sse
  002b5	89 86 9c 01 00
	00		 mov	 DWORD PTR [esi+412], eax

; 195  : 
; 196  : 			// Save Character Class Disponibility
; 197  : 			Token=GetToken();

  002bb	e8 00 00 00 00	 call	 ?GetToken@@YA?AW4SMDToken@@XZ ; GetToken

; 198  : 			p->RequireClass[CLASS_WIZARD]=TokenNumber;

  002c0	d9 05 00 00 00
	00		 fld	 DWORD PTR _TokenNumber
  002c6	d9 7d 0a	 fnstcw	 WORD PTR tv509[ebp]
  002c9	0f b7 45 0a	 movzx	 eax, WORD PTR tv509[ebp]
  002cd	0d 00 0c 00 00	 or	 eax, 3072		; 00000c00H
  002d2	89 45 fc	 mov	 DWORD PTR tv506[ebp], eax
  002d5	d9 6d fc	 fldcw	 WORD PTR tv506[ebp]
  002d8	db 5d fc	 fistp	 DWORD PTR tv504[ebp]
  002db	0f b6 55 fc	 movzx	 edx, BYTE PTR tv504[ebp]
  002df	88 96 a0 01 00
	00		 mov	 BYTE PTR [esi+416], dl
  002e5	d9 6d 0a	 fldcw	 WORD PTR tv509[ebp]

; 199  : 
; 200  : 			Token=GetToken();

  002e8	e8 00 00 00 00	 call	 ?GetToken@@YA?AW4SMDToken@@XZ ; GetToken

; 201  : 			p->RequireClass[CLASS_KNIGHT]=TokenNumber;

  002ed	d9 05 00 00 00
	00		 fld	 DWORD PTR _TokenNumber
  002f3	d9 7d 0a	 fnstcw	 WORD PTR tv501[ebp]
  002f6	0f b7 45 0a	 movzx	 eax, WORD PTR tv501[ebp]
  002fa	0d 00 0c 00 00	 or	 eax, 3072		; 00000c00H
  002ff	89 45 fc	 mov	 DWORD PTR tv498[ebp], eax
  00302	d9 6d fc	 fldcw	 WORD PTR tv498[ebp]
  00305	db 5d fc	 fistp	 DWORD PTR tv496[ebp]
  00308	0f b6 45 fc	 movzx	 eax, BYTE PTR tv496[ebp]
  0030c	88 86 a1 01 00
	00		 mov	 BYTE PTR [esi+417], al
  00312	d9 6d 0a	 fldcw	 WORD PTR tv501[ebp]

; 202  : 
; 203  : 			Token=GetToken();

  00315	e8 00 00 00 00	 call	 ?GetToken@@YA?AW4SMDToken@@XZ ; GetToken

; 204  : 			p->RequireClass[CLASS_ELF]=TokenNumber;

  0031a	d9 05 00 00 00
	00		 fld	 DWORD PTR _TokenNumber
  00320	d9 7d 0a	 fnstcw	 WORD PTR tv493[ebp]
  00323	0f b7 45 0a	 movzx	 eax, WORD PTR tv493[ebp]
  00327	0d 00 0c 00 00	 or	 eax, 3072		; 00000c00H
  0032c	89 45 fc	 mov	 DWORD PTR tv490[ebp], eax
  0032f	d9 6d fc	 fldcw	 WORD PTR tv490[ebp]
  00332	db 5d fc	 fistp	 DWORD PTR tv488[ebp]
  00335	0f b6 4d fc	 movzx	 ecx, BYTE PTR tv488[ebp]
  00339	88 8e a2 01 00
	00		 mov	 BYTE PTR [esi+418], cl
  0033f	d9 6d 0a	 fldcw	 WORD PTR tv493[ebp]

; 205  : 
; 206  : 			Token=GetToken();

  00342	e8 00 00 00 00	 call	 ?GetToken@@YA?AW4SMDToken@@XZ ; GetToken

; 207  : 			p->RequireClass[CLASS_MAGUMSA]=TokenNumber;

  00347	d9 05 00 00 00
	00		 fld	 DWORD PTR _TokenNumber
  0034d	d9 7d 0a	 fnstcw	 WORD PTR tv485[ebp]
  00350	0f b7 45 0a	 movzx	 eax, WORD PTR tv485[ebp]
  00354	0d 00 0c 00 00	 or	 eax, 3072		; 00000c00H
  00359	89 45 fc	 mov	 DWORD PTR tv482[ebp], eax
  0035c	d9 6d fc	 fldcw	 WORD PTR tv482[ebp]
  0035f	db 5d fc	 fistp	 DWORD PTR tv480[ebp]
  00362	0f b6 55 fc	 movzx	 edx, BYTE PTR tv480[ebp]
  00366	d9 6d 0a	 fldcw	 WORD PTR tv485[ebp]
  00369	88 96 a3 01 00
	00		 mov	 BYTE PTR [esi+419], dl

; 208  : 
; 209  : 			Token=GetToken();

  0036f	e8 00 00 00 00	 call	 ?GetToken@@YA?AW4SMDToken@@XZ ; GetToken

; 210  : 			p->RequireClass[CLASS_DARKLORD]=TokenNumber;

  00374	d9 05 00 00 00
	00		 fld	 DWORD PTR _TokenNumber
  0037a	d9 7d 0a	 fnstcw	 WORD PTR tv477[ebp]
  0037d	0f b7 45 0a	 movzx	 eax, WORD PTR tv477[ebp]
  00381	0d 00 0c 00 00	 or	 eax, 3072		; 00000c00H
  00386	89 45 fc	 mov	 DWORD PTR tv474[ebp], eax
  00389	d9 6d fc	 fldcw	 WORD PTR tv474[ebp]
  0038c	db 5d fc	 fistp	 DWORD PTR tv472[ebp]
  0038f	0f b6 45 fc	 movzx	 eax, BYTE PTR tv472[ebp]
  00393	88 86 a4 01 00
	00		 mov	 BYTE PTR [esi+420], al
  00399	d9 6d 0a	 fldcw	 WORD PTR tv477[ebp]

; 211  : 
; 212  : 			Token=GetToken();

  0039c	e8 00 00 00 00	 call	 ?GetToken@@YA?AW4SMDToken@@XZ ; GetToken

; 213  : 			p->RequireClass[CLASS_SUMMONER]=TokenNumber;

  003a1	d9 05 00 00 00
	00		 fld	 DWORD PTR _TokenNumber
  003a7	d9 7d 0a	 fnstcw	 WORD PTR tv469[ebp]
  003aa	0f b7 45 0a	 movzx	 eax, WORD PTR tv469[ebp]
  003ae	0d 00 0c 00 00	 or	 eax, 3072		; 00000c00H
  003b3	89 45 fc	 mov	 DWORD PTR tv466[ebp], eax
  003b6	d9 6d fc	 fldcw	 WORD PTR tv466[ebp]
  003b9	db 5d fc	 fistp	 DWORD PTR tv464[ebp]
  003bc	0f b6 4d fc	 movzx	 ecx, BYTE PTR tv464[ebp]
  003c0	88 8e a5 01 00
	00		 mov	 BYTE PTR [esi+421], cl
  003c6	d9 6d 0a	 fldcw	 WORD PTR tv469[ebp]

; 214  : 
; 215  : 			Token=GetToken();

  003c9	e8 00 00 00 00	 call	 ?GetToken@@YA?AW4SMDToken@@XZ ; GetToken

; 216  : 			p->RequireClass[CLASS_FIGHTER]=TokenNumber;
; 217  : 			
; 218  : 			// Active SetItem
; 219  : 			p->IsLoad=TRUE;			
; 220  : 		}
; 221  : 	}

  003ce	8b 5d f8	 mov	 ebx, DWORD PTR _this$[ebp]
  003d1	c7 06 01 00 00
	00		 mov	 DWORD PTR [esi], 1
  003d7	d9 05 00 00 00
	00		 fld	 DWORD PTR _TokenNumber
  003dd	d9 7d 0a	 fnstcw	 WORD PTR tv461[ebp]
  003e0	0f b7 45 0a	 movzx	 eax, WORD PTR tv461[ebp]
  003e4	0d 00 0c 00 00	 or	 eax, 3072		; 00000c00H
  003e9	89 45 fc	 mov	 DWORD PTR tv458[ebp], eax
  003ec	d9 6d fc	 fldcw	 WORD PTR tv458[ebp]
  003ef	db 5d fc	 fistp	 DWORD PTR tv456[ebp]
  003f2	0f b6 55 fc	 movzx	 edx, BYTE PTR tv456[ebp]
  003f6	88 96 a6 01 00
	00		 mov	 BYTE PTR [esi+422], dl
  003fc	d9 6d 0a	 fldcw	 WORD PTR tv461[ebp]
  003ff	e9 7e fc ff ff	 jmp	 $LL11@LoadOption
$LN24@LoadOption:
  00404	5f		 pop	 edi
  00405	5e		 pop	 esi

; 222  : 
; 223  : 	return 1;

  00406	b8 01 00 00 00	 mov	 eax, 1
  0040b	5b		 pop	 ebx

; 224  : }

  0040c	8b e5		 mov	 esp, ebp
  0040e	5d		 pop	 ebp
  0040f	c2 04 00	 ret	 4
?LoadOptionInfo@CSetItemOption@@QAEHPAD@Z ENDP		; CSetItemOption::LoadOptionInfo
_TEXT	ENDS
PUBLIC	__$ArrayPad$
PUBLIC	?LoadTypeInfo@CSetItemOption@@QAEHPADH@Z	; CSetItemOption::LoadTypeInfo
EXTRN	??1CWzMemScript@@UAE@XZ:PROC			; CWzMemScript::~CWzMemScript
EXTRN	?GetString@CWzMemScript@@QAEPADXZ:PROC		; CWzMemScript::GetString
EXTRN	?GetNumber@CWzMemScript@@QAEHXZ:PROC		; CWzMemScript::GetNumber
EXTRN	?GetToken@CWzMemScript@@QAE?AW4SMDToken@@XZ:PROC ; CWzMemScript::GetToken
EXTRN	?SetBuffer@CWzMemScript@@QAEHPADH@Z:PROC	; CWzMemScript::SetBuffer
EXTRN	??0CWzMemScript@@QAE@XZ:PROC			; CWzMemScript::CWzMemScript
EXTRN	___CxxFrameHandler3:PROC
;	COMDAT xdata$x
xdata$x	SEGMENT
__unwindtable$?LoadTypeInfo@CSetItemOption@@QAEHPADH@Z DD 0ffffffffH
	DD	FLAT:__unwindfunclet$?LoadTypeInfo@CSetItemOption@@QAEHPADH@Z$0
__ehfuncinfo$?LoadTypeInfo@CSetItemOption@@QAEHPADH@Z DD 019930522H
	DD	01H
	DD	FLAT:__unwindtable$?LoadTypeInfo@CSetItemOption@@QAEHPADH@Z
	DD	2 DUP(00H)
	DD	2 DUP(00H)
	DD	00H
	DD	01H
; Function compile flags: /Ogtp
xdata$x	ENDS
;	COMDAT ?LoadTypeInfo@CSetItemOption@@QAEHPADH@Z
_TEXT	SEGMENT
_number$155288 = -152					; size = 4
_WzMemScript$ = -148					; size = 132
__$ArrayPad$ = -16					; size = 4
__$EHRec$ = -12						; size = 12
_Buffer$ = 8						; size = 4
_iSize$ = 12						; size = 4
?LoadTypeInfo@CSetItemOption@@QAEHPADH@Z PROC		; CSetItemOption::LoadTypeInfo, COMDAT
; _this$ = ecx

; 228  : {

  00000	55		 push	 ebp
  00001	8b ec		 mov	 ebp, esp
  00003	6a ff		 push	 -1
  00005	68 00 00 00 00	 push	 __ehhandler$?LoadTypeInfo@CSetItemOption@@QAEHPADH@Z
  0000a	64 a1 00 00 00
	00		 mov	 eax, DWORD PTR fs:0
  00010	50		 push	 eax
  00011	81 ec 8c 00 00
	00		 sub	 esp, 140		; 0000008cH
  00017	a1 00 00 00 00	 mov	 eax, DWORD PTR ___security_cookie
  0001c	33 c5		 xor	 eax, ebp
  0001e	89 45 f0	 mov	 DWORD PTR __$ArrayPad$[ebp], eax
  00021	53		 push	 ebx
  00022	56		 push	 esi
  00023	57		 push	 edi
  00024	50		 push	 eax
  00025	8d 45 f4	 lea	 eax, DWORD PTR __$EHRec$[ebp]
  00028	64 a3 00 00 00
	00		 mov	 DWORD PTR fs:0, eax
  0002e	8b 75 08	 mov	 esi, DWORD PTR _Buffer$[ebp]
  00031	8b d9		 mov	 ebx, ecx

; 229  : 	CWzMemScript WzMemScript;

  00033	8d 8d 6c ff ff
	ff		 lea	 ecx, DWORD PTR _WzMemScript$[ebp]
  00039	e8 00 00 00 00	 call	 ??0CWzMemScript@@QAE@XZ	; CWzMemScript::CWzMemScript

; 230  : 	int i;
; 231  : 	int Token;
; 232  : 
; 233  : 	WzMemScript.SetBuffer(Buffer, iSize);

  0003e	8b 45 0c	 mov	 eax, DWORD PTR _iSize$[ebp]
  00041	50		 push	 eax
  00042	56		 push	 esi
  00043	8d 8d 6c ff ff
	ff		 lea	 ecx, DWORD PTR _WzMemScript$[ebp]
  00049	c7 45 fc 00 00
	00 00		 mov	 DWORD PTR __$EHRec$[ebp+8], 0
  00050	e8 00 00 00 00	 call	 ?SetBuffer@CWzMemScript@@QAEHPADH@Z ; CWzMemScript::SetBuffer

; 234  : 
; 235  : 	memset(this->m_SetItemTypeInfo , -1, sizeof(this->m_SetItemTypeInfo) );

  00055	68 00 80 02 00	 push	 163840			; 00028000H
  0005a	8d 73 04	 lea	 esi, DWORD PTR [ebx+4]
  0005d	6a ff		 push	 -1
  0005f	56		 push	 esi
  00060	e8 00 00 00 00	 call	 _memset
  00065	83 c4 0c	 add	 esp, 12			; 0000000cH

; 236  : 
; 237  : 	for ( i=0; i<MAX_ITEMS; i++)
; 238  : 	{
; 239  : 		this->m_SetItemTypeInfo[i].IsLoad =FALSE;

  00068	8b c6		 mov	 eax, esi
  0006a	b9 00 20 00 00	 mov	 ecx, 8192		; 00002000H
  0006f	90		 npad	 1
$LL11@LoadTypeIn@2:
  00070	c7 00 00 00 00
	00		 mov	 DWORD PTR [eax], 0
  00076	83 c0 14	 add	 eax, 20			; 00000014H
  00079	49		 dec	 ecx
  0007a	75 f4		 jne	 SHORT $LL11@LoadTypeIn@2

; 240  : 	}
; 241  : 	
; 242  : 	while ( true )
; 243  : 	{
; 244  : 		int number;
; 245  : 		
; 246  : 		Token=WzMemScript.GetToken();

  0007c	8d 8d 6c ff ff
	ff		 lea	 ecx, DWORD PTR _WzMemScript$[ebp]
  00082	e8 00 00 00 00	 call	 ?GetToken@CWzMemScript@@QAE?AW4SMDToken@@XZ ; CWzMemScript::GetToken

; 247  : 		if (Token == 2)

  00087	83 f8 02	 cmp	 eax, 2
  0008a	0f 84 12 01 00
	00		 je	 $LN20@LoadTypeIn@2
$LL8@LoadTypeIn@2:

; 248  : 		{
; 249  : 			break;
; 250  : 		}
; 251  : 
; 252  : 		if (Token == 1)

  00090	83 f8 01	 cmp	 eax, 1
  00093	0f 85 f5 00 00
	00		 jne	 $LN19@LoadTypeIn@2

; 253  : 		{
; 254  : 			number = WzMemScript.GetNumber();

  00099	8d 8d 6c ff ff
	ff		 lea	 ecx, DWORD PTR _WzMemScript$[ebp]
  0009f	e8 00 00 00 00	 call	 ?GetNumber@CWzMemScript@@QAEHXZ ; CWzMemScript::GetNumber
  000a4	89 85 68 ff ff
	ff		 mov	 DWORD PTR _number$155288[ebp], eax
  000aa	8d 9b 00 00 00
	00		 npad	 6
$LL4@LoadTypeIn@2:

; 255  : 			
; 256  : 			while ( true )
; 257  : 			{
; 258  : 				int number2;
; 259  : 				LPSETITEM_TYPEINFO pointer;
; 260  : 
; 261  : 				Token = WzMemScript.GetToken();

  000b0	8d 8d 6c ff ff
	ff		 lea	 ecx, DWORD PTR _WzMemScript$[ebp]
  000b6	e8 00 00 00 00	 call	 ?GetToken@CWzMemScript@@QAE?AW4SMDToken@@XZ ; CWzMemScript::GetToken

; 262  : 				number2=WzMemScript.GetNumber();

  000bb	8d 8d 6c ff ff
	ff		 lea	 ecx, DWORD PTR _WzMemScript$[ebp]
  000c1	8b f0		 mov	 esi, eax
  000c3	e8 00 00 00 00	 call	 ?GetNumber@CWzMemScript@@QAEHXZ ; CWzMemScript::GetNumber
  000c8	8b f8		 mov	 edi, eax

; 263  : 				if ( ( Token== 0) && (strcmp("end", WzMemScript.GetString() )== 0))

  000ca	85 f6		 test	 esi, esi
  000cc	75 3f		 jne	 SHORT $LN2@LoadTypeIn@2
  000ce	8d 8d 6c ff ff
	ff		 lea	 ecx, DWORD PTR _WzMemScript$[ebp]
  000d4	e8 00 00 00 00	 call	 ?GetString@CWzMemScript@@QAEPADXZ ; CWzMemScript::GetString
  000d9	b9 00 00 00 00	 mov	 ecx, OFFSET ??_C@_03JBJLGPFL@end?$AA@
  000de	8b ff		 npad	 2
$LL22@LoadTypeIn@2:
  000e0	8a 11		 mov	 dl, BYTE PTR [ecx]
  000e2	3a 10		 cmp	 dl, BYTE PTR [eax]
  000e4	75 1a		 jne	 SHORT $LN23@LoadTypeIn@2
  000e6	84 d2		 test	 dl, dl
  000e8	74 12		 je	 SHORT $LN24@LoadTypeIn@2
  000ea	8a 51 01	 mov	 dl, BYTE PTR [ecx+1]
  000ed	3a 50 01	 cmp	 dl, BYTE PTR [eax+1]
  000f0	75 0e		 jne	 SHORT $LN23@LoadTypeIn@2
  000f2	83 c1 02	 add	 ecx, 2
  000f5	83 c0 02	 add	 eax, 2
  000f8	84 d2		 test	 dl, dl
  000fa	75 e4		 jne	 SHORT $LL22@LoadTypeIn@2
$LN24@LoadTypeIn@2:
  000fc	33 c0		 xor	 eax, eax
  000fe	eb 05		 jmp	 SHORT $LN25@LoadTypeIn@2
$LN23@LoadTypeIn@2:
  00100	1b c0		 sbb	 eax, eax
  00102	83 d8 ff	 sbb	 eax, -1
$LN25@LoadTypeIn@2:
  00105	85 c0		 test	 eax, eax
  00107	0f 84 81 00 00
	00		 je	 $LN19@LoadTypeIn@2
$LN2@LoadTypeIn@2:

; 264  : 				{
; 265  : 					break;
; 266  : 				}
; 267  : 				else
; 268  : 				{
; 269  : 					pointer = &this->m_SetItemTypeInfo[number*MAX_SUBTYPE_ITEMS+number2];

  0010d	8b 85 68 ff ff
	ff		 mov	 eax, DWORD PTR _number$155288[ebp]
  00113	c1 e0 09	 shl	 eax, 9
  00116	03 c7		 add	 eax, edi
  00118	8d 0c 80	 lea	 ecx, DWORD PTR [eax+eax*4]
  0011b	8d 74 8b 04	 lea	 esi, DWORD PTR [ebx+ecx*4+4]

; 270  : 
; 271  : 					Token=WzMemScript.GetToken();

  0011f	8d 8d 6c ff ff
	ff		 lea	 ecx, DWORD PTR _WzMemScript$[ebp]
  00125	e8 00 00 00 00	 call	 ?GetToken@CWzMemScript@@QAE?AW4SMDToken@@XZ ; CWzMemScript::GetToken

; 272  : 					pointer->OptionIndex[0]=WzMemScript.GetNumber();

  0012a	8d 8d 6c ff ff
	ff		 lea	 ecx, DWORD PTR _WzMemScript$[ebp]
  00130	e8 00 00 00 00	 call	 ?GetNumber@CWzMemScript@@QAEHXZ ; CWzMemScript::GetNumber

; 273  : 					Token=WzMemScript.GetToken();

  00135	8d 8d 6c ff ff
	ff		 lea	 ecx, DWORD PTR _WzMemScript$[ebp]
  0013b	89 46 04	 mov	 DWORD PTR [esi+4], eax
  0013e	e8 00 00 00 00	 call	 ?GetToken@CWzMemScript@@QAE?AW4SMDToken@@XZ ; CWzMemScript::GetToken

; 274  : 					pointer->OptionIndex[1]=WzMemScript.GetNumber();

  00143	8d 8d 6c ff ff
	ff		 lea	 ecx, DWORD PTR _WzMemScript$[ebp]
  00149	e8 00 00 00 00	 call	 ?GetNumber@CWzMemScript@@QAEHXZ ; CWzMemScript::GetNumber

; 275  : 					Token=WzMemScript.GetToken();

  0014e	8d 8d 6c ff ff
	ff		 lea	 ecx, DWORD PTR _WzMemScript$[ebp]
  00154	89 46 08	 mov	 DWORD PTR [esi+8], eax
  00157	e8 00 00 00 00	 call	 ?GetToken@CWzMemScript@@QAE?AW4SMDToken@@XZ ; CWzMemScript::GetToken

; 276  : 					pointer->ChaosMixLevel[0]=WzMemScript.GetNumber();

  0015c	8d 8d 6c ff ff
	ff		 lea	 ecx, DWORD PTR _WzMemScript$[ebp]
  00162	e8 00 00 00 00	 call	 ?GetNumber@CWzMemScript@@QAEHXZ ; CWzMemScript::GetNumber

; 277  : 					Token=WzMemScript.GetToken();

  00167	8d 8d 6c ff ff
	ff		 lea	 ecx, DWORD PTR _WzMemScript$[ebp]
  0016d	89 46 0c	 mov	 DWORD PTR [esi+12], eax
  00170	e8 00 00 00 00	 call	 ?GetToken@CWzMemScript@@QAE?AW4SMDToken@@XZ ; CWzMemScript::GetToken

; 278  : 					pointer->ChaosMixLevel[1]=WzMemScript.GetNumber();

  00175	8d 8d 6c ff ff
	ff		 lea	 ecx, DWORD PTR _WzMemScript$[ebp]
  0017b	e8 00 00 00 00	 call	 ?GetNumber@CWzMemScript@@QAEHXZ ; CWzMemScript::GetNumber
  00180	89 46 10	 mov	 DWORD PTR [esi+16], eax

; 279  : 
; 280  : 					pointer->IsLoad=TRUE;

  00183	c7 06 01 00 00
	00		 mov	 DWORD PTR [esi], 1

; 281  : 				}
; 282  : 			}

  00189	e9 22 ff ff ff	 jmp	 $LL4@LoadTypeIn@2
$LN19@LoadTypeIn@2:

; 240  : 	}
; 241  : 	
; 242  : 	while ( true )
; 243  : 	{
; 244  : 		int number;
; 245  : 		
; 246  : 		Token=WzMemScript.GetToken();

  0018e	8d 8d 6c ff ff
	ff		 lea	 ecx, DWORD PTR _WzMemScript$[ebp]
  00194	e8 00 00 00 00	 call	 ?GetToken@CWzMemScript@@QAE?AW4SMDToken@@XZ ; CWzMemScript::GetToken

; 247  : 		if (Token == 2)

  00199	83 f8 02	 cmp	 eax, 2
  0019c	0f 85 ee fe ff
	ff		 jne	 $LL8@LoadTypeIn@2
$LN20@LoadTypeIn@2:

; 283  : 		}
; 284  : 		
; 285  : 	}
; 286  : 
; 287  : 	return 1;

  001a2	8d 8d 6c ff ff
	ff		 lea	 ecx, DWORD PTR _WzMemScript$[ebp]
  001a8	c7 45 fc ff ff
	ff ff		 mov	 DWORD PTR __$EHRec$[ebp+8], -1
  001af	e8 00 00 00 00	 call	 ??1CWzMemScript@@UAE@XZ	; CWzMemScript::~CWzMemScript
  001b4	b8 01 00 00 00	 mov	 eax, 1

; 288  : }

  001b9	8b 4d f4	 mov	 ecx, DWORD PTR __$EHRec$[ebp]
  001bc	64 89 0d 00 00
	00 00		 mov	 DWORD PTR fs:0, ecx
  001c3	59		 pop	 ecx
  001c4	5f		 pop	 edi
  001c5	5e		 pop	 esi
  001c6	5b		 pop	 ebx
  001c7	8b 4d f0	 mov	 ecx, DWORD PTR __$ArrayPad$[ebp]
  001ca	33 cd		 xor	 ecx, ebp
  001cc	e8 00 00 00 00	 call	 @__security_check_cookie@4
  001d1	8b e5		 mov	 esp, ebp
  001d3	5d		 pop	 ebp
  001d4	c2 08 00	 ret	 8
_TEXT	ENDS
;	COMDAT text$x
text$x	SEGMENT
__unwindfunclet$?LoadTypeInfo@CSetItemOption@@QAEHPADH@Z$0:
  00000	8d 8d 6c ff ff
	ff		 lea	 ecx, DWORD PTR _WzMemScript$[ebp]
  00006	e9 00 00 00 00	 jmp	 ??1CWzMemScript@@UAE@XZ	; CWzMemScript::~CWzMemScript
__ehhandler$?LoadTypeInfo@CSetItemOption@@QAEHPADH@Z:
  0000b	8b 54 24 08	 mov	 edx, DWORD PTR [esp+8]
  0000f	8d 42 0c	 lea	 eax, DWORD PTR [edx+12]
  00012	8b 8a 64 ff ff
	ff		 mov	 ecx, DWORD PTR [edx-156]
  00018	33 c8		 xor	 ecx, eax
  0001a	e8 00 00 00 00	 call	 @__security_check_cookie@4
  0001f	8b 4a fc	 mov	 ecx, DWORD PTR [edx-4]
  00022	33 c8		 xor	 ecx, eax
  00024	e8 00 00 00 00	 call	 @__security_check_cookie@4
  00029	b8 00 00 00 00	 mov	 eax, OFFSET __ehfuncinfo$?LoadTypeInfo@CSetItemOption@@QAEHPADH@Z
  0002e	e9 00 00 00 00	 jmp	 ___CxxFrameHandler3
text$x	ENDS
?LoadTypeInfo@CSetItemOption@@QAEHPADH@Z ENDP		; CSetItemOption::LoadTypeInfo
PUBLIC	_this$GSCopy$
PUBLIC	__$ArrayPad$
PUBLIC	?LoadOptionInfo@CSetItemOption@@QAEHPADH@Z	; CSetItemOption::LoadOptionInfo
;	COMDAT xdata$x
xdata$x	SEGMENT
__unwindtable$?LoadOptionInfo@CSetItemOption@@QAEHPADH@Z DD 0ffffffffH
	DD	FLAT:__unwindfunclet$?LoadOptionInfo@CSetItemOption@@QAEHPADH@Z$0
__ehfuncinfo$?LoadOptionInfo@CSetItemOption@@QAEHPADH@Z DD 019930522H
	DD	01H
	DD	FLAT:__unwindtable$?LoadOptionInfo@CSetItemOption@@QAEHPADH@Z
	DD	2 DUP(00H)
	DD	2 DUP(00H)
	DD	00H
	DD	01H
; Function compile flags: /Ogtp
xdata$x	ENDS
;	COMDAT ?LoadOptionInfo@CSetItemOption@@QAEHPADH@Z
_TEXT	SEGMENT
_this$GSCopy$ = -152					; size = 4
_WzMemScript$ = -148					; size = 132
__$ArrayPad$ = -16					; size = 4
__$EHRec$ = -12						; size = 12
_Buffer$ = 8						; size = 4
_iSize$ = 12						; size = 4
?LoadOptionInfo@CSetItemOption@@QAEHPADH@Z PROC		; CSetItemOption::LoadOptionInfo, COMDAT
; _this$ = ecx

; 292  : {

  00000	55		 push	 ebp
  00001	8b ec		 mov	 ebp, esp
  00003	6a ff		 push	 -1
  00005	68 00 00 00 00	 push	 __ehhandler$?LoadOptionInfo@CSetItemOption@@QAEHPADH@Z
  0000a	64 a1 00 00 00
	00		 mov	 eax, DWORD PTR fs:0
  00010	50		 push	 eax
  00011	81 ec 8c 00 00
	00		 sub	 esp, 140		; 0000008cH
  00017	a1 00 00 00 00	 mov	 eax, DWORD PTR ___security_cookie
  0001c	33 c5		 xor	 eax, ebp
  0001e	89 45 f0	 mov	 DWORD PTR __$ArrayPad$[ebp], eax
  00021	53		 push	 ebx
  00022	56		 push	 esi
  00023	57		 push	 edi
  00024	50		 push	 eax
  00025	8d 45 f4	 lea	 eax, DWORD PTR __$EHRec$[ebp]
  00028	64 a3 00 00 00
	00		 mov	 DWORD PTR fs:0, eax
  0002e	8b 75 08	 mov	 esi, DWORD PTR _Buffer$[ebp]
  00031	8b d9		 mov	 ebx, ecx

; 293  : 	CWzMemScript WzMemScript;

  00033	8d 8d 6c ff ff
	ff		 lea	 ecx, DWORD PTR _WzMemScript$[ebp]

; 324  : 
; 325  : 			for (i=0;i<OPTION_TABLE_SIZE;i++)

  00039	89 9d 68 ff ff
	ff		 mov	 DWORD PTR _this$GSCopy$[ebp], ebx
  0003f	e8 00 00 00 00	 call	 ??0CWzMemScript@@QAE@XZ	; CWzMemScript::CWzMemScript
  00044	8b 45 0c	 mov	 eax, DWORD PTR _iSize$[ebp]
  00047	50		 push	 eax
  00048	56		 push	 esi
  00049	8d 8d 6c ff ff
	ff		 lea	 ecx, DWORD PTR _WzMemScript$[ebp]
  0004f	c7 45 fc 00 00
	00 00		 mov	 DWORD PTR __$EHRec$[ebp+8], 0
  00056	e8 00 00 00 00	 call	 ?SetBuffer@CWzMemScript@@QAEHPADH@Z ; CWzMemScript::SetBuffer
  0005b	68 80 84 00 00	 push	 33920			; 00008480H
  00060	8d 8b 04 80 02
	00		 lea	 ecx, DWORD PTR [ebx+163844]
  00066	6a 00		 push	 0
  00068	51		 push	 ecx
  00069	e8 00 00 00 00	 call	 _memset
  0006e	83 c4 0c	 add	 esp, 12			; 0000000cH
  00071	8d b3 6c 81 02
	00		 lea	 esi, DWORD PTR [ebx+164204]
  00077	bf 50 00 00 00	 mov	 edi, 80			; 00000050H
  0007c	8d 64 24 00	 npad	 4
$LL14@LoadOption@2:

; 294  : 	int i;
; 295  : 	int Token;
; 296  : 	
; 297  : 	WzMemScript.SetBuffer(Buffer, iSize);
; 298  : 
; 299  : 	memset(&this->m_SetItemOptionInfo, 0, sizeof(this->m_SetItemOptionInfo));
; 300  : 
; 301  : 	for ( i=0;i<MAX_SETITEM_OPTION;i++)
; 302  : 	{
; 303  : 		memset(&this->m_SetItemOptionInfo[i].SetOptionTable[0], -1, sizeof(this->m_SetItemOptionInfo[0].SetOptionTable) );

  00080	6a 30		 push	 48			; 00000030H
  00082	8d 56 a0	 lea	 edx, DWORD PTR [esi-96]
  00085	6a ff		 push	 -1
  00087	52		 push	 edx
  00088	e8 00 00 00 00	 call	 _memset

; 304  : 		memset(&this->m_SetItemOptionInfo[i].SetExPOptionTable, -1, sizeof(this->m_SetItemOptionInfo[0].SetExPOptionTable) );

  0008d	83 c8 ff	 or	 eax, -1
  00090	89 06		 mov	 DWORD PTR [esi], eax
  00092	89 46 04	 mov	 DWORD PTR [esi+4], eax

; 305  : 		memset(&this->m_SetItemOptionInfo[i].SetFullOtionTable[0], -1, sizeof(this->m_SetItemOptionInfo[0].SetFullOtionTable) );

  00095	0b c0		 or	 eax, eax
  00097	89 46 10	 mov	 DWORD PTR [esi+16], eax
  0009a	89 46 14	 mov	 DWORD PTR [esi+20], eax
  0009d	89 46 18	 mov	 DWORD PTR [esi+24], eax
  000a0	89 46 1c	 mov	 DWORD PTR [esi+28], eax
  000a3	89 46 20	 mov	 DWORD PTR [esi+32], eax
  000a6	83 c4 0c	 add	 esp, 12			; 0000000cH
  000a9	81 c6 a8 01 00
	00		 add	 esi, 424		; 000001a8H
  000af	4f		 dec	 edi
  000b0	75 ce		 jne	 SHORT $LL14@LoadOption@2
$LL11@LoadOption@2:

; 306  : 	}
; 307  : 
; 308  : 	while ( true )
; 309  : 	{
; 310  : 		Token=WzMemScript.GetToken();

  000b2	8d 8d 6c ff ff
	ff		 lea	 ecx, DWORD PTR _WzMemScript$[ebp]
  000b8	e8 00 00 00 00	 call	 ?GetToken@CWzMemScript@@QAE?AW4SMDToken@@XZ ; CWzMemScript::GetToken

; 311  : 		int number=WzMemScript.GetNumber();

  000bd	8d 8d 6c ff ff
	ff		 lea	 ecx, DWORD PTR _WzMemScript$[ebp]
  000c3	8b f8		 mov	 edi, eax
  000c5	e8 00 00 00 00	 call	 ?GetNumber@CWzMemScript@@QAEHXZ ; CWzMemScript::GetNumber
  000ca	8b f0		 mov	 esi, eax

; 312  : 		
; 313  : 		if (Token==0 && strcmp("end", WzMemScript.GetString()) == 0)

  000cc	85 ff		 test	 edi, edi
  000ce	75 3d		 jne	 SHORT $LN9@LoadOption@2
  000d0	8d 8d 6c ff ff
	ff		 lea	 ecx, DWORD PTR _WzMemScript$[ebp]
  000d6	e8 00 00 00 00	 call	 ?GetString@CWzMemScript@@QAEPADXZ ; CWzMemScript::GetString
  000db	b9 00 00 00 00	 mov	 ecx, OFFSET ??_C@_03JBJLGPFL@end?$AA@
$LL30@LoadOption@2:
  000e0	8a 11		 mov	 dl, BYTE PTR [ecx]
  000e2	3a 10		 cmp	 dl, BYTE PTR [eax]
  000e4	75 1a		 jne	 SHORT $LN31@LoadOption@2
  000e6	84 d2		 test	 dl, dl
  000e8	74 12		 je	 SHORT $LN32@LoadOption@2
  000ea	8a 51 01	 mov	 dl, BYTE PTR [ecx+1]
  000ed	3a 50 01	 cmp	 dl, BYTE PTR [eax+1]
  000f0	75 0e		 jne	 SHORT $LN31@LoadOption@2
  000f2	83 c1 02	 add	 ecx, 2
  000f5	83 c0 02	 add	 eax, 2
  000f8	84 d2		 test	 dl, dl
  000fa	75 e4		 jne	 SHORT $LL30@LoadOption@2
$LN32@LoadOption@2:
  000fc	33 c0		 xor	 eax, eax
  000fe	eb 05		 jmp	 SHORT $LN33@LoadOption@2
$LN31@LoadOption@2:
  00100	1b c0		 sbb	 eax, eax
  00102	83 d8 ff	 sbb	 eax, -1
$LN33@LoadOption@2:
  00105	85 c0		 test	 eax, eax
  00107	0f 84 01 03 00
	00		 je	 $LN24@LoadOption@2
$LN9@LoadOption@2:

; 314  : 		{
; 315  : 			break;
; 316  : 		}
; 317  : 		else
; 318  : 		{
; 319  : 			LPSETITEM_OPTIONINFO p;
; 320  : 			p=&this->m_SetItemOptionInfo[number];

  0010d	69 f6 a8 01 00
	00		 imul	 esi, 424		; 000001a8H

; 321  : 
; 322  : 			Token=WzMemScript.GetToken();

  00113	8d 8d 6c ff ff
	ff		 lea	 ecx, DWORD PTR _WzMemScript$[ebp]
  00119	8d b4 1e 04 80
	02 00		 lea	 esi, DWORD PTR [esi+ebx+163844]
  00120	e8 00 00 00 00	 call	 ?GetToken@CWzMemScript@@QAE?AW4SMDToken@@XZ ; CWzMemScript::GetToken

; 323  : 			strcpy(&p->Name[0], WzMemScript.GetString());

  00125	8d 8d 6c ff ff
	ff		 lea	 ecx, DWORD PTR _WzMemScript$[ebp]
  0012b	e8 00 00 00 00	 call	 ?GetString@CWzMemScript@@QAEPADXZ ; CWzMemScript::GetString
  00130	8b d6		 mov	 edx, esi
  00132	2b d0		 sub	 edx, eax
  00134	83 c2 04	 add	 edx, 4
$LL17@LoadOption@2:
  00137	8a 08		 mov	 cl, BYTE PTR [eax]
  00139	88 0c 02	 mov	 BYTE PTR [edx+eax], cl
  0013c	40		 inc	 eax
  0013d	84 c9		 test	 cl, cl
  0013f	75 f6		 jne	 SHORT $LL17@LoadOption@2

; 324  : 
; 325  : 			for (i=0;i<OPTION_TABLE_SIZE;i++)

  00141	8d be 08 01 00
	00		 lea	 edi, DWORD PTR [esi+264]
  00147	bb 06 00 00 00	 mov	 ebx, 6
  0014c	8d 64 24 00	 npad	 4
$LL7@LoadOption@2:

; 326  : 			{
; 327  : 				Token=WzMemScript.GetToken();

  00150	8d 8d 6c ff ff
	ff		 lea	 ecx, DWORD PTR _WzMemScript$[ebp]
  00156	e8 00 00 00 00	 call	 ?GetToken@CWzMemScript@@QAE?AW4SMDToken@@XZ ; CWzMemScript::GetToken

; 328  : 				p->SetOptionTable[i][0] = WzMemScript.GetNumber();

  0015b	8d 8d 6c ff ff
	ff		 lea	 ecx, DWORD PTR _WzMemScript$[ebp]
  00161	e8 00 00 00 00	 call	 ?GetNumber@CWzMemScript@@QAEHXZ ; CWzMemScript::GetNumber

; 329  : 				Token=WzMemScript.GetToken();

  00166	8d 8d 6c ff ff
	ff		 lea	 ecx, DWORD PTR _WzMemScript$[ebp]
  0016c	89 07		 mov	 DWORD PTR [edi], eax
  0016e	e8 00 00 00 00	 call	 ?GetToken@CWzMemScript@@QAE?AW4SMDToken@@XZ ; CWzMemScript::GetToken

; 330  : 				p->SetOptionTableValue[i][0] =WzMemScript.GetNumber();

  00173	8d 8d 6c ff ff
	ff		 lea	 ecx, DWORD PTR _WzMemScript$[ebp]
  00179	e8 00 00 00 00	 call	 ?GetNumber@CWzMemScript@@QAEHXZ ; CWzMemScript::GetNumber

; 331  : 
; 332  : 				Token=WzMemScript.GetToken();

  0017e	8d 8d 6c ff ff
	ff		 lea	 ecx, DWORD PTR _WzMemScript$[ebp]
  00184	89 47 30	 mov	 DWORD PTR [edi+48], eax
  00187	e8 00 00 00 00	 call	 ?GetToken@CWzMemScript@@QAE?AW4SMDToken@@XZ ; CWzMemScript::GetToken

; 333  : 				p->SetOptionTable[i][1] = WzMemScript.GetNumber();

  0018c	8d 8d 6c ff ff
	ff		 lea	 ecx, DWORD PTR _WzMemScript$[ebp]
  00192	e8 00 00 00 00	 call	 ?GetNumber@CWzMemScript@@QAEHXZ ; CWzMemScript::GetNumber

; 334  : 				Token=WzMemScript.GetToken();

  00197	8d 8d 6c ff ff
	ff		 lea	 ecx, DWORD PTR _WzMemScript$[ebp]
  0019d	89 47 04	 mov	 DWORD PTR [edi+4], eax
  001a0	e8 00 00 00 00	 call	 ?GetToken@CWzMemScript@@QAE?AW4SMDToken@@XZ ; CWzMemScript::GetToken

; 335  : 				p->SetOptionTableValue[i][1] =WzMemScript.GetNumber();

  001a5	8d 8d 6c ff ff
	ff		 lea	 ecx, DWORD PTR _WzMemScript$[ebp]
  001ab	e8 00 00 00 00	 call	 ?GetNumber@CWzMemScript@@QAEHXZ ; CWzMemScript::GetNumber

; 336  : 
; 337  : 				if ( (p->SetOptionTable[i][0] != -1) || (p->SetOptionTable[i][1] != -1) )

  001b0	83 3f ff	 cmp	 DWORD PTR [edi], -1
  001b3	89 47 34	 mov	 DWORD PTR [edi+52], eax
  001b6	75 06		 jne	 SHORT $LN3@LoadOption@2
  001b8	83 7f 04 ff	 cmp	 DWORD PTR [edi+4], -1
  001bc	74 06		 je	 SHORT $LN6@LoadOption@2
$LN3@LoadOption@2:

; 338  : 				{
; 339  : 					p->SetOptionCount++;

  001be	ff 86 04 01 00
	00		 inc	 DWORD PTR [esi+260]
$LN6@LoadOption@2:

; 324  : 
; 325  : 			for (i=0;i<OPTION_TABLE_SIZE;i++)

  001c4	83 c7 08	 add	 edi, 8
  001c7	4b		 dec	 ebx
  001c8	75 86		 jne	 SHORT $LL7@LoadOption@2

; 340  : 				}
; 341  : 			}
; 342  : 			
; 343  : 			// Special Set Item Options
; 344  : 			Token=WzMemScript.GetToken();

  001ca	8d 8d 6c ff ff
	ff		 lea	 ecx, DWORD PTR _WzMemScript$[ebp]
  001d0	e8 00 00 00 00	 call	 ?GetToken@CWzMemScript@@QAE?AW4SMDToken@@XZ ; CWzMemScript::GetToken

; 345  : 			p->SetExPOptionTable[0]  = WzMemScript.GetNumber();

  001d5	8d 8d 6c ff ff
	ff		 lea	 ecx, DWORD PTR _WzMemScript$[ebp]
  001db	e8 00 00 00 00	 call	 ?GetNumber@CWzMemScript@@QAEHXZ ; CWzMemScript::GetNumber

; 346  : 			Token=WzMemScript.GetToken();

  001e0	8d 8d 6c ff ff
	ff		 lea	 ecx, DWORD PTR _WzMemScript$[ebp]
  001e6	89 86 68 01 00
	00		 mov	 DWORD PTR [esi+360], eax
  001ec	e8 00 00 00 00	 call	 ?GetToken@CWzMemScript@@QAE?AW4SMDToken@@XZ ; CWzMemScript::GetToken

; 347  : 			p->SetExPOptionTableValue[0] = WzMemScript.GetNumber();

  001f1	8d 8d 6c ff ff
	ff		 lea	 ecx, DWORD PTR _WzMemScript$[ebp]
  001f7	e8 00 00 00 00	 call	 ?GetNumber@CWzMemScript@@QAEHXZ ; CWzMemScript::GetNumber

; 348  : 
; 349  : 			if ( p->SetExPOptionTable[0] != -1)

  001fc	83 cf ff	 or	 edi, -1
  001ff	89 86 70 01 00
	00		 mov	 DWORD PTR [esi+368], eax
  00205	39 be 68 01 00
	00		 cmp	 DWORD PTR [esi+360], edi
  0020b	74 06		 je	 SHORT $LN2@LoadOption@2

; 350  : 			{
; 351  : 				p->SetOptionCount ++;

  0020d	ff 86 04 01 00
	00		 inc	 DWORD PTR [esi+260]
$LN2@LoadOption@2:

; 352  : 			}
; 353  : 
; 354  : 			Token=WzMemScript.GetToken();

  00213	8d 8d 6c ff ff
	ff		 lea	 ecx, DWORD PTR _WzMemScript$[ebp]
  00219	e8 00 00 00 00	 call	 ?GetToken@CWzMemScript@@QAE?AW4SMDToken@@XZ ; CWzMemScript::GetToken

; 355  : 			p->SetExPOptionTable[1]  = WzMemScript.GetNumber();

  0021e	8d 8d 6c ff ff
	ff		 lea	 ecx, DWORD PTR _WzMemScript$[ebp]
  00224	e8 00 00 00 00	 call	 ?GetNumber@CWzMemScript@@QAEHXZ ; CWzMemScript::GetNumber

; 356  : 			Token=WzMemScript.GetToken();

  00229	8d 8d 6c ff ff
	ff		 lea	 ecx, DWORD PTR _WzMemScript$[ebp]
  0022f	89 86 6c 01 00
	00		 mov	 DWORD PTR [esi+364], eax
  00235	e8 00 00 00 00	 call	 ?GetToken@CWzMemScript@@QAE?AW4SMDToken@@XZ ; CWzMemScript::GetToken

; 357  : 			p->SetExPOptionTableValue[1] = WzMemScript.GetNumber();

  0023a	8d 8d 6c ff ff
	ff		 lea	 ecx, DWORD PTR _WzMemScript$[ebp]
  00240	e8 00 00 00 00	 call	 ?GetNumber@CWzMemScript@@QAEHXZ ; CWzMemScript::GetNumber
  00245	89 86 74 01 00
	00		 mov	 DWORD PTR [esi+372], eax

; 358  : 
; 359  : 			if ( p->SetExPOptionTable[1] != -1)

  0024b	39 be 6c 01 00
	00		 cmp	 DWORD PTR [esi+364], edi
  00251	74 06		 je	 SHORT $LN1@LoadOption@2

; 360  : 			{
; 361  : 				p->SetOptionCount ++;

  00253	ff 86 04 01 00
	00		 inc	 DWORD PTR [esi+260]
$LN1@LoadOption@2:

; 362  : 			}
; 363  : 			
; 364  : 			// Full Type Set Item
; 365  : 			Token=WzMemScript.GetToken();

  00259	8d 8d 6c ff ff
	ff		 lea	 ecx, DWORD PTR _WzMemScript$[ebp]
  0025f	e8 00 00 00 00	 call	 ?GetToken@CWzMemScript@@QAE?AW4SMDToken@@XZ ; CWzMemScript::GetToken

; 366  : 			p->SetFullOtionTable[0]=WzMemScript.GetNumber();

  00264	8d 8d 6c ff ff
	ff		 lea	 ecx, DWORD PTR _WzMemScript$[ebp]
  0026a	e8 00 00 00 00	 call	 ?GetNumber@CWzMemScript@@QAEHXZ ; CWzMemScript::GetNumber

; 367  : 			Token=WzMemScript.GetToken();

  0026f	8d 8d 6c ff ff
	ff		 lea	 ecx, DWORD PTR _WzMemScript$[ebp]
  00275	89 86 78 01 00
	00		 mov	 DWORD PTR [esi+376], eax
  0027b	e8 00 00 00 00	 call	 ?GetToken@CWzMemScript@@QAE?AW4SMDToken@@XZ ; CWzMemScript::GetToken

; 368  : 			p->SetFullOtionTableValue[0]=WzMemScript.GetNumber();

  00280	8d 8d 6c ff ff
	ff		 lea	 ecx, DWORD PTR _WzMemScript$[ebp]
  00286	e8 00 00 00 00	 call	 ?GetNumber@CWzMemScript@@QAEHXZ ; CWzMemScript::GetNumber

; 369  : 
; 370  : 			Token=WzMemScript.GetToken();

  0028b	8d 8d 6c ff ff
	ff		 lea	 ecx, DWORD PTR _WzMemScript$[ebp]
  00291	89 86 8c 01 00
	00		 mov	 DWORD PTR [esi+396], eax
  00297	e8 00 00 00 00	 call	 ?GetToken@CWzMemScript@@QAE?AW4SMDToken@@XZ ; CWzMemScript::GetToken

; 371  : 			p->SetFullOtionTable[1]=WzMemScript.GetNumber();

  0029c	8d 8d 6c ff ff
	ff		 lea	 ecx, DWORD PTR _WzMemScript$[ebp]
  002a2	e8 00 00 00 00	 call	 ?GetNumber@CWzMemScript@@QAEHXZ ; CWzMemScript::GetNumber

; 372  : 			Token=WzMemScript.GetToken();

  002a7	8d 8d 6c ff ff
	ff		 lea	 ecx, DWORD PTR _WzMemScript$[ebp]
  002ad	89 86 7c 01 00
	00		 mov	 DWORD PTR [esi+380], eax
  002b3	e8 00 00 00 00	 call	 ?GetToken@CWzMemScript@@QAE?AW4SMDToken@@XZ ; CWzMemScript::GetToken

; 373  : 			p->SetFullOtionTableValue[1]=WzMemScript.GetNumber();

  002b8	8d 8d 6c ff ff
	ff		 lea	 ecx, DWORD PTR _WzMemScript$[ebp]
  002be	e8 00 00 00 00	 call	 ?GetNumber@CWzMemScript@@QAEHXZ ; CWzMemScript::GetNumber

; 374  : 
; 375  : 			Token=WzMemScript.GetToken();

  002c3	8d 8d 6c ff ff
	ff		 lea	 ecx, DWORD PTR _WzMemScript$[ebp]
  002c9	89 86 90 01 00
	00		 mov	 DWORD PTR [esi+400], eax
  002cf	e8 00 00 00 00	 call	 ?GetToken@CWzMemScript@@QAE?AW4SMDToken@@XZ ; CWzMemScript::GetToken

; 376  : 			p->SetFullOtionTable[2]=WzMemScript.GetNumber();

  002d4	8d 8d 6c ff ff
	ff		 lea	 ecx, DWORD PTR _WzMemScript$[ebp]
  002da	e8 00 00 00 00	 call	 ?GetNumber@CWzMemScript@@QAEHXZ ; CWzMemScript::GetNumber

; 377  : 			Token=WzMemScript.GetToken();

  002df	8d 8d 6c ff ff
	ff		 lea	 ecx, DWORD PTR _WzMemScript$[ebp]
  002e5	89 86 80 01 00
	00		 mov	 DWORD PTR [esi+384], eax
  002eb	e8 00 00 00 00	 call	 ?GetToken@CWzMemScript@@QAE?AW4SMDToken@@XZ ; CWzMemScript::GetToken

; 378  : 			p->SetFullOtionTableValue[2]=WzMemScript.GetNumber();

  002f0	8d 8d 6c ff ff
	ff		 lea	 ecx, DWORD PTR _WzMemScript$[ebp]
  002f6	e8 00 00 00 00	 call	 ?GetNumber@CWzMemScript@@QAEHXZ ; CWzMemScript::GetNumber

; 379  : 
; 380  : 			Token=WzMemScript.GetToken();

  002fb	8d 8d 6c ff ff
	ff		 lea	 ecx, DWORD PTR _WzMemScript$[ebp]
  00301	89 86 94 01 00
	00		 mov	 DWORD PTR [esi+404], eax
  00307	e8 00 00 00 00	 call	 ?GetToken@CWzMemScript@@QAE?AW4SMDToken@@XZ ; CWzMemScript::GetToken

; 381  : 			p->SetFullOtionTable[3]=WzMemScript.GetNumber();

  0030c	8d 8d 6c ff ff
	ff		 lea	 ecx, DWORD PTR _WzMemScript$[ebp]
  00312	e8 00 00 00 00	 call	 ?GetNumber@CWzMemScript@@QAEHXZ ; CWzMemScript::GetNumber

; 382  : 			Token=WzMemScript.GetToken();

  00317	8d 8d 6c ff ff
	ff		 lea	 ecx, DWORD PTR _WzMemScript$[ebp]
  0031d	89 86 84 01 00
	00		 mov	 DWORD PTR [esi+388], eax
  00323	e8 00 00 00 00	 call	 ?GetToken@CWzMemScript@@QAE?AW4SMDToken@@XZ ; CWzMemScript::GetToken

; 383  : 			p->SetFullOtionTableValue[3]=WzMemScript.GetNumber();

  00328	8d 8d 6c ff ff
	ff		 lea	 ecx, DWORD PTR _WzMemScript$[ebp]
  0032e	e8 00 00 00 00	 call	 ?GetNumber@CWzMemScript@@QAEHXZ ; CWzMemScript::GetNumber

; 384  : 
; 385  : 			Token=WzMemScript.GetToken();

  00333	8d 8d 6c ff ff
	ff		 lea	 ecx, DWORD PTR _WzMemScript$[ebp]
  00339	89 86 98 01 00
	00		 mov	 DWORD PTR [esi+408], eax
  0033f	e8 00 00 00 00	 call	 ?GetToken@CWzMemScript@@QAE?AW4SMDToken@@XZ ; CWzMemScript::GetToken

; 386  : 			p->SetFullOtionTable[4]=WzMemScript.GetNumber();

  00344	8d 8d 6c ff ff
	ff		 lea	 ecx, DWORD PTR _WzMemScript$[ebp]
  0034a	e8 00 00 00 00	 call	 ?GetNumber@CWzMemScript@@QAEHXZ ; CWzMemScript::GetNumber

; 387  : 			Token=WzMemScript.GetToken();

  0034f	8d 8d 6c ff ff
	ff		 lea	 ecx, DWORD PTR _WzMemScript$[ebp]
  00355	89 86 88 01 00
	00		 mov	 DWORD PTR [esi+392], eax
  0035b	e8 00 00 00 00	 call	 ?GetToken@CWzMemScript@@QAE?AW4SMDToken@@XZ ; CWzMemScript::GetToken

; 388  : 			p->SetFullOtionTableValue[4]=WzMemScript.GetNumber();

  00360	8d 8d 6c ff ff
	ff		 lea	 ecx, DWORD PTR _WzMemScript$[ebp]
  00366	e8 00 00 00 00	 call	 ?GetNumber@CWzMemScript@@QAEHXZ ; CWzMemScript::GetNumber

; 389  : 
; 390  : 			// Save Character Class Disponibility
; 391  : 			Token=WzMemScript.GetToken();

  0036b	8d 8d 6c ff ff
	ff		 lea	 ecx, DWORD PTR _WzMemScript$[ebp]
  00371	89 86 9c 01 00
	00		 mov	 DWORD PTR [esi+412], eax
  00377	e8 00 00 00 00	 call	 ?GetToken@CWzMemScript@@QAE?AW4SMDToken@@XZ ; CWzMemScript::GetToken

; 392  : 			p->RequireClass[CLASS_WIZARD]=WzMemScript.GetNumber();

  0037c	8d 8d 6c ff ff
	ff		 lea	 ecx, DWORD PTR _WzMemScript$[ebp]
  00382	e8 00 00 00 00	 call	 ?GetNumber@CWzMemScript@@QAEHXZ ; CWzMemScript::GetNumber

; 393  : 
; 394  : 			Token=WzMemScript.GetToken();

  00387	8d 8d 6c ff ff
	ff		 lea	 ecx, DWORD PTR _WzMemScript$[ebp]
  0038d	88 86 a0 01 00
	00		 mov	 BYTE PTR [esi+416], al
  00393	e8 00 00 00 00	 call	 ?GetToken@CWzMemScript@@QAE?AW4SMDToken@@XZ ; CWzMemScript::GetToken

; 395  : 			p->RequireClass[CLASS_KNIGHT]=WzMemScript.GetNumber();

  00398	8d 8d 6c ff ff
	ff		 lea	 ecx, DWORD PTR _WzMemScript$[ebp]
  0039e	e8 00 00 00 00	 call	 ?GetNumber@CWzMemScript@@QAEHXZ ; CWzMemScript::GetNumber

; 396  : 
; 397  : 			Token=WzMemScript.GetToken();

  003a3	8d 8d 6c ff ff
	ff		 lea	 ecx, DWORD PTR _WzMemScript$[ebp]
  003a9	88 86 a1 01 00
	00		 mov	 BYTE PTR [esi+417], al
  003af	e8 00 00 00 00	 call	 ?GetToken@CWzMemScript@@QAE?AW4SMDToken@@XZ ; CWzMemScript::GetToken

; 398  : 			p->RequireClass[CLASS_ELF]=WzMemScript.GetNumber();

  003b4	8d 8d 6c ff ff
	ff		 lea	 ecx, DWORD PTR _WzMemScript$[ebp]
  003ba	e8 00 00 00 00	 call	 ?GetNumber@CWzMemScript@@QAEHXZ ; CWzMemScript::GetNumber

; 399  : 
; 400  : 			Token=WzMemScript.GetToken();

  003bf	8d 8d 6c ff ff
	ff		 lea	 ecx, DWORD PTR _WzMemScript$[ebp]
  003c5	88 86 a2 01 00
	00		 mov	 BYTE PTR [esi+418], al
  003cb	e8 00 00 00 00	 call	 ?GetToken@CWzMemScript@@QAE?AW4SMDToken@@XZ ; CWzMemScript::GetToken

; 401  : 			p->RequireClass[CLASS_MAGUMSA]=WzMemScript.GetNumber();

  003d0	8d 8d 6c ff ff
	ff		 lea	 ecx, DWORD PTR _WzMemScript$[ebp]
  003d6	e8 00 00 00 00	 call	 ?GetNumber@CWzMemScript@@QAEHXZ ; CWzMemScript::GetNumber

; 402  : 
; 403  : 			Token=WzMemScript.GetToken();

  003db	8d 8d 6c ff ff
	ff		 lea	 ecx, DWORD PTR _WzMemScript$[ebp]
  003e1	88 86 a3 01 00
	00		 mov	 BYTE PTR [esi+419], al
  003e7	e8 00 00 00 00	 call	 ?GetToken@CWzMemScript@@QAE?AW4SMDToken@@XZ ; CWzMemScript::GetToken

; 404  : 			p->RequireClass[CLASS_DARKLORD]=WzMemScript.GetNumber();

  003ec	8d 8d 6c ff ff
	ff		 lea	 ecx, DWORD PTR _WzMemScript$[ebp]
  003f2	e8 00 00 00 00	 call	 ?GetNumber@CWzMemScript@@QAEHXZ ; CWzMemScript::GetNumber

; 405  : 			
; 406  : 			// Active SetItem
; 407  : 			p->IsLoad=TRUE;			
; 408  : 		}
; 409  : 	}

  003f7	8b 9d 68 ff ff
	ff		 mov	 ebx, DWORD PTR _this$GSCopy$[ebp]
  003fd	88 86 a4 01 00
	00		 mov	 BYTE PTR [esi+420], al
  00403	c7 06 01 00 00
	00		 mov	 DWORD PTR [esi], 1
  00409	e9 a4 fc ff ff	 jmp	 $LL11@LoadOption@2
$LN24@LoadOption@2:

; 410  : 
; 411  : 	return 1;

  0040e	8d 8d 6c ff ff
	ff		 lea	 ecx, DWORD PTR _WzMemScript$[ebp]
  00414	c7 45 fc ff ff
	ff ff		 mov	 DWORD PTR __$EHRec$[ebp+8], -1
  0041b	e8 00 00 00 00	 call	 ??1CWzMemScript@@UAE@XZ	; CWzMemScript::~CWzMemScript
  00420	b8 01 00 00 00	 mov	 eax, 1

; 412  : }

  00425	8b 4d f4	 mov	 ecx, DWORD PTR __$EHRec$[ebp]
  00428	64 89 0d 00 00
	00 00		 mov	 DWORD PTR fs:0, ecx
  0042f	59		 pop	 ecx
  00430	5f		 pop	 edi
  00431	5e		 pop	 esi
  00432	5b		 pop	 ebx
  00433	8b 4d f0	 mov	 ecx, DWORD PTR __$ArrayPad$[ebp]
  00436	33 cd		 xor	 ecx, ebp
  00438	e8 00 00 00 00	 call	 @__security_check_cookie@4
  0043d	8b e5		 mov	 esp, ebp
  0043f	5d		 pop	 ebp
  00440	c2 08 00	 ret	 8
_TEXT	ENDS
;	COMDAT text$x
text$x	SEGMENT
__unwindfunclet$?LoadOptionInfo@CSetItemOption@@QAEHPADH@Z$0:
  00000	8d 8d 6c ff ff
	ff		 lea	 ecx, DWORD PTR _WzMemScript$[ebp]
  00006	e9 00 00 00 00	 jmp	 ??1CWzMemScript@@UAE@XZ	; CWzMemScript::~CWzMemScript
__ehhandler$?LoadOptionInfo@CSetItemOption@@QAEHPADH@Z:
  0000b	8b 54 24 08	 mov	 edx, DWORD PTR [esp+8]
  0000f	8d 42 0c	 lea	 eax, DWORD PTR [edx+12]
  00012	8b 8a 64 ff ff
	ff		 mov	 ecx, DWORD PTR [edx-156]
  00018	33 c8		 xor	 ecx, eax
  0001a	e8 00 00 00 00	 call	 @__security_check_cookie@4
  0001f	8b 4a fc	 mov	 ecx, DWORD PTR [edx-4]
  00022	33 c8		 xor	 ecx, eax
  00024	e8 00 00 00 00	 call	 @__security_check_cookie@4
  00029	b8 00 00 00 00	 mov	 eax, OFFSET __ehfuncinfo$?LoadOptionInfo@CSetItemOption@@QAEHPADH@Z
  0002e	e9 00 00 00 00	 jmp	 ___CxxFrameHandler3
text$x	ENDS
?LoadOptionInfo@CSetItemOption@@QAEHPADH@Z ENDP		; CSetItemOption::LoadOptionInfo
PUBLIC	??_C@_0CE@FIOMFOEB@IsSetItem?5Check?5error?3?5?$CIitemnum?3@ ; `string'
PUBLIC	?IsSetItem@CSetItemOption@@QAEHH@Z		; CSetItemOption::IsSetItem
EXTRN	?LogAdd@@3P6AXPADZZA:DWORD			; LogAdd
;	COMDAT ??_C@_0CE@FIOMFOEB@IsSetItem?5Check?5error?3?5?$CIitemnum?3@
CONST	SEGMENT
??_C@_0CE@FIOMFOEB@IsSetItem?5Check?5error?3?5?$CIitemnum?3@ DB 'IsSetIte'
	DB	'm Check error: (itemnum:%d)', 00H		; `string'
; Function compile flags: /Ogtp
CONST	ENDS
;	COMDAT ?IsSetItem@CSetItemOption@@QAEHH@Z
_TEXT	SEGMENT
_itemnum$ = 8						; size = 4
?IsSetItem@CSetItemOption@@QAEHH@Z PROC			; CSetItemOption::IsSetItem, COMDAT
; _this$ = ecx

; 415  : {

  00000	55		 push	 ebp
  00001	8b ec		 mov	 ebp, esp

; 416  : 	if (itemnum<0 || itemnum > MAX_ITEMS-1)

  00003	8b 45 08	 mov	 eax, DWORD PTR _itemnum$[ebp]
  00006	3d ff 1f 00 00	 cmp	 eax, 8191		; 00001fffH
  0000b	77 0b		 ja	 SHORT $LN1@IsSetItem

; 420  : 	}
; 421  : 	return this->m_SetItemTypeInfo[itemnum].IsLoad ;

  0000d	8d 04 80	 lea	 eax, DWORD PTR [eax+eax*4]
  00010	8b 44 81 04	 mov	 eax, DWORD PTR [ecx+eax*4+4]

; 422  : }

  00014	5d		 pop	 ebp
  00015	c2 04 00	 ret	 4
$LN1@IsSetItem:

; 417  : 	{
; 418  : 		LogAdd("IsSetItem Check error: (itemnum:%d)", itemnum);

  00018	50		 push	 eax
  00019	68 00 00 00 00	 push	 OFFSET ??_C@_0CE@FIOMFOEB@IsSetItem?5Check?5error?3?5?$CIitemnum?3@
  0001e	ff 15 00 00 00
	00		 call	 DWORD PTR ?LogAdd@@3P6AXPADZZA ; LogAdd
  00024	83 c4 08	 add	 esp, 8

; 419  : 		return 0;

  00027	33 c0		 xor	 eax, eax

; 422  : }

  00029	5d		 pop	 ebp
  0002a	c2 04 00	 ret	 4
?IsSetItem@CSetItemOption@@QAEHH@Z ENDP			; CSetItemOption::IsSetItem
_TEXT	ENDS
PUBLIC	??_C@_0CO@JHBADDNF@GetOptionTableIndex?5Check?5error?3@ ; `string'
PUBLIC	??_C@_0DI@POCMEGLP@GetOptionTableIndex?5setoption?5Ch@ ; `string'
PUBLIC	?GetOptionTableIndex@CSetItemOption@@QAEHHH@Z	; CSetItemOption::GetOptionTableIndex
;	COMDAT ??_C@_0CO@JHBADDNF@GetOptionTableIndex?5Check?5error?3@
CONST	SEGMENT
??_C@_0CO@JHBADDNF@GetOptionTableIndex?5Check?5error?3@ DB 'GetOptionTabl'
	DB	'eIndex Check error: (itemnum:%d)', 00H	; `string'
CONST	ENDS
;	COMDAT ??_C@_0DI@POCMEGLP@GetOptionTableIndex?5setoption?5Ch@
CONST	SEGMENT
??_C@_0DI@POCMEGLP@GetOptionTableIndex?5setoption?5Ch@ DB 'GetOptionTable'
	DB	'Index setoption Check error: (itemnum:%d)', 00H ; `string'
; Function compile flags: /Ogtp
CONST	ENDS
;	COMDAT ?GetOptionTableIndex@CSetItemOption@@QAEHHH@Z
_TEXT	SEGMENT
_itemnum$ = 8						; size = 4
_setoption$ = 12					; size = 4
?GetOptionTableIndex@CSetItemOption@@QAEHHH@Z PROC	; CSetItemOption::GetOptionTableIndex, COMDAT
; _this$ = ecx

; 427  : {

  00000	55		 push	 ebp
  00001	8b ec		 mov	 ebp, esp

; 428  : 	if (itemnum<0 || itemnum > MAX_ITEMS-1)

  00003	8b 45 08	 mov	 eax, DWORD PTR _itemnum$[ebp]
  00006	3d ff 1f 00 00	 cmp	 eax, 8191		; 00001fffH
  0000b	77 3c		 ja	 SHORT $LN3@GetOptionT

; 432  : 	}
; 433  : 
; 434  : 	if (setoption != 1 && setoption != 2)

  0000d	8b 55 0c	 mov	 edx, DWORD PTR _setoption$[ebp]
  00010	83 fa 01	 cmp	 edx, 1
  00013	74 1b		 je	 SHORT $LN2@GetOptionT
  00015	83 fa 02	 cmp	 edx, 2
  00018	74 16		 je	 SHORT $LN2@GetOptionT

; 435  : 	{
; 436  : 		LogAdd("GetOptionTableIndex setoption Check error: (itemnum:%d)", itemnum);

  0001a	50		 push	 eax
  0001b	68 00 00 00 00	 push	 OFFSET ??_C@_0DI@POCMEGLP@GetOptionTableIndex?5setoption?5Ch@
  00020	ff 15 00 00 00
	00		 call	 DWORD PTR ?LogAdd@@3P6AXPADZZA ; LogAdd
  00026	83 c4 08	 add	 esp, 8
  00029	83 c8 ff	 or	 eax, -1

; 446  : }

  0002c	5d		 pop	 ebp
  0002d	c2 08 00	 ret	 8
$LN2@GetOptionT:
  00030	56		 push	 esi

; 437  : 		return -1;
; 438  : 	}
; 439  : 
; 440  : 	if (this->m_SetItemTypeInfo[itemnum].IsLoad == FALSE)

  00031	8d 34 80	 lea	 esi, DWORD PTR [eax+eax*4]
  00034	83 7c b1 04 00	 cmp	 DWORD PTR [ecx+esi*4+4], 0
  00039	5e		 pop	 esi

; 441  : 	{
; 442  : 		return -1;

  0003a	74 1c		 je	 SHORT $LN8@GetOptionT

; 443  : 	}
; 444  : 
; 445  : 	return this->m_SetItemTypeInfo[itemnum].OptionIndex[setoption-1];

  0003c	8d 14 82	 lea	 edx, DWORD PTR [edx+eax*4]
  0003f	03 d0		 add	 edx, eax
  00041	8b 44 91 04	 mov	 eax, DWORD PTR [ecx+edx*4+4]

; 446  : }

  00045	5d		 pop	 ebp
  00046	c2 08 00	 ret	 8
$LN3@GetOptionT:

; 429  : 	{
; 430  : 		LogAdd("GetOptionTableIndex Check error: (itemnum:%d)", itemnum);

  00049	50		 push	 eax
  0004a	68 00 00 00 00	 push	 OFFSET ??_C@_0CO@JHBADDNF@GetOptionTableIndex?5Check?5error?3@
  0004f	ff 15 00 00 00
	00		 call	 DWORD PTR ?LogAdd@@3P6AXPADZZA ; LogAdd
  00055	83 c4 08	 add	 esp, 8
$LN8@GetOptionT:

; 431  : 		return -1;

  00058	83 c8 ff	 or	 eax, -1

; 446  : }

  0005b	5d		 pop	 ebp
  0005c	c2 08 00	 ret	 8
?GetOptionTableIndex@CSetItemOption@@QAEHHH@Z ENDP	; CSetItemOption::GetOptionTableIndex
_TEXT	ENDS
PUBLIC	??_C@_00CNPNBAHC@?$AA@				; `string'
PUBLIC	??_C@_0CL@LOANDNBH@GetSetOptionName?5Check?5error?3?5?$CIi@ ; `string'
PUBLIC	?GetSetOptionName@CSetItemOption@@QAEPADH@Z	; CSetItemOption::GetSetOptionName
;	COMDAT ??_C@_00CNPNBAHC@?$AA@
CONST	SEGMENT
??_C@_00CNPNBAHC@?$AA@ DB 00H				; `string'
CONST	ENDS
;	COMDAT ??_C@_0CL@LOANDNBH@GetSetOptionName?5Check?5error?3?5?$CIi@
CONST	SEGMENT
??_C@_0CL@LOANDNBH@GetSetOptionName?5Check?5error?3?5?$CIi@ DB 'GetSetOpt'
	DB	'ionName Check error: (itemnum:%d)', 00H	; `string'
; Function compile flags: /Ogtp
CONST	ENDS
;	COMDAT ?GetSetOptionName@CSetItemOption@@QAEPADH@Z
_TEXT	SEGMENT
_optionindex$ = 8					; size = 4
?GetSetOptionName@CSetItemOption@@QAEPADH@Z PROC	; CSetItemOption::GetSetOptionName, COMDAT
; _this$ = ecx

; 451  : {

  00000	55		 push	 ebp
  00001	8b ec		 mov	 ebp, esp

; 452  : 	if ( optionindex < 0 || optionindex > MAX_SETITEM_OPTION-1)

  00003	8b 45 08	 mov	 eax, DWORD PTR _optionindex$[ebp]
  00006	83 f8 4f	 cmp	 eax, 79			; 0000004fH
  00009	77 1a		 ja	 SHORT $LN2@GetSetOpti

; 456  : 	}
; 457  : 	if (this->m_SetItemOptionInfo[optionindex].IsLoad   ==0)

  0000b	69 c0 a8 01 00
	00		 imul	 eax, 424		; 000001a8H
  00011	03 c1		 add	 eax, ecx
  00013	83 b8 04 80 02
	00 00		 cmp	 DWORD PTR [eax+163844], 0

; 458  : 	{
; 459  : 		return "";

  0001a	74 18		 je	 SHORT $LN6@GetSetOpti

; 460  : 	}
; 461  : 	return &this->m_SetItemOptionInfo[optionindex].Name[0];

  0001c	05 08 80 02 00	 add	 eax, 163848		; 00028008H

; 462  : }

  00021	5d		 pop	 ebp
  00022	c2 04 00	 ret	 4
$LN2@GetSetOpti:

; 453  : 	{
; 454  : 		LogAdd("GetSetOptionName Check error: (itemnum:%d)", optionindex);

  00025	50		 push	 eax
  00026	68 00 00 00 00	 push	 OFFSET ??_C@_0CL@LOANDNBH@GetSetOptionName?5Check?5error?3?5?$CIi@
  0002b	ff 15 00 00 00
	00		 call	 DWORD PTR ?LogAdd@@3P6AXPADZZA ; LogAdd
  00031	83 c4 08	 add	 esp, 8
$LN6@GetSetOpti:

; 455  : 		return "";

  00034	b8 00 00 00 00	 mov	 eax, OFFSET ??_C@_00CNPNBAHC@?$AA@

; 462  : }

  00039	5d		 pop	 ebp
  0003a	c2 04 00	 ret	 4
?GetSetOptionName@CSetItemOption@@QAEPADH@Z ENDP	; CSetItemOption::GetSetOptionName
_TEXT	ENDS
PUBLIC	?GetSetOptionName@CSetItemOption@@QAEPADHH@Z	; CSetItemOption::GetSetOptionName
; Function compile flags: /Ogtp
;	COMDAT ?GetSetOptionName@CSetItemOption@@QAEPADHH@Z
_TEXT	SEGMENT
_itemnum$ = 8						; size = 4
_settype$ = 12						; size = 4
?GetSetOptionName@CSetItemOption@@QAEPADHH@Z PROC	; CSetItemOption::GetSetOptionName, COMDAT
; _this$ = ecx

; 470  : {

  00000	55		 push	 ebp
  00001	8b ec		 mov	 ebp, esp

; 471  : 	int optionindex;
; 472  : 
; 473  : 	if (itemnum<0 || itemnum > MAX_ITEMS-1)

  00003	8b 45 08	 mov	 eax, DWORD PTR _itemnum$[ebp]
  00006	3d ff 1f 00 00	 cmp	 eax, 8191		; 00001fffH
  0000b	77 35		 ja	 SHORT $LN5@GetSetOpti@2

; 477  : 	}
; 478  : 
; 479  : 	if (this->m_SetItemTypeInfo[itemnum].IsLoad == FALSE)

  0000d	8d 14 80	 lea	 edx, DWORD PTR [eax+eax*4]
  00010	83 7c 91 04 00	 cmp	 DWORD PTR [ecx+edx*4+4], 0

; 480  : 	{
; 481  : 		return "";

  00015	74 3a		 je	 SHORT $LN9@GetSetOpti@2

; 482  : 	}
; 483  : 	
; 484  : 	optionindex= this->m_SetItemTypeInfo[itemnum].OptionIndex[settype-1];

  00017	8b 55 0c	 mov	 edx, DWORD PTR _settype$[ebp]
  0001a	8d 14 82	 lea	 edx, DWORD PTR [edx+eax*4]
  0001d	03 d0		 add	 edx, eax
  0001f	8b 44 91 04	 mov	 eax, DWORD PTR [ecx+edx*4+4]

; 485  : 	
; 486  : 	if (optionindex<0 || optionindex > MAX_SETITEM_OPTION-1)

  00023	83 f8 4f	 cmp	 eax, 79			; 0000004fH
  00026	77 1a		 ja	 SHORT $LN5@GetSetOpti@2

; 487  : 	{	
; 488  : 		LogAdd("GetSetOptionName Check error: (itemnum:%d)", optionindex);
; 489  : 		return "";
; 490  : 	}
; 491  : 
; 492  : 	if (this->m_SetItemOptionInfo[optionindex].IsLoad  == 0)

  00028	69 c0 a8 01 00
	00		 imul	 eax, 424		; 000001a8H
  0002e	03 c1		 add	 eax, ecx
  00030	83 b8 04 80 02
	00 00		 cmp	 DWORD PTR [eax+163844], 0

; 493  : 	{
; 494  : 		return "";

  00037	74 18		 je	 SHORT $LN9@GetSetOpti@2

; 495  : 	}
; 496  : 
; 497  : 	return &this->m_SetItemOptionInfo[optionindex].Name[0];

  00039	05 08 80 02 00	 add	 eax, 163848		; 00028008H

; 498  : }

  0003e	5d		 pop	 ebp
  0003f	c2 08 00	 ret	 8
$LN5@GetSetOpti@2:

; 474  : 	{
; 475  : 		LogAdd("GetSetOptionName Check error: (itemnum:%d)", itemnum);

  00042	50		 push	 eax
  00043	68 00 00 00 00	 push	 OFFSET ??_C@_0CL@LOANDNBH@GetSetOptionName?5Check?5error?3?5?$CIi@
  00048	ff 15 00 00 00
	00		 call	 DWORD PTR ?LogAdd@@3P6AXPADZZA ; LogAdd
  0004e	83 c4 08	 add	 esp, 8
$LN9@GetSetOpti@2:

; 476  : 		return "";

  00051	b8 00 00 00 00	 mov	 eax, OFFSET ??_C@_00CNPNBAHC@?$AA@

; 498  : }

  00056	5d		 pop	 ebp
  00057	c2 08 00	 ret	 8
?GetSetOptionName@CSetItemOption@@QAEPADHH@Z ENDP	; CSetItemOption::GetSetOptionName
_TEXT	ENDS
PUBLIC	??_C@_0CM@OCFJJDJ@GetMaxOptionCount?5Check?5error?3?5?$CI@ ; `string'
PUBLIC	?GetMaxSetOptionCount@CSetItemOption@@QAEHH@Z	; CSetItemOption::GetMaxSetOptionCount
;	COMDAT ??_C@_0CM@OCFJJDJ@GetMaxOptionCount?5Check?5error?3?5?$CI@
CONST	SEGMENT
??_C@_0CM@OCFJJDJ@GetMaxOptionCount?5Check?5error?3?5?$CI@ DB 'GetMaxOpti'
	DB	'onCount Check error: (itemnum:%d)', 00H	; `string'
; Function compile flags: /Ogtp
CONST	ENDS
;	COMDAT ?GetMaxSetOptionCount@CSetItemOption@@QAEHH@Z
_TEXT	SEGMENT
_optionindex$ = 8					; size = 4
?GetMaxSetOptionCount@CSetItemOption@@QAEHH@Z PROC	; CSetItemOption::GetMaxSetOptionCount, COMDAT
; _this$ = ecx

; 585  : {

  00000	55		 push	 ebp
  00001	8b ec		 mov	 ebp, esp

; 586  : 	if (optionindex <0 || optionindex > MAX_SETITEM_OPTION-1)

  00003	8b 45 08	 mov	 eax, DWORD PTR _optionindex$[ebp]
  00006	83 f8 4f	 cmp	 eax, 79			; 0000004fH
  00009	77 1b		 ja	 SHORT $LN2@GetMaxSetO

; 590  : 	}
; 591  : 
; 592  : 	if (this->m_SetItemOptionInfo[optionindex].IsLoad == 0)

  0000b	69 c0 a8 01 00
	00		 imul	 eax, 424		; 000001a8H
  00011	83 bc 08 04 80
	02 00 00	 cmp	 DWORD PTR [eax+ecx+163844], 0

; 593  : 	{
; 594  : 		return -1;

  00019	74 1a		 je	 SHORT $LN6@GetMaxSetO

; 595  : 	}
; 596  : 
; 597  : 	return this->m_SetItemOptionInfo[optionindex].SetOptionCount;

  0001b	8b 84 08 08 81
	02 00		 mov	 eax, DWORD PTR [eax+ecx+164104]

; 598  : }

  00022	5d		 pop	 ebp
  00023	c2 04 00	 ret	 4
$LN2@GetMaxSetO:

; 587  : 	{
; 588  : 		LogAdd("GetMaxOptionCount Check error: (itemnum:%d)", optionindex);

  00026	50		 push	 eax
  00027	68 00 00 00 00	 push	 OFFSET ??_C@_0CM@OCFJJDJ@GetMaxOptionCount?5Check?5error?3?5?$CI@
  0002c	ff 15 00 00 00
	00		 call	 DWORD PTR ?LogAdd@@3P6AXPADZZA ; LogAdd
  00032	83 c4 08	 add	 esp, 8
$LN6@GetMaxSetO:

; 589  : 		return -1;

  00035	83 c8 ff	 or	 eax, -1

; 598  : }

  00038	5d		 pop	 ebp
  00039	c2 04 00	 ret	 4
?GetMaxSetOptionCount@CSetItemOption@@QAEHH@Z ENDP	; CSetItemOption::GetMaxSetOptionCount
_TEXT	ENDS
PUBLIC	?IsRequireClass@CSetItemOption@@QAEHHHH@Z	; CSetItemOption::IsRequireClass
; Function compile flags: /Ogtp
;	COMDAT ?IsRequireClass@CSetItemOption@@QAEHHHH@Z
_TEXT	SEGMENT
_optionindex$ = 8					; size = 4
_Class$ = 12						; size = 4
_ChangeUP$ = 16						; size = 4
?IsRequireClass@CSetItemOption@@QAEHHHH@Z PROC		; CSetItemOption::IsRequireClass, COMDAT
; _this$ = ecx

; 704  : {

  00000	55		 push	 ebp
  00001	8b ec		 mov	 ebp, esp

; 705  : 	int requireclass;
; 706  : 	
; 707  : 	if (optionindex <0 || optionindex > MAX_SETITEM_OPTION-1)

  00003	8b 45 08	 mov	 eax, DWORD PTR _optionindex$[ebp]
  00006	83 f8 4f	 cmp	 eax, 79			; 0000004fH
  00009	77 3c		 ja	 SHORT $LN7@IsRequireC

; 711  : 	}
; 712  : 
; 713  : 	if (this->m_SetItemOptionInfo[optionindex].IsLoad == 0)

  0000b	69 c0 a8 01 00
	00		 imul	 eax, 424		; 000001a8H
  00011	83 bc 08 04 80
	02 00 00	 cmp	 DWORD PTR [eax+ecx+163844], 0

; 714  : 	{
; 715  : 		return 0;

  00019	74 3b		 je	 SHORT $LN11@IsRequireC

; 716  : 	}
; 717  : 
; 718  : 	if ( Class <0 || Class > MAX_TYPE_PLAYER-1)

  0001b	8b 55 0c	 mov	 edx, DWORD PTR _Class$[ebp]
  0001e	83 fa 06	 cmp	 edx, 6
  00021	77 33		 ja	 SHORT $LN11@IsRequireC

; 719  : 	{
; 720  : 		return 0;
; 721  : 	}
; 722  : 
; 723  : 	requireclass= this->m_SetItemOptionInfo[optionindex].RequireClass[Class];

  00023	03 c2		 add	 eax, edx
  00025	0f b6 84 08 a4
	81 02 00	 movzx	 eax, BYTE PTR [eax+ecx+164260]

; 724  : 
; 725  : 	if (requireclass == 0)

  0002d	85 c0		 test	 eax, eax

; 726  : 	{
; 727  : 		return 0;

  0002f	74 25		 je	 SHORT $LN11@IsRequireC

; 728  : 	}
; 729  : 
; 730  : 	if (requireclass > 1)

  00031	83 f8 01	 cmp	 eax, 1
  00034	7e 08		 jle	 SHORT $LN1@IsRequireC

; 731  : 	{
; 732  : 		if (requireclass != ChangeUP+1)

  00036	8b 4d 10	 mov	 ecx, DWORD PTR _ChangeUP$[ebp]
  00039	41		 inc	 ecx
  0003a	3b c1		 cmp	 eax, ecx

; 733  : 		{
; 734  : 			return 0;

  0003c	75 18		 jne	 SHORT $LN11@IsRequireC
$LN1@IsRequireC:

; 735  : 		}
; 736  : 	}
; 737  : 	return 1;

  0003e	b8 01 00 00 00	 mov	 eax, 1

; 738  : }

  00043	5d		 pop	 ebp
  00044	c2 0c 00	 ret	 12			; 0000000cH
$LN7@IsRequireC:

; 708  : 	{
; 709  : 		LogAdd("GetMaxOptionCount Check error: (itemnum:%d)", optionindex);

  00047	50		 push	 eax
  00048	68 00 00 00 00	 push	 OFFSET ??_C@_0CM@OCFJJDJ@GetMaxOptionCount?5Check?5error?3?5?$CI@
  0004d	ff 15 00 00 00
	00		 call	 DWORD PTR ?LogAdd@@3P6AXPADZZA ; LogAdd
  00053	83 c4 08	 add	 esp, 8
$LN11@IsRequireC:

; 710  : 		return 0;

  00056	33 c0		 xor	 eax, eax

; 738  : }

  00058	5d		 pop	 ebp
  00059	c2 0c 00	 ret	 12			; 0000000cH
?IsRequireClass@CSetItemOption@@QAEHHHH@Z ENDP		; CSetItemOption::IsRequireClass
_TEXT	ENDS
PUBLIC	??_C@_0CI@NPMNOGMI@MakeSetOption?5Check?5error?3?5?$CIitem@ ; `string'
PUBLIC	?CheckMixContition@CSetItemOption@@QAEHHH@Z	; CSetItemOption::CheckMixContition
;	COMDAT ??_C@_0CI@NPMNOGMI@MakeSetOption?5Check?5error?3?5?$CIitem@
CONST	SEGMENT
??_C@_0CI@NPMNOGMI@MakeSetOption?5Check?5error?3?5?$CIitem@ DB 'MakeSetOp'
	DB	'tion Check error: (itemnum:%d)', 00H	; `string'
; Function compile flags: /Ogtp
CONST	ENDS
;	COMDAT ?CheckMixContition@CSetItemOption@@QAEHHH@Z
_TEXT	SEGMENT
_itemnum$ = 8						; size = 4
_mixitemlevel$ = 12					; size = 4
?CheckMixContition@CSetItemOption@@QAEHHH@Z PROC	; CSetItemOption::CheckMixContition, COMDAT
; _this$ = ecx

; 743  : {

  00000	55		 push	 ebp
  00001	8b ec		 mov	 ebp, esp

; 744  : 	if (mixitemlevel == -1)

  00003	8b 55 0c	 mov	 edx, DWORD PTR _mixitemlevel$[ebp]
  00006	83 fa ff	 cmp	 edx, -1

; 745  : 	{
; 746  : 		return 0;

  00009	74 39		 je	 SHORT $LN9@CheckMixCo

; 747  : 	}
; 748  : 
; 749  : 	if ( itemnum <0 || itemnum > MAX_ITEMS-1)

  0000b	8b 45 08	 mov	 eax, DWORD PTR _itemnum$[ebp]
  0000e	3d ff 1f 00 00	 cmp	 eax, 8191		; 00001fffH
  00013	77 20		 ja	 SHORT $LN4@CheckMixCo

; 753  : 	}
; 754  : 
; 755  : 	if (this->m_SetItemTypeInfo[itemnum].IsLoad == 0)

  00015	8d 04 80	 lea	 eax, DWORD PTR [eax+eax*4]
  00018	83 7c 81 04 00	 cmp	 DWORD PTR [ecx+eax*4+4], 0
  0001d	8d 04 81	 lea	 eax, DWORD PTR [ecx+eax*4]

; 756  : 	{
; 757  : 		return 0;

  00020	74 22		 je	 SHORT $LN9@CheckMixCo

; 758  : 	}
; 759  : 
; 760  : 	if (this->m_SetItemTypeInfo[itemnum].ChaosMixLevel[0] == mixitemlevel || this->m_SetItemTypeInfo[itemnum].ChaosMixLevel[1] == mixitemlevel)

  00022	39 50 10	 cmp	 DWORD PTR [eax+16], edx
  00025	74 05		 je	 SHORT $LN1@CheckMixCo
  00027	39 50 14	 cmp	 DWORD PTR [eax+20], edx

; 763  : 	}
; 764  : 
; 765  : 	return 0;

  0002a	75 18		 jne	 SHORT $LN9@CheckMixCo
$LN1@CheckMixCo:

; 761  : 	{
; 762  : 		return 1;

  0002c	b8 01 00 00 00	 mov	 eax, 1

; 766  : }

  00031	5d		 pop	 ebp
  00032	c2 08 00	 ret	 8
$LN4@CheckMixCo:

; 750  : 	{
; 751  : 		LogAdd("MakeSetOption Check error: (itemnum:%d)", itemnum);

  00035	50		 push	 eax
  00036	68 00 00 00 00	 push	 OFFSET ??_C@_0CI@NPMNOGMI@MakeSetOption?5Check?5error?3?5?$CIitem@
  0003b	ff 15 00 00 00
	00		 call	 DWORD PTR ?LogAdd@@3P6AXPADZZA ; LogAdd
  00041	83 c4 08	 add	 esp, 8
$LN9@CheckMixCo:

; 752  : 		return 0;

  00044	33 c0		 xor	 eax, eax

; 766  : }

  00046	5d		 pop	 ebp
  00047	c2 08 00	 ret	 8
?CheckMixContition@CSetItemOption@@QAEHHH@Z ENDP	; CSetItemOption::CheckMixContition
_TEXT	ENDS
PUBLIC	?MakeSetOption@CSetItemOption@@QAEHHH@Z		; CSetItemOption::MakeSetOption
EXTRN	_rand:PROC
; Function compile flags: /Ogtp
;	COMDAT ?MakeSetOption@CSetItemOption@@QAEHHH@Z
_TEXT	SEGMENT
_itemnum$ = 8						; size = 4
_mixitemlevel$ = 12					; size = 4
?MakeSetOption@CSetItemOption@@QAEHHH@Z PROC		; CSetItemOption::MakeSetOption, COMDAT
; _this$ = ecx

; 769  : {

  00000	55		 push	 ebp
  00001	8b ec		 mov	 ebp, esp

; 770  : 	if ( itemnum <0 || itemnum > MAX_ITEMS-1)

  00003	8b 45 08	 mov	 eax, DWORD PTR _itemnum$[ebp]
  00006	3d ff 1f 00 00	 cmp	 eax, 8191		; 00001fffH
  0000b	77 4e		 ja	 SHORT $LN7@MakeSetOpt

; 774  : 	}
; 775  : 
; 776  : 	if (this->m_SetItemTypeInfo[itemnum].IsLoad == FALSE)

  0000d	8d 04 80	 lea	 eax, DWORD PTR [eax+eax*4]
  00010	83 7c 81 04 00	 cmp	 DWORD PTR [ecx+eax*4+4], 0
  00015	8d 04 81	 lea	 eax, DWORD PTR [ecx+eax*4]

; 777  : 	{
; 778  : 		return 0;

  00018	74 50		 je	 SHORT $LN12@MakeSetOpt

; 779  : 	}
; 780  : 
; 781  : 	if (this->m_SetItemTypeInfo[itemnum].ChaosMixLevel[0] == this->m_SetItemTypeInfo[itemnum].ChaosMixLevel[1])

  0001a	8b 48 10	 mov	 ecx, DWORD PTR [eax+16]
  0001d	8b 40 14	 mov	 eax, DWORD PTR [eax+20]
  00020	3b c8		 cmp	 ecx, eax
  00022	75 16		 jne	 SHORT $LN5@MakeSetOpt

; 782  : 	{
; 783  : 		return (rand() % 2) +1;

  00024	e8 00 00 00 00	 call	 _rand
  00029	25 01 00 00 80	 and	 eax, -2147483647	; 80000001H
  0002e	79 05		 jns	 SHORT $LN11@MakeSetOpt
  00030	48		 dec	 eax
  00031	83 c8 fe	 or	 eax, -2			; fffffffeH
  00034	40		 inc	 eax
$LN11@MakeSetOpt:
  00035	40		 inc	 eax

; 790  : 	{
; 791  : 		return 2;
; 792  : 	}
; 793  : 
; 794  : 	return 0;
; 795  : }

  00036	5d		 pop	 ebp
  00037	c2 08 00	 ret	 8
$LN5@MakeSetOpt:

; 784  : 	}
; 785  : 	else if ( this->m_SetItemTypeInfo[itemnum].ChaosMixLevel[0] == mixitemlevel )

  0003a	8b 55 0c	 mov	 edx, DWORD PTR _mixitemlevel$[ebp]
  0003d	3b ca		 cmp	 ecx, edx
  0003f	75 09		 jne	 SHORT $LN3@MakeSetOpt

; 786  : 	{
; 787  : 		return 1;

  00041	b8 01 00 00 00	 mov	 eax, 1

; 790  : 	{
; 791  : 		return 2;
; 792  : 	}
; 793  : 
; 794  : 	return 0;
; 795  : }

  00046	5d		 pop	 ebp
  00047	c2 08 00	 ret	 8
$LN3@MakeSetOpt:

; 788  : 	}
; 789  : 	else if ( this->m_SetItemTypeInfo[itemnum].ChaosMixLevel[1] == mixitemlevel )

  0004a	33 c9		 xor	 ecx, ecx
  0004c	3b c2		 cmp	 eax, edx
  0004e	0f 95 c1	 setne	 cl
  00051	8d 41 ff	 lea	 eax, DWORD PTR [ecx-1]
  00054	83 e0 02	 and	 eax, 2

; 790  : 	{
; 791  : 		return 2;
; 792  : 	}
; 793  : 
; 794  : 	return 0;
; 795  : }

  00057	5d		 pop	 ebp
  00058	c2 08 00	 ret	 8
$LN7@MakeSetOpt:

; 771  : 	{
; 772  : 		LogAdd("MakeSetOption Check error: (itemnum:%d)", itemnum);

  0005b	50		 push	 eax
  0005c	68 00 00 00 00	 push	 OFFSET ??_C@_0CI@NPMNOGMI@MakeSetOption?5Check?5error?3?5?$CIitem@
  00061	ff 15 00 00 00
	00		 call	 DWORD PTR ?LogAdd@@3P6AXPADZZA ; LogAdd
  00067	83 c4 08	 add	 esp, 8
$LN12@MakeSetOpt:

; 773  : 		return 0;

  0006a	33 c0		 xor	 eax, eax

; 790  : 	{
; 791  : 		return 2;
; 792  : 	}
; 793  : 
; 794  : 	return 0;
; 795  : }

  0006c	5d		 pop	 ebp
  0006d	c2 08 00	 ret	 8
?MakeSetOption@CSetItemOption@@QAEHHH@Z ENDP		; CSetItemOption::MakeSetOption
_TEXT	ENDS
PUBLIC	?GenRandomItemNum@CSetItemOption@@QAEHXZ	; CSetItemOption::GenRandomItemNum
EXTRN	?g_MaxItemIndexOfEachItemType@@3PAHA:BYTE	; g_MaxItemIndexOfEachItemType
; Function compile flags: /Ogtp
;	COMDAT ?GenRandomItemNum@CSetItemOption@@QAEHXZ
_TEXT	SEGMENT
?GenRandomItemNum@CSetItemOption@@QAEHXZ PROC		; CSetItemOption::GenRandomItemNum, COMDAT
; _this$ = ecx

; 798  : {

  00000	53		 push	 ebx
  00001	56		 push	 esi
  00002	57		 push	 edi
  00003	8b d9		 mov	 ebx, ecx
$LL6@GenRandomI:

; 799  : 	int iItemIndex;
; 800  : 	do
; 801  : 	{
; 802  : 		int type = (rand()%MAX_TYPE_ITEMS);

  00005	e8 00 00 00 00	 call	 _rand
  0000a	8b f8		 mov	 edi, eax
  0000c	81 e7 0f 00 00
	80		 and	 edi, -2147483633	; 8000000fH
  00012	79 05		 jns	 SHORT $LN14@GenRandomI
  00014	4f		 dec	 edi
  00015	83 cf f0	 or	 edi, -16		; fffffff0H
  00018	47		 inc	 edi
$LN14@GenRandomI:

; 803  : 		int maxindex = ( g_MaxItemIndexOfEachItemType[type] <= 0 ) ?  MAX_SUBTYPE_ITEMS : g_MaxItemIndexOfEachItemType[type];

  00019	8b 34 bd 00 00
	00 00		 mov	 esi, DWORD PTR ?g_MaxItemIndexOfEachItemType@@3PAHA[edi*4]
  00020	85 f6		 test	 esi, esi
  00022	7f 05		 jg	 SHORT $LN9@GenRandomI
  00024	be 00 02 00 00	 mov	 esi, 512		; 00000200H
$LN9@GenRandomI:

; 804  : 		int index = rand() % maxindex;

  00029	e8 00 00 00 00	 call	 _rand
  0002e	99		 cdq
  0002f	f7 fe		 idiv	 esi

; 805  : 		iItemIndex = ITEMGET(type, index);

  00031	8b f7		 mov	 esi, edi
  00033	c1 e6 09	 shl	 esi, 9

; 806  : 
; 807  : 		if( type >= 7 && type < 12 )

  00036	83 c7 f9	 add	 edi, -7			; fffffff9H
  00039	03 f2		 add	 esi, edx
  0003b	83 ff 04	 cmp	 edi, 4
  0003e	77 0a		 ja	 SHORT $LN2@GenRandomI

; 808  : 		{
; 809  : 			if( index >= 62 && index <= 72 )

  00040	83 fa 3e	 cmp	 edx, 62			; 0000003eH
  00043	7c 05		 jl	 SHORT $LN2@GenRandomI
  00045	83 fa 48	 cmp	 edx, 72			; 00000048H
  00048	7e bb		 jle	 SHORT $LL6@GenRandomI
$LN2@GenRandomI:

; 810  : 				continue;
; 811  : 		}
; 812  : 
; 813  : 		if ( this->IsSetItem(iItemIndex) != FALSE )

  0004a	56		 push	 esi
  0004b	8b cb		 mov	 ecx, ebx
  0004d	e8 00 00 00 00	 call	 ?IsSetItem@CSetItemOption@@QAEHH@Z ; CSetItemOption::IsSetItem
  00052	85 c0		 test	 eax, eax
  00054	74 af		 je	 SHORT $LL6@GenRandomI

; 814  : 			return iItemIndex;

  00056	5f		 pop	 edi
  00057	8b c6		 mov	 eax, esi
  00059	5e		 pop	 esi
  0005a	5b		 pop	 ebx

; 815  : 	}
; 816  : 	while ( true );
; 817  : 
; 818  : 	return ITEMGET(0,0);
; 819  : }

  0005b	c3		 ret	 0
?GenRandomItemNum@CSetItemOption@@QAEHXZ ENDP		; CSetItemOption::GenRandomItemNum
_TEXT	ENDS
PUBLIC	??_C@_0CF@ECDCLMC@GenSetType?5Check?5error?3?5?$CIitemnum@ ; `string'
PUBLIC	?GenSetOption@CSetItemOption@@QAEHH@Z		; CSetItemOption::GenSetOption
;	COMDAT ??_C@_0CF@ECDCLMC@GenSetType?5Check?5error?3?5?$CIitemnum@
CONST	SEGMENT
??_C@_0CF@ECDCLMC@GenSetType?5Check?5error?3?5?$CIitemnum@ DB 'GenSetType'
	DB	' Check error: (itemnum:%d)', 00H		; `string'
; Function compile flags: /Ogtp
CONST	ENDS
;	COMDAT ?GenSetOption@CSetItemOption@@QAEHH@Z
_TEXT	SEGMENT
_itemnum$ = 8						; size = 4
?GenSetOption@CSetItemOption@@QAEHH@Z PROC		; CSetItemOption::GenSetOption, COMDAT
; _this$ = ecx

; 822  : {

  00000	55		 push	 ebp
  00001	8b ec		 mov	 ebp, esp

; 823  : 	if ( itemnum < 0 || itemnum > MAX_ITEMS-1)

  00003	8b 45 08	 mov	 eax, DWORD PTR _itemnum$[ebp]
  00006	3d ff 1f 00 00	 cmp	 eax, 8191		; 00001fffH
  0000b	77 5f		 ja	 SHORT $LN8@GenSetOpti

; 827  : 	}
; 828  : 
; 829  : 	if ( this->m_SetItemTypeInfo[itemnum].IsLoad == FALSE )

  0000d	8d 04 80	 lea	 eax, DWORD PTR [eax+eax*4]
  00010	83 7c 81 04 00	 cmp	 DWORD PTR [ecx+eax*4+4], 0
  00015	8d 0c 81	 lea	 ecx, DWORD PTR [ecx+eax*4]

; 830  : 		return FALSE;

  00018	74 61		 je	 SHORT $LN13@GenSetOpti

; 831  : 
; 832  : 	int SetOption;
; 833  : 
; 834  : 	if ( this->m_SetItemTypeInfo[itemnum].OptionIndex[0] &&
; 835  : 		 this->m_SetItemTypeInfo[itemnum].OptionIndex[1] )

  0001a	8b 41 08	 mov	 eax, DWORD PTR [ecx+8]
  0001d	56		 push	 esi
  0001e	85 c0		 test	 eax, eax
  00020	74 1d		 je	 SHORT $LN6@GenSetOpti
  00022	83 79 0c 00	 cmp	 DWORD PTR [ecx+12], 0
  00026	74 17		 je	 SHORT $LN6@GenSetOpti

; 836  : 	{
; 837  : 		SetOption = rand() % 2 + 1;

  00028	e8 00 00 00 00	 call	 _rand
  0002d	8b f0		 mov	 esi, eax
  0002f	81 e6 01 00 00
	80		 and	 esi, -2147483647	; 80000001H
  00035	79 05		 jns	 SHORT $LN12@GenSetOpti
  00037	4e		 dec	 esi
  00038	83 ce fe	 or	 esi, -2			; fffffffeH
  0003b	46		 inc	 esi
$LN12@GenSetOpti:
  0003c	46		 inc	 esi
  0003d	eb 07		 jmp	 SHORT $LN4@GenSetOpti
$LN6@GenSetOpti:

; 838  : 	}
; 839  : 	else if ( this->m_SetItemTypeInfo[itemnum].OptionIndex[0] )

  0003f	f7 d8		 neg	 eax
  00041	1b c0		 sbb	 eax, eax
  00043	8d 70 02	 lea	 esi, DWORD PTR [eax+2]
$LN4@GenSetOpti:

; 840  : 	{
; 841  : 		SetOption = 1;
; 842  : 	}
; 843  : 	else
; 844  : 	{
; 845  : 		SetOption = 2;
; 846  : 	}
; 847  : 
; 848  : 	if ( (rand()%100) < 80 )

  00046	e8 00 00 00 00	 call	 _rand
  0004b	99		 cdq
  0004c	b9 64 00 00 00	 mov	 ecx, 100		; 00000064H
  00051	f7 f9		 idiv	 ecx
  00053	83 fa 50	 cmp	 edx, 80			; 00000050H
  00056	7d 0a		 jge	 SHORT $LN2@GenSetOpti

; 849  : 	{
; 850  : 		SetOption |= 4;

  00058	83 ce 04	 or	 esi, 4

; 855  : 	}
; 856  : 
; 857  : 	return SetOption;

  0005b	8b c6		 mov	 eax, esi
  0005d	5e		 pop	 esi

; 858  : }

  0005e	5d		 pop	 ebp
  0005f	c2 04 00	 ret	 4
$LN2@GenSetOpti:

; 851  : 	}
; 852  : 	else
; 853  : 	{
; 854  : 		SetOption |= 8;

  00062	83 ce 08	 or	 esi, 8

; 855  : 	}
; 856  : 
; 857  : 	return SetOption;

  00065	8b c6		 mov	 eax, esi
  00067	5e		 pop	 esi

; 858  : }

  00068	5d		 pop	 ebp
  00069	c2 04 00	 ret	 4
$LN8@GenSetOpti:

; 824  : 	{
; 825  : 		LogAdd("GenSetType Check error: (itemnum:%d)", itemnum);

  0006c	50		 push	 eax
  0006d	68 00 00 00 00	 push	 OFFSET ??_C@_0CF@ECDCLMC@GenSetType?5Check?5error?3?5?$CIitemnum@
  00072	ff 15 00 00 00
	00		 call	 DWORD PTR ?LogAdd@@3P6AXPADZZA ; LogAdd
  00078	83 c4 08	 add	 esp, 8
$LN13@GenSetOpti:

; 826  : 		return FALSE;

  0007b	33 c0		 xor	 eax, eax

; 858  : }

  0007d	5d		 pop	 ebp
  0007e	c2 04 00	 ret	 4
?GenSetOption@CSetItemOption@@QAEHH@Z ENDP		; CSetItemOption::GenSetOption
_TEXT	ENDS
EXTRN	??3@YAXPAX@Z:PROC				; operator delete
; Function compile flags: /Ogtp
;	COMDAT ??_GCSetItemOption@@UAEPAXI@Z
_TEXT	SEGMENT
___flags$ = 8						; size = 4
??_GCSetItemOption@@UAEPAXI@Z PROC			; CSetItemOption::`scalar deleting destructor', COMDAT
; _this$ = ecx
  00000	55		 push	 ebp
  00001	8b ec		 mov	 ebp, esp
  00003	56		 push	 esi
  00004	8b f1		 mov	 esi, ecx
  00006	e8 00 00 00 00	 call	 ??1CSetItemOption@@UAE@XZ ; CSetItemOption::~CSetItemOption
  0000b	f6 45 08 01	 test	 BYTE PTR ___flags$[ebp], 1
  0000f	74 09		 je	 SHORT $LN4@scalar
  00011	56		 push	 esi
  00012	e8 00 00 00 00	 call	 ??3@YAXPAX@Z		; operator delete
  00017	83 c4 04	 add	 esp, 4
$LN4@scalar:
  0001a	8b c6		 mov	 eax, esi
  0001c	5e		 pop	 esi
  0001d	5d		 pop	 ebp
  0001e	c2 04 00	 ret	 4
??_GCSetItemOption@@UAEPAXI@Z ENDP			; CSetItemOption::`scalar deleting destructor'
_TEXT	ENDS
PUBLIC	??_C@_0CH@DEMKMCF@GetSetOption?5Check?5error?3?5?$CIitemn@ ; `string'
PUBLIC	?GetSetOption@CSetItemOption@@QAEHHHAAH000HH@Z	; CSetItemOption::GetSetOption
;	COMDAT ??_C@_0CH@DEMKMCF@GetSetOption?5Check?5error?3?5?$CIitemn@
CONST	SEGMENT
??_C@_0CH@DEMKMCF@GetSetOption?5Check?5error?3?5?$CIitemn@ DB 'GetSetOpti'
	DB	'on Check error: (itemnum:%d)', 00H		; `string'
; Function compile flags: /Ogtp
CONST	ENDS
;	COMDAT ?GetSetOption@CSetItemOption@@QAEHHHAAH000HH@Z
_TEXT	SEGMENT
_optionindex$ = 8					; size = 4
_optablenum$ = 12					; size = 4
_op1$ = 16						; size = 4
_op2$ = 20						; size = 4
_opvalue1$ = 24						; size = 4
_opvalue2$ = 28						; size = 4
_Class$ = 32						; size = 4
_ChangeUp$ = 36						; size = 4
?GetSetOption@CSetItemOption@@QAEHHHAAH000HH@Z PROC	; CSetItemOption::GetSetOption, COMDAT
; _this$ = ecx

; 502  : {

  00000	55		 push	 ebp
  00001	8b ec		 mov	 ebp, esp

; 503  : 	opvalue1=0;

  00003	8b 45 18	 mov	 eax, DWORD PTR _opvalue1$[ebp]
  00006	56		 push	 esi

; 504  : 	opvalue2=0;
; 505  : 
; 506  : 	if (optionindex <0 || optionindex > MAX_SETITEM_OPTION-1)

  00007	8b 75 08	 mov	 esi, DWORD PTR _optionindex$[ebp]
  0000a	57		 push	 edi
  0000b	8b f9		 mov	 edi, ecx
  0000d	8b 4d 1c	 mov	 ecx, DWORD PTR _opvalue2$[ebp]
  00010	c7 00 00 00 00
	00		 mov	 DWORD PTR [eax], 0
  00016	c7 01 00 00 00
	00		 mov	 DWORD PTR [ecx], 0
  0001c	83 fe 4f	 cmp	 esi, 79			; 0000004fH
  0001f	0f 87 2e 01 00
	00		 ja	 $LN14@GetSetOpti@3

; 510  : 	}
; 511  : 
; 512  : 	if (this->m_SetItemOptionInfo[optionindex].IsLoad==0)

  00025	8b c6		 mov	 eax, esi
  00027	69 c0 a8 01 00
	00		 imul	 eax, 424		; 000001a8H
  0002d	83 bc 38 04 80
	02 00 00	 cmp	 DWORD PTR [eax+edi+163844], 0

; 513  : 	{
; 514  : 		return 0;

  00035	0f 84 27 01 00
	00		 je	 $LN22@GetSetOpti@3

; 515  : 	}
; 516  : 
; 517  : 	if (optablenum >= this->m_SetItemOptionInfo[optionindex].SetOptionCount)

  0003b	53		 push	 ebx
  0003c	8b 5d 0c	 mov	 ebx, DWORD PTR _optablenum$[ebp]
  0003f	3b 9c 38 08 81
	02 00		 cmp	 ebx, DWORD PTR [eax+edi+164104]
  00046	7c 09		 jl	 SHORT $LN12@GetSetOpti@3

; 518  : 	{
; 519  : 		return 0;

  00048	5b		 pop	 ebx
  00049	5f		 pop	 edi
  0004a	33 c0		 xor	 eax, eax
  0004c	5e		 pop	 esi

; 581  : }

  0004d	5d		 pop	 ebp
  0004e	c2 20 00	 ret	 32			; 00000020H
$LN12@GetSetOpti@3:

; 520  : 	}
; 521  : 	int isRequireClass;
; 522  : 
; 523  : 	isRequireClass=this->IsRequireClass(optionindex, Class, ChangeUp);

  00051	8b 45 24	 mov	 eax, DWORD PTR _ChangeUp$[ebp]
  00054	8b 4d 20	 mov	 ecx, DWORD PTR _Class$[ebp]
  00057	50		 push	 eax
  00058	51		 push	 ecx
  00059	56		 push	 esi
  0005a	8b cf		 mov	 ecx, edi
  0005c	e8 00 00 00 00	 call	 ?IsRequireClass@CSetItemOption@@QAEHHHH@Z ; CSetItemOption::IsRequireClass

; 524  : 
; 525  : 	if (optablenum <OPTION_TABLE_SIZE)

  00061	83 fb 06	 cmp	 ebx, 6
  00064	0f 8d 80 00 00
	00		 jge	 $LN11@GetSetOpti@3

; 526  : 	{
; 527  : 		op1=this->m_SetItemOptionInfo[optionindex].SetOptionTable[optablenum][0];

  0006a	6b f6 35	 imul	 esi, 53			; 00000035H
  0006d	8d 0c 1e	 lea	 ecx, DWORD PTR [esi+ebx]
  00070	8b 94 cf 0c 81
	02 00		 mov	 edx, DWORD PTR [edi+ecx*8+164108]
  00077	8b 75 10	 mov	 esi, DWORD PTR _op1$[ebp]

; 528  : 		opvalue1=this->m_SetItemOptionInfo[optionindex].SetOptionTableValue[optablenum][0];

  0007a	8b 5d 18	 mov	 ebx, DWORD PTR _opvalue1$[ebp]
  0007d	89 16		 mov	 DWORD PTR [esi], edx
  0007f	8b 94 cf 3c 81
	02 00		 mov	 edx, DWORD PTR [edi+ecx*8+164156]
  00086	89 13		 mov	 DWORD PTR [ebx], edx

; 529  : 
; 530  : 		if ( op1 > 183 )

  00088	8b 16		 mov	 edx, DWORD PTR [esi]
  0008a	81 fa b7 00 00
	00		 cmp	 edx, 183		; 000000b7H
  00090	7e 0c		 jle	 SHORT $LN18@GetSetOpti@3

; 531  : 		{
; 532  : 			if ( isRequireClass == 0 )

  00092	85 c0		 test	 eax, eax
  00094	75 08		 jne	 SHORT $LN18@GetSetOpti@3

; 533  : 			{
; 534  : 				op1 = -1;

  00096	c7 06 ff ff ff
	ff		 mov	 DWORD PTR [esi], -1

; 535  : 			}
; 536  : 		}
; 537  : 
; 538  : 		if ( op1 != -1 )

  0009c	eb 0d		 jmp	 SHORT $LN19@GetSetOpti@3
$LN18@GetSetOpti@3:
  0009e	83 fa ff	 cmp	 edx, -1
  000a1	74 08		 je	 SHORT $LN19@GetSetOpti@3

; 539  : 		{
; 540  : 			op1 += 0xA0;

  000a3	81 c2 a0 00 00
	00		 add	 edx, 160		; 000000a0H
  000a9	89 16		 mov	 DWORD PTR [esi], edx
$LN19@GetSetOpti@3:

; 541  : 		}
; 542  : 
; 543  : 		op2=this->m_SetItemOptionInfo[optionindex].SetOptionTable[optablenum][1];

  000ab	8b b4 cf 10 81
	02 00		 mov	 esi, DWORD PTR [edi+ecx*8+164112]
  000b2	8b 55 14	 mov	 edx, DWORD PTR _op2$[ebp]
  000b5	89 32		 mov	 DWORD PTR [edx], esi

; 544  : 		opvalue2=this->m_SetItemOptionInfo[optionindex].SetOptionTableValue[optablenum][1];

  000b7	8b 8c cf 40 81
	02 00		 mov	 ecx, DWORD PTR [edi+ecx*8+164160]
  000be	8b 75 1c	 mov	 esi, DWORD PTR _opvalue2$[ebp]
  000c1	89 0e		 mov	 DWORD PTR [esi], ecx

; 545  : 
; 546  : 		if ( op2 > 183 )

  000c3	8b 0a		 mov	 ecx, DWORD PTR [edx]
  000c5	81 f9 b7 00 00
	00		 cmp	 ecx, 183		; 000000b7H
  000cb	7e 04		 jle	 SHORT $LN6@GetSetOpti@3

; 547  : 		{
; 548  : 			if ( isRequireClass == 0 )

  000cd	85 c0		 test	 eax, eax

; 549  : 			{
; 550  : 				op2 = -1;
; 551  : 			}
; 552  : 		}
; 553  : 
; 554  : 		if ( op2 != -1 )

  000cf	74 70		 je	 SHORT $LN21@GetSetOpti@3
$LN6@GetSetOpti@3:
  000d1	83 f9 ff	 cmp	 ecx, -1
  000d4	74 71		 je	 SHORT $LN4@GetSetOpti@3

; 555  : 		{
; 556  : 			op2 += 0xA0;

  000d6	5b		 pop	 ebx
  000d7	81 c1 a0 00 00
	00		 add	 ecx, 160		; 000000a0H
  000dd	5f		 pop	 edi
  000de	89 0a		 mov	 DWORD PTR [edx], ecx

; 578  : 	}
; 579  : 
; 580  : 	return 1;

  000e0	b8 01 00 00 00	 mov	 eax, 1
  000e5	5e		 pop	 esi

; 581  : }

  000e6	5d		 pop	 ebp
  000e7	c2 20 00	 ret	 32			; 00000020H
$LN11@GetSetOpti@3:

; 557  : 		}
; 558  : 	}
; 559  : 	else
; 560  : 	{
; 561  : 		op1=this->m_SetItemOptionInfo[optionindex].SetExPOptionTable[optablenum-OPTION_TABLE_SIZE];

  000ea	8b 55 10	 mov	 edx, DWORD PTR _op1$[ebp]
  000ed	6b f6 6a	 imul	 esi, 106		; 0000006aH
  000f0	8d 0c 1e	 lea	 ecx, DWORD PTR [esi+ebx]
  000f3	8b b4 8f 54 81
	02 00		 mov	 esi, DWORD PTR [edi+ecx*4+164180]
  000fa	89 32		 mov	 DWORD PTR [edx], esi

; 562  : 		opvalue1=this->m_SetItemOptionInfo[optionindex].SetExPOptionTableValue[optablenum-OPTION_TABLE_SIZE];

  000fc	8b 8c 8f 5c 81
	02 00		 mov	 ecx, DWORD PTR [edi+ecx*4+164188]
  00103	8b 75 18	 mov	 esi, DWORD PTR _opvalue1$[ebp]
  00106	89 0e		 mov	 DWORD PTR [esi], ecx

; 563  : 
; 564  : 		if ( op1 > 183 )

  00108	8b 0a		 mov	 ecx, DWORD PTR [edx]
  0010a	81 f9 b7 00 00
	00		 cmp	 ecx, 183		; 000000b7H
  00110	7e 1f		 jle	 SHORT $LN2@GetSetOpti@3

; 565  : 		{
; 566  : 			if ( isRequireClass == 0 )

  00112	85 c0		 test	 eax, eax
  00114	75 1b		 jne	 SHORT $LN2@GetSetOpti@3

; 567  : 			{
; 568  : 				op1 = -1;

  00116	5b		 pop	 ebx
  00117	c7 02 ff ff ff
	ff		 mov	 DWORD PTR [edx], -1

; 575  : 		}
; 576  : 
; 577  : 		op2 = -1;

  0011d	8b 55 14	 mov	 edx, DWORD PTR _op2$[ebp]
  00120	5f		 pop	 edi
  00121	c7 02 ff ff ff
	ff		 mov	 DWORD PTR [edx], -1

; 578  : 	}
; 579  : 
; 580  : 	return 1;

  00127	b8 01 00 00 00	 mov	 eax, 1
  0012c	5e		 pop	 esi

; 581  : }

  0012d	5d		 pop	 ebp
  0012e	c2 20 00	 ret	 32			; 00000020H
$LN2@GetSetOpti@3:

; 569  : 			}
; 570  : 		}
; 571  : 
; 572  : 		if ( op1 != -1 )

  00131	83 f9 ff	 cmp	 ecx, -1
  00134	74 08		 je	 SHORT $LN1@GetSetOpti@3

; 573  : 		{
; 574  : 			op1 += 0xA0;

  00136	81 c1 a0 00 00
	00		 add	 ecx, 160		; 000000a0H
  0013c	89 0a		 mov	 DWORD PTR [edx], ecx
$LN1@GetSetOpti@3:

; 575  : 		}
; 576  : 
; 577  : 		op2 = -1;

  0013e	8b 55 14	 mov	 edx, DWORD PTR _op2$[ebp]
$LN21@GetSetOpti@3:
  00141	c7 02 ff ff ff
	ff		 mov	 DWORD PTR [edx], -1
$LN4@GetSetOpti@3:
  00147	5b		 pop	 ebx
  00148	5f		 pop	 edi

; 578  : 	}
; 579  : 
; 580  : 	return 1;

  00149	b8 01 00 00 00	 mov	 eax, 1
  0014e	5e		 pop	 esi

; 581  : }

  0014f	5d		 pop	 ebp
  00150	c2 20 00	 ret	 32			; 00000020H
$LN14@GetSetOpti@3:

; 507  : 	{
; 508  : 		LogAdd("GetSetOption Check error: (itemnum:%d)", optionindex);

  00153	56		 push	 esi
  00154	68 00 00 00 00	 push	 OFFSET ??_C@_0CH@DEMKMCF@GetSetOption?5Check?5error?3?5?$CIitemn@
  00159	ff 15 00 00 00
	00		 call	 DWORD PTR ?LogAdd@@3P6AXPADZZA ; LogAdd
  0015f	83 c4 08	 add	 esp, 8
$LN22@GetSetOpti@3:

; 509  : 		return 0;

  00162	5f		 pop	 edi
  00163	33 c0		 xor	 eax, eax
  00165	5e		 pop	 esi

; 581  : }

  00166	5d		 pop	 ebp
  00167	c2 20 00	 ret	 32			; 00000020H
?GetSetOption@CSetItemOption@@QAEHHHAAH000HH@Z ENDP	; CSetItemOption::GetSetOption
_TEXT	ENDS
PUBLIC	?GetGetFullSetOption@CSetItemOption@@QAEHHAAH000000000HH@Z ; CSetItemOption::GetGetFullSetOption
; Function compile flags: /Ogtp
;	COMDAT ?GetGetFullSetOption@CSetItemOption@@QAEHHAAH000000000HH@Z
_TEXT	SEGMENT
_optionindex$ = 8					; size = 4
_op1$ = 12						; size = 4
_op2$ = 16						; size = 4
_op3$ = 20						; size = 4
_op4$ = 24						; size = 4
_op5$ = 28						; size = 4
_opvalue1$ = 32						; size = 4
_opvalue2$ = 36						; size = 4
_opvalue3$ = 40						; size = 4
_opvalue4$ = 44						; size = 4
_opvalue5$ = 48						; size = 4
_Class$ = 52						; size = 4
_ChangeUp$ = 56						; size = 4
?GetGetFullSetOption@CSetItemOption@@QAEHHAAH000000000HH@Z PROC ; CSetItemOption::GetGetFullSetOption, COMDAT
; _this$ = ecx

; 601  : {

  00000	55		 push	 ebp
  00001	8b ec		 mov	 ebp, esp

; 602  : 	opvalue1 = 0;
; 603  : 	opvalue2 = 0;
; 604  : 	opvalue3 = 0;

  00003	8b 45 28	 mov	 eax, DWORD PTR _opvalue3$[ebp]

; 605  : 	opvalue4 = 0;

  00006	8b 55 2c	 mov	 edx, DWORD PTR _opvalue4$[ebp]
  00009	53		 push	 ebx
  0000a	8b 5d 24	 mov	 ebx, DWORD PTR _opvalue2$[ebp]
  0000d	57		 push	 edi
  0000e	8b 7d 20	 mov	 edi, DWORD PTR _opvalue1$[ebp]
  00011	c7 07 00 00 00
	00		 mov	 DWORD PTR [edi], 0
  00017	c7 03 00 00 00
	00		 mov	 DWORD PTR [ebx], 0
  0001d	c7 00 00 00 00
	00		 mov	 DWORD PTR [eax], 0

; 606  : 	opvalue5 = 0;

  00023	8b 45 30	 mov	 eax, DWORD PTR _opvalue5$[ebp]
  00026	c7 02 00 00 00
	00		 mov	 DWORD PTR [edx], 0
  0002c	c7 00 00 00 00
	00		 mov	 DWORD PTR [eax], 0

; 607  : 
; 608  : 	if (optionindex <0 || optionindex > MAX_SETITEM_OPTION-1)

  00032	8b 45 08	 mov	 eax, DWORD PTR _optionindex$[ebp]
  00035	83 f8 4f	 cmp	 eax, 79			; 0000004fH
  00038	0f 87 58 01 00
	00		 ja	 $LN17@GetGetFull

; 612  : 	}
; 613  : 
; 614  : 	if (this->m_SetItemOptionInfo[optionindex].IsLoad == 0)

  0003e	56		 push	 esi
  0003f	8b f0		 mov	 esi, eax
  00041	69 f6 a8 01 00
	00		 imul	 esi, 424		; 000001a8H
  00047	03 f1		 add	 esi, ecx
  00049	83 be 04 80 02
	00 00		 cmp	 DWORD PTR [esi+163844], 0
  00050	75 09		 jne	 SHORT $LN16@GetGetFull

; 615  : 	{
; 616  : 		return 0;

  00052	5e		 pop	 esi
  00053	5f		 pop	 edi
  00054	33 c0		 xor	 eax, eax
  00056	5b		 pop	 ebx

; 701  : }

  00057	5d		 pop	 ebp
  00058	c2 34 00	 ret	 52			; 00000034H
$LN16@GetGetFull:

; 617  : 	}
; 618  : 
; 619  : 	BOOL isRequireClass=this->IsRequireClass(optionindex, Class, ChangeUp);

  0005b	8b 55 38	 mov	 edx, DWORD PTR _ChangeUp$[ebp]
  0005e	52		 push	 edx
  0005f	8b 55 34	 mov	 edx, DWORD PTR _Class$[ebp]
  00062	52		 push	 edx
  00063	50		 push	 eax
  00064	e8 00 00 00 00	 call	 ?IsRequireClass@CSetItemOption@@QAEHHHH@Z ; CSetItemOption::IsRequireClass

; 620  : 	op1 = this->m_SetItemOptionInfo[optionindex].SetFullOtionTable[0];

  00069	8b 8e 7c 81 02
	00		 mov	 ecx, DWORD PTR [esi+164220]
  0006f	8b 55 0c	 mov	 edx, DWORD PTR _op1$[ebp]
  00072	89 0a		 mov	 DWORD PTR [edx], ecx

; 621  : 	opvalue1 = this->m_SetItemOptionInfo[optionindex].SetFullOtionTableValue[0];

  00074	8b 8e 90 81 02
	00		 mov	 ecx, DWORD PTR [esi+164240]
  0007a	89 0f		 mov	 DWORD PTR [edi], ecx

; 622  : 
; 623  : 	if ( op1 > 183 )

  0007c	8b 0a		 mov	 ecx, DWORD PTR [edx]
  0007e	81 f9 b7 00 00
	00		 cmp	 ecx, 183		; 000000b7H
  00084	7e 0c		 jle	 SHORT $LN21@GetGetFull

; 624  : 	{
; 625  : 		if ( isRequireClass == 0 )

  00086	85 c0		 test	 eax, eax
  00088	75 08		 jne	 SHORT $LN21@GetGetFull

; 626  : 		{
; 627  : 			op1 = -1;

  0008a	c7 02 ff ff ff
	ff		 mov	 DWORD PTR [edx], -1

; 628  : 		}
; 629  : 	}
; 630  : 
; 631  : 	if ( op1 != -1 )

  00090	eb 0d		 jmp	 SHORT $LN22@GetGetFull
$LN21@GetGetFull:
  00092	83 f9 ff	 cmp	 ecx, -1
  00095	74 08		 je	 SHORT $LN22@GetGetFull

; 632  : 	{
; 633  : 		op1 += 0xA0;

  00097	81 c1 a0 00 00
	00		 add	 ecx, 160		; 000000a0H
  0009d	89 0a		 mov	 DWORD PTR [edx], ecx
$LN22@GetGetFull:

; 634  : 	}
; 635  : 
; 636  : 	op2=this->m_SetItemOptionInfo[optionindex].SetFullOtionTable[1];

  0009f	8b 8e 80 81 02
	00		 mov	 ecx, DWORD PTR [esi+164224]
  000a5	8b 55 10	 mov	 edx, DWORD PTR _op2$[ebp]
  000a8	89 0a		 mov	 DWORD PTR [edx], ecx

; 637  : 	opvalue2=this->m_SetItemOptionInfo[optionindex].SetFullOtionTableValue[1];

  000aa	8b 8e 94 81 02
	00		 mov	 ecx, DWORD PTR [esi+164244]
  000b0	89 0b		 mov	 DWORD PTR [ebx], ecx

; 638  : 
; 639  : 	if ( op2 > 183 )

  000b2	8b 0a		 mov	 ecx, DWORD PTR [edx]
  000b4	81 f9 b7 00 00
	00		 cmp	 ecx, 183		; 000000b7H
  000ba	7e 0c		 jle	 SHORT $LN23@GetGetFull

; 640  : 	{
; 641  : 		if ( isRequireClass == 0 )

  000bc	85 c0		 test	 eax, eax
  000be	75 08		 jne	 SHORT $LN23@GetGetFull

; 642  : 		{
; 643  : 			op2 = -1;

  000c0	c7 02 ff ff ff
	ff		 mov	 DWORD PTR [edx], -1

; 644  : 		}
; 645  : 	}
; 646  : 
; 647  : 	if ( op2 != -1 )

  000c6	eb 0d		 jmp	 SHORT $LN24@GetGetFull
$LN23@GetGetFull:
  000c8	83 f9 ff	 cmp	 ecx, -1
  000cb	74 08		 je	 SHORT $LN24@GetGetFull

; 648  : 	{
; 649  : 		op2 += 0xA0;

  000cd	81 c1 a0 00 00
	00		 add	 ecx, 160		; 000000a0H
  000d3	89 0a		 mov	 DWORD PTR [edx], ecx
$LN24@GetGetFull:

; 650  : 	}
; 651  : 
; 652  : 	op3=this->m_SetItemOptionInfo[optionindex].SetFullOtionTable[2];

  000d5	8b 8e 84 81 02
	00		 mov	 ecx, DWORD PTR [esi+164228]
  000db	8b 55 14	 mov	 edx, DWORD PTR _op3$[ebp]

; 653  : 	opvalue3=this->m_SetItemOptionInfo[optionindex].SetFullOtionTableValue[2];

  000de	8b 7d 28	 mov	 edi, DWORD PTR _opvalue3$[ebp]
  000e1	89 0a		 mov	 DWORD PTR [edx], ecx
  000e3	8b 8e 98 81 02
	00		 mov	 ecx, DWORD PTR [esi+164248]
  000e9	89 0f		 mov	 DWORD PTR [edi], ecx

; 654  : 
; 655  : 	if ( op3 > 183 )

  000eb	8b 0a		 mov	 ecx, DWORD PTR [edx]
  000ed	81 f9 b7 00 00
	00		 cmp	 ecx, 183		; 000000b7H
  000f3	7e 0c		 jle	 SHORT $LN25@GetGetFull

; 656  : 	{
; 657  : 		if ( isRequireClass == 0 )

  000f5	85 c0		 test	 eax, eax
  000f7	75 08		 jne	 SHORT $LN25@GetGetFull

; 658  : 		{
; 659  : 			op3 = -1;

  000f9	c7 02 ff ff ff
	ff		 mov	 DWORD PTR [edx], -1

; 660  : 		}
; 661  : 	}
; 662  : 
; 663  : 	if ( op3 != -1 )

  000ff	eb 0d		 jmp	 SHORT $LN26@GetGetFull
$LN25@GetGetFull:
  00101	83 f9 ff	 cmp	 ecx, -1
  00104	74 08		 je	 SHORT $LN26@GetGetFull

; 664  : 	{
; 665  : 		op3 += 0xA0;

  00106	81 c1 a0 00 00
	00		 add	 ecx, 160		; 000000a0H
  0010c	89 0a		 mov	 DWORD PTR [edx], ecx
$LN26@GetGetFull:

; 666  : 	}
; 667  : 
; 668  : 	op4=this->m_SetItemOptionInfo[optionindex].SetFullOtionTable[3];

  0010e	8b 8e 88 81 02
	00		 mov	 ecx, DWORD PTR [esi+164232]
  00114	8b 55 18	 mov	 edx, DWORD PTR _op4$[ebp]

; 669  : 	opvalue4=this->m_SetItemOptionInfo[optionindex].SetFullOtionTableValue[3];

  00117	8b 7d 2c	 mov	 edi, DWORD PTR _opvalue4$[ebp]
  0011a	89 0a		 mov	 DWORD PTR [edx], ecx
  0011c	8b 8e 9c 81 02
	00		 mov	 ecx, DWORD PTR [esi+164252]
  00122	89 0f		 mov	 DWORD PTR [edi], ecx

; 670  : 
; 671  : 	if ( op4 > 183 )

  00124	8b 0a		 mov	 ecx, DWORD PTR [edx]
  00126	81 f9 b7 00 00
	00		 cmp	 ecx, 183		; 000000b7H
  0012c	7e 0c		 jle	 SHORT $LN27@GetGetFull

; 672  : 	{
; 673  : 		if ( isRequireClass == 0 )

  0012e	85 c0		 test	 eax, eax
  00130	75 08		 jne	 SHORT $LN27@GetGetFull

; 674  : 		{
; 675  : 			op4 = -1;

  00132	c7 02 ff ff ff
	ff		 mov	 DWORD PTR [edx], -1

; 676  : 		}
; 677  : 	}
; 678  : 
; 679  : 	if ( op4 != -1 )

  00138	eb 0d		 jmp	 SHORT $LN28@GetGetFull
$LN27@GetGetFull:
  0013a	83 f9 ff	 cmp	 ecx, -1
  0013d	74 08		 je	 SHORT $LN28@GetGetFull

; 680  : 	{
; 681  : 		op4 += 0xA0;

  0013f	81 c1 a0 00 00
	00		 add	 ecx, 160		; 000000a0H
  00145	89 0a		 mov	 DWORD PTR [edx], ecx
$LN28@GetGetFull:

; 682  : 	}
; 683  : 
; 684  : 	op5=this->m_SetItemOptionInfo[optionindex].SetFullOtionTable[4];

  00147	8b 8e 8c 81 02
	00		 mov	 ecx, DWORD PTR [esi+164236]
  0014d	8b 55 1c	 mov	 edx, DWORD PTR _op5$[ebp]
  00150	89 0a		 mov	 DWORD PTR [edx], ecx

; 685  : 	opvalue5=this->m_SetItemOptionInfo[optionindex].SetFullOtionTableValue[4];

  00152	8b 8e a0 81 02
	00		 mov	 ecx, DWORD PTR [esi+164256]
  00158	8b 75 30	 mov	 esi, DWORD PTR _opvalue5$[ebp]
  0015b	89 0e		 mov	 DWORD PTR [esi], ecx

; 686  : 
; 687  : 	if ( op5 > 183 )

  0015d	8b 0a		 mov	 ecx, DWORD PTR [edx]
  0015f	81 f9 b7 00 00
	00		 cmp	 ecx, 183		; 000000b7H
  00165	7e 16		 jle	 SHORT $LN2@GetGetFull

; 688  : 	{
; 689  : 		if ( isRequireClass == 0 )

  00167	85 c0		 test	 eax, eax
  00169	75 12		 jne	 SHORT $LN2@GetGetFull

; 690  : 		{
; 691  : 			op5 = -1;

  0016b	5e		 pop	 esi
  0016c	5f		 pop	 edi
  0016d	c7 02 ff ff ff
	ff		 mov	 DWORD PTR [edx], -1

; 698  : 	}
; 699  : 
; 700  : 	return 1;

  00173	b8 01 00 00 00	 mov	 eax, 1
  00178	5b		 pop	 ebx

; 701  : }

  00179	5d		 pop	 ebp
  0017a	c2 34 00	 ret	 52			; 00000034H
$LN2@GetGetFull:

; 692  : 		}
; 693  : 	}
; 694  : 
; 695  : 	if ( op5 != -1 )

  0017d	83 f9 ff	 cmp	 ecx, -1
  00180	74 08		 je	 SHORT $LN1@GetGetFull

; 696  : 	{
; 697  : 		op5 += 0xA0;

  00182	81 c1 a0 00 00
	00		 add	 ecx, 160		; 000000a0H
  00188	89 0a		 mov	 DWORD PTR [edx], ecx
$LN1@GetGetFull:

; 698  : 	}
; 699  : 
; 700  : 	return 1;

  0018a	5e		 pop	 esi
  0018b	5f		 pop	 edi
  0018c	b8 01 00 00 00	 mov	 eax, 1
  00191	5b		 pop	 ebx

; 701  : }

  00192	5d		 pop	 ebp
  00193	c2 34 00	 ret	 52			; 00000034H
$LN17@GetGetFull:

; 609  : 	{
; 610  : 		LogAdd("GetMaxOptionCount Check error: (itemnum:%d)", optionindex);

  00196	50		 push	 eax
  00197	68 00 00 00 00	 push	 OFFSET ??_C@_0CM@OCFJJDJ@GetMaxOptionCount?5Check?5error?3?5?$CI@
  0019c	ff 15 00 00 00
	00		 call	 DWORD PTR ?LogAdd@@3P6AXPADZZA ; LogAdd
  001a2	83 c4 08	 add	 esp, 8
  001a5	5f		 pop	 edi

; 611  : 		return 0;

  001a6	33 c0		 xor	 eax, eax
  001a8	5b		 pop	 ebx

; 701  : }

  001a9	5d		 pop	 ebp
  001aa	c2 34 00	 ret	 52			; 00000034H
?GetGetFullSetOption@CSetItemOption@@QAEHHAAH000000000HH@Z ENDP ; CSetItemOption::GetGetFullSetOption
_TEXT	ENDS
EXTRN	_atexit:PROC
; Function compile flags: /Ogtp
;	COMDAT ??__EgSetItemOption@@YAXXZ
text$yc	SEGMENT
??__EgSetItemOption@@YAXXZ PROC				; `dynamic initializer for 'gSetItemOption'', COMDAT

; 15   : CSetItemOption gSetItemOption;

  00000	b9 00 00 00 00	 mov	 ecx, OFFSET ?gSetItemOption@@3VCSetItemOption@@A ; gSetItemOption
  00005	e8 00 00 00 00	 call	 ??0CSetItemOption@@QAE@XZ ; CSetItemOption::CSetItemOption
  0000a	68 00 00 00 00	 push	 OFFSET ??__FgSetItemOption@@YAXXZ ; `dynamic atexit destructor for 'gSetItemOption''
  0000f	e8 00 00 00 00	 call	 _atexit
  00014	59		 pop	 ecx
  00015	c3		 ret	 0
??__EgSetItemOption@@YAXXZ ENDP				; `dynamic initializer for 'gSetItemOption''
; Function compile flags: /Ogtp
text$yc	ENDS
;	COMDAT ??__FgSetItemOption@@YAXXZ
text$yd	SEGMENT
??__FgSetItemOption@@YAXXZ PROC				; `dynamic atexit destructor for 'gSetItemOption'', COMDAT
  00000	b9 00 00 00 00	 mov	 ecx, OFFSET ?gSetItemOption@@3VCSetItemOption@@A ; gSetItemOption
  00005	e9 00 00 00 00	 jmp	 ??1CSetItemOption@@UAE@XZ ; CSetItemOption::~CSetItemOption
??__FgSetItemOption@@YAXXZ ENDP				; `dynamic atexit destructor for 'gSetItemOption''
text$yd	ENDS
PUBLIC	?gSetItemOption@@3VCSetItemOption@@A		; gSetItemOption
_BSS	SEGMENT
?gSetItemOption@@3VCSetItemOption@@A DB 030484H DUP (?)	; gSetItemOption
_BSS	ENDS
CRT$XCU	SEGMENT
_gSetItemOption$initializer$ DD FLAT:??__EgSetItemOption@@YAXXZ
CRT$XCU	ENDS
END
