; Listing generated by Microsoft (R) Optimizing Compiler Version 16.00.40219.01 

	TITLE	C:\muserver_dev\development\MU-S8EP2-Repack\GameServer\Source\SimpleModulus.cpp
	.686P
	.XMM
	include listing.inc
	.model	flat

INCLUDELIB LIBCMT
INCLUDELIB OLDNAMES

PUBLIC	?BLOCKSIZE@?$FixedBlockSize@$07@CryptoPP@@2HB	; CryptoPP::FixedBlockSize<8>::BLOCKSIZE
PUBLIC	?KEYLENGTH@?$FixedKeyLength@$07$03$0A@@CryptoPP@@2HB ; CryptoPP::FixedKeyLength<8,4,0>::KEYLENGTH
PUBLIC	?MIN_KEYLENGTH@?$FixedKeyLength@$07$03$0A@@CryptoPP@@2HB ; CryptoPP::FixedKeyLength<8,4,0>::MIN_KEYLENGTH
PUBLIC	?MAX_KEYLENGTH@?$FixedKeyLength@$07$03$0A@@CryptoPP@@2HB ; CryptoPP::FixedKeyLength<8,4,0>::MAX_KEYLENGTH
PUBLIC	?DEFAULT_KEYLENGTH@?$FixedKeyLength@$07$03$0A@@CryptoPP@@2HB ; CryptoPP::FixedKeyLength<8,4,0>::DEFAULT_KEYLENGTH
PUBLIC	?IV_REQUIREMENT@?$FixedKeyLength@$07$03$0A@@CryptoPP@@2HB ; CryptoPP::FixedKeyLength<8,4,0>::IV_REQUIREMENT
PUBLIC	?IV_LENGTH@?$FixedKeyLength@$07$03$0A@@CryptoPP@@2HB ; CryptoPP::FixedKeyLength<8,4,0>::IV_LENGTH
PUBLIC	?KEYLENGTH@?$FixedKeyLength@$0BA@$03$0A@@CryptoPP@@2HB ; CryptoPP::FixedKeyLength<16,4,0>::KEYLENGTH
PUBLIC	?MIN_KEYLENGTH@?$FixedKeyLength@$0BA@$03$0A@@CryptoPP@@2HB ; CryptoPP::FixedKeyLength<16,4,0>::MIN_KEYLENGTH
PUBLIC	?MAX_KEYLENGTH@?$FixedKeyLength@$0BA@$03$0A@@CryptoPP@@2HB ; CryptoPP::FixedKeyLength<16,4,0>::MAX_KEYLENGTH
PUBLIC	?DEFAULT_KEYLENGTH@?$FixedKeyLength@$0BA@$03$0A@@CryptoPP@@2HB ; CryptoPP::FixedKeyLength<16,4,0>::DEFAULT_KEYLENGTH
PUBLIC	?IV_REQUIREMENT@?$FixedKeyLength@$0BA@$03$0A@@CryptoPP@@2HB ; CryptoPP::FixedKeyLength<16,4,0>::IV_REQUIREMENT
PUBLIC	?IV_LENGTH@?$FixedKeyLength@$0BA@$03$0A@@CryptoPP@@2HB ; CryptoPP::FixedKeyLength<16,4,0>::IV_LENGTH
PUBLIC	?KEYLENGTH@?$FixedKeyLength@$0BI@$03$0A@@CryptoPP@@2HB ; CryptoPP::FixedKeyLength<24,4,0>::KEYLENGTH
PUBLIC	?MIN_KEYLENGTH@?$FixedKeyLength@$0BI@$03$0A@@CryptoPP@@2HB ; CryptoPP::FixedKeyLength<24,4,0>::MIN_KEYLENGTH
PUBLIC	?MAX_KEYLENGTH@?$FixedKeyLength@$0BI@$03$0A@@CryptoPP@@2HB ; CryptoPP::FixedKeyLength<24,4,0>::MAX_KEYLENGTH
PUBLIC	?DEFAULT_KEYLENGTH@?$FixedKeyLength@$0BI@$03$0A@@CryptoPP@@2HB ; CryptoPP::FixedKeyLength<24,4,0>::DEFAULT_KEYLENGTH
PUBLIC	?IV_REQUIREMENT@?$FixedKeyLength@$0BI@$03$0A@@CryptoPP@@2HB ; CryptoPP::FixedKeyLength<24,4,0>::IV_REQUIREMENT
PUBLIC	?IV_LENGTH@?$FixedKeyLength@$0BI@$03$0A@@CryptoPP@@2HB ; CryptoPP::FixedKeyLength<24,4,0>::IV_LENGTH
;	COMDAT ?IV_LENGTH@?$FixedKeyLength@$0BI@$03$0A@@CryptoPP@@2HB
CONST	SEGMENT
?IV_LENGTH@?$FixedKeyLength@$0BI@$03$0A@@CryptoPP@@2HB DD 00H ; CryptoPP::FixedKeyLength<24,4,0>::IV_LENGTH
CONST	ENDS
;	COMDAT ?IV_REQUIREMENT@?$FixedKeyLength@$0BI@$03$0A@@CryptoPP@@2HB
CONST	SEGMENT
?IV_REQUIREMENT@?$FixedKeyLength@$0BI@$03$0A@@CryptoPP@@2HB DD 04H ; CryptoPP::FixedKeyLength<24,4,0>::IV_REQUIREMENT
CONST	ENDS
;	COMDAT ?DEFAULT_KEYLENGTH@?$FixedKeyLength@$0BI@$03$0A@@CryptoPP@@2HB
CONST	SEGMENT
?DEFAULT_KEYLENGTH@?$FixedKeyLength@$0BI@$03$0A@@CryptoPP@@2HB DD 018H ; CryptoPP::FixedKeyLength<24,4,0>::DEFAULT_KEYLENGTH
CONST	ENDS
;	COMDAT ?MAX_KEYLENGTH@?$FixedKeyLength@$0BI@$03$0A@@CryptoPP@@2HB
CONST	SEGMENT
?MAX_KEYLENGTH@?$FixedKeyLength@$0BI@$03$0A@@CryptoPP@@2HB DD 018H ; CryptoPP::FixedKeyLength<24,4,0>::MAX_KEYLENGTH
CONST	ENDS
;	COMDAT ?MIN_KEYLENGTH@?$FixedKeyLength@$0BI@$03$0A@@CryptoPP@@2HB
CONST	SEGMENT
?MIN_KEYLENGTH@?$FixedKeyLength@$0BI@$03$0A@@CryptoPP@@2HB DD 018H ; CryptoPP::FixedKeyLength<24,4,0>::MIN_KEYLENGTH
CONST	ENDS
;	COMDAT ?KEYLENGTH@?$FixedKeyLength@$0BI@$03$0A@@CryptoPP@@2HB
CONST	SEGMENT
?KEYLENGTH@?$FixedKeyLength@$0BI@$03$0A@@CryptoPP@@2HB DD 018H ; CryptoPP::FixedKeyLength<24,4,0>::KEYLENGTH
CONST	ENDS
;	COMDAT ?IV_LENGTH@?$FixedKeyLength@$0BA@$03$0A@@CryptoPP@@2HB
CONST	SEGMENT
?IV_LENGTH@?$FixedKeyLength@$0BA@$03$0A@@CryptoPP@@2HB DD 00H ; CryptoPP::FixedKeyLength<16,4,0>::IV_LENGTH
CONST	ENDS
;	COMDAT ?IV_REQUIREMENT@?$FixedKeyLength@$0BA@$03$0A@@CryptoPP@@2HB
CONST	SEGMENT
?IV_REQUIREMENT@?$FixedKeyLength@$0BA@$03$0A@@CryptoPP@@2HB DD 04H ; CryptoPP::FixedKeyLength<16,4,0>::IV_REQUIREMENT
CONST	ENDS
;	COMDAT ?DEFAULT_KEYLENGTH@?$FixedKeyLength@$0BA@$03$0A@@CryptoPP@@2HB
CONST	SEGMENT
?DEFAULT_KEYLENGTH@?$FixedKeyLength@$0BA@$03$0A@@CryptoPP@@2HB DD 010H ; CryptoPP::FixedKeyLength<16,4,0>::DEFAULT_KEYLENGTH
CONST	ENDS
;	COMDAT ?MAX_KEYLENGTH@?$FixedKeyLength@$0BA@$03$0A@@CryptoPP@@2HB
CONST	SEGMENT
?MAX_KEYLENGTH@?$FixedKeyLength@$0BA@$03$0A@@CryptoPP@@2HB DD 010H ; CryptoPP::FixedKeyLength<16,4,0>::MAX_KEYLENGTH
CONST	ENDS
;	COMDAT ?MIN_KEYLENGTH@?$FixedKeyLength@$0BA@$03$0A@@CryptoPP@@2HB
CONST	SEGMENT
?MIN_KEYLENGTH@?$FixedKeyLength@$0BA@$03$0A@@CryptoPP@@2HB DD 010H ; CryptoPP::FixedKeyLength<16,4,0>::MIN_KEYLENGTH
CONST	ENDS
;	COMDAT ?KEYLENGTH@?$FixedKeyLength@$0BA@$03$0A@@CryptoPP@@2HB
CONST	SEGMENT
?KEYLENGTH@?$FixedKeyLength@$0BA@$03$0A@@CryptoPP@@2HB DD 010H ; CryptoPP::FixedKeyLength<16,4,0>::KEYLENGTH
CONST	ENDS
;	COMDAT ?IV_LENGTH@?$FixedKeyLength@$07$03$0A@@CryptoPP@@2HB
CONST	SEGMENT
?IV_LENGTH@?$FixedKeyLength@$07$03$0A@@CryptoPP@@2HB DD 00H ; CryptoPP::FixedKeyLength<8,4,0>::IV_LENGTH
CONST	ENDS
;	COMDAT ?IV_REQUIREMENT@?$FixedKeyLength@$07$03$0A@@CryptoPP@@2HB
CONST	SEGMENT
?IV_REQUIREMENT@?$FixedKeyLength@$07$03$0A@@CryptoPP@@2HB DD 04H ; CryptoPP::FixedKeyLength<8,4,0>::IV_REQUIREMENT
CONST	ENDS
;	COMDAT ?DEFAULT_KEYLENGTH@?$FixedKeyLength@$07$03$0A@@CryptoPP@@2HB
CONST	SEGMENT
?DEFAULT_KEYLENGTH@?$FixedKeyLength@$07$03$0A@@CryptoPP@@2HB DD 08H ; CryptoPP::FixedKeyLength<8,4,0>::DEFAULT_KEYLENGTH
CONST	ENDS
;	COMDAT ?MAX_KEYLENGTH@?$FixedKeyLength@$07$03$0A@@CryptoPP@@2HB
CONST	SEGMENT
?MAX_KEYLENGTH@?$FixedKeyLength@$07$03$0A@@CryptoPP@@2HB DD 08H ; CryptoPP::FixedKeyLength<8,4,0>::MAX_KEYLENGTH
CONST	ENDS
;	COMDAT ?MIN_KEYLENGTH@?$FixedKeyLength@$07$03$0A@@CryptoPP@@2HB
CONST	SEGMENT
?MIN_KEYLENGTH@?$FixedKeyLength@$07$03$0A@@CryptoPP@@2HB DD 08H ; CryptoPP::FixedKeyLength<8,4,0>::MIN_KEYLENGTH
CONST	ENDS
;	COMDAT ?KEYLENGTH@?$FixedKeyLength@$07$03$0A@@CryptoPP@@2HB
CONST	SEGMENT
?KEYLENGTH@?$FixedKeyLength@$07$03$0A@@CryptoPP@@2HB DD 08H ; CryptoPP::FixedKeyLength<8,4,0>::KEYLENGTH
CONST	ENDS
;	COMDAT ?BLOCKSIZE@?$FixedBlockSize@$07@CryptoPP@@2HB
CONST	SEGMENT
?BLOCKSIZE@?$FixedBlockSize@$07@CryptoPP@@2HB DD 08H	; CryptoPP::FixedBlockSize<8>::BLOCKSIZE
CONST	ENDS
PUBLIC	??1Clonable@CryptoPP@@UAE@XZ			; CryptoPP::Clonable::~Clonable
; Function compile flags: /Ogtp
; File c:\muserver_dev\development\mu-s8ep2-repack\gameserver\crypto\cryptlib.h
;	COMDAT ??1Clonable@CryptoPP@@UAE@XZ
_TEXT	SEGMENT
??1Clonable@CryptoPP@@UAE@XZ PROC			; CryptoPP::Clonable::~Clonable, COMDAT
; _this$ = ecx

; 329  : 	virtual ~Clonable() {}

  00000	c3		 ret	 0
??1Clonable@CryptoPP@@UAE@XZ ENDP			; CryptoPP::Clonable::~Clonable
_TEXT	ENDS
PUBLIC	??1SimpleKeyingInterface@CryptoPP@@UAE@XZ	; CryptoPP::SimpleKeyingInterface::~SimpleKeyingInterface
; Function compile flags: /Ogtp
;	COMDAT ??1SimpleKeyingInterface@CryptoPP@@UAE@XZ
_TEXT	SEGMENT
??1SimpleKeyingInterface@CryptoPP@@UAE@XZ PROC		; CryptoPP::SimpleKeyingInterface::~SimpleKeyingInterface, COMDAT
; _this$ = ecx

; 350  : 	virtual ~SimpleKeyingInterface() {}

  00000	c3		 ret	 0
??1SimpleKeyingInterface@CryptoPP@@UAE@XZ ENDP		; CryptoPP::SimpleKeyingInterface::~SimpleKeyingInterface
_TEXT	ENDS
PUBLIC	??1Algorithm@CryptoPP@@UAE@XZ			; CryptoPP::Algorithm::~Algorithm
; Function compile flags: /Ogtp
;	COMDAT ??1Algorithm@CryptoPP@@UAE@XZ
_TEXT	SEGMENT
??1Algorithm@CryptoPP@@UAE@XZ PROC			; CryptoPP::Algorithm::~Algorithm, COMDAT
; _this$ = ecx
  00000	c3		 ret	 0
??1Algorithm@CryptoPP@@UAE@XZ ENDP			; CryptoPP::Algorithm::~Algorithm
_TEXT	ENDS
PUBLIC	??$SecureWipeBuffer@E@CryptoPP@@YAXPAEI@Z	; CryptoPP::SecureWipeBuffer<unsigned char>
; Function compile flags: /Ogtp
; File c:\muserver_dev\development\mu-s8ep2-repack\gameserver\crypto\misc.h
;	COMDAT ??$SecureWipeBuffer@E@CryptoPP@@YAXPAEI@Z
_TEXT	SEGMENT
_buf$ = 8						; size = 4
_n$ = 12						; size = 4
??$SecureWipeBuffer@E@CryptoPP@@YAXPAEI@Z PROC		; CryptoPP::SecureWipeBuffer<unsigned char>, COMDAT

; 489  : {

  00000	55		 push	 ebp
  00001	8b ec		 mov	 ebp, esp

; 490  : 	volatile byte *p = buf;
; 491  : #ifdef __GNUC__
; 492  : 	asm volatile("rep stosb" : "+c"(n), "+D"(p) : "a"(0) : "memory");
; 493  : #else
; 494  : 	__stosb((byte *)(size_t)p, 0, n);

  00003	8b 4d 0c	 mov	 ecx, DWORD PTR _n$[ebp]
  00006	57		 push	 edi
  00007	8b 7d 08	 mov	 edi, DWORD PTR _buf$[ebp]
  0000a	32 c0		 xor	 al, al
  0000c	f3 aa		 rep stosb
  0000e	5f		 pop	 edi

; 495  : #endif
; 496  : }

  0000f	5d		 pop	 ebp
  00010	c3		 ret	 0
??$SecureWipeBuffer@E@CryptoPP@@YAXPAEI@Z ENDP		; CryptoPP::SecureWipeBuffer<unsigned char>
_TEXT	ENDS
PUBLIC	??$SecureWipeBuffer@G@CryptoPP@@YAXPAGI@Z	; CryptoPP::SecureWipeBuffer<unsigned short>
; Function compile flags: /Ogtp
;	COMDAT ??$SecureWipeBuffer@G@CryptoPP@@YAXPAGI@Z
_TEXT	SEGMENT
_buf$ = 8						; size = 4
_n$ = 12						; size = 4
??$SecureWipeBuffer@G@CryptoPP@@YAXPAGI@Z PROC		; CryptoPP::SecureWipeBuffer<unsigned short>, COMDAT

; 499  : {

  00000	55		 push	 ebp
  00001	8b ec		 mov	 ebp, esp

; 500  : 	volatile word16 *p = buf;
; 501  : #ifdef __GNUC__
; 502  : 	asm volatile("rep stosw" : "+c"(n), "+D"(p) : "a"(0) : "memory");
; 503  : #else
; 504  : 	__stosw((word16 *)(size_t)p, 0, n);

  00003	8b 4d 0c	 mov	 ecx, DWORD PTR _n$[ebp]
  00006	57		 push	 edi
  00007	8b 7d 08	 mov	 edi, DWORD PTR _buf$[ebp]
  0000a	33 c0		 xor	 eax, eax
  0000c	66 f3 ab	 rep stosw
  0000f	5f		 pop	 edi

; 505  : #endif
; 506  : }

  00010	5d		 pop	 ebp
  00011	c3		 ret	 0
??$SecureWipeBuffer@G@CryptoPP@@YAXPAGI@Z ENDP		; CryptoPP::SecureWipeBuffer<unsigned short>
_TEXT	ENDS
PUBLIC	??$SecureWipeBuffer@I@CryptoPP@@YAXPAII@Z	; CryptoPP::SecureWipeBuffer<unsigned int>
; Function compile flags: /Ogtp
;	COMDAT ??$SecureWipeBuffer@I@CryptoPP@@YAXPAII@Z
_TEXT	SEGMENT
_buf$ = 8						; size = 4
_n$ = 12						; size = 4
??$SecureWipeBuffer@I@CryptoPP@@YAXPAII@Z PROC		; CryptoPP::SecureWipeBuffer<unsigned int>, COMDAT

; 509  : {

  00000	55		 push	 ebp
  00001	8b ec		 mov	 ebp, esp

; 510  : 	volatile word32 *p = buf;
; 511  : #ifdef __GNUC__
; 512  : 	asm volatile("rep stosl" : "+c"(n), "+D"(p) : "a"(0) : "memory");
; 513  : #else
; 514  : 	__stosd((unsigned long *)(size_t)p, 0, n);

  00003	8b 4d 0c	 mov	 ecx, DWORD PTR _n$[ebp]
  00006	57		 push	 edi
  00007	8b 7d 08	 mov	 edi, DWORD PTR _buf$[ebp]
  0000a	33 c0		 xor	 eax, eax
  0000c	f3 ab		 rep stosd
  0000e	5f		 pop	 edi

; 515  : #endif
; 516  : }

  0000f	5d		 pop	 ebp
  00010	c3		 ret	 0
??$SecureWipeBuffer@I@CryptoPP@@YAXPAII@Z ENDP		; CryptoPP::SecureWipeBuffer<unsigned int>
_TEXT	ENDS
PUBLIC	??$SecureWipeBuffer@_K@CryptoPP@@YAXPA_KI@Z	; CryptoPP::SecureWipeBuffer<unsigned __int64>
; Function compile flags: /Ogtp
;	COMDAT ??$SecureWipeBuffer@_K@CryptoPP@@YAXPA_KI@Z
_TEXT	SEGMENT
_buf$ = 8						; size = 4
_n$ = 12						; size = 4
??$SecureWipeBuffer@_K@CryptoPP@@YAXPA_KI@Z PROC	; CryptoPP::SecureWipeBuffer<unsigned __int64>, COMDAT

; 519  : {

  00000	55		 push	 ebp
  00001	8b ec		 mov	 ebp, esp

; 520  : #if CRYPTOPP_BOOL_X64
; 521  : 	volatile word64 *p = buf;
; 522  : #ifdef __GNUC__
; 523  : 	asm volatile("rep stosq" : "+c"(n), "+D"(p) : "a"(0) : "memory");
; 524  : #else
; 525  : 	__stosq((word64 *)(size_t)p, 0, n);
; 526  : #endif
; 527  : #else
; 528  : 	SecureWipeBuffer((word32 *)buf, 2*n);

  00003	8b 4d 0c	 mov	 ecx, DWORD PTR _n$[ebp]
  00006	57		 push	 edi
  00007	8b 7d 08	 mov	 edi, DWORD PTR _buf$[ebp]
  0000a	03 c9		 add	 ecx, ecx
  0000c	33 c0		 xor	 eax, eax
  0000e	f3 ab		 rep stosd
  00010	5f		 pop	 edi

; 529  : #endif
; 530  : }

  00011	5d		 pop	 ebp
  00012	c3		 ret	 0
??$SecureWipeBuffer@_K@CryptoPP@@YAXPA_KI@Z ENDP	; CryptoPP::SecureWipeBuffer<unsigned __int64>
_TEXT	ENDS
PUBLIC	??0SimpleKeyingInterface@CryptoPP@@QAE@XZ	; CryptoPP::SimpleKeyingInterface::SimpleKeyingInterface
; Function compile flags: /Ogtp
;	COMDAT ??0SimpleKeyingInterface@CryptoPP@@QAE@XZ
_TEXT	SEGMENT
??0SimpleKeyingInterface@CryptoPP@@QAE@XZ PROC		; CryptoPP::SimpleKeyingInterface::SimpleKeyingInterface, COMDAT
; _this$ = ecx
  00000	8b c1		 mov	 eax, ecx
  00002	c3		 ret	 0
??0SimpleKeyingInterface@CryptoPP@@QAE@XZ ENDP		; CryptoPP::SimpleKeyingInterface::SimpleKeyingInterface
_TEXT	ENDS
PUBLIC	??0StreamTransformation@CryptoPP@@QAE@XZ	; CryptoPP::StreamTransformation::StreamTransformation
EXTRN	??0Algorithm@CryptoPP@@QAE@_N@Z:PROC		; CryptoPP::Algorithm::Algorithm
; Function compile flags: /Ogtp
;	COMDAT ??0StreamTransformation@CryptoPP@@QAE@XZ
_TEXT	SEGMENT
??0StreamTransformation@CryptoPP@@QAE@XZ PROC		; CryptoPP::StreamTransformation::StreamTransformation, COMDAT
; _this$ = ecx
  00000	56		 push	 esi
  00001	6a 01		 push	 1
  00003	8b f1		 mov	 esi, ecx
  00005	e8 00 00 00 00	 call	 ??0Algorithm@CryptoPP@@QAE@_N@Z ; CryptoPP::Algorithm::Algorithm
  0000a	8b c6		 mov	 eax, esi
  0000c	5e		 pop	 esi
  0000d	c3		 ret	 0
??0StreamTransformation@CryptoPP@@QAE@XZ ENDP		; CryptoPP::StreamTransformation::StreamTransformation
_TEXT	ENDS
PUBLIC	??1StreamTransformation@CryptoPP@@UAE@XZ	; CryptoPP::StreamTransformation::~StreamTransformation
; Function compile flags: /Ogtp
;	COMDAT ??1StreamTransformation@CryptoPP@@UAE@XZ
_TEXT	SEGMENT
??1StreamTransformation@CryptoPP@@UAE@XZ PROC		; CryptoPP::StreamTransformation::~StreamTransformation, COMDAT
; _this$ = ecx
  00000	c3		 ret	 0
??1StreamTransformation@CryptoPP@@UAE@XZ ENDP		; CryptoPP::StreamTransformation::~StreamTransformation
_TEXT	ENDS
PUBLIC	??1BlockTransformation@CryptoPP@@UAE@XZ		; CryptoPP::BlockTransformation::~BlockTransformation
; Function compile flags: /Ogtp
;	COMDAT ??1BlockTransformation@CryptoPP@@UAE@XZ
_TEXT	SEGMENT
??1BlockTransformation@CryptoPP@@UAE@XZ PROC		; CryptoPP::BlockTransformation::~BlockTransformation, COMDAT
; _this$ = ecx
  00000	c3		 ret	 0
??1BlockTransformation@CryptoPP@@UAE@XZ ENDP		; CryptoPP::BlockTransformation::~BlockTransformation
_TEXT	ENDS
PUBLIC	__$ArrayPad$
PUBLIC	?Init@CSimpleModulus@@QAEXXZ			; CSimpleModulus::Init
EXTRN	?g_nullNameValuePairs@CryptoPP@@3ABVNameValuePairs@1@B:DWORD ; CryptoPP::g_nullNameValuePairs
EXTRN	___security_cookie:DWORD
EXTRN	@__security_check_cookie@4:PROC
; Function compile flags: /Ogtp
; File c:\muserver_dev\development\mu-s8ep2-repack\gameserver\source\simplemodulus.cpp
;	COMDAT ?Init@CSimpleModulus@@QAEXXZ
_TEXT	SEGMENT
_DES_XEX3$ = -28					; size = 24
__$ArrayPad$ = -4					; size = 4
?Init@CSimpleModulus@@QAEXXZ PROC			; CSimpleModulus::Init, COMDAT
; _this$ = ecx

; 10   : {

  00000	55		 push	 ebp
  00001	8b ec		 mov	 ebp, esp
  00003	83 ec 1c	 sub	 esp, 28			; 0000001cH
  00006	a1 00 00 00 00	 mov	 eax, DWORD PTR ___security_cookie
  0000b	33 c5		 xor	 eax, ebp
  0000d	89 45 fc	 mov	 DWORD PTR __$ArrayPad$[ebp], eax

; 11   : 	BYTE DES_XEX3[] = {
; 12   : 		0x0C,0xB0,0x66,0xCC,0xEF,0x92,0x8C,0x5C,
; 13   : 		0x65,0xF4,0xAC,0x3F,0x71,0xF2,0x7B,0xCE,
; 14   : 		0x00,0x00,0x00,0x00,0x00,0x00,0x00,0x00
; 15   : 	};
; 16   : 	this->m_Enc.SetKey(DES_XEX3,sizeof(DES_XEX3));

  00010	8b 15 00 00 00
	00		 mov	 edx, DWORD PTR ?g_nullNameValuePairs@CryptoPP@@3ABVNameValuePairs@1@B ; CryptoPP::g_nullNameValuePairs
  00016	56		 push	 esi
  00017	8b f1		 mov	 esi, ecx
  00019	8b 46 08	 mov	 eax, DWORD PTR [esi+8]
  0001c	8b 40 18	 mov	 eax, DWORD PTR [eax+24]
  0001f	52		 push	 edx
  00020	8d 4e 08	 lea	 ecx, DWORD PTR [esi+8]
  00023	6a 18		 push	 24			; 00000018H
  00025	8d 55 e4	 lea	 edx, DWORD PTR _DES_XEX3$[ebp]
  00028	52		 push	 edx
  00029	c7 45 e4 0c b0
	66 cc		 mov	 DWORD PTR _DES_XEX3$[ebp], -865685492 ; cc66b00cH
  00030	c7 45 e8 ef 92
	8c 5c		 mov	 DWORD PTR _DES_XEX3$[ebp+4], 1552716527 ; 5c8c92efH
  00037	c7 45 ec 65 f4
	ac 3f		 mov	 DWORD PTR _DES_XEX3$[ebp+8], 1068299365 ; 3facf465H
  0003e	c7 45 f0 71 f2
	7b ce		 mov	 DWORD PTR _DES_XEX3$[ebp+12], -830737807 ; ce7bf271H
  00045	c7 45 f4 00 00
	00 00		 mov	 DWORD PTR _DES_XEX3$[ebp+16], 0
  0004c	c7 45 f8 00 00
	00 00		 mov	 DWORD PTR _DES_XEX3$[ebp+20], 0
  00053	ff d0		 call	 eax

; 17   : 	this->m_Dec.SetKey(DES_XEX3,sizeof(DES_XEX3));

  00055	a1 00 00 00 00	 mov	 eax, DWORD PTR ?g_nullNameValuePairs@CryptoPP@@3ABVNameValuePairs@1@B ; CryptoPP::g_nullNameValuePairs
  0005a	8b 56 78	 mov	 edx, DWORD PTR [esi+120]
  0005d	8b 52 18	 mov	 edx, DWORD PTR [edx+24]
  00060	50		 push	 eax
  00061	8d 4e 78	 lea	 ecx, DWORD PTR [esi+120]
  00064	6a 18		 push	 24			; 00000018H
  00066	8d 45 e4	 lea	 eax, DWORD PTR _DES_XEX3$[ebp]
  00069	50		 push	 eax
  0006a	ff d2		 call	 edx

; 18   : }

  0006c	8b 4d fc	 mov	 ecx, DWORD PTR __$ArrayPad$[ebp]
  0006f	33 cd		 xor	 ecx, ebp
  00071	5e		 pop	 esi
  00072	e8 00 00 00 00	 call	 @__security_check_cookie@4
  00077	8b e5		 mov	 esp, ebp
  00079	5d		 pop	 ebp
  0007a	c3		 ret	 0
?Init@CSimpleModulus@@QAEXXZ ENDP			; CSimpleModulus::Init
_TEXT	ENDS
PUBLIC	?Decrypt@CSimpleModulus@@QAEHPAX0H@Z		; CSimpleModulus::Decrypt
; Function compile flags: /Ogtp
;	COMDAT ?Decrypt@CSimpleModulus@@QAEHPAX0H@Z
_TEXT	SEGMENT
_lpDest$ = 8						; size = 4
_lpSource$ = 12						; size = 4
_nSize$ = 16						; size = 4
_iSize$ = 16						; size = 4
?Decrypt@CSimpleModulus@@QAEHPAX0H@Z PROC		; CSimpleModulus::Decrypt, COMDAT
; _this$ = ecx

; 27   : {

  00000	55		 push	 ebp
  00001	8b ec		 mov	 ebp, esp

; 28   : 	/*if ( lpDest == NULL)
; 29   : 	{
; 30   : 		return iSize;
; 31   : 	}
; 32   : 
; 33   : 	LPBYTE lpTempDest = (LPBYTE)lpDest;
; 34   : 	LPBYTE lpTempSrc = (LPBYTE)lpSource;
; 35   : 
; 36   : 	int iResult = 0;
; 37   : 	int iDecLen = 0;
; 38   : 
; 39   : 	BYTE btSizeDiff = lpTempSrc[iSize-1];
; 40   : 
; 41   : 	if ( iSize > 0 )
; 42   : 	{
; 43   : 		int lOfs = 0;
; 44   : 		do
; 45   : 		{
; 46   : 			this->DecryptBlock((LPDWORD)&lpTempSrc[lOfs],(LPDWORD)&lpTempDest[lOfs]);
; 47   : 			lOfs += 16;
; 48   : 		}
; 49   : 		while( lOfs < iSize );
; 50   : 	}*/
; 51   : 
; 52   : 	if( lpDest == NULL )

  00003	83 7d 08 00	 cmp	 DWORD PTR _lpDest$[ebp], 0
  00007	75 07		 jne	 SHORT $LN3@Decrypt

; 53   : 		return iSize;

  00009	8b 45 10	 mov	 eax, DWORD PTR _iSize$[ebp]

; 71   : }

  0000c	5d		 pop	 ebp
  0000d	c2 0c 00	 ret	 12			; 0000000cH
$LN3@Decrypt:
  00010	57		 push	 edi

; 54   : 
; 55   : 	if( lpSource == NULL )

  00011	8b 7d 0c	 mov	 edi, DWORD PTR _lpSource$[ebp]
  00014	85 ff		 test	 edi, edi
  00016	75 07		 jne	 SHORT $LN2@Decrypt

; 56   : 		return 0;

  00018	33 c0		 xor	 eax, eax
  0001a	5f		 pop	 edi

; 71   : }

  0001b	5d		 pop	 ebp
  0001c	c2 0c 00	 ret	 12			; 0000000cH
$LN2@Decrypt:
  0001f	53		 push	 ebx
  00020	56		 push	 esi

; 57   : 
; 58   : 	int nSize = iSize-1;

  00021	8b 75 10	 mov	 esi, DWORD PTR _iSize$[ebp]
  00024	8d 46 ff	 lea	 eax, DWORD PTR [esi-1]

; 59   : 
; 60   : 	if( (nSize%8) )

  00027	8b d0		 mov	 edx, eax
  00029	81 e2 07 00 00
	80		 and	 edx, -2147483641	; 80000007H
  0002f	89 45 10	 mov	 DWORD PTR _nSize$[ebp], eax
  00032	79 05		 jns	 SHORT $LN7@Decrypt
  00034	4a		 dec	 edx
  00035	83 ca f8	 or	 edx, -8			; fffffff8H
  00038	42		 inc	 edx
$LN7@Decrypt:
  00039	74 13		 je	 SHORT $LN1@Decrypt

; 61   : 	{
; 62   : 		nSize = (1+nSize/8)*8;

  0003b	99		 cdq
  0003c	83 e2 07	 and	 edx, 7
  0003f	03 c2		 add	 eax, edx
  00041	c1 f8 03	 sar	 eax, 3
  00044	8d 04 c5 08 00
	00 00		 lea	 eax, DWORD PTR [eax*8+8]
  0004b	89 45 10	 mov	 DWORD PTR _nSize$[ebp], eax
$LN1@Decrypt:

; 63   : 	}
; 64   : 
; 65   : 	LPBYTE lpTempDest = (LPBYTE)lpDest;
; 66   : 	LPBYTE lpTempSrc = (LPBYTE)lpSource;
; 67   : 
; 68   : 	BYTE btSizeDiff = lpTempSrc[iSize-1];
; 69   : 	this->m_Dec.ProcessData(lpTempDest,lpTempSrc,nSize);

  0004e	ff 75 10	 push	 DWORD PTR _nSize$[ebp]
  00051	8b 51 7c	 mov	 edx, DWORD PTR [ecx+124]
  00054	8b 45 08	 mov	 eax, DWORD PTR _lpDest$[ebp]
  00057	8b 52 1c	 mov	 edx, DWORD PTR [edx+28]
  0005a	8a 5c 37 ff	 mov	 bl, BYTE PTR [edi+esi-1]
  0005e	83 c1 7c	 add	 ecx, 124		; 0000007cH
  00061	57		 push	 edi
  00062	50		 push	 eax
  00063	ff d2		 call	 edx

; 70   : 	return (iSize-btSizeDiff);

  00065	8b c6		 mov	 eax, esi
  00067	0f b6 cb	 movzx	 ecx, bl
  0006a	5e		 pop	 esi
  0006b	5b		 pop	 ebx
  0006c	2b c1		 sub	 eax, ecx
  0006e	5f		 pop	 edi

; 71   : }

  0006f	5d		 pop	 ebp
  00070	c2 0c 00	 ret	 12			; 0000000cH
?Decrypt@CSimpleModulus@@QAEHPAX0H@Z ENDP		; CSimpleModulus::Decrypt
_TEXT	ENDS
PUBLIC	?Encrypt@CSimpleModulus@@QAEHPAX0H@Z		; CSimpleModulus::Encrypt
; Function compile flags: /Ogtp
;	COMDAT ?Encrypt@CSimpleModulus@@QAEHPAX0H@Z
_TEXT	SEGMENT
_lpDest$ = 8						; size = 4
_lpSource$ = 12						; size = 4
_iSize$ = 16						; size = 4
?Encrypt@CSimpleModulus@@QAEHPAX0H@Z PROC		; CSimpleModulus::Encrypt, COMDAT
; _this$ = ecx

; 74   : {

  00000	55		 push	 ebp
  00001	8b ec		 mov	 ebp, esp

; 75   : 	/*if ( lpDest == NULL)
; 76   : 	{
; 77   : 		return iSize;
; 78   : 	}
; 79   : 
; 80   : 	LPBYTE lpTempDest = (LPBYTE)lpDest;
; 81   : 	LPBYTE lpTempSrc = (LPBYTE)lpSource;
; 82   : 
; 83   : 	int iResult = 0;
; 84   : 	int iDecLen = 0;
; 85   : 	int lOfs = 0;
; 86   : 
; 87   : 
; 88   : 	if ( iSize > 0 )
; 89   : 	{
; 90   : 		do
; 91   : 		{
; 92   : 			this->EncryptBlock((LPDWORD)&lpTempSrc[lOfs],(LPDWORD)&lpTempDest[lOfs]);
; 93   : 			lOfs += 16;
; 94   : 		}
; 95   : 		while( lOfs < iSize );
; 96   : 		lpTempDest[lOfs] = lOfs-iSize;
; 97   : 		lOfs++;
; 98   : 	}*/
; 99   : 
; 100  : 	LPBYTE lpTempDest = (LPBYTE)lpDest;
; 101  : 	LPBYTE lpTempSrc = (LPBYTE)lpSource;
; 102  : 
; 103  : 	int nSize = iSize;

  00003	8b 45 10	 mov	 eax, DWORD PTR _iSize$[ebp]
  00006	53		 push	 ebx

; 104  : 
; 105  : 	if( (iSize%8) )

  00007	8b d0		 mov	 edx, eax
  00009	81 e2 07 00 00
	80		 and	 edx, -2147483641	; 80000007H
  0000f	56		 push	 esi
  00010	8b d8		 mov	 ebx, eax
  00012	79 05		 jns	 SHORT $LN4@Encrypt
  00014	4a		 dec	 edx
  00015	83 ca f8	 or	 edx, -8			; fffffff8H
  00018	42		 inc	 edx
$LN4@Encrypt:
  00019	74 10		 je	 SHORT $LN1@Encrypt

; 106  : 	{
; 107  : 		nSize = (1+(iSize/8))*8;

  0001b	99		 cdq
  0001c	83 e2 07	 and	 edx, 7
  0001f	03 c2		 add	 eax, edx
  00021	c1 f8 03	 sar	 eax, 3
  00024	8d 1c c5 08 00
	00 00		 lea	 ebx, DWORD PTR [eax*8+8]
$LN1@Encrypt:

; 108  : 	}
; 109  : 
; 110  : 	m_Enc.ProcessData(lpTempDest,lpTempSrc,nSize);

  0002b	8b 55 0c	 mov	 edx, DWORD PTR _lpSource$[ebp]
  0002e	8b 41 0c	 mov	 eax, DWORD PTR [ecx+12]
  00031	8b 75 08	 mov	 esi, DWORD PTR _lpDest$[ebp]
  00034	8b 40 1c	 mov	 eax, DWORD PTR [eax+28]
  00037	53		 push	 ebx
  00038	83 c1 0c	 add	 ecx, 12			; 0000000cH
  0003b	52		 push	 edx
  0003c	56		 push	 esi
  0003d	ff d0		 call	 eax

; 111  : 	lpTempDest[nSize] = nSize-iSize;

  0003f	8a cb		 mov	 cl, bl
  00041	2a 4d 10	 sub	 cl, BYTE PTR _iSize$[ebp]

; 112  : 	nSize++;

  00044	8d 43 01	 lea	 eax, DWORD PTR [ebx+1]
  00047	88 0c 33	 mov	 BYTE PTR [ebx+esi], cl
  0004a	5e		 pop	 esi
  0004b	5b		 pop	 ebx

; 113  : return nSize;
; 114  : }

  0004c	5d		 pop	 ebp
  0004d	c2 0c 00	 ret	 12			; 0000000cH
?Encrypt@CSimpleModulus@@QAEHPAX0H@Z ENDP		; CSimpleModulus::Encrypt
_TEXT	ENDS
PUBLIC	?size@?$SecBlock@EV?$AllocatorWithCleanup@E$00@CryptoPP@@@CryptoPP@@QBEIXZ ; CryptoPP::SecBlock<unsigned char,CryptoPP::AllocatorWithCleanup<unsigned char,1> >::size
; Function compile flags: /Ogtp
; File c:\muserver_dev\development\mu-s8ep2-repack\gameserver\crypto\secblock.h
;	COMDAT ?size@?$SecBlock@EV?$AllocatorWithCleanup@E$00@CryptoPP@@@CryptoPP@@QBEIXZ
_TEXT	SEGMENT
?size@?$SecBlock@EV?$AllocatorWithCleanup@E$00@CryptoPP@@@CryptoPP@@QBEIXZ PROC ; CryptoPP::SecBlock<unsigned char,CryptoPP::AllocatorWithCleanup<unsigned char,1> >::size, COMDAT
; _this$ = ecx

; 302  : 	size_type size() const {return m_size;}

  00000	8b 41 04	 mov	 eax, DWORD PTR [ecx+4]
  00003	c3		 ret	 0
?size@?$SecBlock@EV?$AllocatorWithCleanup@E$00@CryptoPP@@@CryptoPP@@QBEIXZ ENDP ; CryptoPP::SecBlock<unsigned char,CryptoPP::AllocatorWithCleanup<unsigned char,1> >::size
_TEXT	ENDS
PUBLIC	??0?$AllocatorWithCleanup@E$0A@@CryptoPP@@QAE@XZ ; CryptoPP::AllocatorWithCleanup<unsigned char,0>::AllocatorWithCleanup<unsigned char,0>
; Function compile flags: /Ogtp
;	COMDAT ??0?$AllocatorWithCleanup@E$0A@@CryptoPP@@QAE@XZ
_TEXT	SEGMENT
??0?$AllocatorWithCleanup@E$0A@@CryptoPP@@QAE@XZ PROC	; CryptoPP::AllocatorWithCleanup<unsigned char,0>::AllocatorWithCleanup<unsigned char,0>, COMDAT
; _this$ = ecx

; 124  : 	AllocatorWithCleanup() {}

  00000	8b c1		 mov	 eax, ecx
  00002	c3		 ret	 0
??0?$AllocatorWithCleanup@E$0A@@CryptoPP@@QAE@XZ ENDP	; CryptoPP::AllocatorWithCleanup<unsigned char,0>::AllocatorWithCleanup<unsigned char,0>
_TEXT	ENDS
PUBLIC	??0?$AllocatorWithCleanup@E$00@CryptoPP@@QAE@XZ	; CryptoPP::AllocatorWithCleanup<unsigned char,1>::AllocatorWithCleanup<unsigned char,1>
; Function compile flags: /Ogtp
;	COMDAT ??0?$AllocatorWithCleanup@E$00@CryptoPP@@QAE@XZ
_TEXT	SEGMENT
??0?$AllocatorWithCleanup@E$00@CryptoPP@@QAE@XZ PROC	; CryptoPP::AllocatorWithCleanup<unsigned char,1>::AllocatorWithCleanup<unsigned char,1>, COMDAT
; _this$ = ecx

; 124  : 	AllocatorWithCleanup() {}

  00000	8b c1		 mov	 eax, ecx
  00002	c3		 ret	 0
??0?$AllocatorWithCleanup@E$00@CryptoPP@@QAE@XZ ENDP	; CryptoPP::AllocatorWithCleanup<unsigned char,1>::AllocatorWithCleanup<unsigned char,1>
_TEXT	ENDS
PUBLIC	??0BlockTransformation@CryptoPP@@QAE@XZ		; CryptoPP::BlockTransformation::BlockTransformation
; Function compile flags: /Ogtp
;	COMDAT ??0BlockTransformation@CryptoPP@@QAE@XZ
_TEXT	SEGMENT
??0BlockTransformation@CryptoPP@@QAE@XZ PROC		; CryptoPP::BlockTransformation::BlockTransformation, COMDAT
; _this$ = ecx
  00000	56		 push	 esi
  00001	6a 01		 push	 1
  00003	8b f1		 mov	 esi, ecx
  00005	e8 00 00 00 00	 call	 ??0Algorithm@CryptoPP@@QAE@_N@Z ; CryptoPP::Algorithm::Algorithm
  0000a	8b c6		 mov	 eax, esi
  0000c	5e		 pop	 esi
  0000d	c3		 ret	 0
??0BlockTransformation@CryptoPP@@QAE@XZ ENDP		; CryptoPP::BlockTransformation::BlockTransformation
_TEXT	ENDS
PUBLIC	??0?$FixedSizeAllocatorWithCleanup@E$07V?$NullAllocator@E@CryptoPP@@$0A@@CryptoPP@@QAE@XZ ; CryptoPP::FixedSizeAllocatorWithCleanup<unsigned char,8,CryptoPP::NullAllocator<unsigned char>,0>::FixedSizeAllocatorWithCleanup<unsigned char,8,CryptoPP::NullAllocator<unsigned char>,0>
; Function compile flags: /Ogtp
;	COMDAT ??0?$FixedSizeAllocatorWithCleanup@E$07V?$NullAllocator@E@CryptoPP@@$0A@@CryptoPP@@QAE@XZ
_TEXT	SEGMENT
??0?$FixedSizeAllocatorWithCleanup@E$07V?$NullAllocator@E@CryptoPP@@$0A@@CryptoPP@@QAE@XZ PROC ; CryptoPP::FixedSizeAllocatorWithCleanup<unsigned char,8,CryptoPP::NullAllocator<unsigned char>,0>::FixedSizeAllocatorWithCleanup<unsigned char,8,CryptoPP::NullAllocator<unsigned char>,0>, COMDAT
; _this$ = ecx

; 166  : 	FixedSizeAllocatorWithCleanup() : m_allocated(false) {}

  00000	8b c1		 mov	 eax, ecx
  00002	c6 40 09 00	 mov	 BYTE PTR [eax+9], 0
  00006	c3		 ret	 0
??0?$FixedSizeAllocatorWithCleanup@E$07V?$NullAllocator@E@CryptoPP@@$0A@@CryptoPP@@QAE@XZ ENDP ; CryptoPP::FixedSizeAllocatorWithCleanup<unsigned char,8,CryptoPP::NullAllocator<unsigned char>,0>::FixedSizeAllocatorWithCleanup<unsigned char,8,CryptoPP::NullAllocator<unsigned char>,0>
_TEXT	ENDS
PUBLIC	?GetAlignedArray@?$FixedSizeAllocatorWithCleanup@E$07V?$NullAllocator@E@CryptoPP@@$0A@@CryptoPP@@AAEPAEXZ ; CryptoPP::FixedSizeAllocatorWithCleanup<unsigned char,8,CryptoPP::NullAllocator<unsigned char>,0>::GetAlignedArray
; Function compile flags: /Ogtp
;	COMDAT ?GetAlignedArray@?$FixedSizeAllocatorWithCleanup@E$07V?$NullAllocator@E@CryptoPP@@$0A@@CryptoPP@@AAEPAEXZ
_TEXT	SEGMENT
?GetAlignedArray@?$FixedSizeAllocatorWithCleanup@E$07V?$NullAllocator@E@CryptoPP@@$0A@@CryptoPP@@AAEPAEXZ PROC ; CryptoPP::FixedSizeAllocatorWithCleanup<unsigned char,8,CryptoPP::NullAllocator<unsigned char>,0>::GetAlignedArray, COMDAT
; _this$ = ecx

; 229  : 	T* GetAlignedArray() {return (CRYPTOPP_BOOL_ALIGN16_ENABLED && T_Align16) ? (T*)(((byte *)m_array) + (0-(size_t)m_array)%16) : m_array;}

  00000	8b c1		 mov	 eax, ecx
  00002	c3		 ret	 0
?GetAlignedArray@?$FixedSizeAllocatorWithCleanup@E$07V?$NullAllocator@E@CryptoPP@@$0A@@CryptoPP@@AAEPAEXZ ENDP ; CryptoPP::FixedSizeAllocatorWithCleanup<unsigned char,8,CryptoPP::NullAllocator<unsigned char>,0>::GetAlignedArray
_TEXT	ENDS
PUBLIC	?deallocate@?$NullAllocator@E@CryptoPP@@QAEXPAXI@Z ; CryptoPP::NullAllocator<unsigned char>::deallocate
; Function compile flags: /Ogtp
;	COMDAT ?deallocate@?$NullAllocator@E@CryptoPP@@QAEXPAXI@Z
_TEXT	SEGMENT
_p$ = 8							; size = 4
_n$ = 12						; size = 4
?deallocate@?$NullAllocator@E@CryptoPP@@QAEXPAXI@Z PROC	; CryptoPP::NullAllocator<unsigned char>::deallocate, COMDAT
; _this$ = ecx

; 151  : 		assert(false);
; 152  : 	}

  00000	c2 08 00	 ret	 8
?deallocate@?$NullAllocator@E@CryptoPP@@QAEXPAXI@Z ENDP	; CryptoPP::NullAllocator<unsigned char>::deallocate
_TEXT	ENDS
PUBLIC	??0?$member_ptr@V?$BlockCipherFinal@$0A@VBase@DES@CryptoPP@@@CryptoPP@@@CryptoPP@@QAE@PAV?$BlockCipherFinal@$0A@VBase@DES@CryptoPP@@@1@@Z ; CryptoPP::member_ptr<CryptoPP::BlockCipherFinal<0,CryptoPP::DES::Base> >::member_ptr<CryptoPP::BlockCipherFinal<0,CryptoPP::DES::Base> >
; Function compile flags: /Ogtp
; File c:\muserver_dev\development\mu-s8ep2-repack\gameserver\crypto\smartptr.h
;	COMDAT ??0?$member_ptr@V?$BlockCipherFinal@$0A@VBase@DES@CryptoPP@@@CryptoPP@@@CryptoPP@@QAE@PAV?$BlockCipherFinal@$0A@VBase@DES@CryptoPP@@@1@@Z
_TEXT	SEGMENT
_p$ = 8							; size = 4
??0?$member_ptr@V?$BlockCipherFinal@$0A@VBase@DES@CryptoPP@@@CryptoPP@@@CryptoPP@@QAE@PAV?$BlockCipherFinal@$0A@VBase@DES@CryptoPP@@@1@@Z PROC ; CryptoPP::member_ptr<CryptoPP::BlockCipherFinal<0,CryptoPP::DES::Base> >::member_ptr<CryptoPP::BlockCipherFinal<0,CryptoPP::DES::Base> >, COMDAT
; _this$ = ecx

; 20   : 	explicit member_ptr(T *p = NULL) : m_p(p) {}

  00000	55		 push	 ebp
  00001	8b ec		 mov	 ebp, esp
  00003	8b c1		 mov	 eax, ecx
  00005	8b 4d 08	 mov	 ecx, DWORD PTR _p$[ebp]
  00008	89 08		 mov	 DWORD PTR [eax], ecx
  0000a	5d		 pop	 ebp
  0000b	c2 04 00	 ret	 4
??0?$member_ptr@V?$BlockCipherFinal@$0A@VBase@DES@CryptoPP@@@CryptoPP@@@CryptoPP@@QAE@PAV?$BlockCipherFinal@$0A@VBase@DES@CryptoPP@@@1@@Z ENDP ; CryptoPP::member_ptr<CryptoPP::BlockCipherFinal<0,CryptoPP::DES::Base> >::member_ptr<CryptoPP::BlockCipherFinal<0,CryptoPP::DES::Base> >
_TEXT	ENDS
PUBLIC	?allocate@?$NullAllocator@E@CryptoPP@@QAEPAEIPBX@Z ; CryptoPP::NullAllocator<unsigned char>::allocate
; Function compile flags: /Ogtp
; File c:\muserver_dev\development\mu-s8ep2-repack\gameserver\crypto\secblock.h
;	COMDAT ?allocate@?$NullAllocator@E@CryptoPP@@QAEPAEIPBX@Z
_TEXT	SEGMENT
_n$ = 8							; size = 4
___formal$ = 12						; size = 4
?allocate@?$NullAllocator@E@CryptoPP@@QAEPAEIPBX@Z PROC	; CryptoPP::NullAllocator<unsigned char>::allocate, COMDAT
; _this$ = ecx

; 145  : 		assert(false);
; 146  : 		return NULL;

  00000	33 c0		 xor	 eax, eax

; 147  : 	}

  00002	c2 08 00	 ret	 8
?allocate@?$NullAllocator@E@CryptoPP@@QAEPAEIPBX@Z ENDP	; CryptoPP::NullAllocator<unsigned char>::allocate
_TEXT	ENDS
PUBLIC	??1?$member_ptr@V?$BlockCipherFinal@$0A@VBase@DES@CryptoPP@@@CryptoPP@@@CryptoPP@@QAE@XZ ; CryptoPP::member_ptr<CryptoPP::BlockCipherFinal<0,CryptoPP::DES::Base> >::~member_ptr<CryptoPP::BlockCipherFinal<0,CryptoPP::DES::Base> >
; Function compile flags: /Ogtp
; File c:\muserver_dev\development\mu-s8ep2-repack\gameserver\crypto\smartptr.h
;	COMDAT ??1?$member_ptr@V?$BlockCipherFinal@$0A@VBase@DES@CryptoPP@@@CryptoPP@@@CryptoPP@@QAE@XZ
_TEXT	SEGMENT
??1?$member_ptr@V?$BlockCipherFinal@$0A@VBase@DES@CryptoPP@@@CryptoPP@@@CryptoPP@@QAE@XZ PROC ; CryptoPP::member_ptr<CryptoPP::BlockCipherFinal<0,CryptoPP::DES::Base> >::~member_ptr<CryptoPP::BlockCipherFinal<0,CryptoPP::DES::Base> >, COMDAT
; _this$ = ecx

; 49   : template <class T> member_ptr<T>::~member_ptr() {delete m_p;}

  00000	8b 09		 mov	 ecx, DWORD PTR [ecx]
  00002	85 c9		 test	 ecx, ecx
  00004	74 08		 je	 SHORT $LN3@member_ptr
  00006	8b 01		 mov	 eax, DWORD PTR [ecx]
  00008	8b 10		 mov	 edx, DWORD PTR [eax]
  0000a	6a 01		 push	 1
  0000c	ff d2		 call	 edx
$LN3@member_ptr:
  0000e	c3		 ret	 0
??1?$member_ptr@V?$BlockCipherFinal@$0A@VBase@DES@CryptoPP@@@CryptoPP@@@CryptoPP@@QAE@XZ ENDP ; CryptoPP::member_ptr<CryptoPP::BlockCipherFinal<0,CryptoPP::DES::Base> >::~member_ptr<CryptoPP::BlockCipherFinal<0,CryptoPP::DES::Base> >
_TEXT	ENDS
PUBLIC	??$SecureWipeArray@E@CryptoPP@@YAXPAEI@Z	; CryptoPP::SecureWipeArray<unsigned char>
; Function compile flags: /Ogtp
; File c:\muserver_dev\development\mu-s8ep2-repack\gameserver\crypto\misc.h
;	COMDAT ??$SecureWipeArray@E@CryptoPP@@YAXPAEI@Z
_TEXT	SEGMENT
_buf$ = 8						; size = 4
_n$ = 12						; size = 4
??$SecureWipeArray@E@CryptoPP@@YAXPAEI@Z PROC		; CryptoPP::SecureWipeArray<unsigned char>, COMDAT

; 536  : {

  00000	55		 push	 ebp
  00001	8b ec		 mov	 ebp, esp

; 537  : 	if (sizeof(T) % 8 == 0 && GetAlignmentOf<T>() % GetAlignmentOf<word64>() == 0)
; 538  : 		SecureWipeBuffer((word64 *)buf, n * (sizeof(T)/8));
; 539  : 	else if (sizeof(T) % 4 == 0 && GetAlignmentOf<T>() % GetAlignmentOf<word32>() == 0)
; 540  : 		SecureWipeBuffer((word32 *)buf, n * (sizeof(T)/4));
; 541  : 	else if (sizeof(T) % 2 == 0 && GetAlignmentOf<T>() % GetAlignmentOf<word16>() == 0)
; 542  : 		SecureWipeBuffer((word16 *)buf, n * (sizeof(T)/2));
; 543  : 	else
; 544  : 		SecureWipeBuffer((byte *)buf, n * sizeof(T));

  00003	8b 4d 0c	 mov	 ecx, DWORD PTR _n$[ebp]
  00006	57		 push	 edi
  00007	8b 7d 08	 mov	 edi, DWORD PTR _buf$[ebp]
  0000a	32 c0		 xor	 al, al
  0000c	f3 aa		 rep stosb
  0000e	5f		 pop	 edi

; 545  : }

  0000f	5d		 pop	 ebp
  00010	c3		 ret	 0
??$SecureWipeArray@E@CryptoPP@@YAXPAEI@Z ENDP		; CryptoPP::SecureWipeArray<unsigned char>
_TEXT	ENDS
PUBLIC	??$STDMIN@I@CryptoPP@@YAABIABI0@Z		; CryptoPP::STDMIN<unsigned int>
; Function compile flags: /Ogtp
;	COMDAT ??$STDMIN@I@CryptoPP@@YAABIABI0@Z
_TEXT	SEGMENT
_a$ = 8							; size = 4
_b$ = 12						; size = 4
??$STDMIN@I@CryptoPP@@YAABIABI0@Z PROC			; CryptoPP::STDMIN<unsigned int>, COMDAT

; 178  : {

  00000	55		 push	 ebp
  00001	8b ec		 mov	 ebp, esp

; 179  : 	return b < a ? b : a;

  00003	8b 45 0c	 mov	 eax, DWORD PTR _b$[ebp]
  00006	8b 10		 mov	 edx, DWORD PTR [eax]
  00008	8b 4d 08	 mov	 ecx, DWORD PTR _a$[ebp]
  0000b	3b 11		 cmp	 edx, DWORD PTR [ecx]
  0000d	72 02		 jb	 SHORT $LN4@STDMIN
  0000f	8b c1		 mov	 eax, ecx
$LN4@STDMIN:

; 180  : }

  00011	5d		 pop	 ebp
  00012	c3		 ret	 0
??$STDMIN@I@CryptoPP@@YAABIABI0@Z ENDP			; CryptoPP::STDMIN<unsigned int>
_TEXT	ENDS
PUBLIC	??_7bad_alloc@std@@6B@				; std::bad_alloc::`vftable'
PUBLIC	??0bad_alloc@std@@QAE@PBD@Z			; std::bad_alloc::bad_alloc
PUBLIC	??_R4bad_alloc@std@@6B@				; std::bad_alloc::`RTTI Complete Object Locator'
PUBLIC	??_R0?AVbad_alloc@std@@@8			; std::bad_alloc `RTTI Type Descriptor'
PUBLIC	??_R3bad_alloc@std@@8				; std::bad_alloc::`RTTI Class Hierarchy Descriptor'
PUBLIC	??_R2bad_alloc@std@@8				; std::bad_alloc::`RTTI Base Class Array'
PUBLIC	??_R1A@?0A@EA@bad_alloc@std@@8			; std::bad_alloc::`RTTI Base Class Descriptor at (0,-1,0,64)'
PUBLIC	??_R1A@?0A@EA@exception@std@@8			; std::exception::`RTTI Base Class Descriptor at (0,-1,0,64)'
PUBLIC	??_R0?AVexception@std@@@8			; std::exception `RTTI Type Descriptor'
PUBLIC	??_R3exception@std@@8				; std::exception::`RTTI Class Hierarchy Descriptor'
PUBLIC	??_R2exception@std@@8				; std::exception::`RTTI Base Class Array'
EXTRN	??0exception@std@@QAE@ABQBD@Z:PROC		; std::exception::exception
EXTRN	??_7type_info@@6B@:QWORD			; type_info::`vftable'
EXTRN	??_Ebad_alloc@std@@UAEPAXI@Z:PROC		; std::bad_alloc::`vector deleting destructor'
EXTRN	?what@exception@std@@UBEPBDXZ:PROC		; std::exception::what
;	COMDAT ??_R2exception@std@@8
; File c:\program files (x86)\microsoft visual studio 10.0\vc\include\exception
rdata$r	SEGMENT
??_R2exception@std@@8 DD FLAT:??_R1A@?0A@EA@exception@std@@8 ; std::exception::`RTTI Base Class Array'
rdata$r	ENDS
;	COMDAT ??_R3exception@std@@8
rdata$r	SEGMENT
??_R3exception@std@@8 DD 00H				; std::exception::`RTTI Class Hierarchy Descriptor'
	DD	00H
	DD	01H
	DD	FLAT:??_R2exception@std@@8
rdata$r	ENDS
;	COMDAT ??_R0?AVexception@std@@@8
_DATA	SEGMENT
??_R0?AVexception@std@@@8 DD FLAT:??_7type_info@@6B@	; std::exception `RTTI Type Descriptor'
	DD	00H
	DB	'.?AVexception@std@@', 00H
_DATA	ENDS
;	COMDAT ??_R1A@?0A@EA@exception@std@@8
rdata$r	SEGMENT
??_R1A@?0A@EA@exception@std@@8 DD FLAT:??_R0?AVexception@std@@@8 ; std::exception::`RTTI Base Class Descriptor at (0,-1,0,64)'
	DD	00H
	DD	00H
	DD	0ffffffffH
	DD	00H
	DD	040H
	DD	FLAT:??_R3exception@std@@8
rdata$r	ENDS
;	COMDAT ??_R1A@?0A@EA@bad_alloc@std@@8
rdata$r	SEGMENT
??_R1A@?0A@EA@bad_alloc@std@@8 DD FLAT:??_R0?AVbad_alloc@std@@@8 ; std::bad_alloc::`RTTI Base Class Descriptor at (0,-1,0,64)'
	DD	01H
	DD	00H
	DD	0ffffffffH
	DD	00H
	DD	040H
	DD	FLAT:??_R3bad_alloc@std@@8
rdata$r	ENDS
;	COMDAT ??_R2bad_alloc@std@@8
rdata$r	SEGMENT
??_R2bad_alloc@std@@8 DD FLAT:??_R1A@?0A@EA@bad_alloc@std@@8 ; std::bad_alloc::`RTTI Base Class Array'
	DD	FLAT:??_R1A@?0A@EA@exception@std@@8
rdata$r	ENDS
;	COMDAT ??_R3bad_alloc@std@@8
rdata$r	SEGMENT
??_R3bad_alloc@std@@8 DD 00H				; std::bad_alloc::`RTTI Class Hierarchy Descriptor'
	DD	00H
	DD	02H
	DD	FLAT:??_R2bad_alloc@std@@8
rdata$r	ENDS
;	COMDAT ??_R0?AVbad_alloc@std@@@8
_DATA	SEGMENT
??_R0?AVbad_alloc@std@@@8 DD FLAT:??_7type_info@@6B@	; std::bad_alloc `RTTI Type Descriptor'
	DD	00H
	DB	'.?AVbad_alloc@std@@', 00H
_DATA	ENDS
;	COMDAT ??_R4bad_alloc@std@@6B@
rdata$r	SEGMENT
??_R4bad_alloc@std@@6B@ DD 00H				; std::bad_alloc::`RTTI Complete Object Locator'
	DD	00H
	DD	00H
	DD	FLAT:??_R0?AVbad_alloc@std@@@8
	DD	FLAT:??_R3bad_alloc@std@@8
rdata$r	ENDS
;	COMDAT ??_7bad_alloc@std@@6B@
CONST	SEGMENT
??_7bad_alloc@std@@6B@ DD FLAT:??_R4bad_alloc@std@@6B@	; std::bad_alloc::`vftable'
	DD	FLAT:??_Ebad_alloc@std@@UAEPAXI@Z
	DD	FLAT:?what@exception@std@@UBEPBDXZ
; Function compile flags: /Ogtp
CONST	ENDS
;	COMDAT ??0bad_alloc@std@@QAE@PBD@Z
_TEXT	SEGMENT
__Message$ = 8						; size = 4
??0bad_alloc@std@@QAE@PBD@Z PROC			; std::bad_alloc::bad_alloc, COMDAT
; _this$ = ecx

; 345  : 		{	// construct from message string

  00000	55		 push	 ebp
  00001	8b ec		 mov	 ebp, esp
  00003	56		 push	 esi
  00004	8d 45 08	 lea	 eax, DWORD PTR __Message$[ebp]
  00007	50		 push	 eax
  00008	8b f1		 mov	 esi, ecx
  0000a	e8 00 00 00 00	 call	 ??0exception@std@@QAE@ABQBD@Z ; std::exception::exception
  0000f	c7 06 00 00 00
	00		 mov	 DWORD PTR [esi], OFFSET ??_7bad_alloc@std@@6B@

; 346  : 		}

  00015	8b c6		 mov	 eax, esi
  00017	5e		 pop	 esi
  00018	5d		 pop	 ebp
  00019	c2 04 00	 ret	 4
??0bad_alloc@std@@QAE@PBD@Z ENDP			; std::bad_alloc::bad_alloc
_TEXT	ENDS
PUBLIC	??1bad_alloc@std@@UAE@XZ			; std::bad_alloc::~bad_alloc
EXTRN	??1exception@std@@UAE@XZ:PROC			; std::exception::~exception
; Function compile flags: /Ogtp
;	COMDAT ??1bad_alloc@std@@UAE@XZ
_TEXT	SEGMENT
??1bad_alloc@std@@UAE@XZ PROC				; std::bad_alloc::~bad_alloc, COMDAT
; _this$ = ecx

; 354  : 		{	// destroy the object

  00000	c7 01 00 00 00
	00		 mov	 DWORD PTR [ecx], OFFSET ??_7bad_alloc@std@@6B@

; 355  : 		}

  00006	e9 00 00 00 00	 jmp	 ??1exception@std@@UAE@XZ ; std::exception::~exception
??1bad_alloc@std@@UAE@XZ ENDP				; std::bad_alloc::~bad_alloc
_TEXT	ENDS
EXTRN	??3@YAXPAX@Z:PROC				; operator delete
; Function compile flags: /Ogtp
;	COMDAT ??_Gbad_alloc@std@@UAEPAXI@Z
_TEXT	SEGMENT
___flags$ = 8						; size = 4
??_Gbad_alloc@std@@UAEPAXI@Z PROC			; std::bad_alloc::`scalar deleting destructor', COMDAT
; _this$ = ecx
  00000	55		 push	 ebp
  00001	8b ec		 mov	 ebp, esp
  00003	56		 push	 esi
  00004	8b f1		 mov	 esi, ecx
  00006	c7 06 00 00 00
	00		 mov	 DWORD PTR [esi], OFFSET ??_7bad_alloc@std@@6B@
  0000c	e8 00 00 00 00	 call	 ??1exception@std@@UAE@XZ ; std::exception::~exception
  00011	f6 45 08 01	 test	 BYTE PTR ___flags$[ebp], 1
  00015	74 09		 je	 SHORT $LN6@scalar
  00017	56		 push	 esi
  00018	e8 00 00 00 00	 call	 ??3@YAXPAX@Z		; operator delete
  0001d	83 c4 04	 add	 esp, 4
$LN6@scalar:
  00020	8b c6		 mov	 eax, esi
  00022	5e		 pop	 esi
  00023	5d		 pop	 ebp
  00024	c2 04 00	 ret	 4
??_Gbad_alloc@std@@UAEPAXI@Z ENDP			; std::bad_alloc::`scalar deleting destructor'
_TEXT	ENDS
PUBLIC	?length@?$char_traits@D@std@@SAIPBD@Z		; std::char_traits<char>::length
; Function compile flags: /Ogtp
; File c:\program files (x86)\microsoft visual studio 10.0\vc\include\iosfwd
;	COMDAT ?length@?$char_traits@D@std@@SAIPBD@Z
_TEXT	SEGMENT
__First$ = 8						; size = 4
?length@?$char_traits@D@std@@SAIPBD@Z PROC		; std::char_traits<char>::length, COMDAT

; 490  : 		{	// find length of null-terminated string

  00000	55		 push	 ebp
  00001	8b ec		 mov	 ebp, esp

; 491  : 		return (_CSTD strlen(_First));

  00003	8b 45 08	 mov	 eax, DWORD PTR __First$[ebp]
  00006	8d 50 01	 lea	 edx, DWORD PTR [eax+1]
  00009	8d a4 24 00 00
	00 00		 npad	 7
$LL3@length:
  00010	8a 08		 mov	 cl, BYTE PTR [eax]
  00012	40		 inc	 eax
  00013	84 c9		 test	 cl, cl
  00015	75 f9		 jne	 SHORT $LL3@length
  00017	2b c2		 sub	 eax, edx

; 492  : 		}

  00019	5d		 pop	 ebp
  0001a	c3		 ret	 0
?length@?$char_traits@D@std@@SAIPBD@Z ENDP		; std::char_traits<char>::length
_TEXT	ENDS
PUBLIC	?copy@?$char_traits@D@std@@SAPADPADPBDI@Z	; std::char_traits<char>::copy
EXTRN	_memcpy:PROC
; Function compile flags: /Ogtp
;	COMDAT ?copy@?$char_traits@D@std@@SAPADPADPBDI@Z
_TEXT	SEGMENT
__First1$ = 8						; size = 4
__First2$ = 12						; size = 4
__Count$ = 16						; size = 4
?copy@?$char_traits@D@std@@SAPADPADPBDI@Z PROC		; std::char_traits<char>::copy, COMDAT

; 496  : 		{	// copy [_First1, _First1 + _Count) to [_First2, ...)

  00000	55		 push	 ebp
  00001	8b ec		 mov	 ebp, esp

; 498  : 		}

  00003	5d		 pop	 ebp

; 497  : 		return ((_Elem *)_CSTD memcpy(_First1, _First2, _Count));

  00004	e9 00 00 00 00	 jmp	 _memcpy
?copy@?$char_traits@D@std@@SAPADPADPBDI@Z ENDP		; std::char_traits<char>::copy
_TEXT	ENDS
PUBLIC	?move@?$char_traits@D@std@@SAPADPADPBDI@Z	; std::char_traits<char>::move
EXTRN	_memmove:PROC
; Function compile flags: /Ogtp
;	COMDAT ?move@?$char_traits@D@std@@SAPADPADPBDI@Z
_TEXT	SEGMENT
__First1$ = 8						; size = 4
__First2$ = 12						; size = 4
__Count$ = 16						; size = 4
?move@?$char_traits@D@std@@SAPADPADPBDI@Z PROC		; std::char_traits<char>::move, COMDAT

; 516  : 		{	// copy [_First1, _First1 + _Count) to [_First2, ...)

  00000	55		 push	 ebp
  00001	8b ec		 mov	 ebp, esp

; 518  : 		}

  00003	5d		 pop	 ebp

; 517  : 		return ((_Elem *)_CSTD memmove(_First1, _First2, _Count));

  00004	e9 00 00 00 00	 jmp	 _memmove
?move@?$char_traits@D@std@@SAPADPADPBDI@Z ENDP		; std::char_traits<char>::move
_TEXT	ENDS
PUBLIC	?assign@?$char_traits@D@std@@SAXAADABD@Z	; std::char_traits<char>::assign
; Function compile flags: /Ogtp
;	COMDAT ?assign@?$char_traits@D@std@@SAXAADABD@Z
_TEXT	SEGMENT
__Left$ = 8						; size = 4
__Right$ = 12						; size = 4
?assign@?$char_traits@D@std@@SAXAADABD@Z PROC		; std::char_traits<char>::assign, COMDAT

; 526  : 		{	// assign an element

  00000	55		 push	 ebp
  00001	8b ec		 mov	 ebp, esp

; 527  : 		_Left = _Right;

  00003	8b 45 0c	 mov	 eax, DWORD PTR __Right$[ebp]
  00006	8a 08		 mov	 cl, BYTE PTR [eax]
  00008	8b 55 08	 mov	 edx, DWORD PTR __Left$[ebp]
  0000b	88 0a		 mov	 BYTE PTR [edx], cl

; 528  : 		}

  0000d	5d		 pop	 ebp
  0000e	c3		 ret	 0
?assign@?$char_traits@D@std@@SAXAADABD@Z ENDP		; std::char_traits<char>::assign
_TEXT	ENDS
PUBLIC	?size@?$basic_string@DU?$char_traits@D@std@@V?$allocator@D@2@@std@@QBEIXZ ; std::basic_string<char,std::char_traits<char>,std::allocator<char> >::size
; Function compile flags: /Ogtp
; File c:\program files (x86)\microsoft visual studio 10.0\vc\include\xstring
;	COMDAT ?size@?$basic_string@DU?$char_traits@D@std@@V?$allocator@D@2@@std@@QBEIXZ
_TEXT	SEGMENT
?size@?$basic_string@DU?$char_traits@D@std@@V?$allocator@D@2@@std@@QBEIXZ PROC ; std::basic_string<char,std::char_traits<char>,std::allocator<char> >::size, COMDAT
; _this$ = ecx

; 1511 : 		return (this->_Mysize);

  00000	8b 41 10	 mov	 eax, DWORD PTR [ecx+16]

; 1512 : 		}

  00003	c3		 ret	 0
?size@?$basic_string@DU?$char_traits@D@std@@V?$allocator@D@2@@std@@QBEIXZ ENDP ; std::basic_string<char,std::char_traits<char>,std::allocator<char> >::size
_TEXT	ENDS
PUBLIC	?_Myptr@?$basic_string@DU?$char_traits@D@std@@V?$allocator@D@2@@std@@QBEPBDXZ ; std::basic_string<char,std::char_traits<char>,std::allocator<char> >::_Myptr
; Function compile flags: /Ogtp
;	COMDAT ?_Myptr@?$basic_string@DU?$char_traits@D@std@@V?$allocator@D@2@@std@@QBEPBDXZ
_TEXT	SEGMENT
?_Myptr@?$basic_string@DU?$char_traits@D@std@@V?$allocator@D@2@@std@@QBEPBDXZ PROC ; std::basic_string<char,std::char_traits<char>,std::allocator<char> >::_Myptr, COMDAT
; _this$ = ecx

; 2008 : 		{	// determine current pointer to buffer for nonmutable string

  00000	8b c1		 mov	 eax, ecx

; 2009 : 		return (this->_BUF_SIZE <= this->_Myres ? this->_Bx._Ptr
; 2010 : 			: this->_Bx._Buf);

  00002	83 78 14 10	 cmp	 DWORD PTR [eax+20], 16	; 00000010H
  00006	72 02		 jb	 SHORT $LN4@Myptr
  00008	8b 00		 mov	 eax, DWORD PTR [eax]
$LN4@Myptr:

; 2011 : 		}

  0000a	c3		 ret	 0
?_Myptr@?$basic_string@DU?$char_traits@D@std@@V?$allocator@D@2@@std@@QBEPBDXZ ENDP ; std::basic_string<char,std::char_traits<char>,std::allocator<char> >::_Myptr
_TEXT	ENDS
PUBLIC	??1?$_String_val@DV?$allocator@D@std@@@std@@QAE@XZ ; std::_String_val<char,std::allocator<char> >::~_String_val<char,std::allocator<char> >
; Function compile flags: /Ogtp
;	COMDAT ??1?$_String_val@DV?$allocator@D@std@@@std@@QAE@XZ
_TEXT	SEGMENT
??1?$_String_val@DV?$allocator@D@std@@@std@@QAE@XZ PROC	; std::_String_val<char,std::allocator<char> >::~_String_val<char,std::allocator<char> >, COMDAT
; _this$ = ecx

; 459  : 		}

  00000	c3		 ret	 0
??1?$_String_val@DV?$allocator@D@std@@@std@@QAE@XZ ENDP	; std::_String_val<char,std::allocator<char> >::~_String_val<char,std::allocator<char> >
_TEXT	ENDS
PUBLIC	??0?$allocator@D@std@@QAE@XZ			; std::allocator<char>::allocator<char>
; Function compile flags: /Ogtp
; File c:\program files (x86)\microsoft visual studio 10.0\vc\include\xmemory
;	COMDAT ??0?$allocator@D@std@@QAE@XZ
_TEXT	SEGMENT
??0?$allocator@D@std@@QAE@XZ PROC			; std::allocator<char>::allocator<char>, COMDAT
; _this$ = ecx

; 161  : 	_ALLOCATOR() _THROW0()

  00000	8b c1		 mov	 eax, ecx

; 162  : 		{	// construct default allocator (do nothing)
; 163  : 		}

  00002	c3		 ret	 0
??0?$allocator@D@std@@QAE@XZ ENDP			; std::allocator<char>::allocator<char>
_TEXT	ENDS
PUBLIC	??0?$allocator@D@std@@QAE@ABV01@@Z		; std::allocator<char>::allocator<char>
; Function compile flags: /Ogtp
;	COMDAT ??0?$allocator@D@std@@QAE@ABV01@@Z
_TEXT	SEGMENT
___formal$ = 8						; size = 4
??0?$allocator@D@std@@QAE@ABV01@@Z PROC			; std::allocator<char>::allocator<char>, COMDAT
; _this$ = ecx

; 165  : 	_ALLOCATOR(const _ALLOCATOR<_Ty>&) _THROW0()

  00000	8b c1		 mov	 eax, ecx

; 166  : 		{	// construct by copying (do nothing)
; 167  : 		}

  00002	c2 04 00	 ret	 4
??0?$allocator@D@std@@QAE@ABV01@@Z ENDP			; std::allocator<char>::allocator<char>
_TEXT	ENDS
PUBLIC	?_Myptr@?$basic_string@DU?$char_traits@D@std@@V?$allocator@D@2@@std@@QAEPADXZ ; std::basic_string<char,std::char_traits<char>,std::allocator<char> >::_Myptr
; Function compile flags: /Ogtp
; File c:\program files (x86)\microsoft visual studio 10.0\vc\include\xstring
;	COMDAT ?_Myptr@?$basic_string@DU?$char_traits@D@std@@V?$allocator@D@2@@std@@QAEPADXZ
_TEXT	SEGMENT
?_Myptr@?$basic_string@DU?$char_traits@D@std@@V?$allocator@D@2@@std@@QAEPADXZ PROC ; std::basic_string<char,std::char_traits<char>,std::allocator<char> >::_Myptr, COMDAT
; _this$ = ecx

; 2002 : 		{	// determine current pointer to buffer for mutable string

  00000	8b c1		 mov	 eax, ecx

; 2003 : 		return (this->_BUF_SIZE <= this->_Myres ? this->_Bx._Ptr
; 2004 : 			: this->_Bx._Buf);

  00002	83 78 14 10	 cmp	 DWORD PTR [eax+20], 16	; 00000010H
  00006	72 02		 jb	 SHORT $LN4@Myptr@2
  00008	8b 00		 mov	 eax, DWORD PTR [eax]
$LN4@Myptr@2:

; 2005 : 		}

  0000a	c3		 ret	 0
?_Myptr@?$basic_string@DU?$char_traits@D@std@@V?$allocator@D@2@@std@@QAEPADXZ ENDP ; std::basic_string<char,std::char_traits<char>,std::allocator<char> >::_Myptr
_TEXT	ENDS
PUBLIC	??_C@_0BI@CFPLBAOH@invalid?5string?5position?$AA@ ; `string'
PUBLIC	?_Xran@?$basic_string@DU?$char_traits@D@std@@V?$allocator@D@2@@std@@QBEXXZ ; std::basic_string<char,std::char_traits<char>,std::allocator<char> >::_Xran
EXTRN	?_Xout_of_range@std@@YAXPBD@Z:PROC		; std::_Xout_of_range
;	COMDAT ??_C@_0BI@CFPLBAOH@invalid?5string?5position?$AA@
CONST	SEGMENT
??_C@_0BI@CFPLBAOH@invalid?5string?5position?$AA@ DB 'invalid string posi'
	DB	'tion', 00H					; `string'
; Function compile flags: /Ogtp
CONST	ENDS
;	COMDAT ?_Xran@?$basic_string@DU?$char_traits@D@std@@V?$allocator@D@2@@std@@QBEXXZ
_TEXT	SEGMENT
?_Xran@?$basic_string@DU?$char_traits@D@std@@V?$allocator@D@2@@std@@QBEXXZ PROC ; std::basic_string<char,std::char_traits<char>,std::allocator<char> >::_Xran, COMDAT
; _this$ = ecx

; 2020 : 		_Xout_of_range("invalid string position");

  00000	68 00 00 00 00	 push	 OFFSET ??_C@_0BI@CFPLBAOH@invalid?5string?5position?$AA@
  00005	e8 00 00 00 00	 call	 ?_Xout_of_range@std@@YAXPBD@Z ; std::_Xout_of_range
$LN4@Xran:
$LN3@Xran:
  0000a	cc		 int	 3
?_Xran@?$basic_string@DU?$char_traits@D@std@@V?$allocator@D@2@@std@@QBEXXZ ENDP ; std::basic_string<char,std::char_traits<char>,std::allocator<char> >::_Xran
_TEXT	ENDS
PUBLIC	?deallocate@?$allocator@D@std@@QAEXPADI@Z	; std::allocator<char>::deallocate
; Function compile flags: /Ogtp
; File c:\program files (x86)\microsoft visual studio 10.0\vc\include\xmemory
;	COMDAT ?deallocate@?$allocator@D@std@@QAEXPADI@Z
_TEXT	SEGMENT
__Ptr$ = 8						; size = 4
___formal$ = 12						; size = 4
?deallocate@?$allocator@D@std@@QAEXPADI@Z PROC		; std::allocator<char>::deallocate, COMDAT
; _this$ = ecx

; 181  : 		{	// deallocate object at _Ptr, ignore size

  00000	55		 push	 ebp
  00001	8b ec		 mov	 ebp, esp

; 182  : 		::operator delete(_Ptr);

  00003	8b 45 08	 mov	 eax, DWORD PTR __Ptr$[ebp]
  00006	50		 push	 eax
  00007	e8 00 00 00 00	 call	 ??3@YAXPAX@Z		; operator delete
  0000c	83 c4 04	 add	 esp, 4

; 183  : 		}

  0000f	5d		 pop	 ebp
  00010	c2 08 00	 ret	 8
?deallocate@?$allocator@D@std@@QAEXPADI@Z ENDP		; std::allocator<char>::deallocate
_TEXT	ENDS
PUBLIC	?_Inside@?$basic_string@DU?$char_traits@D@std@@V?$allocator@D@2@@std@@QAE_NPBD@Z ; std::basic_string<char,std::char_traits<char>,std::allocator<char> >::_Inside
; Function compile flags: /Ogtp
; File c:\program files (x86)\microsoft visual studio 10.0\vc\include\xstring
;	COMDAT ?_Inside@?$basic_string@DU?$char_traits@D@std@@V?$allocator@D@2@@std@@QAE_NPBD@Z
_TEXT	SEGMENT
__Ptr$ = 8						; size = 4
?_Inside@?$basic_string@DU?$char_traits@D@std@@V?$allocator@D@2@@std@@QAE_NPBD@Z PROC ; std::basic_string<char,std::char_traits<char>,std::allocator<char> >::_Inside, COMDAT
; _this$ = ecx

; 1972 : 		{	// test if _Ptr points inside string

  00000	55		 push	 ebp
  00001	8b ec		 mov	 ebp, esp
  00003	56		 push	 esi

; 1973 : 		if (_Ptr == 0 || _Ptr < _Myptr() || _Myptr() + this->_Mysize <= _Ptr)

  00004	8b 75 08	 mov	 esi, DWORD PTR __Ptr$[ebp]
  00007	85 f6		 test	 esi, esi
  00009	74 2d		 je	 SHORT $LN2@Inside
  0000b	8b 51 14	 mov	 edx, DWORD PTR [ecx+20]
  0000e	83 fa 10	 cmp	 edx, 16			; 00000010H
  00011	72 04		 jb	 SHORT $LN8@Inside
  00013	8b 01		 mov	 eax, DWORD PTR [ecx]
  00015	eb 02		 jmp	 SHORT $LN9@Inside
$LN8@Inside:
  00017	8b c1		 mov	 eax, ecx
$LN9@Inside:
  00019	3b f0		 cmp	 esi, eax
  0001b	72 1b		 jb	 SHORT $LN2@Inside
  0001d	83 fa 10	 cmp	 edx, 16			; 00000010H
  00020	72 04		 jb	 SHORT $LN12@Inside
  00022	8b 01		 mov	 eax, DWORD PTR [ecx]
  00024	eb 02		 jmp	 SHORT $LN13@Inside
$LN12@Inside:
  00026	8b c1		 mov	 eax, ecx
$LN13@Inside:
  00028	8b 49 10	 mov	 ecx, DWORD PTR [ecx+16]
  0002b	03 c8		 add	 ecx, eax
  0002d	3b ce		 cmp	 ecx, esi
  0002f	76 07		 jbe	 SHORT $LN2@Inside

; 1975 : 		else
; 1976 : 			return (true);

  00031	b0 01		 mov	 al, 1
  00033	5e		 pop	 esi

; 1977 : 		}

  00034	5d		 pop	 ebp
  00035	c2 04 00	 ret	 4
$LN2@Inside:

; 1974 : 			return (false);	// don't ask

  00038	32 c0		 xor	 al, al
  0003a	5e		 pop	 esi

; 1977 : 		}

  0003b	5d		 pop	 ebp
  0003c	c2 04 00	 ret	 4
?_Inside@?$basic_string@DU?$char_traits@D@std@@V?$allocator@D@2@@std@@QAE_NPBD@Z ENDP ; std::basic_string<char,std::char_traits<char>,std::allocator<char> >::_Inside
_TEXT	ENDS
PUBLIC	??_C@_0BA@JFNIOLAK@string?5too?5long?$AA@	; `string'
PUBLIC	?_Xlen@?$basic_string@DU?$char_traits@D@std@@V?$allocator@D@2@@std@@QBEXXZ ; std::basic_string<char,std::char_traits<char>,std::allocator<char> >::_Xlen
EXTRN	?_Xlength_error@std@@YAXPBD@Z:PROC		; std::_Xlength_error
;	COMDAT ??_C@_0BA@JFNIOLAK@string?5too?5long?$AA@
CONST	SEGMENT
??_C@_0BA@JFNIOLAK@string?5too?5long?$AA@ DB 'string too long', 00H ; `string'
; Function compile flags: /Ogtp
CONST	ENDS
;	COMDAT ?_Xlen@?$basic_string@DU?$char_traits@D@std@@V?$allocator@D@2@@std@@QBEXXZ
_TEXT	SEGMENT
?_Xlen@?$basic_string@DU?$char_traits@D@std@@V?$allocator@D@2@@std@@QBEXXZ PROC ; std::basic_string<char,std::char_traits<char>,std::allocator<char> >::_Xlen, COMDAT
; _this$ = ecx

; 2015 : 		_Xlength_error("string too long");

  00000	68 00 00 00 00	 push	 OFFSET ??_C@_0BA@JFNIOLAK@string?5too?5long?$AA@
  00005	e8 00 00 00 00	 call	 ?_Xlength_error@std@@YAXPBD@Z ; std::_Xlength_error
$LN4@Xlen:
$LN3@Xlen:
  0000a	cc		 int	 3
?_Xlen@?$basic_string@DU?$char_traits@D@std@@V?$allocator@D@2@@std@@QBEXXZ ENDP ; std::basic_string<char,std::char_traits<char>,std::allocator<char> >::_Xlen
_TEXT	ENDS
PUBLIC	?max_size@?$allocator@D@std@@QBEIXZ		; std::allocator<char>::max_size
; Function compile flags: /Ogtp
; File c:\program files (x86)\microsoft visual studio 10.0\vc\include\xmemory
;	COMDAT ?max_size@?$allocator@D@std@@QBEIXZ
_TEXT	SEGMENT
?max_size@?$allocator@D@std@@QBEIXZ PROC		; std::allocator<char>::max_size, COMDAT
; _this$ = ecx

; 218  : 		_SIZT _Count = (_SIZT)(-1) / sizeof (_Ty);
; 219  : 		return (0 < _Count ? _Count : 1);

  00000	83 c8 ff	 or	 eax, -1

; 220  : 		}

  00003	c3		 ret	 0
?max_size@?$allocator@D@std@@QBEIXZ ENDP		; std::allocator<char>::max_size
_TEXT	ENDS
PUBLIC	__TI2?AVbad_alloc@std@@
PUBLIC	??$_Allocate@D@std@@YAPADIPAD@Z			; std::_Allocate<char>
PUBLIC	__CTA2?AVbad_alloc@std@@
PUBLIC	__CT??_R0?AVbad_alloc@std@@@8??0bad_alloc@std@@QAE@ABV01@@Z12
PUBLIC	??0bad_alloc@std@@QAE@ABV01@@Z			; std::bad_alloc::bad_alloc
PUBLIC	__CT??_R0?AVexception@std@@@8??0exception@std@@QAE@ABV01@@Z12
EXTRN	??2@YAPAXI@Z:PROC				; operator new
EXTRN	__CxxThrowException@8:PROC
EXTRN	??0exception@std@@QAE@ABV01@@Z:PROC		; std::exception::exception
;	COMDAT __CT??_R0?AVexception@std@@@8??0exception@std@@QAE@ABV01@@Z12
; File c:\program files (x86)\microsoft visual studio 10.0\vc\include\exception
xdata$x	SEGMENT
__CT??_R0?AVexception@std@@@8??0exception@std@@QAE@ABV01@@Z12 DD 00H
	DD	FLAT:??_R0?AVexception@std@@@8
	DD	00H
	DD	0ffffffffH
	ORG $+4
	DD	0cH
	DD	FLAT:??0exception@std@@QAE@ABV01@@Z
xdata$x	ENDS
;	COMDAT __CT??_R0?AVbad_alloc@std@@@8??0bad_alloc@std@@QAE@ABV01@@Z12
xdata$x	SEGMENT
__CT??_R0?AVbad_alloc@std@@@8??0bad_alloc@std@@QAE@ABV01@@Z12 DD 00H
	DD	FLAT:??_R0?AVbad_alloc@std@@@8
	DD	00H
	DD	0ffffffffH
	ORG $+4
	DD	0cH
	DD	FLAT:??0bad_alloc@std@@QAE@ABV01@@Z
xdata$x	ENDS
;	COMDAT __CTA2?AVbad_alloc@std@@
xdata$x	SEGMENT
__CTA2?AVbad_alloc@std@@ DD 02H
	DD	FLAT:__CT??_R0?AVbad_alloc@std@@@8??0bad_alloc@std@@QAE@ABV01@@Z12
	DD	FLAT:__CT??_R0?AVexception@std@@@8??0exception@std@@QAE@ABV01@@Z12
xdata$x	ENDS
;	COMDAT __TI2?AVbad_alloc@std@@
xdata$x	SEGMENT
__TI2?AVbad_alloc@std@@ DD 00H
	DD	FLAT:??1bad_alloc@std@@UAE@XZ
	DD	00H
	DD	FLAT:__CTA2?AVbad_alloc@std@@
; Function compile flags: /Ogtp
; File c:\program files (x86)\microsoft visual studio 10.0\vc\include\xmemory
xdata$x	ENDS
;	COMDAT ??$_Allocate@D@std@@YAPADIPAD@Z
_TEXT	SEGMENT
$T166102 = -12						; size = 12
$T166107 = 8						; size = 4
__Count$ = 8						; size = 4
___formal$ = 12						; size = 4
??$_Allocate@D@std@@YAPADIPAD@Z PROC			; std::_Allocate<char>, COMDAT

; 30   : 	{	// allocate storage for _Count elements of type _Ty

  00000	55		 push	 ebp
  00001	8b ec		 mov	 ebp, esp

; 31   : 	void *_Ptr = 0;
; 32   : 
; 33   : 	if (_Count <= 0)

  00003	8b 4d 08	 mov	 ecx, DWORD PTR __Count$[ebp]
  00006	83 ec 0c	 sub	 esp, 12			; 0000000cH
  00009	33 c0		 xor	 eax, eax
  0000b	85 c9		 test	 ecx, ecx

; 34   : 		_Count = 0;
; 35   : 	else if (((_SIZT)(-1) / sizeof (_Ty) < _Count)

  0000d	74 3a		 je	 SHORT $LN5@Allocate

; 36   : 		|| (_Ptr = ::operator new(_Count * sizeof (_Ty))) == 0)

  0000f	83 f9 ff	 cmp	 ecx, -1
  00012	77 0d		 ja	 SHORT $LN1@Allocate
  00014	51		 push	 ecx
  00015	e8 00 00 00 00	 call	 ??2@YAPAXI@Z		; operator new
  0001a	83 c4 04	 add	 esp, 4
  0001d	85 c0		 test	 eax, eax

; 38   : 
; 39   : 	return ((_Ty _FARQ *)_Ptr);

  0001f	75 28		 jne	 SHORT $LN5@Allocate
$LN1@Allocate:

; 37   : 		_THROW_NCEE(bad_alloc, 0);

  00021	8d 45 08	 lea	 eax, DWORD PTR $T166107[ebp]
  00024	50		 push	 eax
  00025	8d 4d f4	 lea	 ecx, DWORD PTR $T166102[ebp]
  00028	c7 45 08 00 00
	00 00		 mov	 DWORD PTR $T166107[ebp], 0
  0002f	e8 00 00 00 00	 call	 ??0exception@std@@QAE@ABQBD@Z ; std::exception::exception
  00034	68 00 00 00 00	 push	 OFFSET __TI2?AVbad_alloc@std@@
  00039	8d 4d f4	 lea	 ecx, DWORD PTR $T166102[ebp]
  0003c	51		 push	 ecx
  0003d	c7 45 f4 00 00
	00 00		 mov	 DWORD PTR $T166102[ebp], OFFSET ??_7bad_alloc@std@@6B@
  00044	e8 00 00 00 00	 call	 __CxxThrowException@8
$LN10@Allocate:
$LN5@Allocate:

; 40   : 	}

  00049	8b e5		 mov	 esp, ebp
  0004b	5d		 pop	 ebp
  0004c	c3		 ret	 0
$LN9@Allocate:
??$_Allocate@D@std@@YAPADIPAD@Z ENDP			; std::_Allocate<char>
; Function compile flags: /Ogtp
_TEXT	ENDS
;	COMDAT ??0bad_alloc@std@@QAE@ABV01@@Z
_TEXT	SEGMENT
___that$ = 8						; size = 4
??0bad_alloc@std@@QAE@ABV01@@Z PROC			; std::bad_alloc::bad_alloc, COMDAT
; _this$ = ecx
  00000	55		 push	 ebp
  00001	8b ec		 mov	 ebp, esp
  00003	8b 45 08	 mov	 eax, DWORD PTR ___that$[ebp]
  00006	56		 push	 esi
  00007	50		 push	 eax
  00008	8b f1		 mov	 esi, ecx
  0000a	e8 00 00 00 00	 call	 ??0exception@std@@QAE@ABV01@@Z ; std::exception::exception
  0000f	c7 06 00 00 00
	00		 mov	 DWORD PTR [esi], OFFSET ??_7bad_alloc@std@@6B@
  00015	8b c6		 mov	 eax, esi
  00017	5e		 pop	 esi
  00018	5d		 pop	 ebp
  00019	c2 04 00	 ret	 4
??0bad_alloc@std@@QAE@ABV01@@Z ENDP			; std::bad_alloc::bad_alloc
_TEXT	ENDS
PUBLIC	?BlockSize@CipherModeBase@CryptoPP@@IBEIXZ	; CryptoPP::CipherModeBase::BlockSize
; Function compile flags: /Ogtp
; File c:\muserver_dev\development\mu-s8ep2-repack\gameserver\crypto\modes.h
;	COMDAT ?BlockSize@CipherModeBase@CryptoPP@@IBEIXZ
_TEXT	SEGMENT
?BlockSize@CipherModeBase@CryptoPP@@IBEIXZ PROC		; CryptoPP::CipherModeBase::BlockSize, COMDAT
; _this$ = ecx

; 64   : 	inline unsigned int BlockSize() const {assert(m_register.size() > 0); return (unsigned int)m_register.size();}

  00000	8b 41 10	 mov	 eax, DWORD PTR [ecx+16]
  00003	c3		 ret	 0
?BlockSize@CipherModeBase@CryptoPP@@IBEIXZ ENDP		; CryptoPP::CipherModeBase::BlockSize
_TEXT	ENDS
PUBLIC	??0SymmetricCipher@CryptoPP@@QAE@XZ		; CryptoPP::SymmetricCipher::SymmetricCipher
; Function compile flags: /Ogtp
;	COMDAT ??0SymmetricCipher@CryptoPP@@QAE@XZ
_TEXT	SEGMENT
??0SymmetricCipher@CryptoPP@@QAE@XZ PROC		; CryptoPP::SymmetricCipher::SymmetricCipher, COMDAT
; _this$ = ecx
  00000	56		 push	 esi
  00001	8b f1		 mov	 esi, ecx
  00003	6a 01		 push	 1
  00005	8d 4e 04	 lea	 ecx, DWORD PTR [esi+4]
  00008	e8 00 00 00 00	 call	 ??0Algorithm@CryptoPP@@QAE@_N@Z ; CryptoPP::Algorithm::Algorithm
  0000d	8b c6		 mov	 eax, esi
  0000f	5e		 pop	 esi
  00010	c3		 ret	 0
??0SymmetricCipher@CryptoPP@@QAE@XZ ENDP		; CryptoPP::SymmetricCipher::SymmetricCipher
_TEXT	ENDS
PUBLIC	??1SymmetricCipher@CryptoPP@@UAE@XZ		; CryptoPP::SymmetricCipher::~SymmetricCipher
; Function compile flags: /Ogtp
;	COMDAT ??1SymmetricCipher@CryptoPP@@UAE@XZ
_TEXT	SEGMENT
??1SymmetricCipher@CryptoPP@@UAE@XZ PROC		; CryptoPP::SymmetricCipher::~SymmetricCipher, COMDAT
; _this$ = ecx
  00000	c3		 ret	 0
??1SymmetricCipher@CryptoPP@@UAE@XZ ENDP		; CryptoPP::SymmetricCipher::~SymmetricCipher
_TEXT	ENDS
PUBLIC	??1?$value_ptr@V?$BlockCipherFinal@$0A@VBase@DES@CryptoPP@@@CryptoPP@@@CryptoPP@@QAE@XZ ; CryptoPP::value_ptr<CryptoPP::BlockCipherFinal<0,CryptoPP::DES::Base> >::~value_ptr<CryptoPP::BlockCipherFinal<0,CryptoPP::DES::Base> >
; Function compile flags: /Ogtp
;	COMDAT ??1?$value_ptr@V?$BlockCipherFinal@$0A@VBase@DES@CryptoPP@@@CryptoPP@@@CryptoPP@@QAE@XZ
_TEXT	SEGMENT
??1?$value_ptr@V?$BlockCipherFinal@$0A@VBase@DES@CryptoPP@@@CryptoPP@@@CryptoPP@@QAE@XZ PROC ; CryptoPP::value_ptr<CryptoPP::BlockCipherFinal<0,CryptoPP::DES::Base> >::~value_ptr<CryptoPP::BlockCipherFinal<0,CryptoPP::DES::Base> >, COMDAT
; _this$ = ecx
  00000	e9 00 00 00 00	 jmp	 ??1?$member_ptr@V?$BlockCipherFinal@$0A@VBase@DES@CryptoPP@@@CryptoPP@@@CryptoPP@@QAE@XZ ; CryptoPP::member_ptr<CryptoPP::BlockCipherFinal<0,CryptoPP::DES::Base> >::~member_ptr<CryptoPP::BlockCipherFinal<0,CryptoPP::DES::Base> >
??1?$value_ptr@V?$BlockCipherFinal@$0A@VBase@DES@CryptoPP@@@CryptoPP@@@CryptoPP@@QAE@XZ ENDP ; CryptoPP::value_ptr<CryptoPP::BlockCipherFinal<0,CryptoPP::DES::Base> >::~value_ptr<CryptoPP::BlockCipherFinal<0,CryptoPP::DES::Base> >
_TEXT	ENDS
PUBLIC	??1BlockCipher@CryptoPP@@UAE@XZ			; CryptoPP::BlockCipher::~BlockCipher
; Function compile flags: /Ogtp
;	COMDAT ??1BlockCipher@CryptoPP@@UAE@XZ
_TEXT	SEGMENT
??1BlockCipher@CryptoPP@@UAE@XZ PROC			; CryptoPP::BlockCipher::~BlockCipher, COMDAT
; _this$ = ecx
  00000	c3		 ret	 0
??1BlockCipher@CryptoPP@@UAE@XZ ENDP			; CryptoPP::BlockCipher::~BlockCipher
_TEXT	ENDS
PUBLIC	?deallocate@?$AllocatorWithCleanup@E$0A@@CryptoPP@@QAEXPAXI@Z ; CryptoPP::AllocatorWithCleanup<unsigned char,0>::deallocate
EXTRN	?UnalignedDeallocate@CryptoPP@@YAXPAX@Z:PROC	; CryptoPP::UnalignedDeallocate
; Function compile flags: /Ogtp
; File c:\muserver_dev\development\mu-s8ep2-repack\gameserver\crypto\secblock.h
;	COMDAT ?deallocate@?$AllocatorWithCleanup@E$0A@@CryptoPP@@QAEXPAXI@Z
_TEXT	SEGMENT
_p$ = 8							; size = 4
_n$ = 12						; size = 4
?deallocate@?$AllocatorWithCleanup@E$0A@@CryptoPP@@QAEXPAXI@Z PROC ; CryptoPP::AllocatorWithCleanup<unsigned char,0>::deallocate, COMDAT
; _this$ = ecx

; 104  : 	{

  00000	55		 push	 ebp
  00001	8b ec		 mov	 ebp, esp

; 105  : 		SecureWipeArray((pointer)p, n);

  00003	8b 55 08	 mov	 edx, DWORD PTR _p$[ebp]
  00006	8b 4d 0c	 mov	 ecx, DWORD PTR _n$[ebp]
  00009	57		 push	 edi
  0000a	8b fa		 mov	 edi, edx
  0000c	32 c0		 xor	 al, al

; 106  : 
; 107  : #if CRYPTOPP_BOOL_ALIGN16_ENABLED
; 108  : 		if (T_Align16 && n*sizeof(T) >= 16)
; 109  : 			return AlignedDeallocate(p);
; 110  : #endif
; 111  : 
; 112  : 		UnalignedDeallocate(p);

  0000e	52		 push	 edx
  0000f	f3 aa		 rep stosb
  00011	e8 00 00 00 00	 call	 ?UnalignedDeallocate@CryptoPP@@YAXPAX@Z ; CryptoPP::UnalignedDeallocate
  00016	83 c4 04	 add	 esp, 4
  00019	5f		 pop	 edi

; 113  : 	}

  0001a	5d		 pop	 ebp
  0001b	c2 08 00	 ret	 8
?deallocate@?$AllocatorWithCleanup@E$0A@@CryptoPP@@QAEXPAXI@Z ENDP ; CryptoPP::AllocatorWithCleanup<unsigned char,0>::deallocate
_TEXT	ENDS
PUBLIC	?deallocate@?$AllocatorWithCleanup@E$00@CryptoPP@@QAEXPAXI@Z ; CryptoPP::AllocatorWithCleanup<unsigned char,1>::deallocate
EXTRN	?AlignedDeallocate@CryptoPP@@YAXPAX@Z:PROC	; CryptoPP::AlignedDeallocate
; Function compile flags: /Ogtp
;	COMDAT ?deallocate@?$AllocatorWithCleanup@E$00@CryptoPP@@QAEXPAXI@Z
_TEXT	SEGMENT
_p$ = 8							; size = 4
_n$ = 12						; size = 4
?deallocate@?$AllocatorWithCleanup@E$00@CryptoPP@@QAEXPAXI@Z PROC ; CryptoPP::AllocatorWithCleanup<unsigned char,1>::deallocate, COMDAT
; _this$ = ecx

; 104  : 	{

  00000	55		 push	 ebp
  00001	8b ec		 mov	 ebp, esp

; 105  : 		SecureWipeArray((pointer)p, n);

  00003	8b 55 08	 mov	 edx, DWORD PTR _p$[ebp]
  00006	56		 push	 esi
  00007	8b 75 0c	 mov	 esi, DWORD PTR _n$[ebp]
  0000a	57		 push	 edi
  0000b	32 c0		 xor	 al, al
  0000d	8b ce		 mov	 ecx, esi
  0000f	8b fa		 mov	 edi, edx
  00011	f3 aa		 rep stosb
  00013	5f		 pop	 edi

; 106  : 
; 107  : #if CRYPTOPP_BOOL_ALIGN16_ENABLED
; 108  : 		if (T_Align16 && n*sizeof(T) >= 16)

  00014	83 fe 10	 cmp	 esi, 16			; 00000010H
  00017	5e		 pop	 esi

; 109  : 			return AlignedDeallocate(p);

  00018	52		 push	 edx
  00019	72 0c		 jb	 SHORT $LN1@deallocate
  0001b	e8 00 00 00 00	 call	 ?AlignedDeallocate@CryptoPP@@YAXPAX@Z ; CryptoPP::AlignedDeallocate

; 110  : #endif
; 111  : 
; 112  : 		UnalignedDeallocate(p);

  00020	83 c4 04	 add	 esp, 4

; 113  : 	}

  00023	5d		 pop	 ebp
  00024	c2 08 00	 ret	 8
$LN1@deallocate:

; 110  : #endif
; 111  : 
; 112  : 		UnalignedDeallocate(p);

  00027	e8 00 00 00 00	 call	 ?UnalignedDeallocate@CryptoPP@@YAXPAX@Z ; CryptoPP::UnalignedDeallocate
  0002c	83 c4 04	 add	 esp, 4

; 113  : 	}

  0002f	5d		 pop	 ebp
  00030	c2 08 00	 ret	 8
?deallocate@?$AllocatorWithCleanup@E$00@CryptoPP@@QAEXPAXI@Z ENDP ; CryptoPP::AllocatorWithCleanup<unsigned char,1>::deallocate
_TEXT	ENDS
PUBLIC	?deallocate@?$FixedSizeAllocatorWithCleanup@E$07V?$NullAllocator@E@CryptoPP@@$0A@@CryptoPP@@QAEXPAXI@Z ; CryptoPP::FixedSizeAllocatorWithCleanup<unsigned char,8,CryptoPP::NullAllocator<unsigned char>,0>::deallocate
; Function compile flags: /Ogtp
;	COMDAT ?deallocate@?$FixedSizeAllocatorWithCleanup@E$07V?$NullAllocator@E@CryptoPP@@$0A@@CryptoPP@@QAEXPAXI@Z
_TEXT	SEGMENT
_p$ = 8							; size = 4
_n$ = 12						; size = 4
?deallocate@?$FixedSizeAllocatorWithCleanup@E$07V?$NullAllocator@E@CryptoPP@@$0A@@CryptoPP@@QAEXPAXI@Z PROC ; CryptoPP::FixedSizeAllocatorWithCleanup<unsigned char,8,CryptoPP::NullAllocator<unsigned char>,0>::deallocate, COMDAT
; _this$ = ecx

; 193  : 	{

  00000	55		 push	 ebp
  00001	8b ec		 mov	 ebp, esp
  00003	57		 push	 edi

; 194  : 		if (p == GetAlignedArray())

  00004	8b 7d 08	 mov	 edi, DWORD PTR _p$[ebp]
  00007	3b f9		 cmp	 edi, ecx
  00009	75 0b		 jne	 SHORT $LN25@deallocate@2

; 195  : 		{
; 196  : 			assert(n <= S);
; 197  : 			assert(m_allocated);
; 198  : 			m_allocated = false;

  0000b	c6 41 09 00	 mov	 BYTE PTR [ecx+9], 0

; 199  : 			SecureWipeArray((pointer)p, n);

  0000f	8b 4d 0c	 mov	 ecx, DWORD PTR _n$[ebp]
  00012	32 c0		 xor	 al, al
  00014	f3 aa		 rep stosb
$LN25@deallocate@2:
  00016	5f		 pop	 edi

; 200  : 		}
; 201  : 		else
; 202  : 			m_fallbackAllocator.deallocate(p, n);
; 203  : 	}

  00017	5d		 pop	 ebp
  00018	c2 08 00	 ret	 8
?deallocate@?$FixedSizeAllocatorWithCleanup@E$07V?$NullAllocator@E@CryptoPP@@$0A@@CryptoPP@@QAEXPAXI@Z ENDP ; CryptoPP::FixedSizeAllocatorWithCleanup<unsigned char,8,CryptoPP::NullAllocator<unsigned char>,0>::deallocate
_TEXT	ENDS
PUBLIC	??0BlockCipher@CryptoPP@@QAE@XZ			; CryptoPP::BlockCipher::BlockCipher
; Function compile flags: /Ogtp
;	COMDAT ??0BlockCipher@CryptoPP@@QAE@XZ
_TEXT	SEGMENT
??0BlockCipher@CryptoPP@@QAE@XZ PROC			; CryptoPP::BlockCipher::BlockCipher, COMDAT
; _this$ = ecx
  00000	56		 push	 esi
  00001	8b f1		 mov	 esi, ecx
  00003	6a 01		 push	 1
  00005	8d 4e 04	 lea	 ecx, DWORD PTR [esi+4]
  00008	e8 00 00 00 00	 call	 ??0Algorithm@CryptoPP@@QAE@_N@Z ; CryptoPP::Algorithm::Algorithm
  0000d	8b c6		 mov	 eax, esi
  0000f	5e		 pop	 esi
  00010	c3		 ret	 0
??0BlockCipher@CryptoPP@@QAE@XZ ENDP			; CryptoPP::BlockCipher::BlockCipher
_TEXT	ENDS
PUBLIC	?allocate@?$FixedSizeAllocatorWithCleanup@E$07V?$NullAllocator@E@CryptoPP@@$0A@@CryptoPP@@QAEPAEIPBX@Z ; CryptoPP::FixedSizeAllocatorWithCleanup<unsigned char,8,CryptoPP::NullAllocator<unsigned char>,0>::allocate
; Function compile flags: /Ogtp
;	COMDAT ?allocate@?$FixedSizeAllocatorWithCleanup@E$07V?$NullAllocator@E@CryptoPP@@$0A@@CryptoPP@@QAEPAEIPBX@Z
_TEXT	SEGMENT
_n$ = 8							; size = 4
_hint$ = 12						; size = 4
?allocate@?$FixedSizeAllocatorWithCleanup@E$07V?$NullAllocator@E@CryptoPP@@$0A@@CryptoPP@@QAEPAEIPBX@Z PROC ; CryptoPP::FixedSizeAllocatorWithCleanup<unsigned char,8,CryptoPP::NullAllocator<unsigned char>,0>::allocate, COMDAT
; _this$ = ecx

; 182  : 	{

  00000	55		 push	 ebp
  00001	8b ec		 mov	 ebp, esp

; 183  : 		if (n <= S && !m_allocated)

  00003	83 7d 08 08	 cmp	 DWORD PTR _n$[ebp], 8
  00007	8b c1		 mov	 eax, ecx
  00009	77 0e		 ja	 SHORT $LN2@allocate
  0000b	80 78 09 00	 cmp	 BYTE PTR [eax+9], 0
  0000f	75 08		 jne	 SHORT $LN2@allocate

; 184  : 		{
; 185  : 			m_allocated = true;

  00011	c6 40 09 01	 mov	 BYTE PTR [eax+9], 1

; 190  : 	}

  00015	5d		 pop	 ebp
  00016	c2 08 00	 ret	 8
$LN2@allocate:

; 186  : 			return GetAlignedArray();
; 187  : 		}
; 188  : 		else
; 189  : 			return m_fallbackAllocator.allocate(n, hint);

  00019	33 c0		 xor	 eax, eax

; 190  : 	}

  0001b	5d		 pop	 ebp
  0001c	c2 08 00	 ret	 8
?allocate@?$FixedSizeAllocatorWithCleanup@E$07V?$NullAllocator@E@CryptoPP@@$0A@@CryptoPP@@QAEPAEIPBX@Z ENDP ; CryptoPP::FixedSizeAllocatorWithCleanup<unsigned char,8,CryptoPP::NullAllocator<unsigned char>,0>::allocate
_TEXT	ENDS
PUBLIC	??0?$value_ptr@V?$BlockCipherFinal@$0A@VBase@DES@CryptoPP@@@CryptoPP@@@CryptoPP@@QAE@PAV?$BlockCipherFinal@$0A@VBase@DES@CryptoPP@@@1@@Z ; CryptoPP::value_ptr<CryptoPP::BlockCipherFinal<0,CryptoPP::DES::Base> >::value_ptr<CryptoPP::BlockCipherFinal<0,CryptoPP::DES::Base> >
; Function compile flags: /Ogtp
; File c:\muserver_dev\development\mu-s8ep2-repack\gameserver\crypto\smartptr.h
;	COMDAT ??0?$value_ptr@V?$BlockCipherFinal@$0A@VBase@DES@CryptoPP@@@CryptoPP@@@CryptoPP@@QAE@PAV?$BlockCipherFinal@$0A@VBase@DES@CryptoPP@@@1@@Z
_TEXT	SEGMENT
_p$ = 8							; size = 4
??0?$value_ptr@V?$BlockCipherFinal@$0A@VBase@DES@CryptoPP@@@CryptoPP@@@CryptoPP@@QAE@PAV?$BlockCipherFinal@$0A@VBase@DES@CryptoPP@@@1@@Z PROC ; CryptoPP::value_ptr<CryptoPP::BlockCipherFinal<0,CryptoPP::DES::Base> >::value_ptr<CryptoPP::BlockCipherFinal<0,CryptoPP::DES::Base> >, COMDAT
; _this$ = ecx

; 58   : 	value_ptr(T *p = NULL) : member_ptr<T>(p) {}

  00000	55		 push	 ebp
  00001	8b ec		 mov	 ebp, esp
  00003	8b c1		 mov	 eax, ecx
  00005	8b 4d 08	 mov	 ecx, DWORD PTR _p$[ebp]
  00008	89 08		 mov	 DWORD PTR [eax], ecx
  0000a	5d		 pop	 ebp
  0000b	c2 04 00	 ret	 4
??0?$value_ptr@V?$BlockCipherFinal@$0A@VBase@DES@CryptoPP@@@CryptoPP@@@CryptoPP@@QAE@PAV?$BlockCipherFinal@$0A@VBase@DES@CryptoPP@@@1@@Z ENDP ; CryptoPP::value_ptr<CryptoPP::BlockCipherFinal<0,CryptoPP::DES::Base> >::value_ptr<CryptoPP::BlockCipherFinal<0,CryptoPP::DES::Base> >
_TEXT	ENDS
PUBLIC	??0?$SecBlock@EV?$FixedSizeAllocatorWithCleanup@E$07V?$NullAllocator@E@CryptoPP@@$0A@@CryptoPP@@@CryptoPP@@QAE@I@Z ; CryptoPP::SecBlock<unsigned char,CryptoPP::FixedSizeAllocatorWithCleanup<unsigned char,8,CryptoPP::NullAllocator<unsigned char>,0> >::SecBlock<unsigned char,CryptoPP::FixedSizeAllocatorWithCleanup<unsigned char,8,CryptoPP::NullAllocator<unsigned char>,0> >
; Function compile flags: /Ogtp
; File c:\muserver_dev\development\mu-s8ep2-repack\gameserver\crypto\secblock.h
;	COMDAT ??0?$SecBlock@EV?$FixedSizeAllocatorWithCleanup@E$07V?$NullAllocator@E@CryptoPP@@$0A@@CryptoPP@@@CryptoPP@@QAE@I@Z
_TEXT	SEGMENT
_size$ = 8						; size = 4
??0?$SecBlock@EV?$FixedSizeAllocatorWithCleanup@E$07V?$NullAllocator@E@CryptoPP@@$0A@@CryptoPP@@@CryptoPP@@QAE@I@Z PROC ; CryptoPP::SecBlock<unsigned char,CryptoPP::FixedSizeAllocatorWithCleanup<unsigned char,8,CryptoPP::NullAllocator<unsigned char>,0> >::SecBlock<unsigned char,CryptoPP::FixedSizeAllocatorWithCleanup<unsigned char,8,CryptoPP::NullAllocator<unsigned char>,0> >, COMDAT
; _this$ = ecx

; 246  : 	explicit SecBlock(size_type size=0)

  00000	55		 push	 ebp
  00001	8b ec		 mov	 ebp, esp
  00003	8b c1		 mov	 eax, ecx
  00005	8b 4d 08	 mov	 ecx, DWORD PTR _size$[ebp]
  00008	c6 40 09 00	 mov	 BYTE PTR [eax+9], 0
  0000c	89 48 10	 mov	 DWORD PTR [eax+16], ecx
  0000f	83 f9 08	 cmp	 ecx, 8
  00012	77 0b		 ja	 SHORT $LN6@SecBlock
  00014	c6 40 09 01	 mov	 BYTE PTR [eax+9], 1
  00018	89 40 14	 mov	 DWORD PTR [eax+20], eax

; 247  : 		: m_size(size) {m_ptr = m_alloc.allocate(size, NULL);}

  0001b	5d		 pop	 ebp
  0001c	c2 04 00	 ret	 4

; 246  : 	explicit SecBlock(size_type size=0)

$LN6@SecBlock:
  0001f	33 c9		 xor	 ecx, ecx
  00021	89 48 14	 mov	 DWORD PTR [eax+20], ecx

; 247  : 		: m_size(size) {m_ptr = m_alloc.allocate(size, NULL);}

  00024	5d		 pop	 ebp
  00025	c2 04 00	 ret	 4
??0?$SecBlock@EV?$FixedSizeAllocatorWithCleanup@E$07V?$NullAllocator@E@CryptoPP@@$0A@@CryptoPP@@@CryptoPP@@QAE@I@Z ENDP ; CryptoPP::SecBlock<unsigned char,CryptoPP::FixedSizeAllocatorWithCleanup<unsigned char,8,CryptoPP::NullAllocator<unsigned char>,0> >::SecBlock<unsigned char,CryptoPP::FixedSizeAllocatorWithCleanup<unsigned char,8,CryptoPP::NullAllocator<unsigned char>,0> >
_TEXT	ENDS
PUBLIC	??0?$_String_val@DV?$allocator@D@std@@@std@@QAE@V?$allocator@D@1@@Z ; std::_String_val<char,std::allocator<char> >::_String_val<char,std::allocator<char> >
; Function compile flags: /Ogtp
; File c:\program files (x86)\microsoft visual studio 10.0\vc\include\xstring
;	COMDAT ??0?$_String_val@DV?$allocator@D@std@@@std@@QAE@V?$allocator@D@1@@Z
_TEXT	SEGMENT
__Al$ = 8						; size = 1
??0?$_String_val@DV?$allocator@D@std@@@std@@QAE@V?$allocator@D@1@@Z PROC ; std::_String_val<char,std::allocator<char> >::_String_val<char,std::allocator<char> >, COMDAT
; _this$ = ecx

; 454  : 		{	// construct allocator from _Al

  00000	8b c1		 mov	 eax, ecx

; 455  : 		}

  00002	c2 04 00	 ret	 4
??0?$_String_val@DV?$allocator@D@std@@@std@@QAE@V?$allocator@D@1@@Z ENDP ; std::_String_val<char,std::allocator<char> >::_String_val<char,std::allocator<char> >
_TEXT	ENDS
PUBLIC	?_Eos@?$basic_string@DU?$char_traits@D@std@@V?$allocator@D@2@@std@@QAEXI@Z ; std::basic_string<char,std::char_traits<char>,std::allocator<char> >::_Eos
; Function compile flags: /Ogtp
;	COMDAT ?_Eos@?$basic_string@DU?$char_traits@D@std@@V?$allocator@D@2@@std@@QAEXI@Z
_TEXT	SEGMENT
__Newsize$ = 8						; size = 4
?_Eos@?$basic_string@DU?$char_traits@D@std@@V?$allocator@D@2@@std@@QAEXI@Z PROC ; std::basic_string<char,std::char_traits<char>,std::allocator<char> >::_Eos, COMDAT
; _this$ = ecx

; 1952 : 		{	// set new length and null terminator

  00000	55		 push	 ebp
  00001	8b ec		 mov	 ebp, esp

; 1953 : 		_Traits::assign(_Myptr()[this->_Mysize = _Newsize], _Elem());

  00003	83 79 14 10	 cmp	 DWORD PTR [ecx+20], 16	; 00000010H
  00007	8b 45 08	 mov	 eax, DWORD PTR __Newsize$[ebp]
  0000a	89 41 10	 mov	 DWORD PTR [ecx+16], eax
  0000d	72 02		 jb	 SHORT $LN5@Eos
  0000f	8b 09		 mov	 ecx, DWORD PTR [ecx]
$LN5@Eos:
  00011	c6 04 01 00	 mov	 BYTE PTR [ecx+eax], 0

; 1954 : 		}

  00015	5d		 pop	 ebp
  00016	c2 04 00	 ret	 4
?_Eos@?$basic_string@DU?$char_traits@D@std@@V?$allocator@D@2@@std@@QAEXI@Z ENDP ; std::basic_string<char,std::char_traits<char>,std::allocator<char> >::_Eos
_TEXT	ENDS
PUBLIC	?erase@?$basic_string@DU?$char_traits@D@std@@V?$allocator@D@2@@std@@QAEAAV12@II@Z ; std::basic_string<char,std::char_traits<char>,std::allocator<char> >::erase
; Function compile flags: /Ogtp
;	COMDAT ?erase@?$basic_string@DU?$char_traits@D@std@@V?$allocator@D@2@@std@@QAEAAV12@II@Z
_TEXT	SEGMENT
__Off$ = 8						; size = 4
__Count$ = 12						; size = 4
?erase@?$basic_string@DU?$char_traits@D@std@@V?$allocator@D@2@@std@@QAEAAV12@II@Z PROC ; std::basic_string<char,std::char_traits<char>,std::allocator<char> >::erase, COMDAT
; _this$ = ecx

; 1108 : 		{	// erase elements [_Off, _Off + _Count)

  00000	55		 push	 ebp
  00001	8b ec		 mov	 ebp, esp
  00003	56		 push	 esi
  00004	8b f1		 mov	 esi, ecx

; 1109 : 		if (this->_Mysize < _Off)

  00006	8b 46 10	 mov	 eax, DWORD PTR [esi+16]
  00009	8b 4d 08	 mov	 ecx, DWORD PTR __Off$[ebp]
  0000c	57		 push	 edi
  0000d	3b c1		 cmp	 eax, ecx
  0000f	73 0a		 jae	 SHORT $LN3@erase

; 1110 : 			_Xran();	// _Off off end

  00011	68 00 00 00 00	 push	 OFFSET ??_C@_0BI@CFPLBAOH@invalid?5string?5position?$AA@
  00016	e8 00 00 00 00	 call	 ?_Xout_of_range@std@@YAXPBD@Z ; std::_Xout_of_range
$LN28@erase:
$LN3@erase:

; 1111 : 		if (this->_Mysize - _Off < _Count)

  0001b	8b 7d 0c	 mov	 edi, DWORD PTR __Count$[ebp]
  0001e	2b c1		 sub	 eax, ecx
  00020	3b c7		 cmp	 eax, edi
  00022	73 02		 jae	 SHORT $LN2@erase

; 1112 : 			_Count = this->_Mysize - _Off;	// trim _Count

  00024	8b f8		 mov	 edi, eax
$LN2@erase:

; 1113 : 		if (0 < _Count)

  00026	85 ff		 test	 edi, edi
  00028	74 50		 je	 SHORT $LN25@erase

; 1114 : 			{	// move elements down
; 1115 : 			_Traits::move(_Myptr() + _Off, _Myptr() + _Off + _Count,
; 1116 : 				this->_Mysize - _Off - _Count);

  0002a	8b 56 14	 mov	 edx, DWORD PTR [esi+20]
  0002d	53		 push	 ebx
  0002e	83 fa 10	 cmp	 edx, 16			; 00000010H
  00031	72 04		 jb	 SHORT $LN11@erase
  00033	8b 1e		 mov	 ebx, DWORD PTR [esi]
  00035	eb 02		 jmp	 SHORT $LN12@erase
$LN11@erase:
  00037	8b de		 mov	 ebx, esi
$LN12@erase:
  00039	83 fa 10	 cmp	 edx, 16			; 00000010H
  0003c	72 04		 jb	 SHORT $LN15@erase
  0003e	8b 16		 mov	 edx, DWORD PTR [esi]
  00040	eb 02		 jmp	 SHORT $LN16@erase
$LN15@erase:
  00042	8b d6		 mov	 edx, esi
$LN16@erase:
  00044	2b c7		 sub	 eax, edi
  00046	03 d9		 add	 ebx, ecx
  00048	50		 push	 eax
  00049	03 df		 add	 ebx, edi
  0004b	03 d1		 add	 edx, ecx
  0004d	53		 push	 ebx
  0004e	52		 push	 edx
  0004f	e8 00 00 00 00	 call	 _memmove

; 1117 : 			size_type _Newsize = this->_Mysize - _Count;

  00054	8b 46 10	 mov	 eax, DWORD PTR [esi+16]
  00057	83 c4 0c	 add	 esp, 12			; 0000000cH
  0005a	2b c7		 sub	 eax, edi

; 1118 : 			_Eos(_Newsize);

  0005c	83 7e 14 10	 cmp	 DWORD PTR [esi+20], 16	; 00000010H
  00060	89 46 10	 mov	 DWORD PTR [esi+16], eax
  00063	5b		 pop	 ebx
  00064	72 0e		 jb	 SHORT $LN23@erase
  00066	8b 0e		 mov	 ecx, DWORD PTR [esi]
  00068	c6 04 01 00	 mov	 BYTE PTR [ecx+eax], 0
  0006c	5f		 pop	 edi

; 1119 : 			}
; 1120 : 		return (*this);

  0006d	8b c6		 mov	 eax, esi
  0006f	5e		 pop	 esi

; 1121 : 		}

  00070	5d		 pop	 ebp
  00071	c2 08 00	 ret	 8

; 1118 : 			_Eos(_Newsize);

$LN23@erase:
  00074	8b ce		 mov	 ecx, esi
  00076	c6 04 01 00	 mov	 BYTE PTR [ecx+eax], 0
$LN25@erase:

; 1119 : 			}
; 1120 : 		return (*this);

  0007a	5f		 pop	 edi
  0007b	8b c6		 mov	 eax, esi
  0007d	5e		 pop	 esi

; 1121 : 		}

  0007e	5d		 pop	 ebp
  0007f	c2 08 00	 ret	 8
$LN27@erase:
?erase@?$basic_string@DU?$char_traits@D@std@@V?$allocator@D@2@@std@@QAEAAV12@II@Z ENDP ; std::basic_string<char,std::char_traits<char>,std::allocator<char> >::erase
_TEXT	ENDS
PUBLIC	?max_size@?$basic_string@DU?$char_traits@D@std@@V?$allocator@D@2@@std@@QBEIXZ ; std::basic_string<char,std::char_traits<char>,std::allocator<char> >::max_size
; Function compile flags: /Ogtp
;	COMDAT ?max_size@?$basic_string@DU?$char_traits@D@std@@V?$allocator@D@2@@std@@QBEIXZ
_TEXT	SEGMENT
?max_size@?$basic_string@DU?$char_traits@D@std@@V?$allocator@D@2@@std@@QBEIXZ PROC ; std::basic_string<char,std::char_traits<char>,std::allocator<char> >::max_size, COMDAT
; _this$ = ecx

; 1516 : 		size_type _Num = this->_Alval.max_size();
; 1517 : 		return (_Num <= 1 ? 1 : _Num - 1);

  00000	b8 fe ff ff ff	 mov	 eax, -2			; fffffffeH

; 1518 : 		}

  00005	c3		 ret	 0
?max_size@?$basic_string@DU?$char_traits@D@std@@V?$allocator@D@2@@std@@QBEIXZ ENDP ; std::basic_string<char,std::char_traits<char>,std::allocator<char> >::max_size
_TEXT	ENDS
PUBLIC	?allocate@?$allocator@D@std@@QAEPADI@Z		; std::allocator<char>::allocate
; Function compile flags: /Ogtp
; File c:\program files (x86)\microsoft visual studio 10.0\vc\include\xmemory
;	COMDAT ?allocate@?$allocator@D@std@@QAEPADI@Z
_TEXT	SEGMENT
$T166442 = -12						; size = 12
$T166434 = 8						; size = 4
__Count$ = 8						; size = 4
?allocate@?$allocator@D@std@@QAEPADI@Z PROC		; std::allocator<char>::allocate, COMDAT
; _this$ = ecx

; 186  : 		{	// allocate array of _Count elements

  00000	55		 push	 ebp
  00001	8b ec		 mov	 ebp, esp

; 187  : 		return (_Allocate(_Count, (pointer)0));

  00003	8b 4d 08	 mov	 ecx, DWORD PTR __Count$[ebp]
  00006	83 ec 0c	 sub	 esp, 12			; 0000000cH
  00009	33 c0		 xor	 eax, eax
  0000b	85 c9		 test	 ecx, ecx
  0000d	74 3a		 je	 SHORT $LN1@allocate@2
  0000f	83 f9 ff	 cmp	 ecx, -1
  00012	77 0d		 ja	 SHORT $LN3@allocate@2
  00014	51		 push	 ecx
  00015	e8 00 00 00 00	 call	 ??2@YAPAXI@Z		; operator new
  0001a	83 c4 04	 add	 esp, 4
  0001d	85 c0		 test	 eax, eax
  0001f	75 28		 jne	 SHORT $LN1@allocate@2
$LN3@allocate@2:
  00021	8d 45 08	 lea	 eax, DWORD PTR $T166434[ebp]
  00024	50		 push	 eax
  00025	8d 4d f4	 lea	 ecx, DWORD PTR $T166442[ebp]
  00028	c7 45 08 00 00
	00 00		 mov	 DWORD PTR $T166434[ebp], 0
  0002f	e8 00 00 00 00	 call	 ??0exception@std@@QAE@ABQBD@Z ; std::exception::exception
  00034	68 00 00 00 00	 push	 OFFSET __TI2?AVbad_alloc@std@@
  00039	8d 4d f4	 lea	 ecx, DWORD PTR $T166442[ebp]
  0003c	51		 push	 ecx
  0003d	c7 45 f4 00 00
	00 00		 mov	 DWORD PTR $T166442[ebp], OFFSET ??_7bad_alloc@std@@6B@
  00044	e8 00 00 00 00	 call	 __CxxThrowException@8
$LN13@allocate@2:
$LN1@allocate@2:

; 188  : 		}

  00049	8b e5		 mov	 esp, ebp
  0004b	5d		 pop	 ebp
  0004c	c2 04 00	 ret	 4
$LN12@allocate@2:
?allocate@?$allocator@D@std@@QAEPADI@Z ENDP		; std::allocator<char>::allocate
_TEXT	ENDS
PUBLIC	??1?$TwoBases@VBlockCipher@CryptoPP@@UDES_XEX3_Info@2@@CryptoPP@@UAE@XZ ; CryptoPP::TwoBases<CryptoPP::BlockCipher,CryptoPP::DES_XEX3_Info>::~TwoBases<CryptoPP::BlockCipher,CryptoPP::DES_XEX3_Info>
; Function compile flags: /Ogtp
;	COMDAT ??1?$TwoBases@VBlockCipher@CryptoPP@@UDES_XEX3_Info@2@@CryptoPP@@UAE@XZ
_TEXT	SEGMENT
??1?$TwoBases@VBlockCipher@CryptoPP@@UDES_XEX3_Info@2@@CryptoPP@@UAE@XZ PROC ; CryptoPP::TwoBases<CryptoPP::BlockCipher,CryptoPP::DES_XEX3_Info>::~TwoBases<CryptoPP::BlockCipher,CryptoPP::DES_XEX3_Info>, COMDAT
; _this$ = ecx
  00000	c3		 ret	 0
??1?$TwoBases@VBlockCipher@CryptoPP@@UDES_XEX3_Info@2@@CryptoPP@@UAE@XZ ENDP ; CryptoPP::TwoBases<CryptoPP::BlockCipher,CryptoPP::DES_XEX3_Info>::~TwoBases<CryptoPP::BlockCipher,CryptoPP::DES_XEX3_Info>
_TEXT	ENDS
PUBLIC	??1?$SecBlock@EV?$AllocatorWithCleanup@E$0A@@CryptoPP@@@CryptoPP@@QAE@XZ ; CryptoPP::SecBlock<unsigned char,CryptoPP::AllocatorWithCleanup<unsigned char,0> >::~SecBlock<unsigned char,CryptoPP::AllocatorWithCleanup<unsigned char,0> >
; Function compile flags: /Ogtp
; File c:\muserver_dev\development\mu-s8ep2-repack\gameserver\crypto\secblock.h
;	COMDAT ??1?$SecBlock@EV?$AllocatorWithCleanup@E$0A@@CryptoPP@@@CryptoPP@@QAE@XZ
_TEXT	SEGMENT
??1?$SecBlock@EV?$AllocatorWithCleanup@E$0A@@CryptoPP@@@CryptoPP@@QAE@XZ PROC ; CryptoPP::SecBlock<unsigned char,CryptoPP::AllocatorWithCleanup<unsigned char,0> >::~SecBlock<unsigned char,CryptoPP::AllocatorWithCleanup<unsigned char,0> >, COMDAT
; _this$ = ecx

; 261  : 		{m_alloc.deallocate(m_ptr, m_size);}

  00000	8b 51 08	 mov	 edx, DWORD PTR [ecx+8]
  00003	8b 49 04	 mov	 ecx, DWORD PTR [ecx+4]
  00006	57		 push	 edi
  00007	8b fa		 mov	 edi, edx
  00009	32 c0		 xor	 al, al
  0000b	52		 push	 edx
  0000c	f3 aa		 rep stosb
  0000e	e8 00 00 00 00	 call	 ?UnalignedDeallocate@CryptoPP@@YAXPAX@Z ; CryptoPP::UnalignedDeallocate
  00013	83 c4 04	 add	 esp, 4
  00016	5f		 pop	 edi
  00017	c3		 ret	 0
??1?$SecBlock@EV?$AllocatorWithCleanup@E$0A@@CryptoPP@@@CryptoPP@@QAE@XZ ENDP ; CryptoPP::SecBlock<unsigned char,CryptoPP::AllocatorWithCleanup<unsigned char,0> >::~SecBlock<unsigned char,CryptoPP::AllocatorWithCleanup<unsigned char,0> >
_TEXT	ENDS
PUBLIC	??1?$SecBlock@EV?$AllocatorWithCleanup@E$00@CryptoPP@@@CryptoPP@@QAE@XZ ; CryptoPP::SecBlock<unsigned char,CryptoPP::AllocatorWithCleanup<unsigned char,1> >::~SecBlock<unsigned char,CryptoPP::AllocatorWithCleanup<unsigned char,1> >
; Function compile flags: /Ogtp
;	COMDAT ??1?$SecBlock@EV?$AllocatorWithCleanup@E$00@CryptoPP@@@CryptoPP@@QAE@XZ
_TEXT	SEGMENT
??1?$SecBlock@EV?$AllocatorWithCleanup@E$00@CryptoPP@@@CryptoPP@@QAE@XZ PROC ; CryptoPP::SecBlock<unsigned char,CryptoPP::AllocatorWithCleanup<unsigned char,1> >::~SecBlock<unsigned char,CryptoPP::AllocatorWithCleanup<unsigned char,1> >, COMDAT
; _this$ = ecx

; 261  : 		{m_alloc.deallocate(m_ptr, m_size);}

  00000	8b 51 04	 mov	 edx, DWORD PTR [ecx+4]
  00003	56		 push	 esi
  00004	8b 71 08	 mov	 esi, DWORD PTR [ecx+8]
  00007	57		 push	 edi
  00008	32 c0		 xor	 al, al
  0000a	8b fe		 mov	 edi, esi
  0000c	8b ca		 mov	 ecx, edx
  0000e	f3 aa		 rep stosb
  00010	56		 push	 esi
  00011	83 fa 10	 cmp	 edx, 16			; 00000010H
  00014	72 0b		 jb	 SHORT $LN3@SecBlock@2
  00016	e8 00 00 00 00	 call	 ?AlignedDeallocate@CryptoPP@@YAXPAX@Z ; CryptoPP::AlignedDeallocate
  0001b	83 c4 04	 add	 esp, 4
  0001e	5f		 pop	 edi
  0001f	5e		 pop	 esi
  00020	c3		 ret	 0
$LN3@SecBlock@2:
  00021	e8 00 00 00 00	 call	 ?UnalignedDeallocate@CryptoPP@@YAXPAX@Z ; CryptoPP::UnalignedDeallocate
  00026	83 c4 04	 add	 esp, 4
  00029	5f		 pop	 edi
  0002a	5e		 pop	 esi
  0002b	c3		 ret	 0
??1?$SecBlock@EV?$AllocatorWithCleanup@E$00@CryptoPP@@@CryptoPP@@QAE@XZ ENDP ; CryptoPP::SecBlock<unsigned char,CryptoPP::AllocatorWithCleanup<unsigned char,1> >::~SecBlock<unsigned char,CryptoPP::AllocatorWithCleanup<unsigned char,1> >
_TEXT	ENDS
PUBLIC	??1?$SecBlock@EV?$FixedSizeAllocatorWithCleanup@E$07V?$NullAllocator@E@CryptoPP@@$0A@@CryptoPP@@@CryptoPP@@QAE@XZ ; CryptoPP::SecBlock<unsigned char,CryptoPP::FixedSizeAllocatorWithCleanup<unsigned char,8,CryptoPP::NullAllocator<unsigned char>,0> >::~SecBlock<unsigned char,CryptoPP::FixedSizeAllocatorWithCleanup<unsigned char,8,CryptoPP::NullAllocator<unsigned char>,0> >
; Function compile flags: /Ogtp
;	COMDAT ??1?$SecBlock@EV?$FixedSizeAllocatorWithCleanup@E$07V?$NullAllocator@E@CryptoPP@@$0A@@CryptoPP@@@CryptoPP@@QAE@XZ
_TEXT	SEGMENT
??1?$SecBlock@EV?$FixedSizeAllocatorWithCleanup@E$07V?$NullAllocator@E@CryptoPP@@$0A@@CryptoPP@@@CryptoPP@@QAE@XZ PROC ; CryptoPP::SecBlock<unsigned char,CryptoPP::FixedSizeAllocatorWithCleanup<unsigned char,8,CryptoPP::NullAllocator<unsigned char>,0> >::~SecBlock<unsigned char,CryptoPP::FixedSizeAllocatorWithCleanup<unsigned char,8,CryptoPP::NullAllocator<unsigned char>,0> >, COMDAT
; _this$ = ecx

; 261  : 		{m_alloc.deallocate(m_ptr, m_size);}

  00000	57		 push	 edi
  00001	8b 79 14	 mov	 edi, DWORD PTR [ecx+20]
  00004	3b f9		 cmp	 edi, ecx
  00006	75 0b		 jne	 SHORT $LN27@SecBlock@3
  00008	c6 41 09 00	 mov	 BYTE PTR [ecx+9], 0
  0000c	8b 49 10	 mov	 ecx, DWORD PTR [ecx+16]
  0000f	32 c0		 xor	 al, al
  00011	f3 aa		 rep stosb
$LN27@SecBlock@3:
  00013	5f		 pop	 edi
  00014	c3		 ret	 0
??1?$SecBlock@EV?$FixedSizeAllocatorWithCleanup@E$07V?$NullAllocator@E@CryptoPP@@$0A@@CryptoPP@@@CryptoPP@@QAE@XZ ENDP ; CryptoPP::SecBlock<unsigned char,CryptoPP::FixedSizeAllocatorWithCleanup<unsigned char,8,CryptoPP::NullAllocator<unsigned char>,0> >::~SecBlock<unsigned char,CryptoPP::FixedSizeAllocatorWithCleanup<unsigned char,8,CryptoPP::NullAllocator<unsigned char>,0> >
_TEXT	ENDS
PUBLIC	??0?$TwoBases@VBlockCipher@CryptoPP@@UDES_XEX3_Info@2@@CryptoPP@@QAE@XZ ; CryptoPP::TwoBases<CryptoPP::BlockCipher,CryptoPP::DES_XEX3_Info>::TwoBases<CryptoPP::BlockCipher,CryptoPP::DES_XEX3_Info>
; Function compile flags: /Ogtp
;	COMDAT ??0?$TwoBases@VBlockCipher@CryptoPP@@UDES_XEX3_Info@2@@CryptoPP@@QAE@XZ
_TEXT	SEGMENT
??0?$TwoBases@VBlockCipher@CryptoPP@@UDES_XEX3_Info@2@@CryptoPP@@QAE@XZ PROC ; CryptoPP::TwoBases<CryptoPP::BlockCipher,CryptoPP::DES_XEX3_Info>::TwoBases<CryptoPP::BlockCipher,CryptoPP::DES_XEX3_Info>, COMDAT
; _this$ = ecx
  00000	56		 push	 esi
  00001	8b f1		 mov	 esi, ecx
  00003	6a 01		 push	 1
  00005	8d 4e 04	 lea	 ecx, DWORD PTR [esi+4]
  00008	e8 00 00 00 00	 call	 ??0Algorithm@CryptoPP@@QAE@_N@Z ; CryptoPP::Algorithm::Algorithm
  0000d	8b c6		 mov	 eax, esi
  0000f	5e		 pop	 esi
  00010	c3		 ret	 0
??0?$TwoBases@VBlockCipher@CryptoPP@@UDES_XEX3_Info@2@@CryptoPP@@QAE@XZ ENDP ; CryptoPP::TwoBases<CryptoPP::BlockCipher,CryptoPP::DES_XEX3_Info>::TwoBases<CryptoPP::BlockCipher,CryptoPP::DES_XEX3_Info>
_TEXT	ENDS
PUBLIC	??0?$FixedSizeSecBlock@E$07V?$FixedSizeAllocatorWithCleanup@E$07V?$NullAllocator@E@CryptoPP@@$0A@@CryptoPP@@@CryptoPP@@QAE@XZ ; CryptoPP::FixedSizeSecBlock<unsigned char,8,CryptoPP::FixedSizeAllocatorWithCleanup<unsigned char,8,CryptoPP::NullAllocator<unsigned char>,0> >::FixedSizeSecBlock<unsigned char,8,CryptoPP::FixedSizeAllocatorWithCleanup<unsigned char,8,CryptoPP::NullAllocator<unsigned char>,0> >
; Function compile flags: /Ogtp
;	COMDAT ??0?$FixedSizeSecBlock@E$07V?$FixedSizeAllocatorWithCleanup@E$07V?$NullAllocator@E@CryptoPP@@$0A@@CryptoPP@@@CryptoPP@@QAE@XZ
_TEXT	SEGMENT
??0?$FixedSizeSecBlock@E$07V?$FixedSizeAllocatorWithCleanup@E$07V?$NullAllocator@E@CryptoPP@@$0A@@CryptoPP@@@CryptoPP@@QAE@XZ PROC ; CryptoPP::FixedSizeSecBlock<unsigned char,8,CryptoPP::FixedSizeAllocatorWithCleanup<unsigned char,8,CryptoPP::NullAllocator<unsigned char>,0> >::FixedSizeSecBlock<unsigned char,8,CryptoPP::FixedSizeAllocatorWithCleanup<unsigned char,8,CryptoPP::NullAllocator<unsigned char>,0> >, COMDAT
; _this$ = ecx

; 425  : 	explicit FixedSizeSecBlock() : SecBlock<T, A>(S) {}

  00000	8b c1		 mov	 eax, ecx
  00002	c7 40 10 08 00
	00 00		 mov	 DWORD PTR [eax+16], 8
  00009	c6 40 09 01	 mov	 BYTE PTR [eax+9], 1
  0000d	89 40 14	 mov	 DWORD PTR [eax+20], eax
  00010	c3		 ret	 0
??0?$FixedSizeSecBlock@E$07V?$FixedSizeAllocatorWithCleanup@E$07V?$NullAllocator@E@CryptoPP@@$0A@@CryptoPP@@@CryptoPP@@QAE@XZ ENDP ; CryptoPP::FixedSizeSecBlock<unsigned char,8,CryptoPP::FixedSizeAllocatorWithCleanup<unsigned char,8,CryptoPP::NullAllocator<unsigned char>,0> >::FixedSizeSecBlock<unsigned char,8,CryptoPP::FixedSizeAllocatorWithCleanup<unsigned char,8,CryptoPP::NullAllocator<unsigned char>,0> >
_TEXT	ENDS
PUBLIC	?_Tidy@?$basic_string@DU?$char_traits@D@std@@V?$allocator@D@2@@std@@QAEX_NI@Z ; std::basic_string<char,std::char_traits<char>,std::allocator<char> >::_Tidy
; Function compile flags: /Ogtp
; File c:\program files (x86)\microsoft visual studio 10.0\vc\include\xstring
;	COMDAT ?_Tidy@?$basic_string@DU?$char_traits@D@std@@V?$allocator@D@2@@std@@QAEX_NI@Z
_TEXT	SEGMENT
__Built$ = 8						; size = 1
__Newsize$ = 12						; size = 4
?_Tidy@?$basic_string@DU?$char_traits@D@std@@V?$allocator@D@2@@std@@QAEX_NI@Z PROC ; std::basic_string<char,std::char_traits<char>,std::allocator<char> >::_Tidy, COMDAT
; _this$ = ecx

; 1987 : 		{	// initialize buffer, deallocating any storage

  00000	55		 push	 ebp
  00001	8b ec		 mov	 ebp, esp

; 1988 : 		if (!_Built)

  00003	80 7d 08 00	 cmp	 BYTE PTR __Built$[ebp], 0
  00007	56		 push	 esi
  00008	57		 push	 edi
  00009	8b 7d 0c	 mov	 edi, DWORD PTR __Newsize$[ebp]
  0000c	8b f1		 mov	 esi, ecx
  0000e	74 22		 je	 SHORT $LN9@Tidy

; 1989 : 			;
; 1990 : 		else if (this->_BUF_SIZE <= this->_Myres)

  00010	83 7e 14 10	 cmp	 DWORD PTR [esi+20], 16	; 00000010H
  00014	72 1c		 jb	 SHORT $LN9@Tidy

; 1991 : 			{	// copy any leftovers to small buffer and deallocate
; 1992 : 			_Elem *_Ptr = this->_Bx._Ptr;

  00016	53		 push	 ebx
  00017	8b 1e		 mov	 ebx, DWORD PTR [esi]

; 1993 : 			if (0 < _Newsize)

  00019	85 ff		 test	 edi, edi
  0001b	74 0b		 je	 SHORT $LN7@Tidy

; 1994 : 				_Traits::copy(this->_Bx._Buf, _Ptr, _Newsize);

  0001d	57		 push	 edi
  0001e	53		 push	 ebx
  0001f	56		 push	 esi
  00020	e8 00 00 00 00	 call	 _memcpy
  00025	83 c4 0c	 add	 esp, 12			; 0000000cH
$LN7@Tidy:

; 1995 : 			this->_Alval.deallocate(_Ptr, this->_Myres + 1);

  00028	53		 push	 ebx
  00029	e8 00 00 00 00	 call	 ??3@YAXPAX@Z		; operator delete
  0002e	83 c4 04	 add	 esp, 4
  00031	5b		 pop	 ebx
$LN9@Tidy:

; 1996 : 			}
; 1997 : 		this->_Myres = this->_BUF_SIZE - 1;
; 1998 : 		_Eos(_Newsize);

  00032	89 7e 10	 mov	 DWORD PTR [esi+16], edi
  00035	c7 46 14 0f 00
	00 00		 mov	 DWORD PTR [esi+20], 15	; 0000000fH
  0003c	c6 04 37 00	 mov	 BYTE PTR [edi+esi], 0
  00040	5f		 pop	 edi
  00041	5e		 pop	 esi

; 1999 : 		}

  00042	5d		 pop	 ebp
  00043	c2 08 00	 ret	 8
?_Tidy@?$basic_string@DU?$char_traits@D@std@@V?$allocator@D@2@@std@@QAEX_NI@Z ENDP ; std::basic_string<char,std::char_traits<char>,std::allocator<char> >::_Tidy
_TEXT	ENDS
PUBLIC	?_Copy@?$basic_string@DU?$char_traits@D@std@@V?$allocator@D@2@@std@@QAEXII@Z ; std::basic_string<char,std::char_traits<char>,std::allocator<char> >::_Copy
EXTRN	___CxxFrameHandler3:PROC
;	COMDAT xdata$x
; File c:\program files (x86)\microsoft visual studio 10.0\vc\include\iosfwd
xdata$x	SEGMENT
__catchsym$?_Copy@?$basic_string@DU?$char_traits@D@std@@V?$allocator@D@2@@std@@QAEXII@Z$5 DD 040H
	DD	00H
	DD	00H
	DD	FLAT:__catch$?_Copy@?$basic_string@DU?$char_traits@D@std@@V?$allocator@D@2@@std@@QAEXII@Z$0
__catchsym$?_Copy@?$basic_string@DU?$char_traits@D@std@@V?$allocator@D@2@@std@@QAEXII@Z$4 DD 040H
	DD	00H
	DD	00H
	DD	FLAT:__catch$?_Copy@?$basic_string@DU?$char_traits@D@std@@V?$allocator@D@2@@std@@QAEXII@Z$1
__unwindtable$?_Copy@?$basic_string@DU?$char_traits@D@std@@V?$allocator@D@2@@std@@QAEXII@Z DD 0ffffffffH
	DD	00H
	DD	0ffffffffH
	DD	00H
	DD	01H
	DD	00H
	DD	01H
	DD	00H
__ehfuncinfo$?_Copy@?$basic_string@DU?$char_traits@D@std@@V?$allocator@D@2@@std@@QAEXII@Z DD 019930522H
	DD	04H
	DD	FLAT:__unwindtable$?_Copy@?$basic_string@DU?$char_traits@D@std@@V?$allocator@D@2@@std@@QAEXII@Z
	DD	02H
	DD	FLAT:__tryblocktable$?_Copy@?$basic_string@DU?$char_traits@D@std@@V?$allocator@D@2@@std@@QAEXII@Z
	DD	2 DUP(00H)
	DD	00H
	DD	01H
__tryblocktable$?_Copy@?$basic_string@DU?$char_traits@D@std@@V?$allocator@D@2@@std@@QAEXII@Z DD 02H
	DD	02H
	DD	03H
	DD	01H
	DD	FLAT:__catchsym$?_Copy@?$basic_string@DU?$char_traits@D@std@@V?$allocator@D@2@@std@@QAEXII@Z$4
	DD	00H
	DD	00H
	DD	03H
	DD	01H
	DD	FLAT:__catchsym$?_Copy@?$basic_string@DU?$char_traits@D@std@@V?$allocator@D@2@@std@@QAEXII@Z$5
; Function compile flags: /Ogtp
; File c:\program files (x86)\microsoft visual studio 10.0\vc\include\xstring
xdata$x	ENDS
;	COMDAT ?_Copy@?$basic_string@DU?$char_traits@D@std@@V?$allocator@D@2@@std@@QAEXII@Z
_TEXT	SEGMENT
$T166887 = -40						; size = 12
__Newres$ = -28						; size = 4
$T166864 = -24						; size = 4
_this$ = -20						; size = 4
__$EHRec$ = -16						; size = 16
__Ptr$ = 8						; size = 4
__Newsize$ = 8						; size = 4
__Oldlen$ = 12						; size = 4
?_Copy@?$basic_string@DU?$char_traits@D@std@@V?$allocator@D@2@@std@@QAEXII@Z PROC ; std::basic_string<char,std::char_traits<char>,std::allocator<char> >::_Copy, COMDAT
; _this$ = ecx

; 1918 : 		{	// copy _Oldlen elements to newly allocated buffer

  00000	55		 push	 ebp
  00001	8b ec		 mov	 ebp, esp
  00003	6a ff		 push	 -1
  00005	68 00 00 00 00	 push	 __ehhandler$?_Copy@?$basic_string@DU?$char_traits@D@std@@V?$allocator@D@2@@std@@QAEXII@Z
  0000a	64 a1 00 00 00
	00		 mov	 eax, DWORD PTR fs:0
  00010	50		 push	 eax
  00011	83 ec 1c	 sub	 esp, 28			; 0000001cH
  00014	53		 push	 ebx
  00015	56		 push	 esi
  00016	57		 push	 edi
  00017	a1 00 00 00 00	 mov	 eax, DWORD PTR ___security_cookie
  0001c	33 c5		 xor	 eax, ebp
  0001e	50		 push	 eax
  0001f	8d 45 f4	 lea	 eax, DWORD PTR __$EHRec$[ebp+4]
  00022	64 a3 00 00 00
	00		 mov	 DWORD PTR fs:0, eax
  00028	89 65 f0	 mov	 DWORD PTR __$EHRec$[ebp], esp
  0002b	8b f9		 mov	 edi, ecx
  0002d	89 7d ec	 mov	 DWORD PTR _this$[ebp], edi

; 1919 : 		size_type _Newres = _Newsize | this->_ALLOC_MASK;

  00030	8b 45 08	 mov	 eax, DWORD PTR __Newsize$[ebp]
  00033	8b f0		 mov	 esi, eax
  00035	83 ce 0f	 or	 esi, 15			; 0000000fH

; 1920 : 		if (max_size() < _Newres)

  00038	83 fe fe	 cmp	 esi, -2			; fffffffeH
  0003b	76 04		 jbe	 SHORT $LN9@Copy

; 1921 : 			_Newres = _Newsize;	// undo roundup if too big

  0003d	8b f0		 mov	 esi, eax
  0003f	eb 27		 jmp	 SHORT $LN39@Copy
$LN9@Copy:

; 1922 : 		else if (this->_Myres / 2 <= _Newres / 3)

  00041	8b 5f 14	 mov	 ebx, DWORD PTR [edi+20]
  00044	b8 ab aa aa aa	 mov	 eax, -1431655765	; aaaaaaabH
  00049	f7 e6		 mul	 esi
  0004b	8b cb		 mov	 ecx, ebx
  0004d	d1 e9		 shr	 ecx, 1
  0004f	d1 ea		 shr	 edx, 1
  00051	3b ca		 cmp	 ecx, edx
  00053	76 13		 jbe	 SHORT $LN39@Copy

; 1923 : 			;
; 1924 : 		else if (this->_Myres <= max_size() - this->_Myres / 2)

  00055	b8 fe ff ff ff	 mov	 eax, -2			; fffffffeH
  0005a	2b c1		 sub	 eax, ecx

; 1925 : 			_Newres = this->_Myres
; 1926 : 				+ this->_Myres / 2;	// grow exponentially if possible

  0005c	8d 34 19	 lea	 esi, DWORD PTR [ecx+ebx]
  0005f	3b d8		 cmp	 ebx, eax
  00061	76 05		 jbe	 SHORT $LN39@Copy

; 1927 : 		else
; 1928 : 			_Newres = max_size();	// settle for max_size()

  00063	be fe ff ff ff	 mov	 esi, -2			; fffffffeH
$LN39@Copy:

; 1929 : 
; 1930 : 		_Elem *_Ptr;
; 1931 : 		_TRY_BEGIN

  00068	33 c0		 xor	 eax, eax

; 1932 : 			_Ptr = this->_Alval.allocate(_Newres + 1);

  0006a	8d 4e 01	 lea	 ecx, DWORD PTR [esi+1]
  0006d	89 45 fc	 mov	 DWORD PTR __$EHRec$[ebp+12], eax
  00070	3b c8		 cmp	 ecx, eax
  00072	76 12		 jbe	 SHORT $LN47@Copy
  00074	83 f9 ff	 cmp	 ecx, -1
  00077	77 12		 ja	 SHORT $LN46@Copy
  00079	51		 push	 ecx
  0007a	e8 00 00 00 00	 call	 ??2@YAPAXI@Z		; operator new
  0007f	83 c4 04	 add	 esp, 4
  00082	85 c0		 test	 eax, eax
  00084	74 05		 je	 SHORT $LN46@Copy
$LN47@Copy:
  00086	89 45 08	 mov	 DWORD PTR __Ptr$[ebp], eax
  00089	eb 51		 jmp	 SHORT $LN19@Copy
$LN46@Copy:
  0008b	8d 4d e8	 lea	 ecx, DWORD PTR $T166864[ebp]
  0008e	51		 push	 ecx
  0008f	8d 4d d8	 lea	 ecx, DWORD PTR $T166887[ebp]
  00092	c7 45 e8 00 00
	00 00		 mov	 DWORD PTR $T166864[ebp], 0
  00099	e8 00 00 00 00	 call	 ??0exception@std@@QAE@ABQBD@Z ; std::exception::exception
  0009e	68 00 00 00 00	 push	 OFFSET __TI2?AVbad_alloc@std@@
  000a3	8d 55 d8	 lea	 edx, DWORD PTR $T166887[ebp]
  000a6	52		 push	 edx
  000a7	c7 45 d8 00 00
	00 00		 mov	 DWORD PTR $T166887[ebp], OFFSET ??_7bad_alloc@std@@6B@
  000ae	e8 00 00 00 00	 call	 __CxxThrowException@8
$LN112@Copy:
__catch$?_Copy@?$basic_string@DU?$char_traits@D@std@@V?$allocator@D@2@@std@@QAEXII@Z$0:

; 1933 : 		_CATCH_ALL
; 1934 : 			_Newres = _Newsize;	// allocation failed, undo roundup and retry

  000b3	8b 45 08	 mov	 eax, DWORD PTR __Newsize$[ebp]

; 1935 : 			_TRY_BEGIN
; 1936 : 				_Ptr = this->_Alval.allocate(_Newres + 1);

  000b6	8b 4d ec	 mov	 ecx, DWORD PTR _this$[ebp]
  000b9	89 45 e4	 mov	 DWORD PTR __Newres$[ebp], eax
  000bc	40		 inc	 eax
  000bd	89 65 f0	 mov	 DWORD PTR __$EHRec$[ebp], esp
  000c0	50		 push	 eax
  000c1	83 c1 18	 add	 ecx, 24			; 00000018H
  000c4	c6 45 fc 02	 mov	 BYTE PTR __$EHRec$[ebp+12], 2
  000c8	e8 00 00 00 00	 call	 ?allocate@?$allocator@D@std@@QAEPADI@Z ; std::allocator<char>::allocate
  000cd	89 45 08	 mov	 DWORD PTR __Ptr$[ebp], eax

; 1940 : 			_CATCH_END
; 1941 : 		_CATCH_END

  000d0	b8 00 00 00 00	 mov	 eax, $LN107@Copy
  000d5	c3		 ret	 0
$LN107@Copy:
  000d6	8b 7d ec	 mov	 edi, DWORD PTR _this$[ebp]
  000d9	8b 75 e4	 mov	 esi, DWORD PTR __Newres$[ebp]
$LN19@Copy:

; 1942 : 
; 1943 : 		if (0 < _Oldlen)

  000dc	8b 5d 0c	 mov	 ebx, DWORD PTR __Oldlen$[ebp]
  000df	85 db		 test	 ebx, ebx
  000e1	74 1a		 je	 SHORT $LN78@Copy

; 1944 : 			_Traits::copy(_Ptr, _Myptr(), _Oldlen);	// copy existing elements

  000e3	83 7f 14 10	 cmp	 DWORD PTR [edi+20], 16	; 00000010H
  000e7	72 04		 jb	 SHORT $LN76@Copy
  000e9	8b 07		 mov	 eax, DWORD PTR [edi]
  000eb	eb 02		 jmp	 SHORT $LN77@Copy
$LN76@Copy:
  000ed	8b c7		 mov	 eax, edi
$LN77@Copy:
  000ef	53		 push	 ebx
  000f0	50		 push	 eax
  000f1	8b 45 08	 mov	 eax, DWORD PTR __Ptr$[ebp]
  000f4	50		 push	 eax
  000f5	e8 00 00 00 00	 call	 _memcpy
  000fa	83 c4 0c	 add	 esp, 12			; 0000000cH
$LN78@Copy:

; 1945 : 		_Tidy(true);

  000fd	83 7f 14 10	 cmp	 DWORD PTR [edi+20], 16	; 00000010H
  00101	72 0b		 jb	 SHORT $LN88@Copy
  00103	8b 0f		 mov	 ecx, DWORD PTR [edi]
  00105	51		 push	 ecx
  00106	e8 00 00 00 00	 call	 ??3@YAXPAX@Z		; operator delete
  0010b	83 c4 04	 add	 esp, 4
$LN88@Copy:

; 1946 : 		this->_Bx._Ptr = _Ptr;

  0010e	8b 45 08	 mov	 eax, DWORD PTR __Ptr$[ebp]
  00111	c6 07 00	 mov	 BYTE PTR [edi], 0
  00114	89 07		 mov	 DWORD PTR [edi], eax

; 1947 : 		this->_Myres = _Newres;

  00116	89 77 14	 mov	 DWORD PTR [edi+20], esi

; 1948 : 		_Eos(_Oldlen);

  00119	89 5f 10	 mov	 DWORD PTR [edi+16], ebx
  0011c	83 fe 10	 cmp	 esi, 16			; 00000010H
  0011f	72 02		 jb	 SHORT $LN102@Copy
  00121	8b f8		 mov	 edi, eax
$LN102@Copy:
  00123	c6 04 1f 00	 mov	 BYTE PTR [edi+ebx], 0

; 1949 : 		}

  00127	8b 4d f4	 mov	 ecx, DWORD PTR __$EHRec$[ebp+4]
  0012a	64 89 0d 00 00
	00 00		 mov	 DWORD PTR fs:0, ecx
  00131	59		 pop	 ecx
  00132	5f		 pop	 edi
  00133	5e		 pop	 esi
  00134	5b		 pop	 ebx
  00135	8b e5		 mov	 esp, ebp
  00137	5d		 pop	 ebp
  00138	c2 08 00	 ret	 8
__catch$?_Copy@?$basic_string@DU?$char_traits@D@std@@V?$allocator@D@2@@std@@QAEXII@Z$1:

; 1937 : 			_CATCH_ALL
; 1938 : 			_Tidy(true);	// failed again, discard storage and reraise

  0013b	8b 75 ec	 mov	 esi, DWORD PTR _this$[ebp]
  0013e	83 7e 14 10	 cmp	 DWORD PTR [esi+20], 16	; 00000010H
  00142	72 0b		 jb	 SHORT $LN64@Copy
  00144	8b 16		 mov	 edx, DWORD PTR [esi]
  00146	52		 push	 edx
  00147	e8 00 00 00 00	 call	 ??3@YAXPAX@Z		; operator delete
  0014c	83 c4 04	 add	 esp, 4
$LN64@Copy:

; 1939 : 			_RERAISE;

  0014f	6a 00		 push	 0
  00151	c7 46 14 0f 00
	00 00		 mov	 DWORD PTR [esi+20], 15	; 0000000fH
  00158	c7 46 10 00 00
	00 00		 mov	 DWORD PTR [esi+16], 0
  0015f	6a 00		 push	 0
  00161	c6 06 00	 mov	 BYTE PTR [esi], 0
  00164	e8 00 00 00 00	 call	 __CxxThrowException@8
$LN113@Copy:
$LN111@Copy:
  00169	cc		 int	 3
_TEXT	ENDS
;	COMDAT text$x
text$x	SEGMENT
__ehhandler$?_Copy@?$basic_string@DU?$char_traits@D@std@@V?$allocator@D@2@@std@@QAEXII@Z:
  00000	8b 54 24 08	 mov	 edx, DWORD PTR [esp+8]
  00004	8d 42 0c	 lea	 eax, DWORD PTR [edx+12]
  00007	8b 4a d4	 mov	 ecx, DWORD PTR [edx-44]
  0000a	33 c8		 xor	 ecx, eax
  0000c	e8 00 00 00 00	 call	 @__security_check_cookie@4
  00011	b8 00 00 00 00	 mov	 eax, OFFSET __ehfuncinfo$?_Copy@?$basic_string@DU?$char_traits@D@std@@V?$allocator@D@2@@std@@QAEXII@Z
  00016	e9 00 00 00 00	 jmp	 ___CxxFrameHandler3
text$x	ENDS
?_Copy@?$basic_string@DU?$char_traits@D@std@@V?$allocator@D@2@@std@@QAEXII@Z ENDP ; std::basic_string<char,std::char_traits<char>,std::allocator<char> >::_Copy
PUBLIC	??1CipherModeBase@CryptoPP@@UAE@XZ		; CryptoPP::CipherModeBase::~CipherModeBase
; Function compile flags: /Ogtp
;	COMDAT ??1CipherModeBase@CryptoPP@@UAE@XZ
_TEXT	SEGMENT
??1CipherModeBase@CryptoPP@@UAE@XZ PROC			; CryptoPP::CipherModeBase::~CipherModeBase, COMDAT
; _this$ = ecx
  00000	8b 51 10	 mov	 edx, DWORD PTR [ecx+16]
  00003	56		 push	 esi
  00004	8b 71 14	 mov	 esi, DWORD PTR [ecx+20]
  00007	57		 push	 edi
  00008	32 c0		 xor	 al, al
  0000a	8b fe		 mov	 edi, esi
  0000c	8b ca		 mov	 ecx, edx
  0000e	f3 aa		 rep stosb
  00010	56		 push	 esi
  00011	83 fa 10	 cmp	 edx, 16			; 00000010H
  00014	72 0b		 jb	 SHORT $LN6@CipherMode
  00016	e8 00 00 00 00	 call	 ?AlignedDeallocate@CryptoPP@@YAXPAX@Z ; CryptoPP::AlignedDeallocate
  0001b	83 c4 04	 add	 esp, 4
  0001e	5f		 pop	 edi
  0001f	5e		 pop	 esi
  00020	c3		 ret	 0
$LN6@CipherMode:
  00021	e8 00 00 00 00	 call	 ?UnalignedDeallocate@CryptoPP@@YAXPAX@Z ; CryptoPP::UnalignedDeallocate
  00026	83 c4 04	 add	 esp, 4
  00029	5f		 pop	 edi
  0002a	5e		 pop	 esi
  0002b	c3		 ret	 0
??1CipherModeBase@CryptoPP@@UAE@XZ ENDP			; CryptoPP::CipherModeBase::~CipherModeBase
_TEXT	ENDS
PUBLIC	??1BlockOrientedCipherModeBase@CryptoPP@@UAE@XZ	; CryptoPP::BlockOrientedCipherModeBase::~BlockOrientedCipherModeBase
;	COMDAT xdata$x
xdata$x	SEGMENT
__unwindtable$??1BlockOrientedCipherModeBase@CryptoPP@@UAE@XZ DD 0ffffffffH
	DD	FLAT:__unwindfunclet$??1BlockOrientedCipherModeBase@CryptoPP@@UAE@XZ$0
__ehfuncinfo$??1BlockOrientedCipherModeBase@CryptoPP@@UAE@XZ DD 019930522H
	DD	01H
	DD	FLAT:__unwindtable$??1BlockOrientedCipherModeBase@CryptoPP@@UAE@XZ
	DD	2 DUP(00H)
	DD	2 DUP(00H)
	DD	00H
	DD	01H
; Function compile flags: /Ogtp
xdata$x	ENDS
;	COMDAT ??1BlockOrientedCipherModeBase@CryptoPP@@UAE@XZ
_TEXT	SEGMENT
_this$ = -16						; size = 4
__$EHRec$ = -12						; size = 12
??1BlockOrientedCipherModeBase@CryptoPP@@UAE@XZ PROC	; CryptoPP::BlockOrientedCipherModeBase::~BlockOrientedCipherModeBase, COMDAT
; _this$ = ecx
  00000	55		 push	 ebp
  00001	8b ec		 mov	 ebp, esp
  00003	6a ff		 push	 -1
  00005	68 00 00 00 00	 push	 __ehhandler$??1BlockOrientedCipherModeBase@CryptoPP@@UAE@XZ
  0000a	64 a1 00 00 00
	00		 mov	 eax, DWORD PTR fs:0
  00010	50		 push	 eax
  00011	51		 push	 ecx
  00012	56		 push	 esi
  00013	57		 push	 edi
  00014	a1 00 00 00 00	 mov	 eax, DWORD PTR ___security_cookie
  00019	33 c5		 xor	 eax, ebp
  0001b	50		 push	 eax
  0001c	8d 45 f4	 lea	 eax, DWORD PTR __$EHRec$[ebp]
  0001f	64 a3 00 00 00
	00		 mov	 DWORD PTR fs:0, eax
  00025	8b f1		 mov	 esi, ecx
  00027	89 75 f0	 mov	 DWORD PTR _this$[ebp], esi
  0002a	8b 56 20	 mov	 edx, DWORD PTR [esi+32]
  0002d	8b 4e 1c	 mov	 ecx, DWORD PTR [esi+28]
  00030	8b fa		 mov	 edi, edx
  00032	32 c0		 xor	 al, al
  00034	52		 push	 edx
  00035	c7 45 fc 00 00
	00 00		 mov	 DWORD PTR __$EHRec$[ebp+8], 0
  0003c	f3 aa		 rep stosb
  0003e	e8 00 00 00 00	 call	 ?UnalignedDeallocate@CryptoPP@@YAXPAX@Z ; CryptoPP::UnalignedDeallocate
  00043	8b 56 10	 mov	 edx, DWORD PTR [esi+16]
  00046	8b 76 14	 mov	 esi, DWORD PTR [esi+20]
  00049	83 c4 04	 add	 esp, 4
  0004c	32 c0		 xor	 al, al
  0004e	8b fe		 mov	 edi, esi
  00050	8b ca		 mov	 ecx, edx
  00052	c7 45 fc ff ff
	ff ff		 mov	 DWORD PTR __$EHRec$[ebp+8], -1
  00059	f3 aa		 rep stosb
  0005b	56		 push	 esi
  0005c	83 fa 10	 cmp	 edx, 16			; 00000010H
  0005f	72 19		 jb	 SHORT $LN33@BlockOrien
  00061	e8 00 00 00 00	 call	 ?AlignedDeallocate@CryptoPP@@YAXPAX@Z ; CryptoPP::AlignedDeallocate
  00066	83 c4 04	 add	 esp, 4
  00069	8b 4d f4	 mov	 ecx, DWORD PTR __$EHRec$[ebp]
  0006c	64 89 0d 00 00
	00 00		 mov	 DWORD PTR fs:0, ecx
  00073	59		 pop	 ecx
  00074	5f		 pop	 edi
  00075	5e		 pop	 esi
  00076	8b e5		 mov	 esp, ebp
  00078	5d		 pop	 ebp
  00079	c3		 ret	 0
$LN33@BlockOrien:
  0007a	e8 00 00 00 00	 call	 ?UnalignedDeallocate@CryptoPP@@YAXPAX@Z ; CryptoPP::UnalignedDeallocate
  0007f	83 c4 04	 add	 esp, 4
  00082	8b 4d f4	 mov	 ecx, DWORD PTR __$EHRec$[ebp]
  00085	64 89 0d 00 00
	00 00		 mov	 DWORD PTR fs:0, ecx
  0008c	59		 pop	 ecx
  0008d	5f		 pop	 edi
  0008e	5e		 pop	 esi
  0008f	8b e5		 mov	 esp, ebp
  00091	5d		 pop	 ebp
  00092	c3		 ret	 0
_TEXT	ENDS
;	COMDAT text$x
text$x	SEGMENT
__unwindfunclet$??1BlockOrientedCipherModeBase@CryptoPP@@UAE@XZ$0:
  00000	8b 4d f0	 mov	 ecx, DWORD PTR _this$[ebp]
  00003	e9 00 00 00 00	 jmp	 ??1CipherModeBase@CryptoPP@@UAE@XZ
__ehhandler$??1BlockOrientedCipherModeBase@CryptoPP@@UAE@XZ:
  00008	8b 54 24 08	 mov	 edx, DWORD PTR [esp+8]
  0000c	8d 42 0c	 lea	 eax, DWORD PTR [edx+12]
  0000f	8b 4a f0	 mov	 ecx, DWORD PTR [edx-16]
  00012	33 c8		 xor	 ecx, eax
  00014	e8 00 00 00 00	 call	 @__security_check_cookie@4
  00019	b8 00 00 00 00	 mov	 eax, OFFSET __ehfuncinfo$??1BlockOrientedCipherModeBase@CryptoPP@@UAE@XZ
  0001e	e9 00 00 00 00	 jmp	 ___CxxFrameHandler3
text$x	ENDS
??1BlockOrientedCipherModeBase@CryptoPP@@UAE@XZ ENDP	; CryptoPP::BlockOrientedCipherModeBase::~BlockOrientedCipherModeBase
PUBLIC	??1?$FixedSizeSecBlock@E$07V?$FixedSizeAllocatorWithCleanup@E$07V?$NullAllocator@E@CryptoPP@@$0A@@CryptoPP@@@CryptoPP@@QAE@XZ ; CryptoPP::FixedSizeSecBlock<unsigned char,8,CryptoPP::FixedSizeAllocatorWithCleanup<unsigned char,8,CryptoPP::NullAllocator<unsigned char>,0> >::~FixedSizeSecBlock<unsigned char,8,CryptoPP::FixedSizeAllocatorWithCleanup<unsigned char,8,CryptoPP::NullAllocator<unsigned char>,0> >
; Function compile flags: /Ogtp
;	COMDAT ??1?$FixedSizeSecBlock@E$07V?$FixedSizeAllocatorWithCleanup@E$07V?$NullAllocator@E@CryptoPP@@$0A@@CryptoPP@@@CryptoPP@@QAE@XZ
_TEXT	SEGMENT
??1?$FixedSizeSecBlock@E$07V?$FixedSizeAllocatorWithCleanup@E$07V?$NullAllocator@E@CryptoPP@@$0A@@CryptoPP@@@CryptoPP@@QAE@XZ PROC ; CryptoPP::FixedSizeSecBlock<unsigned char,8,CryptoPP::FixedSizeAllocatorWithCleanup<unsigned char,8,CryptoPP::NullAllocator<unsigned char>,0> >::~FixedSizeSecBlock<unsigned char,8,CryptoPP::FixedSizeAllocatorWithCleanup<unsigned char,8,CryptoPP::NullAllocator<unsigned char>,0> >, COMDAT
; _this$ = ecx
  00000	57		 push	 edi
  00001	8b 79 14	 mov	 edi, DWORD PTR [ecx+20]
  00004	3b f9		 cmp	 edi, ecx
  00006	75 0b		 jne	 SHORT $LN30@FixedSizeS
  00008	c6 41 09 00	 mov	 BYTE PTR [ecx+9], 0
  0000c	8b 49 10	 mov	 ecx, DWORD PTR [ecx+16]
  0000f	32 c0		 xor	 al, al
  00011	f3 aa		 rep stosb
$LN30@FixedSizeS:
  00013	5f		 pop	 edi
  00014	c3		 ret	 0
??1?$FixedSizeSecBlock@E$07V?$FixedSizeAllocatorWithCleanup@E$07V?$NullAllocator@E@CryptoPP@@$0A@@CryptoPP@@@CryptoPP@@QAE@XZ ENDP ; CryptoPP::FixedSizeSecBlock<unsigned char,8,CryptoPP::FixedSizeAllocatorWithCleanup<unsigned char,8,CryptoPP::NullAllocator<unsigned char>,0> >::~FixedSizeSecBlock<unsigned char,8,CryptoPP::FixedSizeAllocatorWithCleanup<unsigned char,8,CryptoPP::NullAllocator<unsigned char>,0> >
_TEXT	ENDS
PUBLIC	??1?$SimpleKeyingInterfaceImpl@V?$TwoBases@VBlockCipher@CryptoPP@@UDES_XEX3_Info@2@@CryptoPP@@V12@@CryptoPP@@UAE@XZ ; CryptoPP::SimpleKeyingInterfaceImpl<CryptoPP::TwoBases<CryptoPP::BlockCipher,CryptoPP::DES_XEX3_Info>,CryptoPP::TwoBases<CryptoPP::BlockCipher,CryptoPP::DES_XEX3_Info> >::~SimpleKeyingInterfaceImpl<CryptoPP::TwoBases<CryptoPP::BlockCipher,CryptoPP::DES_XEX3_Info>,CryptoPP::TwoBases<CryptoPP::BlockCipher,CryptoPP::DES_XEX3_Info> >
; Function compile flags: /Ogtp
;	COMDAT ??1?$SimpleKeyingInterfaceImpl@V?$TwoBases@VBlockCipher@CryptoPP@@UDES_XEX3_Info@2@@CryptoPP@@V12@@CryptoPP@@UAE@XZ
_TEXT	SEGMENT
??1?$SimpleKeyingInterfaceImpl@V?$TwoBases@VBlockCipher@CryptoPP@@UDES_XEX3_Info@2@@CryptoPP@@V12@@CryptoPP@@UAE@XZ PROC ; CryptoPP::SimpleKeyingInterfaceImpl<CryptoPP::TwoBases<CryptoPP::BlockCipher,CryptoPP::DES_XEX3_Info>,CryptoPP::TwoBases<CryptoPP::BlockCipher,CryptoPP::DES_XEX3_Info> >::~SimpleKeyingInterfaceImpl<CryptoPP::TwoBases<CryptoPP::BlockCipher,CryptoPP::DES_XEX3_Info>,CryptoPP::TwoBases<CryptoPP::BlockCipher,CryptoPP::DES_XEX3_Info> >, COMDAT
; _this$ = ecx
  00000	c3		 ret	 0
??1?$SimpleKeyingInterfaceImpl@V?$TwoBases@VBlockCipher@CryptoPP@@UDES_XEX3_Info@2@@CryptoPP@@V12@@CryptoPP@@UAE@XZ ENDP ; CryptoPP::SimpleKeyingInterfaceImpl<CryptoPP::TwoBases<CryptoPP::BlockCipher,CryptoPP::DES_XEX3_Info>,CryptoPP::TwoBases<CryptoPP::BlockCipher,CryptoPP::DES_XEX3_Info> >::~SimpleKeyingInterfaceImpl<CryptoPP::TwoBases<CryptoPP::BlockCipher,CryptoPP::DES_XEX3_Info>,CryptoPP::TwoBases<CryptoPP::BlockCipher,CryptoPP::DES_XEX3_Info> >
_TEXT	ENDS
PUBLIC	??0?$SimpleKeyingInterfaceImpl@V?$TwoBases@VBlockCipher@CryptoPP@@UDES_XEX3_Info@2@@CryptoPP@@V12@@CryptoPP@@QAE@XZ ; CryptoPP::SimpleKeyingInterfaceImpl<CryptoPP::TwoBases<CryptoPP::BlockCipher,CryptoPP::DES_XEX3_Info>,CryptoPP::TwoBases<CryptoPP::BlockCipher,CryptoPP::DES_XEX3_Info> >::SimpleKeyingInterfaceImpl<CryptoPP::TwoBases<CryptoPP::BlockCipher,CryptoPP::DES_XEX3_Info>,CryptoPP::TwoBases<CryptoPP::BlockCipher,CryptoPP::DES_XEX3_Info> >
; Function compile flags: /Ogtp
;	COMDAT ??0?$SimpleKeyingInterfaceImpl@V?$TwoBases@VBlockCipher@CryptoPP@@UDES_XEX3_Info@2@@CryptoPP@@V12@@CryptoPP@@QAE@XZ
_TEXT	SEGMENT
??0?$SimpleKeyingInterfaceImpl@V?$TwoBases@VBlockCipher@CryptoPP@@UDES_XEX3_Info@2@@CryptoPP@@V12@@CryptoPP@@QAE@XZ PROC ; CryptoPP::SimpleKeyingInterfaceImpl<CryptoPP::TwoBases<CryptoPP::BlockCipher,CryptoPP::DES_XEX3_Info>,CryptoPP::TwoBases<CryptoPP::BlockCipher,CryptoPP::DES_XEX3_Info> >::SimpleKeyingInterfaceImpl<CryptoPP::TwoBases<CryptoPP::BlockCipher,CryptoPP::DES_XEX3_Info>,CryptoPP::TwoBases<CryptoPP::BlockCipher,CryptoPP::DES_XEX3_Info> >, COMDAT
; _this$ = ecx
  00000	56		 push	 esi
  00001	8b f1		 mov	 esi, ecx
  00003	6a 01		 push	 1
  00005	8d 4e 04	 lea	 ecx, DWORD PTR [esi+4]
  00008	e8 00 00 00 00	 call	 ??0Algorithm@CryptoPP@@QAE@_N@Z ; CryptoPP::Algorithm::Algorithm
  0000d	8b c6		 mov	 eax, esi
  0000f	5e		 pop	 esi
  00010	c3		 ret	 0
??0?$SimpleKeyingInterfaceImpl@V?$TwoBases@VBlockCipher@CryptoPP@@UDES_XEX3_Info@2@@CryptoPP@@V12@@CryptoPP@@QAE@XZ ENDP ; CryptoPP::SimpleKeyingInterfaceImpl<CryptoPP::TwoBases<CryptoPP::BlockCipher,CryptoPP::DES_XEX3_Info>,CryptoPP::TwoBases<CryptoPP::BlockCipher,CryptoPP::DES_XEX3_Info> >::SimpleKeyingInterfaceImpl<CryptoPP::TwoBases<CryptoPP::BlockCipher,CryptoPP::DES_XEX3_Info>,CryptoPP::TwoBases<CryptoPP::BlockCipher,CryptoPP::DES_XEX3_Info> >
_TEXT	ENDS
PUBLIC	??1?$basic_string@DU?$char_traits@D@std@@V?$allocator@D@2@@std@@QAE@XZ ; std::basic_string<char,std::char_traits<char>,std::allocator<char> >::~basic_string<char,std::char_traits<char>,std::allocator<char> >
; Function compile flags: /Ogtp
;	COMDAT ??1?$basic_string@DU?$char_traits@D@std@@V?$allocator@D@2@@std@@QAE@XZ
_TEXT	SEGMENT
??1?$basic_string@DU?$char_traits@D@std@@V?$allocator@D@2@@std@@QAE@XZ PROC ; std::basic_string<char,std::char_traits<char>,std::allocator<char> >::~basic_string<char,std::char_traits<char>,std::allocator<char> >, COMDAT
; _this$ = ecx

; 752  : 		{	// destroy the string

  00000	56		 push	 esi
  00001	8b f1		 mov	 esi, ecx

; 753  : 		_Tidy(true);

  00003	83 7e 14 10	 cmp	 DWORD PTR [esi+20], 16	; 00000010H
  00007	72 0b		 jb	 SHORT $LN11@basic_stri
  00009	8b 06		 mov	 eax, DWORD PTR [esi]
  0000b	50		 push	 eax
  0000c	e8 00 00 00 00	 call	 ??3@YAXPAX@Z		; operator delete
  00011	83 c4 04	 add	 esp, 4
$LN11@basic_stri:
  00014	c7 46 14 0f 00
	00 00		 mov	 DWORD PTR [esi+20], 15	; 0000000fH
  0001b	c7 46 10 00 00
	00 00		 mov	 DWORD PTR [esi+16], 0
  00022	c6 06 00	 mov	 BYTE PTR [esi], 0
  00025	5e		 pop	 esi

; 754  : 		}

  00026	c3		 ret	 0
??1?$basic_string@DU?$char_traits@D@std@@V?$allocator@D@2@@std@@QAE@XZ ENDP ; std::basic_string<char,std::char_traits<char>,std::allocator<char> >::~basic_string<char,std::char_traits<char>,std::allocator<char> >
_TEXT	ENDS
PUBLIC	?_Grow@?$basic_string@DU?$char_traits@D@std@@V?$allocator@D@2@@std@@QAE_NI_N@Z ; std::basic_string<char,std::char_traits<char>,std::allocator<char> >::_Grow
; Function compile flags: /Ogtp
;	COMDAT ?_Grow@?$basic_string@DU?$char_traits@D@std@@V?$allocator@D@2@@std@@QAE_NI_N@Z
_TEXT	SEGMENT
__Newsize$ = 8						; size = 4
__Trim$ = 12						; size = 1
?_Grow@?$basic_string@DU?$char_traits@D@std@@V?$allocator@D@2@@std@@QAE_NI_N@Z PROC ; std::basic_string<char,std::char_traits<char>,std::allocator<char> >::_Grow, COMDAT
; _this$ = ecx

; 1958 : 		{	// ensure buffer is big enough, trim to size if _Trim is true

  00000	55		 push	 ebp
  00001	8b ec		 mov	 ebp, esp
  00003	53		 push	 ebx

; 1959 : 		if (max_size() < _Newsize)

  00004	8b 5d 08	 mov	 ebx, DWORD PTR __Newsize$[ebp]
  00007	56		 push	 esi
  00008	8b f1		 mov	 esi, ecx
  0000a	83 fb fe	 cmp	 ebx, -2			; fffffffeH
  0000d	76 0a		 jbe	 SHORT $LN6@Grow

; 1960 : 			_Xlen();	// result too long

  0000f	68 00 00 00 00	 push	 OFFSET ??_C@_0BA@JFNIOLAK@string?5too?5long?$AA@
  00014	e8 00 00 00 00	 call	 ?_Xlength_error@std@@YAXPBD@Z ; std::_Xlength_error
$LN49@Grow:
$LN6@Grow:

; 1961 : 		if (this->_Myres < _Newsize)

  00019	8b 46 14	 mov	 eax, DWORD PTR [esi+20]
  0001c	3b c3		 cmp	 eax, ebx
  0001e	73 18		 jae	 SHORT $LN5@Grow

; 1962 : 			_Copy(_Newsize, this->_Mysize);	// reallocate to grow

  00020	8b 46 10	 mov	 eax, DWORD PTR [esi+16]
  00023	50		 push	 eax
  00024	53		 push	 ebx
  00025	e8 00 00 00 00	 call	 ?_Copy@?$basic_string@DU?$char_traits@D@std@@V?$allocator@D@2@@std@@QAEXII@Z ; std::basic_string<char,std::char_traits<char>,std::allocator<char> >::_Copy

; 1968 : 		return (0 < _Newsize);	// return true only if more work to do

  0002a	33 c9		 xor	 ecx, ecx
  0002c	3b cb		 cmp	 ecx, ebx
  0002e	1b c0		 sbb	 eax, eax
  00030	5e		 pop	 esi
  00031	f7 d8		 neg	 eax
  00033	5b		 pop	 ebx

; 1969 : 		}

  00034	5d		 pop	 ebp
  00035	c2 08 00	 ret	 8
$LN5@Grow:

; 1963 : 		else if (_Trim && _Newsize < this->_BUF_SIZE)

  00038	80 7d 0c 00	 cmp	 BYTE PTR __Trim$[ebp], 0
  0003c	74 4e		 je	 SHORT $LN3@Grow
  0003e	83 fb 10	 cmp	 ebx, 16			; 00000010H
  00041	73 49		 jae	 SHORT $LN3@Grow

; 1964 : 			_Tidy(true,	// copy and deallocate if trimming to small string
; 1965 : 				_Newsize < this->_Mysize ? _Newsize : this->_Mysize);

  00043	57		 push	 edi
  00044	8b 7e 10	 mov	 edi, DWORD PTR [esi+16]
  00047	3b df		 cmp	 ebx, edi
  00049	73 02		 jae	 SHORT $LN9@Grow
  0004b	8b fb		 mov	 edi, ebx
$LN9@Grow:
  0004d	83 f8 10	 cmp	 eax, 16			; 00000010H
  00050	72 1d		 jb	 SHORT $LN30@Grow
  00052	8b 1e		 mov	 ebx, DWORD PTR [esi]
  00054	85 ff		 test	 edi, edi
  00056	74 0b		 je	 SHORT $LN28@Grow
  00058	57		 push	 edi
  00059	53		 push	 ebx
  0005a	56		 push	 esi
  0005b	e8 00 00 00 00	 call	 _memcpy
  00060	83 c4 0c	 add	 esp, 12			; 0000000cH
$LN28@Grow:
  00063	53		 push	 ebx
  00064	e8 00 00 00 00	 call	 ??3@YAXPAX@Z		; operator delete
  00069	8b 5d 08	 mov	 ebx, DWORD PTR __Newsize$[ebp]
  0006c	83 c4 04	 add	 esp, 4
$LN30@Grow:
  0006f	89 7e 10	 mov	 DWORD PTR [esi+16], edi
  00072	c7 46 14 0f 00
	00 00		 mov	 DWORD PTR [esi+20], 15	; 0000000fH

; 1968 : 		return (0 < _Newsize);	// return true only if more work to do

  00079	33 c9		 xor	 ecx, ecx
  0007b	c6 04 37 00	 mov	 BYTE PTR [edi+esi], 0
  0007f	3b cb		 cmp	 ecx, ebx
  00081	5f		 pop	 edi
  00082	1b c0		 sbb	 eax, eax
  00084	5e		 pop	 esi
  00085	f7 d8		 neg	 eax
  00087	5b		 pop	 ebx

; 1969 : 		}

  00088	5d		 pop	 ebp
  00089	c2 08 00	 ret	 8
$LN3@Grow:

; 1966 : 		else if (_Newsize == 0)

  0008c	85 db		 test	 ebx, ebx
  0008e	75 0d		 jne	 SHORT $LN46@Grow

; 1967 : 			_Eos(0);	// new size is zero, just null terminate

  00090	89 5e 10	 mov	 DWORD PTR [esi+16], ebx
  00093	83 f8 10	 cmp	 eax, 16			; 00000010H
  00096	72 02		 jb	 SHORT $LN44@Grow
  00098	8b 36		 mov	 esi, DWORD PTR [esi]
$LN44@Grow:
  0009a	c6 06 00	 mov	 BYTE PTR [esi], 0
$LN46@Grow:

; 1968 : 		return (0 < _Newsize);	// return true only if more work to do

  0009d	33 c9		 xor	 ecx, ecx
  0009f	3b cb		 cmp	 ecx, ebx
  000a1	1b c0		 sbb	 eax, eax
  000a3	5e		 pop	 esi
  000a4	f7 d8		 neg	 eax
  000a6	5b		 pop	 ebx

; 1969 : 		}

  000a7	5d		 pop	 ebp
  000a8	c2 08 00	 ret	 8
$LN48@Grow:
?_Grow@?$basic_string@DU?$char_traits@D@std@@V?$allocator@D@2@@std@@QAE_NI_N@Z ENDP ; std::basic_string<char,std::char_traits<char>,std::allocator<char> >::_Grow
_TEXT	ENDS
PUBLIC	??_7Exception@CryptoPP@@6B@			; CryptoPP::Exception::`vftable'
PUBLIC	??1Exception@CryptoPP@@UAE@XZ			; CryptoPP::Exception::~Exception
PUBLIC	??_R4Exception@CryptoPP@@6B@			; CryptoPP::Exception::`RTTI Complete Object Locator'
PUBLIC	??_R0?AVException@CryptoPP@@@8			; CryptoPP::Exception `RTTI Type Descriptor'
PUBLIC	??_R3Exception@CryptoPP@@8			; CryptoPP::Exception::`RTTI Class Hierarchy Descriptor'
PUBLIC	??_R2Exception@CryptoPP@@8			; CryptoPP::Exception::`RTTI Base Class Array'
PUBLIC	??_R1A@?0A@EA@Exception@CryptoPP@@8		; CryptoPP::Exception::`RTTI Base Class Descriptor at (0,-1,0,64)'
PUBLIC	?what@Exception@CryptoPP@@UBEPBDXZ		; CryptoPP::Exception::what
EXTRN	??_EException@CryptoPP@@UAEPAXI@Z:PROC		; CryptoPP::Exception::`vector deleting destructor'
;	COMDAT ??_R1A@?0A@EA@Exception@CryptoPP@@8
rdata$r	SEGMENT
??_R1A@?0A@EA@Exception@CryptoPP@@8 DD FLAT:??_R0?AVException@CryptoPP@@@8 ; CryptoPP::Exception::`RTTI Base Class Descriptor at (0,-1,0,64)'
	DD	01H
	DD	00H
	DD	0ffffffffH
	DD	00H
	DD	040H
	DD	FLAT:??_R3Exception@CryptoPP@@8
rdata$r	ENDS
;	COMDAT ??_R2Exception@CryptoPP@@8
rdata$r	SEGMENT
??_R2Exception@CryptoPP@@8 DD FLAT:??_R1A@?0A@EA@Exception@CryptoPP@@8 ; CryptoPP::Exception::`RTTI Base Class Array'
	DD	FLAT:??_R1A@?0A@EA@exception@std@@8
rdata$r	ENDS
;	COMDAT ??_R3Exception@CryptoPP@@8
rdata$r	SEGMENT
??_R3Exception@CryptoPP@@8 DD 00H			; CryptoPP::Exception::`RTTI Class Hierarchy Descriptor'
	DD	00H
	DD	02H
	DD	FLAT:??_R2Exception@CryptoPP@@8
rdata$r	ENDS
;	COMDAT ??_R0?AVException@CryptoPP@@@8
_DATA	SEGMENT
??_R0?AVException@CryptoPP@@@8 DD FLAT:??_7type_info@@6B@ ; CryptoPP::Exception `RTTI Type Descriptor'
	DD	00H
	DB	'.?AVException@CryptoPP@@', 00H
_DATA	ENDS
;	COMDAT ??_R4Exception@CryptoPP@@6B@
rdata$r	SEGMENT
??_R4Exception@CryptoPP@@6B@ DD 00H			; CryptoPP::Exception::`RTTI Complete Object Locator'
	DD	00H
	DD	00H
	DD	FLAT:??_R0?AVException@CryptoPP@@@8
	DD	FLAT:??_R3Exception@CryptoPP@@8
rdata$r	ENDS
;	COMDAT ??_7Exception@CryptoPP@@6B@
CONST	SEGMENT
??_7Exception@CryptoPP@@6B@ DD FLAT:??_R4Exception@CryptoPP@@6B@ ; CryptoPP::Exception::`vftable'
	DD	FLAT:??_EException@CryptoPP@@UAEPAXI@Z
	DD	FLAT:?what@Exception@CryptoPP@@UBEPBDXZ
; Function compile flags: /Ogtp
; File c:\muserver_dev\development\mu-s8ep2-repack\gameserver\crypto\cryptlib.h
CONST	ENDS
;	COMDAT ??1Exception@CryptoPP@@UAE@XZ
_TEXT	SEGMENT
??1Exception@CryptoPP@@UAE@XZ PROC			; CryptoPP::Exception::~Exception, COMDAT
; _this$ = ecx

; 132  : 	virtual ~Exception() throw() {}

  00000	56		 push	 esi
  00001	8b f1		 mov	 esi, ecx
  00003	c7 06 00 00 00
	00		 mov	 DWORD PTR [esi], OFFSET ??_7Exception@CryptoPP@@6B@
  00009	83 7e 24 10	 cmp	 DWORD PTR [esi+36], 16	; 00000010H
  0000d	72 0c		 jb	 SHORT $LN13@Exception
  0000f	8b 46 10	 mov	 eax, DWORD PTR [esi+16]
  00012	50		 push	 eax
  00013	e8 00 00 00 00	 call	 ??3@YAXPAX@Z		; operator delete
  00018	83 c4 04	 add	 esp, 4
$LN13@Exception:
  0001b	33 c0		 xor	 eax, eax
  0001d	c7 46 24 0f 00
	00 00		 mov	 DWORD PTR [esi+36], 15	; 0000000fH
  00024	89 46 20	 mov	 DWORD PTR [esi+32], eax
  00027	88 46 10	 mov	 BYTE PTR [esi+16], al
  0002a	8b ce		 mov	 ecx, esi
  0002c	5e		 pop	 esi
  0002d	e9 00 00 00 00	 jmp	 ??1exception@std@@UAE@XZ ; std::exception::~exception
??1Exception@CryptoPP@@UAE@XZ ENDP			; CryptoPP::Exception::~Exception
_TEXT	ENDS
PUBLIC	?c_str@?$basic_string@DU?$char_traits@D@std@@V?$allocator@D@2@@std@@QBEPBDXZ ; std::basic_string<char,std::char_traits<char>,std::allocator<char> >::c_str
; Function compile flags: /Ogtp
; File c:\program files (x86)\microsoft visual studio 10.0\vc\include\xstring
;	COMDAT ?c_str@?$basic_string@DU?$char_traits@D@std@@V?$allocator@D@2@@std@@QBEPBDXZ
_TEXT	SEGMENT
?c_str@?$basic_string@DU?$char_traits@D@std@@V?$allocator@D@2@@std@@QBEPBDXZ PROC ; std::basic_string<char,std::char_traits<char>,std::allocator<char> >::c_str, COMDAT
; _this$ = ecx

; 1495 : 		{	// return pointer to null-terminated nonmutable array

  00000	8b c1		 mov	 eax, ecx

; 1496 : 		return (_Myptr());

  00002	83 78 14 10	 cmp	 DWORD PTR [eax+20], 16	; 00000010H
  00006	72 02		 jb	 SHORT $LN6@c_str
  00008	8b 00		 mov	 eax, DWORD PTR [eax]
$LN6@c_str:

; 1497 : 		}

  0000a	c3		 ret	 0
?c_str@?$basic_string@DU?$char_traits@D@std@@V?$allocator@D@2@@std@@QBEPBDXZ ENDP ; std::basic_string<char,std::char_traits<char>,std::allocator<char> >::c_str
; Function compile flags: /Ogtp
; File c:\muserver_dev\development\mu-s8ep2-repack\gameserver\crypto\cryptlib.h
_TEXT	ENDS
;	COMDAT ?what@Exception@CryptoPP@@UBEPBDXZ
_TEXT	SEGMENT
?what@Exception@CryptoPP@@UBEPBDXZ PROC			; CryptoPP::Exception::what, COMDAT
; _this$ = ecx

; 133  : 	const char *what() const throw() {return (m_what.c_str());}

  00000	83 79 24 10	 cmp	 DWORD PTR [ecx+36], 16	; 00000010H
  00004	8d 41 10	 lea	 eax, DWORD PTR [ecx+16]
  00007	72 02		 jb	 SHORT $LN8@what
  00009	8b 00		 mov	 eax, DWORD PTR [eax]
$LN8@what:
  0000b	c3		 ret	 0
?what@Exception@CryptoPP@@UBEPBDXZ ENDP			; CryptoPP::Exception::what
; Function compile flags: /Ogtp
_TEXT	ENDS
;	COMDAT ??_GException@CryptoPP@@UAEPAXI@Z
_TEXT	SEGMENT
___flags$ = 8						; size = 4
??_GException@CryptoPP@@UAEPAXI@Z PROC			; CryptoPP::Exception::`scalar deleting destructor', COMDAT
; _this$ = ecx
  00000	55		 push	 ebp
  00001	8b ec		 mov	 ebp, esp
  00003	56		 push	 esi
  00004	8b f1		 mov	 esi, ecx
  00006	c7 06 00 00 00
	00		 mov	 DWORD PTR [esi], OFFSET ??_7Exception@CryptoPP@@6B@
  0000c	83 7e 24 10	 cmp	 DWORD PTR [esi+36], 16	; 00000010H
  00010	72 0c		 jb	 SHORT $LN16@scalar@2
  00012	8b 46 10	 mov	 eax, DWORD PTR [esi+16]
  00015	50		 push	 eax
  00016	e8 00 00 00 00	 call	 ??3@YAXPAX@Z		; operator delete
  0001b	83 c4 04	 add	 esp, 4
$LN16@scalar@2:
  0001e	33 c0		 xor	 eax, eax
  00020	c7 46 24 0f 00
	00 00		 mov	 DWORD PTR [esi+36], 15	; 0000000fH
  00027	89 46 20	 mov	 DWORD PTR [esi+32], eax
  0002a	8b ce		 mov	 ecx, esi
  0002c	88 46 10	 mov	 BYTE PTR [esi+16], al
  0002f	e8 00 00 00 00	 call	 ??1exception@std@@UAE@XZ ; std::exception::~exception
  00034	f6 45 08 01	 test	 BYTE PTR ___flags$[ebp], 1
  00038	74 09		 je	 SHORT $LN28@scalar@2
  0003a	56		 push	 esi
  0003b	e8 00 00 00 00	 call	 ??3@YAXPAX@Z		; operator delete
  00040	83 c4 04	 add	 esp, 4
$LN28@scalar@2:
  00043	8b c6		 mov	 eax, esi
  00045	5e		 pop	 esi
  00046	5d		 pop	 ebp
  00047	c2 04 00	 ret	 4
??_GException@CryptoPP@@UAEPAXI@Z ENDP			; CryptoPP::Exception::`scalar deleting destructor'
_TEXT	ENDS
PUBLIC	??1ECB_OneWay@CryptoPP@@UAE@XZ			; CryptoPP::ECB_OneWay::~ECB_OneWay
; Function compile flags: /Ogtp
;	COMDAT ??1ECB_OneWay@CryptoPP@@UAE@XZ
_TEXT	SEGMENT
??1ECB_OneWay@CryptoPP@@UAE@XZ PROC			; CryptoPP::ECB_OneWay::~ECB_OneWay, COMDAT
; _this$ = ecx
  00000	e9 00 00 00 00	 jmp	 ??1BlockOrientedCipherModeBase@CryptoPP@@UAE@XZ
??1ECB_OneWay@CryptoPP@@UAE@XZ ENDP			; CryptoPP::ECB_OneWay::~ECB_OneWay
_TEXT	ENDS
PUBLIC	??1?$AlgorithmImpl@V?$SimpleKeyingInterfaceImpl@V?$TwoBases@VBlockCipher@CryptoPP@@UDES_XEX3_Info@2@@CryptoPP@@V12@@CryptoPP@@V12@@CryptoPP@@UAE@XZ ; CryptoPP::AlgorithmImpl<CryptoPP::SimpleKeyingInterfaceImpl<CryptoPP::TwoBases<CryptoPP::BlockCipher,CryptoPP::DES_XEX3_Info>,CryptoPP::TwoBases<CryptoPP::BlockCipher,CryptoPP::DES_XEX3_Info> >,CryptoPP::SimpleKeyingInterfaceImpl<CryptoPP::TwoBases<CryptoPP::BlockCipher,CryptoPP::DES_XEX3_Info>,CryptoPP::TwoBases<CryptoPP::BlockCipher,CryptoPP::DES_XEX3_Info> > >::~AlgorithmImpl<CryptoPP::SimpleKeyingInterfaceImpl<CryptoPP::TwoBases<CryptoPP::BlockCipher,CryptoPP::DES_XEX3_Info>,CryptoPP::TwoBases<CryptoPP::BlockCipher,CryptoPP::DES_XEX3_Info> >,CryptoPP::SimpleKeyingInterfaceImpl<CryptoPP::TwoBases<CryptoPP::BlockCipher,CryptoPP::DES_XEX3_Info>,CryptoPP::TwoBases<CryptoPP::BlockCipher,CryptoPP::DES_XEX3_Info> > >
; Function compile flags: /Ogtp
;	COMDAT ??1?$AlgorithmImpl@V?$SimpleKeyingInterfaceImpl@V?$TwoBases@VBlockCipher@CryptoPP@@UDES_XEX3_Info@2@@CryptoPP@@V12@@CryptoPP@@V12@@CryptoPP@@UAE@XZ
_TEXT	SEGMENT
??1?$AlgorithmImpl@V?$SimpleKeyingInterfaceImpl@V?$TwoBases@VBlockCipher@CryptoPP@@UDES_XEX3_Info@2@@CryptoPP@@V12@@CryptoPP@@V12@@CryptoPP@@UAE@XZ PROC ; CryptoPP::AlgorithmImpl<CryptoPP::SimpleKeyingInterfaceImpl<CryptoPP::TwoBases<CryptoPP::BlockCipher,CryptoPP::DES_XEX3_Info>,CryptoPP::TwoBases<CryptoPP::BlockCipher,CryptoPP::DES_XEX3_Info> >,CryptoPP::SimpleKeyingInterfaceImpl<CryptoPP::TwoBases<CryptoPP::BlockCipher,CryptoPP::DES_XEX3_Info>,CryptoPP::TwoBases<CryptoPP::BlockCipher,CryptoPP::DES_XEX3_Info> > >::~AlgorithmImpl<CryptoPP::SimpleKeyingInterfaceImpl<CryptoPP::TwoBases<CryptoPP::BlockCipher,CryptoPP::DES_XEX3_Info>,CryptoPP::TwoBases<CryptoPP::BlockCipher,CryptoPP::DES_XEX3_Info> >,CryptoPP::SimpleKeyingInterfaceImpl<CryptoPP::TwoBases<CryptoPP::BlockCipher,CryptoPP::DES_XEX3_Info>,CryptoPP::TwoBases<CryptoPP::BlockCipher,CryptoPP::DES_XEX3_Info> > >, COMDAT
; _this$ = ecx
  00000	c3		 ret	 0
??1?$AlgorithmImpl@V?$SimpleKeyingInterfaceImpl@V?$TwoBases@VBlockCipher@CryptoPP@@UDES_XEX3_Info@2@@CryptoPP@@V12@@CryptoPP@@V12@@CryptoPP@@UAE@XZ ENDP ; CryptoPP::AlgorithmImpl<CryptoPP::SimpleKeyingInterfaceImpl<CryptoPP::TwoBases<CryptoPP::BlockCipher,CryptoPP::DES_XEX3_Info>,CryptoPP::TwoBases<CryptoPP::BlockCipher,CryptoPP::DES_XEX3_Info> >,CryptoPP::SimpleKeyingInterfaceImpl<CryptoPP::TwoBases<CryptoPP::BlockCipher,CryptoPP::DES_XEX3_Info>,CryptoPP::TwoBases<CryptoPP::BlockCipher,CryptoPP::DES_XEX3_Info> > >::~AlgorithmImpl<CryptoPP::SimpleKeyingInterfaceImpl<CryptoPP::TwoBases<CryptoPP::BlockCipher,CryptoPP::DES_XEX3_Info>,CryptoPP::TwoBases<CryptoPP::BlockCipher,CryptoPP::DES_XEX3_Info> >,CryptoPP::SimpleKeyingInterfaceImpl<CryptoPP::TwoBases<CryptoPP::BlockCipher,CryptoPP::DES_XEX3_Info>,CryptoPP::TwoBases<CryptoPP::BlockCipher,CryptoPP::DES_XEX3_Info> > >
_TEXT	ENDS
PUBLIC	??0?$AlgorithmImpl@V?$SimpleKeyingInterfaceImpl@V?$TwoBases@VBlockCipher@CryptoPP@@UDES_XEX3_Info@2@@CryptoPP@@V12@@CryptoPP@@V12@@CryptoPP@@QAE@XZ ; CryptoPP::AlgorithmImpl<CryptoPP::SimpleKeyingInterfaceImpl<CryptoPP::TwoBases<CryptoPP::BlockCipher,CryptoPP::DES_XEX3_Info>,CryptoPP::TwoBases<CryptoPP::BlockCipher,CryptoPP::DES_XEX3_Info> >,CryptoPP::SimpleKeyingInterfaceImpl<CryptoPP::TwoBases<CryptoPP::BlockCipher,CryptoPP::DES_XEX3_Info>,CryptoPP::TwoBases<CryptoPP::BlockCipher,CryptoPP::DES_XEX3_Info> > >::AlgorithmImpl<CryptoPP::SimpleKeyingInterfaceImpl<CryptoPP::TwoBases<CryptoPP::BlockCipher,CryptoPP::DES_XEX3_Info>,CryptoPP::TwoBases<CryptoPP::BlockCipher,CryptoPP::DES_XEX3_Info> >,CryptoPP::SimpleKeyingInterfaceImpl<CryptoPP::TwoBases<CryptoPP::BlockCipher,CryptoPP::DES_XEX3_Info>,CryptoPP::TwoBases<CryptoPP::BlockCipher,CryptoPP::DES_XEX3_Info> > >
; Function compile flags: /Ogtp
;	COMDAT ??0?$AlgorithmImpl@V?$SimpleKeyingInterfaceImpl@V?$TwoBases@VBlockCipher@CryptoPP@@UDES_XEX3_Info@2@@CryptoPP@@V12@@CryptoPP@@V12@@CryptoPP@@QAE@XZ
_TEXT	SEGMENT
??0?$AlgorithmImpl@V?$SimpleKeyingInterfaceImpl@V?$TwoBases@VBlockCipher@CryptoPP@@UDES_XEX3_Info@2@@CryptoPP@@V12@@CryptoPP@@V12@@CryptoPP@@QAE@XZ PROC ; CryptoPP::AlgorithmImpl<CryptoPP::SimpleKeyingInterfaceImpl<CryptoPP::TwoBases<CryptoPP::BlockCipher,CryptoPP::DES_XEX3_Info>,CryptoPP::TwoBases<CryptoPP::BlockCipher,CryptoPP::DES_XEX3_Info> >,CryptoPP::SimpleKeyingInterfaceImpl<CryptoPP::TwoBases<CryptoPP::BlockCipher,CryptoPP::DES_XEX3_Info>,CryptoPP::TwoBases<CryptoPP::BlockCipher,CryptoPP::DES_XEX3_Info> > >::AlgorithmImpl<CryptoPP::SimpleKeyingInterfaceImpl<CryptoPP::TwoBases<CryptoPP::BlockCipher,CryptoPP::DES_XEX3_Info>,CryptoPP::TwoBases<CryptoPP::BlockCipher,CryptoPP::DES_XEX3_Info> >,CryptoPP::SimpleKeyingInterfaceImpl<CryptoPP::TwoBases<CryptoPP::BlockCipher,CryptoPP::DES_XEX3_Info>,CryptoPP::TwoBases<CryptoPP::BlockCipher,CryptoPP::DES_XEX3_Info> > >, COMDAT
; _this$ = ecx
  00000	56		 push	 esi
  00001	8b f1		 mov	 esi, ecx
  00003	6a 01		 push	 1
  00005	8d 4e 04	 lea	 ecx, DWORD PTR [esi+4]
  00008	e8 00 00 00 00	 call	 ??0Algorithm@CryptoPP@@QAE@_N@Z ; CryptoPP::Algorithm::Algorithm
  0000d	8b c6		 mov	 eax, esi
  0000f	5e		 pop	 esi
  00010	c3		 ret	 0
??0?$AlgorithmImpl@V?$SimpleKeyingInterfaceImpl@V?$TwoBases@VBlockCipher@CryptoPP@@UDES_XEX3_Info@2@@CryptoPP@@V12@@CryptoPP@@V12@@CryptoPP@@QAE@XZ ENDP ; CryptoPP::AlgorithmImpl<CryptoPP::SimpleKeyingInterfaceImpl<CryptoPP::TwoBases<CryptoPP::BlockCipher,CryptoPP::DES_XEX3_Info>,CryptoPP::TwoBases<CryptoPP::BlockCipher,CryptoPP::DES_XEX3_Info> >,CryptoPP::SimpleKeyingInterfaceImpl<CryptoPP::TwoBases<CryptoPP::BlockCipher,CryptoPP::DES_XEX3_Info>,CryptoPP::TwoBases<CryptoPP::BlockCipher,CryptoPP::DES_XEX3_Info> > >::AlgorithmImpl<CryptoPP::SimpleKeyingInterfaceImpl<CryptoPP::TwoBases<CryptoPP::BlockCipher,CryptoPP::DES_XEX3_Info>,CryptoPP::TwoBases<CryptoPP::BlockCipher,CryptoPP::DES_XEX3_Info> >,CryptoPP::SimpleKeyingInterfaceImpl<CryptoPP::TwoBases<CryptoPP::BlockCipher,CryptoPP::DES_XEX3_Info>,CryptoPP::TwoBases<CryptoPP::BlockCipher,CryptoPP::DES_XEX3_Info> > >
_TEXT	ENDS
PUBLIC	?assign@?$basic_string@DU?$char_traits@D@std@@V?$allocator@D@2@@std@@QAEAAV12@ABV12@II@Z ; std::basic_string<char,std::char_traits<char>,std::allocator<char> >::assign
; Function compile flags: /Ogtp
; File c:\program files (x86)\microsoft visual studio 10.0\vc\include\xstring
;	COMDAT ?assign@?$basic_string@DU?$char_traits@D@std@@V?$allocator@D@2@@std@@QAEAAV12@ABV12@II@Z
_TEXT	SEGMENT
__Right$ = 8						; size = 4
__Roff$ = 12						; size = 4
__Count$ = 16						; size = 4
?assign@?$basic_string@DU?$char_traits@D@std@@V?$allocator@D@2@@std@@QAEAAV12@ABV12@II@Z PROC ; std::basic_string<char,std::char_traits<char>,std::allocator<char> >::assign, COMDAT
; _this$ = ecx

; 892  : 		{	// assign _Right [_Roff, _Roff + _Count)

  00000	55		 push	 ebp
  00001	8b ec		 mov	 ebp, esp
  00003	53		 push	 ebx

; 893  : 		if (_Right.size() < _Roff)

  00004	8b 5d 0c	 mov	 ebx, DWORD PTR __Roff$[ebp]
  00007	56		 push	 esi
  00008	8b f1		 mov	 esi, ecx
  0000a	8b 4d 08	 mov	 ecx, DWORD PTR __Right$[ebp]
  0000d	57		 push	 edi
  0000e	8b 79 10	 mov	 edi, DWORD PTR [ecx+16]
  00011	3b fb		 cmp	 edi, ebx
  00013	73 0a		 jae	 SHORT $LN5@assign

; 894  : 			_Xran();	// _Roff off end

  00015	68 00 00 00 00	 push	 OFFSET ??_C@_0BI@CFPLBAOH@invalid?5string?5position?$AA@
  0001a	e8 00 00 00 00	 call	 ?_Xout_of_range@std@@YAXPBD@Z ; std::_Xout_of_range
$LN83@assign:
$LN5@assign:

; 895  : 		size_type _Num = _Right.size() - _Roff;
; 896  : 		if (_Count < _Num)

  0001f	8b 45 10	 mov	 eax, DWORD PTR __Count$[ebp]
  00022	2b fb		 sub	 edi, ebx
  00024	3b c7		 cmp	 eax, edi
  00026	73 02		 jae	 SHORT $LN4@assign

; 897  : 			_Num = _Count;	// trim _Num to size

  00028	8b f8		 mov	 edi, eax
$LN4@assign:

; 898  : 
; 899  : 		if (this == &_Right)

  0002a	3b f1		 cmp	 esi, ecx
  0002c	75 1f		 jne	 SHORT $LN3@assign

; 900  : 			erase((size_type)(_Roff + _Num)), erase(0, _Roff);	// substring

  0002e	6a ff		 push	 -1
  00030	03 fb		 add	 edi, ebx
  00032	57		 push	 edi
  00033	8b ce		 mov	 ecx, esi
  00035	e8 00 00 00 00	 call	 ?erase@?$basic_string@DU?$char_traits@D@std@@V?$allocator@D@2@@std@@QAEAAV12@II@Z ; std::basic_string<char,std::char_traits<char>,std::allocator<char> >::erase
  0003a	53		 push	 ebx
  0003b	6a 00		 push	 0
  0003d	8b ce		 mov	 ecx, esi
  0003f	e8 00 00 00 00	 call	 ?erase@?$basic_string@DU?$char_traits@D@std@@V?$allocator@D@2@@std@@QAEAAV12@II@Z ; std::basic_string<char,std::char_traits<char>,std::allocator<char> >::erase
  00044	5f		 pop	 edi

; 905  : 			}
; 906  : 		return (*this);

  00045	8b c6		 mov	 eax, esi
  00047	5e		 pop	 esi
  00048	5b		 pop	 ebx

; 907  : 		}

  00049	5d		 pop	 ebp
  0004a	c2 0c 00	 ret	 12			; 0000000cH
$LN3@assign:

; 901  : 		else if (_Grow(_Num))

  0004d	83 ff fe	 cmp	 edi, -2			; fffffffeH
  00050	76 0a		 jbe	 SHORT $LN20@assign
  00052	68 00 00 00 00	 push	 OFFSET ??_C@_0BA@JFNIOLAK@string?5too?5long?$AA@
  00057	e8 00 00 00 00	 call	 ?_Xlength_error@std@@YAXPBD@Z ; std::_Xlength_error
$LN84@assign:
$LN20@assign:
  0005c	8b 46 14	 mov	 eax, DWORD PTR [esi+20]
  0005f	3b c7		 cmp	 eax, edi
  00061	73 28		 jae	 SHORT $LN19@assign
  00063	8b 46 10	 mov	 eax, DWORD PTR [esi+16]
  00066	50		 push	 eax
  00067	57		 push	 edi
  00068	8b ce		 mov	 ecx, esi
  0006a	e8 00 00 00 00	 call	 ?_Copy@?$basic_string@DU?$char_traits@D@std@@V?$allocator@D@2@@std@@QAEXII@Z ; std::basic_string<char,std::char_traits<char>,std::allocator<char> >::_Copy
  0006f	8b 4d 08	 mov	 ecx, DWORD PTR __Right$[ebp]
  00072	85 ff		 test	 edi, edi
  00074	74 68		 je	 SHORT $LN78@assign
$LN82@assign:

; 902  : 			{	// make room and assign new stuff
; 903  : 			_Traits::copy(_Myptr(), _Right._Myptr() + _Roff, _Num);

  00076	b8 10 00 00 00	 mov	 eax, 16			; 00000010H
  0007b	39 41 14	 cmp	 DWORD PTR [ecx+20], eax
  0007e	72 02		 jb	 SHORT $LN64@assign
  00080	8b 09		 mov	 ecx, DWORD PTR [ecx]
$LN64@assign:
  00082	39 46 14	 cmp	 DWORD PTR [esi+20], eax
  00085	72 2a		 jb	 SHORT $LN68@assign
  00087	8b 06		 mov	 eax, DWORD PTR [esi]
  00089	eb 28		 jmp	 SHORT $LN69@assign

; 901  : 		else if (_Grow(_Num))

$LN19@assign:
  0008b	85 ff		 test	 edi, edi
  0008d	75 e7		 jne	 SHORT $LN82@assign
  0008f	89 7e 10	 mov	 DWORD PTR [esi+16], edi
  00092	83 f8 10	 cmp	 eax, 16			; 00000010H
  00095	72 0e		 jb	 SHORT $LN58@assign
  00097	8b 06		 mov	 eax, DWORD PTR [esi]
  00099	5f		 pop	 edi
  0009a	c6 00 00	 mov	 BYTE PTR [eax], 0

; 905  : 			}
; 906  : 		return (*this);

  0009d	8b c6		 mov	 eax, esi
  0009f	5e		 pop	 esi
  000a0	5b		 pop	 ebx

; 907  : 		}

  000a1	5d		 pop	 ebp
  000a2	c2 0c 00	 ret	 12			; 0000000cH

; 901  : 		else if (_Grow(_Num))

$LN58@assign:
  000a5	5f		 pop	 edi
  000a6	8b c6		 mov	 eax, esi
  000a8	5e		 pop	 esi
  000a9	c6 00 00	 mov	 BYTE PTR [eax], 0
  000ac	5b		 pop	 ebx

; 907  : 		}

  000ad	5d		 pop	 ebp
  000ae	c2 0c 00	 ret	 12			; 0000000cH

; 902  : 			{	// make room and assign new stuff
; 903  : 			_Traits::copy(_Myptr(), _Right._Myptr() + _Roff, _Num);

$LN68@assign:
  000b1	8b c6		 mov	 eax, esi
$LN69@assign:
  000b3	57		 push	 edi
  000b4	03 cb		 add	 ecx, ebx
  000b6	51		 push	 ecx
  000b7	50		 push	 eax
  000b8	e8 00 00 00 00	 call	 _memcpy
  000bd	83 c4 0c	 add	 esp, 12			; 0000000cH

; 904  : 			_Eos(_Num);

  000c0	83 7e 14 10	 cmp	 DWORD PTR [esi+20], 16	; 00000010H
  000c4	89 7e 10	 mov	 DWORD PTR [esi+16], edi
  000c7	72 0f		 jb	 SHORT $LN76@assign
  000c9	8b 06		 mov	 eax, DWORD PTR [esi]
  000cb	c6 04 38 00	 mov	 BYTE PTR [eax+edi], 0
  000cf	5f		 pop	 edi

; 905  : 			}
; 906  : 		return (*this);

  000d0	8b c6		 mov	 eax, esi
  000d2	5e		 pop	 esi
  000d3	5b		 pop	 ebx

; 907  : 		}

  000d4	5d		 pop	 ebp
  000d5	c2 0c 00	 ret	 12			; 0000000cH

; 904  : 			_Eos(_Num);

$LN76@assign:
  000d8	8b c6		 mov	 eax, esi
  000da	c6 04 38 00	 mov	 BYTE PTR [eax+edi], 0
$LN78@assign:

; 905  : 			}
; 906  : 		return (*this);

  000de	5f		 pop	 edi
  000df	8b c6		 mov	 eax, esi
  000e1	5e		 pop	 esi
  000e2	5b		 pop	 ebx

; 907  : 		}

  000e3	5d		 pop	 ebp
  000e4	c2 0c 00	 ret	 12			; 0000000cH
$LN80@assign:
?assign@?$basic_string@DU?$char_traits@D@std@@V?$allocator@D@2@@std@@QAEAAV12@ABV12@II@Z ENDP ; std::basic_string<char,std::char_traits<char>,std::allocator<char> >::assign
_TEXT	ENDS
PUBLIC	??1?$AlgorithmImpl@VECB_OneWay@CryptoPP@@V?$CipherModeFinalTemplate_CipherHolder@V?$BlockCipherFinal@$0A@VBase@DES_XEX3@CryptoPP@@@CryptoPP@@VECB_OneWay@2@@2@@CryptoPP@@UAE@XZ ; CryptoPP::AlgorithmImpl<CryptoPP::ECB_OneWay,CryptoPP::CipherModeFinalTemplate_CipherHolder<CryptoPP::BlockCipherFinal<0,CryptoPP::DES_XEX3::Base>,CryptoPP::ECB_OneWay> >::~AlgorithmImpl<CryptoPP::ECB_OneWay,CryptoPP::CipherModeFinalTemplate_CipherHolder<CryptoPP::BlockCipherFinal<0,CryptoPP::DES_XEX3::Base>,CryptoPP::ECB_OneWay> >
; Function compile flags: /Ogtp
;	COMDAT ??1?$AlgorithmImpl@VECB_OneWay@CryptoPP@@V?$CipherModeFinalTemplate_CipherHolder@V?$BlockCipherFinal@$0A@VBase@DES_XEX3@CryptoPP@@@CryptoPP@@VECB_OneWay@2@@2@@CryptoPP@@UAE@XZ
_TEXT	SEGMENT
??1?$AlgorithmImpl@VECB_OneWay@CryptoPP@@V?$CipherModeFinalTemplate_CipherHolder@V?$BlockCipherFinal@$0A@VBase@DES_XEX3@CryptoPP@@@CryptoPP@@VECB_OneWay@2@@2@@CryptoPP@@UAE@XZ PROC ; CryptoPP::AlgorithmImpl<CryptoPP::ECB_OneWay,CryptoPP::CipherModeFinalTemplate_CipherHolder<CryptoPP::BlockCipherFinal<0,CryptoPP::DES_XEX3::Base>,CryptoPP::ECB_OneWay> >::~AlgorithmImpl<CryptoPP::ECB_OneWay,CryptoPP::CipherModeFinalTemplate_CipherHolder<CryptoPP::BlockCipherFinal<0,CryptoPP::DES_XEX3::Base>,CryptoPP::ECB_OneWay> >, COMDAT
; _this$ = ecx
  00000	e9 00 00 00 00	 jmp	 ??1BlockOrientedCipherModeBase@CryptoPP@@UAE@XZ
??1?$AlgorithmImpl@VECB_OneWay@CryptoPP@@V?$CipherModeFinalTemplate_CipherHolder@V?$BlockCipherFinal@$0A@VBase@DES_XEX3@CryptoPP@@@CryptoPP@@VECB_OneWay@2@@2@@CryptoPP@@UAE@XZ ENDP ; CryptoPP::AlgorithmImpl<CryptoPP::ECB_OneWay,CryptoPP::CipherModeFinalTemplate_CipherHolder<CryptoPP::BlockCipherFinal<0,CryptoPP::DES_XEX3::Base>,CryptoPP::ECB_OneWay> >::~AlgorithmImpl<CryptoPP::ECB_OneWay,CryptoPP::CipherModeFinalTemplate_CipherHolder<CryptoPP::BlockCipherFinal<0,CryptoPP::DES_XEX3::Base>,CryptoPP::ECB_OneWay> >
_TEXT	ENDS
PUBLIC	??1?$AlgorithmImpl@VECB_OneWay@CryptoPP@@V?$CipherModeFinalTemplate_CipherHolder@V?$BlockCipherFinal@$00VBase@DES_XEX3@CryptoPP@@@CryptoPP@@VECB_OneWay@2@@2@@CryptoPP@@UAE@XZ ; CryptoPP::AlgorithmImpl<CryptoPP::ECB_OneWay,CryptoPP::CipherModeFinalTemplate_CipherHolder<CryptoPP::BlockCipherFinal<1,CryptoPP::DES_XEX3::Base>,CryptoPP::ECB_OneWay> >::~AlgorithmImpl<CryptoPP::ECB_OneWay,CryptoPP::CipherModeFinalTemplate_CipherHolder<CryptoPP::BlockCipherFinal<1,CryptoPP::DES_XEX3::Base>,CryptoPP::ECB_OneWay> >
; Function compile flags: /Ogtp
;	COMDAT ??1?$AlgorithmImpl@VECB_OneWay@CryptoPP@@V?$CipherModeFinalTemplate_CipherHolder@V?$BlockCipherFinal@$00VBase@DES_XEX3@CryptoPP@@@CryptoPP@@VECB_OneWay@2@@2@@CryptoPP@@UAE@XZ
_TEXT	SEGMENT
??1?$AlgorithmImpl@VECB_OneWay@CryptoPP@@V?$CipherModeFinalTemplate_CipherHolder@V?$BlockCipherFinal@$00VBase@DES_XEX3@CryptoPP@@@CryptoPP@@VECB_OneWay@2@@2@@CryptoPP@@UAE@XZ PROC ; CryptoPP::AlgorithmImpl<CryptoPP::ECB_OneWay,CryptoPP::CipherModeFinalTemplate_CipherHolder<CryptoPP::BlockCipherFinal<1,CryptoPP::DES_XEX3::Base>,CryptoPP::ECB_OneWay> >::~AlgorithmImpl<CryptoPP::ECB_OneWay,CryptoPP::CipherModeFinalTemplate_CipherHolder<CryptoPP::BlockCipherFinal<1,CryptoPP::DES_XEX3::Base>,CryptoPP::ECB_OneWay> >, COMDAT
; _this$ = ecx
  00000	e9 00 00 00 00	 jmp	 ??1BlockOrientedCipherModeBase@CryptoPP@@UAE@XZ
??1?$AlgorithmImpl@VECB_OneWay@CryptoPP@@V?$CipherModeFinalTemplate_CipherHolder@V?$BlockCipherFinal@$00VBase@DES_XEX3@CryptoPP@@@CryptoPP@@VECB_OneWay@2@@2@@CryptoPP@@UAE@XZ ENDP ; CryptoPP::AlgorithmImpl<CryptoPP::ECB_OneWay,CryptoPP::CipherModeFinalTemplate_CipherHolder<CryptoPP::BlockCipherFinal<1,CryptoPP::DES_XEX3::Base>,CryptoPP::ECB_OneWay> >::~AlgorithmImpl<CryptoPP::ECB_OneWay,CryptoPP::CipherModeFinalTemplate_CipherHolder<CryptoPP::BlockCipherFinal<1,CryptoPP::DES_XEX3::Base>,CryptoPP::ECB_OneWay> >
_TEXT	ENDS
PUBLIC	??1?$BlockCipherImpl@UDES_XEX3_Info@CryptoPP@@VBlockCipher@2@@CryptoPP@@UAE@XZ ; CryptoPP::BlockCipherImpl<CryptoPP::DES_XEX3_Info,CryptoPP::BlockCipher>::~BlockCipherImpl<CryptoPP::DES_XEX3_Info,CryptoPP::BlockCipher>
; Function compile flags: /Ogtp
;	COMDAT ??1?$BlockCipherImpl@UDES_XEX3_Info@CryptoPP@@VBlockCipher@2@@CryptoPP@@UAE@XZ
_TEXT	SEGMENT
??1?$BlockCipherImpl@UDES_XEX3_Info@CryptoPP@@VBlockCipher@2@@CryptoPP@@UAE@XZ PROC ; CryptoPP::BlockCipherImpl<CryptoPP::DES_XEX3_Info,CryptoPP::BlockCipher>::~BlockCipherImpl<CryptoPP::DES_XEX3_Info,CryptoPP::BlockCipher>, COMDAT
; _this$ = ecx
  00000	c3		 ret	 0
??1?$BlockCipherImpl@UDES_XEX3_Info@CryptoPP@@VBlockCipher@2@@CryptoPP@@UAE@XZ ENDP ; CryptoPP::BlockCipherImpl<CryptoPP::DES_XEX3_Info,CryptoPP::BlockCipher>::~BlockCipherImpl<CryptoPP::DES_XEX3_Info,CryptoPP::BlockCipher>
_TEXT	ENDS
PUBLIC	??0?$basic_string@DU?$char_traits@D@std@@V?$allocator@D@2@@std@@QAE@ABV01@@Z ; std::basic_string<char,std::char_traits<char>,std::allocator<char> >::basic_string<char,std::char_traits<char>,std::allocator<char> >
; Function compile flags: /Ogtp
;	COMDAT ??0?$basic_string@DU?$char_traits@D@std@@V?$allocator@D@2@@std@@QAE@ABV01@@Z
_TEXT	SEGMENT
__Right$ = 8						; size = 4
??0?$basic_string@DU?$char_traits@D@std@@V?$allocator@D@2@@std@@QAE@ABV01@@Z PROC ; std::basic_string<char,std::char_traits<char>,std::allocator<char> >::basic_string<char,std::char_traits<char>,std::allocator<char> >, COMDAT
; _this$ = ecx

; 543  : 		{	// construct by copying _Right

  00000	55		 push	 ebp
  00001	8b ec		 mov	 ebp, esp

; 544  : 		_Tidy();
; 545  : 		assign(_Right, 0, npos);

  00003	8b 45 08	 mov	 eax, DWORD PTR __Right$[ebp]
  00006	56		 push	 esi
  00007	6a ff		 push	 -1
  00009	8b f1		 mov	 esi, ecx
  0000b	6a 00		 push	 0
  0000d	c7 46 14 0f 00
	00 00		 mov	 DWORD PTR [esi+20], 15	; 0000000fH
  00014	c7 46 10 00 00
	00 00		 mov	 DWORD PTR [esi+16], 0
  0001b	50		 push	 eax
  0001c	c6 06 00	 mov	 BYTE PTR [esi], 0
  0001f	e8 00 00 00 00	 call	 ?assign@?$basic_string@DU?$char_traits@D@std@@V?$allocator@D@2@@std@@QAEAAV12@ABV12@II@Z ; std::basic_string<char,std::char_traits<char>,std::allocator<char> >::assign

; 546  : 		}

  00024	8b c6		 mov	 eax, esi
  00026	5e		 pop	 esi
  00027	5d		 pop	 ebp
  00028	c2 04 00	 ret	 4
??0?$basic_string@DU?$char_traits@D@std@@V?$allocator@D@2@@std@@QAE@ABV01@@Z ENDP ; std::basic_string<char,std::char_traits<char>,std::allocator<char> >::basic_string<char,std::char_traits<char>,std::allocator<char> >
_TEXT	ENDS
PUBLIC	??0?$BlockCipherImpl@UDES_XEX3_Info@CryptoPP@@VBlockCipher@2@@CryptoPP@@QAE@XZ ; CryptoPP::BlockCipherImpl<CryptoPP::DES_XEX3_Info,CryptoPP::BlockCipher>::BlockCipherImpl<CryptoPP::DES_XEX3_Info,CryptoPP::BlockCipher>
; Function compile flags: /Ogtp
;	COMDAT ??0?$BlockCipherImpl@UDES_XEX3_Info@CryptoPP@@VBlockCipher@2@@CryptoPP@@QAE@XZ
_TEXT	SEGMENT
??0?$BlockCipherImpl@UDES_XEX3_Info@CryptoPP@@VBlockCipher@2@@CryptoPP@@QAE@XZ PROC ; CryptoPP::BlockCipherImpl<CryptoPP::DES_XEX3_Info,CryptoPP::BlockCipher>::BlockCipherImpl<CryptoPP::DES_XEX3_Info,CryptoPP::BlockCipher>, COMDAT
; _this$ = ecx
  00000	56		 push	 esi
  00001	8b f1		 mov	 esi, ecx
  00003	6a 01		 push	 1
  00005	8d 4e 04	 lea	 ecx, DWORD PTR [esi+4]
  00008	e8 00 00 00 00	 call	 ??0Algorithm@CryptoPP@@QAE@_N@Z ; CryptoPP::Algorithm::Algorithm
  0000d	8b c6		 mov	 eax, esi
  0000f	5e		 pop	 esi
  00010	c3		 ret	 0
??0?$BlockCipherImpl@UDES_XEX3_Info@CryptoPP@@VBlockCipher@2@@CryptoPP@@QAE@XZ ENDP ; CryptoPP::BlockCipherImpl<CryptoPP::DES_XEX3_Info,CryptoPP::BlockCipher>::BlockCipherImpl<CryptoPP::DES_XEX3_Info,CryptoPP::BlockCipher>
_TEXT	ENDS
PUBLIC	?assign@?$basic_string@DU?$char_traits@D@std@@V?$allocator@D@2@@std@@QAEAAV12@PBDI@Z ; std::basic_string<char,std::char_traits<char>,std::allocator<char> >::assign
; Function compile flags: /Ogtp
;	COMDAT ?assign@?$basic_string@DU?$char_traits@D@std@@V?$allocator@D@2@@std@@QAEAAV12@PBDI@Z
_TEXT	SEGMENT
__Ptr$ = 8						; size = 4
__Count$ = 12						; size = 4
?assign@?$basic_string@DU?$char_traits@D@std@@V?$allocator@D@2@@std@@QAEAAV12@PBDI@Z PROC ; std::basic_string<char,std::char_traits<char>,std::allocator<char> >::assign, COMDAT
; _this$ = ecx

; 910  : 		{	// assign [_Ptr, _Ptr + _Count)

  00000	55		 push	 ebp
  00001	8b ec		 mov	 ebp, esp
  00003	53		 push	 ebx

; 911  :  #if _ITERATOR_DEBUG_LEVEL == 2
; 912  : 		if (_Count != 0)
; 913  : 			_DEBUG_POINTER(_Ptr);
; 914  :  #endif /* _ITERATOR_DEBUG_LEVEL == 2 */
; 915  : 
; 916  : 		if (_Inside(_Ptr))

  00004	8b 5d 08	 mov	 ebx, DWORD PTR __Ptr$[ebp]
  00007	56		 push	 esi
  00008	8b f1		 mov	 esi, ecx
  0000a	85 db		 test	 ebx, ebx
  0000c	74 59		 je	 SHORT $LN85@assign@2
  0000e	8b 4e 14	 mov	 ecx, DWORD PTR [esi+20]
  00011	83 f9 10	 cmp	 ecx, 16			; 00000010H
  00014	72 04		 jb	 SHORT $LN12@assign@2
  00016	8b 06		 mov	 eax, DWORD PTR [esi]
  00018	eb 02		 jmp	 SHORT $LN13@assign@2
$LN12@assign@2:
  0001a	8b c6		 mov	 eax, esi
$LN13@assign@2:
  0001c	3b d8		 cmp	 ebx, eax
  0001e	72 47		 jb	 SHORT $LN85@assign@2
  00020	83 f9 10	 cmp	 ecx, 16			; 00000010H
  00023	72 04		 jb	 SHORT $LN16@assign@2
  00025	8b 06		 mov	 eax, DWORD PTR [esi]
  00027	eb 02		 jmp	 SHORT $LN17@assign@2
$LN16@assign@2:
  00029	8b c6		 mov	 eax, esi
$LN17@assign@2:
  0002b	8b 56 10	 mov	 edx, DWORD PTR [esi+16]
  0002e	03 d0		 add	 edx, eax
  00030	3b d3		 cmp	 edx, ebx
  00032	76 33		 jbe	 SHORT $LN85@assign@2

; 917  : 			return (assign(*this, _Ptr - _Myptr(), _Count));	// substring

  00034	83 f9 10	 cmp	 ecx, 16			; 00000010H
  00037	72 17		 jb	 SHORT $LN20@assign@2
  00039	8b 06		 mov	 eax, DWORD PTR [esi]
  0003b	8b 4d 0c	 mov	 ecx, DWORD PTR __Count$[ebp]
  0003e	51		 push	 ecx
  0003f	2b d8		 sub	 ebx, eax
  00041	53		 push	 ebx
  00042	56		 push	 esi
  00043	8b ce		 mov	 ecx, esi
  00045	e8 00 00 00 00	 call	 ?assign@?$basic_string@DU?$char_traits@D@std@@V?$allocator@D@2@@std@@QAEAAV12@ABV12@II@Z ; std::basic_string<char,std::char_traits<char>,std::allocator<char> >::assign
  0004a	5e		 pop	 esi
  0004b	5b		 pop	 ebx

; 925  : 		}

  0004c	5d		 pop	 ebp
  0004d	c2 08 00	 ret	 8

; 917  : 			return (assign(*this, _Ptr - _Myptr(), _Count));	// substring

$LN20@assign@2:
  00050	8b 4d 0c	 mov	 ecx, DWORD PTR __Count$[ebp]
  00053	8b c6		 mov	 eax, esi
  00055	51		 push	 ecx
  00056	2b d8		 sub	 ebx, eax
  00058	53		 push	 ebx
  00059	56		 push	 esi
  0005a	8b ce		 mov	 ecx, esi
  0005c	e8 00 00 00 00	 call	 ?assign@?$basic_string@DU?$char_traits@D@std@@V?$allocator@D@2@@std@@QAEAAV12@ABV12@II@Z ; std::basic_string<char,std::char_traits<char>,std::allocator<char> >::assign
  00061	5e		 pop	 esi
  00062	5b		 pop	 ebx

; 925  : 		}

  00063	5d		 pop	 ebp
  00064	c2 08 00	 ret	 8
$LN85@assign@2:
  00067	57		 push	 edi

; 918  : 
; 919  : 		if (_Grow(_Count))

  00068	8b 7d 0c	 mov	 edi, DWORD PTR __Count$[ebp]
  0006b	83 ff fe	 cmp	 edi, -2			; fffffffeH
  0006e	76 0a		 jbe	 SHORT $LN27@assign@2
  00070	68 00 00 00 00	 push	 OFFSET ??_C@_0BA@JFNIOLAK@string?5too?5long?$AA@
  00075	e8 00 00 00 00	 call	 ?_Xlength_error@std@@YAXPBD@Z ; std::_Xlength_error
$LN89@assign@2:
$LN27@assign@2:
  0007a	8b 46 14	 mov	 eax, DWORD PTR [esi+20]
  0007d	3b c7		 cmp	 eax, edi
  0007f	73 1a		 jae	 SHORT $LN26@assign@2
  00081	8b 56 10	 mov	 edx, DWORD PTR [esi+16]
  00084	52		 push	 edx
  00085	57		 push	 edi
  00086	8b ce		 mov	 ecx, esi
  00088	e8 00 00 00 00	 call	 ?_Copy@?$basic_string@DU?$char_traits@D@std@@V?$allocator@D@2@@std@@QAEXII@Z ; std::basic_string<char,std::char_traits<char>,std::allocator<char> >::_Copy
  0008d	85 ff		 test	 edi, edi
  0008f	74 5b		 je	 SHORT $LN82@assign@2
$LN88@assign@2:

; 920  : 			{	// make room and assign new stuff
; 921  : 			_Traits::copy(_Myptr(), _Ptr, _Count);

  00091	83 7e 14 10	 cmp	 DWORD PTR [esi+20], 16	; 00000010H
  00095	72 2a		 jb	 SHORT $LN72@assign@2
  00097	8b 06		 mov	 eax, DWORD PTR [esi]
  00099	eb 28		 jmp	 SHORT $LN73@assign@2

; 918  : 
; 919  : 		if (_Grow(_Count))

$LN26@assign@2:
  0009b	85 ff		 test	 edi, edi
  0009d	75 f2		 jne	 SHORT $LN88@assign@2
  0009f	89 7e 10	 mov	 DWORD PTR [esi+16], edi
  000a2	83 f8 10	 cmp	 eax, 16			; 00000010H
  000a5	72 0e		 jb	 SHORT $LN65@assign@2
  000a7	8b 06		 mov	 eax, DWORD PTR [esi]
  000a9	5f		 pop	 edi
  000aa	c6 00 00	 mov	 BYTE PTR [eax], 0

; 923  : 			}
; 924  : 		return (*this);

  000ad	8b c6		 mov	 eax, esi
  000af	5e		 pop	 esi
  000b0	5b		 pop	 ebx

; 925  : 		}

  000b1	5d		 pop	 ebp
  000b2	c2 08 00	 ret	 8

; 918  : 
; 919  : 		if (_Grow(_Count))

$LN65@assign@2:
  000b5	5f		 pop	 edi
  000b6	8b c6		 mov	 eax, esi
  000b8	5e		 pop	 esi
  000b9	c6 00 00	 mov	 BYTE PTR [eax], 0
  000bc	5b		 pop	 ebx

; 925  : 		}

  000bd	5d		 pop	 ebp
  000be	c2 08 00	 ret	 8

; 920  : 			{	// make room and assign new stuff
; 921  : 			_Traits::copy(_Myptr(), _Ptr, _Count);

$LN72@assign@2:
  000c1	8b c6		 mov	 eax, esi
$LN73@assign@2:
  000c3	57		 push	 edi
  000c4	53		 push	 ebx
  000c5	50		 push	 eax
  000c6	e8 00 00 00 00	 call	 _memcpy
  000cb	83 c4 0c	 add	 esp, 12			; 0000000cH

; 922  : 			_Eos(_Count);

  000ce	83 7e 14 10	 cmp	 DWORD PTR [esi+20], 16	; 00000010H
  000d2	89 7e 10	 mov	 DWORD PTR [esi+16], edi
  000d5	72 0f		 jb	 SHORT $LN80@assign@2
  000d7	8b 06		 mov	 eax, DWORD PTR [esi]
  000d9	c6 04 38 00	 mov	 BYTE PTR [eax+edi], 0
  000dd	5f		 pop	 edi

; 923  : 			}
; 924  : 		return (*this);

  000de	8b c6		 mov	 eax, esi
  000e0	5e		 pop	 esi
  000e1	5b		 pop	 ebx

; 925  : 		}

  000e2	5d		 pop	 ebp
  000e3	c2 08 00	 ret	 8

; 922  : 			_Eos(_Count);

$LN80@assign@2:
  000e6	8b c6		 mov	 eax, esi
  000e8	c6 04 38 00	 mov	 BYTE PTR [eax+edi], 0
$LN82@assign@2:

; 923  : 			}
; 924  : 		return (*this);

  000ec	5f		 pop	 edi
  000ed	8b c6		 mov	 eax, esi
  000ef	5e		 pop	 esi
  000f0	5b		 pop	 ebx

; 925  : 		}

  000f1	5d		 pop	 ebp
  000f2	c2 08 00	 ret	 8
$LN86@assign@2:
?assign@?$basic_string@DU?$char_traits@D@std@@V?$allocator@D@2@@std@@QAEAAV12@PBDI@Z ENDP ; std::basic_string<char,std::char_traits<char>,std::allocator<char> >::assign
_TEXT	ENDS
PUBLIC	??0Exception@CryptoPP@@QAE@W4ErrorType@01@ABV?$basic_string@DU?$char_traits@D@std@@V?$allocator@D@2@@std@@@Z ; CryptoPP::Exception::Exception
EXTRN	??0exception@std@@QAE@XZ:PROC			; std::exception::exception
;	COMDAT xdata$x
; File c:\program files (x86)\microsoft visual studio 10.0\vc\include\iosfwd
xdata$x	SEGMENT
__unwindtable$??0Exception@CryptoPP@@QAE@W4ErrorType@01@ABV?$basic_string@DU?$char_traits@D@std@@V?$allocator@D@2@@std@@@Z DD 0ffffffffH
	DD	FLAT:__unwindfunclet$??0Exception@CryptoPP@@QAE@W4ErrorType@01@ABV?$basic_string@DU?$char_traits@D@std@@V?$allocator@D@2@@std@@@Z$0
__ehfuncinfo$??0Exception@CryptoPP@@QAE@W4ErrorType@01@ABV?$basic_string@DU?$char_traits@D@std@@V?$allocator@D@2@@std@@@Z DD 019930522H
	DD	01H
	DD	FLAT:__unwindtable$??0Exception@CryptoPP@@QAE@W4ErrorType@01@ABV?$basic_string@DU?$char_traits@D@std@@V?$allocator@D@2@@std@@@Z
	DD	2 DUP(00H)
	DD	2 DUP(00H)
	DD	00H
	DD	01H
; Function compile flags: /Ogtp
; File c:\muserver_dev\development\mu-s8ep2-repack\gameserver\crypto\cryptlib.h
xdata$x	ENDS
;	COMDAT ??0Exception@CryptoPP@@QAE@W4ErrorType@01@ABV?$basic_string@DU?$char_traits@D@std@@V?$allocator@D@2@@std@@@Z
_TEXT	SEGMENT
_this$ = -16						; size = 4
__$EHRec$ = -12						; size = 12
_errorType$ = 8						; size = 4
_s$ = 12						; size = 4
??0Exception@CryptoPP@@QAE@W4ErrorType@01@ABV?$basic_string@DU?$char_traits@D@std@@V?$allocator@D@2@@std@@@Z PROC ; CryptoPP::Exception::Exception, COMDAT
; _this$ = ecx

; 131  : 	explicit Exception(ErrorType errorType, const std::string &s) : m_errorType(errorType), m_what(s) {}

  00000	55		 push	 ebp
  00001	8b ec		 mov	 ebp, esp
  00003	6a ff		 push	 -1
  00005	68 00 00 00 00	 push	 __ehhandler$??0Exception@CryptoPP@@QAE@W4ErrorType@01@ABV?$basic_string@DU?$char_traits@D@std@@V?$allocator@D@2@@std@@@Z
  0000a	64 a1 00 00 00
	00		 mov	 eax, DWORD PTR fs:0
  00010	50		 push	 eax
  00011	51		 push	 ecx
  00012	56		 push	 esi
  00013	a1 00 00 00 00	 mov	 eax, DWORD PTR ___security_cookie
  00018	33 c5		 xor	 eax, ebp
  0001a	50		 push	 eax
  0001b	8d 45 f4	 lea	 eax, DWORD PTR __$EHRec$[ebp]
  0001e	64 a3 00 00 00
	00		 mov	 DWORD PTR fs:0, eax
  00024	8b f1		 mov	 esi, ecx
  00026	89 75 f0	 mov	 DWORD PTR _this$[ebp], esi
  00029	e8 00 00 00 00	 call	 ??0exception@std@@QAE@XZ ; std::exception::exception
  0002e	8b 4d 08	 mov	 ecx, DWORD PTR _errorType$[ebp]
  00031	8b 55 0c	 mov	 edx, DWORD PTR _s$[ebp]
  00034	33 c0		 xor	 eax, eax
  00036	89 4e 0c	 mov	 DWORD PTR [esi+12], ecx
  00039	6a ff		 push	 -1
  0003b	8d 4e 10	 lea	 ecx, DWORD PTR [esi+16]
  0003e	c7 06 00 00 00
	00		 mov	 DWORD PTR [esi], OFFSET ??_7Exception@CryptoPP@@6B@
  00044	50		 push	 eax
  00045	c7 41 14 0f 00
	00 00		 mov	 DWORD PTR [ecx+20], 15	; 0000000fH
  0004c	89 41 10	 mov	 DWORD PTR [ecx+16], eax
  0004f	52		 push	 edx
  00050	89 45 fc	 mov	 DWORD PTR __$EHRec$[ebp+8], eax
  00053	88 01		 mov	 BYTE PTR [ecx], al
  00055	e8 00 00 00 00	 call	 ?assign@?$basic_string@DU?$char_traits@D@std@@V?$allocator@D@2@@std@@QAEAAV12@ABV12@II@Z ; std::basic_string<char,std::char_traits<char>,std::allocator<char> >::assign
  0005a	8b c6		 mov	 eax, esi
  0005c	8b 4d f4	 mov	 ecx, DWORD PTR __$EHRec$[ebp]
  0005f	64 89 0d 00 00
	00 00		 mov	 DWORD PTR fs:0, ecx
  00066	59		 pop	 ecx
  00067	5e		 pop	 esi
  00068	8b e5		 mov	 esp, ebp
  0006a	5d		 pop	 ebp
  0006b	c2 08 00	 ret	 8
_TEXT	ENDS
;	COMDAT text$x
text$x	SEGMENT
__unwindfunclet$??0Exception@CryptoPP@@QAE@W4ErrorType@01@ABV?$basic_string@DU?$char_traits@D@std@@V?$allocator@D@2@@std@@@Z$0:
  00000	8b 4d f0	 mov	 ecx, DWORD PTR _this$[ebp]
  00003	e9 00 00 00 00	 jmp	 ??1exception@std@@UAE@XZ ; std::exception::~exception
__ehhandler$??0Exception@CryptoPP@@QAE@W4ErrorType@01@ABV?$basic_string@DU?$char_traits@D@std@@V?$allocator@D@2@@std@@@Z:
  00008	8b 54 24 08	 mov	 edx, DWORD PTR [esp+8]
  0000c	8d 42 0c	 lea	 eax, DWORD PTR [edx+12]
  0000f	8b 4a f4	 mov	 ecx, DWORD PTR [edx-12]
  00012	33 c8		 xor	 ecx, eax
  00014	e8 00 00 00 00	 call	 @__security_check_cookie@4
  00019	b8 00 00 00 00	 mov	 eax, OFFSET __ehfuncinfo$??0Exception@CryptoPP@@QAE@W4ErrorType@01@ABV?$basic_string@DU?$char_traits@D@std@@V?$allocator@D@2@@std@@@Z
  0001e	e9 00 00 00 00	 jmp	 ___CxxFrameHandler3
text$x	ENDS
??0Exception@CryptoPP@@QAE@W4ErrorType@01@ABV?$basic_string@DU?$char_traits@D@std@@V?$allocator@D@2@@std@@@Z ENDP ; CryptoPP::Exception::Exception
PUBLIC	??_7InvalidArgument@CryptoPP@@6B@		; CryptoPP::InvalidArgument::`vftable'
PUBLIC	??0InvalidArgument@CryptoPP@@QAE@ABV?$basic_string@DU?$char_traits@D@std@@V?$allocator@D@2@@std@@@Z ; CryptoPP::InvalidArgument::InvalidArgument
PUBLIC	??_R4InvalidArgument@CryptoPP@@6B@		; CryptoPP::InvalidArgument::`RTTI Complete Object Locator'
PUBLIC	??_R0?AVInvalidArgument@CryptoPP@@@8		; CryptoPP::InvalidArgument `RTTI Type Descriptor'
PUBLIC	??_R3InvalidArgument@CryptoPP@@8		; CryptoPP::InvalidArgument::`RTTI Class Hierarchy Descriptor'
PUBLIC	??_R2InvalidArgument@CryptoPP@@8		; CryptoPP::InvalidArgument::`RTTI Base Class Array'
PUBLIC	??_R1A@?0A@EA@InvalidArgument@CryptoPP@@8	; CryptoPP::InvalidArgument::`RTTI Base Class Descriptor at (0,-1,0,64)'
EXTRN	??_EInvalidArgument@CryptoPP@@UAEPAXI@Z:PROC	; CryptoPP::InvalidArgument::`vector deleting destructor'
;	COMDAT ??_R1A@?0A@EA@InvalidArgument@CryptoPP@@8
; File c:\program files (x86)\microsoft visual studio 10.0\vc\include\iosfwd
rdata$r	SEGMENT
??_R1A@?0A@EA@InvalidArgument@CryptoPP@@8 DD FLAT:??_R0?AVInvalidArgument@CryptoPP@@@8 ; CryptoPP::InvalidArgument::`RTTI Base Class Descriptor at (0,-1,0,64)'
	DD	02H
	DD	00H
	DD	0ffffffffH
	DD	00H
	DD	040H
	DD	FLAT:??_R3InvalidArgument@CryptoPP@@8
rdata$r	ENDS
;	COMDAT ??_R2InvalidArgument@CryptoPP@@8
rdata$r	SEGMENT
??_R2InvalidArgument@CryptoPP@@8 DD FLAT:??_R1A@?0A@EA@InvalidArgument@CryptoPP@@8 ; CryptoPP::InvalidArgument::`RTTI Base Class Array'
	DD	FLAT:??_R1A@?0A@EA@Exception@CryptoPP@@8
	DD	FLAT:??_R1A@?0A@EA@exception@std@@8
rdata$r	ENDS
;	COMDAT ??_R3InvalidArgument@CryptoPP@@8
rdata$r	SEGMENT
??_R3InvalidArgument@CryptoPP@@8 DD 00H			; CryptoPP::InvalidArgument::`RTTI Class Hierarchy Descriptor'
	DD	00H
	DD	03H
	DD	FLAT:??_R2InvalidArgument@CryptoPP@@8
rdata$r	ENDS
;	COMDAT ??_R0?AVInvalidArgument@CryptoPP@@@8
_DATA	SEGMENT
??_R0?AVInvalidArgument@CryptoPP@@@8 DD FLAT:??_7type_info@@6B@ ; CryptoPP::InvalidArgument `RTTI Type Descriptor'
	DD	00H
	DB	'.?AVInvalidArgument@CryptoPP@@', 00H
_DATA	ENDS
;	COMDAT ??_R4InvalidArgument@CryptoPP@@6B@
rdata$r	SEGMENT
??_R4InvalidArgument@CryptoPP@@6B@ DD 00H		; CryptoPP::InvalidArgument::`RTTI Complete Object Locator'
	DD	00H
	DD	00H
	DD	FLAT:??_R0?AVInvalidArgument@CryptoPP@@@8
	DD	FLAT:??_R3InvalidArgument@CryptoPP@@8
rdata$r	ENDS
;	COMDAT ??_7InvalidArgument@CryptoPP@@6B@
CONST	SEGMENT
??_7InvalidArgument@CryptoPP@@6B@ DD FLAT:??_R4InvalidArgument@CryptoPP@@6B@ ; CryptoPP::InvalidArgument::`vftable'
	DD	FLAT:??_EInvalidArgument@CryptoPP@@UAEPAXI@Z
	DD	FLAT:?what@Exception@CryptoPP@@UBEPBDXZ
CONST	ENDS
;	COMDAT xdata$x
xdata$x	SEGMENT
__unwindtable$??0InvalidArgument@CryptoPP@@QAE@ABV?$basic_string@DU?$char_traits@D@std@@V?$allocator@D@2@@std@@@Z DD 0ffffffffH
	DD	FLAT:__unwindfunclet$??0InvalidArgument@CryptoPP@@QAE@ABV?$basic_string@DU?$char_traits@D@std@@V?$allocator@D@2@@std@@@Z$1
__ehfuncinfo$??0InvalidArgument@CryptoPP@@QAE@ABV?$basic_string@DU?$char_traits@D@std@@V?$allocator@D@2@@std@@@Z DD 019930522H
	DD	01H
	DD	FLAT:__unwindtable$??0InvalidArgument@CryptoPP@@QAE@ABV?$basic_string@DU?$char_traits@D@std@@V?$allocator@D@2@@std@@@Z
	DD	2 DUP(00H)
	DD	2 DUP(00H)
	DD	00H
	DD	01H
; Function compile flags: /Ogtp
; File c:\muserver_dev\development\mu-s8ep2-repack\gameserver\crypto\cryptlib.h
xdata$x	ENDS
;	COMDAT ??0InvalidArgument@CryptoPP@@QAE@ABV?$basic_string@DU?$char_traits@D@std@@V?$allocator@D@2@@std@@@Z
_TEXT	SEGMENT
_this$ = -16						; size = 4
__$EHRec$ = -12						; size = 12
_s$ = 8							; size = 4
??0InvalidArgument@CryptoPP@@QAE@ABV?$basic_string@DU?$char_traits@D@std@@V?$allocator@D@2@@std@@@Z PROC ; CryptoPP::InvalidArgument::InvalidArgument, COMDAT
; _this$ = ecx

; 148  : 	explicit InvalidArgument(const std::string &s) : Exception(INVALID_ARGUMENT, s) {}

  00000	55		 push	 ebp
  00001	8b ec		 mov	 ebp, esp
  00003	6a ff		 push	 -1
  00005	68 00 00 00 00	 push	 __ehhandler$??0InvalidArgument@CryptoPP@@QAE@ABV?$basic_string@DU?$char_traits@D@std@@V?$allocator@D@2@@std@@@Z
  0000a	64 a1 00 00 00
	00		 mov	 eax, DWORD PTR fs:0
  00010	50		 push	 eax
  00011	51		 push	 ecx
  00012	56		 push	 esi
  00013	a1 00 00 00 00	 mov	 eax, DWORD PTR ___security_cookie
  00018	33 c5		 xor	 eax, ebp
  0001a	50		 push	 eax
  0001b	8d 45 f4	 lea	 eax, DWORD PTR __$EHRec$[ebp]
  0001e	64 a3 00 00 00
	00		 mov	 DWORD PTR fs:0, eax
  00024	8b f1		 mov	 esi, ecx
  00026	89 75 f0	 mov	 DWORD PTR _this$[ebp], esi
  00029	e8 00 00 00 00	 call	 ??0exception@std@@QAE@XZ ; std::exception::exception
  0002e	33 c0		 xor	 eax, eax
  00030	8d 4e 10	 lea	 ecx, DWORD PTR [esi+16]
  00033	c7 06 00 00 00
	00		 mov	 DWORD PTR [esi], OFFSET ??_7Exception@CryptoPP@@6B@
  00039	c7 46 0c 01 00
	00 00		 mov	 DWORD PTR [esi+12], 1
  00040	6a ff		 push	 -1
  00042	89 41 10	 mov	 DWORD PTR [ecx+16], eax
  00045	c7 41 14 0f 00
	00 00		 mov	 DWORD PTR [ecx+20], 15	; 0000000fH
  0004c	50		 push	 eax
  0004d	89 45 fc	 mov	 DWORD PTR __$EHRec$[ebp+8], eax
  00050	88 01		 mov	 BYTE PTR [ecx], al
  00052	8b 45 08	 mov	 eax, DWORD PTR _s$[ebp]
  00055	50		 push	 eax
  00056	e8 00 00 00 00	 call	 ?assign@?$basic_string@DU?$char_traits@D@std@@V?$allocator@D@2@@std@@QAEAAV12@ABV12@II@Z ; std::basic_string<char,std::char_traits<char>,std::allocator<char> >::assign
  0005b	c7 06 00 00 00
	00		 mov	 DWORD PTR [esi], OFFSET ??_7InvalidArgument@CryptoPP@@6B@
  00061	8b c6		 mov	 eax, esi
  00063	8b 4d f4	 mov	 ecx, DWORD PTR __$EHRec$[ebp]
  00066	64 89 0d 00 00
	00 00		 mov	 DWORD PTR fs:0, ecx
  0006d	59		 pop	 ecx
  0006e	5e		 pop	 esi
  0006f	8b e5		 mov	 esp, ebp
  00071	5d		 pop	 ebp
  00072	c2 04 00	 ret	 4
_TEXT	ENDS
;	COMDAT text$x
text$x	SEGMENT
__unwindfunclet$??0InvalidArgument@CryptoPP@@QAE@ABV?$basic_string@DU?$char_traits@D@std@@V?$allocator@D@2@@std@@@Z$1:
  00000	8b 4d f0	 mov	 ecx, DWORD PTR _this$[ebp]
  00003	e9 00 00 00 00	 jmp	 ??1exception@std@@UAE@XZ ; std::exception::~exception
__ehhandler$??0InvalidArgument@CryptoPP@@QAE@ABV?$basic_string@DU?$char_traits@D@std@@V?$allocator@D@2@@std@@@Z:
  00008	8b 54 24 08	 mov	 edx, DWORD PTR [esp+8]
  0000c	8d 42 0c	 lea	 eax, DWORD PTR [edx+12]
  0000f	8b 4a f4	 mov	 ecx, DWORD PTR [edx-12]
  00012	33 c8		 xor	 ecx, eax
  00014	e8 00 00 00 00	 call	 @__security_check_cookie@4
  00019	b8 00 00 00 00	 mov	 eax, OFFSET __ehfuncinfo$??0InvalidArgument@CryptoPP@@QAE@ABV?$basic_string@DU?$char_traits@D@std@@V?$allocator@D@2@@std@@@Z
  0001e	e9 00 00 00 00	 jmp	 ___CxxFrameHandler3
text$x	ENDS
??0InvalidArgument@CryptoPP@@QAE@ABV?$basic_string@DU?$char_traits@D@std@@V?$allocator@D@2@@std@@@Z ENDP ; CryptoPP::InvalidArgument::InvalidArgument
PUBLIC	??1InvalidArgument@CryptoPP@@UAE@XZ		; CryptoPP::InvalidArgument::~InvalidArgument
; Function compile flags: /Ogtp
;	COMDAT ??1InvalidArgument@CryptoPP@@UAE@XZ
_TEXT	SEGMENT
??1InvalidArgument@CryptoPP@@UAE@XZ PROC		; CryptoPP::InvalidArgument::~InvalidArgument, COMDAT
; _this$ = ecx
  00000	56		 push	 esi
  00001	8b f1		 mov	 esi, ecx
  00003	c7 06 00 00 00
	00		 mov	 DWORD PTR [esi], OFFSET ??_7Exception@CryptoPP@@6B@
  00009	83 7e 24 10	 cmp	 DWORD PTR [esi+36], 16	; 00000010H
  0000d	72 0c		 jb	 SHORT $LN15@InvalidArg
  0000f	8b 46 10	 mov	 eax, DWORD PTR [esi+16]
  00012	50		 push	 eax
  00013	e8 00 00 00 00	 call	 ??3@YAXPAX@Z		; operator delete
  00018	83 c4 04	 add	 esp, 4
$LN15@InvalidArg:
  0001b	33 c0		 xor	 eax, eax
  0001d	c7 46 24 0f 00
	00 00		 mov	 DWORD PTR [esi+36], 15	; 0000000fH
  00024	89 46 20	 mov	 DWORD PTR [esi+32], eax
  00027	88 46 10	 mov	 BYTE PTR [esi+16], al
  0002a	8b ce		 mov	 ecx, esi
  0002c	5e		 pop	 esi
  0002d	e9 00 00 00 00	 jmp	 ??1exception@std@@UAE@XZ ; std::exception::~exception
??1InvalidArgument@CryptoPP@@UAE@XZ ENDP		; CryptoPP::InvalidArgument::~InvalidArgument
; Function compile flags: /Ogtp
_TEXT	ENDS
;	COMDAT ??_GInvalidArgument@CryptoPP@@UAEPAXI@Z
_TEXT	SEGMENT
___flags$ = 8						; size = 4
??_GInvalidArgument@CryptoPP@@UAEPAXI@Z PROC		; CryptoPP::InvalidArgument::`scalar deleting destructor', COMDAT
; _this$ = ecx
  00000	55		 push	 ebp
  00001	8b ec		 mov	 ebp, esp
  00003	56		 push	 esi
  00004	8b f1		 mov	 esi, ecx
  00006	c7 06 00 00 00
	00		 mov	 DWORD PTR [esi], OFFSET ??_7Exception@CryptoPP@@6B@
  0000c	83 7e 24 10	 cmp	 DWORD PTR [esi+36], 16	; 00000010H
  00010	72 0c		 jb	 SHORT $LN18@scalar@3
  00012	8b 46 10	 mov	 eax, DWORD PTR [esi+16]
  00015	50		 push	 eax
  00016	e8 00 00 00 00	 call	 ??3@YAXPAX@Z		; operator delete
  0001b	83 c4 04	 add	 esp, 4
$LN18@scalar@3:
  0001e	33 c0		 xor	 eax, eax
  00020	c7 46 24 0f 00
	00 00		 mov	 DWORD PTR [esi+36], 15	; 0000000fH
  00027	89 46 20	 mov	 DWORD PTR [esi+32], eax
  0002a	8b ce		 mov	 ecx, esi
  0002c	88 46 10	 mov	 BYTE PTR [esi+16], al
  0002f	e8 00 00 00 00	 call	 ??1exception@std@@UAE@XZ ; std::exception::~exception
  00034	f6 45 08 01	 test	 BYTE PTR ___flags$[ebp], 1
  00038	74 09		 je	 SHORT $LN30@scalar@3
  0003a	56		 push	 esi
  0003b	e8 00 00 00 00	 call	 ??3@YAXPAX@Z		; operator delete
  00040	83 c4 04	 add	 esp, 4
$LN30@scalar@3:
  00043	8b c6		 mov	 eax, esi
  00045	5e		 pop	 esi
  00046	5d		 pop	 ebp
  00047	c2 04 00	 ret	 4
??_GInvalidArgument@CryptoPP@@UAEPAXI@Z ENDP		; CryptoPP::InvalidArgument::`scalar deleting destructor'
_TEXT	ENDS
PUBLIC	??1Base@DES_XEX3@CryptoPP@@UAE@XZ		; CryptoPP::DES_XEX3::Base::~Base
;	COMDAT xdata$x
xdata$x	SEGMENT
__unwindtable$??1Base@DES_XEX3@CryptoPP@@UAE@XZ DD 0ffffffffH
	DD	FLAT:__unwindfunclet$??1Base@DES_XEX3@CryptoPP@@UAE@XZ$0
	DD	00H
	DD	FLAT:__unwindfunclet$??1Base@DES_XEX3@CryptoPP@@UAE@XZ$1
__ehfuncinfo$??1Base@DES_XEX3@CryptoPP@@UAE@XZ DD 019930522H
	DD	02H
	DD	FLAT:__unwindtable$??1Base@DES_XEX3@CryptoPP@@UAE@XZ
	DD	2 DUP(00H)
	DD	2 DUP(00H)
	DD	00H
	DD	01H
; Function compile flags: /Ogtp
xdata$x	ENDS
;	COMDAT ??1Base@DES_XEX3@CryptoPP@@UAE@XZ
_TEXT	SEGMENT
_this$ = -16						; size = 4
__$EHRec$ = -12						; size = 12
??1Base@DES_XEX3@CryptoPP@@UAE@XZ PROC			; CryptoPP::DES_XEX3::Base::~Base, COMDAT
; _this$ = ecx
  00000	55		 push	 ebp
  00001	8b ec		 mov	 ebp, esp
  00003	6a ff		 push	 -1
  00005	68 00 00 00 00	 push	 __ehhandler$??1Base@DES_XEX3@CryptoPP@@UAE@XZ
  0000a	64 a1 00 00 00
	00		 mov	 eax, DWORD PTR fs:0
  00010	50		 push	 eax
  00011	51		 push	 ecx
  00012	56		 push	 esi
  00013	57		 push	 edi
  00014	a1 00 00 00 00	 mov	 eax, DWORD PTR ___security_cookie
  00019	33 c5		 xor	 eax, ebp
  0001b	50		 push	 eax
  0001c	8d 45 f4	 lea	 eax, DWORD PTR __$EHRec$[ebp]
  0001f	64 a3 00 00 00
	00		 mov	 DWORD PTR fs:0, eax
  00025	8b f1		 mov	 esi, ecx
  00027	89 75 f0	 mov	 DWORD PTR _this$[ebp], esi
  0002a	8d 4e 40	 lea	 ecx, DWORD PTR [esi+64]
  0002d	c7 45 fc 01 00
	00 00		 mov	 DWORD PTR __$EHRec$[ebp+8], 1
  00034	e8 00 00 00 00	 call	 ??1?$member_ptr@V?$BlockCipherFinal@$0A@VBase@DES@CryptoPP@@@CryptoPP@@@CryptoPP@@QAE@XZ ; CryptoPP::member_ptr<CryptoPP::BlockCipherFinal<0,CryptoPP::DES::Base> >::~member_ptr<CryptoPP::BlockCipherFinal<0,CryptoPP::DES::Base> >
  00039	8b 7e 3c	 mov	 edi, DWORD PTR [esi+60]
  0003c	8d 4e 28	 lea	 ecx, DWORD PTR [esi+40]
  0003f	32 d2		 xor	 dl, dl
  00041	3b f9		 cmp	 edi, ecx
  00043	75 0a		 jne	 SHORT $LN37@Base
  00045	88 51 09	 mov	 BYTE PTR [ecx+9], dl
  00048	8b 49 10	 mov	 ecx, DWORD PTR [ecx+16]
  0004b	32 c0		 xor	 al, al
  0004d	f3 aa		 rep stosb
$LN37@Base:
  0004f	8b 7e 24	 mov	 edi, DWORD PTR [esi+36]
  00052	8d 4e 10	 lea	 ecx, DWORD PTR [esi+16]
  00055	3b f9		 cmp	 edi, ecx
  00057	75 0a		 jne	 SHORT $LN69@Base
  00059	88 51 09	 mov	 BYTE PTR [ecx+9], dl
  0005c	8b 49 10	 mov	 ecx, DWORD PTR [ecx+16]
  0005f	32 c0		 xor	 al, al
  00061	f3 aa		 rep stosb
$LN69@Base:
  00063	8b 4d f4	 mov	 ecx, DWORD PTR __$EHRec$[ebp]
  00066	64 89 0d 00 00
	00 00		 mov	 DWORD PTR fs:0, ecx
  0006d	59		 pop	 ecx
  0006e	5f		 pop	 edi
  0006f	5e		 pop	 esi
  00070	8b e5		 mov	 esp, ebp
  00072	5d		 pop	 ebp
  00073	c3		 ret	 0
_TEXT	ENDS
;	COMDAT text$x
text$x	SEGMENT
__unwindfunclet$??1Base@DES_XEX3@CryptoPP@@UAE@XZ$0:
  00000	8b 4d f0	 mov	 ecx, DWORD PTR _this$[ebp]
  00003	83 c1 10	 add	 ecx, 16			; 00000010H
  00006	e9 00 00 00 00	 jmp	 ??1?$FixedSizeSecBlock@E$07V?$FixedSizeAllocatorWithCleanup@E$07V?$NullAllocator@E@CryptoPP@@$0A@@CryptoPP@@@CryptoPP@@QAE@XZ
__unwindfunclet$??1Base@DES_XEX3@CryptoPP@@UAE@XZ$1:
  0000b	8b 4d f0	 mov	 ecx, DWORD PTR _this$[ebp]
  0000e	83 c1 28	 add	 ecx, 40			; 00000028H
  00011	e9 00 00 00 00	 jmp	 ??1?$FixedSizeSecBlock@E$07V?$FixedSizeAllocatorWithCleanup@E$07V?$NullAllocator@E@CryptoPP@@$0A@@CryptoPP@@@CryptoPP@@QAE@XZ
__ehhandler$??1Base@DES_XEX3@CryptoPP@@UAE@XZ:
  00016	8b 54 24 08	 mov	 edx, DWORD PTR [esp+8]
  0001a	8d 42 0c	 lea	 eax, DWORD PTR [edx+12]
  0001d	8b 4a f0	 mov	 ecx, DWORD PTR [edx-16]
  00020	33 c8		 xor	 ecx, eax
  00022	e8 00 00 00 00	 call	 @__security_check_cookie@4
  00027	b8 00 00 00 00	 mov	 eax, OFFSET __ehfuncinfo$??1Base@DES_XEX3@CryptoPP@@UAE@XZ
  0002c	e9 00 00 00 00	 jmp	 ___CxxFrameHandler3
text$x	ENDS
??1Base@DES_XEX3@CryptoPP@@UAE@XZ ENDP			; CryptoPP::DES_XEX3::Base::~Base
PUBLIC	??0Base@DES_XEX3@CryptoPP@@QAE@XZ		; CryptoPP::DES_XEX3::Base::Base
; Function compile flags: /Ogtp
;	COMDAT ??0Base@DES_XEX3@CryptoPP@@QAE@XZ
_TEXT	SEGMENT
??0Base@DES_XEX3@CryptoPP@@QAE@XZ PROC			; CryptoPP::DES_XEX3::Base::Base, COMDAT
; _this$ = ecx
  00000	56		 push	 esi
  00001	8b f1		 mov	 esi, ecx
  00003	6a 01		 push	 1
  00005	8d 4e 04	 lea	 ecx, DWORD PTR [esi+4]
  00008	e8 00 00 00 00	 call	 ??0Algorithm@CryptoPP@@QAE@_N@Z ; CryptoPP::Algorithm::Algorithm
  0000d	8d 46 10	 lea	 eax, DWORD PTR [esi+16]
  00010	c6 40 09 01	 mov	 BYTE PTR [eax+9], 1
  00014	89 40 14	 mov	 DWORD PTR [eax+20], eax
  00017	b9 08 00 00 00	 mov	 ecx, 8
  0001c	89 48 10	 mov	 DWORD PTR [eax+16], ecx
  0001f	8d 46 28	 lea	 eax, DWORD PTR [esi+40]
  00022	89 48 10	 mov	 DWORD PTR [eax+16], ecx
  00025	c6 40 09 01	 mov	 BYTE PTR [eax+9], 1
  00029	89 40 14	 mov	 DWORD PTR [eax+20], eax
  0002c	c7 46 40 00 00
	00 00		 mov	 DWORD PTR [esi+64], 0
  00033	8b c6		 mov	 eax, esi
  00035	5e		 pop	 esi
  00036	c3		 ret	 0
??0Base@DES_XEX3@CryptoPP@@QAE@XZ ENDP			; CryptoPP::DES_XEX3::Base::Base
_TEXT	ENDS
PUBLIC	?assign@?$basic_string@DU?$char_traits@D@std@@V?$allocator@D@2@@std@@QAEAAV12@PBD@Z ; std::basic_string<char,std::char_traits<char>,std::allocator<char> >::assign
; Function compile flags: /Ogtp
; File c:\program files (x86)\microsoft visual studio 10.0\vc\include\xstring
;	COMDAT ?assign@?$basic_string@DU?$char_traits@D@std@@V?$allocator@D@2@@std@@QAEAAV12@PBD@Z
_TEXT	SEGMENT
__Ptr$ = 8						; size = 4
?assign@?$basic_string@DU?$char_traits@D@std@@V?$allocator@D@2@@std@@QAEAAV12@PBD@Z PROC ; std::basic_string<char,std::char_traits<char>,std::allocator<char> >::assign, COMDAT
; _this$ = ecx

; 928  : 		{	// assign [_Ptr, <null>)

  00000	55		 push	 ebp
  00001	8b ec		 mov	 ebp, esp
  00003	56		 push	 esi

; 929  : 		_DEBUG_POINTER(_Ptr);
; 930  : 		return (assign(_Ptr, _Traits::length(_Ptr)));

  00004	8b 75 08	 mov	 esi, DWORD PTR __Ptr$[ebp]
  00007	8b c6		 mov	 eax, esi
  00009	57		 push	 edi
  0000a	8d 78 01	 lea	 edi, DWORD PTR [eax+1]
  0000d	8d 49 00	 npad	 3
$LL5@assign@3:
  00010	8a 10		 mov	 dl, BYTE PTR [eax]
  00012	40		 inc	 eax
  00013	84 d2		 test	 dl, dl
  00015	75 f9		 jne	 SHORT $LL5@assign@3
  00017	2b c7		 sub	 eax, edi
  00019	50		 push	 eax
  0001a	56		 push	 esi
  0001b	e8 00 00 00 00	 call	 ?assign@?$basic_string@DU?$char_traits@D@std@@V?$allocator@D@2@@std@@QAEAAV12@PBDI@Z ; std::basic_string<char,std::char_traits<char>,std::allocator<char> >::assign
  00020	5f		 pop	 edi
  00021	5e		 pop	 esi

; 931  : 		}

  00022	5d		 pop	 ebp
  00023	c2 04 00	 ret	 4
?assign@?$basic_string@DU?$char_traits@D@std@@V?$allocator@D@2@@std@@QAEAAV12@PBD@Z ENDP ; std::basic_string<char,std::char_traits<char>,std::allocator<char> >::assign
_TEXT	ENDS
PUBLIC	??1?$ClonableImpl@V?$BlockCipherFinal@$0A@VBase@DES_XEX3@CryptoPP@@@CryptoPP@@VBase@DES_XEX3@2@@CryptoPP@@UAE@XZ ; CryptoPP::ClonableImpl<CryptoPP::BlockCipherFinal<0,CryptoPP::DES_XEX3::Base>,CryptoPP::DES_XEX3::Base>::~ClonableImpl<CryptoPP::BlockCipherFinal<0,CryptoPP::DES_XEX3::Base>,CryptoPP::DES_XEX3::Base>
;	COMDAT xdata$x
xdata$x	SEGMENT
__unwindtable$??1?$ClonableImpl@V?$BlockCipherFinal@$0A@VBase@DES_XEX3@CryptoPP@@@CryptoPP@@VBase@DES_XEX3@2@@CryptoPP@@UAE@XZ DD 0ffffffffH
	DD	FLAT:__unwindfunclet$??1?$ClonableImpl@V?$BlockCipherFinal@$0A@VBase@DES_XEX3@CryptoPP@@@CryptoPP@@VBase@DES_XEX3@2@@CryptoPP@@UAE@XZ$1
	DD	00H
	DD	FLAT:__unwindfunclet$??1?$ClonableImpl@V?$BlockCipherFinal@$0A@VBase@DES_XEX3@CryptoPP@@@CryptoPP@@VBase@DES_XEX3@2@@CryptoPP@@UAE@XZ$2
__ehfuncinfo$??1?$ClonableImpl@V?$BlockCipherFinal@$0A@VBase@DES_XEX3@CryptoPP@@@CryptoPP@@VBase@DES_XEX3@2@@CryptoPP@@UAE@XZ DD 019930522H
	DD	02H
	DD	FLAT:__unwindtable$??1?$ClonableImpl@V?$BlockCipherFinal@$0A@VBase@DES_XEX3@CryptoPP@@@CryptoPP@@VBase@DES_XEX3@2@@CryptoPP@@UAE@XZ
	DD	2 DUP(00H)
	DD	2 DUP(00H)
	DD	00H
	DD	01H
; Function compile flags: /Ogtp
xdata$x	ENDS
;	COMDAT ??1?$ClonableImpl@V?$BlockCipherFinal@$0A@VBase@DES_XEX3@CryptoPP@@@CryptoPP@@VBase@DES_XEX3@2@@CryptoPP@@UAE@XZ
_TEXT	SEGMENT
_this$ = -16						; size = 4
__$EHRec$ = -12						; size = 12
??1?$ClonableImpl@V?$BlockCipherFinal@$0A@VBase@DES_XEX3@CryptoPP@@@CryptoPP@@VBase@DES_XEX3@2@@CryptoPP@@UAE@XZ PROC ; CryptoPP::ClonableImpl<CryptoPP::BlockCipherFinal<0,CryptoPP::DES_XEX3::Base>,CryptoPP::DES_XEX3::Base>::~ClonableImpl<CryptoPP::BlockCipherFinal<0,CryptoPP::DES_XEX3::Base>,CryptoPP::DES_XEX3::Base>, COMDAT
; _this$ = ecx
  00000	55		 push	 ebp
  00001	8b ec		 mov	 ebp, esp
  00003	6a ff		 push	 -1
  00005	68 00 00 00 00	 push	 __ehhandler$??1?$ClonableImpl@V?$BlockCipherFinal@$0A@VBase@DES_XEX3@CryptoPP@@@CryptoPP@@VBase@DES_XEX3@2@@CryptoPP@@UAE@XZ
  0000a	64 a1 00 00 00
	00		 mov	 eax, DWORD PTR fs:0
  00010	50		 push	 eax
  00011	51		 push	 ecx
  00012	56		 push	 esi
  00013	57		 push	 edi
  00014	a1 00 00 00 00	 mov	 eax, DWORD PTR ___security_cookie
  00019	33 c5		 xor	 eax, ebp
  0001b	50		 push	 eax
  0001c	8d 45 f4	 lea	 eax, DWORD PTR __$EHRec$[ebp]
  0001f	64 a3 00 00 00
	00		 mov	 DWORD PTR fs:0, eax
  00025	8b f1		 mov	 esi, ecx
  00027	89 75 f0	 mov	 DWORD PTR _this$[ebp], esi
  0002a	8d 4e 40	 lea	 ecx, DWORD PTR [esi+64]
  0002d	c7 45 fc 01 00
	00 00		 mov	 DWORD PTR __$EHRec$[ebp+8], 1
  00034	e8 00 00 00 00	 call	 ??1?$member_ptr@V?$BlockCipherFinal@$0A@VBase@DES@CryptoPP@@@CryptoPP@@@CryptoPP@@QAE@XZ ; CryptoPP::member_ptr<CryptoPP::BlockCipherFinal<0,CryptoPP::DES::Base> >::~member_ptr<CryptoPP::BlockCipherFinal<0,CryptoPP::DES::Base> >
  00039	8b 7e 3c	 mov	 edi, DWORD PTR [esi+60]
  0003c	8d 4e 28	 lea	 ecx, DWORD PTR [esi+40]
  0003f	32 d2		 xor	 dl, dl
  00041	3b f9		 cmp	 edi, ecx
  00043	75 0a		 jne	 SHORT $LN40@ClonableIm
  00045	88 51 09	 mov	 BYTE PTR [ecx+9], dl
  00048	8b 49 10	 mov	 ecx, DWORD PTR [ecx+16]
  0004b	32 c0		 xor	 al, al
  0004d	f3 aa		 rep stosb
$LN40@ClonableIm:
  0004f	8b 7e 24	 mov	 edi, DWORD PTR [esi+36]
  00052	8d 4e 10	 lea	 ecx, DWORD PTR [esi+16]
  00055	3b f9		 cmp	 edi, ecx
  00057	75 0a		 jne	 SHORT $LN72@ClonableIm
  00059	88 51 09	 mov	 BYTE PTR [ecx+9], dl
  0005c	8b 49 10	 mov	 ecx, DWORD PTR [ecx+16]
  0005f	32 c0		 xor	 al, al
  00061	f3 aa		 rep stosb
$LN72@ClonableIm:
  00063	8b 4d f4	 mov	 ecx, DWORD PTR __$EHRec$[ebp]
  00066	64 89 0d 00 00
	00 00		 mov	 DWORD PTR fs:0, ecx
  0006d	59		 pop	 ecx
  0006e	5f		 pop	 edi
  0006f	5e		 pop	 esi
  00070	8b e5		 mov	 esp, ebp
  00072	5d		 pop	 ebp
  00073	c3		 ret	 0
_TEXT	ENDS
;	COMDAT text$x
text$x	SEGMENT
__unwindfunclet$??1?$ClonableImpl@V?$BlockCipherFinal@$0A@VBase@DES_XEX3@CryptoPP@@@CryptoPP@@VBase@DES_XEX3@2@@CryptoPP@@UAE@XZ$1:
  00000	8b 4d f0	 mov	 ecx, DWORD PTR _this$[ebp]
  00003	83 c1 10	 add	 ecx, 16			; 00000010H
  00006	e9 00 00 00 00	 jmp	 ??1?$FixedSizeSecBlock@E$07V?$FixedSizeAllocatorWithCleanup@E$07V?$NullAllocator@E@CryptoPP@@$0A@@CryptoPP@@@CryptoPP@@QAE@XZ
__unwindfunclet$??1?$ClonableImpl@V?$BlockCipherFinal@$0A@VBase@DES_XEX3@CryptoPP@@@CryptoPP@@VBase@DES_XEX3@2@@CryptoPP@@UAE@XZ$2:
  0000b	8b 4d f0	 mov	 ecx, DWORD PTR _this$[ebp]
  0000e	83 c1 28	 add	 ecx, 40			; 00000028H
  00011	e9 00 00 00 00	 jmp	 ??1?$FixedSizeSecBlock@E$07V?$FixedSizeAllocatorWithCleanup@E$07V?$NullAllocator@E@CryptoPP@@$0A@@CryptoPP@@@CryptoPP@@QAE@XZ
__ehhandler$??1?$ClonableImpl@V?$BlockCipherFinal@$0A@VBase@DES_XEX3@CryptoPP@@@CryptoPP@@VBase@DES_XEX3@2@@CryptoPP@@UAE@XZ:
  00016	8b 54 24 08	 mov	 edx, DWORD PTR [esp+8]
  0001a	8d 42 0c	 lea	 eax, DWORD PTR [edx+12]
  0001d	8b 4a f0	 mov	 ecx, DWORD PTR [edx-16]
  00020	33 c8		 xor	 ecx, eax
  00022	e8 00 00 00 00	 call	 @__security_check_cookie@4
  00027	b8 00 00 00 00	 mov	 eax, OFFSET __ehfuncinfo$??1?$ClonableImpl@V?$BlockCipherFinal@$0A@VBase@DES_XEX3@CryptoPP@@@CryptoPP@@VBase@DES_XEX3@2@@CryptoPP@@UAE@XZ
  0002c	e9 00 00 00 00	 jmp	 ___CxxFrameHandler3
text$x	ENDS
??1?$ClonableImpl@V?$BlockCipherFinal@$0A@VBase@DES_XEX3@CryptoPP@@@CryptoPP@@VBase@DES_XEX3@2@@CryptoPP@@UAE@XZ ENDP ; CryptoPP::ClonableImpl<CryptoPP::BlockCipherFinal<0,CryptoPP::DES_XEX3::Base>,CryptoPP::DES_XEX3::Base>::~ClonableImpl<CryptoPP::BlockCipherFinal<0,CryptoPP::DES_XEX3::Base>,CryptoPP::DES_XEX3::Base>
PUBLIC	??1?$ClonableImpl@V?$BlockCipherFinal@$00VBase@DES_XEX3@CryptoPP@@@CryptoPP@@VBase@DES_XEX3@2@@CryptoPP@@UAE@XZ ; CryptoPP::ClonableImpl<CryptoPP::BlockCipherFinal<1,CryptoPP::DES_XEX3::Base>,CryptoPP::DES_XEX3::Base>::~ClonableImpl<CryptoPP::BlockCipherFinal<1,CryptoPP::DES_XEX3::Base>,CryptoPP::DES_XEX3::Base>
;	COMDAT xdata$x
xdata$x	SEGMENT
__unwindtable$??1?$ClonableImpl@V?$BlockCipherFinal@$00VBase@DES_XEX3@CryptoPP@@@CryptoPP@@VBase@DES_XEX3@2@@CryptoPP@@UAE@XZ DD 0ffffffffH
	DD	FLAT:__unwindfunclet$??1?$ClonableImpl@V?$BlockCipherFinal@$00VBase@DES_XEX3@CryptoPP@@@CryptoPP@@VBase@DES_XEX3@2@@CryptoPP@@UAE@XZ$1
	DD	00H
	DD	FLAT:__unwindfunclet$??1?$ClonableImpl@V?$BlockCipherFinal@$00VBase@DES_XEX3@CryptoPP@@@CryptoPP@@VBase@DES_XEX3@2@@CryptoPP@@UAE@XZ$2
__ehfuncinfo$??1?$ClonableImpl@V?$BlockCipherFinal@$00VBase@DES_XEX3@CryptoPP@@@CryptoPP@@VBase@DES_XEX3@2@@CryptoPP@@UAE@XZ DD 019930522H
	DD	02H
	DD	FLAT:__unwindtable$??1?$ClonableImpl@V?$BlockCipherFinal@$00VBase@DES_XEX3@CryptoPP@@@CryptoPP@@VBase@DES_XEX3@2@@CryptoPP@@UAE@XZ
	DD	2 DUP(00H)
	DD	2 DUP(00H)
	DD	00H
	DD	01H
; Function compile flags: /Ogtp
xdata$x	ENDS
;	COMDAT ??1?$ClonableImpl@V?$BlockCipherFinal@$00VBase@DES_XEX3@CryptoPP@@@CryptoPP@@VBase@DES_XEX3@2@@CryptoPP@@UAE@XZ
_TEXT	SEGMENT
_this$ = -16						; size = 4
__$EHRec$ = -12						; size = 12
??1?$ClonableImpl@V?$BlockCipherFinal@$00VBase@DES_XEX3@CryptoPP@@@CryptoPP@@VBase@DES_XEX3@2@@CryptoPP@@UAE@XZ PROC ; CryptoPP::ClonableImpl<CryptoPP::BlockCipherFinal<1,CryptoPP::DES_XEX3::Base>,CryptoPP::DES_XEX3::Base>::~ClonableImpl<CryptoPP::BlockCipherFinal<1,CryptoPP::DES_XEX3::Base>,CryptoPP::DES_XEX3::Base>, COMDAT
; _this$ = ecx
  00000	55		 push	 ebp
  00001	8b ec		 mov	 ebp, esp
  00003	6a ff		 push	 -1
  00005	68 00 00 00 00	 push	 __ehhandler$??1?$ClonableImpl@V?$BlockCipherFinal@$00VBase@DES_XEX3@CryptoPP@@@CryptoPP@@VBase@DES_XEX3@2@@CryptoPP@@UAE@XZ
  0000a	64 a1 00 00 00
	00		 mov	 eax, DWORD PTR fs:0
  00010	50		 push	 eax
  00011	51		 push	 ecx
  00012	56		 push	 esi
  00013	57		 push	 edi
  00014	a1 00 00 00 00	 mov	 eax, DWORD PTR ___security_cookie
  00019	33 c5		 xor	 eax, ebp
  0001b	50		 push	 eax
  0001c	8d 45 f4	 lea	 eax, DWORD PTR __$EHRec$[ebp]
  0001f	64 a3 00 00 00
	00		 mov	 DWORD PTR fs:0, eax
  00025	8b f1		 mov	 esi, ecx
  00027	89 75 f0	 mov	 DWORD PTR _this$[ebp], esi
  0002a	8d 4e 40	 lea	 ecx, DWORD PTR [esi+64]
  0002d	c7 45 fc 01 00
	00 00		 mov	 DWORD PTR __$EHRec$[ebp+8], 1
  00034	e8 00 00 00 00	 call	 ??1?$member_ptr@V?$BlockCipherFinal@$0A@VBase@DES@CryptoPP@@@CryptoPP@@@CryptoPP@@QAE@XZ ; CryptoPP::member_ptr<CryptoPP::BlockCipherFinal<0,CryptoPP::DES::Base> >::~member_ptr<CryptoPP::BlockCipherFinal<0,CryptoPP::DES::Base> >
  00039	8b 7e 3c	 mov	 edi, DWORD PTR [esi+60]
  0003c	8d 4e 28	 lea	 ecx, DWORD PTR [esi+40]
  0003f	32 d2		 xor	 dl, dl
  00041	3b f9		 cmp	 edi, ecx
  00043	75 0a		 jne	 SHORT $LN40@ClonableIm@2
  00045	88 51 09	 mov	 BYTE PTR [ecx+9], dl
  00048	8b 49 10	 mov	 ecx, DWORD PTR [ecx+16]
  0004b	32 c0		 xor	 al, al
  0004d	f3 aa		 rep stosb
$LN40@ClonableIm@2:
  0004f	8b 7e 24	 mov	 edi, DWORD PTR [esi+36]
  00052	8d 4e 10	 lea	 ecx, DWORD PTR [esi+16]
  00055	3b f9		 cmp	 edi, ecx
  00057	75 0a		 jne	 SHORT $LN72@ClonableIm@2
  00059	88 51 09	 mov	 BYTE PTR [ecx+9], dl
  0005c	8b 49 10	 mov	 ecx, DWORD PTR [ecx+16]
  0005f	32 c0		 xor	 al, al
  00061	f3 aa		 rep stosb
$LN72@ClonableIm@2:
  00063	8b 4d f4	 mov	 ecx, DWORD PTR __$EHRec$[ebp]
  00066	64 89 0d 00 00
	00 00		 mov	 DWORD PTR fs:0, ecx
  0006d	59		 pop	 ecx
  0006e	5f		 pop	 edi
  0006f	5e		 pop	 esi
  00070	8b e5		 mov	 esp, ebp
  00072	5d		 pop	 ebp
  00073	c3		 ret	 0
_TEXT	ENDS
;	COMDAT text$x
text$x	SEGMENT
__unwindfunclet$??1?$ClonableImpl@V?$BlockCipherFinal@$00VBase@DES_XEX3@CryptoPP@@@CryptoPP@@VBase@DES_XEX3@2@@CryptoPP@@UAE@XZ$1:
  00000	8b 4d f0	 mov	 ecx, DWORD PTR _this$[ebp]
  00003	83 c1 10	 add	 ecx, 16			; 00000010H
  00006	e9 00 00 00 00	 jmp	 ??1?$FixedSizeSecBlock@E$07V?$FixedSizeAllocatorWithCleanup@E$07V?$NullAllocator@E@CryptoPP@@$0A@@CryptoPP@@@CryptoPP@@QAE@XZ
__unwindfunclet$??1?$ClonableImpl@V?$BlockCipherFinal@$00VBase@DES_XEX3@CryptoPP@@@CryptoPP@@VBase@DES_XEX3@2@@CryptoPP@@UAE@XZ$2:
  0000b	8b 4d f0	 mov	 ecx, DWORD PTR _this$[ebp]
  0000e	83 c1 28	 add	 ecx, 40			; 00000028H
  00011	e9 00 00 00 00	 jmp	 ??1?$FixedSizeSecBlock@E$07V?$FixedSizeAllocatorWithCleanup@E$07V?$NullAllocator@E@CryptoPP@@$0A@@CryptoPP@@@CryptoPP@@QAE@XZ
__ehhandler$??1?$ClonableImpl@V?$BlockCipherFinal@$00VBase@DES_XEX3@CryptoPP@@@CryptoPP@@VBase@DES_XEX3@2@@CryptoPP@@UAE@XZ:
  00016	8b 54 24 08	 mov	 edx, DWORD PTR [esp+8]
  0001a	8d 42 0c	 lea	 eax, DWORD PTR [edx+12]
  0001d	8b 4a f0	 mov	 ecx, DWORD PTR [edx-16]
  00020	33 c8		 xor	 ecx, eax
  00022	e8 00 00 00 00	 call	 @__security_check_cookie@4
  00027	b8 00 00 00 00	 mov	 eax, OFFSET __ehfuncinfo$??1?$ClonableImpl@V?$BlockCipherFinal@$00VBase@DES_XEX3@CryptoPP@@@CryptoPP@@VBase@DES_XEX3@2@@CryptoPP@@UAE@XZ
  0002c	e9 00 00 00 00	 jmp	 ___CxxFrameHandler3
text$x	ENDS
??1?$ClonableImpl@V?$BlockCipherFinal@$00VBase@DES_XEX3@CryptoPP@@@CryptoPP@@VBase@DES_XEX3@2@@CryptoPP@@UAE@XZ ENDP ; CryptoPP::ClonableImpl<CryptoPP::BlockCipherFinal<1,CryptoPP::DES_XEX3::Base>,CryptoPP::DES_XEX3::Base>::~ClonableImpl<CryptoPP::BlockCipherFinal<1,CryptoPP::DES_XEX3::Base>,CryptoPP::DES_XEX3::Base>
PUBLIC	??0?$ClonableImpl@V?$BlockCipherFinal@$0A@VBase@DES_XEX3@CryptoPP@@@CryptoPP@@VBase@DES_XEX3@2@@CryptoPP@@QAE@XZ ; CryptoPP::ClonableImpl<CryptoPP::BlockCipherFinal<0,CryptoPP::DES_XEX3::Base>,CryptoPP::DES_XEX3::Base>::ClonableImpl<CryptoPP::BlockCipherFinal<0,CryptoPP::DES_XEX3::Base>,CryptoPP::DES_XEX3::Base>
; Function compile flags: /Ogtp
;	COMDAT ??0?$ClonableImpl@V?$BlockCipherFinal@$0A@VBase@DES_XEX3@CryptoPP@@@CryptoPP@@VBase@DES_XEX3@2@@CryptoPP@@QAE@XZ
_TEXT	SEGMENT
??0?$ClonableImpl@V?$BlockCipherFinal@$0A@VBase@DES_XEX3@CryptoPP@@@CryptoPP@@VBase@DES_XEX3@2@@CryptoPP@@QAE@XZ PROC ; CryptoPP::ClonableImpl<CryptoPP::BlockCipherFinal<0,CryptoPP::DES_XEX3::Base>,CryptoPP::DES_XEX3::Base>::ClonableImpl<CryptoPP::BlockCipherFinal<0,CryptoPP::DES_XEX3::Base>,CryptoPP::DES_XEX3::Base>, COMDAT
; _this$ = ecx
  00000	56		 push	 esi
  00001	8b f1		 mov	 esi, ecx
  00003	6a 01		 push	 1
  00005	8d 4e 04	 lea	 ecx, DWORD PTR [esi+4]
  00008	e8 00 00 00 00	 call	 ??0Algorithm@CryptoPP@@QAE@_N@Z ; CryptoPP::Algorithm::Algorithm
  0000d	8d 46 10	 lea	 eax, DWORD PTR [esi+16]
  00010	c6 40 09 01	 mov	 BYTE PTR [eax+9], 1
  00014	89 40 14	 mov	 DWORD PTR [eax+20], eax
  00017	b9 08 00 00 00	 mov	 ecx, 8
  0001c	89 48 10	 mov	 DWORD PTR [eax+16], ecx
  0001f	8d 46 28	 lea	 eax, DWORD PTR [esi+40]
  00022	89 48 10	 mov	 DWORD PTR [eax+16], ecx
  00025	c6 40 09 01	 mov	 BYTE PTR [eax+9], 1
  00029	89 40 14	 mov	 DWORD PTR [eax+20], eax
  0002c	c7 46 40 00 00
	00 00		 mov	 DWORD PTR [esi+64], 0
  00033	8b c6		 mov	 eax, esi
  00035	5e		 pop	 esi
  00036	c3		 ret	 0
??0?$ClonableImpl@V?$BlockCipherFinal@$0A@VBase@DES_XEX3@CryptoPP@@@CryptoPP@@VBase@DES_XEX3@2@@CryptoPP@@QAE@XZ ENDP ; CryptoPP::ClonableImpl<CryptoPP::BlockCipherFinal<0,CryptoPP::DES_XEX3::Base>,CryptoPP::DES_XEX3::Base>::ClonableImpl<CryptoPP::BlockCipherFinal<0,CryptoPP::DES_XEX3::Base>,CryptoPP::DES_XEX3::Base>
_TEXT	ENDS
PUBLIC	??0?$ClonableImpl@V?$BlockCipherFinal@$00VBase@DES_XEX3@CryptoPP@@@CryptoPP@@VBase@DES_XEX3@2@@CryptoPP@@QAE@XZ ; CryptoPP::ClonableImpl<CryptoPP::BlockCipherFinal<1,CryptoPP::DES_XEX3::Base>,CryptoPP::DES_XEX3::Base>::ClonableImpl<CryptoPP::BlockCipherFinal<1,CryptoPP::DES_XEX3::Base>,CryptoPP::DES_XEX3::Base>
; Function compile flags: /Ogtp
;	COMDAT ??0?$ClonableImpl@V?$BlockCipherFinal@$00VBase@DES_XEX3@CryptoPP@@@CryptoPP@@VBase@DES_XEX3@2@@CryptoPP@@QAE@XZ
_TEXT	SEGMENT
??0?$ClonableImpl@V?$BlockCipherFinal@$00VBase@DES_XEX3@CryptoPP@@@CryptoPP@@VBase@DES_XEX3@2@@CryptoPP@@QAE@XZ PROC ; CryptoPP::ClonableImpl<CryptoPP::BlockCipherFinal<1,CryptoPP::DES_XEX3::Base>,CryptoPP::DES_XEX3::Base>::ClonableImpl<CryptoPP::BlockCipherFinal<1,CryptoPP::DES_XEX3::Base>,CryptoPP::DES_XEX3::Base>, COMDAT
; _this$ = ecx
  00000	56		 push	 esi
  00001	8b f1		 mov	 esi, ecx
  00003	6a 01		 push	 1
  00005	8d 4e 04	 lea	 ecx, DWORD PTR [esi+4]
  00008	e8 00 00 00 00	 call	 ??0Algorithm@CryptoPP@@QAE@_N@Z ; CryptoPP::Algorithm::Algorithm
  0000d	8d 46 10	 lea	 eax, DWORD PTR [esi+16]
  00010	c6 40 09 01	 mov	 BYTE PTR [eax+9], 1
  00014	89 40 14	 mov	 DWORD PTR [eax+20], eax
  00017	b9 08 00 00 00	 mov	 ecx, 8
  0001c	89 48 10	 mov	 DWORD PTR [eax+16], ecx
  0001f	8d 46 28	 lea	 eax, DWORD PTR [esi+40]
  00022	89 48 10	 mov	 DWORD PTR [eax+16], ecx
  00025	c6 40 09 01	 mov	 BYTE PTR [eax+9], 1
  00029	89 40 14	 mov	 DWORD PTR [eax+20], eax
  0002c	c7 46 40 00 00
	00 00		 mov	 DWORD PTR [esi+64], 0
  00033	8b c6		 mov	 eax, esi
  00035	5e		 pop	 esi
  00036	c3		 ret	 0
??0?$ClonableImpl@V?$BlockCipherFinal@$00VBase@DES_XEX3@CryptoPP@@@CryptoPP@@VBase@DES_XEX3@2@@CryptoPP@@QAE@XZ ENDP ; CryptoPP::ClonableImpl<CryptoPP::BlockCipherFinal<1,CryptoPP::DES_XEX3::Base>,CryptoPP::DES_XEX3::Base>::ClonableImpl<CryptoPP::BlockCipherFinal<1,CryptoPP::DES_XEX3::Base>,CryptoPP::DES_XEX3::Base>
_TEXT	ENDS
PUBLIC	??0?$basic_string@DU?$char_traits@D@std@@V?$allocator@D@2@@std@@QAE@PBD@Z ; std::basic_string<char,std::char_traits<char>,std::allocator<char> >::basic_string<char,std::char_traits<char>,std::allocator<char> >
; Function compile flags: /Ogtp
;	COMDAT ??0?$basic_string@DU?$char_traits@D@std@@V?$allocator@D@2@@std@@QAE@PBD@Z
_TEXT	SEGMENT
__Ptr$ = 8						; size = 4
??0?$basic_string@DU?$char_traits@D@std@@V?$allocator@D@2@@std@@QAE@PBD@Z PROC ; std::basic_string<char,std::char_traits<char>,std::allocator<char> >::basic_string<char,std::char_traits<char>,std::allocator<char> >, COMDAT
; _this$ = ecx

; 592  : 		{	// construct from [_Ptr, <null>)

  00000	55		 push	 ebp
  00001	8b ec		 mov	 ebp, esp

; 593  : 		_Tidy();
; 594  : 		assign(_Ptr);

  00003	8b 55 08	 mov	 edx, DWORD PTR __Ptr$[ebp]
  00006	56		 push	 esi
  00007	8b f1		 mov	 esi, ecx
  00009	8b c2		 mov	 eax, edx
  0000b	57		 push	 edi
  0000c	c7 46 14 0f 00
	00 00		 mov	 DWORD PTR [esi+20], 15	; 0000000fH
  00013	c7 46 10 00 00
	00 00		 mov	 DWORD PTR [esi+16], 0
  0001a	c6 06 00	 mov	 BYTE PTR [esi], 0
  0001d	8d 78 01	 lea	 edi, DWORD PTR [eax+1]
$LL31@basic_stri@2:
  00020	8a 08		 mov	 cl, BYTE PTR [eax]
  00022	40		 inc	 eax
  00023	84 c9		 test	 cl, cl
  00025	75 f9		 jne	 SHORT $LL31@basic_stri@2
  00027	2b c7		 sub	 eax, edi
  00029	50		 push	 eax
  0002a	52		 push	 edx
  0002b	8b ce		 mov	 ecx, esi
  0002d	e8 00 00 00 00	 call	 ?assign@?$basic_string@DU?$char_traits@D@std@@V?$allocator@D@2@@std@@QAEAAV12@PBDI@Z ; std::basic_string<char,std::char_traits<char>,std::allocator<char> >::assign
  00032	5f		 pop	 edi

; 595  : 		}

  00033	8b c6		 mov	 eax, esi
  00035	5e		 pop	 esi
  00036	5d		 pop	 ebp
  00037	c2 04 00	 ret	 4
??0?$basic_string@DU?$char_traits@D@std@@V?$allocator@D@2@@std@@QAE@PBD@Z ENDP ; std::basic_string<char,std::char_traits<char>,std::allocator<char> >::basic_string<char,std::char_traits<char>,std::allocator<char> >
_TEXT	ENDS
PUBLIC	??1?$BlockCipherFinal@$0A@VBase@DES_XEX3@CryptoPP@@@CryptoPP@@UAE@XZ ; CryptoPP::BlockCipherFinal<0,CryptoPP::DES_XEX3::Base>::~BlockCipherFinal<0,CryptoPP::DES_XEX3::Base>
;	COMDAT xdata$x
xdata$x	SEGMENT
__unwindtable$??1?$BlockCipherFinal@$0A@VBase@DES_XEX3@CryptoPP@@@CryptoPP@@UAE@XZ DD 0ffffffffH
	DD	FLAT:__unwindfunclet$??1?$BlockCipherFinal@$0A@VBase@DES_XEX3@CryptoPP@@@CryptoPP@@UAE@XZ$2
	DD	00H
	DD	FLAT:__unwindfunclet$??1?$BlockCipherFinal@$0A@VBase@DES_XEX3@CryptoPP@@@CryptoPP@@UAE@XZ$3
__ehfuncinfo$??1?$BlockCipherFinal@$0A@VBase@DES_XEX3@CryptoPP@@@CryptoPP@@UAE@XZ DD 019930522H
	DD	02H
	DD	FLAT:__unwindtable$??1?$BlockCipherFinal@$0A@VBase@DES_XEX3@CryptoPP@@@CryptoPP@@UAE@XZ
	DD	2 DUP(00H)
	DD	2 DUP(00H)
	DD	00H
	DD	01H
; Function compile flags: /Ogtp
xdata$x	ENDS
;	COMDAT ??1?$BlockCipherFinal@$0A@VBase@DES_XEX3@CryptoPP@@@CryptoPP@@UAE@XZ
_TEXT	SEGMENT
_this$ = -16						; size = 4
__$EHRec$ = -12						; size = 12
??1?$BlockCipherFinal@$0A@VBase@DES_XEX3@CryptoPP@@@CryptoPP@@UAE@XZ PROC ; CryptoPP::BlockCipherFinal<0,CryptoPP::DES_XEX3::Base>::~BlockCipherFinal<0,CryptoPP::DES_XEX3::Base>, COMDAT
; _this$ = ecx
  00000	55		 push	 ebp
  00001	8b ec		 mov	 ebp, esp
  00003	6a ff		 push	 -1
  00005	68 00 00 00 00	 push	 __ehhandler$??1?$BlockCipherFinal@$0A@VBase@DES_XEX3@CryptoPP@@@CryptoPP@@UAE@XZ
  0000a	64 a1 00 00 00
	00		 mov	 eax, DWORD PTR fs:0
  00010	50		 push	 eax
  00011	51		 push	 ecx
  00012	56		 push	 esi
  00013	57		 push	 edi
  00014	a1 00 00 00 00	 mov	 eax, DWORD PTR ___security_cookie
  00019	33 c5		 xor	 eax, ebp
  0001b	50		 push	 eax
  0001c	8d 45 f4	 lea	 eax, DWORD PTR __$EHRec$[ebp]
  0001f	64 a3 00 00 00
	00		 mov	 DWORD PTR fs:0, eax
  00025	8b f1		 mov	 esi, ecx
  00027	89 75 f0	 mov	 DWORD PTR _this$[ebp], esi
  0002a	8d 4e 40	 lea	 ecx, DWORD PTR [esi+64]
  0002d	c7 45 fc 01 00
	00 00		 mov	 DWORD PTR __$EHRec$[ebp+8], 1
  00034	e8 00 00 00 00	 call	 ??1?$member_ptr@V?$BlockCipherFinal@$0A@VBase@DES@CryptoPP@@@CryptoPP@@@CryptoPP@@QAE@XZ ; CryptoPP::member_ptr<CryptoPP::BlockCipherFinal<0,CryptoPP::DES::Base> >::~member_ptr<CryptoPP::BlockCipherFinal<0,CryptoPP::DES::Base> >
  00039	8b 7e 3c	 mov	 edi, DWORD PTR [esi+60]
  0003c	8d 4e 28	 lea	 ecx, DWORD PTR [esi+40]
  0003f	32 d2		 xor	 dl, dl
  00041	3b f9		 cmp	 edi, ecx
  00043	75 0a		 jne	 SHORT $LN43@BlockCiphe
  00045	88 51 09	 mov	 BYTE PTR [ecx+9], dl
  00048	8b 49 10	 mov	 ecx, DWORD PTR [ecx+16]
  0004b	32 c0		 xor	 al, al
  0004d	f3 aa		 rep stosb
$LN43@BlockCiphe:
  0004f	8b 7e 24	 mov	 edi, DWORD PTR [esi+36]
  00052	8d 4e 10	 lea	 ecx, DWORD PTR [esi+16]
  00055	3b f9		 cmp	 edi, ecx
  00057	75 0a		 jne	 SHORT $LN75@BlockCiphe
  00059	88 51 09	 mov	 BYTE PTR [ecx+9], dl
  0005c	8b 49 10	 mov	 ecx, DWORD PTR [ecx+16]
  0005f	32 c0		 xor	 al, al
  00061	f3 aa		 rep stosb
$LN75@BlockCiphe:
  00063	8b 4d f4	 mov	 ecx, DWORD PTR __$EHRec$[ebp]
  00066	64 89 0d 00 00
	00 00		 mov	 DWORD PTR fs:0, ecx
  0006d	59		 pop	 ecx
  0006e	5f		 pop	 edi
  0006f	5e		 pop	 esi
  00070	8b e5		 mov	 esp, ebp
  00072	5d		 pop	 ebp
  00073	c3		 ret	 0
_TEXT	ENDS
;	COMDAT text$x
text$x	SEGMENT
__unwindfunclet$??1?$BlockCipherFinal@$0A@VBase@DES_XEX3@CryptoPP@@@CryptoPP@@UAE@XZ$2:
  00000	8b 4d f0	 mov	 ecx, DWORD PTR _this$[ebp]
  00003	83 c1 10	 add	 ecx, 16			; 00000010H
  00006	e9 00 00 00 00	 jmp	 ??1?$FixedSizeSecBlock@E$07V?$FixedSizeAllocatorWithCleanup@E$07V?$NullAllocator@E@CryptoPP@@$0A@@CryptoPP@@@CryptoPP@@QAE@XZ
__unwindfunclet$??1?$BlockCipherFinal@$0A@VBase@DES_XEX3@CryptoPP@@@CryptoPP@@UAE@XZ$3:
  0000b	8b 4d f0	 mov	 ecx, DWORD PTR _this$[ebp]
  0000e	83 c1 28	 add	 ecx, 40			; 00000028H
  00011	e9 00 00 00 00	 jmp	 ??1?$FixedSizeSecBlock@E$07V?$FixedSizeAllocatorWithCleanup@E$07V?$NullAllocator@E@CryptoPP@@$0A@@CryptoPP@@@CryptoPP@@QAE@XZ
__ehhandler$??1?$BlockCipherFinal@$0A@VBase@DES_XEX3@CryptoPP@@@CryptoPP@@UAE@XZ:
  00016	8b 54 24 08	 mov	 edx, DWORD PTR [esp+8]
  0001a	8d 42 0c	 lea	 eax, DWORD PTR [edx+12]
  0001d	8b 4a f0	 mov	 ecx, DWORD PTR [edx-16]
  00020	33 c8		 xor	 ecx, eax
  00022	e8 00 00 00 00	 call	 @__security_check_cookie@4
  00027	b8 00 00 00 00	 mov	 eax, OFFSET __ehfuncinfo$??1?$BlockCipherFinal@$0A@VBase@DES_XEX3@CryptoPP@@@CryptoPP@@UAE@XZ
  0002c	e9 00 00 00 00	 jmp	 ___CxxFrameHandler3
text$x	ENDS
??1?$BlockCipherFinal@$0A@VBase@DES_XEX3@CryptoPP@@@CryptoPP@@UAE@XZ ENDP ; CryptoPP::BlockCipherFinal<0,CryptoPP::DES_XEX3::Base>::~BlockCipherFinal<0,CryptoPP::DES_XEX3::Base>
PUBLIC	??1?$BlockCipherFinal@$00VBase@DES_XEX3@CryptoPP@@@CryptoPP@@UAE@XZ ; CryptoPP::BlockCipherFinal<1,CryptoPP::DES_XEX3::Base>::~BlockCipherFinal<1,CryptoPP::DES_XEX3::Base>
;	COMDAT xdata$x
xdata$x	SEGMENT
__unwindtable$??1?$BlockCipherFinal@$00VBase@DES_XEX3@CryptoPP@@@CryptoPP@@UAE@XZ DD 0ffffffffH
	DD	FLAT:__unwindfunclet$??1?$BlockCipherFinal@$00VBase@DES_XEX3@CryptoPP@@@CryptoPP@@UAE@XZ$2
	DD	00H
	DD	FLAT:__unwindfunclet$??1?$BlockCipherFinal@$00VBase@DES_XEX3@CryptoPP@@@CryptoPP@@UAE@XZ$3
__ehfuncinfo$??1?$BlockCipherFinal@$00VBase@DES_XEX3@CryptoPP@@@CryptoPP@@UAE@XZ DD 019930522H
	DD	02H
	DD	FLAT:__unwindtable$??1?$BlockCipherFinal@$00VBase@DES_XEX3@CryptoPP@@@CryptoPP@@UAE@XZ
	DD	2 DUP(00H)
	DD	2 DUP(00H)
	DD	00H
	DD	01H
; Function compile flags: /Ogtp
xdata$x	ENDS
;	COMDAT ??1?$BlockCipherFinal@$00VBase@DES_XEX3@CryptoPP@@@CryptoPP@@UAE@XZ
_TEXT	SEGMENT
_this$ = -16						; size = 4
__$EHRec$ = -12						; size = 12
??1?$BlockCipherFinal@$00VBase@DES_XEX3@CryptoPP@@@CryptoPP@@UAE@XZ PROC ; CryptoPP::BlockCipherFinal<1,CryptoPP::DES_XEX3::Base>::~BlockCipherFinal<1,CryptoPP::DES_XEX3::Base>, COMDAT
; _this$ = ecx
  00000	55		 push	 ebp
  00001	8b ec		 mov	 ebp, esp
  00003	6a ff		 push	 -1
  00005	68 00 00 00 00	 push	 __ehhandler$??1?$BlockCipherFinal@$00VBase@DES_XEX3@CryptoPP@@@CryptoPP@@UAE@XZ
  0000a	64 a1 00 00 00
	00		 mov	 eax, DWORD PTR fs:0
  00010	50		 push	 eax
  00011	51		 push	 ecx
  00012	56		 push	 esi
  00013	57		 push	 edi
  00014	a1 00 00 00 00	 mov	 eax, DWORD PTR ___security_cookie
  00019	33 c5		 xor	 eax, ebp
  0001b	50		 push	 eax
  0001c	8d 45 f4	 lea	 eax, DWORD PTR __$EHRec$[ebp]
  0001f	64 a3 00 00 00
	00		 mov	 DWORD PTR fs:0, eax
  00025	8b f1		 mov	 esi, ecx
  00027	89 75 f0	 mov	 DWORD PTR _this$[ebp], esi
  0002a	8d 4e 40	 lea	 ecx, DWORD PTR [esi+64]
  0002d	c7 45 fc 01 00
	00 00		 mov	 DWORD PTR __$EHRec$[ebp+8], 1
  00034	e8 00 00 00 00	 call	 ??1?$member_ptr@V?$BlockCipherFinal@$0A@VBase@DES@CryptoPP@@@CryptoPP@@@CryptoPP@@QAE@XZ ; CryptoPP::member_ptr<CryptoPP::BlockCipherFinal<0,CryptoPP::DES::Base> >::~member_ptr<CryptoPP::BlockCipherFinal<0,CryptoPP::DES::Base> >
  00039	8b 7e 3c	 mov	 edi, DWORD PTR [esi+60]
  0003c	8d 4e 28	 lea	 ecx, DWORD PTR [esi+40]
  0003f	32 d2		 xor	 dl, dl
  00041	3b f9		 cmp	 edi, ecx
  00043	75 0a		 jne	 SHORT $LN43@BlockCiphe@2
  00045	88 51 09	 mov	 BYTE PTR [ecx+9], dl
  00048	8b 49 10	 mov	 ecx, DWORD PTR [ecx+16]
  0004b	32 c0		 xor	 al, al
  0004d	f3 aa		 rep stosb
$LN43@BlockCiphe@2:
  0004f	8b 7e 24	 mov	 edi, DWORD PTR [esi+36]
  00052	8d 4e 10	 lea	 ecx, DWORD PTR [esi+16]
  00055	3b f9		 cmp	 edi, ecx
  00057	75 0a		 jne	 SHORT $LN75@BlockCiphe@2
  00059	88 51 09	 mov	 BYTE PTR [ecx+9], dl
  0005c	8b 49 10	 mov	 ecx, DWORD PTR [ecx+16]
  0005f	32 c0		 xor	 al, al
  00061	f3 aa		 rep stosb
$LN75@BlockCiphe@2:
  00063	8b 4d f4	 mov	 ecx, DWORD PTR __$EHRec$[ebp]
  00066	64 89 0d 00 00
	00 00		 mov	 DWORD PTR fs:0, ecx
  0006d	59		 pop	 ecx
  0006e	5f		 pop	 edi
  0006f	5e		 pop	 esi
  00070	8b e5		 mov	 esp, ebp
  00072	5d		 pop	 ebp
  00073	c3		 ret	 0
_TEXT	ENDS
;	COMDAT text$x
text$x	SEGMENT
__unwindfunclet$??1?$BlockCipherFinal@$00VBase@DES_XEX3@CryptoPP@@@CryptoPP@@UAE@XZ$2:
  00000	8b 4d f0	 mov	 ecx, DWORD PTR _this$[ebp]
  00003	83 c1 10	 add	 ecx, 16			; 00000010H
  00006	e9 00 00 00 00	 jmp	 ??1?$FixedSizeSecBlock@E$07V?$FixedSizeAllocatorWithCleanup@E$07V?$NullAllocator@E@CryptoPP@@$0A@@CryptoPP@@@CryptoPP@@QAE@XZ
__unwindfunclet$??1?$BlockCipherFinal@$00VBase@DES_XEX3@CryptoPP@@@CryptoPP@@UAE@XZ$3:
  0000b	8b 4d f0	 mov	 ecx, DWORD PTR _this$[ebp]
  0000e	83 c1 28	 add	 ecx, 40			; 00000028H
  00011	e9 00 00 00 00	 jmp	 ??1?$FixedSizeSecBlock@E$07V?$FixedSizeAllocatorWithCleanup@E$07V?$NullAllocator@E@CryptoPP@@$0A@@CryptoPP@@@CryptoPP@@QAE@XZ
__ehhandler$??1?$BlockCipherFinal@$00VBase@DES_XEX3@CryptoPP@@@CryptoPP@@UAE@XZ:
  00016	8b 54 24 08	 mov	 edx, DWORD PTR [esp+8]
  0001a	8d 42 0c	 lea	 eax, DWORD PTR [edx+12]
  0001d	8b 4a f0	 mov	 ecx, DWORD PTR [edx-16]
  00020	33 c8		 xor	 ecx, eax
  00022	e8 00 00 00 00	 call	 @__security_check_cookie@4
  00027	b8 00 00 00 00	 mov	 eax, OFFSET __ehfuncinfo$??1?$BlockCipherFinal@$00VBase@DES_XEX3@CryptoPP@@@CryptoPP@@UAE@XZ
  0002c	e9 00 00 00 00	 jmp	 ___CxxFrameHandler3
text$x	ENDS
??1?$BlockCipherFinal@$00VBase@DES_XEX3@CryptoPP@@@CryptoPP@@UAE@XZ ENDP ; CryptoPP::BlockCipherFinal<1,CryptoPP::DES_XEX3::Base>::~BlockCipherFinal<1,CryptoPP::DES_XEX3::Base>
PUBLIC	??_7?$BlockCipherFinal@$0A@VBase@DES_XEX3@CryptoPP@@@CryptoPP@@6BBlockTransformation@1@@ ; CryptoPP::BlockCipherFinal<0,CryptoPP::DES_XEX3::Base>::`vftable'
PUBLIC	??_7?$BlockCipherFinal@$0A@VBase@DES_XEX3@CryptoPP@@@CryptoPP@@6BSimpleKeyingInterface@1@@ ; CryptoPP::BlockCipherFinal<0,CryptoPP::DES_XEX3::Base>::`vftable'
PUBLIC	??0?$BlockCipherFinal@$0A@VBase@DES_XEX3@CryptoPP@@@CryptoPP@@QAE@XZ ; CryptoPP::BlockCipherFinal<0,CryptoPP::DES_XEX3::Base>::BlockCipherFinal<0,CryptoPP::DES_XEX3::Base>
PUBLIC	??_R4?$BlockCipherFinal@$0A@VBase@DES_XEX3@CryptoPP@@@CryptoPP@@6BSimpleKeyingInterface@1@@ ; CryptoPP::BlockCipherFinal<0,CryptoPP::DES_XEX3::Base>::`RTTI Complete Object Locator'
PUBLIC	??_R0?AV?$BlockCipherFinal@$0A@VBase@DES_XEX3@CryptoPP@@@CryptoPP@@@8 ; CryptoPP::BlockCipherFinal<0,CryptoPP::DES_XEX3::Base> `RTTI Type Descriptor'
PUBLIC	??_R3?$BlockCipherFinal@$0A@VBase@DES_XEX3@CryptoPP@@@CryptoPP@@8 ; CryptoPP::BlockCipherFinal<0,CryptoPP::DES_XEX3::Base>::`RTTI Class Hierarchy Descriptor'
PUBLIC	??_R2?$BlockCipherFinal@$0A@VBase@DES_XEX3@CryptoPP@@@CryptoPP@@8 ; CryptoPP::BlockCipherFinal<0,CryptoPP::DES_XEX3::Base>::`RTTI Base Class Array'
PUBLIC	??_R1A@?0A@EA@?$BlockCipherFinal@$0A@VBase@DES_XEX3@CryptoPP@@@CryptoPP@@8 ; CryptoPP::BlockCipherFinal<0,CryptoPP::DES_XEX3::Base>::`RTTI Base Class Descriptor at (0,-1,0,64)'
PUBLIC	??_R1A@?0A@EA@?$ClonableImpl@V?$BlockCipherFinal@$0A@VBase@DES_XEX3@CryptoPP@@@CryptoPP@@VBase@DES_XEX3@2@@CryptoPP@@8 ; CryptoPP::ClonableImpl<CryptoPP::BlockCipherFinal<0,CryptoPP::DES_XEX3::Base>,CryptoPP::DES_XEX3::Base>::`RTTI Base Class Descriptor at (0,-1,0,64)'
PUBLIC	??_R0?AV?$ClonableImpl@V?$BlockCipherFinal@$0A@VBase@DES_XEX3@CryptoPP@@@CryptoPP@@VBase@DES_XEX3@2@@CryptoPP@@@8 ; CryptoPP::ClonableImpl<CryptoPP::BlockCipherFinal<0,CryptoPP::DES_XEX3::Base>,CryptoPP::DES_XEX3::Base> `RTTI Type Descriptor'
PUBLIC	??_R3?$ClonableImpl@V?$BlockCipherFinal@$0A@VBase@DES_XEX3@CryptoPP@@@CryptoPP@@VBase@DES_XEX3@2@@CryptoPP@@8 ; CryptoPP::ClonableImpl<CryptoPP::BlockCipherFinal<0,CryptoPP::DES_XEX3::Base>,CryptoPP::DES_XEX3::Base>::`RTTI Class Hierarchy Descriptor'
PUBLIC	??_R2?$ClonableImpl@V?$BlockCipherFinal@$0A@VBase@DES_XEX3@CryptoPP@@@CryptoPP@@VBase@DES_XEX3@2@@CryptoPP@@8 ; CryptoPP::ClonableImpl<CryptoPP::BlockCipherFinal<0,CryptoPP::DES_XEX3::Base>,CryptoPP::DES_XEX3::Base>::`RTTI Base Class Array'
PUBLIC	??_R1A@?0A@EA@Base@DES_XEX3@CryptoPP@@8		; CryptoPP::DES_XEX3::Base::`RTTI Base Class Descriptor at (0,-1,0,64)'
PUBLIC	??_R0?AVBase@DES_XEX3@CryptoPP@@@8		; CryptoPP::DES_XEX3::Base `RTTI Type Descriptor'
PUBLIC	??_R3Base@DES_XEX3@CryptoPP@@8			; CryptoPP::DES_XEX3::Base::`RTTI Class Hierarchy Descriptor'
PUBLIC	??_R2Base@DES_XEX3@CryptoPP@@8			; CryptoPP::DES_XEX3::Base::`RTTI Base Class Array'
PUBLIC	??_R1A@?0A@EA@?$BlockCipherImpl@UDES_XEX3_Info@CryptoPP@@VBlockCipher@2@@CryptoPP@@8 ; CryptoPP::BlockCipherImpl<CryptoPP::DES_XEX3_Info,CryptoPP::BlockCipher>::`RTTI Base Class Descriptor at (0,-1,0,64)'
PUBLIC	??_R0?AV?$BlockCipherImpl@UDES_XEX3_Info@CryptoPP@@VBlockCipher@2@@CryptoPP@@@8 ; CryptoPP::BlockCipherImpl<CryptoPP::DES_XEX3_Info,CryptoPP::BlockCipher> `RTTI Type Descriptor'
PUBLIC	??_R3?$BlockCipherImpl@UDES_XEX3_Info@CryptoPP@@VBlockCipher@2@@CryptoPP@@8 ; CryptoPP::BlockCipherImpl<CryptoPP::DES_XEX3_Info,CryptoPP::BlockCipher>::`RTTI Class Hierarchy Descriptor'
PUBLIC	??_R2?$BlockCipherImpl@UDES_XEX3_Info@CryptoPP@@VBlockCipher@2@@CryptoPP@@8 ; CryptoPP::BlockCipherImpl<CryptoPP::DES_XEX3_Info,CryptoPP::BlockCipher>::`RTTI Base Class Array'
PUBLIC	??_R1A@?0A@EA@?$AlgorithmImpl@V?$SimpleKeyingInterfaceImpl@V?$TwoBases@VBlockCipher@CryptoPP@@UDES_XEX3_Info@2@@CryptoPP@@V12@@CryptoPP@@V12@@CryptoPP@@8 ; CryptoPP::AlgorithmImpl<CryptoPP::SimpleKeyingInterfaceImpl<CryptoPP::TwoBases<CryptoPP::BlockCipher,CryptoPP::DES_XEX3_Info>,CryptoPP::TwoBases<CryptoPP::BlockCipher,CryptoPP::DES_XEX3_Info> >,CryptoPP::SimpleKeyingInterfaceImpl<CryptoPP::TwoBases<CryptoPP::BlockCipher,CryptoPP::DES_XEX3_Info>,CryptoPP::TwoBases<CryptoPP::BlockCipher,CryptoPP::DES_XEX3_Info> > >::`RTTI Base Class Descriptor at (0,-1,0,64)'
PUBLIC	??_R0?AV?$AlgorithmImpl@V?$SimpleKeyingInterfaceImpl@V?$TwoBases@VBlockCipher@CryptoPP@@UDES_XEX3_Info@2@@CryptoPP@@V12@@CryptoPP@@V12@@CryptoPP@@@8 ; CryptoPP::AlgorithmImpl<CryptoPP::SimpleKeyingInterfaceImpl<CryptoPP::TwoBases<CryptoPP::BlockCipher,CryptoPP::DES_XEX3_Info>,CryptoPP::TwoBases<CryptoPP::BlockCipher,CryptoPP::DES_XEX3_Info> >,CryptoPP::SimpleKeyingInterfaceImpl<CryptoPP::TwoBases<CryptoPP::BlockCipher,CryptoPP::DES_XEX3_Info>,CryptoPP::TwoBases<CryptoPP::BlockCipher,CryptoPP::DES_XEX3_Info> > > `RTTI Type Descriptor'
PUBLIC	??_R3?$AlgorithmImpl@V?$SimpleKeyingInterfaceImpl@V?$TwoBases@VBlockCipher@CryptoPP@@UDES_XEX3_Info@2@@CryptoPP@@V12@@CryptoPP@@V12@@CryptoPP@@8 ; CryptoPP::AlgorithmImpl<CryptoPP::SimpleKeyingInterfaceImpl<CryptoPP::TwoBases<CryptoPP::BlockCipher,CryptoPP::DES_XEX3_Info>,CryptoPP::TwoBases<CryptoPP::BlockCipher,CryptoPP::DES_XEX3_Info> >,CryptoPP::SimpleKeyingInterfaceImpl<CryptoPP::TwoBases<CryptoPP::BlockCipher,CryptoPP::DES_XEX3_Info>,CryptoPP::TwoBases<CryptoPP::BlockCipher,CryptoPP::DES_XEX3_Info> > >::`RTTI Class Hierarchy Descriptor'
PUBLIC	??_R2?$AlgorithmImpl@V?$SimpleKeyingInterfaceImpl@V?$TwoBases@VBlockCipher@CryptoPP@@UDES_XEX3_Info@2@@CryptoPP@@V12@@CryptoPP@@V12@@CryptoPP@@8 ; CryptoPP::AlgorithmImpl<CryptoPP::SimpleKeyingInterfaceImpl<CryptoPP::TwoBases<CryptoPP::BlockCipher,CryptoPP::DES_XEX3_Info>,CryptoPP::TwoBases<CryptoPP::BlockCipher,CryptoPP::DES_XEX3_Info> >,CryptoPP::SimpleKeyingInterfaceImpl<CryptoPP::TwoBases<CryptoPP::BlockCipher,CryptoPP::DES_XEX3_Info>,CryptoPP::TwoBases<CryptoPP::BlockCipher,CryptoPP::DES_XEX3_Info> > >::`RTTI Base Class Array'
PUBLIC	??_R1A@?0A@EA@?$SimpleKeyingInterfaceImpl@V?$TwoBases@VBlockCipher@CryptoPP@@UDES_XEX3_Info@2@@CryptoPP@@V12@@CryptoPP@@8 ; CryptoPP::SimpleKeyingInterfaceImpl<CryptoPP::TwoBases<CryptoPP::BlockCipher,CryptoPP::DES_XEX3_Info>,CryptoPP::TwoBases<CryptoPP::BlockCipher,CryptoPP::DES_XEX3_Info> >::`RTTI Base Class Descriptor at (0,-1,0,64)'
PUBLIC	??_R0?AV?$SimpleKeyingInterfaceImpl@V?$TwoBases@VBlockCipher@CryptoPP@@UDES_XEX3_Info@2@@CryptoPP@@V12@@CryptoPP@@@8 ; CryptoPP::SimpleKeyingInterfaceImpl<CryptoPP::TwoBases<CryptoPP::BlockCipher,CryptoPP::DES_XEX3_Info>,CryptoPP::TwoBases<CryptoPP::BlockCipher,CryptoPP::DES_XEX3_Info> > `RTTI Type Descriptor'
PUBLIC	??_R3?$SimpleKeyingInterfaceImpl@V?$TwoBases@VBlockCipher@CryptoPP@@UDES_XEX3_Info@2@@CryptoPP@@V12@@CryptoPP@@8 ; CryptoPP::SimpleKeyingInterfaceImpl<CryptoPP::TwoBases<CryptoPP::BlockCipher,CryptoPP::DES_XEX3_Info>,CryptoPP::TwoBases<CryptoPP::BlockCipher,CryptoPP::DES_XEX3_Info> >::`RTTI Class Hierarchy Descriptor'
PUBLIC	??_R2?$SimpleKeyingInterfaceImpl@V?$TwoBases@VBlockCipher@CryptoPP@@UDES_XEX3_Info@2@@CryptoPP@@V12@@CryptoPP@@8 ; CryptoPP::SimpleKeyingInterfaceImpl<CryptoPP::TwoBases<CryptoPP::BlockCipher,CryptoPP::DES_XEX3_Info>,CryptoPP::TwoBases<CryptoPP::BlockCipher,CryptoPP::DES_XEX3_Info> >::`RTTI Base Class Array'
PUBLIC	??_R1A@?0A@EA@?$TwoBases@VBlockCipher@CryptoPP@@UDES_XEX3_Info@2@@CryptoPP@@8 ; CryptoPP::TwoBases<CryptoPP::BlockCipher,CryptoPP::DES_XEX3_Info>::`RTTI Base Class Descriptor at (0,-1,0,64)'
PUBLIC	??_R0?AV?$TwoBases@VBlockCipher@CryptoPP@@UDES_XEX3_Info@2@@CryptoPP@@@8 ; CryptoPP::TwoBases<CryptoPP::BlockCipher,CryptoPP::DES_XEX3_Info> `RTTI Type Descriptor'
PUBLIC	??_R3?$TwoBases@VBlockCipher@CryptoPP@@UDES_XEX3_Info@2@@CryptoPP@@8 ; CryptoPP::TwoBases<CryptoPP::BlockCipher,CryptoPP::DES_XEX3_Info>::`RTTI Class Hierarchy Descriptor'
PUBLIC	??_R2?$TwoBases@VBlockCipher@CryptoPP@@UDES_XEX3_Info@2@@CryptoPP@@8 ; CryptoPP::TwoBases<CryptoPP::BlockCipher,CryptoPP::DES_XEX3_Info>::`RTTI Base Class Array'
PUBLIC	??_R1A@?0A@EA@BlockCipher@CryptoPP@@8		; CryptoPP::BlockCipher::`RTTI Base Class Descriptor at (0,-1,0,64)'
PUBLIC	??_R0?AVBlockCipher@CryptoPP@@@8		; CryptoPP::BlockCipher `RTTI Type Descriptor'
PUBLIC	??_R3BlockCipher@CryptoPP@@8			; CryptoPP::BlockCipher::`RTTI Class Hierarchy Descriptor'
PUBLIC	??_R2BlockCipher@CryptoPP@@8			; CryptoPP::BlockCipher::`RTTI Base Class Array'
PUBLIC	??_R1A@?0A@EA@SimpleKeyingInterface@CryptoPP@@8	; CryptoPP::SimpleKeyingInterface::`RTTI Base Class Descriptor at (0,-1,0,64)'
PUBLIC	??_R0?AVSimpleKeyingInterface@CryptoPP@@@8	; CryptoPP::SimpleKeyingInterface `RTTI Type Descriptor'
PUBLIC	??_R3SimpleKeyingInterface@CryptoPP@@8		; CryptoPP::SimpleKeyingInterface::`RTTI Class Hierarchy Descriptor'
PUBLIC	??_R2SimpleKeyingInterface@CryptoPP@@8		; CryptoPP::SimpleKeyingInterface::`RTTI Base Class Array'
PUBLIC	??_R13?0A@EA@BlockTransformation@CryptoPP@@8	; CryptoPP::BlockTransformation::`RTTI Base Class Descriptor at (4,-1,0,64)'
PUBLIC	??_R0?AVBlockTransformation@CryptoPP@@@8	; CryptoPP::BlockTransformation `RTTI Type Descriptor'
PUBLIC	??_R3BlockTransformation@CryptoPP@@8		; CryptoPP::BlockTransformation::`RTTI Class Hierarchy Descriptor'
PUBLIC	??_R2BlockTransformation@CryptoPP@@8		; CryptoPP::BlockTransformation::`RTTI Base Class Array'
PUBLIC	??_R1A@?0A@EA@BlockTransformation@CryptoPP@@8	; CryptoPP::BlockTransformation::`RTTI Base Class Descriptor at (0,-1,0,64)'
PUBLIC	??_R1A@?0A@EA@Algorithm@CryptoPP@@8		; CryptoPP::Algorithm::`RTTI Base Class Descriptor at (0,-1,0,64)'
PUBLIC	??_R0?AVAlgorithm@CryptoPP@@@8			; CryptoPP::Algorithm `RTTI Type Descriptor'
PUBLIC	??_R3Algorithm@CryptoPP@@8			; CryptoPP::Algorithm::`RTTI Class Hierarchy Descriptor'
PUBLIC	??_R2Algorithm@CryptoPP@@8			; CryptoPP::Algorithm::`RTTI Base Class Array'
PUBLIC	??_R1A@?0A@EA@Clonable@CryptoPP@@8		; CryptoPP::Clonable::`RTTI Base Class Descriptor at (0,-1,0,64)'
PUBLIC	??_R0?AVClonable@CryptoPP@@@8			; CryptoPP::Clonable `RTTI Type Descriptor'
PUBLIC	??_R3Clonable@CryptoPP@@8			; CryptoPP::Clonable::`RTTI Class Hierarchy Descriptor'
PUBLIC	??_R2Clonable@CryptoPP@@8			; CryptoPP::Clonable::`RTTI Base Class Array'
PUBLIC	??_R13?0A@EA@Algorithm@CryptoPP@@8		; CryptoPP::Algorithm::`RTTI Base Class Descriptor at (4,-1,0,64)'
PUBLIC	??_R13?0A@EA@Clonable@CryptoPP@@8		; CryptoPP::Clonable::`RTTI Base Class Descriptor at (4,-1,0,64)'
PUBLIC	??_R1M@?0A@EA@DES_XEX3_Info@CryptoPP@@8		; CryptoPP::DES_XEX3_Info::`RTTI Base Class Descriptor at (12,-1,0,64)'
PUBLIC	??_R0?AUDES_XEX3_Info@CryptoPP@@@8		; CryptoPP::DES_XEX3_Info `RTTI Type Descriptor'
PUBLIC	??_R3DES_XEX3_Info@CryptoPP@@8			; CryptoPP::DES_XEX3_Info::`RTTI Class Hierarchy Descriptor'
PUBLIC	??_R2DES_XEX3_Info@CryptoPP@@8			; CryptoPP::DES_XEX3_Info::`RTTI Base Class Array'
PUBLIC	??_R1A@?0A@EA@DES_XEX3_Info@CryptoPP@@8		; CryptoPP::DES_XEX3_Info::`RTTI Base Class Descriptor at (0,-1,0,64)'
PUBLIC	??_R1A@?0A@EA@?$FixedBlockSize@$07@CryptoPP@@8	; CryptoPP::FixedBlockSize<8>::`RTTI Base Class Descriptor at (0,-1,0,64)'
PUBLIC	??_R0?AV?$FixedBlockSize@$07@CryptoPP@@@8	; CryptoPP::FixedBlockSize<8> `RTTI Type Descriptor'
PUBLIC	??_R3?$FixedBlockSize@$07@CryptoPP@@8		; CryptoPP::FixedBlockSize<8>::`RTTI Class Hierarchy Descriptor'
PUBLIC	??_R2?$FixedBlockSize@$07@CryptoPP@@8		; CryptoPP::FixedBlockSize<8>::`RTTI Base Class Array'
PUBLIC	??_R10?0A@EA@?$FixedKeyLength@$0BI@$03$0A@@CryptoPP@@8 ; CryptoPP::FixedKeyLength<24,4,0>::`RTTI Base Class Descriptor at (1,-1,0,64)'
PUBLIC	??_R0?AV?$FixedKeyLength@$0BI@$03$0A@@CryptoPP@@@8 ; CryptoPP::FixedKeyLength<24,4,0> `RTTI Type Descriptor'
PUBLIC	??_R3?$FixedKeyLength@$0BI@$03$0A@@CryptoPP@@8	; CryptoPP::FixedKeyLength<24,4,0>::`RTTI Class Hierarchy Descriptor'
PUBLIC	??_R2?$FixedKeyLength@$0BI@$03$0A@@CryptoPP@@8	; CryptoPP::FixedKeyLength<24,4,0>::`RTTI Base Class Array'
PUBLIC	??_R1A@?0A@EA@?$FixedKeyLength@$0BI@$03$0A@@CryptoPP@@8 ; CryptoPP::FixedKeyLength<24,4,0>::`RTTI Base Class Descriptor at (0,-1,0,64)'
PUBLIC	??_R1M@?0A@EA@?$FixedBlockSize@$07@CryptoPP@@8	; CryptoPP::FixedBlockSize<8>::`RTTI Base Class Descriptor at (12,-1,0,64)'
PUBLIC	??_R1N@?0A@EA@?$FixedKeyLength@$0BI@$03$0A@@CryptoPP@@8 ; CryptoPP::FixedKeyLength<24,4,0>::`RTTI Base Class Descriptor at (13,-1,0,64)'
PUBLIC	?MinKeyLength@?$SimpleKeyingInterfaceImpl@V?$TwoBases@VBlockCipher@CryptoPP@@UDES_XEX3_Info@2@@CryptoPP@@V12@@CryptoPP@@UBEIXZ ; CryptoPP::SimpleKeyingInterfaceImpl<CryptoPP::TwoBases<CryptoPP::BlockCipher,CryptoPP::DES_XEX3_Info>,CryptoPP::TwoBases<CryptoPP::BlockCipher,CryptoPP::DES_XEX3_Info> >::MinKeyLength
PUBLIC	?MaxKeyLength@?$SimpleKeyingInterfaceImpl@V?$TwoBases@VBlockCipher@CryptoPP@@UDES_XEX3_Info@2@@CryptoPP@@V12@@CryptoPP@@UBEIXZ ; CryptoPP::SimpleKeyingInterfaceImpl<CryptoPP::TwoBases<CryptoPP::BlockCipher,CryptoPP::DES_XEX3_Info>,CryptoPP::TwoBases<CryptoPP::BlockCipher,CryptoPP::DES_XEX3_Info> >::MaxKeyLength
PUBLIC	?DefaultKeyLength@?$SimpleKeyingInterfaceImpl@V?$TwoBases@VBlockCipher@CryptoPP@@UDES_XEX3_Info@2@@CryptoPP@@V12@@CryptoPP@@UBEIXZ ; CryptoPP::SimpleKeyingInterfaceImpl<CryptoPP::TwoBases<CryptoPP::BlockCipher,CryptoPP::DES_XEX3_Info>,CryptoPP::TwoBases<CryptoPP::BlockCipher,CryptoPP::DES_XEX3_Info> >::DefaultKeyLength
PUBLIC	?GetValidKeyLength@?$SimpleKeyingInterfaceImpl@V?$TwoBases@VBlockCipher@CryptoPP@@UDES_XEX3_Info@2@@CryptoPP@@V12@@CryptoPP@@UBEII@Z ; CryptoPP::SimpleKeyingInterfaceImpl<CryptoPP::TwoBases<CryptoPP::BlockCipher,CryptoPP::DES_XEX3_Info>,CryptoPP::TwoBases<CryptoPP::BlockCipher,CryptoPP::DES_XEX3_Info> >::GetValidKeyLength
PUBLIC	?IsValidKeyLength@SimpleKeyingInterface@CryptoPP@@UBE_NI@Z ; CryptoPP::SimpleKeyingInterface::IsValidKeyLength
PUBLIC	?IVRequirement@?$SimpleKeyingInterfaceImpl@V?$TwoBases@VBlockCipher@CryptoPP@@UDES_XEX3_Info@2@@CryptoPP@@V12@@CryptoPP@@UBE?AW4IV_Requirement@SimpleKeyingInterface@2@XZ ; CryptoPP::SimpleKeyingInterfaceImpl<CryptoPP::TwoBases<CryptoPP::BlockCipher,CryptoPP::DES_XEX3_Info>,CryptoPP::TwoBases<CryptoPP::BlockCipher,CryptoPP::DES_XEX3_Info> >::IVRequirement
PUBLIC	?IVSize@?$SimpleKeyingInterfaceImpl@V?$TwoBases@VBlockCipher@CryptoPP@@UDES_XEX3_Info@2@@CryptoPP@@V12@@CryptoPP@@UBEIXZ ; CryptoPP::SimpleKeyingInterfaceImpl<CryptoPP::TwoBases<CryptoPP::BlockCipher,CryptoPP::DES_XEX3_Info>,CryptoPP::TwoBases<CryptoPP::BlockCipher,CryptoPP::DES_XEX3_Info> >::IVSize
PUBLIC	?MinIVLength@SimpleKeyingInterface@CryptoPP@@UBEIXZ ; CryptoPP::SimpleKeyingInterface::MinIVLength
PUBLIC	?MaxIVLength@SimpleKeyingInterface@CryptoPP@@UBEIXZ ; CryptoPP::SimpleKeyingInterface::MaxIVLength
PUBLIC	?Resynchronize@SimpleKeyingInterface@CryptoPP@@UAEXPBEH@Z ; CryptoPP::SimpleKeyingInterface::Resynchronize
PUBLIC	?GetAlgorithm@BlockCipher@CryptoPP@@MBEABVAlgorithm@2@XZ ; CryptoPP::BlockCipher::GetAlgorithm
PUBLIC	??_R4?$BlockCipherFinal@$0A@VBase@DES_XEX3@CryptoPP@@@CryptoPP@@6BBlockTransformation@1@@ ; CryptoPP::BlockCipherFinal<0,CryptoPP::DES_XEX3::Base>::`RTTI Complete Object Locator'
PUBLIC	??_E?$BlockCipherFinal@$0A@VBase@DES_XEX3@CryptoPP@@@CryptoPP@@W3AEPAXI@Z ; [thunk]:CryptoPP::BlockCipherFinal<0,CryptoPP::DES_XEX3::Base>::`vector deleting destructor'
PUBLIC	?Clone@?$ClonableImpl@V?$BlockCipherFinal@$0A@VBase@DES_XEX3@CryptoPP@@@CryptoPP@@VBase@DES_XEX3@2@@CryptoPP@@UBEPAVClonable@2@XZ ; CryptoPP::ClonableImpl<CryptoPP::BlockCipherFinal<0,CryptoPP::DES_XEX3::Base>,CryptoPP::DES_XEX3::Base>::Clone
PUBLIC	?AlgorithmName@?$AlgorithmImpl@V?$SimpleKeyingInterfaceImpl@V?$TwoBases@VBlockCipher@CryptoPP@@UDES_XEX3_Info@2@@CryptoPP@@V12@@CryptoPP@@V12@@CryptoPP@@UBE?AV?$basic_string@DU?$char_traits@D@std@@V?$allocator@D@2@@std@@XZ ; CryptoPP::AlgorithmImpl<CryptoPP::SimpleKeyingInterfaceImpl<CryptoPP::TwoBases<CryptoPP::BlockCipher,CryptoPP::DES_XEX3_Info>,CryptoPP::TwoBases<CryptoPP::BlockCipher,CryptoPP::DES_XEX3_Info> >,CryptoPP::SimpleKeyingInterfaceImpl<CryptoPP::TwoBases<CryptoPP::BlockCipher,CryptoPP::DES_XEX3_Info>,CryptoPP::TwoBases<CryptoPP::BlockCipher,CryptoPP::DES_XEX3_Info> > >::AlgorithmName
PUBLIC	?BlockSize@?$BlockCipherImpl@UDES_XEX3_Info@CryptoPP@@VBlockCipher@2@@CryptoPP@@UBEIXZ ; CryptoPP::BlockCipherImpl<CryptoPP::DES_XEX3_Info,CryptoPP::BlockCipher>::BlockSize
PUBLIC	?IsPermutation@BlockTransformation@CryptoPP@@UBE_NXZ ; CryptoPP::BlockTransformation::IsPermutation
PUBLIC	?IsForwardTransformation@?$BlockCipherFinal@$0A@VBase@DES_XEX3@CryptoPP@@@CryptoPP@@UBE_NXZ ; CryptoPP::BlockCipherFinal<0,CryptoPP::DES_XEX3::Base>::IsForwardTransformation
PUBLIC	?OptimalNumberOfParallelBlocks@BlockTransformation@CryptoPP@@UBEIXZ ; CryptoPP::BlockTransformation::OptimalNumberOfParallelBlocks
EXTRN	??_E?$BlockCipherFinal@$0A@VBase@DES_XEX3@CryptoPP@@@CryptoPP@@UAEPAXI@Z:PROC ; CryptoPP::BlockCipherFinal<0,CryptoPP::DES_XEX3::Base>::`vector deleting destructor'
EXTRN	?SetKey@SimpleKeyingInterface@CryptoPP@@UAEXPBEIABVNameValuePairs@2@@Z:PROC ; CryptoPP::SimpleKeyingInterface::SetKey
EXTRN	?GetNextIV@SimpleKeyingInterface@CryptoPP@@UAEXAAVRandomNumberGenerator@2@PAE@Z:PROC ; CryptoPP::SimpleKeyingInterface::GetNextIV
EXTRN	?UncheckedSetKey@Base@DES_XEX3@CryptoPP@@UAEXPBEIABVNameValuePairs@3@@Z:PROC ; CryptoPP::DES_XEX3::Base::UncheckedSetKey
EXTRN	?ProcessAndXorBlock@Base@DES_XEX3@CryptoPP@@UBEXPBE0PAE@Z:PROC ; CryptoPP::DES_XEX3::Base::ProcessAndXorBlock
EXTRN	?OptimalDataAlignment@BlockTransformation@CryptoPP@@UBEIXZ:PROC ; CryptoPP::BlockTransformation::OptimalDataAlignment
EXTRN	?AdvancedProcessBlocks@BlockTransformation@CryptoPP@@UBEIPBE0PAEII@Z:PROC ; CryptoPP::BlockTransformation::AdvancedProcessBlocks
;	COMDAT ??_R4?$BlockCipherFinal@$0A@VBase@DES_XEX3@CryptoPP@@@CryptoPP@@6BBlockTransformation@1@@
; File c:\muserver_dev\development\mu-s8ep2-repack\gameserver\crypto\smartptr.h
rdata$r	SEGMENT
??_R4?$BlockCipherFinal@$0A@VBase@DES_XEX3@CryptoPP@@@CryptoPP@@6BBlockTransformation@1@@ DD 00H ; CryptoPP::BlockCipherFinal<0,CryptoPP::DES_XEX3::Base>::`RTTI Complete Object Locator'
	DD	04H
	DD	00H
	DD	FLAT:??_R0?AV?$BlockCipherFinal@$0A@VBase@DES_XEX3@CryptoPP@@@CryptoPP@@@8
	DD	FLAT:??_R3?$BlockCipherFinal@$0A@VBase@DES_XEX3@CryptoPP@@@CryptoPP@@8
rdata$r	ENDS
;	COMDAT ??_R1N@?0A@EA@?$FixedKeyLength@$0BI@$03$0A@@CryptoPP@@8
rdata$r	SEGMENT
??_R1N@?0A@EA@?$FixedKeyLength@$0BI@$03$0A@@CryptoPP@@8 DD FLAT:??_R0?AV?$FixedKeyLength@$0BI@$03$0A@@CryptoPP@@@8 ; CryptoPP::FixedKeyLength<24,4,0>::`RTTI Base Class Descriptor at (13,-1,0,64)'
	DD	00H
	DD	0dH
	DD	0ffffffffH
	DD	00H
	DD	040H
	DD	FLAT:??_R3?$FixedKeyLength@$0BI@$03$0A@@CryptoPP@@8
rdata$r	ENDS
;	COMDAT ??_R1M@?0A@EA@?$FixedBlockSize@$07@CryptoPP@@8
rdata$r	SEGMENT
??_R1M@?0A@EA@?$FixedBlockSize@$07@CryptoPP@@8 DD FLAT:??_R0?AV?$FixedBlockSize@$07@CryptoPP@@@8 ; CryptoPP::FixedBlockSize<8>::`RTTI Base Class Descriptor at (12,-1,0,64)'
	DD	00H
	DD	0cH
	DD	0ffffffffH
	DD	00H
	DD	040H
	DD	FLAT:??_R3?$FixedBlockSize@$07@CryptoPP@@8
rdata$r	ENDS
;	COMDAT ??_R1A@?0A@EA@?$FixedKeyLength@$0BI@$03$0A@@CryptoPP@@8
rdata$r	SEGMENT
??_R1A@?0A@EA@?$FixedKeyLength@$0BI@$03$0A@@CryptoPP@@8 DD FLAT:??_R0?AV?$FixedKeyLength@$0BI@$03$0A@@CryptoPP@@@8 ; CryptoPP::FixedKeyLength<24,4,0>::`RTTI Base Class Descriptor at (0,-1,0,64)'
	DD	00H
	DD	00H
	DD	0ffffffffH
	DD	00H
	DD	040H
	DD	FLAT:??_R3?$FixedKeyLength@$0BI@$03$0A@@CryptoPP@@8
rdata$r	ENDS
;	COMDAT ??_R2?$FixedKeyLength@$0BI@$03$0A@@CryptoPP@@8
rdata$r	SEGMENT
??_R2?$FixedKeyLength@$0BI@$03$0A@@CryptoPP@@8 DD FLAT:??_R1A@?0A@EA@?$FixedKeyLength@$0BI@$03$0A@@CryptoPP@@8 ; CryptoPP::FixedKeyLength<24,4,0>::`RTTI Base Class Array'
rdata$r	ENDS
;	COMDAT ??_R3?$FixedKeyLength@$0BI@$03$0A@@CryptoPP@@8
rdata$r	SEGMENT
??_R3?$FixedKeyLength@$0BI@$03$0A@@CryptoPP@@8 DD 00H	; CryptoPP::FixedKeyLength<24,4,0>::`RTTI Class Hierarchy Descriptor'
	DD	00H
	DD	01H
	DD	FLAT:??_R2?$FixedKeyLength@$0BI@$03$0A@@CryptoPP@@8
rdata$r	ENDS
;	COMDAT ??_R0?AV?$FixedKeyLength@$0BI@$03$0A@@CryptoPP@@@8
_DATA	SEGMENT
??_R0?AV?$FixedKeyLength@$0BI@$03$0A@@CryptoPP@@@8 DD FLAT:??_7type_info@@6B@ ; CryptoPP::FixedKeyLength<24,4,0> `RTTI Type Descriptor'
	DD	00H
	DB	'.?AV?$FixedKeyLength@$0BI@$03$0A@@CryptoPP@@', 00H
_DATA	ENDS
;	COMDAT ??_R10?0A@EA@?$FixedKeyLength@$0BI@$03$0A@@CryptoPP@@8
rdata$r	SEGMENT
??_R10?0A@EA@?$FixedKeyLength@$0BI@$03$0A@@CryptoPP@@8 DD FLAT:??_R0?AV?$FixedKeyLength@$0BI@$03$0A@@CryptoPP@@@8 ; CryptoPP::FixedKeyLength<24,4,0>::`RTTI Base Class Descriptor at (1,-1,0,64)'
	DD	00H
	DD	01H
	DD	0ffffffffH
	DD	00H
	DD	040H
	DD	FLAT:??_R3?$FixedKeyLength@$0BI@$03$0A@@CryptoPP@@8
rdata$r	ENDS
;	COMDAT ??_R2?$FixedBlockSize@$07@CryptoPP@@8
rdata$r	SEGMENT
??_R2?$FixedBlockSize@$07@CryptoPP@@8 DD FLAT:??_R1A@?0A@EA@?$FixedBlockSize@$07@CryptoPP@@8 ; CryptoPP::FixedBlockSize<8>::`RTTI Base Class Array'
rdata$r	ENDS
;	COMDAT ??_R3?$FixedBlockSize@$07@CryptoPP@@8
rdata$r	SEGMENT
??_R3?$FixedBlockSize@$07@CryptoPP@@8 DD 00H		; CryptoPP::FixedBlockSize<8>::`RTTI Class Hierarchy Descriptor'
	DD	00H
	DD	01H
	DD	FLAT:??_R2?$FixedBlockSize@$07@CryptoPP@@8
rdata$r	ENDS
;	COMDAT ??_R0?AV?$FixedBlockSize@$07@CryptoPP@@@8
_DATA	SEGMENT
??_R0?AV?$FixedBlockSize@$07@CryptoPP@@@8 DD FLAT:??_7type_info@@6B@ ; CryptoPP::FixedBlockSize<8> `RTTI Type Descriptor'
	DD	00H
	DB	'.?AV?$FixedBlockSize@$07@CryptoPP@@', 00H
_DATA	ENDS
;	COMDAT ??_R1A@?0A@EA@?$FixedBlockSize@$07@CryptoPP@@8
rdata$r	SEGMENT
??_R1A@?0A@EA@?$FixedBlockSize@$07@CryptoPP@@8 DD FLAT:??_R0?AV?$FixedBlockSize@$07@CryptoPP@@@8 ; CryptoPP::FixedBlockSize<8>::`RTTI Base Class Descriptor at (0,-1,0,64)'
	DD	00H
	DD	00H
	DD	0ffffffffH
	DD	00H
	DD	040H
	DD	FLAT:??_R3?$FixedBlockSize@$07@CryptoPP@@8
rdata$r	ENDS
;	COMDAT ??_R1A@?0A@EA@DES_XEX3_Info@CryptoPP@@8
rdata$r	SEGMENT
??_R1A@?0A@EA@DES_XEX3_Info@CryptoPP@@8 DD FLAT:??_R0?AUDES_XEX3_Info@CryptoPP@@@8 ; CryptoPP::DES_XEX3_Info::`RTTI Base Class Descriptor at (0,-1,0,64)'
	DD	02H
	DD	00H
	DD	0ffffffffH
	DD	00H
	DD	040H
	DD	FLAT:??_R3DES_XEX3_Info@CryptoPP@@8
rdata$r	ENDS
;	COMDAT ??_R2DES_XEX3_Info@CryptoPP@@8
rdata$r	SEGMENT
??_R2DES_XEX3_Info@CryptoPP@@8 DD FLAT:??_R1A@?0A@EA@DES_XEX3_Info@CryptoPP@@8 ; CryptoPP::DES_XEX3_Info::`RTTI Base Class Array'
	DD	FLAT:??_R1A@?0A@EA@?$FixedBlockSize@$07@CryptoPP@@8
	DD	FLAT:??_R10?0A@EA@?$FixedKeyLength@$0BI@$03$0A@@CryptoPP@@8
rdata$r	ENDS
;	COMDAT ??_R3DES_XEX3_Info@CryptoPP@@8
rdata$r	SEGMENT
??_R3DES_XEX3_Info@CryptoPP@@8 DD 00H			; CryptoPP::DES_XEX3_Info::`RTTI Class Hierarchy Descriptor'
	DD	01H
	DD	03H
	DD	FLAT:??_R2DES_XEX3_Info@CryptoPP@@8
rdata$r	ENDS
;	COMDAT ??_R0?AUDES_XEX3_Info@CryptoPP@@@8
_DATA	SEGMENT
??_R0?AUDES_XEX3_Info@CryptoPP@@@8 DD FLAT:??_7type_info@@6B@ ; CryptoPP::DES_XEX3_Info `RTTI Type Descriptor'
	DD	00H
	DB	'.?AUDES_XEX3_Info@CryptoPP@@', 00H
_DATA	ENDS
;	COMDAT ??_R1M@?0A@EA@DES_XEX3_Info@CryptoPP@@8
rdata$r	SEGMENT
??_R1M@?0A@EA@DES_XEX3_Info@CryptoPP@@8 DD FLAT:??_R0?AUDES_XEX3_Info@CryptoPP@@@8 ; CryptoPP::DES_XEX3_Info::`RTTI Base Class Descriptor at (12,-1,0,64)'
	DD	02H
	DD	0cH
	DD	0ffffffffH
	DD	00H
	DD	040H
	DD	FLAT:??_R3DES_XEX3_Info@CryptoPP@@8
rdata$r	ENDS
;	COMDAT ??_R13?0A@EA@Clonable@CryptoPP@@8
rdata$r	SEGMENT
??_R13?0A@EA@Clonable@CryptoPP@@8 DD FLAT:??_R0?AVClonable@CryptoPP@@@8 ; CryptoPP::Clonable::`RTTI Base Class Descriptor at (4,-1,0,64)'
	DD	00H
	DD	04H
	DD	0ffffffffH
	DD	00H
	DD	040H
	DD	FLAT:??_R3Clonable@CryptoPP@@8
rdata$r	ENDS
;	COMDAT ??_R13?0A@EA@Algorithm@CryptoPP@@8
rdata$r	SEGMENT
??_R13?0A@EA@Algorithm@CryptoPP@@8 DD FLAT:??_R0?AVAlgorithm@CryptoPP@@@8 ; CryptoPP::Algorithm::`RTTI Base Class Descriptor at (4,-1,0,64)'
	DD	01H
	DD	04H
	DD	0ffffffffH
	DD	00H
	DD	040H
	DD	FLAT:??_R3Algorithm@CryptoPP@@8
rdata$r	ENDS
;	COMDAT ??_R2Clonable@CryptoPP@@8
rdata$r	SEGMENT
??_R2Clonable@CryptoPP@@8 DD FLAT:??_R1A@?0A@EA@Clonable@CryptoPP@@8 ; CryptoPP::Clonable::`RTTI Base Class Array'
rdata$r	ENDS
;	COMDAT ??_R3Clonable@CryptoPP@@8
rdata$r	SEGMENT
??_R3Clonable@CryptoPP@@8 DD 00H			; CryptoPP::Clonable::`RTTI Class Hierarchy Descriptor'
	DD	00H
	DD	01H
	DD	FLAT:??_R2Clonable@CryptoPP@@8
rdata$r	ENDS
;	COMDAT ??_R0?AVClonable@CryptoPP@@@8
_DATA	SEGMENT
??_R0?AVClonable@CryptoPP@@@8 DD FLAT:??_7type_info@@6B@ ; CryptoPP::Clonable `RTTI Type Descriptor'
	DD	00H
	DB	'.?AVClonable@CryptoPP@@', 00H
_DATA	ENDS
;	COMDAT ??_R1A@?0A@EA@Clonable@CryptoPP@@8
rdata$r	SEGMENT
??_R1A@?0A@EA@Clonable@CryptoPP@@8 DD FLAT:??_R0?AVClonable@CryptoPP@@@8 ; CryptoPP::Clonable::`RTTI Base Class Descriptor at (0,-1,0,64)'
	DD	00H
	DD	00H
	DD	0ffffffffH
	DD	00H
	DD	040H
	DD	FLAT:??_R3Clonable@CryptoPP@@8
rdata$r	ENDS
;	COMDAT ??_R2Algorithm@CryptoPP@@8
rdata$r	SEGMENT
??_R2Algorithm@CryptoPP@@8 DD FLAT:??_R1A@?0A@EA@Algorithm@CryptoPP@@8 ; CryptoPP::Algorithm::`RTTI Base Class Array'
	DD	FLAT:??_R1A@?0A@EA@Clonable@CryptoPP@@8
rdata$r	ENDS
;	COMDAT ??_R3Algorithm@CryptoPP@@8
rdata$r	SEGMENT
??_R3Algorithm@CryptoPP@@8 DD 00H			; CryptoPP::Algorithm::`RTTI Class Hierarchy Descriptor'
	DD	00H
	DD	02H
	DD	FLAT:??_R2Algorithm@CryptoPP@@8
rdata$r	ENDS
;	COMDAT ??_R0?AVAlgorithm@CryptoPP@@@8
_DATA	SEGMENT
??_R0?AVAlgorithm@CryptoPP@@@8 DD FLAT:??_7type_info@@6B@ ; CryptoPP::Algorithm `RTTI Type Descriptor'
	DD	00H
	DB	'.?AVAlgorithm@CryptoPP@@', 00H
_DATA	ENDS
;	COMDAT ??_R1A@?0A@EA@Algorithm@CryptoPP@@8
rdata$r	SEGMENT
??_R1A@?0A@EA@Algorithm@CryptoPP@@8 DD FLAT:??_R0?AVAlgorithm@CryptoPP@@@8 ; CryptoPP::Algorithm::`RTTI Base Class Descriptor at (0,-1,0,64)'
	DD	01H
	DD	00H
	DD	0ffffffffH
	DD	00H
	DD	040H
	DD	FLAT:??_R3Algorithm@CryptoPP@@8
rdata$r	ENDS
;	COMDAT ??_R1A@?0A@EA@BlockTransformation@CryptoPP@@8
rdata$r	SEGMENT
??_R1A@?0A@EA@BlockTransformation@CryptoPP@@8 DD FLAT:??_R0?AVBlockTransformation@CryptoPP@@@8 ; CryptoPP::BlockTransformation::`RTTI Base Class Descriptor at (0,-1,0,64)'
	DD	02H
	DD	00H
	DD	0ffffffffH
	DD	00H
	DD	040H
	DD	FLAT:??_R3BlockTransformation@CryptoPP@@8
rdata$r	ENDS
;	COMDAT ??_R2BlockTransformation@CryptoPP@@8
rdata$r	SEGMENT
??_R2BlockTransformation@CryptoPP@@8 DD FLAT:??_R1A@?0A@EA@BlockTransformation@CryptoPP@@8 ; CryptoPP::BlockTransformation::`RTTI Base Class Array'
	DD	FLAT:??_R1A@?0A@EA@Algorithm@CryptoPP@@8
	DD	FLAT:??_R1A@?0A@EA@Clonable@CryptoPP@@8
rdata$r	ENDS
;	COMDAT ??_R3BlockTransformation@CryptoPP@@8
rdata$r	SEGMENT
??_R3BlockTransformation@CryptoPP@@8 DD 00H		; CryptoPP::BlockTransformation::`RTTI Class Hierarchy Descriptor'
	DD	00H
	DD	03H
	DD	FLAT:??_R2BlockTransformation@CryptoPP@@8
rdata$r	ENDS
;	COMDAT ??_R0?AVBlockTransformation@CryptoPP@@@8
_DATA	SEGMENT
??_R0?AVBlockTransformation@CryptoPP@@@8 DD FLAT:??_7type_info@@6B@ ; CryptoPP::BlockTransformation `RTTI Type Descriptor'
	DD	00H
	DB	'.?AVBlockTransformation@CryptoPP@@', 00H
_DATA	ENDS
;	COMDAT ??_R13?0A@EA@BlockTransformation@CryptoPP@@8
rdata$r	SEGMENT
??_R13?0A@EA@BlockTransformation@CryptoPP@@8 DD FLAT:??_R0?AVBlockTransformation@CryptoPP@@@8 ; CryptoPP::BlockTransformation::`RTTI Base Class Descriptor at (4,-1,0,64)'
	DD	02H
	DD	04H
	DD	0ffffffffH
	DD	00H
	DD	040H
	DD	FLAT:??_R3BlockTransformation@CryptoPP@@8
rdata$r	ENDS
;	COMDAT ??_R2SimpleKeyingInterface@CryptoPP@@8
rdata$r	SEGMENT
??_R2SimpleKeyingInterface@CryptoPP@@8 DD FLAT:??_R1A@?0A@EA@SimpleKeyingInterface@CryptoPP@@8 ; CryptoPP::SimpleKeyingInterface::`RTTI Base Class Array'
rdata$r	ENDS
;	COMDAT ??_R3SimpleKeyingInterface@CryptoPP@@8
rdata$r	SEGMENT
??_R3SimpleKeyingInterface@CryptoPP@@8 DD 00H		; CryptoPP::SimpleKeyingInterface::`RTTI Class Hierarchy Descriptor'
	DD	00H
	DD	01H
	DD	FLAT:??_R2SimpleKeyingInterface@CryptoPP@@8
rdata$r	ENDS
;	COMDAT ??_R0?AVSimpleKeyingInterface@CryptoPP@@@8
_DATA	SEGMENT
??_R0?AVSimpleKeyingInterface@CryptoPP@@@8 DD FLAT:??_7type_info@@6B@ ; CryptoPP::SimpleKeyingInterface `RTTI Type Descriptor'
	DD	00H
	DB	'.?AVSimpleKeyingInterface@CryptoPP@@', 00H
_DATA	ENDS
;	COMDAT ??_R1A@?0A@EA@SimpleKeyingInterface@CryptoPP@@8
rdata$r	SEGMENT
??_R1A@?0A@EA@SimpleKeyingInterface@CryptoPP@@8 DD FLAT:??_R0?AVSimpleKeyingInterface@CryptoPP@@@8 ; CryptoPP::SimpleKeyingInterface::`RTTI Base Class Descriptor at (0,-1,0,64)'
	DD	00H
	DD	00H
	DD	0ffffffffH
	DD	00H
	DD	040H
	DD	FLAT:??_R3SimpleKeyingInterface@CryptoPP@@8
rdata$r	ENDS
;	COMDAT ??_R2BlockCipher@CryptoPP@@8
rdata$r	SEGMENT
??_R2BlockCipher@CryptoPP@@8 DD FLAT:??_R1A@?0A@EA@BlockCipher@CryptoPP@@8 ; CryptoPP::BlockCipher::`RTTI Base Class Array'
	DD	FLAT:??_R1A@?0A@EA@SimpleKeyingInterface@CryptoPP@@8
	DD	FLAT:??_R13?0A@EA@BlockTransformation@CryptoPP@@8
	DD	FLAT:??_R13?0A@EA@Algorithm@CryptoPP@@8
	DD	FLAT:??_R13?0A@EA@Clonable@CryptoPP@@8
rdata$r	ENDS
;	COMDAT ??_R3BlockCipher@CryptoPP@@8
rdata$r	SEGMENT
??_R3BlockCipher@CryptoPP@@8 DD 00H			; CryptoPP::BlockCipher::`RTTI Class Hierarchy Descriptor'
	DD	01H
	DD	05H
	DD	FLAT:??_R2BlockCipher@CryptoPP@@8
rdata$r	ENDS
;	COMDAT ??_R0?AVBlockCipher@CryptoPP@@@8
_DATA	SEGMENT
??_R0?AVBlockCipher@CryptoPP@@@8 DD FLAT:??_7type_info@@6B@ ; CryptoPP::BlockCipher `RTTI Type Descriptor'
	DD	00H
	DB	'.?AVBlockCipher@CryptoPP@@', 00H
_DATA	ENDS
;	COMDAT ??_R1A@?0A@EA@BlockCipher@CryptoPP@@8
rdata$r	SEGMENT
??_R1A@?0A@EA@BlockCipher@CryptoPP@@8 DD FLAT:??_R0?AVBlockCipher@CryptoPP@@@8 ; CryptoPP::BlockCipher::`RTTI Base Class Descriptor at (0,-1,0,64)'
	DD	04H
	DD	00H
	DD	0ffffffffH
	DD	00H
	DD	040H
	DD	FLAT:??_R3BlockCipher@CryptoPP@@8
rdata$r	ENDS
;	COMDAT ??_R2?$TwoBases@VBlockCipher@CryptoPP@@UDES_XEX3_Info@2@@CryptoPP@@8
rdata$r	SEGMENT
??_R2?$TwoBases@VBlockCipher@CryptoPP@@UDES_XEX3_Info@2@@CryptoPP@@8 DD FLAT:??_R1A@?0A@EA@?$TwoBases@VBlockCipher@CryptoPP@@UDES_XEX3_Info@2@@CryptoPP@@8 ; CryptoPP::TwoBases<CryptoPP::BlockCipher,CryptoPP::DES_XEX3_Info>::`RTTI Base Class Array'
	DD	FLAT:??_R1A@?0A@EA@BlockCipher@CryptoPP@@8
	DD	FLAT:??_R1A@?0A@EA@SimpleKeyingInterface@CryptoPP@@8
	DD	FLAT:??_R13?0A@EA@BlockTransformation@CryptoPP@@8
	DD	FLAT:??_R13?0A@EA@Algorithm@CryptoPP@@8
	DD	FLAT:??_R13?0A@EA@Clonable@CryptoPP@@8
	DD	FLAT:??_R1M@?0A@EA@DES_XEX3_Info@CryptoPP@@8
	DD	FLAT:??_R1M@?0A@EA@?$FixedBlockSize@$07@CryptoPP@@8
	DD	FLAT:??_R1N@?0A@EA@?$FixedKeyLength@$0BI@$03$0A@@CryptoPP@@8
rdata$r	ENDS
;	COMDAT ??_R3?$TwoBases@VBlockCipher@CryptoPP@@UDES_XEX3_Info@2@@CryptoPP@@8
rdata$r	SEGMENT
??_R3?$TwoBases@VBlockCipher@CryptoPP@@UDES_XEX3_Info@2@@CryptoPP@@8 DD 00H ; CryptoPP::TwoBases<CryptoPP::BlockCipher,CryptoPP::DES_XEX3_Info>::`RTTI Class Hierarchy Descriptor'
	DD	01H
	DD	09H
	DD	FLAT:??_R2?$TwoBases@VBlockCipher@CryptoPP@@UDES_XEX3_Info@2@@CryptoPP@@8
rdata$r	ENDS
;	COMDAT ??_R0?AV?$TwoBases@VBlockCipher@CryptoPP@@UDES_XEX3_Info@2@@CryptoPP@@@8
_DATA	SEGMENT
??_R0?AV?$TwoBases@VBlockCipher@CryptoPP@@UDES_XEX3_Info@2@@CryptoPP@@@8 DD FLAT:??_7type_info@@6B@ ; CryptoPP::TwoBases<CryptoPP::BlockCipher,CryptoPP::DES_XEX3_Info> `RTTI Type Descriptor'
	DD	00H
	DB	'.?AV?$TwoBases@VBlockCipher@CryptoPP@@UDES_XEX3_Info@2@@'
	DB	'CryptoPP@@', 00H
_DATA	ENDS
;	COMDAT ??_R1A@?0A@EA@?$TwoBases@VBlockCipher@CryptoPP@@UDES_XEX3_Info@2@@CryptoPP@@8
rdata$r	SEGMENT
??_R1A@?0A@EA@?$TwoBases@VBlockCipher@CryptoPP@@UDES_XEX3_Info@2@@CryptoPP@@8 DD FLAT:??_R0?AV?$TwoBases@VBlockCipher@CryptoPP@@UDES_XEX3_Info@2@@CryptoPP@@@8 ; CryptoPP::TwoBases<CryptoPP::BlockCipher,CryptoPP::DES_XEX3_Info>::`RTTI Base Class Descriptor at (0,-1,0,64)'
	DD	08H
	DD	00H
	DD	0ffffffffH
	DD	00H
	DD	040H
	DD	FLAT:??_R3?$TwoBases@VBlockCipher@CryptoPP@@UDES_XEX3_Info@2@@CryptoPP@@8
rdata$r	ENDS
;	COMDAT ??_R2?$SimpleKeyingInterfaceImpl@V?$TwoBases@VBlockCipher@CryptoPP@@UDES_XEX3_Info@2@@CryptoPP@@V12@@CryptoPP@@8
rdata$r	SEGMENT
??_R2?$SimpleKeyingInterfaceImpl@V?$TwoBases@VBlockCipher@CryptoPP@@UDES_XEX3_Info@2@@CryptoPP@@V12@@CryptoPP@@8 DD FLAT:??_R1A@?0A@EA@?$SimpleKeyingInterfaceImpl@V?$TwoBases@VBlockCipher@CryptoPP@@UDES_XEX3_Info@2@@CryptoPP@@V12@@CryptoPP@@8 ; CryptoPP::SimpleKeyingInterfaceImpl<CryptoPP::TwoBases<CryptoPP::BlockCipher,CryptoPP::DES_XEX3_Info>,CryptoPP::TwoBases<CryptoPP::BlockCipher,CryptoPP::DES_XEX3_Info> >::`RTTI Base Class Array'
	DD	FLAT:??_R1A@?0A@EA@?$TwoBases@VBlockCipher@CryptoPP@@UDES_XEX3_Info@2@@CryptoPP@@8
	DD	FLAT:??_R1A@?0A@EA@BlockCipher@CryptoPP@@8
	DD	FLAT:??_R1A@?0A@EA@SimpleKeyingInterface@CryptoPP@@8
	DD	FLAT:??_R13?0A@EA@BlockTransformation@CryptoPP@@8
	DD	FLAT:??_R13?0A@EA@Algorithm@CryptoPP@@8
	DD	FLAT:??_R13?0A@EA@Clonable@CryptoPP@@8
	DD	FLAT:??_R1M@?0A@EA@DES_XEX3_Info@CryptoPP@@8
	DD	FLAT:??_R1M@?0A@EA@?$FixedBlockSize@$07@CryptoPP@@8
	DD	FLAT:??_R1N@?0A@EA@?$FixedKeyLength@$0BI@$03$0A@@CryptoPP@@8
rdata$r	ENDS
;	COMDAT ??_R3?$SimpleKeyingInterfaceImpl@V?$TwoBases@VBlockCipher@CryptoPP@@UDES_XEX3_Info@2@@CryptoPP@@V12@@CryptoPP@@8
rdata$r	SEGMENT
??_R3?$SimpleKeyingInterfaceImpl@V?$TwoBases@VBlockCipher@CryptoPP@@UDES_XEX3_Info@2@@CryptoPP@@V12@@CryptoPP@@8 DD 00H ; CryptoPP::SimpleKeyingInterfaceImpl<CryptoPP::TwoBases<CryptoPP::BlockCipher,CryptoPP::DES_XEX3_Info>,CryptoPP::TwoBases<CryptoPP::BlockCipher,CryptoPP::DES_XEX3_Info> >::`RTTI Class Hierarchy Descriptor'
	DD	01H
	DD	0aH
	DD	FLAT:??_R2?$SimpleKeyingInterfaceImpl@V?$TwoBases@VBlockCipher@CryptoPP@@UDES_XEX3_Info@2@@CryptoPP@@V12@@CryptoPP@@8
rdata$r	ENDS
;	COMDAT ??_R0?AV?$SimpleKeyingInterfaceImpl@V?$TwoBases@VBlockCipher@CryptoPP@@UDES_XEX3_Info@2@@CryptoPP@@V12@@CryptoPP@@@8
_DATA	SEGMENT
??_R0?AV?$SimpleKeyingInterfaceImpl@V?$TwoBases@VBlockCipher@CryptoPP@@UDES_XEX3_Info@2@@CryptoPP@@V12@@CryptoPP@@@8 DD FLAT:??_7type_info@@6B@ ; CryptoPP::SimpleKeyingInterfaceImpl<CryptoPP::TwoBases<CryptoPP::BlockCipher,CryptoPP::DES_XEX3_Info>,CryptoPP::TwoBases<CryptoPP::BlockCipher,CryptoPP::DES_XEX3_Info> > `RTTI Type Descriptor'
	DD	00H
	DB	'.?AV?$SimpleKeyingInterfaceImpl@V?$TwoBases@VBlockCipher'
	DB	'@CryptoPP@@UDES_XEX3_Info@2@@CryptoPP@@V12@@CryptoPP@@', 00H
_DATA	ENDS
;	COMDAT ??_R1A@?0A@EA@?$SimpleKeyingInterfaceImpl@V?$TwoBases@VBlockCipher@CryptoPP@@UDES_XEX3_Info@2@@CryptoPP@@V12@@CryptoPP@@8
rdata$r	SEGMENT
??_R1A@?0A@EA@?$SimpleKeyingInterfaceImpl@V?$TwoBases@VBlockCipher@CryptoPP@@UDES_XEX3_Info@2@@CryptoPP@@V12@@CryptoPP@@8 DD FLAT:??_R0?AV?$SimpleKeyingInterfaceImpl@V?$TwoBases@VBlockCipher@CryptoPP@@UDES_XEX3_Info@2@@CryptoPP@@V12@@CryptoPP@@@8 ; CryptoPP::SimpleKeyingInterfaceImpl<CryptoPP::TwoBases<CryptoPP::BlockCipher,CryptoPP::DES_XEX3_Info>,CryptoPP::TwoBases<CryptoPP::BlockCipher,CryptoPP::DES_XEX3_Info> >::`RTTI Base Class Descriptor at (0,-1,0,64)'
	DD	09H
	DD	00H
	DD	0ffffffffH
	DD	00H
	DD	040H
	DD	FLAT:??_R3?$SimpleKeyingInterfaceImpl@V?$TwoBases@VBlockCipher@CryptoPP@@UDES_XEX3_Info@2@@CryptoPP@@V12@@CryptoPP@@8
rdata$r	ENDS
;	COMDAT ??_R2?$AlgorithmImpl@V?$SimpleKeyingInterfaceImpl@V?$TwoBases@VBlockCipher@CryptoPP@@UDES_XEX3_Info@2@@CryptoPP@@V12@@CryptoPP@@V12@@CryptoPP@@8
rdata$r	SEGMENT
??_R2?$AlgorithmImpl@V?$SimpleKeyingInterfaceImpl@V?$TwoBases@VBlockCipher@CryptoPP@@UDES_XEX3_Info@2@@CryptoPP@@V12@@CryptoPP@@V12@@CryptoPP@@8 DD FLAT:??_R1A@?0A@EA@?$AlgorithmImpl@V?$SimpleKeyingInterfaceImpl@V?$TwoBases@VBlockCipher@CryptoPP@@UDES_XEX3_Info@2@@CryptoPP@@V12@@CryptoPP@@V12@@CryptoPP@@8 ; CryptoPP::AlgorithmImpl<CryptoPP::SimpleKeyingInterfaceImpl<CryptoPP::TwoBases<CryptoPP::BlockCipher,CryptoPP::DES_XEX3_Info>,CryptoPP::TwoBases<CryptoPP::BlockCipher,CryptoPP::DES_XEX3_Info> >,CryptoPP::SimpleKeyingInterfaceImpl<CryptoPP::TwoBases<CryptoPP::BlockCipher,CryptoPP::DES_XEX3_Info>,CryptoPP::TwoBases<CryptoPP::BlockCipher,CryptoPP::DES_XEX3_Info> > >::`RTTI Base Class Array'
	DD	FLAT:??_R1A@?0A@EA@?$SimpleKeyingInterfaceImpl@V?$TwoBases@VBlockCipher@CryptoPP@@UDES_XEX3_Info@2@@CryptoPP@@V12@@CryptoPP@@8
	DD	FLAT:??_R1A@?0A@EA@?$TwoBases@VBlockCipher@CryptoPP@@UDES_XEX3_Info@2@@CryptoPP@@8
	DD	FLAT:??_R1A@?0A@EA@BlockCipher@CryptoPP@@8
	DD	FLAT:??_R1A@?0A@EA@SimpleKeyingInterface@CryptoPP@@8
	DD	FLAT:??_R13?0A@EA@BlockTransformation@CryptoPP@@8
	DD	FLAT:??_R13?0A@EA@Algorithm@CryptoPP@@8
	DD	FLAT:??_R13?0A@EA@Clonable@CryptoPP@@8
	DD	FLAT:??_R1M@?0A@EA@DES_XEX3_Info@CryptoPP@@8
	DD	FLAT:??_R1M@?0A@EA@?$FixedBlockSize@$07@CryptoPP@@8
	DD	FLAT:??_R1N@?0A@EA@?$FixedKeyLength@$0BI@$03$0A@@CryptoPP@@8
rdata$r	ENDS
;	COMDAT ??_R3?$AlgorithmImpl@V?$SimpleKeyingInterfaceImpl@V?$TwoBases@VBlockCipher@CryptoPP@@UDES_XEX3_Info@2@@CryptoPP@@V12@@CryptoPP@@V12@@CryptoPP@@8
rdata$r	SEGMENT
??_R3?$AlgorithmImpl@V?$SimpleKeyingInterfaceImpl@V?$TwoBases@VBlockCipher@CryptoPP@@UDES_XEX3_Info@2@@CryptoPP@@V12@@CryptoPP@@V12@@CryptoPP@@8 DD 00H ; CryptoPP::AlgorithmImpl<CryptoPP::SimpleKeyingInterfaceImpl<CryptoPP::TwoBases<CryptoPP::BlockCipher,CryptoPP::DES_XEX3_Info>,CryptoPP::TwoBases<CryptoPP::BlockCipher,CryptoPP::DES_XEX3_Info> >,CryptoPP::SimpleKeyingInterfaceImpl<CryptoPP::TwoBases<CryptoPP::BlockCipher,CryptoPP::DES_XEX3_Info>,CryptoPP::TwoBases<CryptoPP::BlockCipher,CryptoPP::DES_XEX3_Info> > >::`RTTI Class Hierarchy Descriptor'
	DD	01H
	DD	0bH
	DD	FLAT:??_R2?$AlgorithmImpl@V?$SimpleKeyingInterfaceImpl@V?$TwoBases@VBlockCipher@CryptoPP@@UDES_XEX3_Info@2@@CryptoPP@@V12@@CryptoPP@@V12@@CryptoPP@@8
rdata$r	ENDS
;	COMDAT ??_R0?AV?$AlgorithmImpl@V?$SimpleKeyingInterfaceImpl@V?$TwoBases@VBlockCipher@CryptoPP@@UDES_XEX3_Info@2@@CryptoPP@@V12@@CryptoPP@@V12@@CryptoPP@@@8
_DATA	SEGMENT
??_R0?AV?$AlgorithmImpl@V?$SimpleKeyingInterfaceImpl@V?$TwoBases@VBlockCipher@CryptoPP@@UDES_XEX3_Info@2@@CryptoPP@@V12@@CryptoPP@@V12@@CryptoPP@@@8 DD FLAT:??_7type_info@@6B@ ; CryptoPP::AlgorithmImpl<CryptoPP::SimpleKeyingInterfaceImpl<CryptoPP::TwoBases<CryptoPP::BlockCipher,CryptoPP::DES_XEX3_Info>,CryptoPP::TwoBases<CryptoPP::BlockCipher,CryptoPP::DES_XEX3_Info> >,CryptoPP::SimpleKeyingInterfaceImpl<CryptoPP::TwoBases<CryptoPP::BlockCipher,CryptoPP::DES_XEX3_Info>,CryptoPP::TwoBases<CryptoPP::BlockCipher,CryptoPP::DES_XEX3_Info> > > `RTTI Type Descriptor'
	DD	00H
	DB	'.?AV?$AlgorithmImpl@V?$SimpleKeyingInterfaceImpl@V?$TwoB'
	DB	'ases@VBlockCipher@CryptoPP@@UDES_XEX3_Info@2@@CryptoPP@@V12@@'
	DB	'CryptoPP@@V12@@CryptoPP@@', 00H
_DATA	ENDS
;	COMDAT ??_R1A@?0A@EA@?$AlgorithmImpl@V?$SimpleKeyingInterfaceImpl@V?$TwoBases@VBlockCipher@CryptoPP@@UDES_XEX3_Info@2@@CryptoPP@@V12@@CryptoPP@@V12@@CryptoPP@@8
rdata$r	SEGMENT
??_R1A@?0A@EA@?$AlgorithmImpl@V?$SimpleKeyingInterfaceImpl@V?$TwoBases@VBlockCipher@CryptoPP@@UDES_XEX3_Info@2@@CryptoPP@@V12@@CryptoPP@@V12@@CryptoPP@@8 DD FLAT:??_R0?AV?$AlgorithmImpl@V?$SimpleKeyingInterfaceImpl@V?$TwoBases@VBlockCipher@CryptoPP@@UDES_XEX3_Info@2@@CryptoPP@@V12@@CryptoPP@@V12@@CryptoPP@@@8 ; CryptoPP::AlgorithmImpl<CryptoPP::SimpleKeyingInterfaceImpl<CryptoPP::TwoBases<CryptoPP::BlockCipher,CryptoPP::DES_XEX3_Info>,CryptoPP::TwoBases<CryptoPP::BlockCipher,CryptoPP::DES_XEX3_Info> >,CryptoPP::SimpleKeyingInterfaceImpl<CryptoPP::TwoBases<CryptoPP::BlockCipher,CryptoPP::DES_XEX3_Info>,CryptoPP::TwoBases<CryptoPP::BlockCipher,CryptoPP::DES_XEX3_Info> > >::`RTTI Base Class Descriptor at (0,-1,0,64)'
	DD	0aH
	DD	00H
	DD	0ffffffffH
	DD	00H
	DD	040H
	DD	FLAT:??_R3?$AlgorithmImpl@V?$SimpleKeyingInterfaceImpl@V?$TwoBases@VBlockCipher@CryptoPP@@UDES_XEX3_Info@2@@CryptoPP@@V12@@CryptoPP@@V12@@CryptoPP@@8
rdata$r	ENDS
;	COMDAT ??_R2?$BlockCipherImpl@UDES_XEX3_Info@CryptoPP@@VBlockCipher@2@@CryptoPP@@8
rdata$r	SEGMENT
??_R2?$BlockCipherImpl@UDES_XEX3_Info@CryptoPP@@VBlockCipher@2@@CryptoPP@@8 DD FLAT:??_R1A@?0A@EA@?$BlockCipherImpl@UDES_XEX3_Info@CryptoPP@@VBlockCipher@2@@CryptoPP@@8 ; CryptoPP::BlockCipherImpl<CryptoPP::DES_XEX3_Info,CryptoPP::BlockCipher>::`RTTI Base Class Array'
	DD	FLAT:??_R1A@?0A@EA@?$AlgorithmImpl@V?$SimpleKeyingInterfaceImpl@V?$TwoBases@VBlockCipher@CryptoPP@@UDES_XEX3_Info@2@@CryptoPP@@V12@@CryptoPP@@V12@@CryptoPP@@8
	DD	FLAT:??_R1A@?0A@EA@?$SimpleKeyingInterfaceImpl@V?$TwoBases@VBlockCipher@CryptoPP@@UDES_XEX3_Info@2@@CryptoPP@@V12@@CryptoPP@@8
	DD	FLAT:??_R1A@?0A@EA@?$TwoBases@VBlockCipher@CryptoPP@@UDES_XEX3_Info@2@@CryptoPP@@8
	DD	FLAT:??_R1A@?0A@EA@BlockCipher@CryptoPP@@8
	DD	FLAT:??_R1A@?0A@EA@SimpleKeyingInterface@CryptoPP@@8
	DD	FLAT:??_R13?0A@EA@BlockTransformation@CryptoPP@@8
	DD	FLAT:??_R13?0A@EA@Algorithm@CryptoPP@@8
	DD	FLAT:??_R13?0A@EA@Clonable@CryptoPP@@8
	DD	FLAT:??_R1M@?0A@EA@DES_XEX3_Info@CryptoPP@@8
	DD	FLAT:??_R1M@?0A@EA@?$FixedBlockSize@$07@CryptoPP@@8
	DD	FLAT:??_R1N@?0A@EA@?$FixedKeyLength@$0BI@$03$0A@@CryptoPP@@8
rdata$r	ENDS
;	COMDAT ??_R3?$BlockCipherImpl@UDES_XEX3_Info@CryptoPP@@VBlockCipher@2@@CryptoPP@@8
rdata$r	SEGMENT
??_R3?$BlockCipherImpl@UDES_XEX3_Info@CryptoPP@@VBlockCipher@2@@CryptoPP@@8 DD 00H ; CryptoPP::BlockCipherImpl<CryptoPP::DES_XEX3_Info,CryptoPP::BlockCipher>::`RTTI Class Hierarchy Descriptor'
	DD	01H
	DD	0cH
	DD	FLAT:??_R2?$BlockCipherImpl@UDES_XEX3_Info@CryptoPP@@VBlockCipher@2@@CryptoPP@@8
rdata$r	ENDS
;	COMDAT ??_R0?AV?$BlockCipherImpl@UDES_XEX3_Info@CryptoPP@@VBlockCipher@2@@CryptoPP@@@8
_DATA	SEGMENT
??_R0?AV?$BlockCipherImpl@UDES_XEX3_Info@CryptoPP@@VBlockCipher@2@@CryptoPP@@@8 DD FLAT:??_7type_info@@6B@ ; CryptoPP::BlockCipherImpl<CryptoPP::DES_XEX3_Info,CryptoPP::BlockCipher> `RTTI Type Descriptor'
	DD	00H
	DB	'.?AV?$BlockCipherImpl@UDES_XEX3_Info@CryptoPP@@VBlockCip'
	DB	'her@2@@CryptoPP@@', 00H
_DATA	ENDS
;	COMDAT ??_R1A@?0A@EA@?$BlockCipherImpl@UDES_XEX3_Info@CryptoPP@@VBlockCipher@2@@CryptoPP@@8
rdata$r	SEGMENT
??_R1A@?0A@EA@?$BlockCipherImpl@UDES_XEX3_Info@CryptoPP@@VBlockCipher@2@@CryptoPP@@8 DD FLAT:??_R0?AV?$BlockCipherImpl@UDES_XEX3_Info@CryptoPP@@VBlockCipher@2@@CryptoPP@@@8 ; CryptoPP::BlockCipherImpl<CryptoPP::DES_XEX3_Info,CryptoPP::BlockCipher>::`RTTI Base Class Descriptor at (0,-1,0,64)'
	DD	0bH
	DD	00H
	DD	0ffffffffH
	DD	00H
	DD	040H
	DD	FLAT:??_R3?$BlockCipherImpl@UDES_XEX3_Info@CryptoPP@@VBlockCipher@2@@CryptoPP@@8
rdata$r	ENDS
;	COMDAT ??_R2Base@DES_XEX3@CryptoPP@@8
rdata$r	SEGMENT
??_R2Base@DES_XEX3@CryptoPP@@8 DD FLAT:??_R1A@?0A@EA@Base@DES_XEX3@CryptoPP@@8 ; CryptoPP::DES_XEX3::Base::`RTTI Base Class Array'
	DD	FLAT:??_R1A@?0A@EA@?$BlockCipherImpl@UDES_XEX3_Info@CryptoPP@@VBlockCipher@2@@CryptoPP@@8
	DD	FLAT:??_R1A@?0A@EA@?$AlgorithmImpl@V?$SimpleKeyingInterfaceImpl@V?$TwoBases@VBlockCipher@CryptoPP@@UDES_XEX3_Info@2@@CryptoPP@@V12@@CryptoPP@@V12@@CryptoPP@@8
	DD	FLAT:??_R1A@?0A@EA@?$SimpleKeyingInterfaceImpl@V?$TwoBases@VBlockCipher@CryptoPP@@UDES_XEX3_Info@2@@CryptoPP@@V12@@CryptoPP@@8
	DD	FLAT:??_R1A@?0A@EA@?$TwoBases@VBlockCipher@CryptoPP@@UDES_XEX3_Info@2@@CryptoPP@@8
	DD	FLAT:??_R1A@?0A@EA@BlockCipher@CryptoPP@@8
	DD	FLAT:??_R1A@?0A@EA@SimpleKeyingInterface@CryptoPP@@8
	DD	FLAT:??_R13?0A@EA@BlockTransformation@CryptoPP@@8
	DD	FLAT:??_R13?0A@EA@Algorithm@CryptoPP@@8
	DD	FLAT:??_R13?0A@EA@Clonable@CryptoPP@@8
	DD	FLAT:??_R1M@?0A@EA@DES_XEX3_Info@CryptoPP@@8
	DD	FLAT:??_R1M@?0A@EA@?$FixedBlockSize@$07@CryptoPP@@8
	DD	FLAT:??_R1N@?0A@EA@?$FixedKeyLength@$0BI@$03$0A@@CryptoPP@@8
rdata$r	ENDS
;	COMDAT ??_R3Base@DES_XEX3@CryptoPP@@8
rdata$r	SEGMENT
??_R3Base@DES_XEX3@CryptoPP@@8 DD 00H			; CryptoPP::DES_XEX3::Base::`RTTI Class Hierarchy Descriptor'
	DD	01H
	DD	0dH
	DD	FLAT:??_R2Base@DES_XEX3@CryptoPP@@8
rdata$r	ENDS
;	COMDAT ??_R0?AVBase@DES_XEX3@CryptoPP@@@8
_DATA	SEGMENT
??_R0?AVBase@DES_XEX3@CryptoPP@@@8 DD FLAT:??_7type_info@@6B@ ; CryptoPP::DES_XEX3::Base `RTTI Type Descriptor'
	DD	00H
	DB	'.?AVBase@DES_XEX3@CryptoPP@@', 00H
_DATA	ENDS
;	COMDAT ??_R1A@?0A@EA@Base@DES_XEX3@CryptoPP@@8
rdata$r	SEGMENT
??_R1A@?0A@EA@Base@DES_XEX3@CryptoPP@@8 DD FLAT:??_R0?AVBase@DES_XEX3@CryptoPP@@@8 ; CryptoPP::DES_XEX3::Base::`RTTI Base Class Descriptor at (0,-1,0,64)'
	DD	0cH
	DD	00H
	DD	0ffffffffH
	DD	00H
	DD	040H
	DD	FLAT:??_R3Base@DES_XEX3@CryptoPP@@8
rdata$r	ENDS
;	COMDAT ??_R2?$ClonableImpl@V?$BlockCipherFinal@$0A@VBase@DES_XEX3@CryptoPP@@@CryptoPP@@VBase@DES_XEX3@2@@CryptoPP@@8
rdata$r	SEGMENT
??_R2?$ClonableImpl@V?$BlockCipherFinal@$0A@VBase@DES_XEX3@CryptoPP@@@CryptoPP@@VBase@DES_XEX3@2@@CryptoPP@@8 DD FLAT:??_R1A@?0A@EA@?$ClonableImpl@V?$BlockCipherFinal@$0A@VBase@DES_XEX3@CryptoPP@@@CryptoPP@@VBase@DES_XEX3@2@@CryptoPP@@8 ; CryptoPP::ClonableImpl<CryptoPP::BlockCipherFinal<0,CryptoPP::DES_XEX3::Base>,CryptoPP::DES_XEX3::Base>::`RTTI Base Class Array'
	DD	FLAT:??_R1A@?0A@EA@Base@DES_XEX3@CryptoPP@@8
	DD	FLAT:??_R1A@?0A@EA@?$BlockCipherImpl@UDES_XEX3_Info@CryptoPP@@VBlockCipher@2@@CryptoPP@@8
	DD	FLAT:??_R1A@?0A@EA@?$AlgorithmImpl@V?$SimpleKeyingInterfaceImpl@V?$TwoBases@VBlockCipher@CryptoPP@@UDES_XEX3_Info@2@@CryptoPP@@V12@@CryptoPP@@V12@@CryptoPP@@8
	DD	FLAT:??_R1A@?0A@EA@?$SimpleKeyingInterfaceImpl@V?$TwoBases@VBlockCipher@CryptoPP@@UDES_XEX3_Info@2@@CryptoPP@@V12@@CryptoPP@@8
	DD	FLAT:??_R1A@?0A@EA@?$TwoBases@VBlockCipher@CryptoPP@@UDES_XEX3_Info@2@@CryptoPP@@8
	DD	FLAT:??_R1A@?0A@EA@BlockCipher@CryptoPP@@8
	DD	FLAT:??_R1A@?0A@EA@SimpleKeyingInterface@CryptoPP@@8
	DD	FLAT:??_R13?0A@EA@BlockTransformation@CryptoPP@@8
	DD	FLAT:??_R13?0A@EA@Algorithm@CryptoPP@@8
	DD	FLAT:??_R13?0A@EA@Clonable@CryptoPP@@8
	DD	FLAT:??_R1M@?0A@EA@DES_XEX3_Info@CryptoPP@@8
	DD	FLAT:??_R1M@?0A@EA@?$FixedBlockSize@$07@CryptoPP@@8
	DD	FLAT:??_R1N@?0A@EA@?$FixedKeyLength@$0BI@$03$0A@@CryptoPP@@8
rdata$r	ENDS
;	COMDAT ??_R3?$ClonableImpl@V?$BlockCipherFinal@$0A@VBase@DES_XEX3@CryptoPP@@@CryptoPP@@VBase@DES_XEX3@2@@CryptoPP@@8
rdata$r	SEGMENT
??_R3?$ClonableImpl@V?$BlockCipherFinal@$0A@VBase@DES_XEX3@CryptoPP@@@CryptoPP@@VBase@DES_XEX3@2@@CryptoPP@@8 DD 00H ; CryptoPP::ClonableImpl<CryptoPP::BlockCipherFinal<0,CryptoPP::DES_XEX3::Base>,CryptoPP::DES_XEX3::Base>::`RTTI Class Hierarchy Descriptor'
	DD	01H
	DD	0eH
	DD	FLAT:??_R2?$ClonableImpl@V?$BlockCipherFinal@$0A@VBase@DES_XEX3@CryptoPP@@@CryptoPP@@VBase@DES_XEX3@2@@CryptoPP@@8
rdata$r	ENDS
;	COMDAT ??_R0?AV?$ClonableImpl@V?$BlockCipherFinal@$0A@VBase@DES_XEX3@CryptoPP@@@CryptoPP@@VBase@DES_XEX3@2@@CryptoPP@@@8
_DATA	SEGMENT
??_R0?AV?$ClonableImpl@V?$BlockCipherFinal@$0A@VBase@DES_XEX3@CryptoPP@@@CryptoPP@@VBase@DES_XEX3@2@@CryptoPP@@@8 DD FLAT:??_7type_info@@6B@ ; CryptoPP::ClonableImpl<CryptoPP::BlockCipherFinal<0,CryptoPP::DES_XEX3::Base>,CryptoPP::DES_XEX3::Base> `RTTI Type Descriptor'
	DD	00H
	DB	'.?AV?$ClonableImpl@V?$BlockCipherFinal@$0A@VBase@DES_XEX'
	DB	'3@CryptoPP@@@CryptoPP@@VBase@DES_XEX3@2@@CryptoPP@@', 00H
_DATA	ENDS
;	COMDAT ??_R1A@?0A@EA@?$ClonableImpl@V?$BlockCipherFinal@$0A@VBase@DES_XEX3@CryptoPP@@@CryptoPP@@VBase@DES_XEX3@2@@CryptoPP@@8
rdata$r	SEGMENT
??_R1A@?0A@EA@?$ClonableImpl@V?$BlockCipherFinal@$0A@VBase@DES_XEX3@CryptoPP@@@CryptoPP@@VBase@DES_XEX3@2@@CryptoPP@@8 DD FLAT:??_R0?AV?$ClonableImpl@V?$BlockCipherFinal@$0A@VBase@DES_XEX3@CryptoPP@@@CryptoPP@@VBase@DES_XEX3@2@@CryptoPP@@@8 ; CryptoPP::ClonableImpl<CryptoPP::BlockCipherFinal<0,CryptoPP::DES_XEX3::Base>,CryptoPP::DES_XEX3::Base>::`RTTI Base Class Descriptor at (0,-1,0,64)'
	DD	0dH
	DD	00H
	DD	0ffffffffH
	DD	00H
	DD	040H
	DD	FLAT:??_R3?$ClonableImpl@V?$BlockCipherFinal@$0A@VBase@DES_XEX3@CryptoPP@@@CryptoPP@@VBase@DES_XEX3@2@@CryptoPP@@8
rdata$r	ENDS
;	COMDAT ??_R1A@?0A@EA@?$BlockCipherFinal@$0A@VBase@DES_XEX3@CryptoPP@@@CryptoPP@@8
rdata$r	SEGMENT
??_R1A@?0A@EA@?$BlockCipherFinal@$0A@VBase@DES_XEX3@CryptoPP@@@CryptoPP@@8 DD FLAT:??_R0?AV?$BlockCipherFinal@$0A@VBase@DES_XEX3@CryptoPP@@@CryptoPP@@@8 ; CryptoPP::BlockCipherFinal<0,CryptoPP::DES_XEX3::Base>::`RTTI Base Class Descriptor at (0,-1,0,64)'
	DD	0eH
	DD	00H
	DD	0ffffffffH
	DD	00H
	DD	040H
	DD	FLAT:??_R3?$BlockCipherFinal@$0A@VBase@DES_XEX3@CryptoPP@@@CryptoPP@@8
rdata$r	ENDS
;	COMDAT ??_R2?$BlockCipherFinal@$0A@VBase@DES_XEX3@CryptoPP@@@CryptoPP@@8
rdata$r	SEGMENT
??_R2?$BlockCipherFinal@$0A@VBase@DES_XEX3@CryptoPP@@@CryptoPP@@8 DD FLAT:??_R1A@?0A@EA@?$BlockCipherFinal@$0A@VBase@DES_XEX3@CryptoPP@@@CryptoPP@@8 ; CryptoPP::BlockCipherFinal<0,CryptoPP::DES_XEX3::Base>::`RTTI Base Class Array'
	DD	FLAT:??_R1A@?0A@EA@?$ClonableImpl@V?$BlockCipherFinal@$0A@VBase@DES_XEX3@CryptoPP@@@CryptoPP@@VBase@DES_XEX3@2@@CryptoPP@@8
	DD	FLAT:??_R1A@?0A@EA@Base@DES_XEX3@CryptoPP@@8
	DD	FLAT:??_R1A@?0A@EA@?$BlockCipherImpl@UDES_XEX3_Info@CryptoPP@@VBlockCipher@2@@CryptoPP@@8
	DD	FLAT:??_R1A@?0A@EA@?$AlgorithmImpl@V?$SimpleKeyingInterfaceImpl@V?$TwoBases@VBlockCipher@CryptoPP@@UDES_XEX3_Info@2@@CryptoPP@@V12@@CryptoPP@@V12@@CryptoPP@@8
	DD	FLAT:??_R1A@?0A@EA@?$SimpleKeyingInterfaceImpl@V?$TwoBases@VBlockCipher@CryptoPP@@UDES_XEX3_Info@2@@CryptoPP@@V12@@CryptoPP@@8
	DD	FLAT:??_R1A@?0A@EA@?$TwoBases@VBlockCipher@CryptoPP@@UDES_XEX3_Info@2@@CryptoPP@@8
	DD	FLAT:??_R1A@?0A@EA@BlockCipher@CryptoPP@@8
	DD	FLAT:??_R1A@?0A@EA@SimpleKeyingInterface@CryptoPP@@8
	DD	FLAT:??_R13?0A@EA@BlockTransformation@CryptoPP@@8
	DD	FLAT:??_R13?0A@EA@Algorithm@CryptoPP@@8
	DD	FLAT:??_R13?0A@EA@Clonable@CryptoPP@@8
	DD	FLAT:??_R1M@?0A@EA@DES_XEX3_Info@CryptoPP@@8
	DD	FLAT:??_R1M@?0A@EA@?$FixedBlockSize@$07@CryptoPP@@8
	DD	FLAT:??_R1N@?0A@EA@?$FixedKeyLength@$0BI@$03$0A@@CryptoPP@@8
rdata$r	ENDS
;	COMDAT ??_R3?$BlockCipherFinal@$0A@VBase@DES_XEX3@CryptoPP@@@CryptoPP@@8
rdata$r	SEGMENT
??_R3?$BlockCipherFinal@$0A@VBase@DES_XEX3@CryptoPP@@@CryptoPP@@8 DD 00H ; CryptoPP::BlockCipherFinal<0,CryptoPP::DES_XEX3::Base>::`RTTI Class Hierarchy Descriptor'
	DD	01H
	DD	0fH
	DD	FLAT:??_R2?$BlockCipherFinal@$0A@VBase@DES_XEX3@CryptoPP@@@CryptoPP@@8
rdata$r	ENDS
;	COMDAT ??_R0?AV?$BlockCipherFinal@$0A@VBase@DES_XEX3@CryptoPP@@@CryptoPP@@@8
_DATA	SEGMENT
??_R0?AV?$BlockCipherFinal@$0A@VBase@DES_XEX3@CryptoPP@@@CryptoPP@@@8 DD FLAT:??_7type_info@@6B@ ; CryptoPP::BlockCipherFinal<0,CryptoPP::DES_XEX3::Base> `RTTI Type Descriptor'
	DD	00H
	DB	'.?AV?$BlockCipherFinal@$0A@VBase@DES_XEX3@CryptoPP@@@Cry'
	DB	'ptoPP@@', 00H
_DATA	ENDS
;	COMDAT ??_R4?$BlockCipherFinal@$0A@VBase@DES_XEX3@CryptoPP@@@CryptoPP@@6BSimpleKeyingInterface@1@@
rdata$r	SEGMENT
??_R4?$BlockCipherFinal@$0A@VBase@DES_XEX3@CryptoPP@@@CryptoPP@@6BSimpleKeyingInterface@1@@ DD 00H ; CryptoPP::BlockCipherFinal<0,CryptoPP::DES_XEX3::Base>::`RTTI Complete Object Locator'
	DD	00H
	DD	00H
	DD	FLAT:??_R0?AV?$BlockCipherFinal@$0A@VBase@DES_XEX3@CryptoPP@@@CryptoPP@@@8
	DD	FLAT:??_R3?$BlockCipherFinal@$0A@VBase@DES_XEX3@CryptoPP@@@CryptoPP@@8
rdata$r	ENDS
;	COMDAT ??_7?$BlockCipherFinal@$0A@VBase@DES_XEX3@CryptoPP@@@CryptoPP@@6BBlockTransformation@1@@
CONST	SEGMENT
??_7?$BlockCipherFinal@$0A@VBase@DES_XEX3@CryptoPP@@@CryptoPP@@6BBlockTransformation@1@@ DD FLAT:??_R4?$BlockCipherFinal@$0A@VBase@DES_XEX3@CryptoPP@@@CryptoPP@@6BBlockTransformation@1@@ ; CryptoPP::BlockCipherFinal<0,CryptoPP::DES_XEX3::Base>::`vftable'
	DD	FLAT:??_E?$BlockCipherFinal@$0A@VBase@DES_XEX3@CryptoPP@@@CryptoPP@@W3AEPAXI@Z
	DD	FLAT:?Clone@?$ClonableImpl@V?$BlockCipherFinal@$0A@VBase@DES_XEX3@CryptoPP@@@CryptoPP@@VBase@DES_XEX3@2@@CryptoPP@@UBEPAVClonable@2@XZ
	DD	FLAT:?AlgorithmName@?$AlgorithmImpl@V?$SimpleKeyingInterfaceImpl@V?$TwoBases@VBlockCipher@CryptoPP@@UDES_XEX3_Info@2@@CryptoPP@@V12@@CryptoPP@@V12@@CryptoPP@@UBE?AV?$basic_string@DU?$char_traits@D@std@@V?$allocator@D@2@@std@@XZ
	DD	FLAT:?ProcessAndXorBlock@Base@DES_XEX3@CryptoPP@@UBEXPBE0PAE@Z
	DD	FLAT:?BlockSize@?$BlockCipherImpl@UDES_XEX3_Info@CryptoPP@@VBlockCipher@2@@CryptoPP@@UBEIXZ
	DD	FLAT:?OptimalDataAlignment@BlockTransformation@CryptoPP@@UBEIXZ
	DD	FLAT:?IsPermutation@BlockTransformation@CryptoPP@@UBE_NXZ
	DD	FLAT:?IsForwardTransformation@?$BlockCipherFinal@$0A@VBase@DES_XEX3@CryptoPP@@@CryptoPP@@UBE_NXZ
	DD	FLAT:?OptimalNumberOfParallelBlocks@BlockTransformation@CryptoPP@@UBEIXZ
	DD	FLAT:?AdvancedProcessBlocks@BlockTransformation@CryptoPP@@UBEIPBE0PAEII@Z
CONST	ENDS
;	COMDAT ??_7?$BlockCipherFinal@$0A@VBase@DES_XEX3@CryptoPP@@@CryptoPP@@6BSimpleKeyingInterface@1@@
CONST	SEGMENT
??_7?$BlockCipherFinal@$0A@VBase@DES_XEX3@CryptoPP@@@CryptoPP@@6BSimpleKeyingInterface@1@@ DD FLAT:??_R4?$BlockCipherFinal@$0A@VBase@DES_XEX3@CryptoPP@@@CryptoPP@@6BSimpleKeyingInterface@1@@ ; CryptoPP::BlockCipherFinal<0,CryptoPP::DES_XEX3::Base>::`vftable'
	DD	FLAT:??_E?$BlockCipherFinal@$0A@VBase@DES_XEX3@CryptoPP@@@CryptoPP@@UAEPAXI@Z
	DD	FLAT:?MinKeyLength@?$SimpleKeyingInterfaceImpl@V?$TwoBases@VBlockCipher@CryptoPP@@UDES_XEX3_Info@2@@CryptoPP@@V12@@CryptoPP@@UBEIXZ
	DD	FLAT:?MaxKeyLength@?$SimpleKeyingInterfaceImpl@V?$TwoBases@VBlockCipher@CryptoPP@@UDES_XEX3_Info@2@@CryptoPP@@V12@@CryptoPP@@UBEIXZ
	DD	FLAT:?DefaultKeyLength@?$SimpleKeyingInterfaceImpl@V?$TwoBases@VBlockCipher@CryptoPP@@UDES_XEX3_Info@2@@CryptoPP@@V12@@CryptoPP@@UBEIXZ
	DD	FLAT:?GetValidKeyLength@?$SimpleKeyingInterfaceImpl@V?$TwoBases@VBlockCipher@CryptoPP@@UDES_XEX3_Info@2@@CryptoPP@@V12@@CryptoPP@@UBEII@Z
	DD	FLAT:?IsValidKeyLength@SimpleKeyingInterface@CryptoPP@@UBE_NI@Z
	DD	FLAT:?SetKey@SimpleKeyingInterface@CryptoPP@@UAEXPBEIABVNameValuePairs@2@@Z
	DD	FLAT:?IVRequirement@?$SimpleKeyingInterfaceImpl@V?$TwoBases@VBlockCipher@CryptoPP@@UDES_XEX3_Info@2@@CryptoPP@@V12@@CryptoPP@@UBE?AW4IV_Requirement@SimpleKeyingInterface@2@XZ
	DD	FLAT:?IVSize@?$SimpleKeyingInterfaceImpl@V?$TwoBases@VBlockCipher@CryptoPP@@UDES_XEX3_Info@2@@CryptoPP@@V12@@CryptoPP@@UBEIXZ
	DD	FLAT:?MinIVLength@SimpleKeyingInterface@CryptoPP@@UBEIXZ
	DD	FLAT:?MaxIVLength@SimpleKeyingInterface@CryptoPP@@UBEIXZ
	DD	FLAT:?Resynchronize@SimpleKeyingInterface@CryptoPP@@UAEXPBEH@Z
	DD	FLAT:?GetNextIV@SimpleKeyingInterface@CryptoPP@@UAEXAAVRandomNumberGenerator@2@PAE@Z
	DD	FLAT:?GetAlgorithm@BlockCipher@CryptoPP@@MBEABVAlgorithm@2@XZ
	DD	FLAT:?UncheckedSetKey@Base@DES_XEX3@CryptoPP@@UAEXPBEIABVNameValuePairs@3@@Z
; Function compile flags: /Ogtp
; File c:\muserver_dev\development\mu-s8ep2-repack\gameserver\crypto\seckey.h
CONST	ENDS
;	COMDAT ??0?$BlockCipherFinal@$0A@VBase@DES_XEX3@CryptoPP@@@CryptoPP@@QAE@XZ
_TEXT	SEGMENT
??0?$BlockCipherFinal@$0A@VBase@DES_XEX3@CryptoPP@@@CryptoPP@@QAE@XZ PROC ; CryptoPP::BlockCipherFinal<0,CryptoPP::DES_XEX3::Base>::BlockCipherFinal<0,CryptoPP::DES_XEX3::Base>, COMDAT
; _this$ = ecx

; 154  :  	BlockCipherFinal() {}

  00000	56		 push	 esi
  00001	57		 push	 edi
  00002	8b f1		 mov	 esi, ecx
  00004	6a 01		 push	 1
  00006	8d 4e 04	 lea	 ecx, DWORD PTR [esi+4]
  00009	e8 00 00 00 00	 call	 ??0Algorithm@CryptoPP@@QAE@_N@Z ; CryptoPP::Algorithm::Algorithm
