; Listing generated by Microsoft (R) Optimizing Compiler Version 16.00.40219.01 

	TITLE	C:\muserver_dev\development\MU-S8EP2-Repack\GameServer\Source\SkillDelay.cpp
	.686P
	.XMM
	include listing.inc
	.model	flat

INCLUDELIB LIBCMT
INCLUDELIB OLDNAMES

PUBLIC	??_7CSkillDelay@@6B@				; CSkillDelay::`vftable'
PUBLIC	??1CSkillDelay@@UAE@XZ				; CSkillDelay::~CSkillDelay
PUBLIC	??_R4CSkillDelay@@6B@				; CSkillDelay::`RTTI Complete Object Locator'
PUBLIC	??_R0?AVCSkillDelay@@@8				; CSkillDelay `RTTI Type Descriptor'
PUBLIC	??_R3CSkillDelay@@8				; CSkillDelay::`RTTI Class Hierarchy Descriptor'
PUBLIC	??_R2CSkillDelay@@8				; CSkillDelay::`RTTI Base Class Array'
PUBLIC	??_R1A@?0A@EA@CSkillDelay@@8			; CSkillDelay::`RTTI Base Class Descriptor at (0,-1,0,64)'
EXTRN	??_7type_info@@6B@:QWORD			; type_info::`vftable'
EXTRN	??_ECSkillDelay@@UAEPAXI@Z:PROC			; CSkillDelay::`vector deleting destructor'
;	COMDAT ??_R1A@?0A@EA@CSkillDelay@@8
; File c:\muserver_dev\development\mu-s8ep2-repack\gameserver\source\skilldelay.cpp
rdata$r	SEGMENT
??_R1A@?0A@EA@CSkillDelay@@8 DD FLAT:??_R0?AVCSkillDelay@@@8 ; CSkillDelay::`RTTI Base Class Descriptor at (0,-1,0,64)'
	DD	00H
	DD	00H
	DD	0ffffffffH
	DD	00H
	DD	040H
	DD	FLAT:??_R3CSkillDelay@@8
rdata$r	ENDS
;	COMDAT ??_R2CSkillDelay@@8
rdata$r	SEGMENT
??_R2CSkillDelay@@8 DD FLAT:??_R1A@?0A@EA@CSkillDelay@@8 ; CSkillDelay::`RTTI Base Class Array'
rdata$r	ENDS
;	COMDAT ??_R3CSkillDelay@@8
rdata$r	SEGMENT
??_R3CSkillDelay@@8 DD 00H				; CSkillDelay::`RTTI Class Hierarchy Descriptor'
	DD	00H
	DD	01H
	DD	FLAT:??_R2CSkillDelay@@8
rdata$r	ENDS
;	COMDAT ??_R0?AVCSkillDelay@@@8
_DATA	SEGMENT
??_R0?AVCSkillDelay@@@8 DD FLAT:??_7type_info@@6B@	; CSkillDelay `RTTI Type Descriptor'
	DD	00H
	DB	'.?AVCSkillDelay@@', 00H
_DATA	ENDS
;	COMDAT ??_R4CSkillDelay@@6B@
rdata$r	SEGMENT
??_R4CSkillDelay@@6B@ DD 00H				; CSkillDelay::`RTTI Complete Object Locator'
	DD	00H
	DD	00H
	DD	FLAT:??_R0?AVCSkillDelay@@@8
	DD	FLAT:??_R3CSkillDelay@@8
rdata$r	ENDS
;	COMDAT ??_7CSkillDelay@@6B@
CONST	SEGMENT
??_7CSkillDelay@@6B@ DD FLAT:??_R4CSkillDelay@@6B@	; CSkillDelay::`vftable'
	DD	FLAT:??_ECSkillDelay@@UAEPAXI@Z
; Function compile flags: /Ogtp
CONST	ENDS
;	COMDAT ??1CSkillDelay@@UAE@XZ
_TEXT	SEGMENT
??1CSkillDelay@@UAE@XZ PROC				; CSkillDelay::~CSkillDelay, COMDAT
; _this$ = ecx

; 18   : {

  00000	c7 01 00 00 00
	00		 mov	 DWORD PTR [ecx], OFFSET ??_7CSkillDelay@@6B@

; 19   : 	return;
; 20   : }

  00006	c3		 ret	 0
??1CSkillDelay@@UAE@XZ ENDP				; CSkillDelay::~CSkillDelay
_TEXT	ENDS
PUBLIC	?Init@CSkillDelay@@QAEXXZ			; CSkillDelay::Init
EXTRN	_memset:PROC
; Function compile flags: /Ogtp
;	COMDAT ?Init@CSkillDelay@@QAEXXZ
_TEXT	SEGMENT
?Init@CSkillDelay@@QAEXXZ PROC				; CSkillDelay::Init, COMDAT
; _this$ = ecx

; 25   : 	memset(this->LastSkillUseTime, 0, sizeof(this->LastSkillUseTime) );

  00000	68 28 0a 00 00	 push	 2600			; 00000a28H
  00005	83 c1 04	 add	 ecx, 4
  00008	6a 00		 push	 0
  0000a	51		 push	 ecx
  0000b	e8 00 00 00 00	 call	 _memset
  00010	83 c4 0c	 add	 esp, 12			; 0000000cH

; 26   : }

  00013	c3		 ret	 0
?Init@CSkillDelay@@QAEXXZ ENDP				; CSkillDelay::Init
_TEXT	ENDS
PUBLIC	?Check@CSkillDelay@@QAEHE@Z			; CSkillDelay::Check
; Function compile flags: /Ogtp
;	COMDAT ?Check@CSkillDelay@@QAEHE@Z
_TEXT	SEGMENT
_skill$ = 8						; size = 1
?Check@CSkillDelay@@QAEHE@Z PROC			; CSkillDelay::Check, COMDAT
; _this$ = ecx

; 32   : 	int skilldelaytime;
; 33   : 	DWORD dwtime;
; 34   : 	return 1;

  00000	b8 01 00 00 00	 mov	 eax, 1

; 35   : }

  00005	c2 04 00	 ret	 4
?Check@CSkillDelay@@QAEHE@Z ENDP			; CSkillDelay::Check
_TEXT	ENDS
PUBLIC	??0CSkillDelay@@QAE@XZ				; CSkillDelay::CSkillDelay
; Function compile flags: /Ogtp
;	COMDAT ??0CSkillDelay@@QAE@XZ
_TEXT	SEGMENT
??0CSkillDelay@@QAE@XZ PROC				; CSkillDelay::CSkillDelay, COMDAT
; _this$ = ecx

; 12   : {

  00000	56		 push	 esi
  00001	8b f1		 mov	 esi, ecx
  00003	c7 06 00 00 00
	00		 mov	 DWORD PTR [esi], OFFSET ??_7CSkillDelay@@6B@

; 13   : 	this->Init();

  00009	e8 00 00 00 00	 call	 ?Init@CSkillDelay@@QAEXXZ ; CSkillDelay::Init

; 14   : }

  0000e	8b c6		 mov	 eax, esi
  00010	5e		 pop	 esi
  00011	c3		 ret	 0
??0CSkillDelay@@QAE@XZ ENDP				; CSkillDelay::CSkillDelay
_TEXT	ENDS
EXTRN	??3@YAXPAX@Z:PROC				; operator delete
; Function compile flags: /Ogtp
;	COMDAT ??_GCSkillDelay@@UAEPAXI@Z
_TEXT	SEGMENT
___flags$ = 8						; size = 4
??_GCSkillDelay@@UAEPAXI@Z PROC				; CSkillDelay::`scalar deleting destructor', COMDAT
; _this$ = ecx
  00000	55		 push	 ebp
  00001	8b ec		 mov	 ebp, esp
  00003	56		 push	 esi
  00004	8b f1		 mov	 esi, ecx
  00006	e8 00 00 00 00	 call	 ??1CSkillDelay@@UAE@XZ	; CSkillDelay::~CSkillDelay
  0000b	f6 45 08 01	 test	 BYTE PTR ___flags$[ebp], 1
  0000f	74 09		 je	 SHORT $LN4@scalar
  00011	56		 push	 esi
  00012	e8 00 00 00 00	 call	 ??3@YAXPAX@Z		; operator delete
  00017	83 c4 04	 add	 esp, 4
$LN4@scalar:
  0001a	8b c6		 mov	 eax, esi
  0001c	5e		 pop	 esi
  0001d	5d		 pop	 ebp
  0001e	c2 04 00	 ret	 4
??_GCSkillDelay@@UAEPAXI@Z ENDP				; CSkillDelay::`scalar deleting destructor'
_TEXT	ENDS
END
