; Listing generated by Microsoft (R) Optimizing Compiler Version 16.00.40219.01 

	TITLE	C:\muserver_dev\development\MU-S8EP2-Repack\GameServer\Source\TMonsterAIGroupMember.cpp
	.686P
	.XMM
	include listing.inc
	.model	flat

INCLUDELIB LIBCMT
INCLUDELIB OLDNAMES

PUBLIC	??_7TMonsterAIGroupMember@@6B@			; TMonsterAIGroupMember::`vftable'
PUBLIC	??1TMonsterAIGroupMember@@UAE@XZ		; TMonsterAIGroupMember::~TMonsterAIGroupMember
PUBLIC	??_R4TMonsterAIGroupMember@@6B@			; TMonsterAIGroupMember::`RTTI Complete Object Locator'
PUBLIC	??_R0?AVTMonsterAIGroupMember@@@8		; TMonsterAIGroupMember `RTTI Type Descriptor'
PUBLIC	??_R3TMonsterAIGroupMember@@8			; TMonsterAIGroupMember::`RTTI Class Hierarchy Descriptor'
PUBLIC	??_R2TMonsterAIGroupMember@@8			; TMonsterAIGroupMember::`RTTI Base Class Array'
PUBLIC	??_R1A@?0A@EA@TMonsterAIGroupMember@@8		; TMonsterAIGroupMember::`RTTI Base Class Descriptor at (0,-1,0,64)'
EXTRN	??_7type_info@@6B@:QWORD			; type_info::`vftable'
EXTRN	??_ETMonsterAIGroupMember@@UAEPAXI@Z:PROC	; TMonsterAIGroupMember::`vector deleting destructor'
;	COMDAT ??_R1A@?0A@EA@TMonsterAIGroupMember@@8
; File c:\muserver_dev\development\mu-s8ep2-repack\gameserver\source\tmonsteraigroupmember.cpp
rdata$r	SEGMENT
??_R1A@?0A@EA@TMonsterAIGroupMember@@8 DD FLAT:??_R0?AVTMonsterAIGroupMember@@@8 ; TMonsterAIGroupMember::`RTTI Base Class Descriptor at (0,-1,0,64)'
	DD	00H
	DD	00H
	DD	0ffffffffH
	DD	00H
	DD	040H
	DD	FLAT:??_R3TMonsterAIGroupMember@@8
rdata$r	ENDS
;	COMDAT ??_R2TMonsterAIGroupMember@@8
rdata$r	SEGMENT
??_R2TMonsterAIGroupMember@@8 DD FLAT:??_R1A@?0A@EA@TMonsterAIGroupMember@@8 ; TMonsterAIGroupMember::`RTTI Base Class Array'
rdata$r	ENDS
;	COMDAT ??_R3TMonsterAIGroupMember@@8
rdata$r	SEGMENT
??_R3TMonsterAIGroupMember@@8 DD 00H			; TMonsterAIGroupMember::`RTTI Class Hierarchy Descriptor'
	DD	00H
	DD	01H
	DD	FLAT:??_R2TMonsterAIGroupMember@@8
rdata$r	ENDS
;	COMDAT ??_R0?AVTMonsterAIGroupMember@@@8
_DATA	SEGMENT
??_R0?AVTMonsterAIGroupMember@@@8 DD FLAT:??_7type_info@@6B@ ; TMonsterAIGroupMember `RTTI Type Descriptor'
	DD	00H
	DB	'.?AVTMonsterAIGroupMember@@', 00H
_DATA	ENDS
;	COMDAT ??_R4TMonsterAIGroupMember@@6B@
rdata$r	SEGMENT
??_R4TMonsterAIGroupMember@@6B@ DD 00H			; TMonsterAIGroupMember::`RTTI Complete Object Locator'
	DD	00H
	DD	00H
	DD	FLAT:??_R0?AVTMonsterAIGroupMember@@@8
	DD	FLAT:??_R3TMonsterAIGroupMember@@8
rdata$r	ENDS
;	COMDAT ??_7TMonsterAIGroupMember@@6B@
CONST	SEGMENT
??_7TMonsterAIGroupMember@@6B@ DD FLAT:??_R4TMonsterAIGroupMember@@6B@ ; TMonsterAIGroupMember::`vftable'
	DD	FLAT:??_ETMonsterAIGroupMember@@UAEPAXI@Z
; Function compile flags: /Ogtp
CONST	ENDS
;	COMDAT ??1TMonsterAIGroupMember@@UAE@XZ
_TEXT	SEGMENT
??1TMonsterAIGroupMember@@UAE@XZ PROC			; TMonsterAIGroupMember::~TMonsterAIGroupMember, COMDAT
; _this$ = ecx

; 18   : {

  00000	c7 01 00 00 00
	00		 mov	 DWORD PTR [ecx], OFFSET ??_7TMonsterAIGroupMember@@6B@

; 19   : 	return;
; 20   : }

  00006	c3		 ret	 0
??1TMonsterAIGroupMember@@UAE@XZ ENDP			; TMonsterAIGroupMember::~TMonsterAIGroupMember
_TEXT	ENDS
PUBLIC	?Reset@TMonsterAIGroupMember@@QAEXXZ		; TMonsterAIGroupMember::Reset
; Function compile flags: /Ogtp
;	COMDAT ?Reset@TMonsterAIGroupMember@@QAEXXZ
_TEXT	SEGMENT
?Reset@TMonsterAIGroupMember@@QAEXXZ PROC		; TMonsterAIGroupMember::Reset, COMDAT
; _this$ = ecx

; 26   : 	this->m_iGroupNumber = -1;

  00000	83 c8 ff	 or	 eax, -1

; 27   : 	this->m_iGuid = -1;
; 28   : 	this->m_iClass = -1;
; 29   : 	this->m_iRank = -1;
; 30   : 	this->m_iStartAI = 0;

  00003	33 d2		 xor	 edx, edx
  00005	89 41 04	 mov	 DWORD PTR [ecx+4], eax
  00008	89 41 08	 mov	 DWORD PTR [ecx+8], eax
  0000b	89 41 0c	 mov	 DWORD PTR [ecx+12], eax
  0000e	89 41 10	 mov	 DWORD PTR [ecx+16], eax
  00011	89 51 14	 mov	 DWORD PTR [ecx+20], edx

; 31   : 	this->m_iAI01 = 0;

  00014	89 51 18	 mov	 DWORD PTR [ecx+24], edx

; 32   : 	this->m_iAI02 = 0;

  00017	89 51 1c	 mov	 DWORD PTR [ecx+28], edx

; 33   : 	this->m_iAI03 = 0;

  0001a	89 51 20	 mov	 DWORD PTR [ecx+32], edx

; 34   : 	this->m_iCreateType = -1;

  0001d	89 41 24	 mov	 DWORD PTR [ecx+36], eax

; 35   : 	this->m_iMapNumber = -1;

  00020	89 41 28	 mov	 DWORD PTR [ecx+40], eax

; 36   : 	this->m_iStartX = -1;

  00023	89 41 2c	 mov	 DWORD PTR [ecx+44], eax

; 37   : 	this->m_iStartY = -1;

  00026	89 41 30	 mov	 DWORD PTR [ecx+48], eax

; 38   : 	this->m_iStartDir = -1;

  00029	89 41 34	 mov	 DWORD PTR [ecx+52], eax

; 39   : 	this->m_iRegenType = -1;

  0002c	89 41 38	 mov	 DWORD PTR [ecx+56], eax

; 40   : 	this->m_iObjIndex = -1;

  0002f	89 41 3c	 mov	 DWORD PTR [ecx+60], eax

; 41   : }

  00032	c3		 ret	 0
?Reset@TMonsterAIGroupMember@@QAEXXZ ENDP		; TMonsterAIGroupMember::Reset
_TEXT	ENDS
PUBLIC	??0TMonsterAIGroupMember@@QAE@XZ		; TMonsterAIGroupMember::TMonsterAIGroupMember
; Function compile flags: /Ogtp
;	COMDAT ??0TMonsterAIGroupMember@@QAE@XZ
_TEXT	SEGMENT
??0TMonsterAIGroupMember@@QAE@XZ PROC			; TMonsterAIGroupMember::TMonsterAIGroupMember, COMDAT
; _this$ = ecx

; 13   : {

  00000	c7 01 00 00 00
	00		 mov	 DWORD PTR [ecx], OFFSET ??_7TMonsterAIGroupMember@@6B@

; 14   : 	this->Reset();

  00006	e8 00 00 00 00	 call	 ?Reset@TMonsterAIGroupMember@@QAEXXZ ; TMonsterAIGroupMember::Reset

; 15   : }

  0000b	8b c1		 mov	 eax, ecx
  0000d	c3		 ret	 0
??0TMonsterAIGroupMember@@QAE@XZ ENDP			; TMonsterAIGroupMember::TMonsterAIGroupMember
_TEXT	ENDS
EXTRN	??3@YAXPAX@Z:PROC				; operator delete
; Function compile flags: /Ogtp
;	COMDAT ??_GTMonsterAIGroupMember@@UAEPAXI@Z
_TEXT	SEGMENT
___flags$ = 8						; size = 4
??_GTMonsterAIGroupMember@@UAEPAXI@Z PROC		; TMonsterAIGroupMember::`scalar deleting destructor', COMDAT
; _this$ = ecx
  00000	55		 push	 ebp
  00001	8b ec		 mov	 ebp, esp
  00003	56		 push	 esi
  00004	8b f1		 mov	 esi, ecx
  00006	e8 00 00 00 00	 call	 ??1TMonsterAIGroupMember@@UAE@XZ ; TMonsterAIGroupMember::~TMonsterAIGroupMember
  0000b	f6 45 08 01	 test	 BYTE PTR ___flags$[ebp], 1
  0000f	74 09		 je	 SHORT $LN4@scalar
  00011	56		 push	 esi
  00012	e8 00 00 00 00	 call	 ??3@YAXPAX@Z		; operator delete
  00017	83 c4 04	 add	 esp, 4
$LN4@scalar:
  0001a	8b c6		 mov	 eax, esi
  0001c	5e		 pop	 esi
  0001d	5d		 pop	 ebp
  0001e	c2 04 00	 ret	 4
??_GTMonsterAIGroupMember@@UAEPAXI@Z ENDP		; TMonsterAIGroupMember::`scalar deleting destructor'
_TEXT	ENDS
END
