; Listing generated by Microsoft (R) Optimizing Compiler Version 16.00.40219.01 

	TITLE	C:\muserver_dev\development\MU-S8EP2-Repack\GameServer\common\TSync.cpp
	.686P
	.XMM
	include listing.inc
	.model	flat

INCLUDELIB LIBCMT
INCLUDELIB OLDNAMES

PUBLIC	??0TSync@@QAE@XZ				; TSync::TSync
EXTRN	__imp__InitializeCriticalSection@4:PROC
; Function compile flags: /Ogtp
; File c:\muserver_dev\development\mu-s8ep2-repack\gameserver\common\tsync.cpp
;	COMDAT ??0TSync@@QAE@XZ
_TEXT	SEGMENT
??0TSync@@QAE@XZ PROC					; TSync::TSync, COMDAT
; _this$ = ecx

; 13   : {

  00000	56		 push	 esi
  00001	8b f1		 mov	 esi, ecx

; 14   : 	this->m_nLock=0;
; 15   : 	InitializeCriticalSection(&this->m_cs);

  00003	56		 push	 esi
  00004	c7 46 18 00 00
	00 00		 mov	 DWORD PTR [esi+24], 0
  0000b	ff 15 00 00 00
	00		 call	 DWORD PTR __imp__InitializeCriticalSection@4

; 16   : }

  00011	8b c6		 mov	 eax, esi
  00013	5e		 pop	 esi
  00014	c3		 ret	 0
??0TSync@@QAE@XZ ENDP					; TSync::TSync
_TEXT	ENDS
PUBLIC	??1TSync@@QAE@XZ				; TSync::~TSync
EXTRN	__imp__DeleteCriticalSection@4:PROC
; Function compile flags: /Ogtp
;	COMDAT ??1TSync@@QAE@XZ
_TEXT	SEGMENT
??1TSync@@QAE@XZ PROC					; TSync::~TSync, COMDAT
; _this$ = ecx

; 20   : 	DeleteCriticalSection(&this->m_cs);

  00000	51		 push	 ecx
  00001	ff 15 00 00 00
	00		 call	 DWORD PTR __imp__DeleteCriticalSection@4

; 21   : }

  00007	c3		 ret	 0
??1TSync@@QAE@XZ ENDP					; TSync::~TSync
_TEXT	ENDS
PUBLIC	?Lock@TSync@@QAEXXZ				; TSync::Lock
EXTRN	__imp__InterlockedIncrement@4:PROC
EXTRN	__imp__EnterCriticalSection@4:PROC
; Function compile flags: /Ogtp
;	COMDAT ?Lock@TSync@@QAEXXZ
_TEXT	SEGMENT
?Lock@TSync@@QAEXXZ PROC				; TSync::Lock, COMDAT
; _this$ = ecx

; 24   : {

  00000	56		 push	 esi
  00001	8b f1		 mov	 esi, ecx

; 25   : 	EnterCriticalSection(&this->m_cs);

  00003	56		 push	 esi
  00004	ff 15 00 00 00
	00		 call	 DWORD PTR __imp__EnterCriticalSection@4

; 26   : 	InterlockedIncrement(&this->m_nLock);

  0000a	83 c6 18	 add	 esi, 24			; 00000018H
  0000d	56		 push	 esi
  0000e	ff 15 00 00 00
	00		 call	 DWORD PTR __imp__InterlockedIncrement@4
  00014	5e		 pop	 esi

; 27   : }

  00015	c3		 ret	 0
?Lock@TSync@@QAEXXZ ENDP				; TSync::Lock
_TEXT	ENDS
PUBLIC	?Unlock@TSync@@QAEXXZ				; TSync::Unlock
EXTRN	__imp__LeaveCriticalSection@4:PROC
EXTRN	__imp__InterlockedDecrement@4:PROC
; Function compile flags: /Ogtp
;	COMDAT ?Unlock@TSync@@QAEXXZ
_TEXT	SEGMENT
?Unlock@TSync@@QAEXXZ PROC				; TSync::Unlock, COMDAT
; _this$ = ecx

; 30   : {

  00000	56		 push	 esi
  00001	8b f1		 mov	 esi, ecx

; 31   : 	long nResult=InterlockedDecrement(&this->m_nLock );

  00003	8d 46 18	 lea	 eax, DWORD PTR [esi+24]
  00006	50		 push	 eax
  00007	ff 15 00 00 00
	00		 call	 DWORD PTR __imp__InterlockedDecrement@4

; 32   : 	LeaveCriticalSection(&this->m_cs );

  0000d	56		 push	 esi
  0000e	ff 15 00 00 00
	00		 call	 DWORD PTR __imp__LeaveCriticalSection@4
  00014	5e		 pop	 esi

; 33   : }

  00015	c3		 ret	 0
?Unlock@TSync@@QAEXXZ ENDP				; TSync::Unlock
_TEXT	ENDS
END
