; Listing generated by Microsoft (R) Optimizing Compiler Version 16.00.40219.01 

	TITLE	C:\muserver_dev\development\MU-S8EP2-Repack\GameServer\Source\TUnion.cpp
	.686P
	.XMM
	include listing.inc
	.model	flat

INCLUDELIB LIBCMT
INCLUDELIB OLDNAMES

PUBLIC	??2@YAPAXIPAX@Z					; operator new
; Function compile flags: /Ogtp
; File c:\program files (x86)\microsoft visual studio 10.0\vc\include\new.h
;	COMDAT ??2@YAPAXIPAX@Z
_TEXT	SEGMENT
___formal$ = 8						; size = 4
__Where$ = 12						; size = 4
??2@YAPAXIPAX@Z PROC					; operator new, COMDAT

; 81   :         {return (_Where); }

  00000	55		 push	 ebp
  00001	8b ec		 mov	 ebp, esp
  00003	8b 45 0c	 mov	 eax, DWORD PTR __Where$[ebp]
  00006	5d		 pop	 ebp
  00007	c3		 ret	 0
??2@YAPAXIPAX@Z ENDP					; operator new
_TEXT	ENDS
PUBLIC	??3@YAXPAX0@Z					; operator delete
; Function compile flags: /Ogtp
;	COMDAT ??3@YAXPAX0@Z
_TEXT	SEGMENT
___formal$ = 8						; size = 4
___formal$ = 12						; size = 4
??3@YAXPAX0@Z PROC					; operator delete, COMDAT

; 83   :         {return; }

  00000	c3		 ret	 0
??3@YAXPAX0@Z ENDP					; operator delete
_TEXT	ENDS
PUBLIC	?size@?$vector@HV?$allocator@H@std@@@std@@QBEIXZ ; std::vector<int,std::allocator<int> >::size
; Function compile flags: /Ogtp
; File c:\program files (x86)\microsoft visual studio 10.0\vc\include\vector
;	COMDAT ?size@?$vector@HV?$allocator@H@std@@@std@@QBEIXZ
_TEXT	SEGMENT
?size@?$vector@HV?$allocator@H@std@@@std@@QBEIXZ PROC	; std::vector<int,std::allocator<int> >::size, COMDAT
; _this$ = ecx

; 879  : 		return (this->_Mylast - this->_Myfirst);

  00000	8b 41 04	 mov	 eax, DWORD PTR [ecx+4]
  00003	2b 01		 sub	 eax, DWORD PTR [ecx]
  00005	c1 f8 02	 sar	 eax, 2

; 880  : 		}

  00008	c3		 ret	 0
?size@?$vector@HV?$allocator@H@std@@@std@@QBEIXZ ENDP	; std::vector<int,std::allocator<int> >::size
_TEXT	ENDS
PUBLIC	??A?$vector@HV?$allocator@H@std@@@std@@QAEAAHI@Z ; std::vector<int,std::allocator<int> >::operator[]
; Function compile flags: /Ogtp
;	COMDAT ??A?$vector@HV?$allocator@H@std@@@std@@QAEAAHI@Z
_TEXT	SEGMENT
__Pos$ = 8						; size = 4
??A?$vector@HV?$allocator@H@std@@@std@@QAEAAHI@Z PROC	; std::vector<int,std::allocator<int> >::operator[], COMDAT
; _this$ = ecx

; 928  : 		{	// subscript mutable sequence

  00000	55		 push	 ebp
  00001	8b ec		 mov	 ebp, esp

; 929  :  #if _ITERATOR_DEBUG_LEVEL == 2
; 930  : 		if (size() <= _Pos)
; 931  : 			{	// report error
; 932  : 			_DEBUG_ERROR("vector subscript out of range");
; 933  : 			_SCL_SECURE_OUT_OF_RANGE;
; 934  : 			}
; 935  : 
; 936  :  #elif _ITERATOR_DEBUG_LEVEL == 1
; 937  : 		_SCL_SECURE_VALIDATE_RANGE(_Pos < size());
; 938  :  #endif /* _ITERATOR_DEBUG_LEVEL */
; 939  : 
; 940  : 		return (*(this->_Myfirst + _Pos));

  00003	8b 01		 mov	 eax, DWORD PTR [ecx]
  00005	8b 4d 08	 mov	 ecx, DWORD PTR __Pos$[ebp]
  00008	8d 04 88	 lea	 eax, DWORD PTR [eax+ecx*4]

; 941  : 		}

  0000b	5d		 pop	 ebp
  0000c	c2 04 00	 ret	 4
??A?$vector@HV?$allocator@H@std@@@std@@QAEAAHI@Z ENDP	; std::vector<int,std::allocator<int> >::operator[]
_TEXT	ENDS
PUBLIC	?_Inside@?$vector@HV?$allocator@H@std@@@std@@IBE_NPBH@Z ; std::vector<int,std::allocator<int> >::_Inside
; Function compile flags: /Ogtp
;	COMDAT ?_Inside@?$vector@HV?$allocator@H@std@@@std@@IBE_NPBH@Z
_TEXT	SEGMENT
__Ptr$ = 8						; size = 4
?_Inside@?$vector@HV?$allocator@H@std@@@std@@IBE_NPBH@Z PROC ; std::vector<int,std::allocator<int> >::_Inside, COMDAT
; _this$ = ecx

; 1285 : 		{	// test if _Ptr points inside vector

  00000	55		 push	 ebp
  00001	8b ec		 mov	 ebp, esp

; 1286 : 		return (_Ptr < this->_Mylast && this->_Myfirst <= _Ptr);

  00003	8b 45 08	 mov	 eax, DWORD PTR __Ptr$[ebp]
  00006	3b 41 04	 cmp	 eax, DWORD PTR [ecx+4]
  00009	73 0d		 jae	 SHORT $LN3@Inside
  0000b	39 01		 cmp	 DWORD PTR [ecx], eax
  0000d	77 09		 ja	 SHORT $LN3@Inside
  0000f	b8 01 00 00 00	 mov	 eax, 1

; 1287 : 		}

  00014	5d		 pop	 ebp
  00015	c2 04 00	 ret	 4
$LN3@Inside:

; 1286 : 		return (_Ptr < this->_Mylast && this->_Myfirst <= _Ptr);

  00018	33 c0		 xor	 eax, eax

; 1287 : 		}

  0001a	5d		 pop	 ebp
  0001b	c2 04 00	 ret	 4
?_Inside@?$vector@HV?$allocator@H@std@@@std@@IBE_NPBH@Z ENDP ; std::vector<int,std::allocator<int> >::_Inside
_TEXT	ENDS
PUBLIC	?_Orphan_range@?$vector@HV?$allocator@H@std@@@std@@IBEXPAH0@Z ; std::vector<int,std::allocator<int> >::_Orphan_range
; Function compile flags: /Ogtp
;	COMDAT ?_Orphan_range@?$vector@HV?$allocator@H@std@@@std@@IBEXPAH0@Z
_TEXT	SEGMENT
___formal$ = 8						; size = 4
___formal$ = 12						; size = 4
?_Orphan_range@?$vector@HV?$allocator@H@std@@@std@@IBEXPAH0@Z PROC ; std::vector<int,std::allocator<int> >::_Orphan_range, COMDAT
; _this$ = ecx

; 1454 : 		}

  00000	c2 08 00	 ret	 8
?_Orphan_range@?$vector@HV?$allocator@H@std@@@std@@IBEXPAH0@Z ENDP ; std::vector<int,std::allocator<int> >::_Orphan_range
_TEXT	ENDS
PUBLIC	??0?$allocator@U?$pair@$$CBHPAVTUnionInfo@@@std@@@std@@QAE@XZ ; std::allocator<std::pair<int const ,TUnionInfo *> >::allocator<std::pair<int const ,TUnionInfo *> >
; Function compile flags: /Ogtp
; File c:\program files (x86)\microsoft visual studio 10.0\vc\include\xmemory
;	COMDAT ??0?$allocator@U?$pair@$$CBHPAVTUnionInfo@@@std@@@std@@QAE@XZ
_TEXT	SEGMENT
??0?$allocator@U?$pair@$$CBHPAVTUnionInfo@@@std@@@std@@QAE@XZ PROC ; std::allocator<std::pair<int const ,TUnionInfo *> >::allocator<std::pair<int const ,TUnionInfo *> >, COMDAT
; _this$ = ecx

; 161  : 	_ALLOCATOR() _THROW0()

  00000	8b c1		 mov	 eax, ecx

; 162  : 		{	// construct default allocator (do nothing)
; 163  : 		}

  00002	c3		 ret	 0
??0?$allocator@U?$pair@$$CBHPAVTUnionInfo@@@std@@@std@@QAE@XZ ENDP ; std::allocator<std::pair<int const ,TUnionInfo *> >::allocator<std::pair<int const ,TUnionInfo *> >
_TEXT	ENDS
PUBLIC	??R?$less@H@std@@QBE_NABH0@Z			; std::less<int>::operator()
; Function compile flags: /Ogtp
; File c:\program files (x86)\microsoft visual studio 10.0\vc\include\xfunctional
;	COMDAT ??R?$less@H@std@@QBE_NABH0@Z
_TEXT	SEGMENT
__Left$ = 8						; size = 4
__Right$ = 12						; size = 4
??R?$less@H@std@@QBE_NABH0@Z PROC			; std::less<int>::operator(), COMDAT
; _this$ = ecx

; 124  : 		{	// apply operator< to operands

  00000	55		 push	 ebp
  00001	8b ec		 mov	 ebp, esp

; 125  : 		return (_Left < _Right);

  00003	8b 45 08	 mov	 eax, DWORD PTR __Left$[ebp]
  00006	8b 08		 mov	 ecx, DWORD PTR [eax]
  00008	8b 55 0c	 mov	 edx, DWORD PTR __Right$[ebp]
  0000b	33 c0		 xor	 eax, eax
  0000d	3b 0a		 cmp	 ecx, DWORD PTR [edx]
  0000f	0f 9c c0	 setl	 al

; 126  : 		}

  00012	5d		 pop	 ebp
  00013	c2 08 00	 ret	 8
??R?$less@H@std@@QBE_NABH0@Z ENDP			; std::less<int>::operator()
_TEXT	ENDS
PUBLIC	??8?$_Tree_const_iterator@V?$_Tree_val@V?$_Tmap_traits@HPAVTUnionInfo@@U?$less@H@std@@V?$allocator@U?$pair@$$CBHPAVTUnionInfo@@@std@@@3@$0A@@std@@@std@@@std@@QBE_NABV01@@Z ; std::_Tree_const_iterator<std::_Tree_val<std::_Tmap_traits<int,TUnionInfo *,std::less<int>,std::allocator<std::pair<int const ,TUnionInfo *> >,0> > >::operator==
; Function compile flags: /Ogtp
; File c:\program files (x86)\microsoft visual studio 10.0\vc\include\xtree
;	COMDAT ??8?$_Tree_const_iterator@V?$_Tree_val@V?$_Tmap_traits@HPAVTUnionInfo@@U?$less@H@std@@V?$allocator@U?$pair@$$CBHPAVTUnionInfo@@@std@@@3@$0A@@std@@@std@@@std@@QBE_NABV01@@Z
_TEXT	SEGMENT
__Right$ = 8						; size = 4
??8?$_Tree_const_iterator@V?$_Tree_val@V?$_Tmap_traits@HPAVTUnionInfo@@U?$less@H@std@@V?$allocator@U?$pair@$$CBHPAVTUnionInfo@@@std@@@3@$0A@@std@@@std@@@std@@QBE_NABV01@@Z PROC ; std::_Tree_const_iterator<std::_Tree_val<std::_Tmap_traits<int,TUnionInfo *,std::less<int>,std::allocator<std::pair<int const ,TUnionInfo *> >,0> > >::operator==, COMDAT
; _this$ = ecx

; 316  : 		{	// test for iterator equality

  00000	55		 push	 ebp
  00001	8b ec		 mov	 ebp, esp

; 317  :  #if _ITERATOR_DEBUG_LEVEL == 2
; 318  : 		if (this->_Getcont() == 0
; 319  : 			|| this->_Getcont() != _Right._Getcont())
; 320  : 			{	// report error
; 321  : 			_DEBUG_ERROR("map/set iterators incompatible");
; 322  : 			_SCL_SECURE_INVALID_ARGUMENT;
; 323  : 			}
; 324  : 
; 325  :  #elif _ITERATOR_DEBUG_LEVEL == 1
; 326  : 		_SCL_SECURE_VALIDATE(this->_Getcont() != 0
; 327  : 			&& this->_Getcont() == _Right._Getcont());
; 328  :  #endif /* _ITERATOR_DEBUG_LEVEL */
; 329  : 
; 330  : 		return (this->_Ptr == _Right._Ptr);

  00003	8b 01		 mov	 eax, DWORD PTR [ecx]
  00005	8b 55 08	 mov	 edx, DWORD PTR __Right$[ebp]
  00008	33 c9		 xor	 ecx, ecx
  0000a	3b 02		 cmp	 eax, DWORD PTR [edx]
  0000c	0f 94 c0	 sete	 al

; 331  : 		}

  0000f	5d		 pop	 ebp
  00010	c2 04 00	 ret	 4
??8?$_Tree_const_iterator@V?$_Tree_val@V?$_Tmap_traits@HPAVTUnionInfo@@U?$less@H@std@@V?$allocator@U?$pair@$$CBHPAVTUnionInfo@@@std@@@3@$0A@@std@@@std@@@std@@QBE_NABV01@@Z ENDP ; std::_Tree_const_iterator<std::_Tree_val<std::_Tmap_traits<int,TUnionInfo *,std::less<int>,std::allocator<std::pair<int const ,TUnionInfo *> >,0> > >::operator==
_TEXT	ENDS
PUBLIC	?_Mynode@?$_Tree_unchecked_const_iterator@V?$_Tree_val@V?$_Tmap_traits@HPAVTUnionInfo@@U?$less@H@std@@V?$allocator@U?$pair@$$CBHPAVTUnionInfo@@@std@@@3@$0A@@std@@@std@@U_Iterator_base0@2@@std@@QBEPAU_Node@?$_Tree_nod@V?$_Tmap_traits@HPAVTUnionInfo@@U?$less@H@std@@V?$allocator@U?$pair@$$CBHPAVTUnionInfo@@@std@@@3@$0A@@std@@@2@XZ ; std::_Tree_unchecked_const_iterator<std::_Tree_val<std::_Tmap_traits<int,TUnionInfo *,std::less<int>,std::allocator<std::pair<int const ,TUnionInfo *> >,0> >,std::_Iterator_base0>::_Mynode
; Function compile flags: /Ogtp
;	COMDAT ?_Mynode@?$_Tree_unchecked_const_iterator@V?$_Tree_val@V?$_Tmap_traits@HPAVTUnionInfo@@U?$less@H@std@@V?$allocator@U?$pair@$$CBHPAVTUnionInfo@@@std@@@3@$0A@@std@@@std@@U_Iterator_base0@2@@std@@QBEPAU_Node@?$_Tree_nod@V?$_Tmap_traits@HPAVTUnionInfo@@U?$less@H@std@@V?$allocator@U?$pair@$$CBHPAVTUnionInfo@@@std@@@3@$0A@@std@@@2@XZ
_TEXT	SEGMENT
?_Mynode@?$_Tree_unchecked_const_iterator@V?$_Tree_val@V?$_Tmap_traits@HPAVTUnionInfo@@U?$less@H@std@@V?$allocator@U?$pair@$$CBHPAVTUnionInfo@@@std@@@3@$0A@@std@@@std@@U_Iterator_base0@2@@std@@QBEPAU_Node@?$_Tree_nod@V?$_Tmap_traits@HPAVTUnionInfo@@U?$less@H@std@@V?$allocator@U?$pair@$$CBHPAVTUnionInfo@@@std@@@3@$0A@@std@@@2@XZ PROC ; std::_Tree_unchecked_const_iterator<std::_Tree_val<std::_Tmap_traits<int,TUnionInfo *,std::less<int>,std::allocator<std::pair<int const ,TUnionInfo *> >,0> >,std::_Iterator_base0>::_Mynode, COMDAT
; _this$ = ecx

; 122  : 		return (_Ptr);

  00000	8b 01		 mov	 eax, DWORD PTR [ecx]

; 123  : 		}

  00002	c3		 ret	 0
?_Mynode@?$_Tree_unchecked_const_iterator@V?$_Tree_val@V?$_Tmap_traits@HPAVTUnionInfo@@U?$less@H@std@@V?$allocator@U?$pair@$$CBHPAVTUnionInfo@@@std@@@3@$0A@@std@@@std@@U_Iterator_base0@2@@std@@QBEPAU_Node@?$_Tree_nod@V?$_Tmap_traits@HPAVTUnionInfo@@U?$less@H@std@@V?$allocator@U?$pair@$$CBHPAVTUnionInfo@@@std@@@3@$0A@@std@@@2@XZ ENDP ; std::_Tree_unchecked_const_iterator<std::_Tree_val<std::_Tmap_traits<int,TUnionInfo *,std::less<int>,std::allocator<std::pair<int const ,TUnionInfo *> >,0> >,std::_Iterator_base0>::_Mynode
_TEXT	ENDS
PUBLIC	?capacity@?$vector@HV?$allocator@H@std@@@std@@QBEIXZ ; std::vector<int,std::allocator<int> >::capacity
; Function compile flags: /Ogtp
; File c:\program files (x86)\microsoft visual studio 10.0\vc\include\vector
;	COMDAT ?capacity@?$vector@HV?$allocator@H@std@@@std@@QBEIXZ
_TEXT	SEGMENT
?capacity@?$vector@HV?$allocator@H@std@@@std@@QBEIXZ PROC ; std::vector<int,std::allocator<int> >::capacity, COMDAT
; _this$ = ecx

; 777  : 		return (this->_Myend - this->_Myfirst);

  00000	8b 41 08	 mov	 eax, DWORD PTR [ecx+8]
  00003	2b 01		 sub	 eax, DWORD PTR [ecx]
  00005	c1 f8 02	 sar	 eax, 2

; 778  : 		}

  00008	c3		 ret	 0
?capacity@?$vector@HV?$allocator@H@std@@@std@@QBEIXZ ENDP ; std::vector<int,std::allocator<int> >::capacity
_TEXT	ENDS
PUBLIC	??_C@_0BD@OLBABOEK@vector?$DMT?$DO?5too?5long?$AA@ ; `string'
PUBLIC	?_Xlen@?$vector@HV?$allocator@H@std@@@std@@IBEXXZ ; std::vector<int,std::allocator<int> >::_Xlen
EXTRN	?_Xlength_error@std@@YAXPBD@Z:PROC		; std::_Xlength_error
;	COMDAT ??_C@_0BD@OLBABOEK@vector?$DMT?$DO?5too?5long?$AA@
CONST	SEGMENT
??_C@_0BD@OLBABOEK@vector?$DMT?$DO?5too?5long?$AA@ DB 'vector<T> too long'
	DB	00H						; `string'
; Function compile flags: /Ogtp
CONST	ENDS
;	COMDAT ?_Xlen@?$vector@HV?$allocator@H@std@@@std@@IBEXXZ
_TEXT	SEGMENT
?_Xlen@?$vector@HV?$allocator@H@std@@@std@@IBEXXZ PROC	; std::vector<int,std::allocator<int> >::_Xlen, COMDAT
; _this$ = ecx

; 1427 : 		_Xlength_error("vector<T> too long");

  00000	68 00 00 00 00	 push	 OFFSET ??_C@_0BD@OLBABOEK@vector?$DMT?$DO?5too?5long?$AA@
  00005	e8 00 00 00 00	 call	 ?_Xlength_error@std@@YAXPBD@Z ; std::_Xlength_error
$LN4@Xlen:
$LN3@Xlen:
  0000a	cc		 int	 3
?_Xlen@?$vector@HV?$allocator@H@std@@@std@@IBEXXZ ENDP	; std::vector<int,std::allocator<int> >::_Xlen
_TEXT	ENDS
PUBLIC	?_Isnil@?$_Tree_val@V?$_Tmap_traits@HPAVTUnionInfo@@U?$less@H@std@@V?$allocator@U?$pair@$$CBHPAVTUnionInfo@@@std@@@3@$0A@@std@@@std@@SAAADPAU_Node@?$_Tree_nod@V?$_Tmap_traits@HPAVTUnionInfo@@U?$less@H@std@@V?$allocator@U?$pair@$$CBHPAVTUnionInfo@@@std@@@3@$0A@@std@@@2@@Z ; std::_Tree_val<std::_Tmap_traits<int,TUnionInfo *,std::less<int>,std::allocator<std::pair<int const ,TUnionInfo *> >,0> >::_Isnil
; Function compile flags: /Ogtp
; File c:\program files (x86)\microsoft visual studio 10.0\vc\include\xtree
;	COMDAT ?_Isnil@?$_Tree_val@V?$_Tmap_traits@HPAVTUnionInfo@@U?$less@H@std@@V?$allocator@U?$pair@$$CBHPAVTUnionInfo@@@std@@@3@$0A@@std@@@std@@SAAADPAU_Node@?$_Tree_nod@V?$_Tmap_traits@HPAVTUnionInfo@@U?$less@H@std@@V?$allocator@U?$pair@$$CBHPAVTUnionInfo@@@std@@@3@$0A@@std@@@2@@Z
_TEXT	SEGMENT
__Pnode$ = 8						; size = 4
?_Isnil@?$_Tree_val@V?$_Tmap_traits@HPAVTUnionInfo@@U?$less@H@std@@V?$allocator@U?$pair@$$CBHPAVTUnionInfo@@@std@@@3@$0A@@std@@@std@@SAAADPAU_Node@?$_Tree_nod@V?$_Tmap_traits@HPAVTUnionInfo@@U?$less@H@std@@V?$allocator@U?$pair@$$CBHPAVTUnionInfo@@@std@@@3@$0A@@std@@@2@@Z PROC ; std::_Tree_val<std::_Tmap_traits<int,TUnionInfo *,std::less<int>,std::allocator<std::pair<int const ,TUnionInfo *> >,0> >::_Isnil, COMDAT

; 611  : 		{	// return reference to nil flag in node

  00000	55		 push	 ebp
  00001	8b ec		 mov	 ebp, esp

; 612  : 		return ((char&)(*_Pnode)._Isnil);

  00003	8b 45 08	 mov	 eax, DWORD PTR __Pnode$[ebp]
  00006	83 c0 15	 add	 eax, 21			; 00000015H

; 613  : 		}

  00009	5d		 pop	 ebp
  0000a	c3		 ret	 0
?_Isnil@?$_Tree_val@V?$_Tmap_traits@HPAVTUnionInfo@@U?$less@H@std@@V?$allocator@U?$pair@$$CBHPAVTUnionInfo@@@std@@@3@$0A@@std@@@std@@SAAADPAU_Node@?$_Tree_nod@V?$_Tmap_traits@HPAVTUnionInfo@@U?$less@H@std@@V?$allocator@U?$pair@$$CBHPAVTUnionInfo@@@std@@@3@$0A@@std@@@2@@Z ENDP ; std::_Tree_val<std::_Tmap_traits<int,TUnionInfo *,std::less<int>,std::allocator<std::pair<int const ,TUnionInfo *> >,0> >::_Isnil
_TEXT	ENDS
PUBLIC	?_Left@?$_Tree_val@V?$_Tmap_traits@HPAVTUnionInfo@@U?$less@H@std@@V?$allocator@U?$pair@$$CBHPAVTUnionInfo@@@std@@@3@$0A@@std@@@std@@SAAAPAU_Node@?$_Tree_nod@V?$_Tmap_traits@HPAVTUnionInfo@@U?$less@H@std@@V?$allocator@U?$pair@$$CBHPAVTUnionInfo@@@std@@@3@$0A@@std@@@2@PAU342@@Z ; std::_Tree_val<std::_Tmap_traits<int,TUnionInfo *,std::less<int>,std::allocator<std::pair<int const ,TUnionInfo *> >,0> >::_Left
; Function compile flags: /Ogtp
;	COMDAT ?_Left@?$_Tree_val@V?$_Tmap_traits@HPAVTUnionInfo@@U?$less@H@std@@V?$allocator@U?$pair@$$CBHPAVTUnionInfo@@@std@@@3@$0A@@std@@@std@@SAAAPAU_Node@?$_Tree_nod@V?$_Tmap_traits@HPAVTUnionInfo@@U?$less@H@std@@V?$allocator@U?$pair@$$CBHPAVTUnionInfo@@@std@@@3@$0A@@std@@@2@PAU342@@Z
_TEXT	SEGMENT
__Pnode$ = 8						; size = 4
?_Left@?$_Tree_val@V?$_Tmap_traits@HPAVTUnionInfo@@U?$less@H@std@@V?$allocator@U?$pair@$$CBHPAVTUnionInfo@@@std@@@3@$0A@@std@@@std@@SAAAPAU_Node@?$_Tree_nod@V?$_Tmap_traits@HPAVTUnionInfo@@U?$less@H@std@@V?$allocator@U?$pair@$$CBHPAVTUnionInfo@@@std@@@3@$0A@@std@@@2@PAU342@@Z PROC ; std::_Tree_val<std::_Tmap_traits<int,TUnionInfo *,std::less<int>,std::allocator<std::pair<int const ,TUnionInfo *> >,0> >::_Left, COMDAT

; 621  : 		{	// return reference to left pointer in node

  00000	55		 push	 ebp
  00001	8b ec		 mov	 ebp, esp

; 622  : 		return ((_Nodepref)(*_Pnode)._Left);

  00003	8b 45 08	 mov	 eax, DWORD PTR __Pnode$[ebp]

; 623  : 		}

  00006	5d		 pop	 ebp
  00007	c3		 ret	 0
?_Left@?$_Tree_val@V?$_Tmap_traits@HPAVTUnionInfo@@U?$less@H@std@@V?$allocator@U?$pair@$$CBHPAVTUnionInfo@@@std@@@3@$0A@@std@@@std@@SAAAPAU_Node@?$_Tree_nod@V?$_Tmap_traits@HPAVTUnionInfo@@U?$less@H@std@@V?$allocator@U?$pair@$$CBHPAVTUnionInfo@@@std@@@3@$0A@@std@@@2@PAU342@@Z ENDP ; std::_Tree_val<std::_Tmap_traits<int,TUnionInfo *,std::less<int>,std::allocator<std::pair<int const ,TUnionInfo *> >,0> >::_Left
_TEXT	ENDS
PUBLIC	?_Parent@?$_Tree_val@V?$_Tmap_traits@HPAVTUnionInfo@@U?$less@H@std@@V?$allocator@U?$pair@$$CBHPAVTUnionInfo@@@std@@@3@$0A@@std@@@std@@SAAAPAU_Node@?$_Tree_nod@V?$_Tmap_traits@HPAVTUnionInfo@@U?$less@H@std@@V?$allocator@U?$pair@$$CBHPAVTUnionInfo@@@std@@@3@$0A@@std@@@2@PAU342@@Z ; std::_Tree_val<std::_Tmap_traits<int,TUnionInfo *,std::less<int>,std::allocator<std::pair<int const ,TUnionInfo *> >,0> >::_Parent
; Function compile flags: /Ogtp
;	COMDAT ?_Parent@?$_Tree_val@V?$_Tmap_traits@HPAVTUnionInfo@@U?$less@H@std@@V?$allocator@U?$pair@$$CBHPAVTUnionInfo@@@std@@@3@$0A@@std@@@std@@SAAAPAU_Node@?$_Tree_nod@V?$_Tmap_traits@HPAVTUnionInfo@@U?$less@H@std@@V?$allocator@U?$pair@$$CBHPAVTUnionInfo@@@std@@@3@$0A@@std@@@2@PAU342@@Z
_TEXT	SEGMENT
__Pnode$ = 8						; size = 4
?_Parent@?$_Tree_val@V?$_Tmap_traits@HPAVTUnionInfo@@U?$less@H@std@@V?$allocator@U?$pair@$$CBHPAVTUnionInfo@@@std@@@3@$0A@@std@@@std@@SAAAPAU_Node@?$_Tree_nod@V?$_Tmap_traits@HPAVTUnionInfo@@U?$less@H@std@@V?$allocator@U?$pair@$$CBHPAVTUnionInfo@@@std@@@3@$0A@@std@@@2@PAU342@@Z PROC ; std::_Tree_val<std::_Tmap_traits<int,TUnionInfo *,std::less<int>,std::allocator<std::pair<int const ,TUnionInfo *> >,0> >::_Parent, COMDAT

; 626  : 		{	// return reference to parent pointer in node

  00000	55		 push	 ebp
  00001	8b ec		 mov	 ebp, esp

; 627  : 		return ((_Nodepref)(*_Pnode)._Parent);

  00003	8b 45 08	 mov	 eax, DWORD PTR __Pnode$[ebp]
  00006	83 c0 04	 add	 eax, 4

; 628  : 		}

  00009	5d		 pop	 ebp
  0000a	c3		 ret	 0
?_Parent@?$_Tree_val@V?$_Tmap_traits@HPAVTUnionInfo@@U?$less@H@std@@V?$allocator@U?$pair@$$CBHPAVTUnionInfo@@@std@@@3@$0A@@std@@@std@@SAAAPAU_Node@?$_Tree_nod@V?$_Tmap_traits@HPAVTUnionInfo@@U?$less@H@std@@V?$allocator@U?$pair@$$CBHPAVTUnionInfo@@@std@@@3@$0A@@std@@@2@PAU342@@Z ENDP ; std::_Tree_val<std::_Tmap_traits<int,TUnionInfo *,std::less<int>,std::allocator<std::pair<int const ,TUnionInfo *> >,0> >::_Parent
_TEXT	ENDS
PUBLIC	?_Right@?$_Tree_val@V?$_Tmap_traits@HPAVTUnionInfo@@U?$less@H@std@@V?$allocator@U?$pair@$$CBHPAVTUnionInfo@@@std@@@3@$0A@@std@@@std@@SAAAPAU_Node@?$_Tree_nod@V?$_Tmap_traits@HPAVTUnionInfo@@U?$less@H@std@@V?$allocator@U?$pair@$$CBHPAVTUnionInfo@@@std@@@3@$0A@@std@@@2@PAU342@@Z ; std::_Tree_val<std::_Tmap_traits<int,TUnionInfo *,std::less<int>,std::allocator<std::pair<int const ,TUnionInfo *> >,0> >::_Right
; Function compile flags: /Ogtp
;	COMDAT ?_Right@?$_Tree_val@V?$_Tmap_traits@HPAVTUnionInfo@@U?$less@H@std@@V?$allocator@U?$pair@$$CBHPAVTUnionInfo@@@std@@@3@$0A@@std@@@std@@SAAAPAU_Node@?$_Tree_nod@V?$_Tmap_traits@HPAVTUnionInfo@@U?$less@H@std@@V?$allocator@U?$pair@$$CBHPAVTUnionInfo@@@std@@@3@$0A@@std@@@2@PAU342@@Z
_TEXT	SEGMENT
__Pnode$ = 8						; size = 4
?_Right@?$_Tree_val@V?$_Tmap_traits@HPAVTUnionInfo@@U?$less@H@std@@V?$allocator@U?$pair@$$CBHPAVTUnionInfo@@@std@@@3@$0A@@std@@@std@@SAAAPAU_Node@?$_Tree_nod@V?$_Tmap_traits@HPAVTUnionInfo@@U?$less@H@std@@V?$allocator@U?$pair@$$CBHPAVTUnionInfo@@@std@@@3@$0A@@std@@@2@PAU342@@Z PROC ; std::_Tree_val<std::_Tmap_traits<int,TUnionInfo *,std::less<int>,std::allocator<std::pair<int const ,TUnionInfo *> >,0> >::_Right, COMDAT

; 631  : 		{	// return reference to right pointer in node

  00000	55		 push	 ebp
  00001	8b ec		 mov	 ebp, esp

; 632  : 		return ((_Nodepref)(*_Pnode)._Right);

  00003	8b 45 08	 mov	 eax, DWORD PTR __Pnode$[ebp]
  00006	83 c0 08	 add	 eax, 8

; 633  : 		}

  00009	5d		 pop	 ebp
  0000a	c3		 ret	 0
?_Right@?$_Tree_val@V?$_Tmap_traits@HPAVTUnionInfo@@U?$less@H@std@@V?$allocator@U?$pair@$$CBHPAVTUnionInfo@@@std@@@3@$0A@@std@@@std@@SAAAPAU_Node@?$_Tree_nod@V?$_Tmap_traits@HPAVTUnionInfo@@U?$less@H@std@@V?$allocator@U?$pair@$$CBHPAVTUnionInfo@@@std@@@3@$0A@@std@@@2@PAU342@@Z ENDP ; std::_Tree_val<std::_Tmap_traits<int,TUnionInfo *,std::less<int>,std::allocator<std::pair<int const ,TUnionInfo *> >,0> >::_Right
_TEXT	ENDS
PUBLIC	?_Myval@?$_Tree_val@V?$_Tmap_traits@HPAVTUnionInfo@@U?$less@H@std@@V?$allocator@U?$pair@$$CBHPAVTUnionInfo@@@std@@@3@$0A@@std@@@std@@SAAAU?$pair@$$CBHPAVTUnionInfo@@@2@PAU_Node@?$_Tree_nod@V?$_Tmap_traits@HPAVTUnionInfo@@U?$less@H@std@@V?$allocator@U?$pair@$$CBHPAVTUnionInfo@@@std@@@3@$0A@@std@@@2@@Z ; std::_Tree_val<std::_Tmap_traits<int,TUnionInfo *,std::less<int>,std::allocator<std::pair<int const ,TUnionInfo *> >,0> >::_Myval
; Function compile flags: /Ogtp
;	COMDAT ?_Myval@?$_Tree_val@V?$_Tmap_traits@HPAVTUnionInfo@@U?$less@H@std@@V?$allocator@U?$pair@$$CBHPAVTUnionInfo@@@std@@@3@$0A@@std@@@std@@SAAAU?$pair@$$CBHPAVTUnionInfo@@@2@PAU_Node@?$_Tree_nod@V?$_Tmap_traits@HPAVTUnionInfo@@U?$less@H@std@@V?$allocator@U?$pair@$$CBHPAVTUnionInfo@@@std@@@3@$0A@@std@@@2@@Z
_TEXT	SEGMENT
__Pnode$ = 8						; size = 4
?_Myval@?$_Tree_val@V?$_Tmap_traits@HPAVTUnionInfo@@U?$less@H@std@@V?$allocator@U?$pair@$$CBHPAVTUnionInfo@@@std@@@3@$0A@@std@@@std@@SAAAU?$pair@$$CBHPAVTUnionInfo@@@2@PAU_Node@?$_Tree_nod@V?$_Tmap_traits@HPAVTUnionInfo@@U?$less@H@std@@V?$allocator@U?$pair@$$CBHPAVTUnionInfo@@@std@@@3@$0A@@std@@@2@@Z PROC ; std::_Tree_val<std::_Tmap_traits<int,TUnionInfo *,std::less<int>,std::allocator<std::pair<int const ,TUnionInfo *> >,0> >::_Myval, COMDAT

; 636  : 		{	// return reference to value in node

  00000	55		 push	 ebp
  00001	8b ec		 mov	 ebp, esp

; 637  : 		return ((reference)(*_Pnode)._Myval);

  00003	8b 45 08	 mov	 eax, DWORD PTR __Pnode$[ebp]
  00006	83 c0 0c	 add	 eax, 12			; 0000000cH

; 638  : 		}

  00009	5d		 pop	 ebp
  0000a	c3		 ret	 0
?_Myval@?$_Tree_val@V?$_Tmap_traits@HPAVTUnionInfo@@U?$less@H@std@@V?$allocator@U?$pair@$$CBHPAVTUnionInfo@@@std@@@3@$0A@@std@@@std@@SAAAU?$pair@$$CBHPAVTUnionInfo@@@2@PAU_Node@?$_Tree_nod@V?$_Tmap_traits@HPAVTUnionInfo@@U?$less@H@std@@V?$allocator@U?$pair@$$CBHPAVTUnionInfo@@@std@@@3@$0A@@std@@@2@@Z ENDP ; std::_Tree_val<std::_Tmap_traits<int,TUnionInfo *,std::less<int>,std::allocator<std::pair<int const ,TUnionInfo *> >,0> >::_Myval
_TEXT	ENDS
PUBLIC	??0?$allocator@U?$pair@$$CBHPAVTUnionInfo@@@std@@@std@@QAE@ABV01@@Z ; std::allocator<std::pair<int const ,TUnionInfo *> >::allocator<std::pair<int const ,TUnionInfo *> >
; Function compile flags: /Ogtp
; File c:\program files (x86)\microsoft visual studio 10.0\vc\include\xmemory
;	COMDAT ??0?$allocator@U?$pair@$$CBHPAVTUnionInfo@@@std@@@std@@QAE@ABV01@@Z
_TEXT	SEGMENT
___formal$ = 8						; size = 4
??0?$allocator@U?$pair@$$CBHPAVTUnionInfo@@@std@@@std@@QAE@ABV01@@Z PROC ; std::allocator<std::pair<int const ,TUnionInfo *> >::allocator<std::pair<int const ,TUnionInfo *> >, COMDAT
; _this$ = ecx

; 165  : 	_ALLOCATOR(const _ALLOCATOR<_Ty>&) _THROW0()

  00000	8b c1		 mov	 eax, ecx

; 166  : 		{	// construct by copying (do nothing)
; 167  : 		}

  00002	c2 04 00	 ret	 4
??0?$allocator@U?$pair@$$CBHPAVTUnionInfo@@@std@@@std@@QAE@ABV01@@Z ENDP ; std::allocator<std::pair<int const ,TUnionInfo *> >::allocator<std::pair<int const ,TUnionInfo *> >
_TEXT	ENDS
PUBLIC	?deallocate@?$allocator@U_Node@?$_Tree_nod@V?$_Tmap_traits@HPAVTUnionInfo@@U?$less@H@std@@V?$allocator@U?$pair@$$CBHPAVTUnionInfo@@@std@@@3@$0A@@std@@@std@@@std@@QAEXPAU_Node@?$_Tree_nod@V?$_Tmap_traits@HPAVTUnionInfo@@U?$less@H@std@@V?$allocator@U?$pair@$$CBHPAVTUnionInfo@@@std@@@3@$0A@@std@@@2@I@Z ; std::allocator<std::_Tree_nod<std::_Tmap_traits<int,TUnionInfo *,std::less<int>,std::allocator<std::pair<int const ,TUnionInfo *> >,0> >::_Node>::deallocate
EXTRN	??3@YAXPAX@Z:PROC				; operator delete
; Function compile flags: /Ogtp
;	COMDAT ?deallocate@?$allocator@U_Node@?$_Tree_nod@V?$_Tmap_traits@HPAVTUnionInfo@@U?$less@H@std@@V?$allocator@U?$pair@$$CBHPAVTUnionInfo@@@std@@@3@$0A@@std@@@std@@@std@@QAEXPAU_Node@?$_Tree_nod@V?$_Tmap_traits@HPAVTUnionInfo@@U?$less@H@std@@V?$allocator@U?$pair@$$CBHPAVTUnionInfo@@@std@@@3@$0A@@std@@@2@I@Z
_TEXT	SEGMENT
__Ptr$ = 8						; size = 4
___formal$ = 12						; size = 4
?deallocate@?$allocator@U_Node@?$_Tree_nod@V?$_Tmap_traits@HPAVTUnionInfo@@U?$less@H@std@@V?$allocator@U?$pair@$$CBHPAVTUnionInfo@@@std@@@3@$0A@@std@@@std@@@std@@QAEXPAU_Node@?$_Tree_nod@V?$_Tmap_traits@HPAVTUnionInfo@@U?$less@H@std@@V?$allocator@U?$pair@$$CBHPAVTUnionInfo@@@std@@@3@$0A@@std@@@2@I@Z PROC ; std::allocator<std::_Tree_nod<std::_Tmap_traits<int,TUnionInfo *,std::less<int>,std::allocator<std::pair<int const ,TUnionInfo *> >,0> >::_Node>::deallocate, COMDAT
; _this$ = ecx

; 181  : 		{	// deallocate object at _Ptr, ignore size

  00000	55		 push	 ebp
  00001	8b ec		 mov	 ebp, esp

; 182  : 		::operator delete(_Ptr);

  00003	8b 45 08	 mov	 eax, DWORD PTR __Ptr$[ebp]
  00006	50		 push	 eax
  00007	e8 00 00 00 00	 call	 ??3@YAXPAX@Z		; operator delete
  0000c	83 c4 04	 add	 esp, 4

; 183  : 		}

  0000f	5d		 pop	 ebp
  00010	c2 08 00	 ret	 8
?deallocate@?$allocator@U_Node@?$_Tree_nod@V?$_Tmap_traits@HPAVTUnionInfo@@U?$less@H@std@@V?$allocator@U?$pair@$$CBHPAVTUnionInfo@@@std@@@3@$0A@@std@@@std@@@std@@QAEXPAU_Node@?$_Tree_nod@V?$_Tmap_traits@HPAVTUnionInfo@@U?$less@H@std@@V?$allocator@U?$pair@$$CBHPAVTUnionInfo@@@std@@@3@$0A@@std@@@2@I@Z ENDP ; std::allocator<std::_Tree_nod<std::_Tmap_traits<int,TUnionInfo *,std::less<int>,std::allocator<std::pair<int const ,TUnionInfo *> >,0> >::_Node>::deallocate
_TEXT	ENDS
PUBLIC	??0?$_Tree_unchecked_const_iterator@V?$_Tree_val@V?$_Tmap_traits@HPAVTUnionInfo@@U?$less@H@std@@V?$allocator@U?$pair@$$CBHPAVTUnionInfo@@@std@@@3@$0A@@std@@@std@@U_Iterator_base0@2@@std@@QAE@XZ ; std::_Tree_unchecked_const_iterator<std::_Tree_val<std::_Tmap_traits<int,TUnionInfo *,std::less<int>,std::allocator<std::pair<int const ,TUnionInfo *> >,0> >,std::_Iterator_base0>::_Tree_unchecked_const_iterator<std::_Tree_val<std::_Tmap_traits<int,TUnionInfo *,std::less<int>,std::allocator<std::pair<int const ,TUnionInfo *> >,0> >,std::_Iterator_base0>
; Function compile flags: /Ogtp
; File c:\program files (x86)\microsoft visual studio 10.0\vc\include\xtree
;	COMDAT ??0?$_Tree_unchecked_const_iterator@V?$_Tree_val@V?$_Tmap_traits@HPAVTUnionInfo@@U?$less@H@std@@V?$allocator@U?$pair@$$CBHPAVTUnionInfo@@@std@@@3@$0A@@std@@@std@@U_Iterator_base0@2@@std@@QAE@XZ
_TEXT	SEGMENT
??0?$_Tree_unchecked_const_iterator@V?$_Tree_val@V?$_Tmap_traits@HPAVTUnionInfo@@U?$less@H@std@@V?$allocator@U?$pair@$$CBHPAVTUnionInfo@@@std@@@3@$0A@@std@@@std@@U_Iterator_base0@2@@std@@QAE@XZ PROC ; std::_Tree_unchecked_const_iterator<std::_Tree_val<std::_Tmap_traits<int,TUnionInfo *,std::less<int>,std::allocator<std::pair<int const ,TUnionInfo *> >,0> >,std::_Iterator_base0>::_Tree_unchecked_const_iterator<std::_Tree_val<std::_Tmap_traits<int,TUnionInfo *,std::less<int>,std::allocator<std::pair<int const ,TUnionInfo *> >,0> >,std::_Iterator_base0>, COMDAT
; _this$ = ecx

; 38   : 		{	// construct with null node pointer

  00000	8b c1		 mov	 eax, ecx
  00002	c7 00 00 00 00
	00		 mov	 DWORD PTR [eax], 0

; 39   : 		}

  00008	c3		 ret	 0
??0?$_Tree_unchecked_const_iterator@V?$_Tree_val@V?$_Tmap_traits@HPAVTUnionInfo@@U?$less@H@std@@V?$allocator@U?$pair@$$CBHPAVTUnionInfo@@@std@@@3@$0A@@std@@@std@@U_Iterator_base0@2@@std@@QAE@XZ ENDP ; std::_Tree_unchecked_const_iterator<std::_Tree_val<std::_Tmap_traits<int,TUnionInfo *,std::less<int>,std::allocator<std::pair<int const ,TUnionInfo *> >,0> >,std::_Iterator_base0>::_Tree_unchecked_const_iterator<std::_Tree_val<std::_Tmap_traits<int,TUnionInfo *,std::less<int>,std::allocator<std::pair<int const ,TUnionInfo *> >,0> >,std::_Iterator_base0>
_TEXT	ENDS
PUBLIC	?deallocate@?$allocator@H@std@@QAEXPAHI@Z	; std::allocator<int>::deallocate
; Function compile flags: /Ogtp
; File c:\program files (x86)\microsoft visual studio 10.0\vc\include\xmemory
;	COMDAT ?deallocate@?$allocator@H@std@@QAEXPAHI@Z
_TEXT	SEGMENT
__Ptr$ = 8						; size = 4
___formal$ = 12						; size = 4
?deallocate@?$allocator@H@std@@QAEXPAHI@Z PROC		; std::allocator<int>::deallocate, COMDAT
; _this$ = ecx

; 181  : 		{	// deallocate object at _Ptr, ignore size

  00000	55		 push	 ebp
  00001	8b ec		 mov	 ebp, esp

; 182  : 		::operator delete(_Ptr);

  00003	8b 45 08	 mov	 eax, DWORD PTR __Ptr$[ebp]
  00006	50		 push	 eax
  00007	e8 00 00 00 00	 call	 ??3@YAXPAX@Z		; operator delete
  0000c	83 c4 04	 add	 esp, 4

; 183  : 		}

  0000f	5d		 pop	 ebp
  00010	c2 08 00	 ret	 8
?deallocate@?$allocator@H@std@@QAEXPAHI@Z ENDP		; std::allocator<int>::deallocate
_TEXT	ENDS
PUBLIC	?max_size@?$allocator@H@std@@QBEIXZ		; std::allocator<int>::max_size
; Function compile flags: /Ogtp
;	COMDAT ?max_size@?$allocator@H@std@@QBEIXZ
_TEXT	SEGMENT
?max_size@?$allocator@H@std@@QBEIXZ PROC		; std::allocator<int>::max_size, COMDAT
; _this$ = ecx

; 218  : 		_SIZT _Count = (_SIZT)(-1) / sizeof (_Ty);
; 219  : 		return (0 < _Count ? _Count : 1);

  00000	b8 ff ff ff 3f	 mov	 eax, 1073741823		; 3fffffffH

; 220  : 		}

  00005	c3		 ret	 0
?max_size@?$allocator@H@std@@QBEIXZ ENDP		; std::allocator<int>::max_size
_TEXT	ENDS
PUBLIC	?_Color@?$_Tree_val@V?$_Tmap_traits@HPAVTUnionInfo@@U?$less@H@std@@V?$allocator@U?$pair@$$CBHPAVTUnionInfo@@@std@@@3@$0A@@std@@@std@@SAAADPAU_Node@?$_Tree_nod@V?$_Tmap_traits@HPAVTUnionInfo@@U?$less@H@std@@V?$allocator@U?$pair@$$CBHPAVTUnionInfo@@@std@@@3@$0A@@std@@@2@@Z ; std::_Tree_val<std::_Tmap_traits<int,TUnionInfo *,std::less<int>,std::allocator<std::pair<int const ,TUnionInfo *> >,0> >::_Color
; Function compile flags: /Ogtp
; File c:\program files (x86)\microsoft visual studio 10.0\vc\include\xtree
;	COMDAT ?_Color@?$_Tree_val@V?$_Tmap_traits@HPAVTUnionInfo@@U?$less@H@std@@V?$allocator@U?$pair@$$CBHPAVTUnionInfo@@@std@@@3@$0A@@std@@@std@@SAAADPAU_Node@?$_Tree_nod@V?$_Tmap_traits@HPAVTUnionInfo@@U?$less@H@std@@V?$allocator@U?$pair@$$CBHPAVTUnionInfo@@@std@@@3@$0A@@std@@@2@@Z
_TEXT	SEGMENT
__Pnode$ = 8						; size = 4
?_Color@?$_Tree_val@V?$_Tmap_traits@HPAVTUnionInfo@@U?$less@H@std@@V?$allocator@U?$pair@$$CBHPAVTUnionInfo@@@std@@@3@$0A@@std@@@std@@SAAADPAU_Node@?$_Tree_nod@V?$_Tmap_traits@HPAVTUnionInfo@@U?$less@H@std@@V?$allocator@U?$pair@$$CBHPAVTUnionInfo@@@std@@@3@$0A@@std@@@2@@Z PROC ; std::_Tree_val<std::_Tmap_traits<int,TUnionInfo *,std::less<int>,std::allocator<std::pair<int const ,TUnionInfo *> >,0> >::_Color, COMDAT

; 606  : 		{	// return reference to color in node

  00000	55		 push	 ebp
  00001	8b ec		 mov	 ebp, esp

; 607  : 		return ((char&)(*_Pnode)._Color);

  00003	8b 45 08	 mov	 eax, DWORD PTR __Pnode$[ebp]
  00006	83 c0 14	 add	 eax, 20			; 00000014H

; 608  : 		}

  00009	5d		 pop	 ebp
  0000a	c3		 ret	 0
?_Color@?$_Tree_val@V?$_Tmap_traits@HPAVTUnionInfo@@U?$less@H@std@@V?$allocator@U?$pair@$$CBHPAVTUnionInfo@@@std@@@3@$0A@@std@@@std@@SAAADPAU_Node@?$_Tree_nod@V?$_Tmap_traits@HPAVTUnionInfo@@U?$less@H@std@@V?$allocator@U?$pair@$$CBHPAVTUnionInfo@@@std@@@3@$0A@@std@@@2@@Z ENDP ; std::_Tree_val<std::_Tmap_traits<int,TUnionInfo *,std::less<int>,std::allocator<std::pair<int const ,TUnionInfo *> >,0> >::_Color
_TEXT	ENDS
PUBLIC	?_Max@?$_Tree_val@V?$_Tmap_traits@HPAVTUnionInfo@@U?$less@H@std@@V?$allocator@U?$pair@$$CBHPAVTUnionInfo@@@std@@@3@$0A@@std@@@std@@SAPAU_Node@?$_Tree_nod@V?$_Tmap_traits@HPAVTUnionInfo@@U?$less@H@std@@V?$allocator@U?$pair@$$CBHPAVTUnionInfo@@@std@@@3@$0A@@std@@@2@PAU342@@Z ; std::_Tree_val<std::_Tmap_traits<int,TUnionInfo *,std::less<int>,std::allocator<std::pair<int const ,TUnionInfo *> >,0> >::_Max
; Function compile flags: /Ogtp
;	COMDAT ?_Max@?$_Tree_val@V?$_Tmap_traits@HPAVTUnionInfo@@U?$less@H@std@@V?$allocator@U?$pair@$$CBHPAVTUnionInfo@@@std@@@3@$0A@@std@@@std@@SAPAU_Node@?$_Tree_nod@V?$_Tmap_traits@HPAVTUnionInfo@@U?$less@H@std@@V?$allocator@U?$pair@$$CBHPAVTUnionInfo@@@std@@@3@$0A@@std@@@2@PAU342@@Z
_TEXT	SEGMENT
__Pnode$ = 8						; size = 4
?_Max@?$_Tree_val@V?$_Tmap_traits@HPAVTUnionInfo@@U?$less@H@std@@V?$allocator@U?$pair@$$CBHPAVTUnionInfo@@@std@@@3@$0A@@std@@@std@@SAPAU_Node@?$_Tree_nod@V?$_Tmap_traits@HPAVTUnionInfo@@U?$less@H@std@@V?$allocator@U?$pair@$$CBHPAVTUnionInfo@@@std@@@3@$0A@@std@@@2@PAU342@@Z PROC ; std::_Tree_val<std::_Tmap_traits<int,TUnionInfo *,std::less<int>,std::allocator<std::pair<int const ,TUnionInfo *> >,0> >::_Max, COMDAT

; 641  : 		{	// return rightmost node in subtree at _Pnode

  00000	55		 push	 ebp
  00001	8b ec		 mov	 ebp, esp

; 642  : 		while (!_Isnil(_Right(_Pnode)))

  00003	8b 45 08	 mov	 eax, DWORD PTR __Pnode$[ebp]
  00006	8b 48 08	 mov	 ecx, DWORD PTR [eax+8]
  00009	80 79 15 00	 cmp	 BYTE PTR [ecx+21], 0
  0000d	75 0c		 jne	 SHORT $LN1@Max
  0000f	90		 npad	 1
$LL2@Max:

; 643  : 			_Pnode = _Right(_Pnode);

  00010	8b c1		 mov	 eax, ecx
  00012	8b 48 08	 mov	 ecx, DWORD PTR [eax+8]
  00015	80 79 15 00	 cmp	 BYTE PTR [ecx+21], 0
  00019	74 f5		 je	 SHORT $LL2@Max
$LN1@Max:

; 644  : 		return (_Pnode);
; 645  : 		}

  0001b	5d		 pop	 ebp
  0001c	c3		 ret	 0
?_Max@?$_Tree_val@V?$_Tmap_traits@HPAVTUnionInfo@@U?$less@H@std@@V?$allocator@U?$pair@$$CBHPAVTUnionInfo@@@std@@@3@$0A@@std@@@std@@SAPAU_Node@?$_Tree_nod@V?$_Tmap_traits@HPAVTUnionInfo@@U?$less@H@std@@V?$allocator@U?$pair@$$CBHPAVTUnionInfo@@@std@@@3@$0A@@std@@@2@PAU342@@Z ENDP ; std::_Tree_val<std::_Tmap_traits<int,TUnionInfo *,std::less<int>,std::allocator<std::pair<int const ,TUnionInfo *> >,0> >::_Max
_TEXT	ENDS
PUBLIC	?_Min@?$_Tree_val@V?$_Tmap_traits@HPAVTUnionInfo@@U?$less@H@std@@V?$allocator@U?$pair@$$CBHPAVTUnionInfo@@@std@@@3@$0A@@std@@@std@@SAPAU_Node@?$_Tree_nod@V?$_Tmap_traits@HPAVTUnionInfo@@U?$less@H@std@@V?$allocator@U?$pair@$$CBHPAVTUnionInfo@@@std@@@3@$0A@@std@@@2@PAU342@@Z ; std::_Tree_val<std::_Tmap_traits<int,TUnionInfo *,std::less<int>,std::allocator<std::pair<int const ,TUnionInfo *> >,0> >::_Min
; Function compile flags: /Ogtp
;	COMDAT ?_Min@?$_Tree_val@V?$_Tmap_traits@HPAVTUnionInfo@@U?$less@H@std@@V?$allocator@U?$pair@$$CBHPAVTUnionInfo@@@std@@@3@$0A@@std@@@std@@SAPAU_Node@?$_Tree_nod@V?$_Tmap_traits@HPAVTUnionInfo@@U?$less@H@std@@V?$allocator@U?$pair@$$CBHPAVTUnionInfo@@@std@@@3@$0A@@std@@@2@PAU342@@Z
_TEXT	SEGMENT
__Pnode$ = 8						; size = 4
?_Min@?$_Tree_val@V?$_Tmap_traits@HPAVTUnionInfo@@U?$less@H@std@@V?$allocator@U?$pair@$$CBHPAVTUnionInfo@@@std@@@3@$0A@@std@@@std@@SAPAU_Node@?$_Tree_nod@V?$_Tmap_traits@HPAVTUnionInfo@@U?$less@H@std@@V?$allocator@U?$pair@$$CBHPAVTUnionInfo@@@std@@@3@$0A@@std@@@2@PAU342@@Z PROC ; std::_Tree_val<std::_Tmap_traits<int,TUnionInfo *,std::less<int>,std::allocator<std::pair<int const ,TUnionInfo *> >,0> >::_Min, COMDAT

; 648  : 		{	// return leftmost node in subtree at _Pnode

  00000	55		 push	 ebp
  00001	8b ec		 mov	 ebp, esp

; 649  : 		while (!_Isnil(_Left(_Pnode)))

  00003	8b 45 08	 mov	 eax, DWORD PTR __Pnode$[ebp]
  00006	8b 08		 mov	 ecx, DWORD PTR [eax]
  00008	80 79 15 00	 cmp	 BYTE PTR [ecx+21], 0
  0000c	75 0c		 jne	 SHORT $LN1@Min
  0000e	8b ff		 npad	 2
$LL2@Min:

; 650  : 			_Pnode = _Left(_Pnode);

  00010	8b c1		 mov	 eax, ecx
  00012	8b 08		 mov	 ecx, DWORD PTR [eax]
  00014	80 79 15 00	 cmp	 BYTE PTR [ecx+21], 0
  00018	74 f6		 je	 SHORT $LL2@Min
$LN1@Min:

; 651  : 		return (_Pnode);
; 652  : 		}

  0001a	5d		 pop	 ebp
  0001b	c3		 ret	 0
?_Min@?$_Tree_val@V?$_Tmap_traits@HPAVTUnionInfo@@U?$less@H@std@@V?$allocator@U?$pair@$$CBHPAVTUnionInfo@@@std@@@3@$0A@@std@@@std@@SAPAU_Node@?$_Tree_nod@V?$_Tmap_traits@HPAVTUnionInfo@@U?$less@H@std@@V?$allocator@U?$pair@$$CBHPAVTUnionInfo@@@std@@@3@$0A@@std@@@2@PAU342@@Z ENDP ; std::_Tree_val<std::_Tmap_traits<int,TUnionInfo *,std::less<int>,std::allocator<std::pair<int const ,TUnionInfo *> >,0> >::_Min
_TEXT	ENDS
PUBLIC	??0?$_Tmap_traits@HPAVTUnionInfo@@U?$less@H@std@@V?$allocator@U?$pair@$$CBHPAVTUnionInfo@@@std@@@3@$0A@@std@@QAE@U?$less@H@1@@Z ; std::_Tmap_traits<int,TUnionInfo *,std::less<int>,std::allocator<std::pair<int const ,TUnionInfo *> >,0>::_Tmap_traits<int,TUnionInfo *,std::less<int>,std::allocator<std::pair<int const ,TUnionInfo *> >,0>
; Function compile flags: /Ogtp
; File c:\program files (x86)\microsoft visual studio 10.0\vc\include\map
;	COMDAT ??0?$_Tmap_traits@HPAVTUnionInfo@@U?$less@H@std@@V?$allocator@U?$pair@$$CBHPAVTUnionInfo@@@std@@@3@$0A@@std@@QAE@U?$less@H@1@@Z
_TEXT	SEGMENT
__Parg$ = 8						; size = 1
??0?$_Tmap_traits@HPAVTUnionInfo@@U?$less@H@std@@V?$allocator@U?$pair@$$CBHPAVTUnionInfo@@@std@@@3@$0A@@std@@QAE@U?$less@H@1@@Z PROC ; std::_Tmap_traits<int,TUnionInfo *,std::less<int>,std::allocator<std::pair<int const ,TUnionInfo *> >,0>::_Tmap_traits<int,TUnionInfo *,std::less<int>,std::allocator<std::pair<int const ,TUnionInfo *> >,0>, COMDAT
; _this$ = ecx

; 40   : 		{	// construct with specified comparator

  00000	8b c1		 mov	 eax, ecx

; 41   : 		}

  00002	c2 04 00	 ret	 4
??0?$_Tmap_traits@HPAVTUnionInfo@@U?$less@H@std@@V?$allocator@U?$pair@$$CBHPAVTUnionInfo@@@std@@@3@$0A@@std@@QAE@U?$less@H@1@@Z ENDP ; std::_Tmap_traits<int,TUnionInfo *,std::less<int>,std::allocator<std::pair<int const ,TUnionInfo *> >,0>::_Tmap_traits<int,TUnionInfo *,std::less<int>,std::allocator<std::pair<int const ,TUnionInfo *> >,0>
_TEXT	ENDS
PUBLIC	??$addressof@$$CBH@std@@YAPBHABH@Z		; std::addressof<int const >
; Function compile flags: /Ogtp
; File c:\program files (x86)\microsoft visual studio 10.0\vc\include\xmemory
;	COMDAT ??$addressof@$$CBH@std@@YAPBHABH@Z
_TEXT	SEGMENT
__Val$ = 8						; size = 4
??$addressof@$$CBH@std@@YAPBHABH@Z PROC			; std::addressof<int const >, COMDAT

; 110  : 	{	// return address of _Val

  00000	55		 push	 ebp
  00001	8b ec		 mov	 ebp, esp

; 111  : 	return ((_Ty *) &(char&)_Val);

  00003	8b 45 08	 mov	 eax, DWORD PTR __Val$[ebp]

; 112  : 	}

  00006	5d		 pop	 ebp
  00007	c3		 ret	 0
??$addressof@$$CBH@std@@YAPBHABH@Z ENDP			; std::addressof<int const >
_TEXT	ENDS
PUBLIC	??$addressof@U?$pair@$$CBHPAVTUnionInfo@@@std@@@std@@YAPAU?$pair@$$CBHPAVTUnionInfo@@@0@AAU10@@Z ; std::addressof<std::pair<int const ,TUnionInfo *> >
; Function compile flags: /Ogtp
;	COMDAT ??$addressof@U?$pair@$$CBHPAVTUnionInfo@@@std@@@std@@YAPAU?$pair@$$CBHPAVTUnionInfo@@@0@AAU10@@Z
_TEXT	SEGMENT
__Val$ = 8						; size = 4
??$addressof@U?$pair@$$CBHPAVTUnionInfo@@@std@@@std@@YAPAU?$pair@$$CBHPAVTUnionInfo@@@0@AAU10@@Z PROC ; std::addressof<std::pair<int const ,TUnionInfo *> >, COMDAT

; 110  : 	{	// return address of _Val

  00000	55		 push	 ebp
  00001	8b ec		 mov	 ebp, esp

; 111  : 	return ((_Ty *) &(char&)_Val);

  00003	8b 45 08	 mov	 eax, DWORD PTR __Val$[ebp]

; 112  : 	}

  00006	5d		 pop	 ebp
  00007	c3		 ret	 0
??$addressof@U?$pair@$$CBHPAVTUnionInfo@@@std@@@std@@YAPAU?$pair@$$CBHPAVTUnionInfo@@@0@AAU10@@Z ENDP ; std::addressof<std::pair<int const ,TUnionInfo *> >
_TEXT	ENDS
PUBLIC	??$_Kfn@$$CBHPAVTUnionInfo@@@?$_Tmap_traits@HPAVTUnionInfo@@U?$less@H@std@@V?$allocator@U?$pair@$$CBHPAVTUnionInfo@@@std@@@3@$0A@@std@@SAABHABU?$pair@$$CBHPAVTUnionInfo@@@1@@Z ; std::_Tmap_traits<int,TUnionInfo *,std::less<int>,std::allocator<std::pair<int const ,TUnionInfo *> >,0>::_Kfn<int const ,TUnionInfo *>
; Function compile flags: /Ogtp
; File c:\program files (x86)\microsoft visual studio 10.0\vc\include\map
;	COMDAT ??$_Kfn@$$CBHPAVTUnionInfo@@@?$_Tmap_traits@HPAVTUnionInfo@@U?$less@H@std@@V?$allocator@U?$pair@$$CBHPAVTUnionInfo@@@std@@@3@$0A@@std@@SAABHABU?$pair@$$CBHPAVTUnionInfo@@@1@@Z
_TEXT	SEGMENT
__Val$ = 8						; size = 4
??$_Kfn@$$CBHPAVTUnionInfo@@@?$_Tmap_traits@HPAVTUnionInfo@@U?$less@H@std@@V?$allocator@U?$pair@$$CBHPAVTUnionInfo@@@std@@@3@$0A@@std@@SAABHABU?$pair@$$CBHPAVTUnionInfo@@@1@@Z PROC ; std::_Tmap_traits<int,TUnionInfo *,std::less<int>,std::allocator<std::pair<int const ,TUnionInfo *> >,0>::_Kfn<int const ,TUnionInfo *>, COMDAT

; 66   : 		static const _Kty& _Kfn(const _STD pair<_Ty1, _Ty2>& _Val)

  00000	55		 push	 ebp
  00001	8b ec		 mov	 ebp, esp

; 67   : 		{	// extract key from element value
; 68   : 		return (_Val.first);

  00003	8b 45 08	 mov	 eax, DWORD PTR __Val$[ebp]

; 69   : 		}

  00006	5d		 pop	 ebp
  00007	c3		 ret	 0
??$_Kfn@$$CBHPAVTUnionInfo@@@?$_Tmap_traits@HPAVTUnionInfo@@U?$less@H@std@@V?$allocator@U?$pair@$$CBHPAVTUnionInfo@@@std@@@3@$0A@@std@@SAABHABU?$pair@$$CBHPAVTUnionInfo@@@1@@Z ENDP ; std::_Tmap_traits<int,TUnionInfo *,std::less<int>,std::allocator<std::pair<int const ,TUnionInfo *> >,0>::_Kfn<int const ,TUnionInfo *>
_TEXT	ENDS
PUBLIC	??$move@AAPAVTUnionInfo@@@std@@YA$$QAPAVTUnionInfo@@AAPAV1@@Z ; std::move<TUnionInfo * &>
; Function compile flags: /Ogtp
; File c:\program files (x86)\microsoft visual studio 10.0\vc\include\utility
;	COMDAT ??$move@AAPAVTUnionInfo@@@std@@YA$$QAPAVTUnionInfo@@AAPAV1@@Z
_TEXT	SEGMENT
__Arg$ = 8						; size = 4
??$move@AAPAVTUnionInfo@@@std@@YA$$QAPAVTUnionInfo@@AAPAV1@@Z PROC ; std::move<TUnionInfo * &>, COMDAT

; 86   : 	{	// forward _Arg as movable

  00000	55		 push	 ebp
  00001	8b ec		 mov	 ebp, esp

; 87   : 	return ((typename tr1::_Remove_reference<_Ty>::_Type&&)_Arg);

  00003	8b 45 08	 mov	 eax, DWORD PTR __Arg$[ebp]

; 88   : 	}

  00006	5d		 pop	 ebp
  00007	c3		 ret	 0
??$move@AAPAVTUnionInfo@@@std@@YA$$QAPAVTUnionInfo@@AAPAV1@@Z ENDP ; std::move<TUnionInfo * &>
_TEXT	ENDS
PUBLIC	??$?0U?$pair@$$CBHPAVTUnionInfo@@@std@@@?$allocator@U_Node@?$_Tree_nod@V?$_Tmap_traits@HPAVTUnionInfo@@U?$less@H@std@@V?$allocator@U?$pair@$$CBHPAVTUnionInfo@@@std@@@3@$0A@@std@@@std@@@std@@QAE@ABV?$allocator@U?$pair@$$CBHPAVTUnionInfo@@@std@@@1@@Z ; std::allocator<std::_Tree_nod<std::_Tmap_traits<int,TUnionInfo *,std::less<int>,std::allocator<std::pair<int const ,TUnionInfo *> >,0> >::_Node>::allocator<std::_Tree_nod<std::_Tmap_traits<int,TUnionInfo *,std::less<int>,std::allocator<std::pair<int const ,TUnionInfo *> >,0> >::_Node><std::pair<int const ,TUnionInfo *> >
; Function compile flags: /Ogtp
; File c:\program files (x86)\microsoft visual studio 10.0\vc\include\xmemory
;	COMDAT ??$?0U?$pair@$$CBHPAVTUnionInfo@@@std@@@?$allocator@U_Node@?$_Tree_nod@V?$_Tmap_traits@HPAVTUnionInfo@@U?$less@H@std@@V?$allocator@U?$pair@$$CBHPAVTUnionInfo@@@std@@@3@$0A@@std@@@std@@@std@@QAE@ABV?$allocator@U?$pair@$$CBHPAVTUnionInfo@@@std@@@1@@Z
_TEXT	SEGMENT
___formal$ = 8						; size = 4
??$?0U?$pair@$$CBHPAVTUnionInfo@@@std@@@?$allocator@U_Node@?$_Tree_nod@V?$_Tmap_traits@HPAVTUnionInfo@@U?$less@H@std@@V?$allocator@U?$pair@$$CBHPAVTUnionInfo@@@std@@@3@$0A@@std@@@std@@@std@@QAE@ABV?$allocator@U?$pair@$$CBHPAVTUnionInfo@@@std@@@1@@Z PROC ; std::allocator<std::_Tree_nod<std::_Tmap_traits<int,TUnionInfo *,std::less<int>,std::allocator<std::pair<int const ,TUnionInfo *> >,0> >::_Node>::allocator<std::_Tree_nod<std::_Tmap_traits<int,TUnionInfo *,std::less<int>,std::allocator<std::pair<int const ,TUnionInfo *> >,0> >::_Node><std::pair<int const ,TUnionInfo *> >, COMDAT
; _this$ = ecx

; 170  : 		_ALLOCATOR(const _ALLOCATOR<_Other>&) _THROW0()

  00000	8b c1		 mov	 eax, ecx

; 171  : 		{	// construct from a related allocator (do nothing)
; 172  : 		}

  00002	c2 04 00	 ret	 4
??$?0U?$pair@$$CBHPAVTUnionInfo@@@std@@@?$allocator@U_Node@?$_Tree_nod@V?$_Tmap_traits@HPAVTUnionInfo@@U?$less@H@std@@V?$allocator@U?$pair@$$CBHPAVTUnionInfo@@@std@@@3@$0A@@std@@@std@@@std@@QAE@ABV?$allocator@U?$pair@$$CBHPAVTUnionInfo@@@std@@@1@@Z ENDP ; std::allocator<std::_Tree_nod<std::_Tmap_traits<int,TUnionInfo *,std::less<int>,std::allocator<std::pair<int const ,TUnionInfo *> >,0> >::_Node>::allocator<std::_Tree_nod<std::_Tmap_traits<int,TUnionInfo *,std::less<int>,std::allocator<std::pair<int const ,TUnionInfo *> >,0> >::_Node><std::pair<int const ,TUnionInfo *> >
_TEXT	ENDS
PUBLIC	?size@?$_Tree@V?$_Tmap_traits@HPAVTUnionInfo@@U?$less@H@std@@V?$allocator@U?$pair@$$CBHPAVTUnionInfo@@@std@@@3@$0A@@std@@@std@@QBEIXZ ; std::_Tree<std::_Tmap_traits<int,TUnionInfo *,std::less<int>,std::allocator<std::pair<int const ,TUnionInfo *> >,0> >::size
; Function compile flags: /Ogtp
; File c:\program files (x86)\microsoft visual studio 10.0\vc\include\xtree
;	COMDAT ?size@?$_Tree@V?$_Tmap_traits@HPAVTUnionInfo@@U?$less@H@std@@V?$allocator@U?$pair@$$CBHPAVTUnionInfo@@@std@@@3@$0A@@std@@@std@@QBEIXZ
_TEXT	SEGMENT
?size@?$_Tree@V?$_Tmap_traits@HPAVTUnionInfo@@U?$less@H@std@@V?$allocator@U?$pair@$$CBHPAVTUnionInfo@@@std@@@3@$0A@@std@@@std@@QBEIXZ PROC ; std::_Tree<std::_Tmap_traits<int,TUnionInfo *,std::less<int>,std::allocator<std::pair<int const ,TUnionInfo *> >,0> >::size, COMDAT
; _this$ = ecx

; 869  : 		return (this->_Mysize);

  00000	8b 41 08	 mov	 eax, DWORD PTR [ecx+8]

; 870  : 		}

  00003	c3		 ret	 0
?size@?$_Tree@V?$_Tmap_traits@HPAVTUnionInfo@@U?$less@H@std@@V?$allocator@U?$pair@$$CBHPAVTUnionInfo@@@std@@@3@$0A@@std@@@std@@QBEIXZ ENDP ; std::_Tree<std::_Tmap_traits<int,TUnionInfo *,std::less<int>,std::allocator<std::pair<int const ,TUnionInfo *> >,0> >::size
_TEXT	ENDS
PUBLIC	??F?$_Tree_unchecked_const_iterator@V?$_Tree_val@V?$_Tmap_traits@HPAVTUnionInfo@@U?$less@H@std@@V?$allocator@U?$pair@$$CBHPAVTUnionInfo@@@std@@@3@$0A@@std@@@std@@U_Iterator_base0@2@@std@@QAEAAV01@XZ ; std::_Tree_unchecked_const_iterator<std::_Tree_val<std::_Tmap_traits<int,TUnionInfo *,std::less<int>,std::allocator<std::pair<int const ,TUnionInfo *> >,0> >,std::_Iterator_base0>::operator--
; Function compile flags: /Ogtp
;	COMDAT ??F?$_Tree_unchecked_const_iterator@V?$_Tree_val@V?$_Tmap_traits@HPAVTUnionInfo@@U?$less@H@std@@V?$allocator@U?$pair@$$CBHPAVTUnionInfo@@@std@@@3@$0A@@std@@@std@@U_Iterator_base0@2@@std@@QAEAAV01@XZ
_TEXT	SEGMENT
??F?$_Tree_unchecked_const_iterator@V?$_Tree_val@V?$_Tmap_traits@HPAVTUnionInfo@@U?$less@H@std@@V?$allocator@U?$pair@$$CBHPAVTUnionInfo@@@std@@@3@$0A@@std@@@std@@U_Iterator_base0@2@@std@@QAEAAV01@XZ PROC ; std::_Tree_unchecked_const_iterator<std::_Tree_val<std::_Tmap_traits<int,TUnionInfo *,std::less<int>,std::allocator<std::pair<int const ,TUnionInfo *> >,0> >,std::_Iterator_base0>::operator--, COMDAT
; _this$ = ecx

; 83   : 		{	// predecrement

  00000	8b c1		 mov	 eax, ecx

; 84   : 		if (_Mytree::_Isnil(_Ptr))

  00002	8b 08		 mov	 ecx, DWORD PTR [eax]
  00004	80 79 15 00	 cmp	 BYTE PTR [ecx+21], 0
  00008	74 06		 je	 SHORT $LN8@operator

; 85   : 			_Ptr = _Mytree::_Right(_Ptr);	// end() ==> rightmost

  0000a	8b 49 08	 mov	 ecx, DWORD PTR [ecx+8]
  0000d	89 08		 mov	 DWORD PTR [eax], ecx

; 99   : 			}
; 100  : 		return (*this);
; 101  : 		}

  0000f	c3		 ret	 0
$LN8@operator:

; 86   : 		else if (!_Mytree::_Isnil(_Mytree::_Left(_Ptr)))

  00010	8b 11		 mov	 edx, DWORD PTR [ecx]
  00012	80 7a 15 00	 cmp	 BYTE PTR [edx+21], 0
  00016	75 17		 jne	 SHORT $LN40@operator

; 87   : 			_Ptr = _Mytree::_Max(
; 88   : 				_Mytree::_Left(_Ptr));	// ==> largest of left subtree

  00018	8b 4a 08	 mov	 ecx, DWORD PTR [edx+8]
  0001b	80 79 15 00	 cmp	 BYTE PTR [ecx+21], 0
  0001f	75 30		 jne	 SHORT $LN21@operator
$LL22@operator:
  00021	8b d1		 mov	 edx, ecx
  00023	8b 4a 08	 mov	 ecx, DWORD PTR [edx+8]
  00026	80 79 15 00	 cmp	 BYTE PTR [ecx+21], 0
  0002a	74 f5		 je	 SHORT $LL22@operator

; 96   : 				;	// begin() shouldn't be decremented, don't move
; 97   : 			else
; 98   : 				_Ptr = _Pnode;	// ==> parent if not head

  0002c	89 10		 mov	 DWORD PTR [eax], edx

; 99   : 			}
; 100  : 		return (*this);
; 101  : 		}

  0002e	c3		 ret	 0
$LN40@operator:

; 89   : 		else
; 90   : 			{	// climb looking for left subtree
; 91   : 			_Nodeptr _Pnode;
; 92   : 			while (!_Mytree::_Isnil(_Pnode = _Mytree::_Parent(_Ptr))
; 93   : 				&& _Ptr == _Mytree::_Left(_Pnode))

  0002f	8b 51 04	 mov	 edx, DWORD PTR [ecx+4]
  00032	80 7a 15 00	 cmp	 BYTE PTR [edx+21], 0
  00036	75 11		 jne	 SHORT $LN3@operator
$LL4@operator:
  00038	8b 08		 mov	 ecx, DWORD PTR [eax]
  0003a	3b 0a		 cmp	 ecx, DWORD PTR [edx]
  0003c	75 0b		 jne	 SHORT $LN3@operator

; 94   : 				_Ptr = _Pnode;	// ==> parent while left subtree

  0003e	89 10		 mov	 DWORD PTR [eax], edx
  00040	8b 52 04	 mov	 edx, DWORD PTR [edx+4]
  00043	80 7a 15 00	 cmp	 BYTE PTR [edx+21], 0
  00047	74 ef		 je	 SHORT $LL4@operator
$LN3@operator:

; 95   : 			if (_Mytree::_Isnil(_Ptr))

  00049	8b 08		 mov	 ecx, DWORD PTR [eax]
  0004b	80 79 15 00	 cmp	 BYTE PTR [ecx+21], 0
  0004f	75 02		 jne	 SHORT $LN1@operator

; 87   : 			_Ptr = _Mytree::_Max(
; 88   : 				_Mytree::_Left(_Ptr));	// ==> largest of left subtree

$LN21@operator:

; 96   : 				;	// begin() shouldn't be decremented, don't move
; 97   : 			else
; 98   : 				_Ptr = _Pnode;	// ==> parent if not head

  00051	89 10		 mov	 DWORD PTR [eax], edx
$LN1@operator:

; 99   : 			}
; 100  : 		return (*this);
; 101  : 		}

  00053	c3		 ret	 0
??F?$_Tree_unchecked_const_iterator@V?$_Tree_val@V?$_Tmap_traits@HPAVTUnionInfo@@U?$less@H@std@@V?$allocator@U?$pair@$$CBHPAVTUnionInfo@@@std@@@3@$0A@@std@@@std@@U_Iterator_base0@2@@std@@QAEAAV01@XZ ENDP ; std::_Tree_unchecked_const_iterator<std::_Tree_val<std::_Tmap_traits<int,TUnionInfo *,std::less<int>,std::allocator<std::pair<int const ,TUnionInfo *> >,0> >,std::_Iterator_base0>::operator--
_TEXT	ENDS
PUBLIC	?max_size@?$allocator@U?$pair@$$CBHPAVTUnionInfo@@@std@@@std@@QBEIXZ ; std::allocator<std::pair<int const ,TUnionInfo *> >::max_size
; Function compile flags: /Ogtp
; File c:\program files (x86)\microsoft visual studio 10.0\vc\include\xmemory
;	COMDAT ?max_size@?$allocator@U?$pair@$$CBHPAVTUnionInfo@@@std@@@std@@QBEIXZ
_TEXT	SEGMENT
?max_size@?$allocator@U?$pair@$$CBHPAVTUnionInfo@@@std@@@std@@QBEIXZ PROC ; std::allocator<std::pair<int const ,TUnionInfo *> >::max_size, COMDAT
; _this$ = ecx

; 218  : 		_SIZT _Count = (_SIZT)(-1) / sizeof (_Ty);
; 219  : 		return (0 < _Count ? _Count : 1);

  00000	b8 ff ff ff 1f	 mov	 eax, 536870911		; 1fffffffH

; 220  : 		}

  00005	c3		 ret	 0
?max_size@?$allocator@U?$pair@$$CBHPAVTUnionInfo@@@std@@@std@@QBEIXZ ENDP ; std::allocator<std::pair<int const ,TUnionInfo *> >::max_size
_TEXT	ENDS
PUBLIC	??$forward@AAH@std@@YAAAHAAH@Z			; std::forward<int &>
; Function compile flags: /Ogtp
; File c:\program files (x86)\microsoft visual studio 10.0\vc\include\utility
;	COMDAT ??$forward@AAH@std@@YAAAHAAH@Z
_TEXT	SEGMENT
__Arg$ = 8						; size = 4
??$forward@AAH@std@@YAAAHAAH@Z PROC			; std::forward<int &>, COMDAT

; 78   : 	{	// forward _Arg, given explicitly specified type parameter

  00000	55		 push	 ebp
  00001	8b ec		 mov	 ebp, esp

; 79   : 	return ((_Ty&&)_Arg);

  00003	8b 45 08	 mov	 eax, DWORD PTR __Arg$[ebp]

; 80   : 	}

  00006	5d		 pop	 ebp
  00007	c3		 ret	 0
??$forward@AAH@std@@YAAAHAAH@Z ENDP			; std::forward<int &>
_TEXT	ENDS
PUBLIC	??$construct@AAH@?$allocator@H@std@@QAEXPAHAAH@Z ; std::allocator<int>::construct<int &>
; Function compile flags: /Ogtp
; File c:\program files (x86)\microsoft visual studio 10.0\vc\include\xmemory
;	COMDAT ??$construct@AAH@?$allocator@H@std@@QAEXPAHAAH@Z
_TEXT	SEGMENT
__Ptr$ = 8						; size = 4
__Val$ = 12						; size = 4
??$construct@AAH@?$allocator@H@std@@QAEXPAHAAH@Z PROC	; std::allocator<int>::construct<int &>, COMDAT
; _this$ = ecx

; 206  : 		void construct(pointer _Ptr, _Other&& _Val)

  00000	55		 push	 ebp
  00001	8b ec		 mov	 ebp, esp

; 207  : 		{	// construct object at _Ptr with value _Val
; 208  : 		::new ((void _FARQ *)_Ptr) _Ty(_STD forward<_Other>(_Val));

  00003	8b 45 08	 mov	 eax, DWORD PTR __Ptr$[ebp]
  00006	85 c0		 test	 eax, eax
  00008	74 07		 je	 SHORT $LN3@construct
  0000a	8b 4d 0c	 mov	 ecx, DWORD PTR __Val$[ebp]
  0000d	8b 11		 mov	 edx, DWORD PTR [ecx]
  0000f	89 10		 mov	 DWORD PTR [eax], edx
$LN3@construct:

; 209  : 		}

  00011	5d		 pop	 ebp
  00012	c2 08 00	 ret	 8
??$construct@AAH@?$allocator@H@std@@QAEXPAHAAH@Z ENDP	; std::allocator<int>::construct<int &>
_TEXT	ENDS
PUBLIC	??$forward@ABH@std@@YAABHABH@Z			; std::forward<int const &>
; Function compile flags: /Ogtp
; File c:\program files (x86)\microsoft visual studio 10.0\vc\include\utility
;	COMDAT ??$forward@ABH@std@@YAABHABH@Z
_TEXT	SEGMENT
__Arg$ = 8						; size = 4
??$forward@ABH@std@@YAABHABH@Z PROC			; std::forward<int const &>, COMDAT

; 78   : 	{	// forward _Arg, given explicitly specified type parameter

  00000	55		 push	 ebp
  00001	8b ec		 mov	 ebp, esp

; 79   : 	return ((_Ty&&)_Arg);

  00003	8b 45 08	 mov	 eax, DWORD PTR __Arg$[ebp]

; 80   : 	}

  00006	5d		 pop	 ebp
  00007	c3		 ret	 0
??$forward@ABH@std@@YAABHABH@Z ENDP			; std::forward<int const &>
_TEXT	ENDS
PUBLIC	??$forward@U?$pair@$$CBHPAVTUnionInfo@@@std@@@std@@YA$$QAU?$pair@$$CBHPAVTUnionInfo@@@0@AAU10@@Z ; std::forward<std::pair<int const ,TUnionInfo *> >
; Function compile flags: /Ogtp
;	COMDAT ??$forward@U?$pair@$$CBHPAVTUnionInfo@@@std@@@std@@YA$$QAU?$pair@$$CBHPAVTUnionInfo@@@0@AAU10@@Z
_TEXT	SEGMENT
__Arg$ = 8						; size = 4
??$forward@U?$pair@$$CBHPAVTUnionInfo@@@std@@@std@@YA$$QAU?$pair@$$CBHPAVTUnionInfo@@@0@AAU10@@Z PROC ; std::forward<std::pair<int const ,TUnionInfo *> >, COMDAT

; 78   : 	{	// forward _Arg, given explicitly specified type parameter

  00000	55		 push	 ebp
  00001	8b ec		 mov	 ebp, esp

; 79   : 	return ((_Ty&&)_Arg);

  00003	8b 45 08	 mov	 eax, DWORD PTR __Arg$[ebp]

; 80   : 	}

  00006	5d		 pop	 ebp
  00007	c3		 ret	 0
??$forward@U?$pair@$$CBHPAVTUnionInfo@@@std@@@std@@YA$$QAU?$pair@$$CBHPAVTUnionInfo@@@0@AAU10@@Z ENDP ; std::forward<std::pair<int const ,TUnionInfo *> >
_TEXT	ENDS
PUBLIC	??$_Iter_cat@V?$_Tree_iterator@V?$_Tree_val@V?$_Tmap_traits@HPAVTUnionInfo@@U?$less@H@std@@V?$allocator@U?$pair@$$CBHPAVTUnionInfo@@@std@@@3@$0A@@std@@@std@@@std@@@std@@YA?AUbidirectional_iterator_tag@0@ABV?$_Tree_iterator@V?$_Tree_val@V?$_Tmap_traits@HPAVTUnionInfo@@U?$less@H@std@@V?$allocator@U?$pair@$$CBHPAVTUnionInfo@@@std@@@3@$0A@@std@@@std@@@0@@Z ; std::_Iter_cat<std::_Tree_iterator<std::_Tree_val<std::_Tmap_traits<int,TUnionInfo *,std::less<int>,std::allocator<std::pair<int const ,TUnionInfo *> >,0> > > >
; Function compile flags: /Ogtp
; File c:\program files (x86)\microsoft visual studio 10.0\vc\include\xutility
;	COMDAT ??$_Iter_cat@V?$_Tree_iterator@V?$_Tree_val@V?$_Tmap_traits@HPAVTUnionInfo@@U?$less@H@std@@V?$allocator@U?$pair@$$CBHPAVTUnionInfo@@@std@@@3@$0A@@std@@@std@@@std@@@std@@YA?AUbidirectional_iterator_tag@0@ABV?$_Tree_iterator@V?$_Tree_val@V?$_Tmap_traits@HPAVTUnionInfo@@U?$less@H@std@@V?$allocator@U?$pair@$$CBHPAVTUnionInfo@@@std@@@3@$0A@@std@@@std@@@0@@Z
_TEXT	SEGMENT
___$ReturnUdt$ = 8					; size = 4
___formal$ = 12						; size = 4
??$_Iter_cat@V?$_Tree_iterator@V?$_Tree_val@V?$_Tmap_traits@HPAVTUnionInfo@@U?$less@H@std@@V?$allocator@U?$pair@$$CBHPAVTUnionInfo@@@std@@@3@$0A@@std@@@std@@@std@@@std@@YA?AUbidirectional_iterator_tag@0@ABV?$_Tree_iterator@V?$_Tree_val@V?$_Tmap_traits@HPAVTUnionInfo@@U?$less@H@std@@V?$allocator@U?$pair@$$CBHPAVTUnionInfo@@@std@@@3@$0A@@std@@@std@@@0@@Z PROC ; std::_Iter_cat<std::_Tree_iterator<std::_Tree_val<std::_Tmap_traits<int,TUnionInfo *,std::less<int>,std::allocator<std::pair<int const ,TUnionInfo *> >,0> > > >, COMDAT

; 476  : 	{	// return category from iterator argument

  00000	55		 push	 ebp
  00001	8b ec		 mov	 ebp, esp

; 477  : 	typename iterator_traits<_Iter>::iterator_category _Cat;
; 478  : 	return (_Cat);

  00003	8b 45 08	 mov	 eax, DWORD PTR ___$ReturnUdt$[ebp]

; 479  : 	}

  00006	5d		 pop	 ebp
  00007	c3		 ret	 0
??$_Iter_cat@V?$_Tree_iterator@V?$_Tree_val@V?$_Tmap_traits@HPAVTUnionInfo@@U?$less@H@std@@V?$allocator@U?$pair@$$CBHPAVTUnionInfo@@@std@@@3@$0A@@std@@@std@@@std@@@std@@YA?AUbidirectional_iterator_tag@0@ABV?$_Tree_iterator@V?$_Tree_val@V?$_Tmap_traits@HPAVTUnionInfo@@U?$less@H@std@@V?$allocator@U?$pair@$$CBHPAVTUnionInfo@@@std@@@3@$0A@@std@@@std@@@0@@Z ENDP ; std::_Iter_cat<std::_Tree_iterator<std::_Tree_val<std::_Tmap_traits<int,TUnionInfo *,std::less<int>,std::allocator<std::pair<int const ,TUnionInfo *> >,0> > > >
_TEXT	ENDS
PUBLIC	??$_Move@AAD@std@@YA$$QADAAD@Z			; std::_Move<char &>
; Function compile flags: /Ogtp
; File c:\program files (x86)\microsoft visual studio 10.0\vc\include\utility
;	COMDAT ??$_Move@AAD@std@@YA$$QADAAD@Z
_TEXT	SEGMENT
__Arg$ = 8						; size = 4
??$_Move@AAD@std@@YA$$QADAAD@Z PROC			; std::_Move<char &>, COMDAT

; 94   : 	{	// forward _Arg as movable

  00000	55		 push	 ebp
  00001	8b ec		 mov	 ebp, esp

; 95   : 	return ((typename tr1::_Remove_reference<_Ty>::_Type&&)_Arg);

  00003	8b 45 08	 mov	 eax, DWORD PTR __Arg$[ebp]

; 96   : 	}

  00006	5d		 pop	 ebp
  00007	c3		 ret	 0
??$_Move@AAD@std@@YA$$QADAAD@Z ENDP			; std::_Move<char &>
_TEXT	ENDS
PUBLIC	??$forward@AAV?$_Tree_iterator@V?$_Tree_val@V?$_Tmap_traits@HPAVTUnionInfo@@U?$less@H@std@@V?$allocator@U?$pair@$$CBHPAVTUnionInfo@@@std@@@3@$0A@@std@@@std@@@std@@@std@@YAAAV?$_Tree_iterator@V?$_Tree_val@V?$_Tmap_traits@HPAVTUnionInfo@@U?$less@H@std@@V?$allocator@U?$pair@$$CBHPAVTUnionInfo@@@std@@@3@$0A@@std@@@std@@@0@AAV10@@Z ; std::forward<std::_Tree_iterator<std::_Tree_val<std::_Tmap_traits<int,TUnionInfo *,std::less<int>,std::allocator<std::pair<int const ,TUnionInfo *> >,0> > > &>
; Function compile flags: /Ogtp
;	COMDAT ??$forward@AAV?$_Tree_iterator@V?$_Tree_val@V?$_Tmap_traits@HPAVTUnionInfo@@U?$less@H@std@@V?$allocator@U?$pair@$$CBHPAVTUnionInfo@@@std@@@3@$0A@@std@@@std@@@std@@@std@@YAAAV?$_Tree_iterator@V?$_Tree_val@V?$_Tmap_traits@HPAVTUnionInfo@@U?$less@H@std@@V?$allocator@U?$pair@$$CBHPAVTUnionInfo@@@std@@@3@$0A@@std@@@std@@@0@AAV10@@Z
_TEXT	SEGMENT
__Arg$ = 8						; size = 4
??$forward@AAV?$_Tree_iterator@V?$_Tree_val@V?$_Tmap_traits@HPAVTUnionInfo@@U?$less@H@std@@V?$allocator@U?$pair@$$CBHPAVTUnionInfo@@@std@@@3@$0A@@std@@@std@@@std@@@std@@YAAAV?$_Tree_iterator@V?$_Tree_val@V?$_Tmap_traits@HPAVTUnionInfo@@U?$less@H@std@@V?$allocator@U?$pair@$$CBHPAVTUnionInfo@@@std@@@3@$0A@@std@@@std@@@0@AAV10@@Z PROC ; std::forward<std::_Tree_iterator<std::_Tree_val<std::_Tmap_traits<int,TUnionInfo *,std::less<int>,std::allocator<std::pair<int const ,TUnionInfo *> >,0> > > &>, COMDAT

; 78   : 	{	// forward _Arg, given explicitly specified type parameter

  00000	55		 push	 ebp
  00001	8b ec		 mov	 ebp, esp

; 79   : 	return ((_Ty&&)_Arg);

  00003	8b 45 08	 mov	 eax, DWORD PTR __Arg$[ebp]

; 80   : 	}

  00006	5d		 pop	 ebp
  00007	c3		 ret	 0
??$forward@AAV?$_Tree_iterator@V?$_Tree_val@V?$_Tmap_traits@HPAVTUnionInfo@@U?$less@H@std@@V?$allocator@U?$pair@$$CBHPAVTUnionInfo@@@std@@@3@$0A@@std@@@std@@@std@@@std@@YAAAV?$_Tree_iterator@V?$_Tree_val@V?$_Tmap_traits@HPAVTUnionInfo@@U?$less@H@std@@V?$allocator@U?$pair@$$CBHPAVTUnionInfo@@@std@@@3@$0A@@std@@@std@@@0@AAV10@@Z ENDP ; std::forward<std::_Tree_iterator<std::_Tree_val<std::_Tmap_traits<int,TUnionInfo *,std::less<int>,std::allocator<std::pair<int const ,TUnionInfo *> >,0> > > &>
_TEXT	ENDS
PUBLIC	??$?0AAV?$_Tree_iterator@V?$_Tree_val@V?$_Tmap_traits@HPAVTUnionInfo@@U?$less@H@std@@V?$allocator@U?$pair@$$CBHPAVTUnionInfo@@@std@@@3@$0A@@std@@@std@@@std@@AAV01@@?$_Pair_base@V?$_Tree_iterator@V?$_Tree_val@V?$_Tmap_traits@HPAVTUnionInfo@@U?$less@H@std@@V?$allocator@U?$pair@$$CBHPAVTUnionInfo@@@std@@@3@$0A@@std@@@std@@@std@@V12@@std@@QAE@AAV?$_Tree_iterator@V?$_Tree_val@V?$_Tmap_traits@HPAVTUnionInfo@@U?$less@H@std@@V?$allocator@U?$pair@$$CBHPAVTUnionInfo@@@std@@@3@$0A@@std@@@std@@@1@0@Z ; std::_Pair_base<std::_Tree_iterator<std::_Tree_val<std::_Tmap_traits<int,TUnionInfo *,std::less<int>,std::allocator<std::pair<int const ,TUnionInfo *> >,0> > >,std::_Tree_iterator<std::_Tree_val<std::_Tmap_traits<int,TUnionInfo *,std::less<int>,std::allocator<std::pair<int const ,TUnionInfo *> >,0> > > >::_Pair_base<std::_Tree_iterator<std::_Tree_val<std::_Tmap_traits<int,TUnionInfo *,std::less<int>,std::allocator<std::pair<int const ,TUnionInfo *> >,0> > >,std::_Tree_iterator<std::_Tree_val<std::_Tmap_traits<int,TUnionInfo *,std::less<int>,std::allocator<std::pair<int const ,TUnionInfo *> >,0> > > ><std::_Tree_iterator<std::_Tree_val<std::_Tmap_traits<int,TUnionInfo *,std::less<int>,std::allocator<std::pair<int const ,TUnionInfo *> >,0> > > &,std::_Tree_iterator<std::_Tree_val<std::_Tmap_traits<int,TUnionInfo *,std::less<int>,std::allocator<std::pair<int const ,TUnionInfo *> >,0> > > &>
; Function compile flags: /Ogtp
;	COMDAT ??$?0AAV?$_Tree_iterator@V?$_Tree_val@V?$_Tmap_traits@HPAVTUnionInfo@@U?$less@H@std@@V?$allocator@U?$pair@$$CBHPAVTUnionInfo@@@std@@@3@$0A@@std@@@std@@@std@@AAV01@@?$_Pair_base@V?$_Tree_iterator@V?$_Tree_val@V?$_Tmap_traits@HPAVTUnionInfo@@U?$less@H@std@@V?$allocator@U?$pair@$$CBHPAVTUnionInfo@@@std@@@3@$0A@@std@@@std@@@std@@V12@@std@@QAE@AAV?$_Tree_iterator@V?$_Tree_val@V?$_Tmap_traits@HPAVTUnionInfo@@U?$less@H@std@@V?$allocator@U?$pair@$$CBHPAVTUnionInfo@@@std@@@3@$0A@@std@@@std@@@1@0@Z
_TEXT	SEGMENT
__Val1$ = 8						; size = 4
__Val2$ = 12						; size = 4
??$?0AAV?$_Tree_iterator@V?$_Tree_val@V?$_Tmap_traits@HPAVTUnionInfo@@U?$less@H@std@@V?$allocator@U?$pair@$$CBHPAVTUnionInfo@@@std@@@3@$0A@@std@@@std@@@std@@AAV01@@?$_Pair_base@V?$_Tree_iterator@V?$_Tree_val@V?$_Tmap_traits@HPAVTUnionInfo@@U?$less@H@std@@V?$allocator@U?$pair@$$CBHPAVTUnionInfo@@@std@@@3@$0A@@std@@@std@@@std@@V12@@std@@QAE@AAV?$_Tree_iterator@V?$_Tree_val@V?$_Tmap_traits@HPAVTUnionInfo@@U?$less@H@std@@V?$allocator@U?$pair@$$CBHPAVTUnionInfo@@@std@@@3@$0A@@std@@@std@@@1@0@Z PROC ; std::_Pair_base<std::_Tree_iterator<std::_Tree_val<std::_Tmap_traits<int,TUnionInfo *,std::less<int>,std::allocator<std::pair<int const ,TUnionInfo *> >,0> > >,std::_Tree_iterator<std::_Tree_val<std::_Tmap_traits<int,TUnionInfo *,std::less<int>,std::allocator<std::pair<int const ,TUnionInfo *> >,0> > > >::_Pair_base<std::_Tree_iterator<std::_Tree_val<std::_Tmap_traits<int,TUnionInfo *,std::less<int>,std::allocator<std::pair<int const ,TUnionInfo *> >,0> > >,std::_Tree_iterator<std::_Tree_val<std::_Tmap_traits<int,TUnionInfo *,std::less<int>,std::allocator<std::pair<int const ,TUnionInfo *> >,0> > > ><std::_Tree_iterator<std::_Tree_val<std::_Tmap_traits<int,TUnionInfo *,std::less<int>,std::allocator<std::pair<int const ,TUnionInfo *> >,0> > > &,std::_Tree_iterator<std::_Tree_val<std::_Tmap_traits<int,TUnionInfo *,std::less<int>,std::allocator<std::pair<int const ,TUnionInfo *> >,0> > > &>, COMDAT
; _this$ = ecx

; 163  : 		{	// construct from moved values

  00000	55		 push	 ebp
  00001	8b ec		 mov	 ebp, esp
  00003	8b c1		 mov	 eax, ecx
  00005	8b 4d 08	 mov	 ecx, DWORD PTR __Val1$[ebp]
  00008	8b 11		 mov	 edx, DWORD PTR [ecx]
  0000a	8b 4d 0c	 mov	 ecx, DWORD PTR __Val2$[ebp]
  0000d	89 10		 mov	 DWORD PTR [eax], edx
  0000f	8b 11		 mov	 edx, DWORD PTR [ecx]
  00011	89 50 04	 mov	 DWORD PTR [eax+4], edx

; 164  : 		}

  00014	5d		 pop	 ebp
  00015	c2 08 00	 ret	 8
??$?0AAV?$_Tree_iterator@V?$_Tree_val@V?$_Tmap_traits@HPAVTUnionInfo@@U?$less@H@std@@V?$allocator@U?$pair@$$CBHPAVTUnionInfo@@@std@@@3@$0A@@std@@@std@@@std@@AAV01@@?$_Pair_base@V?$_Tree_iterator@V?$_Tree_val@V?$_Tmap_traits@HPAVTUnionInfo@@U?$less@H@std@@V?$allocator@U?$pair@$$CBHPAVTUnionInfo@@@std@@@3@$0A@@std@@@std@@@std@@V12@@std@@QAE@AAV?$_Tree_iterator@V?$_Tree_val@V?$_Tmap_traits@HPAVTUnionInfo@@U?$less@H@std@@V?$allocator@U?$pair@$$CBHPAVTUnionInfo@@@std@@@3@$0A@@std@@@std@@@1@0@Z ENDP ; std::_Pair_base<std::_Tree_iterator<std::_Tree_val<std::_Tmap_traits<int,TUnionInfo *,std::less<int>,std::allocator<std::pair<int const ,TUnionInfo *> >,0> > >,std::_Tree_iterator<std::_Tree_val<std::_Tmap_traits<int,TUnionInfo *,std::less<int>,std::allocator<std::pair<int const ,TUnionInfo *> >,0> > > >::_Pair_base<std::_Tree_iterator<std::_Tree_val<std::_Tmap_traits<int,TUnionInfo *,std::less<int>,std::allocator<std::pair<int const ,TUnionInfo *> >,0> > >,std::_Tree_iterator<std::_Tree_val<std::_Tmap_traits<int,TUnionInfo *,std::less<int>,std::allocator<std::pair<int const ,TUnionInfo *> >,0> > > ><std::_Tree_iterator<std::_Tree_val<std::_Tmap_traits<int,TUnionInfo *,std::less<int>,std::allocator<std::pair<int const ,TUnionInfo *> >,0> > > &,std::_Tree_iterator<std::_Tree_val<std::_Tmap_traits<int,TUnionInfo *,std::less<int>,std::allocator<std::pair<int const ,TUnionInfo *> >,0> > > &>
_TEXT	ENDS
PUBLIC	??$_Ptr_cat@HH@std@@YA?AU_Scalar_ptr_iterator_tag@0@PAH0@Z ; std::_Ptr_cat<int,int>
; Function compile flags: /Ogtp
; File c:\program files (x86)\microsoft visual studio 10.0\vc\include\xutility
;	COMDAT ??$_Ptr_cat@HH@std@@YA?AU_Scalar_ptr_iterator_tag@0@PAH0@Z
_TEXT	SEGMENT
__Cat$ = -1						; size = 1
___formal$ = 8						; size = 4
___formal$ = 12						; size = 4
??$_Ptr_cat@HH@std@@YA?AU_Scalar_ptr_iterator_tag@0@PAH0@Z PROC ; std::_Ptr_cat<int,int>, COMDAT

; 516  : 	{	// return pointer category from pointers

  00000	55		 push	 ebp
  00001	8b ec		 mov	 ebp, esp
  00003	51		 push	 ecx

; 517  : 	typename _Ptr_cat_helper<_Elem1, _Elem2>::_Type _Cat;
; 518  : 	return (_Cat);

  00004	8a 45 ff	 mov	 al, BYTE PTR __Cat$[ebp]

; 519  : 	}

  00007	8b e5		 mov	 esp, ebp
  00009	5d		 pop	 ebp
  0000a	c3		 ret	 0
??$_Ptr_cat@HH@std@@YA?AU_Scalar_ptr_iterator_tag@0@PAH0@Z ENDP ; std::_Ptr_cat<int,int>
_TEXT	ENDS
PUBLIC	??$_Destroy_range@V?$allocator@H@std@@@std@@YAXPAH0AAV?$allocator@H@0@U_Scalar_ptr_iterator_tag@0@@Z ; std::_Destroy_range<std::allocator<int> >
; Function compile flags: /Ogtp
; File c:\program files (x86)\microsoft visual studio 10.0\vc\include\xmemory
;	COMDAT ??$_Destroy_range@V?$allocator@H@std@@@std@@YAXPAH0AAV?$allocator@H@0@U_Scalar_ptr_iterator_tag@0@@Z
_TEXT	SEGMENT
__First$ = 8						; size = 4
__Last$ = 12						; size = 4
__Al$ = 16						; size = 4
___formal$ = 20						; size = 1
??$_Destroy_range@V?$allocator@H@std@@@std@@YAXPAH0AAV?$allocator@H@0@U_Scalar_ptr_iterator_tag@0@@Z PROC ; std::_Destroy_range<std::allocator<int> >, COMDAT

; 105  : 	}

  00000	c3		 ret	 0
??$_Destroy_range@V?$allocator@H@std@@@std@@YAXPAH0AAV?$allocator@H@0@U_Scalar_ptr_iterator_tag@0@@Z ENDP ; std::_Destroy_range<std::allocator<int> >
_TEXT	ENDS
PUBLIC	??$_Construct@HABH@std@@YAXPAHABH@Z		; std::_Construct<int,int const &>
; Function compile flags: /Ogtp
;	COMDAT ??$_Construct@HABH@std@@YAXPAHABH@Z
_TEXT	SEGMENT
__Ptr$ = 8						; size = 4
__Val$ = 12						; size = 4
??$_Construct@HABH@std@@YAXPAHABH@Z PROC		; std::_Construct<int,int const &>, COMDAT

; 46   : 	{	// construct object at _Ptr with value _Val

  00000	55		 push	 ebp
  00001	8b ec		 mov	 ebp, esp

; 47   : 	void _FARQ *_Vptr = _Ptr;
; 48   : 	::new (_Vptr) _Ty1(_STD forward<_Ty2>(_Val));

  00003	8b 45 08	 mov	 eax, DWORD PTR __Ptr$[ebp]
  00006	85 c0		 test	 eax, eax
  00008	74 07		 je	 SHORT $LN3@Construct
  0000a	8b 4d 0c	 mov	 ecx, DWORD PTR __Val$[ebp]
  0000d	8b 11		 mov	 edx, DWORD PTR [ecx]
  0000f	89 10		 mov	 DWORD PTR [eax], edx
$LN3@Construct:

; 49   : 	}

  00011	5d		 pop	 ebp
  00012	c3		 ret	 0
??$_Construct@HABH@std@@YAXPAHABH@Z ENDP		; std::_Construct<int,int const &>
_TEXT	ENDS
PUBLIC	??$_Destroy@U?$pair@$$CBHPAVTUnionInfo@@@std@@@std@@YAXPAU?$pair@$$CBHPAVTUnionInfo@@@0@@Z ; std::_Destroy<std::pair<int const ,TUnionInfo *> >
; Function compile flags: /Ogtp
;	COMDAT ??$_Destroy@U?$pair@$$CBHPAVTUnionInfo@@@std@@@std@@YAXPAU?$pair@$$CBHPAVTUnionInfo@@@0@@Z
_TEXT	SEGMENT
__Ptr$ = 8						; size = 4
??$_Destroy@U?$pair@$$CBHPAVTUnionInfo@@@std@@@std@@YAXPAU?$pair@$$CBHPAVTUnionInfo@@@0@@Z PROC ; std::_Destroy<std::pair<int const ,TUnionInfo *> >, COMDAT

; 63   : 	_Ptr->~_Ty();
; 64   : 	}

  00000	c3		 ret	 0
??$_Destroy@U?$pair@$$CBHPAVTUnionInfo@@@std@@@std@@YAXPAU?$pair@$$CBHPAVTUnionInfo@@@0@@Z ENDP ; std::_Destroy<std::pair<int const ,TUnionInfo *> >
_TEXT	ENDS
PUBLIC	??$move@AAV?$_Tree_iterator@V?$_Tree_val@V?$_Tmap_traits@HPAVTUnionInfo@@U?$less@H@std@@V?$allocator@U?$pair@$$CBHPAVTUnionInfo@@@std@@@3@$0A@@std@@@std@@@std@@@std@@YA$$QAV?$_Tree_iterator@V?$_Tree_val@V?$_Tmap_traits@HPAVTUnionInfo@@U?$less@H@std@@V?$allocator@U?$pair@$$CBHPAVTUnionInfo@@@std@@@3@$0A@@std@@@std@@@0@AAV10@@Z ; std::move<std::_Tree_iterator<std::_Tree_val<std::_Tmap_traits<int,TUnionInfo *,std::less<int>,std::allocator<std::pair<int const ,TUnionInfo *> >,0> > > &>
; Function compile flags: /Ogtp
; File c:\program files (x86)\microsoft visual studio 10.0\vc\include\utility
;	COMDAT ??$move@AAV?$_Tree_iterator@V?$_Tree_val@V?$_Tmap_traits@HPAVTUnionInfo@@U?$less@H@std@@V?$allocator@U?$pair@$$CBHPAVTUnionInfo@@@std@@@3@$0A@@std@@@std@@@std@@@std@@YA$$QAV?$_Tree_iterator@V?$_Tree_val@V?$_Tmap_traits@HPAVTUnionInfo@@U?$less@H@std@@V?$allocator@U?$pair@$$CBHPAVTUnionInfo@@@std@@@3@$0A@@std@@@std@@@0@AAV10@@Z
_TEXT	SEGMENT
__Arg$ = 8						; size = 4
??$move@AAV?$_Tree_iterator@V?$_Tree_val@V?$_Tmap_traits@HPAVTUnionInfo@@U?$less@H@std@@V?$allocator@U?$pair@$$CBHPAVTUnionInfo@@@std@@@3@$0A@@std@@@std@@@std@@@std@@YA$$QAV?$_Tree_iterator@V?$_Tree_val@V?$_Tmap_traits@HPAVTUnionInfo@@U?$less@H@std@@V?$allocator@U?$pair@$$CBHPAVTUnionInfo@@@std@@@3@$0A@@std@@@std@@@0@AAV10@@Z PROC ; std::move<std::_Tree_iterator<std::_Tree_val<std::_Tmap_traits<int,TUnionInfo *,std::less<int>,std::allocator<std::pair<int const ,TUnionInfo *> >,0> > > &>, COMDAT

; 86   : 	{	// forward _Arg as movable

  00000	55		 push	 ebp
  00001	8b ec		 mov	 ebp, esp

; 87   : 	return ((typename tr1::_Remove_reference<_Ty>::_Type&&)_Arg);

  00003	8b 45 08	 mov	 eax, DWORD PTR __Arg$[ebp]

; 88   : 	}

  00006	5d		 pop	 ebp
  00007	c3		 ret	 0
??$move@AAV?$_Tree_iterator@V?$_Tree_val@V?$_Tmap_traits@HPAVTUnionInfo@@U?$less@H@std@@V?$allocator@U?$pair@$$CBHPAVTUnionInfo@@@std@@@3@$0A@@std@@@std@@@std@@@std@@YA$$QAV?$_Tree_iterator@V?$_Tree_val@V?$_Tmap_traits@HPAVTUnionInfo@@U?$less@H@std@@V?$allocator@U?$pair@$$CBHPAVTUnionInfo@@@std@@@3@$0A@@std@@@std@@@0@AAV10@@Z ENDP ; std::move<std::_Tree_iterator<std::_Tree_val<std::_Tmap_traits<int,TUnionInfo *,std::less<int>,std::allocator<std::pair<int const ,TUnionInfo *> >,0> > > &>
_TEXT	ENDS
PUBLIC	??$move@AA_N@std@@YA$$QA_NAA_N@Z		; std::move<bool &>
; Function compile flags: /Ogtp
;	COMDAT ??$move@AA_N@std@@YA$$QA_NAA_N@Z
_TEXT	SEGMENT
__Arg$ = 8						; size = 4
??$move@AA_N@std@@YA$$QA_NAA_N@Z PROC			; std::move<bool &>, COMDAT

; 86   : 	{	// forward _Arg as movable

  00000	55		 push	 ebp
  00001	8b ec		 mov	 ebp, esp

; 87   : 	return ((typename tr1::_Remove_reference<_Ty>::_Type&&)_Arg);

  00003	8b 45 08	 mov	 eax, DWORD PTR __Arg$[ebp]

; 88   : 	}

  00006	5d		 pop	 ebp
  00007	c3		 ret	 0
??$move@AA_N@std@@YA$$QA_NAA_N@Z ENDP			; std::move<bool &>
_TEXT	ENDS
PUBLIC	??$_Val_type@PAH@std@@YAPAHPAH@Z		; std::_Val_type<int *>
; Function compile flags: /Ogtp
; File c:\program files (x86)\microsoft visual studio 10.0\vc\include\xutility
;	COMDAT ??$_Val_type@PAH@std@@YAPAHPAH@Z
_TEXT	SEGMENT
___formal$ = 8						; size = 4
??$_Val_type@PAH@std@@YAPAHPAH@Z PROC			; std::_Val_type<int *>, COMDAT

; 790  : 	return (0);

  00000	33 c0		 xor	 eax, eax

; 791  : 	}

  00002	c3		 ret	 0
??$_Val_type@PAH@std@@YAPAHPAH@Z ENDP			; std::_Val_type<int *>
_TEXT	ENDS
PUBLIC	??$_Uninit_move@HHH@std@@YAPAHPAH00AAV?$allocator@H@0@0U_Scalar_ptr_iterator_tag@0@@Z ; std::_Uninit_move<int,int,int>
EXTRN	_memmove:PROC
; Function compile flags: /Ogtp
; File c:\program files (x86)\microsoft visual studio 10.0\vc\include\memory
;	COMDAT ??$_Uninit_move@HHH@std@@YAPAHPAH00AAV?$allocator@H@0@0U_Scalar_ptr_iterator_tag@0@@Z
_TEXT	SEGMENT
__First$ = 8						; size = 4
__Last$ = 12						; size = 4
__Dest$ = 16						; size = 4
___formal$ = 20						; size = 4
___formal$ = 24						; size = 4
___formal$ = 28						; size = 1
??$_Uninit_move@HHH@std@@YAPAHPAH00AAV?$allocator@H@0@0U_Scalar_ptr_iterator_tag@0@@Z PROC ; std::_Uninit_move<int,int,int>, COMDAT

; 456  : 	{	// move [_First, _Last) to raw _Dest, scalar type

  00000	55		 push	 ebp
  00001	8b ec		 mov	 ebp, esp

; 457  : 	_DEBUG_RANGE(_First, _Last);
; 458  : 	_DEBUG_POINTER(_Dest);
; 459  : 	size_t _Count = (size_t)(_Last - _First);

  00003	8b 4d 08	 mov	 ecx, DWORD PTR __First$[ebp]
  00006	8b 45 0c	 mov	 eax, DWORD PTR __Last$[ebp]
  00009	2b c1		 sub	 eax, ecx
  0000b	56		 push	 esi
  0000c	c1 f8 02	 sar	 eax, 2

; 460  : 	return ((_Ty2 *)_CSTD memmove(&*_Dest, &*_First,
; 461  : 		_Count * sizeof (*_First)) + _Count);	// NB: non-overlapping move

  0000f	8d 34 85 00 00
	00 00		 lea	 esi, DWORD PTR [eax*4]
  00016	8b 45 10	 mov	 eax, DWORD PTR __Dest$[ebp]
  00019	56		 push	 esi
  0001a	51		 push	 ecx
  0001b	50		 push	 eax
  0001c	e8 00 00 00 00	 call	 _memmove
  00021	83 c4 0c	 add	 esp, 12			; 0000000cH
  00024	03 c6		 add	 eax, esi
  00026	5e		 pop	 esi

; 462  : 	}

  00027	5d		 pop	 ebp
  00028	c3		 ret	 0
??$_Uninit_move@HHH@std@@YAPAHPAH00AAV?$allocator@H@0@0U_Scalar_ptr_iterator_tag@0@@Z ENDP ; std::_Uninit_move<int,int,int>
_TEXT	ENDS
PUBLIC	??$forward@_N@std@@YA$$QA_NAA_N@Z		; std::forward<bool>
; Function compile flags: /Ogtp
; File c:\program files (x86)\microsoft visual studio 10.0\vc\include\utility
;	COMDAT ??$forward@_N@std@@YA$$QA_NAA_N@Z
_TEXT	SEGMENT
__Arg$ = 8						; size = 4
??$forward@_N@std@@YA$$QA_NAA_N@Z PROC			; std::forward<bool>, COMDAT

; 78   : 	{	// forward _Arg, given explicitly specified type parameter

  00000	55		 push	 ebp
  00001	8b ec		 mov	 ebp, esp

; 79   : 	return ((_Ty&&)_Arg);

  00003	8b 45 08	 mov	 eax, DWORD PTR __Arg$[ebp]

; 80   : 	}

  00006	5d		 pop	 ebp
  00007	c3		 ret	 0
??$forward@_N@std@@YA$$QA_NAA_N@Z ENDP			; std::forward<bool>
_TEXT	ENDS
PUBLIC	??$?0AAV?$_Tree_iterator@V?$_Tree_val@V?$_Tmap_traits@HPAVTUnionInfo@@U?$less@H@std@@V?$allocator@U?$pair@$$CBHPAVTUnionInfo@@@std@@@3@$0A@@std@@@std@@@std@@_N@?$_Pair_base@V?$_Tree_iterator@V?$_Tree_val@V?$_Tmap_traits@HPAVTUnionInfo@@U?$less@H@std@@V?$allocator@U?$pair@$$CBHPAVTUnionInfo@@@std@@@3@$0A@@std@@@std@@@std@@_N@std@@QAE@AAV?$_Tree_iterator@V?$_Tree_val@V?$_Tmap_traits@HPAVTUnionInfo@@U?$less@H@std@@V?$allocator@U?$pair@$$CBHPAVTUnionInfo@@@std@@@3@$0A@@std@@@std@@@1@$$QA_N@Z ; std::_Pair_base<std::_Tree_iterator<std::_Tree_val<std::_Tmap_traits<int,TUnionInfo *,std::less<int>,std::allocator<std::pair<int const ,TUnionInfo *> >,0> > >,bool>::_Pair_base<std::_Tree_iterator<std::_Tree_val<std::_Tmap_traits<int,TUnionInfo *,std::less<int>,std::allocator<std::pair<int const ,TUnionInfo *> >,0> > >,bool><std::_Tree_iterator<std::_Tree_val<std::_Tmap_traits<int,TUnionInfo *,std::less<int>,std::allocator<std::pair<int const ,TUnionInfo *> >,0> > > &,bool>
; Function compile flags: /Ogtp
;	COMDAT ??$?0AAV?$_Tree_iterator@V?$_Tree_val@V?$_Tmap_traits@HPAVTUnionInfo@@U?$less@H@std@@V?$allocator@U?$pair@$$CBHPAVTUnionInfo@@@std@@@3@$0A@@std@@@std@@@std@@_N@?$_Pair_base@V?$_Tree_iterator@V?$_Tree_val@V?$_Tmap_traits@HPAVTUnionInfo@@U?$less@H@std@@V?$allocator@U?$pair@$$CBHPAVTUnionInfo@@@std@@@3@$0A@@std@@@std@@@std@@_N@std@@QAE@AAV?$_Tree_iterator@V?$_Tree_val@V?$_Tmap_traits@HPAVTUnionInfo@@U?$less@H@std@@V?$allocator@U?$pair@$$CBHPAVTUnionInfo@@@std@@@3@$0A@@std@@@std@@@1@$$QA_N@Z
_TEXT	SEGMENT
__Val1$ = 8						; size = 4
__Val2$ = 12						; size = 4
??$?0AAV?$_Tree_iterator@V?$_Tree_val@V?$_Tmap_traits@HPAVTUnionInfo@@U?$less@H@std@@V?$allocator@U?$pair@$$CBHPAVTUnionInfo@@@std@@@3@$0A@@std@@@std@@@std@@_N@?$_Pair_base@V?$_Tree_iterator@V?$_Tree_val@V?$_Tmap_traits@HPAVTUnionInfo@@U?$less@H@std@@V?$allocator@U?$pair@$$CBHPAVTUnionInfo@@@std@@@3@$0A@@std@@@std@@@std@@_N@std@@QAE@AAV?$_Tree_iterator@V?$_Tree_val@V?$_Tmap_traits@HPAVTUnionInfo@@U?$less@H@std@@V?$allocator@U?$pair@$$CBHPAVTUnionInfo@@@std@@@3@$0A@@std@@@std@@@1@$$QA_N@Z PROC ; std::_Pair_base<std::_Tree_iterator<std::_Tree_val<std::_Tmap_traits<int,TUnionInfo *,std::less<int>,std::allocator<std::pair<int const ,TUnionInfo *> >,0> > >,bool>::_Pair_base<std::_Tree_iterator<std::_Tree_val<std::_Tmap_traits<int,TUnionInfo *,std::less<int>,std::allocator<std::pair<int const ,TUnionInfo *> >,0> > >,bool><std::_Tree_iterator<std::_Tree_val<std::_Tmap_traits<int,TUnionInfo *,std::less<int>,std::allocator<std::pair<int const ,TUnionInfo *> >,0> > > &,bool>, COMDAT
; _this$ = ecx

; 163  : 		{	// construct from moved values

  00000	55		 push	 ebp
  00001	8b ec		 mov	 ebp, esp
  00003	8b c1		 mov	 eax, ecx
  00005	8b 4d 08	 mov	 ecx, DWORD PTR __Val1$[ebp]
  00008	8b 11		 mov	 edx, DWORD PTR [ecx]
  0000a	8b 4d 0c	 mov	 ecx, DWORD PTR __Val2$[ebp]
  0000d	89 10		 mov	 DWORD PTR [eax], edx
  0000f	8a 11		 mov	 dl, BYTE PTR [ecx]
  00011	88 50 04	 mov	 BYTE PTR [eax+4], dl

; 164  : 		}

  00014	5d		 pop	 ebp
  00015	c2 08 00	 ret	 8
??$?0AAV?$_Tree_iterator@V?$_Tree_val@V?$_Tmap_traits@HPAVTUnionInfo@@U?$less@H@std@@V?$allocator@U?$pair@$$CBHPAVTUnionInfo@@@std@@@3@$0A@@std@@@std@@@std@@_N@?$_Pair_base@V?$_Tree_iterator@V?$_Tree_val@V?$_Tmap_traits@HPAVTUnionInfo@@U?$less@H@std@@V?$allocator@U?$pair@$$CBHPAVTUnionInfo@@@std@@@3@$0A@@std@@@std@@@std@@_N@std@@QAE@AAV?$_Tree_iterator@V?$_Tree_val@V?$_Tmap_traits@HPAVTUnionInfo@@U?$less@H@std@@V?$allocator@U?$pair@$$CBHPAVTUnionInfo@@@std@@@3@$0A@@std@@@std@@@1@$$QA_N@Z ENDP ; std::_Pair_base<std::_Tree_iterator<std::_Tree_val<std::_Tmap_traits<int,TUnionInfo *,std::less<int>,std::allocator<std::pair<int const ,TUnionInfo *> >,0> > >,bool>::_Pair_base<std::_Tree_iterator<std::_Tree_val<std::_Tmap_traits<int,TUnionInfo *,std::less<int>,std::allocator<std::pair<int const ,TUnionInfo *> >,0> > >,bool><std::_Tree_iterator<std::_Tree_val<std::_Tmap_traits<int,TUnionInfo *,std::less<int>,std::allocator<std::pair<int const ,TUnionInfo *> >,0> > > &,bool>
_TEXT	ENDS
PUBLIC	??$forward@$$CBH@std@@YA$$QBHABH@Z		; std::forward<int const >
; Function compile flags: /Ogtp
;	COMDAT ??$forward@$$CBH@std@@YA$$QBHABH@Z
_TEXT	SEGMENT
__Arg$ = 8						; size = 4
??$forward@$$CBH@std@@YA$$QBHABH@Z PROC			; std::forward<int const >, COMDAT

; 78   : 	{	// forward _Arg, given explicitly specified type parameter

  00000	55		 push	 ebp
  00001	8b ec		 mov	 ebp, esp

; 79   : 	return ((_Ty&&)_Arg);

  00003	8b 45 08	 mov	 eax, DWORD PTR __Arg$[ebp]

; 80   : 	}

  00006	5d		 pop	 ebp
  00007	c3		 ret	 0
??$forward@$$CBH@std@@YA$$QBHABH@Z ENDP			; std::forward<int const >
_TEXT	ENDS
PUBLIC	??$forward@PAVTUnionInfo@@@std@@YA$$QAPAVTUnionInfo@@AAPAV1@@Z ; std::forward<TUnionInfo *>
; Function compile flags: /Ogtp
;	COMDAT ??$forward@PAVTUnionInfo@@@std@@YA$$QAPAVTUnionInfo@@AAPAV1@@Z
_TEXT	SEGMENT
__Arg$ = 8						; size = 4
??$forward@PAVTUnionInfo@@@std@@YA$$QAPAVTUnionInfo@@AAPAV1@@Z PROC ; std::forward<TUnionInfo *>, COMDAT

; 78   : 	{	// forward _Arg, given explicitly specified type parameter

  00000	55		 push	 ebp
  00001	8b ec		 mov	 ebp, esp

; 79   : 	return ((_Ty&&)_Arg);

  00003	8b 45 08	 mov	 eax, DWORD PTR __Arg$[ebp]

; 80   : 	}

  00006	5d		 pop	 ebp
  00007	c3		 ret	 0
??$forward@PAVTUnionInfo@@@std@@YA$$QAPAVTUnionInfo@@AAPAV1@@Z ENDP ; std::forward<TUnionInfo *>
_TEXT	ENDS
PUBLIC	??$move@ABH@std@@YA$$QBHABH@Z			; std::move<int const &>
; Function compile flags: /Ogtp
;	COMDAT ??$move@ABH@std@@YA$$QBHABH@Z
_TEXT	SEGMENT
__Arg$ = 8						; size = 4
??$move@ABH@std@@YA$$QBHABH@Z PROC			; std::move<int const &>, COMDAT

; 86   : 	{	// forward _Arg as movable

  00000	55		 push	 ebp
  00001	8b ec		 mov	 ebp, esp

; 87   : 	return ((typename tr1::_Remove_reference<_Ty>::_Type&&)_Arg);

  00003	8b 45 08	 mov	 eax, DWORD PTR __Arg$[ebp]

; 88   : 	}

  00006	5d		 pop	 ebp
  00007	c3		 ret	 0
??$move@ABH@std@@YA$$QBHABH@Z ENDP			; std::move<int const &>
_TEXT	ENDS
PUBLIC	??_7bad_alloc@std@@6B@				; std::bad_alloc::`vftable'
PUBLIC	??0bad_alloc@std@@QAE@PBD@Z			; std::bad_alloc::bad_alloc
PUBLIC	??_R4bad_alloc@std@@6B@				; std::bad_alloc::`RTTI Complete Object Locator'
PUBLIC	??_R0?AVbad_alloc@std@@@8			; std::bad_alloc `RTTI Type Descriptor'
PUBLIC	??_R3bad_alloc@std@@8				; std::bad_alloc::`RTTI Class Hierarchy Descriptor'
PUBLIC	??_R2bad_alloc@std@@8				; std::bad_alloc::`RTTI Base Class Array'
PUBLIC	??_R1A@?0A@EA@bad_alloc@std@@8			; std::bad_alloc::`RTTI Base Class Descriptor at (0,-1,0,64)'
PUBLIC	??_R1A@?0A@EA@exception@std@@8			; std::exception::`RTTI Base Class Descriptor at (0,-1,0,64)'
PUBLIC	??_R0?AVexception@std@@@8			; std::exception `RTTI Type Descriptor'
PUBLIC	??_R3exception@std@@8				; std::exception::`RTTI Class Hierarchy Descriptor'
PUBLIC	??_R2exception@std@@8				; std::exception::`RTTI Base Class Array'
EXTRN	??0exception@std@@QAE@ABQBD@Z:PROC		; std::exception::exception
EXTRN	??_7type_info@@6B@:QWORD			; type_info::`vftable'
EXTRN	??_Ebad_alloc@std@@UAEPAXI@Z:PROC		; std::bad_alloc::`vector deleting destructor'
EXTRN	?what@exception@std@@UBEPBDXZ:PROC		; std::exception::what
;	COMDAT ??_R2exception@std@@8
; File c:\program files (x86)\microsoft visual studio 10.0\vc\include\exception
rdata$r	SEGMENT
??_R2exception@std@@8 DD FLAT:??_R1A@?0A@EA@exception@std@@8 ; std::exception::`RTTI Base Class Array'
rdata$r	ENDS
;	COMDAT ??_R3exception@std@@8
rdata$r	SEGMENT
??_R3exception@std@@8 DD 00H				; std::exception::`RTTI Class Hierarchy Descriptor'
	DD	00H
	DD	01H
	DD	FLAT:??_R2exception@std@@8
rdata$r	ENDS
;	COMDAT ??_R0?AVexception@std@@@8
_DATA	SEGMENT
??_R0?AVexception@std@@@8 DD FLAT:??_7type_info@@6B@	; std::exception `RTTI Type Descriptor'
	DD	00H
	DB	'.?AVexception@std@@', 00H
_DATA	ENDS
;	COMDAT ??_R1A@?0A@EA@exception@std@@8
rdata$r	SEGMENT
??_R1A@?0A@EA@exception@std@@8 DD FLAT:??_R0?AVexception@std@@@8 ; std::exception::`RTTI Base Class Descriptor at (0,-1,0,64)'
	DD	00H
	DD	00H
	DD	0ffffffffH
	DD	00H
	DD	040H
	DD	FLAT:??_R3exception@std@@8
rdata$r	ENDS
;	COMDAT ??_R1A@?0A@EA@bad_alloc@std@@8
rdata$r	SEGMENT
??_R1A@?0A@EA@bad_alloc@std@@8 DD FLAT:??_R0?AVbad_alloc@std@@@8 ; std::bad_alloc::`RTTI Base Class Descriptor at (0,-1,0,64)'
	DD	01H
	DD	00H
	DD	0ffffffffH
	DD	00H
	DD	040H
	DD	FLAT:??_R3bad_alloc@std@@8
rdata$r	ENDS
;	COMDAT ??_R2bad_alloc@std@@8
rdata$r	SEGMENT
??_R2bad_alloc@std@@8 DD FLAT:??_R1A@?0A@EA@bad_alloc@std@@8 ; std::bad_alloc::`RTTI Base Class Array'
	DD	FLAT:??_R1A@?0A@EA@exception@std@@8
rdata$r	ENDS
;	COMDAT ??_R3bad_alloc@std@@8
rdata$r	SEGMENT
??_R3bad_alloc@std@@8 DD 00H				; std::bad_alloc::`RTTI Class Hierarchy Descriptor'
	DD	00H
	DD	02H
	DD	FLAT:??_R2bad_alloc@std@@8
rdata$r	ENDS
;	COMDAT ??_R0?AVbad_alloc@std@@@8
_DATA	SEGMENT
??_R0?AVbad_alloc@std@@@8 DD FLAT:??_7type_info@@6B@	; std::bad_alloc `RTTI Type Descriptor'
	DD	00H
	DB	'.?AVbad_alloc@std@@', 00H
_DATA	ENDS
;	COMDAT ??_R4bad_alloc@std@@6B@
rdata$r	SEGMENT
??_R4bad_alloc@std@@6B@ DD 00H				; std::bad_alloc::`RTTI Complete Object Locator'
	DD	00H
	DD	00H
	DD	FLAT:??_R0?AVbad_alloc@std@@@8
	DD	FLAT:??_R3bad_alloc@std@@8
rdata$r	ENDS
;	COMDAT ??_7bad_alloc@std@@6B@
CONST	SEGMENT
??_7bad_alloc@std@@6B@ DD FLAT:??_R4bad_alloc@std@@6B@	; std::bad_alloc::`vftable'
	DD	FLAT:??_Ebad_alloc@std@@UAEPAXI@Z
	DD	FLAT:?what@exception@std@@UBEPBDXZ
; Function compile flags: /Ogtp
CONST	ENDS
;	COMDAT ??0bad_alloc@std@@QAE@PBD@Z
_TEXT	SEGMENT
__Message$ = 8						; size = 4
??0bad_alloc@std@@QAE@PBD@Z PROC			; std::bad_alloc::bad_alloc, COMDAT
; _this$ = ecx

; 345  : 		{	// construct from message string

  00000	55		 push	 ebp
  00001	8b ec		 mov	 ebp, esp
  00003	56		 push	 esi
  00004	8d 45 08	 lea	 eax, DWORD PTR __Message$[ebp]
  00007	50		 push	 eax
  00008	8b f1		 mov	 esi, ecx
  0000a	e8 00 00 00 00	 call	 ??0exception@std@@QAE@ABQBD@Z ; std::exception::exception
  0000f	c7 06 00 00 00
	00		 mov	 DWORD PTR [esi], OFFSET ??_7bad_alloc@std@@6B@

; 346  : 		}

  00015	8b c6		 mov	 eax, esi
  00017	5e		 pop	 esi
  00018	5d		 pop	 ebp
  00019	c2 04 00	 ret	 4
??0bad_alloc@std@@QAE@PBD@Z ENDP			; std::bad_alloc::bad_alloc
_TEXT	ENDS
PUBLIC	??1bad_alloc@std@@UAE@XZ			; std::bad_alloc::~bad_alloc
EXTRN	??1exception@std@@UAE@XZ:PROC			; std::exception::~exception
; Function compile flags: /Ogtp
;	COMDAT ??1bad_alloc@std@@UAE@XZ
_TEXT	SEGMENT
??1bad_alloc@std@@UAE@XZ PROC				; std::bad_alloc::~bad_alloc, COMDAT
; _this$ = ecx

; 354  : 		{	// destroy the object

  00000	c7 01 00 00 00
	00		 mov	 DWORD PTR [ecx], OFFSET ??_7bad_alloc@std@@6B@

; 355  : 		}

  00006	e9 00 00 00 00	 jmp	 ??1exception@std@@UAE@XZ ; std::exception::~exception
??1bad_alloc@std@@UAE@XZ ENDP				; std::bad_alloc::~bad_alloc
; Function compile flags: /Ogtp
_TEXT	ENDS
;	COMDAT ??_Gbad_alloc@std@@UAEPAXI@Z
_TEXT	SEGMENT
___flags$ = 8						; size = 4
??_Gbad_alloc@std@@UAEPAXI@Z PROC			; std::bad_alloc::`scalar deleting destructor', COMDAT
; _this$ = ecx
  00000	55		 push	 ebp
  00001	8b ec		 mov	 ebp, esp
  00003	56		 push	 esi
  00004	8b f1		 mov	 esi, ecx
  00006	c7 06 00 00 00
	00		 mov	 DWORD PTR [esi], OFFSET ??_7bad_alloc@std@@6B@
  0000c	e8 00 00 00 00	 call	 ??1exception@std@@UAE@XZ ; std::exception::~exception
  00011	f6 45 08 01	 test	 BYTE PTR ___flags$[ebp], 1
  00015	74 09		 je	 SHORT $LN6@scalar
  00017	56		 push	 esi
  00018	e8 00 00 00 00	 call	 ??3@YAXPAX@Z		; operator delete
  0001d	83 c4 04	 add	 esp, 4
$LN6@scalar:
  00020	8b c6		 mov	 eax, esi
  00022	5e		 pop	 esi
  00023	5d		 pop	 ebp
  00024	c2 04 00	 ret	 4
??_Gbad_alloc@std@@UAEPAXI@Z ENDP			; std::bad_alloc::`scalar deleting destructor'
_TEXT	ENDS
PUBLIC	?_Orphan_all@_Container_base0@std@@QAEXXZ	; std::_Container_base0::_Orphan_all
; Function compile flags: /Ogtp
; File c:\program files (x86)\microsoft visual studio 10.0\vc\include\xutility
;	COMDAT ?_Orphan_all@_Container_base0@std@@QAEXXZ
_TEXT	SEGMENT
?_Orphan_all@_Container_base0@std@@QAEXXZ PROC		; std::_Container_base0::_Orphan_all, COMDAT
; _this$ = ecx

; 38   : 		}

  00000	c3		 ret	 0
?_Orphan_all@_Container_base0@std@@QAEXXZ ENDP		; std::_Container_base0::_Orphan_all
_TEXT	ENDS
PUBLIC	?_Adopt@_Iterator_base0@std@@QAEXPBX@Z		; std::_Iterator_base0::_Adopt
; Function compile flags: /Ogtp
;	COMDAT ?_Adopt@_Iterator_base0@std@@QAEXPBX@Z
_TEXT	SEGMENT
___formal$ = 8						; size = 4
?_Adopt@_Iterator_base0@std@@QAEXPBX@Z PROC		; std::_Iterator_base0::_Adopt, COMDAT
; _this$ = ecx

; 49   : 		}

  00000	c2 04 00	 ret	 4
?_Adopt@_Iterator_base0@std@@QAEXPBX@Z ENDP		; std::_Iterator_base0::_Adopt
_TEXT	ENDS
PUBLIC	??9?$_Tree_const_iterator@V?$_Tree_val@V?$_Tmap_traits@HPAVTUnionInfo@@U?$less@H@std@@V?$allocator@U?$pair@$$CBHPAVTUnionInfo@@@std@@@3@$0A@@std@@@std@@@std@@QBE_NABV01@@Z ; std::_Tree_const_iterator<std::_Tree_val<std::_Tmap_traits<int,TUnionInfo *,std::less<int>,std::allocator<std::pair<int const ,TUnionInfo *> >,0> > >::operator!=
; Function compile flags: /Ogtp
; File c:\program files (x86)\microsoft visual studio 10.0\vc\include\xtree
;	COMDAT ??9?$_Tree_const_iterator@V?$_Tree_val@V?$_Tmap_traits@HPAVTUnionInfo@@U?$less@H@std@@V?$allocator@U?$pair@$$CBHPAVTUnionInfo@@@std@@@3@$0A@@std@@@std@@@std@@QBE_NABV01@@Z
_TEXT	SEGMENT
__Right$ = 8						; size = 4
??9?$_Tree_const_iterator@V?$_Tree_val@V?$_Tmap_traits@HPAVTUnionInfo@@U?$less@H@std@@V?$allocator@U?$pair@$$CBHPAVTUnionInfo@@@std@@@3@$0A@@std@@@std@@@std@@QBE_NABV01@@Z PROC ; std::_Tree_const_iterator<std::_Tree_val<std::_Tmap_traits<int,TUnionInfo *,std::less<int>,std::allocator<std::pair<int const ,TUnionInfo *> >,0> > >::operator!=, COMDAT
; _this$ = ecx

; 334  : 		{	// test for iterator inequality

  00000	55		 push	 ebp
  00001	8b ec		 mov	 ebp, esp

; 335  : 		return (!(*this == _Right));

  00003	8b 01		 mov	 eax, DWORD PTR [ecx]
  00005	8b 55 08	 mov	 edx, DWORD PTR __Right$[ebp]
  00008	33 c9		 xor	 ecx, ecx
  0000a	3b 02		 cmp	 eax, DWORD PTR [edx]
  0000c	0f 95 c0	 setne	 al

; 336  : 		}

  0000f	5d		 pop	 ebp
  00010	c2 04 00	 ret	 4
??9?$_Tree_const_iterator@V?$_Tree_val@V?$_Tmap_traits@HPAVTUnionInfo@@U?$less@H@std@@V?$allocator@U?$pair@$$CBHPAVTUnionInfo@@@std@@@3@$0A@@std@@@std@@@std@@QBE_NABV01@@Z ENDP ; std::_Tree_const_iterator<std::_Tree_val<std::_Tmap_traits<int,TUnionInfo *,std::less<int>,std::allocator<std::pair<int const ,TUnionInfo *> >,0> > >::operator!=
_TEXT	ENDS
PUBLIC	?_Lmost@?$_Tree@V?$_Tmap_traits@HPAVTUnionInfo@@U?$less@H@std@@V?$allocator@U?$pair@$$CBHPAVTUnionInfo@@@std@@@3@$0A@@std@@@std@@IBEAAPAU_Node@?$_Tree_nod@V?$_Tmap_traits@HPAVTUnionInfo@@U?$less@H@std@@V?$allocator@U?$pair@$$CBHPAVTUnionInfo@@@std@@@3@$0A@@std@@@2@XZ ; std::_Tree<std::_Tmap_traits<int,TUnionInfo *,std::less<int>,std::allocator<std::pair<int const ,TUnionInfo *> >,0> >::_Lmost
; Function compile flags: /Ogtp
;	COMDAT ?_Lmost@?$_Tree@V?$_Tmap_traits@HPAVTUnionInfo@@U?$less@H@std@@V?$allocator@U?$pair@$$CBHPAVTUnionInfo@@@std@@@3@$0A@@std@@@std@@IBEAAPAU_Node@?$_Tree_nod@V?$_Tmap_traits@HPAVTUnionInfo@@U?$less@H@std@@V?$allocator@U?$pair@$$CBHPAVTUnionInfo@@@std@@@3@$0A@@std@@@2@XZ
_TEXT	SEGMENT
?_Lmost@?$_Tree@V?$_Tmap_traits@HPAVTUnionInfo@@U?$less@H@std@@V?$allocator@U?$pair@$$CBHPAVTUnionInfo@@@std@@@3@$0A@@std@@@std@@IBEAAPAU_Node@?$_Tree_nod@V?$_Tmap_traits@HPAVTUnionInfo@@U?$less@H@std@@V?$allocator@U?$pair@$$CBHPAVTUnionInfo@@@std@@@3@$0A@@std@@@2@XZ PROC ; std::_Tree<std::_Tmap_traits<int,TUnionInfo *,std::less<int>,std::allocator<std::pair<int const ,TUnionInfo *> >,0> >::_Lmost, COMDAT
; _this$ = ecx

; 1759 : 		return (this->_Left(this->_Myhead));

  00000	8b 41 04	 mov	 eax, DWORD PTR [ecx+4]

; 1760 : 		}

  00003	c3		 ret	 0
?_Lmost@?$_Tree@V?$_Tmap_traits@HPAVTUnionInfo@@U?$less@H@std@@V?$allocator@U?$pair@$$CBHPAVTUnionInfo@@@std@@@3@$0A@@std@@@std@@IBEAAPAU_Node@?$_Tree_nod@V?$_Tmap_traits@HPAVTUnionInfo@@U?$less@H@std@@V?$allocator@U?$pair@$$CBHPAVTUnionInfo@@@std@@@3@$0A@@std@@@2@XZ ENDP ; std::_Tree<std::_Tmap_traits<int,TUnionInfo *,std::less<int>,std::allocator<std::pair<int const ,TUnionInfo *> >,0> >::_Lmost
_TEXT	ENDS
PUBLIC	?_Rmost@?$_Tree@V?$_Tmap_traits@HPAVTUnionInfo@@U?$less@H@std@@V?$allocator@U?$pair@$$CBHPAVTUnionInfo@@@std@@@3@$0A@@std@@@std@@IBEAAPAU_Node@?$_Tree_nod@V?$_Tmap_traits@HPAVTUnionInfo@@U?$less@H@std@@V?$allocator@U?$pair@$$CBHPAVTUnionInfo@@@std@@@3@$0A@@std@@@2@XZ ; std::_Tree<std::_Tmap_traits<int,TUnionInfo *,std::less<int>,std::allocator<std::pair<int const ,TUnionInfo *> >,0> >::_Rmost
; Function compile flags: /Ogtp
;	COMDAT ?_Rmost@?$_Tree@V?$_Tmap_traits@HPAVTUnionInfo@@U?$less@H@std@@V?$allocator@U?$pair@$$CBHPAVTUnionInfo@@@std@@@3@$0A@@std@@@std@@IBEAAPAU_Node@?$_Tree_nod@V?$_Tmap_traits@HPAVTUnionInfo@@U?$less@H@std@@V?$allocator@U?$pair@$$CBHPAVTUnionInfo@@@std@@@3@$0A@@std@@@2@XZ
_TEXT	SEGMENT
?_Rmost@?$_Tree@V?$_Tmap_traits@HPAVTUnionInfo@@U?$less@H@std@@V?$allocator@U?$pair@$$CBHPAVTUnionInfo@@@std@@@3@$0A@@std@@@std@@IBEAAPAU_Node@?$_Tree_nod@V?$_Tmap_traits@HPAVTUnionInfo@@U?$less@H@std@@V?$allocator@U?$pair@$$CBHPAVTUnionInfo@@@std@@@3@$0A@@std@@@2@XZ PROC ; std::_Tree<std::_Tmap_traits<int,TUnionInfo *,std::less<int>,std::allocator<std::pair<int const ,TUnionInfo *> >,0> >::_Rmost, COMDAT
; _this$ = ecx

; 1784 : 		return (this->_Right(this->_Myhead));

  00000	8b 41 04	 mov	 eax, DWORD PTR [ecx+4]
  00003	83 c0 08	 add	 eax, 8

; 1785 : 		}

  00006	c3		 ret	 0
?_Rmost@?$_Tree@V?$_Tmap_traits@HPAVTUnionInfo@@U?$less@H@std@@V?$allocator@U?$pair@$$CBHPAVTUnionInfo@@@std@@@3@$0A@@std@@@std@@IBEAAPAU_Node@?$_Tree_nod@V?$_Tmap_traits@HPAVTUnionInfo@@U?$less@H@std@@V?$allocator@U?$pair@$$CBHPAVTUnionInfo@@@std@@@3@$0A@@std@@@2@XZ ENDP ; std::_Tree<std::_Tmap_traits<int,TUnionInfo *,std::less<int>,std::allocator<std::pair<int const ,TUnionInfo *> >,0> >::_Rmost
_TEXT	ENDS
PUBLIC	?_Root@?$_Tree@V?$_Tmap_traits@HPAVTUnionInfo@@U?$less@H@std@@V?$allocator@U?$pair@$$CBHPAVTUnionInfo@@@std@@@3@$0A@@std@@@std@@IBEAAPAU_Node@?$_Tree_nod@V?$_Tmap_traits@HPAVTUnionInfo@@U?$less@H@std@@V?$allocator@U?$pair@$$CBHPAVTUnionInfo@@@std@@@3@$0A@@std@@@2@XZ ; std::_Tree<std::_Tmap_traits<int,TUnionInfo *,std::less<int>,std::allocator<std::pair<int const ,TUnionInfo *> >,0> >::_Root
; Function compile flags: /Ogtp
;	COMDAT ?_Root@?$_Tree@V?$_Tmap_traits@HPAVTUnionInfo@@U?$less@H@std@@V?$allocator@U?$pair@$$CBHPAVTUnionInfo@@@std@@@3@$0A@@std@@@std@@IBEAAPAU_Node@?$_Tree_nod@V?$_Tmap_traits@HPAVTUnionInfo@@U?$less@H@std@@V?$allocator@U?$pair@$$CBHPAVTUnionInfo@@@std@@@3@$0A@@std@@@2@XZ
_TEXT	SEGMENT
?_Root@?$_Tree@V?$_Tmap_traits@HPAVTUnionInfo@@U?$less@H@std@@V?$allocator@U?$pair@$$CBHPAVTUnionInfo@@@std@@@3@$0A@@std@@@std@@IBEAAPAU_Node@?$_Tree_nod@V?$_Tmap_traits@HPAVTUnionInfo@@U?$less@H@std@@V?$allocator@U?$pair@$$CBHPAVTUnionInfo@@@std@@@3@$0A@@std@@@2@XZ PROC ; std::_Tree<std::_Tmap_traits<int,TUnionInfo *,std::less<int>,std::allocator<std::pair<int const ,TUnionInfo *> >,0> >::_Root, COMDAT
; _this$ = ecx

; 1789 : 		return (this->_Parent(this->_Myhead));

  00000	8b 41 04	 mov	 eax, DWORD PTR [ecx+4]
  00003	83 c0 04	 add	 eax, 4

; 1790 : 		}

  00006	c3		 ret	 0
?_Root@?$_Tree@V?$_Tmap_traits@HPAVTUnionInfo@@U?$less@H@std@@V?$allocator@U?$pair@$$CBHPAVTUnionInfo@@@std@@@3@$0A@@std@@@std@@IBEAAPAU_Node@?$_Tree_nod@V?$_Tmap_traits@HPAVTUnionInfo@@U?$less@H@std@@V?$allocator@U?$pair@$$CBHPAVTUnionInfo@@@std@@@3@$0A@@std@@@2@XZ ENDP ; std::_Tree<std::_Tmap_traits<int,TUnionInfo *,std::less<int>,std::allocator<std::pair<int const ,TUnionInfo *> >,0> >::_Root
_TEXT	ENDS
PUBLIC	??1?$_Tree_val@V?$_Tmap_traits@HPAVTUnionInfo@@U?$less@H@std@@V?$allocator@U?$pair@$$CBHPAVTUnionInfo@@@std@@@3@$0A@@std@@@std@@QAE@XZ ; std::_Tree_val<std::_Tmap_traits<int,TUnionInfo *,std::less<int>,std::allocator<std::pair<int const ,TUnionInfo *> >,0> >::~_Tree_val<std::_Tmap_traits<int,TUnionInfo *,std::less<int>,std::allocator<std::pair<int const ,TUnionInfo *> >,0> >
; Function compile flags: /Ogtp
;	COMDAT ??1?$_Tree_val@V?$_Tmap_traits@HPAVTUnionInfo@@U?$less@H@std@@V?$allocator@U?$pair@$$CBHPAVTUnionInfo@@@std@@@3@$0A@@std@@@std@@QAE@XZ
_TEXT	SEGMENT
??1?$_Tree_val@V?$_Tmap_traits@HPAVTUnionInfo@@U?$less@H@std@@V?$allocator@U?$pair@$$CBHPAVTUnionInfo@@@std@@@3@$0A@@std@@@std@@QAE@XZ PROC ; std::_Tree_val<std::_Tmap_traits<int,TUnionInfo *,std::less<int>,std::allocator<std::pair<int const ,TUnionInfo *> >,0> >::~_Tree_val<std::_Tmap_traits<int,TUnionInfo *,std::less<int>,std::allocator<std::pair<int const ,TUnionInfo *> >,0> >, COMDAT
; _this$ = ecx

; 555  : 		this->_Alnod.deallocate(this->_Myhead, 1);

  00000	8b 41 04	 mov	 eax, DWORD PTR [ecx+4]
  00003	50		 push	 eax
  00004	e8 00 00 00 00	 call	 ??3@YAXPAX@Z		; operator delete
  00009	59		 pop	 ecx

; 556  : 		}

  0000a	c3		 ret	 0
??1?$_Tree_val@V?$_Tmap_traits@HPAVTUnionInfo@@U?$less@H@std@@V?$allocator@U?$pair@$$CBHPAVTUnionInfo@@@std@@@3@$0A@@std@@@std@@QAE@XZ ENDP ; std::_Tree_val<std::_Tmap_traits<int,TUnionInfo *,std::less<int>,std::allocator<std::pair<int const ,TUnionInfo *> >,0> >::~_Tree_val<std::_Tmap_traits<int,TUnionInfo *,std::less<int>,std::allocator<std::pair<int const ,TUnionInfo *> >,0> >
_TEXT	ENDS
PUBLIC	?_Key@?$_Tree_val@V?$_Tmap_traits@HPAVTUnionInfo@@U?$less@H@std@@V?$allocator@U?$pair@$$CBHPAVTUnionInfo@@@std@@@3@$0A@@std@@@std@@SAAAHPAU_Node@?$_Tree_nod@V?$_Tmap_traits@HPAVTUnionInfo@@U?$less@H@std@@V?$allocator@U?$pair@$$CBHPAVTUnionInfo@@@std@@@3@$0A@@std@@@2@@Z ; std::_Tree_val<std::_Tmap_traits<int,TUnionInfo *,std::less<int>,std::allocator<std::pair<int const ,TUnionInfo *> >,0> >::_Key
; Function compile flags: /Ogtp
;	COMDAT ?_Key@?$_Tree_val@V?$_Tmap_traits@HPAVTUnionInfo@@U?$less@H@std@@V?$allocator@U?$pair@$$CBHPAVTUnionInfo@@@std@@@3@$0A@@std@@@std@@SAAAHPAU_Node@?$_Tree_nod@V?$_Tmap_traits@HPAVTUnionInfo@@U?$less@H@std@@V?$allocator@U?$pair@$$CBHPAVTUnionInfo@@@std@@@3@$0A@@std@@@2@@Z
_TEXT	SEGMENT
__Pnode$ = 8						; size = 4
?_Key@?$_Tree_val@V?$_Tmap_traits@HPAVTUnionInfo@@U?$less@H@std@@V?$allocator@U?$pair@$$CBHPAVTUnionInfo@@@std@@@3@$0A@@std@@@std@@SAAAHPAU_Node@?$_Tree_nod@V?$_Tmap_traits@HPAVTUnionInfo@@U?$less@H@std@@V?$allocator@U?$pair@$$CBHPAVTUnionInfo@@@std@@@3@$0A@@std@@@2@@Z PROC ; std::_Tree_val<std::_Tmap_traits<int,TUnionInfo *,std::less<int>,std::allocator<std::pair<int const ,TUnionInfo *> >,0> >::_Key, COMDAT

; 616  : 		{	// return reference to key in node

  00000	55		 push	 ebp
  00001	8b ec		 mov	 ebp, esp

; 617  : 		return ((key_type&)_Traits::_Kfn(_Myval(_Pnode)));

  00003	8b 45 08	 mov	 eax, DWORD PTR __Pnode$[ebp]
  00006	83 c0 0c	 add	 eax, 12			; 0000000cH

; 618  : 		}

  00009	5d		 pop	 ebp
  0000a	c3		 ret	 0
?_Key@?$_Tree_val@V?$_Tmap_traits@HPAVTUnionInfo@@U?$less@H@std@@V?$allocator@U?$pair@$$CBHPAVTUnionInfo@@@std@@@3@$0A@@std@@@std@@SAAAHPAU_Node@?$_Tree_nod@V?$_Tmap_traits@HPAVTUnionInfo@@U?$less@H@std@@V?$allocator@U?$pair@$$CBHPAVTUnionInfo@@@std@@@3@$0A@@std@@@2@@Z ENDP ; std::_Tree_val<std::_Tmap_traits<int,TUnionInfo *,std::less<int>,std::allocator<std::pair<int const ,TUnionInfo *> >,0> >::_Key
_TEXT	ENDS
PUBLIC	??0?$_Tree_const_iterator@V?$_Tree_val@V?$_Tmap_traits@HPAVTUnionInfo@@U?$less@H@std@@V?$allocator@U?$pair@$$CBHPAVTUnionInfo@@@std@@@3@$0A@@std@@@std@@@std@@QAE@XZ ; std::_Tree_const_iterator<std::_Tree_val<std::_Tmap_traits<int,TUnionInfo *,std::less<int>,std::allocator<std::pair<int const ,TUnionInfo *> >,0> > >::_Tree_const_iterator<std::_Tree_val<std::_Tmap_traits<int,TUnionInfo *,std::less<int>,std::allocator<std::pair<int const ,TUnionInfo *> >,0> > >
; Function compile flags: /Ogtp
;	COMDAT ??0?$_Tree_const_iterator@V?$_Tree_val@V?$_Tmap_traits@HPAVTUnionInfo@@U?$less@H@std@@V?$allocator@U?$pair@$$CBHPAVTUnionInfo@@@std@@@3@$0A@@std@@@std@@@std@@QAE@XZ
_TEXT	SEGMENT
??0?$_Tree_const_iterator@V?$_Tree_val@V?$_Tmap_traits@HPAVTUnionInfo@@U?$less@H@std@@V?$allocator@U?$pair@$$CBHPAVTUnionInfo@@@std@@@3@$0A@@std@@@std@@@std@@QAE@XZ PROC ; std::_Tree_const_iterator<std::_Tree_val<std::_Tmap_traits<int,TUnionInfo *,std::less<int>,std::allocator<std::pair<int const ,TUnionInfo *> >,0> > >::_Tree_const_iterator<std::_Tree_val<std::_Tmap_traits<int,TUnionInfo *,std::less<int>,std::allocator<std::pair<int const ,TUnionInfo *> >,0> > >, COMDAT
; _this$ = ecx

; 208  : 		{	// construct with null node pointer

  00000	8b c1		 mov	 eax, ecx
  00002	c7 00 00 00 00
	00		 mov	 DWORD PTR [eax], 0

; 209  : 		}

  00008	c3		 ret	 0
??0?$_Tree_const_iterator@V?$_Tree_val@V?$_Tmap_traits@HPAVTUnionInfo@@U?$less@H@std@@V?$allocator@U?$pair@$$CBHPAVTUnionInfo@@@std@@@3@$0A@@std@@@std@@@std@@QAE@XZ ENDP ; std::_Tree_const_iterator<std::_Tree_val<std::_Tmap_traits<int,TUnionInfo *,std::less<int>,std::allocator<std::pair<int const ,TUnionInfo *> >,0> > >::_Tree_const_iterator<std::_Tree_val<std::_Tmap_traits<int,TUnionInfo *,std::less<int>,std::allocator<std::pair<int const ,TUnionInfo *> >,0> > >
_TEXT	ENDS
PUBLIC	??D?$_Tree_const_iterator@V?$_Tree_val@V?$_Tmap_traits@HPAVTUnionInfo@@U?$less@H@std@@V?$allocator@U?$pair@$$CBHPAVTUnionInfo@@@std@@@3@$0A@@std@@@std@@@std@@QBEABU?$pair@$$CBHPAVTUnionInfo@@@1@XZ ; std::_Tree_const_iterator<std::_Tree_val<std::_Tmap_traits<int,TUnionInfo *,std::less<int>,std::allocator<std::pair<int const ,TUnionInfo *> >,0> > >::operator*
; Function compile flags: /Ogtp
;	COMDAT ??D?$_Tree_const_iterator@V?$_Tree_val@V?$_Tmap_traits@HPAVTUnionInfo@@U?$less@H@std@@V?$allocator@U?$pair@$$CBHPAVTUnionInfo@@@std@@@3@$0A@@std@@@std@@@std@@QBEABU?$pair@$$CBHPAVTUnionInfo@@@1@XZ
_TEXT	SEGMENT
??D?$_Tree_const_iterator@V?$_Tree_val@V?$_Tmap_traits@HPAVTUnionInfo@@U?$less@H@std@@V?$allocator@U?$pair@$$CBHPAVTUnionInfo@@@std@@@3@$0A@@std@@@std@@@std@@QBEABU?$pair@$$CBHPAVTUnionInfo@@@1@XZ PROC ; std::_Tree_const_iterator<std::_Tree_val<std::_Tmap_traits<int,TUnionInfo *,std::less<int>,std::allocator<std::pair<int const ,TUnionInfo *> >,0> > >::operator*, COMDAT
; _this$ = ecx

; 231  :  #if _ITERATOR_DEBUG_LEVEL == 2
; 232  : 		if (this->_Getcont() == 0
; 233  : 			|| this->_Ptr == 0
; 234  : 			|| this->_Ptr == ((_Mytree *)this->_Getcont())->_Myhead)
; 235  : 			{	// report error
; 236  : 			_DEBUG_ERROR("map/set iterator not dereferencable");
; 237  : 			_SCL_SECURE_OUT_OF_RANGE;
; 238  : 			}
; 239  : 
; 240  :  #elif _ITERATOR_DEBUG_LEVEL == 1
; 241  : 		_SCL_SECURE_VALIDATE(this->_Getcont() != 0 && this->_Ptr != 0);
; 242  : 		_SCL_SECURE_VALIDATE_RANGE(this->_Ptr !=
; 243  : 			((_Mytree *)this->_Getcont())->_Myhead);
; 244  :  #endif /* _ITERATOR_DEBUG_LEVEL */
; 245  : 
; 246  : 		return (_Mytree::_Myval(this->_Ptr));

  00000	8b 01		 mov	 eax, DWORD PTR [ecx]
  00002	83 c0 0c	 add	 eax, 12			; 0000000cH

; 247  : 		}

  00005	c3		 ret	 0
??D?$_Tree_const_iterator@V?$_Tree_val@V?$_Tmap_traits@HPAVTUnionInfo@@U?$less@H@std@@V?$allocator@U?$pair@$$CBHPAVTUnionInfo@@@std@@@3@$0A@@std@@@std@@@std@@QBEABU?$pair@$$CBHPAVTUnionInfo@@@1@XZ ENDP ; std::_Tree_const_iterator<std::_Tree_val<std::_Tmap_traits<int,TUnionInfo *,std::less<int>,std::allocator<std::pair<int const ,TUnionInfo *> >,0> > >::operator*
_TEXT	ENDS
PUBLIC	?max_size@?$vector@HV?$allocator@H@std@@@std@@QBEIXZ ; std::vector<int,std::allocator<int> >::max_size
; Function compile flags: /Ogtp
; File c:\program files (x86)\microsoft visual studio 10.0\vc\include\vector
;	COMDAT ?max_size@?$vector@HV?$allocator@H@std@@@std@@QBEIXZ
_TEXT	SEGMENT
?max_size@?$vector@HV?$allocator@H@std@@@std@@QBEIXZ PROC ; std::vector<int,std::allocator<int> >::max_size, COMDAT
; _this$ = ecx

; 884  : 		return (this->_Alval.max_size());

  00000	b8 ff ff ff 3f	 mov	 eax, 1073741823		; 3fffffffH

; 885  : 		}

  00005	c3		 ret	 0
?max_size@?$vector@HV?$allocator@H@std@@@std@@QBEIXZ ENDP ; std::vector<int,std::allocator<int> >::max_size
_TEXT	ENDS
PUBLIC	?_Grow_to@?$vector@HV?$allocator@H@std@@@std@@IBEII@Z ; std::vector<int,std::allocator<int> >::_Grow_to
; Function compile flags: /Ogtp
;	COMDAT ?_Grow_to@?$vector@HV?$allocator@H@std@@@std@@IBEII@Z
_TEXT	SEGMENT
__Count$ = 8						; size = 4
?_Grow_to@?$vector@HV?$allocator@H@std@@@std@@IBEII@Z PROC ; std::vector<int,std::allocator<int> >::_Grow_to, COMDAT
; _this$ = ecx

; 1274 : 		{	// grow by 50% or at least to _Count

  00000	55		 push	 ebp
  00001	8b ec		 mov	 ebp, esp

; 1275 : 		size_type _Capacity = capacity();

  00003	8b 41 08	 mov	 eax, DWORD PTR [ecx+8]
  00006	2b 01		 sub	 eax, DWORD PTR [ecx]

; 1276 : 
; 1277 : 		_Capacity = max_size() - _Capacity / 2 < _Capacity
; 1278 : 			? 0 : _Capacity + _Capacity / 2;	// try to grow by 50%

  00008	ba ff ff ff 3f	 mov	 edx, 1073741823		; 3fffffffH
  0000d	c1 f8 02	 sar	 eax, 2
  00010	8b c8		 mov	 ecx, eax
  00012	d1 e9		 shr	 ecx, 1
  00014	2b d1		 sub	 edx, ecx
  00016	3b d0		 cmp	 edx, eax
  00018	73 04		 jae	 SHORT $LN4@Grow_to
  0001a	33 c0		 xor	 eax, eax
  0001c	eb 02		 jmp	 SHORT $LN5@Grow_to
$LN4@Grow_to:
  0001e	03 c1		 add	 eax, ecx
$LN5@Grow_to:

; 1279 : 		if (_Capacity < _Count)

  00020	8b 4d 08	 mov	 ecx, DWORD PTR __Count$[ebp]
  00023	3b c1		 cmp	 eax, ecx
  00025	73 02		 jae	 SHORT $LN1@Grow_to

; 1280 : 			_Capacity = _Count;
; 1281 : 		return (_Capacity);

  00027	8b c1		 mov	 eax, ecx
$LN1@Grow_to:

; 1282 : 		}

  00029	5d		 pop	 ebp
  0002a	c2 04 00	 ret	 4
?_Grow_to@?$vector@HV?$allocator@H@std@@@std@@IBEII@Z ENDP ; std::vector<int,std::allocator<int> >::_Grow_to
_TEXT	ENDS
PUBLIC	?_Lbound@?$_Tree@V?$_Tmap_traits@HPAVTUnionInfo@@U?$less@H@std@@V?$allocator@U?$pair@$$CBHPAVTUnionInfo@@@std@@@3@$0A@@std@@@std@@IAEPAU_Node@?$_Tree_nod@V?$_Tmap_traits@HPAVTUnionInfo@@U?$less@H@std@@V?$allocator@U?$pair@$$CBHPAVTUnionInfo@@@std@@@3@$0A@@std@@@2@ABH@Z ; std::_Tree<std::_Tmap_traits<int,TUnionInfo *,std::less<int>,std::allocator<std::pair<int const ,TUnionInfo *> >,0> >::_Lbound
; Function compile flags: /Ogtp
; File c:\program files (x86)\microsoft visual studio 10.0\vc\include\xtree
;	COMDAT ?_Lbound@?$_Tree@V?$_Tmap_traits@HPAVTUnionInfo@@U?$less@H@std@@V?$allocator@U?$pair@$$CBHPAVTUnionInfo@@@std@@@3@$0A@@std@@@std@@IAEPAU_Node@?$_Tree_nod@V?$_Tmap_traits@HPAVTUnionInfo@@U?$less@H@std@@V?$allocator@U?$pair@$$CBHPAVTUnionInfo@@@std@@@3@$0A@@std@@@2@ABH@Z
_TEXT	SEGMENT
__Keyval$ = 8						; size = 4
?_Lbound@?$_Tree@V?$_Tmap_traits@HPAVTUnionInfo@@U?$less@H@std@@V?$allocator@U?$pair@$$CBHPAVTUnionInfo@@@std@@@3@$0A@@std@@@std@@IAEPAU_Node@?$_Tree_nod@V?$_Tmap_traits@HPAVTUnionInfo@@U?$less@H@std@@V?$allocator@U?$pair@$$CBHPAVTUnionInfo@@@std@@@3@$0A@@std@@@2@ABH@Z PROC ; std::_Tree<std::_Tmap_traits<int,TUnionInfo *,std::less<int>,std::allocator<std::pair<int const ,TUnionInfo *> >,0> >::_Lbound, COMDAT
; _this$ = ecx

; 1741 : 		{	// find leftmost node not less than _Keyval

  00000	55		 push	 ebp
  00001	8b ec		 mov	 ebp, esp

; 1742 : 		_Nodeptr _Pnode = _Root();

  00003	8b 41 04	 mov	 eax, DWORD PTR [ecx+4]
  00006	8b 48 04	 mov	 ecx, DWORD PTR [eax+4]

; 1743 : 		_Nodeptr _Wherenode = this->_Myhead;	// end() if search fails
; 1744 : 
; 1745 : 		while (!this->_Isnil(_Pnode))

  00009	80 79 15 00	 cmp	 BYTE PTR [ecx+21], 0
  0000d	75 19		 jne	 SHORT $LN3@Lbound
  0000f	8b 55 08	 mov	 edx, DWORD PTR __Keyval$[ebp]
  00012	8b 12		 mov	 edx, DWORD PTR [edx]
$LL4@Lbound:

; 1746 : 			if (_DEBUG_LT_PRED(this->comp, this->_Key(_Pnode), _Keyval))

  00014	39 51 0c	 cmp	 DWORD PTR [ecx+12], edx
  00017	7d 05		 jge	 SHORT $LN2@Lbound

; 1747 : 				_Pnode = this->_Right(_Pnode);	// descend right subtree

  00019	8b 49 08	 mov	 ecx, DWORD PTR [ecx+8]

; 1748 : 			else

  0001c	eb 04		 jmp	 SHORT $LN1@Lbound
$LN2@Lbound:

; 1749 : 				{	// _Pnode not less than _Keyval, remember it
; 1750 : 				_Wherenode = _Pnode;

  0001e	8b c1		 mov	 eax, ecx

; 1751 : 				_Pnode = this->_Left(_Pnode);	// descend left subtree

  00020	8b 09		 mov	 ecx, DWORD PTR [ecx]
$LN1@Lbound:

; 1743 : 		_Nodeptr _Wherenode = this->_Myhead;	// end() if search fails
; 1744 : 
; 1745 : 		while (!this->_Isnil(_Pnode))

  00022	80 79 15 00	 cmp	 BYTE PTR [ecx+21], 0
  00026	74 ec		 je	 SHORT $LL4@Lbound
$LN3@Lbound:

; 1752 : 				}
; 1753 : 
; 1754 : 		return (_Wherenode);	// return best remembered candidate
; 1755 : 		}

  00028	5d		 pop	 ebp
  00029	c2 04 00	 ret	 4
?_Lbound@?$_Tree@V?$_Tmap_traits@HPAVTUnionInfo@@U?$less@H@std@@V?$allocator@U?$pair@$$CBHPAVTUnionInfo@@@std@@@3@$0A@@std@@@std@@IAEPAU_Node@?$_Tree_nod@V?$_Tmap_traits@HPAVTUnionInfo@@U?$less@H@std@@V?$allocator@U?$pair@$$CBHPAVTUnionInfo@@@std@@@3@$0A@@std@@@2@ABH@Z ENDP ; std::_Tree<std::_Tmap_traits<int,TUnionInfo *,std::less<int>,std::allocator<std::pair<int const ,TUnionInfo *> >,0> >::_Lbound
_TEXT	ENDS
PUBLIC	??E?$_Tree_unchecked_const_iterator@V?$_Tree_val@V?$_Tmap_traits@HPAVTUnionInfo@@U?$less@H@std@@V?$allocator@U?$pair@$$CBHPAVTUnionInfo@@@std@@@3@$0A@@std@@@std@@U_Iterator_base0@2@@std@@QAEAAV01@XZ ; std::_Tree_unchecked_const_iterator<std::_Tree_val<std::_Tmap_traits<int,TUnionInfo *,std::less<int>,std::allocator<std::pair<int const ,TUnionInfo *> >,0> >,std::_Iterator_base0>::operator++
; Function compile flags: /Ogtp
;	COMDAT ??E?$_Tree_unchecked_const_iterator@V?$_Tree_val@V?$_Tmap_traits@HPAVTUnionInfo@@U?$less@H@std@@V?$allocator@U?$pair@$$CBHPAVTUnionInfo@@@std@@@3@$0A@@std@@@std@@U_Iterator_base0@2@@std@@QAEAAV01@XZ
_TEXT	SEGMENT
??E?$_Tree_unchecked_const_iterator@V?$_Tree_val@V?$_Tmap_traits@HPAVTUnionInfo@@U?$less@H@std@@V?$allocator@U?$pair@$$CBHPAVTUnionInfo@@@std@@@3@$0A@@std@@@std@@U_Iterator_base0@2@@std@@QAEAAV01@XZ PROC ; std::_Tree_unchecked_const_iterator<std::_Tree_val<std::_Tmap_traits<int,TUnionInfo *,std::less<int>,std::allocator<std::pair<int const ,TUnionInfo *> >,0> >,std::_Iterator_base0>::operator++, COMDAT
; _this$ = ecx

; 58   : 		{	// preincrement

  00000	8b c1		 mov	 eax, ecx

; 59   : 		if (_Mytree::_Isnil(_Ptr))

  00002	8b 10		 mov	 edx, DWORD PTR [eax]
  00004	80 7a 15 00	 cmp	 BYTE PTR [edx+21], 0
  00008	75 40		 jne	 SHORT $LN3@operator@2

; 60   : 			;	// end() shouldn't be incremented, don't move
; 61   : 		else if (!_Mytree::_Isnil(_Mytree::_Right(_Ptr)))

  0000a	8b 4a 08	 mov	 ecx, DWORD PTR [edx+8]
  0000d	80 79 15 00	 cmp	 BYTE PTR [ecx+21], 0
  00011	75 1a		 jne	 SHORT $LN34@operator@2

; 62   : 			_Ptr = _Mytree::_Min(
; 63   : 				_Mytree::_Right(_Ptr));	// ==> smallest of right subtree

  00013	8b 11		 mov	 edx, DWORD PTR [ecx]
  00015	80 7a 15 00	 cmp	 BYTE PTR [edx+21], 0
  00019	75 0f		 jne	 SHORT $LN17@operator@2
  0001b	eb 03 8d 49 00	 npad	 5
$LL18@operator@2:
  00020	8b ca		 mov	 ecx, edx
  00022	8b 11		 mov	 edx, DWORD PTR [ecx]
  00024	80 7a 15 00	 cmp	 BYTE PTR [edx+21], 0
  00028	74 f6		 je	 SHORT $LL18@operator@2
$LN17@operator@2:
  0002a	89 08		 mov	 DWORD PTR [eax], ecx

; 71   : 			}
; 72   : 		return (*this);
; 73   : 		}

  0002c	c3		 ret	 0
$LN34@operator@2:

; 64   : 		else
; 65   : 			{	// climb looking for right subtree
; 66   : 			_Nodeptr _Pnode;
; 67   : 			while (!_Mytree::_Isnil(_Pnode = _Mytree::_Parent(_Ptr))
; 68   : 				&& _Ptr == _Mytree::_Right(_Pnode))

  0002d	8b 52 04	 mov	 edx, DWORD PTR [edx+4]
  00030	80 7a 15 00	 cmp	 BYTE PTR [edx+21], 0
  00034	75 12		 jne	 SHORT $LN1@operator@2
$LL2@operator@2:
  00036	8b 08		 mov	 ecx, DWORD PTR [eax]
  00038	3b 4a 08	 cmp	 ecx, DWORD PTR [edx+8]
  0003b	75 0b		 jne	 SHORT $LN1@operator@2

; 69   : 				_Ptr = _Pnode;	// ==> parent while right subtree

  0003d	89 10		 mov	 DWORD PTR [eax], edx
  0003f	8b 52 04	 mov	 edx, DWORD PTR [edx+4]
  00042	80 7a 15 00	 cmp	 BYTE PTR [edx+21], 0
  00046	74 ee		 je	 SHORT $LL2@operator@2
$LN1@operator@2:

; 70   : 			_Ptr = _Pnode;	// ==> parent (head if end())

  00048	89 10		 mov	 DWORD PTR [eax], edx
$LN3@operator@2:

; 71   : 			}
; 72   : 		return (*this);
; 73   : 		}

  0004a	c3		 ret	 0
??E?$_Tree_unchecked_const_iterator@V?$_Tree_val@V?$_Tmap_traits@HPAVTUnionInfo@@U?$less@H@std@@V?$allocator@U?$pair@$$CBHPAVTUnionInfo@@@std@@@3@$0A@@std@@@std@@U_Iterator_base0@2@@std@@QAEAAV01@XZ ENDP ; std::_Tree_unchecked_const_iterator<std::_Tree_val<std::_Tmap_traits<int,TUnionInfo *,std::less<int>,std::allocator<std::pair<int const ,TUnionInfo *> >,0> >,std::_Iterator_base0>::operator++
_TEXT	ENDS
PUBLIC	??0?$_Pair_base@$$CBHPAVTUnionInfo@@@std@@QAE@ABH$$QAPAVTUnionInfo@@@Z ; std::_Pair_base<int const ,TUnionInfo *>::_Pair_base<int const ,TUnionInfo *>
; Function compile flags: /Ogtp
; File c:\program files (x86)\microsoft visual studio 10.0\vc\include\utility
;	COMDAT ??0?$_Pair_base@$$CBHPAVTUnionInfo@@@std@@QAE@ABH$$QAPAVTUnionInfo@@@Z
_TEXT	SEGMENT
__Val1$ = 8						; size = 4
__Val2$ = 12						; size = 4
??0?$_Pair_base@$$CBHPAVTUnionInfo@@@std@@QAE@ABH$$QAPAVTUnionInfo@@@Z PROC ; std::_Pair_base<int const ,TUnionInfo *>::_Pair_base<int const ,TUnionInfo *>, COMDAT
; _this$ = ecx

; 150  : 		{	// construct from specified values

  00000	55		 push	 ebp
  00001	8b ec		 mov	 ebp, esp
  00003	8b c1		 mov	 eax, ecx
  00005	8b 4d 08	 mov	 ecx, DWORD PTR __Val1$[ebp]
  00008	8b 11		 mov	 edx, DWORD PTR [ecx]
  0000a	8b 4d 0c	 mov	 ecx, DWORD PTR __Val2$[ebp]
  0000d	89 10		 mov	 DWORD PTR [eax], edx
  0000f	8b 11		 mov	 edx, DWORD PTR [ecx]
  00011	89 50 04	 mov	 DWORD PTR [eax+4], edx

; 151  : 		}

  00014	5d		 pop	 ebp
  00015	c2 08 00	 ret	 8
??0?$_Pair_base@$$CBHPAVTUnionInfo@@@std@@QAE@ABH$$QAPAVTUnionInfo@@@Z ENDP ; std::_Pair_base<int const ,TUnionInfo *>::_Pair_base<int const ,TUnionInfo *>
_TEXT	ENDS
PUBLIC	?_Lrotate@?$_Tree@V?$_Tmap_traits@HPAVTUnionInfo@@U?$less@H@std@@V?$allocator@U?$pair@$$CBHPAVTUnionInfo@@@std@@@3@$0A@@std@@@std@@IAEXPAU_Node@?$_Tree_nod@V?$_Tmap_traits@HPAVTUnionInfo@@U?$less@H@std@@V?$allocator@U?$pair@$$CBHPAVTUnionInfo@@@std@@@3@$0A@@std@@@2@@Z ; std::_Tree<std::_Tmap_traits<int,TUnionInfo *,std::less<int>,std::allocator<std::pair<int const ,TUnionInfo *> >,0> >::_Lrotate
; Function compile flags: /Ogtp
; File c:\program files (x86)\microsoft visual studio 10.0\vc\include\xtree
;	COMDAT ?_Lrotate@?$_Tree@V?$_Tmap_traits@HPAVTUnionInfo@@U?$less@H@std@@V?$allocator@U?$pair@$$CBHPAVTUnionInfo@@@std@@@3@$0A@@std@@@std@@IAEXPAU_Node@?$_Tree_nod@V?$_Tmap_traits@HPAVTUnionInfo@@U?$less@H@std@@V?$allocator@U?$pair@$$CBHPAVTUnionInfo@@@std@@@3@$0A@@std@@@2@@Z
_TEXT	SEGMENT
__Wherenode$ = 8					; size = 4
?_Lrotate@?$_Tree@V?$_Tmap_traits@HPAVTUnionInfo@@U?$less@H@std@@V?$allocator@U?$pair@$$CBHPAVTUnionInfo@@@std@@@3@$0A@@std@@@std@@IAEXPAU_Node@?$_Tree_nod@V?$_Tmap_traits@HPAVTUnionInfo@@U?$less@H@std@@V?$allocator@U?$pair@$$CBHPAVTUnionInfo@@@std@@@3@$0A@@std@@@2@@Z PROC ; std::_Tree<std::_Tmap_traits<int,TUnionInfo *,std::less<int>,std::allocator<std::pair<int const ,TUnionInfo *> >,0> >::_Lrotate, COMDAT
; _this$ = ecx

; 1763 : 		{	// promote right node to root of subtree

  00000	55		 push	 ebp
  00001	8b ec		 mov	 ebp, esp

; 1764 : 		_Nodeptr _Pnode = this->_Right(_Wherenode);

  00003	8b 55 08	 mov	 edx, DWORD PTR __Wherenode$[ebp]
  00006	8b 42 08	 mov	 eax, DWORD PTR [edx+8]
  00009	56		 push	 esi

; 1765 : 		this->_Right(_Wherenode) = this->_Left(_Pnode);

  0000a	8b 30		 mov	 esi, DWORD PTR [eax]
  0000c	89 72 08	 mov	 DWORD PTR [edx+8], esi

; 1766 : 
; 1767 : 		if (!this->_Isnil(this->_Left(_Pnode)))

  0000f	8b 30		 mov	 esi, DWORD PTR [eax]
  00011	80 7e 15 00	 cmp	 BYTE PTR [esi+21], 0
  00015	75 03		 jne	 SHORT $LN5@Lrotate

; 1768 : 			this->_Parent(this->_Left(_Pnode)) = _Wherenode;

  00017	89 56 04	 mov	 DWORD PTR [esi+4], edx
$LN5@Lrotate:

; 1769 : 		this->_Parent(_Pnode) = this->_Parent(_Wherenode);

  0001a	8b 72 04	 mov	 esi, DWORD PTR [edx+4]
  0001d	89 70 04	 mov	 DWORD PTR [eax+4], esi

; 1770 : 
; 1771 : 		if (_Wherenode == _Root())

  00020	8b 49 04	 mov	 ecx, DWORD PTR [ecx+4]
  00023	5e		 pop	 esi
  00024	3b 51 04	 cmp	 edx, DWORD PTR [ecx+4]
  00027	75 0c		 jne	 SHORT $LN4@Lrotate

; 1772 : 			_Root() = _Pnode;

  00029	89 41 04	 mov	 DWORD PTR [ecx+4], eax

; 1777 : 
; 1778 : 		this->_Left(_Pnode) = _Wherenode;

  0002c	89 10		 mov	 DWORD PTR [eax], edx

; 1779 : 		this->_Parent(_Wherenode) = _Pnode;

  0002e	89 42 04	 mov	 DWORD PTR [edx+4], eax

; 1780 : 		}

  00031	5d		 pop	 ebp
  00032	c2 04 00	 ret	 4
$LN4@Lrotate:

; 1773 : 		else if (_Wherenode == this->_Left(this->_Parent(_Wherenode)))

  00035	8b 4a 04	 mov	 ecx, DWORD PTR [edx+4]
  00038	3b 11		 cmp	 edx, DWORD PTR [ecx]
  0003a	75 0b		 jne	 SHORT $LN2@Lrotate

; 1774 : 			this->_Left(this->_Parent(_Wherenode)) = _Pnode;

  0003c	89 01		 mov	 DWORD PTR [ecx], eax

; 1777 : 
; 1778 : 		this->_Left(_Pnode) = _Wherenode;

  0003e	89 10		 mov	 DWORD PTR [eax], edx

; 1779 : 		this->_Parent(_Wherenode) = _Pnode;

  00040	89 42 04	 mov	 DWORD PTR [edx+4], eax

; 1780 : 		}

  00043	5d		 pop	 ebp
  00044	c2 04 00	 ret	 4
$LN2@Lrotate:

; 1775 : 		else
; 1776 : 			this->_Right(this->_Parent(_Wherenode)) = _Pnode;

  00047	89 41 08	 mov	 DWORD PTR [ecx+8], eax

; 1777 : 
; 1778 : 		this->_Left(_Pnode) = _Wherenode;

  0004a	89 10		 mov	 DWORD PTR [eax], edx

; 1779 : 		this->_Parent(_Wherenode) = _Pnode;

  0004c	89 42 04	 mov	 DWORD PTR [edx+4], eax

; 1780 : 		}

  0004f	5d		 pop	 ebp
  00050	c2 04 00	 ret	 4
?_Lrotate@?$_Tree@V?$_Tmap_traits@HPAVTUnionInfo@@U?$less@H@std@@V?$allocator@U?$pair@$$CBHPAVTUnionInfo@@@std@@@3@$0A@@std@@@std@@IAEXPAU_Node@?$_Tree_nod@V?$_Tmap_traits@HPAVTUnionInfo@@U?$less@H@std@@V?$allocator@U?$pair@$$CBHPAVTUnionInfo@@@std@@@3@$0A@@std@@@2@@Z ENDP ; std::_Tree<std::_Tmap_traits<int,TUnionInfo *,std::less<int>,std::allocator<std::pair<int const ,TUnionInfo *> >,0> >::_Lrotate
_TEXT	ENDS
PUBLIC	?_Rrotate@?$_Tree@V?$_Tmap_traits@HPAVTUnionInfo@@U?$less@H@std@@V?$allocator@U?$pair@$$CBHPAVTUnionInfo@@@std@@@3@$0A@@std@@@std@@IAEXPAU_Node@?$_Tree_nod@V?$_Tmap_traits@HPAVTUnionInfo@@U?$less@H@std@@V?$allocator@U?$pair@$$CBHPAVTUnionInfo@@@std@@@3@$0A@@std@@@2@@Z ; std::_Tree<std::_Tmap_traits<int,TUnionInfo *,std::less<int>,std::allocator<std::pair<int const ,TUnionInfo *> >,0> >::_Rrotate
; Function compile flags: /Ogtp
;	COMDAT ?_Rrotate@?$_Tree@V?$_Tmap_traits@HPAVTUnionInfo@@U?$less@H@std@@V?$allocator@U?$pair@$$CBHPAVTUnionInfo@@@std@@@3@$0A@@std@@@std@@IAEXPAU_Node@?$_Tree_nod@V?$_Tmap_traits@HPAVTUnionInfo@@U?$less@H@std@@V?$allocator@U?$pair@$$CBHPAVTUnionInfo@@@std@@@3@$0A@@std@@@2@@Z
_TEXT	SEGMENT
__Wherenode$ = 8					; size = 4
?_Rrotate@?$_Tree@V?$_Tmap_traits@HPAVTUnionInfo@@U?$less@H@std@@V?$allocator@U?$pair@$$CBHPAVTUnionInfo@@@std@@@3@$0A@@std@@@std@@IAEXPAU_Node@?$_Tree_nod@V?$_Tmap_traits@HPAVTUnionInfo@@U?$less@H@std@@V?$allocator@U?$pair@$$CBHPAVTUnionInfo@@@std@@@3@$0A@@std@@@2@@Z PROC ; std::_Tree<std::_Tmap_traits<int,TUnionInfo *,std::less<int>,std::allocator<std::pair<int const ,TUnionInfo *> >,0> >::_Rrotate, COMDAT
; _this$ = ecx

; 1793 : 		{	// promote left node to root of subtree

  00000	55		 push	 ebp
  00001	8b ec		 mov	 ebp, esp

; 1794 : 		_Nodeptr _Pnode = this->_Left(_Wherenode);

  00003	8b 55 08	 mov	 edx, DWORD PTR __Wherenode$[ebp]
  00006	8b 02		 mov	 eax, DWORD PTR [edx]
  00008	56		 push	 esi

; 1795 : 		this->_Left(_Wherenode) = this->_Right(_Pnode);

  00009	8b 70 08	 mov	 esi, DWORD PTR [eax+8]
  0000c	89 32		 mov	 DWORD PTR [edx], esi

; 1796 : 
; 1797 : 		if (!this->_Isnil(this->_Right(_Pnode)))

  0000e	8b 70 08	 mov	 esi, DWORD PTR [eax+8]
  00011	80 7e 15 00	 cmp	 BYTE PTR [esi+21], 0
  00015	75 03		 jne	 SHORT $LN5@Rrotate

; 1798 : 			this->_Parent(this->_Right(_Pnode)) = _Wherenode;

  00017	89 56 04	 mov	 DWORD PTR [esi+4], edx
$LN5@Rrotate:

; 1799 : 		this->_Parent(_Pnode) = this->_Parent(_Wherenode);

  0001a	8b 72 04	 mov	 esi, DWORD PTR [edx+4]
  0001d	89 70 04	 mov	 DWORD PTR [eax+4], esi

; 1800 : 
; 1801 : 		if (_Wherenode == _Root())

  00020	8b 49 04	 mov	 ecx, DWORD PTR [ecx+4]
  00023	5e		 pop	 esi
  00024	3b 51 04	 cmp	 edx, DWORD PTR [ecx+4]
  00027	75 0d		 jne	 SHORT $LN4@Rrotate

; 1802 : 			_Root() = _Pnode;

  00029	89 41 04	 mov	 DWORD PTR [ecx+4], eax

; 1807 : 
; 1808 : 		this->_Right(_Pnode) = _Wherenode;

  0002c	89 50 08	 mov	 DWORD PTR [eax+8], edx

; 1809 : 		this->_Parent(_Wherenode) = _Pnode;

  0002f	89 42 04	 mov	 DWORD PTR [edx+4], eax

; 1810 : 		}

  00032	5d		 pop	 ebp
  00033	c2 04 00	 ret	 4
$LN4@Rrotate:

; 1803 : 		else if (_Wherenode == this->_Right(this->_Parent(_Wherenode)))

  00036	8b 4a 04	 mov	 ecx, DWORD PTR [edx+4]
  00039	3b 51 08	 cmp	 edx, DWORD PTR [ecx+8]
  0003c	75 0d		 jne	 SHORT $LN2@Rrotate

; 1804 : 			this->_Right(this->_Parent(_Wherenode)) = _Pnode;

  0003e	89 41 08	 mov	 DWORD PTR [ecx+8], eax

; 1807 : 
; 1808 : 		this->_Right(_Pnode) = _Wherenode;

  00041	89 50 08	 mov	 DWORD PTR [eax+8], edx

; 1809 : 		this->_Parent(_Wherenode) = _Pnode;

  00044	89 42 04	 mov	 DWORD PTR [edx+4], eax

; 1810 : 		}

  00047	5d		 pop	 ebp
  00048	c2 04 00	 ret	 4
$LN2@Rrotate:

; 1805 : 		else
; 1806 : 			this->_Left(this->_Parent(_Wherenode)) = _Pnode;

  0004b	89 01		 mov	 DWORD PTR [ecx], eax

; 1807 : 
; 1808 : 		this->_Right(_Pnode) = _Wherenode;

  0004d	89 50 08	 mov	 DWORD PTR [eax+8], edx

; 1809 : 		this->_Parent(_Wherenode) = _Pnode;

  00050	89 42 04	 mov	 DWORD PTR [edx+4], eax

; 1810 : 		}

  00053	5d		 pop	 ebp
  00054	c2 04 00	 ret	 4
?_Rrotate@?$_Tree@V?$_Tmap_traits@HPAVTUnionInfo@@U?$less@H@std@@V?$allocator@U?$pair@$$CBHPAVTUnionInfo@@@std@@@3@$0A@@std@@@std@@IAEXPAU_Node@?$_Tree_nod@V?$_Tmap_traits@HPAVTUnionInfo@@U?$less@H@std@@V?$allocator@U?$pair@$$CBHPAVTUnionInfo@@@std@@@3@$0A@@std@@@2@@Z ENDP ; std::_Tree<std::_Tmap_traits<int,TUnionInfo *,std::less<int>,std::allocator<std::pair<int const ,TUnionInfo *> >,0> >::_Rrotate
_TEXT	ENDS
PUBLIC	??0?$_Tree_nod@V?$_Tmap_traits@HPAVTUnionInfo@@U?$less@H@std@@V?$allocator@U?$pair@$$CBHPAVTUnionInfo@@@std@@@3@$0A@@std@@@std@@QAE@ABU?$less@H@1@V?$allocator@U?$pair@$$CBHPAVTUnionInfo@@@std@@@1@@Z ; std::_Tree_nod<std::_Tmap_traits<int,TUnionInfo *,std::less<int>,std::allocator<std::pair<int const ,TUnionInfo *> >,0> >::_Tree_nod<std::_Tmap_traits<int,TUnionInfo *,std::less<int>,std::allocator<std::pair<int const ,TUnionInfo *> >,0> >
; Function compile flags: /Ogtp
;	COMDAT ??0?$_Tree_nod@V?$_Tmap_traits@HPAVTUnionInfo@@U?$less@H@std@@V?$allocator@U?$pair@$$CBHPAVTUnionInfo@@@std@@@3@$0A@@std@@@std@@QAE@ABU?$less@H@1@V?$allocator@U?$pair@$$CBHPAVTUnionInfo@@@std@@@1@@Z
_TEXT	SEGMENT
__Parg$ = 8						; size = 4
__Al$ = 12						; size = 1
??0?$_Tree_nod@V?$_Tmap_traits@HPAVTUnionInfo@@U?$less@H@std@@V?$allocator@U?$pair@$$CBHPAVTUnionInfo@@@std@@@3@$0A@@std@@@std@@QAE@ABU?$less@H@1@V?$allocator@U?$pair@$$CBHPAVTUnionInfo@@@std@@@1@@Z PROC ; std::_Tree_nod<std::_Tmap_traits<int,TUnionInfo *,std::less<int>,std::allocator<std::pair<int const ,TUnionInfo *> >,0> >::_Tree_nod<std::_Tmap_traits<int,TUnionInfo *,std::less<int>,std::allocator<std::pair<int const ,TUnionInfo *> >,0> >, COMDAT
; _this$ = ecx

; 482  : 		{	// construct traits from _Parg and allocators from _Al

  00000	8b c1		 mov	 eax, ecx

; 483  : 		}

  00002	c2 08 00	 ret	 8
??0?$_Tree_nod@V?$_Tmap_traits@HPAVTUnionInfo@@U?$less@H@std@@V?$allocator@U?$pair@$$CBHPAVTUnionInfo@@@std@@@3@$0A@@std@@@std@@QAE@ABU?$less@H@1@V?$allocator@U?$pair@$$CBHPAVTUnionInfo@@@std@@@1@@Z ENDP ; std::_Tree_nod<std::_Tmap_traits<int,TUnionInfo *,std::less<int>,std::allocator<std::pair<int const ,TUnionInfo *> >,0> >::_Tree_nod<std::_Tmap_traits<int,TUnionInfo *,std::less<int>,std::allocator<std::pair<int const ,TUnionInfo *> >,0> >
_TEXT	ENDS
PUBLIC	??0?$_Tree_unchecked_const_iterator@V?$_Tree_val@V?$_Tmap_traits@HPAVTUnionInfo@@U?$less@H@std@@V?$allocator@U?$pair@$$CBHPAVTUnionInfo@@@std@@@3@$0A@@std@@@std@@U_Iterator_base0@2@@std@@QAE@PAU_Node@?$_Tree_nod@V?$_Tmap_traits@HPAVTUnionInfo@@U?$less@H@std@@V?$allocator@U?$pair@$$CBHPAVTUnionInfo@@@std@@@3@$0A@@std@@@1@PBV?$_Tree_val@V?$_Tmap_traits@HPAVTUnionInfo@@U?$less@H@std@@V?$allocator@U?$pair@$$CBHPAVTUnionInfo@@@std@@@3@$0A@@std@@@1@@Z ; std::_Tree_unchecked_const_iterator<std::_Tree_val<std::_Tmap_traits<int,TUnionInfo *,std::less<int>,std::allocator<std::pair<int const ,TUnionInfo *> >,0> >,std::_Iterator_base0>::_Tree_unchecked_const_iterator<std::_Tree_val<std::_Tmap_traits<int,TUnionInfo *,std::less<int>,std::allocator<std::pair<int const ,TUnionInfo *> >,0> >,std::_Iterator_base0>
; Function compile flags: /Ogtp
;	COMDAT ??0?$_Tree_unchecked_const_iterator@V?$_Tree_val@V?$_Tmap_traits@HPAVTUnionInfo@@U?$less@H@std@@V?$allocator@U?$pair@$$CBHPAVTUnionInfo@@@std@@@3@$0A@@std@@@std@@U_Iterator_base0@2@@std@@QAE@PAU_Node@?$_Tree_nod@V?$_Tmap_traits@HPAVTUnionInfo@@U?$less@H@std@@V?$allocator@U?$pair@$$CBHPAVTUnionInfo@@@std@@@3@$0A@@std@@@1@PBV?$_Tree_val@V?$_Tmap_traits@HPAVTUnionInfo@@U?$less@H@std@@V?$allocator@U?$pair@$$CBHPAVTUnionInfo@@@std@@@3@$0A@@std@@@1@@Z
_TEXT	SEGMENT
__Pnode$ = 8						; size = 4
__Plist$ = 12						; size = 4
??0?$_Tree_unchecked_const_iterator@V?$_Tree_val@V?$_Tmap_traits@HPAVTUnionInfo@@U?$less@H@std@@V?$allocator@U?$pair@$$CBHPAVTUnionInfo@@@std@@@3@$0A@@std@@@std@@U_Iterator_base0@2@@std@@QAE@PAU_Node@?$_Tree_nod@V?$_Tmap_traits@HPAVTUnionInfo@@U?$less@H@std@@V?$allocator@U?$pair@$$CBHPAVTUnionInfo@@@std@@@3@$0A@@std@@@1@PBV?$_Tree_val@V?$_Tmap_traits@HPAVTUnionInfo@@U?$less@H@std@@V?$allocator@U?$pair@$$CBHPAVTUnionInfo@@@std@@@3@$0A@@std@@@1@@Z PROC ; std::_Tree_unchecked_const_iterator<std::_Tree_val<std::_Tmap_traits<int,TUnionInfo *,std::less<int>,std::allocator<std::pair<int const ,TUnionInfo *> >,0> >,std::_Iterator_base0>::_Tree_unchecked_const_iterator<std::_Tree_val<std::_Tmap_traits<int,TUnionInfo *,std::less<int>,std::allocator<std::pair<int const ,TUnionInfo *> >,0> >,std::_Iterator_base0>, COMDAT
; _this$ = ecx

; 43   : 		{	// construct with node pointer _Pnode

  00000	55		 push	 ebp
  00001	8b ec		 mov	 ebp, esp
  00003	8b c1		 mov	 eax, ecx
  00005	8b 4d 08	 mov	 ecx, DWORD PTR __Pnode$[ebp]
  00008	89 08		 mov	 DWORD PTR [eax], ecx

; 44   : 		this->_Adopt(_Plist);
; 45   : 		}

  0000a	5d		 pop	 ebp
  0000b	c2 08 00	 ret	 8
??0?$_Tree_unchecked_const_iterator@V?$_Tree_val@V?$_Tmap_traits@HPAVTUnionInfo@@U?$less@H@std@@V?$allocator@U?$pair@$$CBHPAVTUnionInfo@@@std@@@3@$0A@@std@@@std@@U_Iterator_base0@2@@std@@QAE@PAU_Node@?$_Tree_nod@V?$_Tmap_traits@HPAVTUnionInfo@@U?$less@H@std@@V?$allocator@U?$pair@$$CBHPAVTUnionInfo@@@std@@@3@$0A@@std@@@1@PBV?$_Tree_val@V?$_Tmap_traits@HPAVTUnionInfo@@U?$less@H@std@@V?$allocator@U?$pair@$$CBHPAVTUnionInfo@@@std@@@3@$0A@@std@@@1@@Z ENDP ; std::_Tree_unchecked_const_iterator<std::_Tree_val<std::_Tmap_traits<int,TUnionInfo *,std::less<int>,std::allocator<std::pair<int const ,TUnionInfo *> >,0> >,std::_Iterator_base0>::_Tree_unchecked_const_iterator<std::_Tree_val<std::_Tmap_traits<int,TUnionInfo *,std::less<int>,std::allocator<std::pair<int const ,TUnionInfo *> >,0> >,std::_Iterator_base0>
_TEXT	ENDS
PUBLIC	??$_Cons_val@V?$allocator@H@std@@HAAH@std@@YAXAAV?$allocator@H@0@PAHAAH@Z ; std::_Cons_val<std::allocator<int>,int,int &>
; Function compile flags: /Ogtp
; File c:\program files (x86)\microsoft visual studio 10.0\vc\include\xmemory
;	COMDAT ??$_Cons_val@V?$allocator@H@std@@HAAH@std@@YAXAAV?$allocator@H@0@PAHAAH@Z
_TEXT	SEGMENT
__Alval$ = 8						; size = 4
__Pdest$ = 12						; size = 4
__Src$ = 16						; size = 4
??$_Cons_val@V?$allocator@H@std@@HAAH@std@@YAXAAV?$allocator@H@0@PAHAAH@Z PROC ; std::_Cons_val<std::allocator<int>,int,int &>, COMDAT

; 279  : 	{	// construct using allocator

  00000	55		 push	 ebp
  00001	8b ec		 mov	 ebp, esp

; 280  : 	_Alval.construct(_Pdest, _STD forward<_Ty2>(_Src));

  00003	8b 45 0c	 mov	 eax, DWORD PTR __Pdest$[ebp]
  00006	85 c0		 test	 eax, eax
  00008	74 07		 je	 SHORT $LN7@Cons_val
  0000a	8b 4d 10	 mov	 ecx, DWORD PTR __Src$[ebp]
  0000d	8b 11		 mov	 edx, DWORD PTR [ecx]
  0000f	89 10		 mov	 DWORD PTR [eax], edx
$LN7@Cons_val:

; 281  : 	}

  00011	5d		 pop	 ebp
  00012	c3		 ret	 0
??$_Cons_val@V?$allocator@H@std@@HAAH@std@@YAXAAV?$allocator@H@0@PAHAAH@Z ENDP ; std::_Cons_val<std::allocator<int>,int,int &>
_TEXT	ENDS
PUBLIC	??$swap@D@std@@YAXAAD0@Z			; std::swap<char>
; Function compile flags: /Ogtp
; File c:\program files (x86)\microsoft visual studio 10.0\vc\include\utility
;	COMDAT ??$swap@D@std@@YAXAAD0@Z
_TEXT	SEGMENT
__Left$ = 8						; size = 4
__Right$ = 12						; size = 4
??$swap@D@std@@YAXAAD0@Z PROC				; std::swap<char>, COMDAT

; 101  : 	{	// exchange values stored at _Left and _Right

  00000	55		 push	 ebp
  00001	8b ec		 mov	 ebp, esp

; 102  : 	_Ty _Tmp = _Move(_Left);

  00003	8b 45 08	 mov	 eax, DWORD PTR __Left$[ebp]
  00006	8a 08		 mov	 cl, BYTE PTR [eax]
  00008	56		 push	 esi

; 103  : 	_Left = _Move(_Right);

  00009	8b 75 0c	 mov	 esi, DWORD PTR __Right$[ebp]
  0000c	8a 16		 mov	 dl, BYTE PTR [esi]
  0000e	88 10		 mov	 BYTE PTR [eax], dl

; 104  : 	_Right = _Move(_Tmp);

  00010	88 0e		 mov	 BYTE PTR [esi], cl
  00012	5e		 pop	 esi

; 105  : 	}

  00013	5d		 pop	 ebp
  00014	c3		 ret	 0
??$swap@D@std@@YAXAAD0@Z ENDP				; std::swap<char>
_TEXT	ENDS
PUBLIC	??$?0AAV?$_Tree_iterator@V?$_Tree_val@V?$_Tmap_traits@HPAVTUnionInfo@@U?$less@H@std@@V?$allocator@U?$pair@$$CBHPAVTUnionInfo@@@std@@@3@$0A@@std@@@std@@@std@@AAV01@@?$pair@V?$_Tree_iterator@V?$_Tree_val@V?$_Tmap_traits@HPAVTUnionInfo@@U?$less@H@std@@V?$allocator@U?$pair@$$CBHPAVTUnionInfo@@@std@@@3@$0A@@std@@@std@@@std@@V12@@std@@QAE@AAV?$_Tree_iterator@V?$_Tree_val@V?$_Tmap_traits@HPAVTUnionInfo@@U?$less@H@std@@V?$allocator@U?$pair@$$CBHPAVTUnionInfo@@@std@@@3@$0A@@std@@@std@@@1@0@Z ; std::pair<std::_Tree_iterator<std::_Tree_val<std::_Tmap_traits<int,TUnionInfo *,std::less<int>,std::allocator<std::pair<int const ,TUnionInfo *> >,0> > >,std::_Tree_iterator<std::_Tree_val<std::_Tmap_traits<int,TUnionInfo *,std::less<int>,std::allocator<std::pair<int const ,TUnionInfo *> >,0> > > >::pair<std::_Tree_iterator<std::_Tree_val<std::_Tmap_traits<int,TUnionInfo *,std::less<int>,std::allocator<std::pair<int const ,TUnionInfo *> >,0> > >,std::_Tree_iterator<std::_Tree_val<std::_Tmap_traits<int,TUnionInfo *,std::less<int>,std::allocator<std::pair<int const ,TUnionInfo *> >,0> > > ><std::_Tree_iterator<std::_Tree_val<std::_Tmap_traits<int,TUnionInfo *,std::less<int>,std::allocator<std::pair<int const ,TUnionInfo *> >,0> > > &,std::_Tree_iterator<std::_Tree_val<std::_Tmap_traits<int,TUnionInfo *,std::less<int>,std::allocator<std::pair<int const ,TUnionInfo *> >,0> > > &>
; Function compile flags: /Ogtp
;	COMDAT ??$?0AAV?$_Tree_iterator@V?$_Tree_val@V?$_Tmap_traits@HPAVTUnionInfo@@U?$less@H@std@@V?$allocator@U?$pair@$$CBHPAVTUnionInfo@@@std@@@3@$0A@@std@@@std@@@std@@AAV01@@?$pair@V?$_Tree_iterator@V?$_Tree_val@V?$_Tmap_traits@HPAVTUnionInfo@@U?$less@H@std@@V?$allocator@U?$pair@$$CBHPAVTUnionInfo@@@std@@@3@$0A@@std@@@std@@@std@@V12@@std@@QAE@AAV?$_Tree_iterator@V?$_Tree_val@V?$_Tmap_traits@HPAVTUnionInfo@@U?$less@H@std@@V?$allocator@U?$pair@$$CBHPAVTUnionInfo@@@std@@@3@$0A@@std@@@std@@@1@0@Z
_TEXT	SEGMENT
__Val1$ = 8						; size = 4
__Val2$ = 12						; size = 4
??$?0AAV?$_Tree_iterator@V?$_Tree_val@V?$_Tmap_traits@HPAVTUnionInfo@@U?$less@H@std@@V?$allocator@U?$pair@$$CBHPAVTUnionInfo@@@std@@@3@$0A@@std@@@std@@@std@@AAV01@@?$pair@V?$_Tree_iterator@V?$_Tree_val@V?$_Tmap_traits@HPAVTUnionInfo@@U?$less@H@std@@V?$allocator@U?$pair@$$CBHPAVTUnionInfo@@@std@@@3@$0A@@std@@@std@@@std@@V12@@std@@QAE@AAV?$_Tree_iterator@V?$_Tree_val@V?$_Tmap_traits@HPAVTUnionInfo@@U?$less@H@std@@V?$allocator@U?$pair@$$CBHPAVTUnionInfo@@@std@@@3@$0A@@std@@@std@@@1@0@Z PROC ; std::pair<std::_Tree_iterator<std::_Tree_val<std::_Tmap_traits<int,TUnionInfo *,std::less<int>,std::allocator<std::pair<int const ,TUnionInfo *> >,0> > >,std::_Tree_iterator<std::_Tree_val<std::_Tmap_traits<int,TUnionInfo *,std::less<int>,std::allocator<std::pair<int const ,TUnionInfo *> >,0> > > >::pair<std::_Tree_iterator<std::_Tree_val<std::_Tmap_traits<int,TUnionInfo *,std::less<int>,std::allocator<std::pair<int const ,TUnionInfo *> >,0> > >,std::_Tree_iterator<std::_Tree_val<std::_Tmap_traits<int,TUnionInfo *,std::less<int>,std::allocator<std::pair<int const ,TUnionInfo *> >,0> > > ><std::_Tree_iterator<std::_Tree_val<std::_Tmap_traits<int,TUnionInfo *,std::less<int>,std::allocator<std::pair<int const ,TUnionInfo *> >,0> > > &,std::_Tree_iterator<std::_Tree_val<std::_Tmap_traits<int,TUnionInfo *,std::less<int>,std::allocator<std::pair<int const ,TUnionInfo *> >,0> > > &>, COMDAT
; _this$ = ecx

; 247  : 		{	// construct from moved values

  00000	55		 push	 ebp
  00001	8b ec		 mov	 ebp, esp
  00003	8b c1		 mov	 eax, ecx
  00005	8b 4d 08	 mov	 ecx, DWORD PTR __Val1$[ebp]
  00008	8b 11		 mov	 edx, DWORD PTR [ecx]
  0000a	8b 4d 0c	 mov	 ecx, DWORD PTR __Val2$[ebp]
  0000d	89 10		 mov	 DWORD PTR [eax], edx
  0000f	8b 11		 mov	 edx, DWORD PTR [ecx]
  00011	89 50 04	 mov	 DWORD PTR [eax+4], edx

; 248  : 		}

  00014	5d		 pop	 ebp
  00015	c2 08 00	 ret	 8
??$?0AAV?$_Tree_iterator@V?$_Tree_val@V?$_Tmap_traits@HPAVTUnionInfo@@U?$less@H@std@@V?$allocator@U?$pair@$$CBHPAVTUnionInfo@@@std@@@3@$0A@@std@@@std@@@std@@AAV01@@?$pair@V?$_Tree_iterator@V?$_Tree_val@V?$_Tmap_traits@HPAVTUnionInfo@@U?$less@H@std@@V?$allocator@U?$pair@$$CBHPAVTUnionInfo@@@std@@@3@$0A@@std@@@std@@@std@@V12@@std@@QAE@AAV?$_Tree_iterator@V?$_Tree_val@V?$_Tmap_traits@HPAVTUnionInfo@@U?$less@H@std@@V?$allocator@U?$pair@$$CBHPAVTUnionInfo@@@std@@@3@$0A@@std@@@std@@@1@0@Z ENDP ; std::pair<std::_Tree_iterator<std::_Tree_val<std::_Tmap_traits<int,TUnionInfo *,std::less<int>,std::allocator<std::pair<int const ,TUnionInfo *> >,0> > >,std::_Tree_iterator<std::_Tree_val<std::_Tmap_traits<int,TUnionInfo *,std::less<int>,std::allocator<std::pair<int const ,TUnionInfo *> >,0> > > >::pair<std::_Tree_iterator<std::_Tree_val<std::_Tmap_traits<int,TUnionInfo *,std::less<int>,std::allocator<std::pair<int const ,TUnionInfo *> >,0> > >,std::_Tree_iterator<std::_Tree_val<std::_Tmap_traits<int,TUnionInfo *,std::less<int>,std::allocator<std::pair<int const ,TUnionInfo *> >,0> > > ><std::_Tree_iterator<std::_Tree_val<std::_Tmap_traits<int,TUnionInfo *,std::less<int>,std::allocator<std::pair<int const ,TUnionInfo *> >,0> > > &,std::_Tree_iterator<std::_Tree_val<std::_Tmap_traits<int,TUnionInfo *,std::less<int>,std::allocator<std::pair<int const ,TUnionInfo *> >,0> > > &>
_TEXT	ENDS
PUBLIC	??$_Destroy_range@V?$allocator@H@std@@@std@@YAXPAH0AAV?$allocator@H@0@@Z ; std::_Destroy_range<std::allocator<int> >
; Function compile flags: /Ogtp
; File c:\program files (x86)\microsoft visual studio 10.0\vc\include\xmemory
;	COMDAT ??$_Destroy_range@V?$allocator@H@std@@@std@@YAXPAH0AAV?$allocator@H@0@@Z
_TEXT	SEGMENT
__First$ = 8						; size = 4
__Last$ = 12						; size = 4
__Al$ = 16						; size = 4
??$_Destroy_range@V?$allocator@H@std@@@std@@YAXPAH0AAV?$allocator@H@0@@Z PROC ; std::_Destroy_range<std::allocator<int> >, COMDAT

; 88   : 	_Destroy_range(_First, _Last, _Al, _Ptr_cat(_First, _Last));
; 89   : 	}

  00000	c3		 ret	 0
??$_Destroy_range@V?$allocator@H@std@@@std@@YAXPAH0AAV?$allocator@H@0@@Z ENDP ; std::_Destroy_range<std::allocator<int> >
_TEXT	ENDS
PUBLIC	__TI2?AVbad_alloc@std@@
PUBLIC	??$_Allocate@H@std@@YAPAHIPAH@Z			; std::_Allocate<int>
PUBLIC	__CTA2?AVbad_alloc@std@@
PUBLIC	__CT??_R0?AVbad_alloc@std@@@8??0bad_alloc@std@@QAE@ABV01@@Z12
PUBLIC	??0bad_alloc@std@@QAE@ABV01@@Z			; std::bad_alloc::bad_alloc
PUBLIC	__CT??_R0?AVexception@std@@@8??0exception@std@@QAE@ABV01@@Z12
EXTRN	??2@YAPAXI@Z:PROC				; operator new
EXTRN	__CxxThrowException@8:PROC
EXTRN	??0exception@std@@QAE@ABV01@@Z:PROC		; std::exception::exception
;	COMDAT __CT??_R0?AVexception@std@@@8??0exception@std@@QAE@ABV01@@Z12
; File c:\program files (x86)\microsoft visual studio 10.0\vc\include\exception
xdata$x	SEGMENT
__CT??_R0?AVexception@std@@@8??0exception@std@@QAE@ABV01@@Z12 DD 00H
	DD	FLAT:??_R0?AVexception@std@@@8
	DD	00H
	DD	0ffffffffH
	ORG $+4
	DD	0cH
	DD	FLAT:??0exception@std@@QAE@ABV01@@Z
xdata$x	ENDS
;	COMDAT __CT??_R0?AVbad_alloc@std@@@8??0bad_alloc@std@@QAE@ABV01@@Z12
xdata$x	SEGMENT
__CT??_R0?AVbad_alloc@std@@@8??0bad_alloc@std@@QAE@ABV01@@Z12 DD 00H
	DD	FLAT:??_R0?AVbad_alloc@std@@@8
	DD	00H
	DD	0ffffffffH
	ORG $+4
	DD	0cH
	DD	FLAT:??0bad_alloc@std@@QAE@ABV01@@Z
xdata$x	ENDS
;	COMDAT __CTA2?AVbad_alloc@std@@
xdata$x	SEGMENT
__CTA2?AVbad_alloc@std@@ DD 02H
	DD	FLAT:__CT??_R0?AVbad_alloc@std@@@8??0bad_alloc@std@@QAE@ABV01@@Z12
	DD	FLAT:__CT??_R0?AVexception@std@@@8??0exception@std@@QAE@ABV01@@Z12
xdata$x	ENDS
;	COMDAT __TI2?AVbad_alloc@std@@
xdata$x	SEGMENT
__TI2?AVbad_alloc@std@@ DD 00H
	DD	FLAT:??1bad_alloc@std@@UAE@XZ
	DD	00H
	DD	FLAT:__CTA2?AVbad_alloc@std@@
; Function compile flags: /Ogtp
; File c:\program files (x86)\microsoft visual studio 10.0\vc\include\xmemory
xdata$x	ENDS
;	COMDAT ??$_Allocate@H@std@@YAPAHIPAH@Z
_TEXT	SEGMENT
$T158546 = -12						; size = 12
$T158551 = 8						; size = 4
__Count$ = 8						; size = 4
___formal$ = 12						; size = 4
??$_Allocate@H@std@@YAPAHIPAH@Z PROC			; std::_Allocate<int>, COMDAT

; 30   : 	{	// allocate storage for _Count elements of type _Ty

  00000	55		 push	 ebp
  00001	8b ec		 mov	 ebp, esp

; 31   : 	void *_Ptr = 0;
; 32   : 
; 33   : 	if (_Count <= 0)

  00003	8b 4d 08	 mov	 ecx, DWORD PTR __Count$[ebp]
  00006	83 ec 0c	 sub	 esp, 12			; 0000000cH
  00009	33 c0		 xor	 eax, eax
  0000b	85 c9		 test	 ecx, ecx

; 34   : 		_Count = 0;
; 35   : 	else if (((_SIZT)(-1) / sizeof (_Ty) < _Count)

  0000d	74 44		 je	 SHORT $LN5@Allocate

; 36   : 		|| (_Ptr = ::operator new(_Count * sizeof (_Ty))) == 0)

  0000f	81 f9 ff ff ff
	3f		 cmp	 ecx, 1073741823		; 3fffffffH
  00015	77 14		 ja	 SHORT $LN1@Allocate
  00017	8d 04 8d 00 00
	00 00		 lea	 eax, DWORD PTR [ecx*4]
  0001e	50		 push	 eax
  0001f	e8 00 00 00 00	 call	 ??2@YAPAXI@Z		; operator new
  00024	83 c4 04	 add	 esp, 4
  00027	85 c0		 test	 eax, eax

; 38   : 
; 39   : 	return ((_Ty _FARQ *)_Ptr);

  00029	75 28		 jne	 SHORT $LN5@Allocate
$LN1@Allocate:

; 37   : 		_THROW_NCEE(bad_alloc, 0);

  0002b	8d 4d 08	 lea	 ecx, DWORD PTR $T158551[ebp]
  0002e	51		 push	 ecx
  0002f	8d 4d f4	 lea	 ecx, DWORD PTR $T158546[ebp]
  00032	c7 45 08 00 00
	00 00		 mov	 DWORD PTR $T158551[ebp], 0
  00039	e8 00 00 00 00	 call	 ??0exception@std@@QAE@ABQBD@Z ; std::exception::exception
  0003e	68 00 00 00 00	 push	 OFFSET __TI2?AVbad_alloc@std@@
  00043	8d 55 f4	 lea	 edx, DWORD PTR $T158546[ebp]
  00046	52		 push	 edx
  00047	c7 45 f4 00 00
	00 00		 mov	 DWORD PTR $T158546[ebp], OFFSET ??_7bad_alloc@std@@6B@
  0004e	e8 00 00 00 00	 call	 __CxxThrowException@8
$LN10@Allocate:
$LN5@Allocate:

; 40   : 	}

  00053	8b e5		 mov	 esp, ebp
  00055	5d		 pop	 ebp
  00056	c3		 ret	 0
$LN9@Allocate:
??$_Allocate@H@std@@YAPAHIPAH@Z ENDP			; std::_Allocate<int>
; Function compile flags: /Ogtp
_TEXT	ENDS
;	COMDAT ??0bad_alloc@std@@QAE@ABV01@@Z
_TEXT	SEGMENT
___that$ = 8						; size = 4
??0bad_alloc@std@@QAE@ABV01@@Z PROC			; std::bad_alloc::bad_alloc, COMDAT
; _this$ = ecx
  00000	55		 push	 ebp
  00001	8b ec		 mov	 ebp, esp
  00003	8b 45 08	 mov	 eax, DWORD PTR ___that$[ebp]
  00006	56		 push	 esi
  00007	50		 push	 eax
  00008	8b f1		 mov	 esi, ecx
  0000a	e8 00 00 00 00	 call	 ??0exception@std@@QAE@ABV01@@Z ; std::exception::exception
  0000f	c7 06 00 00 00
	00		 mov	 DWORD PTR [esi], OFFSET ??_7bad_alloc@std@@6B@
  00015	8b c6		 mov	 eax, esi
  00017	5e		 pop	 esi
  00018	5d		 pop	 ebp
  00019	c2 04 00	 ret	 4
??0bad_alloc@std@@QAE@ABV01@@Z ENDP			; std::bad_alloc::bad_alloc
_TEXT	ENDS
PUBLIC	??$_Allocate@U_Node@?$_Tree_nod@V?$_Tmap_traits@HPAVTUnionInfo@@U?$less@H@std@@V?$allocator@U?$pair@$$CBHPAVTUnionInfo@@@std@@@3@$0A@@std@@@std@@@std@@YAPAU_Node@?$_Tree_nod@V?$_Tmap_traits@HPAVTUnionInfo@@U?$less@H@std@@V?$allocator@U?$pair@$$CBHPAVTUnionInfo@@@std@@@3@$0A@@std@@@0@IPAU120@@Z ; std::_Allocate<std::_Tree_nod<std::_Tmap_traits<int,TUnionInfo *,std::less<int>,std::allocator<std::pair<int const ,TUnionInfo *> >,0> >::_Node>
; Function compile flags: /Ogtp
;	COMDAT ??$_Allocate@U_Node@?$_Tree_nod@V?$_Tmap_traits@HPAVTUnionInfo@@U?$less@H@std@@V?$allocator@U?$pair@$$CBHPAVTUnionInfo@@@std@@@3@$0A@@std@@@std@@@std@@YAPAU_Node@?$_Tree_nod@V?$_Tmap_traits@HPAVTUnionInfo@@U?$less@H@std@@V?$allocator@U?$pair@$$CBHPAVTUnionInfo@@@std@@@3@$0A@@std@@@0@IPAU120@@Z
_TEXT	SEGMENT
$T158559 = -12						; size = 12
$T158563 = 8						; size = 4
__Count$ = 8						; size = 4
___formal$ = 12						; size = 4
??$_Allocate@U_Node@?$_Tree_nod@V?$_Tmap_traits@HPAVTUnionInfo@@U?$less@H@std@@V?$allocator@U?$pair@$$CBHPAVTUnionInfo@@@std@@@3@$0A@@std@@@std@@@std@@YAPAU_Node@?$_Tree_nod@V?$_Tmap_traits@HPAVTUnionInfo@@U?$less@H@std@@V?$allocator@U?$pair@$$CBHPAVTUnionInfo@@@std@@@3@$0A@@std@@@0@IPAU120@@Z PROC ; std::_Allocate<std::_Tree_nod<std::_Tmap_traits<int,TUnionInfo *,std::less<int>,std::allocator<std::pair<int const ,TUnionInfo *> >,0> >::_Node>, COMDAT

; 30   : 	{	// allocate storage for _Count elements of type _Ty

  00000	55		 push	 ebp
  00001	8b ec		 mov	 ebp, esp

; 31   : 	void *_Ptr = 0;
; 32   : 
; 33   : 	if (_Count <= 0)

  00003	8b 4d 08	 mov	 ecx, DWORD PTR __Count$[ebp]
  00006	83 ec 0c	 sub	 esp, 12			; 0000000cH
  00009	33 c0		 xor	 eax, eax
  0000b	85 c9		 test	 ecx, ecx

; 34   : 		_Count = 0;
; 35   : 	else if (((_SIZT)(-1) / sizeof (_Ty) < _Count)

  0000d	74 46		 je	 SHORT $LN5@Allocate@2

; 36   : 		|| (_Ptr = ::operator new(_Count * sizeof (_Ty))) == 0)

  0000f	81 f9 aa aa aa
	0a		 cmp	 ecx, 178956970		; 0aaaaaaaH
  00015	77 16		 ja	 SHORT $LN1@Allocate@2
  00017	8d 04 49	 lea	 eax, DWORD PTR [ecx+ecx*2]
  0001a	03 c0		 add	 eax, eax
  0001c	03 c0		 add	 eax, eax
  0001e	03 c0		 add	 eax, eax
  00020	50		 push	 eax
  00021	e8 00 00 00 00	 call	 ??2@YAPAXI@Z		; operator new
  00026	83 c4 04	 add	 esp, 4
  00029	85 c0		 test	 eax, eax

; 38   : 
; 39   : 	return ((_Ty _FARQ *)_Ptr);

  0002b	75 28		 jne	 SHORT $LN5@Allocate@2
$LN1@Allocate@2:

; 37   : 		_THROW_NCEE(bad_alloc, 0);

  0002d	8d 4d 08	 lea	 ecx, DWORD PTR $T158563[ebp]
  00030	51		 push	 ecx
  00031	8d 4d f4	 lea	 ecx, DWORD PTR $T158559[ebp]
  00034	c7 45 08 00 00
	00 00		 mov	 DWORD PTR $T158563[ebp], 0
  0003b	e8 00 00 00 00	 call	 ??0exception@std@@QAE@ABQBD@Z ; std::exception::exception
  00040	68 00 00 00 00	 push	 OFFSET __TI2?AVbad_alloc@std@@
  00045	8d 55 f4	 lea	 edx, DWORD PTR $T158559[ebp]
  00048	52		 push	 edx
  00049	c7 45 f4 00 00
	00 00		 mov	 DWORD PTR $T158559[ebp], OFFSET ??_7bad_alloc@std@@6B@
  00050	e8 00 00 00 00	 call	 __CxxThrowException@8
$LN10@Allocate@2:
$LN5@Allocate@2:

; 40   : 	}

  00055	8b e5		 mov	 esp, ebp
  00057	5d		 pop	 ebp
  00058	c3		 ret	 0
$LN9@Allocate@2:
??$_Allocate@U_Node@?$_Tree_nod@V?$_Tmap_traits@HPAVTUnionInfo@@U?$less@H@std@@V?$allocator@U?$pair@$$CBHPAVTUnionInfo@@@std@@@3@$0A@@std@@@std@@@std@@YAPAU_Node@?$_Tree_nod@V?$_Tmap_traits@HPAVTUnionInfo@@U?$less@H@std@@V?$allocator@U?$pair@$$CBHPAVTUnionInfo@@@std@@@3@$0A@@std@@@0@IPAU120@@Z ENDP ; std::_Allocate<std::_Tree_nod<std::_Tmap_traits<int,TUnionInfo *,std::less<int>,std::allocator<std::pair<int const ,TUnionInfo *> >,0> >::_Node>
_TEXT	ENDS
PUBLIC	?construct@?$allocator@H@std@@QAEXPAHABH@Z	; std::allocator<int>::construct
; Function compile flags: /Ogtp
;	COMDAT ?construct@?$allocator@H@std@@QAEXPAHABH@Z
_TEXT	SEGMENT
__Ptr$ = 8						; size = 4
__Val$ = 12						; size = 4
?construct@?$allocator@H@std@@QAEXPAHABH@Z PROC		; std::allocator<int>::construct, COMDAT
; _this$ = ecx

; 196  : 		{	// construct object at _Ptr with value _Val

  00000	55		 push	 ebp
  00001	8b ec		 mov	 ebp, esp

; 197  : 		_Construct(_Ptr, _Val);

  00003	8b 45 08	 mov	 eax, DWORD PTR __Ptr$[ebp]
  00006	85 c0		 test	 eax, eax
  00008	74 07		 je	 SHORT $LN5@construct@2
  0000a	8b 4d 0c	 mov	 ecx, DWORD PTR __Val$[ebp]
  0000d	8b 11		 mov	 edx, DWORD PTR [ecx]
  0000f	89 10		 mov	 DWORD PTR [eax], edx
$LN5@construct@2:

; 198  : 		}

  00011	5d		 pop	 ebp
  00012	c2 08 00	 ret	 8
?construct@?$allocator@H@std@@QAEXPAHABH@Z ENDP		; std::allocator<int>::construct
_TEXT	ENDS
PUBLIC	?destroy@?$allocator@U?$pair@$$CBHPAVTUnionInfo@@@std@@@std@@QAEXPAU?$pair@$$CBHPAVTUnionInfo@@@2@@Z ; std::allocator<std::pair<int const ,TUnionInfo *> >::destroy
; Function compile flags: /Ogtp
;	COMDAT ?destroy@?$allocator@U?$pair@$$CBHPAVTUnionInfo@@@std@@@std@@QAEXPAU?$pair@$$CBHPAVTUnionInfo@@@2@@Z
_TEXT	SEGMENT
__Ptr$ = 8						; size = 4
?destroy@?$allocator@U?$pair@$$CBHPAVTUnionInfo@@@std@@@std@@QAEXPAU?$pair@$$CBHPAVTUnionInfo@@@2@@Z PROC ; std::allocator<std::pair<int const ,TUnionInfo *> >::destroy, COMDAT
; _this$ = ecx

; 213  : 		_Destroy(_Ptr);
; 214  : 		}

  00000	c2 04 00	 ret	 4
?destroy@?$allocator@U?$pair@$$CBHPAVTUnionInfo@@@std@@@std@@QAEXPAU?$pair@$$CBHPAVTUnionInfo@@@2@@Z ENDP ; std::allocator<std::pair<int const ,TUnionInfo *> >::destroy
_TEXT	ENDS
PUBLIC	??F?$_Tree_const_iterator@V?$_Tree_val@V?$_Tmap_traits@HPAVTUnionInfo@@U?$less@H@std@@V?$allocator@U?$pair@$$CBHPAVTUnionInfo@@@std@@@3@$0A@@std@@@std@@@std@@QAEAAV01@XZ ; std::_Tree_const_iterator<std::_Tree_val<std::_Tmap_traits<int,TUnionInfo *,std::less<int>,std::allocator<std::pair<int const ,TUnionInfo *> >,0> > >::operator--
; Function compile flags: /Ogtp
; File c:\program files (x86)\microsoft visual studio 10.0\vc\include\xtree
;	COMDAT ??F?$_Tree_const_iterator@V?$_Tree_val@V?$_Tmap_traits@HPAVTUnionInfo@@U?$less@H@std@@V?$allocator@U?$pair@$$CBHPAVTUnionInfo@@@std@@@3@$0A@@std@@@std@@@std@@QAEAAV01@XZ
_TEXT	SEGMENT
??F?$_Tree_const_iterator@V?$_Tree_val@V?$_Tmap_traits@HPAVTUnionInfo@@U?$less@H@std@@V?$allocator@U?$pair@$$CBHPAVTUnionInfo@@@std@@@3@$0A@@std@@@std@@@std@@QAEAAV01@XZ PROC ; std::_Tree_const_iterator<std::_Tree_val<std::_Tmap_traits<int,TUnionInfo *,std::less<int>,std::allocator<std::pair<int const ,TUnionInfo *> >,0> > >::operator--, COMDAT
; _this$ = ecx

; 277  : 		{	// predecrement

  00000	56		 push	 esi
  00001	8b f1		 mov	 esi, ecx

; 278  :  #if _ITERATOR_DEBUG_LEVEL == 2
; 279  : 		if (this->_Getcont() == 0
; 280  : 			|| this->_Ptr == 0)
; 281  : 			{	// report error
; 282  : 			_DEBUG_ERROR("map/set iterator not decrementable");
; 283  : 			_SCL_SECURE_OUT_OF_RANGE;
; 284  : 			}
; 285  : 
; 286  : 		_Nodeptr _Ptrsav = this->_Ptr;
; 287  : 		--(*(_Mybase *)this);
; 288  : 		if (_Ptrsav == this->_Ptr)
; 289  : 			{	// report error
; 290  : 			_DEBUG_ERROR("map/set iterator not decrementable");
; 291  : 			_SCL_SECURE_OUT_OF_RANGE;
; 292  : 			}
; 293  : 
; 294  :  #elif _ITERATOR_DEBUG_LEVEL == 1
; 295  : 		_SCL_SECURE_VALIDATE(this->_Getcont() != 0 && this->_Ptr != 0);
; 296  : 
; 297  : 		_Nodeptr _Ptrsav = this->_Ptr;
; 298  : 		--(*(_Mybase *)this);
; 299  : 		_SCL_SECURE_VALIDATE(_Ptrsav != this->_Ptr);
; 300  : 
; 301  :  #else /* _ITERATOR_DEBUG_LEVEL == 0 */
; 302  : 		--(*(_Mybase *)this);

  00003	e8 00 00 00 00	 call	 ??F?$_Tree_unchecked_const_iterator@V?$_Tree_val@V?$_Tmap_traits@HPAVTUnionInfo@@U?$less@H@std@@V?$allocator@U?$pair@$$CBHPAVTUnionInfo@@@std@@@3@$0A@@std@@@std@@U_Iterator_base0@2@@std@@QAEAAV01@XZ ; std::_Tree_unchecked_const_iterator<std::_Tree_val<std::_Tmap_traits<int,TUnionInfo *,std::less<int>,std::allocator<std::pair<int const ,TUnionInfo *> >,0> >,std::_Iterator_base0>::operator--

; 303  :  #endif /* _ITERATOR_DEBUG_LEVEL */
; 304  : 
; 305  : 		return (*this);

  00008	8b c6		 mov	 eax, esi
  0000a	5e		 pop	 esi

; 306  : 		}

  0000b	c3		 ret	 0
??F?$_Tree_const_iterator@V?$_Tree_val@V?$_Tmap_traits@HPAVTUnionInfo@@U?$less@H@std@@V?$allocator@U?$pair@$$CBHPAVTUnionInfo@@@std@@@3@$0A@@std@@@std@@@std@@QAEAAV01@XZ ENDP ; std::_Tree_const_iterator<std::_Tree_val<std::_Tmap_traits<int,TUnionInfo *,std::less<int>,std::allocator<std::pair<int const ,TUnionInfo *> >,0> > >::operator--
_TEXT	ENDS
PUBLIC	?max_size@?$_Tree@V?$_Tmap_traits@HPAVTUnionInfo@@U?$less@H@std@@V?$allocator@U?$pair@$$CBHPAVTUnionInfo@@@std@@@3@$0A@@std@@@std@@QBEIXZ ; std::_Tree<std::_Tmap_traits<int,TUnionInfo *,std::less<int>,std::allocator<std::pair<int const ,TUnionInfo *> >,0> >::max_size
; Function compile flags: /Ogtp
;	COMDAT ?max_size@?$_Tree@V?$_Tmap_traits@HPAVTUnionInfo@@U?$less@H@std@@V?$allocator@U?$pair@$$CBHPAVTUnionInfo@@@std@@@3@$0A@@std@@@std@@QBEIXZ
_TEXT	SEGMENT
?max_size@?$_Tree@V?$_Tmap_traits@HPAVTUnionInfo@@U?$less@H@std@@V?$allocator@U?$pair@$$CBHPAVTUnionInfo@@@std@@@3@$0A@@std@@@std@@QBEIXZ PROC ; std::_Tree<std::_Tmap_traits<int,TUnionInfo *,std::less<int>,std::allocator<std::pair<int const ,TUnionInfo *> >,0> >::max_size, COMDAT
; _this$ = ecx

; 874  : 		return (this->_Alval.max_size());

  00000	b8 ff ff ff 1f	 mov	 eax, 536870911		; 1fffffffH

; 875  : 		}

  00005	c3		 ret	 0
?max_size@?$_Tree@V?$_Tmap_traits@HPAVTUnionInfo@@U?$less@H@std@@V?$allocator@U?$pair@$$CBHPAVTUnionInfo@@@std@@@3@$0A@@std@@@std@@QBEIXZ ENDP ; std::_Tree<std::_Tmap_traits<int,TUnionInfo *,std::less<int>,std::allocator<std::pair<int const ,TUnionInfo *> >,0> >::max_size
_TEXT	ENDS
PUBLIC	??F?$_Tree_iterator@V?$_Tree_val@V?$_Tmap_traits@HPAVTUnionInfo@@U?$less@H@std@@V?$allocator@U?$pair@$$CBHPAVTUnionInfo@@@std@@@3@$0A@@std@@@std@@@std@@QAEAAV01@XZ ; std::_Tree_iterator<std::_Tree_val<std::_Tmap_traits<int,TUnionInfo *,std::less<int>,std::allocator<std::pair<int const ,TUnionInfo *> >,0> > >::operator--
; Function compile flags: /Ogtp
;	COMDAT ??F?$_Tree_iterator@V?$_Tree_val@V?$_Tmap_traits@HPAVTUnionInfo@@U?$less@H@std@@V?$allocator@U?$pair@$$CBHPAVTUnionInfo@@@std@@@3@$0A@@std@@@std@@@std@@QAEAAV01@XZ
_TEXT	SEGMENT
??F?$_Tree_iterator@V?$_Tree_val@V?$_Tmap_traits@HPAVTUnionInfo@@U?$less@H@std@@V?$allocator@U?$pair@$$CBHPAVTUnionInfo@@@std@@@3@$0A@@std@@@std@@@std@@QAEAAV01@XZ PROC ; std::_Tree_iterator<std::_Tree_val<std::_Tmap_traits<int,TUnionInfo *,std::less<int>,std::allocator<std::pair<int const ,TUnionInfo *> >,0> > >::operator--, COMDAT
; _this$ = ecx

; 418  : 		{	// predecrement

  00000	56		 push	 esi
  00001	8b f1		 mov	 esi, ecx

; 419  : 		--(*(_Mybase *)this);

  00003	e8 00 00 00 00	 call	 ??F?$_Tree_unchecked_const_iterator@V?$_Tree_val@V?$_Tmap_traits@HPAVTUnionInfo@@U?$less@H@std@@V?$allocator@U?$pair@$$CBHPAVTUnionInfo@@@std@@@3@$0A@@std@@@std@@U_Iterator_base0@2@@std@@QAEAAV01@XZ ; std::_Tree_unchecked_const_iterator<std::_Tree_val<std::_Tmap_traits<int,TUnionInfo *,std::less<int>,std::allocator<std::pair<int const ,TUnionInfo *> >,0> >,std::_Iterator_base0>::operator--

; 420  : 		return (*this);

  00008	8b c6		 mov	 eax, esi
  0000a	5e		 pop	 esi

; 421  : 		}

  0000b	c3		 ret	 0
??F?$_Tree_iterator@V?$_Tree_val@V?$_Tmap_traits@HPAVTUnionInfo@@U?$less@H@std@@V?$allocator@U?$pair@$$CBHPAVTUnionInfo@@@std@@@3@$0A@@std@@@std@@@std@@QAEAAV01@XZ ENDP ; std::_Tree_iterator<std::_Tree_val<std::_Tmap_traits<int,TUnionInfo *,std::less<int>,std::allocator<std::pair<int const ,TUnionInfo *> >,0> > >::operator--
_TEXT	ENDS
PUBLIC	??0?$_Pair_base@V?$_Tree_iterator@V?$_Tree_val@V?$_Tmap_traits@HPAVTUnionInfo@@U?$less@H@std@@V?$allocator@U?$pair@$$CBHPAVTUnionInfo@@@std@@@3@$0A@@std@@@std@@@std@@_N@std@@QAE@$$QAV?$_Tree_iterator@V?$_Tree_val@V?$_Tmap_traits@HPAVTUnionInfo@@U?$less@H@std@@V?$allocator@U?$pair@$$CBHPAVTUnionInfo@@@std@@@3@$0A@@std@@@std@@@1@$$QA_N@Z ; std::_Pair_base<std::_Tree_iterator<std::_Tree_val<std::_Tmap_traits<int,TUnionInfo *,std::less<int>,std::allocator<std::pair<int const ,TUnionInfo *> >,0> > >,bool>::_Pair_base<std::_Tree_iterator<std::_Tree_val<std::_Tmap_traits<int,TUnionInfo *,std::less<int>,std::allocator<std::pair<int const ,TUnionInfo *> >,0> > >,bool>
; Function compile flags: /Ogtp
; File c:\program files (x86)\microsoft visual studio 10.0\vc\include\utility
;	COMDAT ??0?$_Pair_base@V?$_Tree_iterator@V?$_Tree_val@V?$_Tmap_traits@HPAVTUnionInfo@@U?$less@H@std@@V?$allocator@U?$pair@$$CBHPAVTUnionInfo@@@std@@@3@$0A@@std@@@std@@@std@@_N@std@@QAE@$$QAV?$_Tree_iterator@V?$_Tree_val@V?$_Tmap_traits@HPAVTUnionInfo@@U?$less@H@std@@V?$allocator@U?$pair@$$CBHPAVTUnionInfo@@@std@@@3@$0A@@std@@@std@@@1@$$QA_N@Z
_TEXT	SEGMENT
__Val1$ = 8						; size = 4
__Val2$ = 12						; size = 4
??0?$_Pair_base@V?$_Tree_iterator@V?$_Tree_val@V?$_Tmap_traits@HPAVTUnionInfo@@U?$less@H@std@@V?$allocator@U?$pair@$$CBHPAVTUnionInfo@@@std@@@3@$0A@@std@@@std@@@std@@_N@std@@QAE@$$QAV?$_Tree_iterator@V?$_Tree_val@V?$_Tmap_traits@HPAVTUnionInfo@@U?$less@H@std@@V?$allocator@U?$pair@$$CBHPAVTUnionInfo@@@std@@@3@$0A@@std@@@std@@@1@$$QA_N@Z PROC ; std::_Pair_base<std::_Tree_iterator<std::_Tree_val<std::_Tmap_traits<int,TUnionInfo *,std::less<int>,std::allocator<std::pair<int const ,TUnionInfo *> >,0> > >,bool>::_Pair_base<std::_Tree_iterator<std::_Tree_val<std::_Tmap_traits<int,TUnionInfo *,std::less<int>,std::allocator<std::pair<int const ,TUnionInfo *> >,0> > >,bool>, COMDAT
; _this$ = ecx

; 145  : 		{	// construct from specified values

  00000	55		 push	 ebp
  00001	8b ec		 mov	 ebp, esp
  00003	8b c1		 mov	 eax, ecx
  00005	8b 4d 08	 mov	 ecx, DWORD PTR __Val1$[ebp]
  00008	8b 11		 mov	 edx, DWORD PTR [ecx]
  0000a	8b 4d 0c	 mov	 ecx, DWORD PTR __Val2$[ebp]
  0000d	89 10		 mov	 DWORD PTR [eax], edx
  0000f	8a 11		 mov	 dl, BYTE PTR [ecx]
  00011	88 50 04	 mov	 BYTE PTR [eax+4], dl

; 146  : 		}

  00014	5d		 pop	 ebp
  00015	c2 08 00	 ret	 8
??0?$_Pair_base@V?$_Tree_iterator@V?$_Tree_val@V?$_Tmap_traits@HPAVTUnionInfo@@U?$less@H@std@@V?$allocator@U?$pair@$$CBHPAVTUnionInfo@@@std@@@3@$0A@@std@@@std@@@std@@_N@std@@QAE@$$QAV?$_Tree_iterator@V?$_Tree_val@V?$_Tmap_traits@HPAVTUnionInfo@@U?$less@H@std@@V?$allocator@U?$pair@$$CBHPAVTUnionInfo@@@std@@@3@$0A@@std@@@std@@@1@$$QA_N@Z ENDP ; std::_Pair_base<std::_Tree_iterator<std::_Tree_val<std::_Tmap_traits<int,TUnionInfo *,std::less<int>,std::allocator<std::pair<int const ,TUnionInfo *> >,0> > >,bool>::_Pair_base<std::_Tree_iterator<std::_Tree_val<std::_Tmap_traits<int,TUnionInfo *,std::less<int>,std::allocator<std::pair<int const ,TUnionInfo *> >,0> > >,bool>
_TEXT	ENDS
PUBLIC	??$_Uninitialized_move@PAHPAHV?$allocator@H@std@@@std@@YAPAHPAH00AAV?$allocator@H@0@@Z ; std::_Uninitialized_move<int *,int *,std::allocator<int> >
; Function compile flags: /Ogtp
; File c:\program files (x86)\microsoft visual studio 10.0\vc\include\memory
;	COMDAT ??$_Uninitialized_move@PAHPAHV?$allocator@H@std@@@std@@YAPAHPAH00AAV?$allocator@H@0@@Z
_TEXT	SEGMENT
__First$ = 8						; size = 4
__Last$ = 12						; size = 4
__Dest$ = 16						; size = 4
__Al$ = 20						; size = 4
??$_Uninitialized_move@PAHPAHV?$allocator@H@std@@@std@@YAPAHPAH00AAV?$allocator@H@0@@Z PROC ; std::_Uninitialized_move<int *,int *,std::allocator<int> >, COMDAT

; 469  : 	{	// move [_First, _Last) to raw _Dest, using _Al

  00000	55		 push	 ebp
  00001	8b ec		 mov	 ebp, esp

; 470  : 	return (_Uninit_move(_First, _Last, _Dest, _Al,
; 471  : 		_Val_type(_First), _Ptr_cat(_First, _Dest)));

  00003	8b 4d 08	 mov	 ecx, DWORD PTR __First$[ebp]
  00006	8b 45 0c	 mov	 eax, DWORD PTR __Last$[ebp]
  00009	2b c1		 sub	 eax, ecx
  0000b	56		 push	 esi
  0000c	c1 f8 02	 sar	 eax, 2
  0000f	8d 34 85 00 00
	00 00		 lea	 esi, DWORD PTR [eax*4]
  00016	8b 45 10	 mov	 eax, DWORD PTR __Dest$[ebp]
  00019	56		 push	 esi
  0001a	51		 push	 ecx
  0001b	50		 push	 eax
  0001c	e8 00 00 00 00	 call	 _memmove
  00021	83 c4 0c	 add	 esp, 12			; 0000000cH
  00024	03 c6		 add	 eax, esi
  00026	5e		 pop	 esi

; 472  : 	}

  00027	5d		 pop	 ebp
  00028	c3		 ret	 0
??$_Uninitialized_move@PAHPAHV?$allocator@H@std@@@std@@YAPAHPAH00AAV?$allocator@H@0@@Z ENDP ; std::_Uninitialized_move<int *,int *,std::allocator<int> >
_TEXT	ENDS
PUBLIC	??$?0AAV?$_Tree_iterator@V?$_Tree_val@V?$_Tmap_traits@HPAVTUnionInfo@@U?$less@H@std@@V?$allocator@U?$pair@$$CBHPAVTUnionInfo@@@std@@@3@$0A@@std@@@std@@@std@@_N@?$pair@V?$_Tree_iterator@V?$_Tree_val@V?$_Tmap_traits@HPAVTUnionInfo@@U?$less@H@std@@V?$allocator@U?$pair@$$CBHPAVTUnionInfo@@@std@@@3@$0A@@std@@@std@@@std@@_N@std@@QAE@AAV?$_Tree_iterator@V?$_Tree_val@V?$_Tmap_traits@HPAVTUnionInfo@@U?$less@H@std@@V?$allocator@U?$pair@$$CBHPAVTUnionInfo@@@std@@@3@$0A@@std@@@std@@@1@$$QA_N@Z ; std::pair<std::_Tree_iterator<std::_Tree_val<std::_Tmap_traits<int,TUnionInfo *,std::less<int>,std::allocator<std::pair<int const ,TUnionInfo *> >,0> > >,bool>::pair<std::_Tree_iterator<std::_Tree_val<std::_Tmap_traits<int,TUnionInfo *,std::less<int>,std::allocator<std::pair<int const ,TUnionInfo *> >,0> > >,bool><std::_Tree_iterator<std::_Tree_val<std::_Tmap_traits<int,TUnionInfo *,std::less<int>,std::allocator<std::pair<int const ,TUnionInfo *> >,0> > > &,bool>
; Function compile flags: /Ogtp
; File c:\program files (x86)\microsoft visual studio 10.0\vc\include\utility
;	COMDAT ??$?0AAV?$_Tree_iterator@V?$_Tree_val@V?$_Tmap_traits@HPAVTUnionInfo@@U?$less@H@std@@V?$allocator@U?$pair@$$CBHPAVTUnionInfo@@@std@@@3@$0A@@std@@@std@@@std@@_N@?$pair@V?$_Tree_iterator@V?$_Tree_val@V?$_Tmap_traits@HPAVTUnionInfo@@U?$less@H@std@@V?$allocator@U?$pair@$$CBHPAVTUnionInfo@@@std@@@3@$0A@@std@@@std@@@std@@_N@std@@QAE@AAV?$_Tree_iterator@V?$_Tree_val@V?$_Tmap_traits@HPAVTUnionInfo@@U?$less@H@std@@V?$allocator@U?$pair@$$CBHPAVTUnionInfo@@@std@@@3@$0A@@std@@@std@@@1@$$QA_N@Z
_TEXT	SEGMENT
__Val1$ = 8						; size = 4
__Val2$ = 12						; size = 4
??$?0AAV?$_Tree_iterator@V?$_Tree_val@V?$_Tmap_traits@HPAVTUnionInfo@@U?$less@H@std@@V?$allocator@U?$pair@$$CBHPAVTUnionInfo@@@std@@@3@$0A@@std@@@std@@@std@@_N@?$pair@V?$_Tree_iterator@V?$_Tree_val@V?$_Tmap_traits@HPAVTUnionInfo@@U?$less@H@std@@V?$allocator@U?$pair@$$CBHPAVTUnionInfo@@@std@@@3@$0A@@std@@@std@@@std@@_N@std@@QAE@AAV?$_Tree_iterator@V?$_Tree_val@V?$_Tmap_traits@HPAVTUnionInfo@@U?$less@H@std@@V?$allocator@U?$pair@$$CBHPAVTUnionInfo@@@std@@@3@$0A@@std@@@std@@@1@$$QA_N@Z PROC ; std::pair<std::_Tree_iterator<std::_Tree_val<std::_Tmap_traits<int,TUnionInfo *,std::less<int>,std::allocator<std::pair<int const ,TUnionInfo *> >,0> > >,bool>::pair<std::_Tree_iterator<std::_Tree_val<std::_Tmap_traits<int,TUnionInfo *,std::less<int>,std::allocator<std::pair<int const ,TUnionInfo *> >,0> > >,bool><std::_Tree_iterator<std::_Tree_val<std::_Tmap_traits<int,TUnionInfo *,std::less<int>,std::allocator<std::pair<int const ,TUnionInfo *> >,0> > > &,bool>, COMDAT
; _this$ = ecx

; 247  : 		{	// construct from moved values

  00000	55		 push	 ebp
  00001	8b ec		 mov	 ebp, esp
  00003	8b c1		 mov	 eax, ecx
  00005	8b 4d 08	 mov	 ecx, DWORD PTR __Val1$[ebp]
  00008	8b 11		 mov	 edx, DWORD PTR [ecx]
  0000a	8b 4d 0c	 mov	 ecx, DWORD PTR __Val2$[ebp]
  0000d	89 10		 mov	 DWORD PTR [eax], edx
  0000f	8a 11		 mov	 dl, BYTE PTR [ecx]
  00011	88 50 04	 mov	 BYTE PTR [eax+4], dl

; 248  : 		}

  00014	5d		 pop	 ebp
  00015	c2 08 00	 ret	 8
??$?0AAV?$_Tree_iterator@V?$_Tree_val@V?$_Tmap_traits@HPAVTUnionInfo@@U?$less@H@std@@V?$allocator@U?$pair@$$CBHPAVTUnionInfo@@@std@@@3@$0A@@std@@@std@@@std@@_N@?$pair@V?$_Tree_iterator@V?$_Tree_val@V?$_Tmap_traits@HPAVTUnionInfo@@U?$less@H@std@@V?$allocator@U?$pair@$$CBHPAVTUnionInfo@@@std@@@3@$0A@@std@@@std@@@std@@_N@std@@QAE@AAV?$_Tree_iterator@V?$_Tree_val@V?$_Tmap_traits@HPAVTUnionInfo@@U?$less@H@std@@V?$allocator@U?$pair@$$CBHPAVTUnionInfo@@@std@@@3@$0A@@std@@@std@@@1@$$QA_N@Z ENDP ; std::pair<std::_Tree_iterator<std::_Tree_val<std::_Tmap_traits<int,TUnionInfo *,std::less<int>,std::allocator<std::pair<int const ,TUnionInfo *> >,0> > >,bool>::pair<std::_Tree_iterator<std::_Tree_val<std::_Tmap_traits<int,TUnionInfo *,std::less<int>,std::allocator<std::pair<int const ,TUnionInfo *> >,0> > >,bool><std::_Tree_iterator<std::_Tree_val<std::_Tmap_traits<int,TUnionInfo *,std::less<int>,std::allocator<std::pair<int const ,TUnionInfo *> >,0> > > &,bool>
_TEXT	ENDS
PUBLIC	??0?$_Pair_base@$$CBHPAVTUnionInfo@@@std@@QAE@$$QBH$$QAPAVTUnionInfo@@@Z ; std::_Pair_base<int const ,TUnionInfo *>::_Pair_base<int const ,TUnionInfo *>
; Function compile flags: /Ogtp
;	COMDAT ??0?$_Pair_base@$$CBHPAVTUnionInfo@@@std@@QAE@$$QBH$$QAPAVTUnionInfo@@@Z
_TEXT	SEGMENT
__Val1$ = 8						; size = 4
__Val2$ = 12						; size = 4
??0?$_Pair_base@$$CBHPAVTUnionInfo@@@std@@QAE@$$QBH$$QAPAVTUnionInfo@@@Z PROC ; std::_Pair_base<int const ,TUnionInfo *>::_Pair_base<int const ,TUnionInfo *>, COMDAT
; _this$ = ecx

; 145  : 		{	// construct from specified values

  00000	55		 push	 ebp
  00001	8b ec		 mov	 ebp, esp
  00003	8b c1		 mov	 eax, ecx
  00005	8b 4d 08	 mov	 ecx, DWORD PTR __Val1$[ebp]
  00008	8b 11		 mov	 edx, DWORD PTR [ecx]
  0000a	8b 4d 0c	 mov	 ecx, DWORD PTR __Val2$[ebp]
  0000d	89 10		 mov	 DWORD PTR [eax], edx
  0000f	8b 11		 mov	 edx, DWORD PTR [ecx]
  00011	89 50 04	 mov	 DWORD PTR [eax+4], edx

; 146  : 		}

  00014	5d		 pop	 ebp
  00015	c2 08 00	 ret	 8
??0?$_Pair_base@$$CBHPAVTUnionInfo@@@std@@QAE@$$QBH$$QAPAVTUnionInfo@@@Z ENDP ; std::_Pair_base<int const ,TUnionInfo *>::_Pair_base<int const ,TUnionInfo *>
_TEXT	ENDS
PUBLIC	??0?$_Tree_iterator@V?$_Tree_val@V?$_Tmap_traits@HPAVTUnionInfo@@U?$less@H@std@@V?$allocator@U?$pair@$$CBHPAVTUnionInfo@@@std@@@3@$0A@@std@@@std@@@std@@QAE@XZ ; std::_Tree_iterator<std::_Tree_val<std::_Tmap_traits<int,TUnionInfo *,std::less<int>,std::allocator<std::pair<int const ,TUnionInfo *> >,0> > >::_Tree_iterator<std::_Tree_val<std::_Tmap_traits<int,TUnionInfo *,std::less<int>,std::allocator<std::pair<int const ,TUnionInfo *> >,0> > >
; Function compile flags: /Ogtp
; File c:\program files (x86)\microsoft visual studio 10.0\vc\include\xtree
;	COMDAT ??0?$_Tree_iterator@V?$_Tree_val@V?$_Tmap_traits@HPAVTUnionInfo@@U?$less@H@std@@V?$allocator@U?$pair@$$CBHPAVTUnionInfo@@@std@@@3@$0A@@std@@@std@@@std@@QAE@XZ
_TEXT	SEGMENT
??0?$_Tree_iterator@V?$_Tree_val@V?$_Tmap_traits@HPAVTUnionInfo@@U?$less@H@std@@V?$allocator@U?$pair@$$CBHPAVTUnionInfo@@@std@@@3@$0A@@std@@@std@@@std@@QAE@XZ PROC ; std::_Tree_iterator<std::_Tree_val<std::_Tmap_traits<int,TUnionInfo *,std::less<int>,std::allocator<std::pair<int const ,TUnionInfo *> >,0> > >::_Tree_iterator<std::_Tree_val<std::_Tmap_traits<int,TUnionInfo *,std::less<int>,std::allocator<std::pair<int const ,TUnionInfo *> >,0> > >, COMDAT
; _this$ = ecx

; 372  : 	_Tree_iterator()

  00000	8b c1		 mov	 eax, ecx
  00002	c7 00 00 00 00
	00		 mov	 DWORD PTR [eax], 0

; 373  : 		{	// construct with null node
; 374  : 		}

  00008	c3		 ret	 0
??0?$_Tree_iterator@V?$_Tree_val@V?$_Tmap_traits@HPAVTUnionInfo@@U?$less@H@std@@V?$allocator@U?$pair@$$CBHPAVTUnionInfo@@@std@@@3@$0A@@std@@@std@@@std@@QAE@XZ ENDP ; std::_Tree_iterator<std::_Tree_val<std::_Tmap_traits<int,TUnionInfo *,std::less<int>,std::allocator<std::pair<int const ,TUnionInfo *> >,0> > >::_Tree_iterator<std::_Tree_val<std::_Tmap_traits<int,TUnionInfo *,std::less<int>,std::allocator<std::pair<int const ,TUnionInfo *> >,0> > >
_TEXT	ENDS
PUBLIC	??D?$_Tree_iterator@V?$_Tree_val@V?$_Tmap_traits@HPAVTUnionInfo@@U?$less@H@std@@V?$allocator@U?$pair@$$CBHPAVTUnionInfo@@@std@@@3@$0A@@std@@@std@@@std@@QBEAAU?$pair@$$CBHPAVTUnionInfo@@@1@XZ ; std::_Tree_iterator<std::_Tree_val<std::_Tmap_traits<int,TUnionInfo *,std::less<int>,std::allocator<std::pair<int const ,TUnionInfo *> >,0> > >::operator*
; Function compile flags: /Ogtp
;	COMDAT ??D?$_Tree_iterator@V?$_Tree_val@V?$_Tmap_traits@HPAVTUnionInfo@@U?$less@H@std@@V?$allocator@U?$pair@$$CBHPAVTUnionInfo@@@std@@@3@$0A@@std@@@std@@@std@@QBEAAU?$pair@$$CBHPAVTUnionInfo@@@1@XZ
_TEXT	SEGMENT
??D?$_Tree_iterator@V?$_Tree_val@V?$_Tmap_traits@HPAVTUnionInfo@@U?$less@H@std@@V?$allocator@U?$pair@$$CBHPAVTUnionInfo@@@std@@@3@$0A@@std@@@std@@@std@@QBEAAU?$pair@$$CBHPAVTUnionInfo@@@1@XZ PROC ; std::_Tree_iterator<std::_Tree_val<std::_Tmap_traits<int,TUnionInfo *,std::less<int>,std::allocator<std::pair<int const ,TUnionInfo *> >,0> > >::operator*, COMDAT
; _this$ = ecx

; 396  : 		return ((reference)**(_Mybase *)this);

  00000	8b 01		 mov	 eax, DWORD PTR [ecx]
  00002	83 c0 0c	 add	 eax, 12			; 0000000cH

; 397  : 		}

  00005	c3		 ret	 0
??D?$_Tree_iterator@V?$_Tree_val@V?$_Tmap_traits@HPAVTUnionInfo@@U?$less@H@std@@V?$allocator@U?$pair@$$CBHPAVTUnionInfo@@@std@@@3@$0A@@std@@@std@@@std@@QBEAAU?$pair@$$CBHPAVTUnionInfo@@@1@XZ ENDP ; std::_Tree_iterator<std::_Tree_val<std::_Tmap_traits<int,TUnionInfo *,std::less<int>,std::allocator<std::pair<int const ,TUnionInfo *> >,0> > >::operator*
_TEXT	ENDS
PUBLIC	??C?$_Tree_iterator@V?$_Tree_val@V?$_Tmap_traits@HPAVTUnionInfo@@U?$less@H@std@@V?$allocator@U?$pair@$$CBHPAVTUnionInfo@@@std@@@3@$0A@@std@@@std@@@std@@QBEPAU?$pair@$$CBHPAVTUnionInfo@@@1@XZ ; std::_Tree_iterator<std::_Tree_val<std::_Tmap_traits<int,TUnionInfo *,std::less<int>,std::allocator<std::pair<int const ,TUnionInfo *> >,0> > >::operator->
; Function compile flags: /Ogtp
;	COMDAT ??C?$_Tree_iterator@V?$_Tree_val@V?$_Tmap_traits@HPAVTUnionInfo@@U?$less@H@std@@V?$allocator@U?$pair@$$CBHPAVTUnionInfo@@@std@@@3@$0A@@std@@@std@@@std@@QBEPAU?$pair@$$CBHPAVTUnionInfo@@@1@XZ
_TEXT	SEGMENT
??C?$_Tree_iterator@V?$_Tree_val@V?$_Tmap_traits@HPAVTUnionInfo@@U?$less@H@std@@V?$allocator@U?$pair@$$CBHPAVTUnionInfo@@@std@@@3@$0A@@std@@@std@@@std@@QBEPAU?$pair@$$CBHPAVTUnionInfo@@@1@XZ PROC ; std::_Tree_iterator<std::_Tree_val<std::_Tmap_traits<int,TUnionInfo *,std::less<int>,std::allocator<std::pair<int const ,TUnionInfo *> >,0> > >::operator->, COMDAT
; _this$ = ecx

; 401  : 		return (&**this);

  00000	8b 01		 mov	 eax, DWORD PTR [ecx]
  00002	83 c0 0c	 add	 eax, 12			; 0000000cH

; 402  : 		}

  00005	c3		 ret	 0
??C?$_Tree_iterator@V?$_Tree_val@V?$_Tmap_traits@HPAVTUnionInfo@@U?$less@H@std@@V?$allocator@U?$pair@$$CBHPAVTUnionInfo@@@std@@@3@$0A@@std@@@std@@@std@@QBEPAU?$pair@$$CBHPAVTUnionInfo@@@1@XZ ENDP ; std::_Tree_iterator<std::_Tree_val<std::_Tmap_traits<int,TUnionInfo *,std::less<int>,std::allocator<std::pair<int const ,TUnionInfo *> >,0> > >::operator->
_TEXT	ENDS
PUBLIC	??E?$_Tree_const_iterator@V?$_Tree_val@V?$_Tmap_traits@HPAVTUnionInfo@@U?$less@H@std@@V?$allocator@U?$pair@$$CBHPAVTUnionInfo@@@std@@@3@$0A@@std@@@std@@@std@@QAEAAV01@XZ ; std::_Tree_const_iterator<std::_Tree_val<std::_Tmap_traits<int,TUnionInfo *,std::less<int>,std::allocator<std::pair<int const ,TUnionInfo *> >,0> > >::operator++
; Function compile flags: /Ogtp
;	COMDAT ??E?$_Tree_const_iterator@V?$_Tree_val@V?$_Tmap_traits@HPAVTUnionInfo@@U?$less@H@std@@V?$allocator@U?$pair@$$CBHPAVTUnionInfo@@@std@@@3@$0A@@std@@@std@@@std@@QAEAAV01@XZ
_TEXT	SEGMENT
??E?$_Tree_const_iterator@V?$_Tree_val@V?$_Tmap_traits@HPAVTUnionInfo@@U?$less@H@std@@V?$allocator@U?$pair@$$CBHPAVTUnionInfo@@@std@@@3@$0A@@std@@@std@@@std@@QAEAAV01@XZ PROC ; std::_Tree_const_iterator<std::_Tree_val<std::_Tmap_traits<int,TUnionInfo *,std::less<int>,std::allocator<std::pair<int const ,TUnionInfo *> >,0> > >::operator++, COMDAT
; _this$ = ecx

; 250  : 		{	// preincrement

  00000	56		 push	 esi
  00001	8b f1		 mov	 esi, ecx

; 251  :  #if _ITERATOR_DEBUG_LEVEL == 2
; 252  : 		if (this->_Getcont() == 0
; 253  : 			|| this->_Ptr == 0
; 254  : 			|| _Mytree::_Isnil(this->_Ptr))
; 255  : 			{	// report error
; 256  : 			_DEBUG_ERROR("map/set iterator not incrementable");
; 257  : 			_SCL_SECURE_OUT_OF_RANGE;
; 258  : 			}
; 259  : 
; 260  :  #elif _ITERATOR_DEBUG_LEVEL == 1
; 261  : 		_SCL_SECURE_VALIDATE(this->_Getcont() != 0 && this->_Ptr != 0);
; 262  : 		_SCL_SECURE_VALIDATE_RANGE(!_Mytree::_Isnil(this->_Ptr));
; 263  :  #endif /* _ITERATOR_DEBUG_LEVEL */
; 264  : 
; 265  : 		++(*(_Mybase *)this);

  00003	e8 00 00 00 00	 call	 ??E?$_Tree_unchecked_const_iterator@V?$_Tree_val@V?$_Tmap_traits@HPAVTUnionInfo@@U?$less@H@std@@V?$allocator@U?$pair@$$CBHPAVTUnionInfo@@@std@@@3@$0A@@std@@@std@@U_Iterator_base0@2@@std@@QAEAAV01@XZ ; std::_Tree_unchecked_const_iterator<std::_Tree_val<std::_Tmap_traits<int,TUnionInfo *,std::less<int>,std::allocator<std::pair<int const ,TUnionInfo *> >,0> >,std::_Iterator_base0>::operator++

; 266  : 		return (*this);

  00008	8b c6		 mov	 eax, esi
  0000a	5e		 pop	 esi

; 267  : 		}

  0000b	c3		 ret	 0
??E?$_Tree_const_iterator@V?$_Tree_val@V?$_Tmap_traits@HPAVTUnionInfo@@U?$less@H@std@@V?$allocator@U?$pair@$$CBHPAVTUnionInfo@@@std@@@3@$0A@@std@@@std@@@std@@QAEAAV01@XZ ENDP ; std::_Tree_const_iterator<std::_Tree_val<std::_Tmap_traits<int,TUnionInfo *,std::less<int>,std::allocator<std::pair<int const ,TUnionInfo *> >,0> > >::operator++
_TEXT	ENDS
PUBLIC	??0?$pair@$$CBHPAVTUnionInfo@@@std@@QAE@ABH$$QAPAVTUnionInfo@@@Z ; std::pair<int const ,TUnionInfo *>::pair<int const ,TUnionInfo *>
; Function compile flags: /Ogtp
; File c:\program files (x86)\microsoft visual studio 10.0\vc\include\utility
;	COMDAT ??0?$pair@$$CBHPAVTUnionInfo@@@std@@QAE@ABH$$QAPAVTUnionInfo@@@Z
_TEXT	SEGMENT
__Val1$ = 8						; size = 4
__Val2$ = 12						; size = 4
??0?$pair@$$CBHPAVTUnionInfo@@@std@@QAE@ABH$$QAPAVTUnionInfo@@@Z PROC ; std::pair<int const ,TUnionInfo *>::pair<int const ,TUnionInfo *>, COMDAT
; _this$ = ecx

; 233  : 		{	// construct from specified values

  00000	55		 push	 ebp
  00001	8b ec		 mov	 ebp, esp
  00003	8b c1		 mov	 eax, ecx
  00005	8b 4d 08	 mov	 ecx, DWORD PTR __Val1$[ebp]
  00008	8b 11		 mov	 edx, DWORD PTR [ecx]
  0000a	8b 4d 0c	 mov	 ecx, DWORD PTR __Val2$[ebp]
  0000d	89 10		 mov	 DWORD PTR [eax], edx
  0000f	8b 11		 mov	 edx, DWORD PTR [ecx]
  00011	89 50 04	 mov	 DWORD PTR [eax+4], edx

; 234  : 		}

  00014	5d		 pop	 ebp
  00015	c2 08 00	 ret	 8
??0?$pair@$$CBHPAVTUnionInfo@@@std@@QAE@ABH$$QAPAVTUnionInfo@@@Z ENDP ; std::pair<int const ,TUnionInfo *>::pair<int const ,TUnionInfo *>
_TEXT	ENDS
PUBLIC	??0?$_Tree_const_iterator@V?$_Tree_val@V?$_Tmap_traits@HPAVTUnionInfo@@U?$less@H@std@@V?$allocator@U?$pair@$$CBHPAVTUnionInfo@@@std@@@3@$0A@@std@@@std@@@std@@QAE@PAU_Node@?$_Tree_nod@V?$_Tmap_traits@HPAVTUnionInfo@@U?$less@H@std@@V?$allocator@U?$pair@$$CBHPAVTUnionInfo@@@std@@@3@$0A@@std@@@1@PBV?$_Tree_val@V?$_Tmap_traits@HPAVTUnionInfo@@U?$less@H@std@@V?$allocator@U?$pair@$$CBHPAVTUnionInfo@@@std@@@3@$0A@@std@@@1@@Z ; std::_Tree_const_iterator<std::_Tree_val<std::_Tmap_traits<int,TUnionInfo *,std::less<int>,std::allocator<std::pair<int const ,TUnionInfo *> >,0> > >::_Tree_const_iterator<std::_Tree_val<std::_Tmap_traits<int,TUnionInfo *,std::less<int>,std::allocator<std::pair<int const ,TUnionInfo *> >,0> > >
; Function compile flags: /Ogtp
; File c:\program files (x86)\microsoft visual studio 10.0\vc\include\xtree
;	COMDAT ??0?$_Tree_const_iterator@V?$_Tree_val@V?$_Tmap_traits@HPAVTUnionInfo@@U?$less@H@std@@V?$allocator@U?$pair@$$CBHPAVTUnionInfo@@@std@@@3@$0A@@std@@@std@@@std@@QAE@PAU_Node@?$_Tree_nod@V?$_Tmap_traits@HPAVTUnionInfo@@U?$less@H@std@@V?$allocator@U?$pair@$$CBHPAVTUnionInfo@@@std@@@3@$0A@@std@@@1@PBV?$_Tree_val@V?$_Tmap_traits@HPAVTUnionInfo@@U?$less@H@std@@V?$allocator@U?$pair@$$CBHPAVTUnionInfo@@@std@@@3@$0A@@std@@@1@@Z
_TEXT	SEGMENT
__Pnode$ = 8						; size = 4
__Plist$ = 12						; size = 4
??0?$_Tree_const_iterator@V?$_Tree_val@V?$_Tmap_traits@HPAVTUnionInfo@@U?$less@H@std@@V?$allocator@U?$pair@$$CBHPAVTUnionInfo@@@std@@@3@$0A@@std@@@std@@@std@@QAE@PAU_Node@?$_Tree_nod@V?$_Tmap_traits@HPAVTUnionInfo@@U?$less@H@std@@V?$allocator@U?$pair@$$CBHPAVTUnionInfo@@@std@@@3@$0A@@std@@@1@PBV?$_Tree_val@V?$_Tmap_traits@HPAVTUnionInfo@@U?$less@H@std@@V?$allocator@U?$pair@$$CBHPAVTUnionInfo@@@std@@@3@$0A@@std@@@1@@Z PROC ; std::_Tree_const_iterator<std::_Tree_val<std::_Tmap_traits<int,TUnionInfo *,std::less<int>,std::allocator<std::pair<int const ,TUnionInfo *> >,0> > >::_Tree_const_iterator<std::_Tree_val<std::_Tmap_traits<int,TUnionInfo *,std::less<int>,std::allocator<std::pair<int const ,TUnionInfo *> >,0> > >, COMDAT
; _this$ = ecx

; 213  : 		{	// construct with node pointer _Pnode

  00000	55		 push	 ebp
  00001	8b ec		 mov	 ebp, esp
  00003	8b c1		 mov	 eax, ecx
  00005	8b 4d 08	 mov	 ecx, DWORD PTR __Pnode$[ebp]
  00008	89 08		 mov	 DWORD PTR [eax], ecx

; 214  : 		}

  0000a	5d		 pop	 ebp
  0000b	c2 08 00	 ret	 8
??0?$_Tree_const_iterator@V?$_Tree_val@V?$_Tmap_traits@HPAVTUnionInfo@@U?$less@H@std@@V?$allocator@U?$pair@$$CBHPAVTUnionInfo@@@std@@@3@$0A@@std@@@std@@@std@@QAE@PAU_Node@?$_Tree_nod@V?$_Tmap_traits@HPAVTUnionInfo@@U?$less@H@std@@V?$allocator@U?$pair@$$CBHPAVTUnionInfo@@@std@@@3@$0A@@std@@@1@PBV?$_Tree_val@V?$_Tmap_traits@HPAVTUnionInfo@@U?$less@H@std@@V?$allocator@U?$pair@$$CBHPAVTUnionInfo@@@std@@@3@$0A@@std@@@1@@Z ENDP ; std::_Tree_const_iterator<std::_Tree_val<std::_Tmap_traits<int,TUnionInfo *,std::less<int>,std::allocator<std::pair<int const ,TUnionInfo *> >,0> > >::_Tree_const_iterator<std::_Tree_val<std::_Tmap_traits<int,TUnionInfo *,std::less<int>,std::allocator<std::pair<int const ,TUnionInfo *> >,0> > >
_TEXT	ENDS
PUBLIC	??E?$_Tree_const_iterator@V?$_Tree_val@V?$_Tmap_traits@HPAVTUnionInfo@@U?$less@H@std@@V?$allocator@U?$pair@$$CBHPAVTUnionInfo@@@std@@@3@$0A@@std@@@std@@@std@@QAE?AV01@H@Z ; std::_Tree_const_iterator<std::_Tree_val<std::_Tmap_traits<int,TUnionInfo *,std::less<int>,std::allocator<std::pair<int const ,TUnionInfo *> >,0> > >::operator++
; Function compile flags: /Ogtp
;	COMDAT ??E?$_Tree_const_iterator@V?$_Tree_val@V?$_Tmap_traits@HPAVTUnionInfo@@U?$less@H@std@@V?$allocator@U?$pair@$$CBHPAVTUnionInfo@@@std@@@3@$0A@@std@@@std@@@std@@QAE?AV01@H@Z
_TEXT	SEGMENT
___$ReturnUdt$ = 8					; size = 4
___formal$ = 12						; size = 4
??E?$_Tree_const_iterator@V?$_Tree_val@V?$_Tmap_traits@HPAVTUnionInfo@@U?$less@H@std@@V?$allocator@U?$pair@$$CBHPAVTUnionInfo@@@std@@@3@$0A@@std@@@std@@@std@@QAE?AV01@H@Z PROC ; std::_Tree_const_iterator<std::_Tree_val<std::_Tmap_traits<int,TUnionInfo *,std::less<int>,std::allocator<std::pair<int const ,TUnionInfo *> >,0> > >::operator++, COMDAT
; _this$ = ecx

; 270  : 		{	// postincrement

  00000	55		 push	 ebp
  00001	8b ec		 mov	 ebp, esp

; 271  : 		_Myiter _Tmp = *this;

  00003	8b 01		 mov	 eax, DWORD PTR [ecx]
  00005	56		 push	 esi
  00006	8b 75 08	 mov	 esi, DWORD PTR ___$ReturnUdt$[ebp]
  00009	89 06		 mov	 DWORD PTR [esi], eax

; 272  : 		++*this;

  0000b	e8 00 00 00 00	 call	 ??E?$_Tree_unchecked_const_iterator@V?$_Tree_val@V?$_Tmap_traits@HPAVTUnionInfo@@U?$less@H@std@@V?$allocator@U?$pair@$$CBHPAVTUnionInfo@@@std@@@3@$0A@@std@@@std@@U_Iterator_base0@2@@std@@QAEAAV01@XZ ; std::_Tree_unchecked_const_iterator<std::_Tree_val<std::_Tmap_traits<int,TUnionInfo *,std::less<int>,std::allocator<std::pair<int const ,TUnionInfo *> >,0> >,std::_Iterator_base0>::operator++

; 273  : 		return (_Tmp);

  00010	8b c6		 mov	 eax, esi
  00012	5e		 pop	 esi

; 274  : 		}

  00013	5d		 pop	 ebp
  00014	c2 08 00	 ret	 8
??E?$_Tree_const_iterator@V?$_Tree_val@V?$_Tmap_traits@HPAVTUnionInfo@@U?$less@H@std@@V?$allocator@U?$pair@$$CBHPAVTUnionInfo@@@std@@@3@$0A@@std@@@std@@@std@@QAE?AV01@H@Z ENDP ; std::_Tree_const_iterator<std::_Tree_val<std::_Tmap_traits<int,TUnionInfo *,std::less<int>,std::allocator<std::pair<int const ,TUnionInfo *> >,0> > >::operator++
_TEXT	ENDS
PUBLIC	?_Destroy@?$vector@HV?$allocator@H@std@@@std@@IAEXPAH0@Z ; std::vector<int,std::allocator<int> >::_Destroy
; Function compile flags: /Ogtp
; File c:\program files (x86)\microsoft visual studio 10.0\vc\include\vector
;	COMDAT ?_Destroy@?$vector@HV?$allocator@H@std@@@std@@IAEXPAH0@Z
_TEXT	SEGMENT
__First$ = 8						; size = 4
__Last$ = 12						; size = 4
?_Destroy@?$vector@HV?$allocator@H@std@@@std@@IAEXPAH0@Z PROC ; std::vector<int,std::allocator<int> >::_Destroy, COMDAT
; _this$ = ecx

; 1270 : 		_Destroy_range(_First, _Last, this->_Alval);
; 1271 : 		}

  00000	c2 08 00	 ret	 8
?_Destroy@?$vector@HV?$allocator@H@std@@@std@@IAEXPAH0@Z ENDP ; std::vector<int,std::allocator<int> >::_Destroy
_TEXT	ENDS
PUBLIC	?allocate@?$allocator@H@std@@QAEPAHI@Z		; std::allocator<int>::allocate
; Function compile flags: /Ogtp
; File c:\program files (x86)\microsoft visual studio 10.0\vc\include\xmemory
;	COMDAT ?allocate@?$allocator@H@std@@QAEPAHI@Z
_TEXT	SEGMENT
$T158750 = -12						; size = 12
$T158748 = 8						; size = 4
__Count$ = 8						; size = 4
?allocate@?$allocator@H@std@@QAEPAHI@Z PROC		; std::allocator<int>::allocate, COMDAT
; _this$ = ecx

; 186  : 		{	// allocate array of _Count elements

  00000	55		 push	 ebp
  00001	8b ec		 mov	 ebp, esp

; 187  : 		return (_Allocate(_Count, (pointer)0));

  00003	8b 4d 08	 mov	 ecx, DWORD PTR __Count$[ebp]
  00006	83 ec 0c	 sub	 esp, 12			; 0000000cH
  00009	33 c0		 xor	 eax, eax
  0000b	85 c9		 test	 ecx, ecx
  0000d	74 44		 je	 SHORT $LN1@allocate
  0000f	81 f9 ff ff ff
	3f		 cmp	 ecx, 1073741823		; 3fffffffH
  00015	77 14		 ja	 SHORT $LN3@allocate
  00017	8d 04 8d 00 00
	00 00		 lea	 eax, DWORD PTR [ecx*4]
  0001e	50		 push	 eax
  0001f	e8 00 00 00 00	 call	 ??2@YAPAXI@Z		; operator new
  00024	83 c4 04	 add	 esp, 4
  00027	85 c0		 test	 eax, eax
  00029	75 28		 jne	 SHORT $LN1@allocate
$LN3@allocate:
  0002b	8d 4d 08	 lea	 ecx, DWORD PTR $T158748[ebp]
  0002e	51		 push	 ecx
  0002f	8d 4d f4	 lea	 ecx, DWORD PTR $T158750[ebp]
  00032	c7 45 08 00 00
	00 00		 mov	 DWORD PTR $T158748[ebp], 0
  00039	e8 00 00 00 00	 call	 ??0exception@std@@QAE@ABQBD@Z ; std::exception::exception
  0003e	68 00 00 00 00	 push	 OFFSET __TI2?AVbad_alloc@std@@
  00043	8d 55 f4	 lea	 edx, DWORD PTR $T158750[ebp]
  00046	52		 push	 edx
  00047	c7 45 f4 00 00
	00 00		 mov	 DWORD PTR $T158750[ebp], OFFSET ??_7bad_alloc@std@@6B@
  0004e	e8 00 00 00 00	 call	 __CxxThrowException@8
$LN13@allocate:
$LN1@allocate:

; 188  : 		}

  00053	8b e5		 mov	 esp, ebp
  00055	5d		 pop	 ebp
  00056	c2 04 00	 ret	 4
$LN12@allocate:
?allocate@?$allocator@H@std@@QAEPAHI@Z ENDP		; std::allocator<int>::allocate
_TEXT	ENDS
PUBLIC	?allocate@?$allocator@U_Node@?$_Tree_nod@V?$_Tmap_traits@HPAVTUnionInfo@@U?$less@H@std@@V?$allocator@U?$pair@$$CBHPAVTUnionInfo@@@std@@@3@$0A@@std@@@std@@@std@@QAEPAU_Node@?$_Tree_nod@V?$_Tmap_traits@HPAVTUnionInfo@@U?$less@H@std@@V?$allocator@U?$pair@$$CBHPAVTUnionInfo@@@std@@@3@$0A@@std@@@2@I@Z ; std::allocator<std::_Tree_nod<std::_Tmap_traits<int,TUnionInfo *,std::less<int>,std::allocator<std::pair<int const ,TUnionInfo *> >,0> >::_Node>::allocate
; Function compile flags: /Ogtp
;	COMDAT ?allocate@?$allocator@U_Node@?$_Tree_nod@V?$_Tmap_traits@HPAVTUnionInfo@@U?$less@H@std@@V?$allocator@U?$pair@$$CBHPAVTUnionInfo@@@std@@@3@$0A@@std@@@std@@@std@@QAEPAU_Node@?$_Tree_nod@V?$_Tmap_traits@HPAVTUnionInfo@@U?$less@H@std@@V?$allocator@U?$pair@$$CBHPAVTUnionInfo@@@std@@@3@$0A@@std@@@2@I@Z
_TEXT	SEGMENT
$T158773 = -12						; size = 12
$T158771 = 8						; size = 4
__Count$ = 8						; size = 4
?allocate@?$allocator@U_Node@?$_Tree_nod@V?$_Tmap_traits@HPAVTUnionInfo@@U?$less@H@std@@V?$allocator@U?$pair@$$CBHPAVTUnionInfo@@@std@@@3@$0A@@std@@@std@@@std@@QAEPAU_Node@?$_Tree_nod@V?$_Tmap_traits@HPAVTUnionInfo@@U?$less@H@std@@V?$allocator@U?$pair@$$CBHPAVTUnionInfo@@@std@@@3@$0A@@std@@@2@I@Z PROC ; std::allocator<std::_Tree_nod<std::_Tmap_traits<int,TUnionInfo *,std::less<int>,std::allocator<std::pair<int const ,TUnionInfo *> >,0> >::_Node>::allocate, COMDAT
; _this$ = ecx

; 186  : 		{	// allocate array of _Count elements

  00000	55		 push	 ebp
  00001	8b ec		 mov	 ebp, esp

; 187  : 		return (_Allocate(_Count, (pointer)0));

  00003	8b 4d 08	 mov	 ecx, DWORD PTR __Count$[ebp]
  00006	83 ec 0c	 sub	 esp, 12			; 0000000cH
  00009	33 c0		 xor	 eax, eax
  0000b	85 c9		 test	 ecx, ecx
  0000d	74 46		 je	 SHORT $LN1@allocate@2
  0000f	81 f9 aa aa aa
	0a		 cmp	 ecx, 178956970		; 0aaaaaaaH
  00015	77 16		 ja	 SHORT $LN3@allocate@2
  00017	8d 04 49	 lea	 eax, DWORD PTR [ecx+ecx*2]
  0001a	03 c0		 add	 eax, eax
  0001c	03 c0		 add	 eax, eax
  0001e	03 c0		 add	 eax, eax
  00020	50		 push	 eax
  00021	e8 00 00 00 00	 call	 ??2@YAPAXI@Z		; operator new
  00026	83 c4 04	 add	 esp, 4
  00029	85 c0		 test	 eax, eax
  0002b	75 28		 jne	 SHORT $LN1@allocate@2
$LN3@allocate@2:
  0002d	8d 4d 08	 lea	 ecx, DWORD PTR $T158771[ebp]
  00030	51		 push	 ecx
  00031	8d 4d f4	 lea	 ecx, DWORD PTR $T158773[ebp]
  00034	c7 45 08 00 00
	00 00		 mov	 DWORD PTR $T158771[ebp], 0
  0003b	e8 00 00 00 00	 call	 ??0exception@std@@QAE@ABQBD@Z ; std::exception::exception
  00040	68 00 00 00 00	 push	 OFFSET __TI2?AVbad_alloc@std@@
  00045	8d 55 f4	 lea	 edx, DWORD PTR $T158773[ebp]
  00048	52		 push	 edx
  00049	c7 45 f4 00 00
	00 00		 mov	 DWORD PTR $T158773[ebp], OFFSET ??_7bad_alloc@std@@6B@
  00050	e8 00 00 00 00	 call	 __CxxThrowException@8
$LN13@allocate@2:
$LN1@allocate@2:

; 188  : 		}

  00055	8b e5		 mov	 esp, ebp
  00057	5d		 pop	 ebp
  00058	c2 04 00	 ret	 4
$LN12@allocate@2:
?allocate@?$allocator@U_Node@?$_Tree_nod@V?$_Tmap_traits@HPAVTUnionInfo@@U?$less@H@std@@V?$allocator@U?$pair@$$CBHPAVTUnionInfo@@@std@@@3@$0A@@std@@@std@@@std@@QAEPAU_Node@?$_Tree_nod@V?$_Tmap_traits@HPAVTUnionInfo@@U?$less@H@std@@V?$allocator@U?$pair@$$CBHPAVTUnionInfo@@@std@@@3@$0A@@std@@@2@I@Z ENDP ; std::allocator<std::_Tree_nod<std::_Tmap_traits<int,TUnionInfo *,std::less<int>,std::allocator<std::pair<int const ,TUnionInfo *> >,0> >::_Node>::allocate
_TEXT	ENDS
PUBLIC	??$_Cons_val@V?$allocator@H@std@@HABH@std@@YAXAAV?$allocator@H@0@PAHABH@Z ; std::_Cons_val<std::allocator<int>,int,int const &>
; Function compile flags: /Ogtp
;	COMDAT ??$_Cons_val@V?$allocator@H@std@@HABH@std@@YAXAAV?$allocator@H@0@PAHABH@Z
_TEXT	SEGMENT
__Alval$ = 8						; size = 4
__Pdest$ = 12						; size = 4
__Src$ = 16						; size = 4
??$_Cons_val@V?$allocator@H@std@@HABH@std@@YAXAAV?$allocator@H@0@PAHABH@Z PROC ; std::_Cons_val<std::allocator<int>,int,int const &>, COMDAT

; 279  : 	{	// construct using allocator

  00000	55		 push	 ebp
  00001	8b ec		 mov	 ebp, esp

; 280  : 	_Alval.construct(_Pdest, _STD forward<_Ty2>(_Src));

  00003	8b 45 0c	 mov	 eax, DWORD PTR __Pdest$[ebp]
  00006	85 c0		 test	 eax, eax
  00008	74 07		 je	 SHORT $LN9@Cons_val@2
  0000a	8b 4d 10	 mov	 ecx, DWORD PTR __Src$[ebp]
  0000d	8b 11		 mov	 edx, DWORD PTR [ecx]
  0000f	89 10		 mov	 DWORD PTR [eax], edx
$LN9@Cons_val@2:

; 281  : 	}

  00011	5d		 pop	 ebp
  00012	c3		 ret	 0
??$_Cons_val@V?$allocator@H@std@@HABH@std@@YAXAAV?$allocator@H@0@PAHABH@Z ENDP ; std::_Cons_val<std::allocator<int>,int,int const &>
_TEXT	ENDS
PUBLIC	??$_Dest_val@V?$allocator@U?$pair@$$CBHPAVTUnionInfo@@@std@@@std@@U?$pair@$$CBHPAVTUnionInfo@@@2@@std@@YAXAAV?$allocator@U?$pair@$$CBHPAVTUnionInfo@@@std@@@0@PAU?$pair@$$CBHPAVTUnionInfo@@@0@@Z ; std::_Dest_val<std::allocator<std::pair<int const ,TUnionInfo *> >,std::pair<int const ,TUnionInfo *> >
; Function compile flags: /Ogtp
;	COMDAT ??$_Dest_val@V?$allocator@U?$pair@$$CBHPAVTUnionInfo@@@std@@@std@@U?$pair@$$CBHPAVTUnionInfo@@@2@@std@@YAXAAV?$allocator@U?$pair@$$CBHPAVTUnionInfo@@@std@@@0@PAU?$pair@$$CBHPAVTUnionInfo@@@0@@Z
_TEXT	SEGMENT
__Alval$ = 8						; size = 4
__Pdest$ = 12						; size = 4
??$_Dest_val@V?$allocator@U?$pair@$$CBHPAVTUnionInfo@@@std@@@std@@U?$pair@$$CBHPAVTUnionInfo@@@2@@std@@YAXAAV?$allocator@U?$pair@$$CBHPAVTUnionInfo@@@std@@@0@PAU?$pair@$$CBHPAVTUnionInfo@@@0@@Z PROC ; std::_Dest_val<std::allocator<std::pair<int const ,TUnionInfo *> >,std::pair<int const ,TUnionInfo *> >, COMDAT

; 287  : 	_Alval.destroy(_Pdest);
; 288  : 	}

  00000	c3		 ret	 0
??$_Dest_val@V?$allocator@U?$pair@$$CBHPAVTUnionInfo@@@std@@@std@@U?$pair@$$CBHPAVTUnionInfo@@@2@@std@@YAXAAV?$allocator@U?$pair@$$CBHPAVTUnionInfo@@@std@@@0@PAU?$pair@$$CBHPAVTUnionInfo@@@0@@Z ENDP ; std::_Dest_val<std::allocator<std::pair<int const ,TUnionInfo *> >,std::pair<int const ,TUnionInfo *> >
_TEXT	ENDS
PUBLIC	??$_Umove@PAH@?$vector@HV?$allocator@H@std@@@std@@IAEPAHPAH00@Z ; std::vector<int,std::allocator<int> >::_Umove<int *>
; Function compile flags: /Ogtp
; File c:\program files (x86)\microsoft visual studio 10.0\vc\include\vector
;	COMDAT ??$_Umove@PAH@?$vector@HV?$allocator@H@std@@@std@@IAEPAHPAH00@Z
_TEXT	SEGMENT
__First$ = 8						; size = 4
__Last$ = 12						; size = 4
__Ptr$ = 16						; size = 4
??$_Umove@PAH@?$vector@HV?$allocator@H@std@@@std@@IAEPAHPAH00@Z PROC ; std::vector<int,std::allocator<int> >::_Umove<int *>, COMDAT
; _this$ = ecx

; 1322 : 		pointer _Umove(_Iter _First, _Iter _Last, pointer _Ptr)

  00000	55		 push	 ebp
  00001	8b ec		 mov	 ebp, esp

; 1323 : 		{	// move initializing [_First, _Last), using allocator
; 1324 : 		return (_Uninitialized_move(_First, _Last,
; 1325 : 			_Ptr, this->_Alval));

  00003	8b 4d 08	 mov	 ecx, DWORD PTR __First$[ebp]
  00006	8b 45 0c	 mov	 eax, DWORD PTR __Last$[ebp]
  00009	2b c1		 sub	 eax, ecx
  0000b	56		 push	 esi
  0000c	c1 f8 02	 sar	 eax, 2
  0000f	8d 34 85 00 00
	00 00		 lea	 esi, DWORD PTR [eax*4]
  00016	8b 45 10	 mov	 eax, DWORD PTR __Ptr$[ebp]
  00019	56		 push	 esi
  0001a	51		 push	 ecx
  0001b	50		 push	 eax
  0001c	e8 00 00 00 00	 call	 _memmove
  00021	83 c4 0c	 add	 esp, 12			; 0000000cH
  00024	03 c6		 add	 eax, esi
  00026	5e		 pop	 esi

; 1326 : 		}

  00027	5d		 pop	 ebp
  00028	c2 0c 00	 ret	 12			; 0000000cH
??$_Umove@PAH@?$vector@HV?$allocator@H@std@@@std@@IAEPAHPAH00@Z ENDP ; std::vector<int,std::allocator<int> >::_Umove<int *>
_TEXT	ENDS
PUBLIC	??0?$pair@V?$_Tree_iterator@V?$_Tree_val@V?$_Tmap_traits@HPAVTUnionInfo@@U?$less@H@std@@V?$allocator@U?$pair@$$CBHPAVTUnionInfo@@@std@@@3@$0A@@std@@@std@@@std@@_N@std@@QAE@$$QAV?$_Tree_iterator@V?$_Tree_val@V?$_Tmap_traits@HPAVTUnionInfo@@U?$less@H@std@@V?$allocator@U?$pair@$$CBHPAVTUnionInfo@@@std@@@3@$0A@@std@@@std@@@1@$$QA_N@Z ; std::pair<std::_Tree_iterator<std::_Tree_val<std::_Tmap_traits<int,TUnionInfo *,std::less<int>,std::allocator<std::pair<int const ,TUnionInfo *> >,0> > >,bool>::pair<std::_Tree_iterator<std::_Tree_val<std::_Tmap_traits<int,TUnionInfo *,std::less<int>,std::allocator<std::pair<int const ,TUnionInfo *> >,0> > >,bool>
; Function compile flags: /Ogtp
; File c:\program files (x86)\microsoft visual studio 10.0\vc\include\utility
;	COMDAT ??0?$pair@V?$_Tree_iterator@V?$_Tree_val@V?$_Tmap_traits@HPAVTUnionInfo@@U?$less@H@std@@V?$allocator@U?$pair@$$CBHPAVTUnionInfo@@@std@@@3@$0A@@std@@@std@@@std@@_N@std@@QAE@$$QAV?$_Tree_iterator@V?$_Tree_val@V?$_Tmap_traits@HPAVTUnionInfo@@U?$less@H@std@@V?$allocator@U?$pair@$$CBHPAVTUnionInfo@@@std@@@3@$0A@@std@@@std@@@1@$$QA_N@Z
_TEXT	SEGMENT
__Val1$ = 8						; size = 4
__Val2$ = 12						; size = 4
??0?$pair@V?$_Tree_iterator@V?$_Tree_val@V?$_Tmap_traits@HPAVTUnionInfo@@U?$less@H@std@@V?$allocator@U?$pair@$$CBHPAVTUnionInfo@@@std@@@3@$0A@@std@@@std@@@std@@_N@std@@QAE@$$QAV?$_Tree_iterator@V?$_Tree_val@V?$_Tmap_traits@HPAVTUnionInfo@@U?$less@H@std@@V?$allocator@U?$pair@$$CBHPAVTUnionInfo@@@std@@@3@$0A@@std@@@std@@@1@$$QA_N@Z PROC ; std::pair<std::_Tree_iterator<std::_Tree_val<std::_Tmap_traits<int,TUnionInfo *,std::less<int>,std::allocator<std::pair<int const ,TUnionInfo *> >,0> > >,bool>::pair<std::_Tree_iterator<std::_Tree_val<std::_Tmap_traits<int,TUnionInfo *,std::less<int>,std::allocator<std::pair<int const ,TUnionInfo *> >,0> > >,bool>, COMDAT
; _this$ = ecx

; 227  : 		{	// construct from specified values

  00000	55		 push	 ebp
  00001	8b ec		 mov	 ebp, esp
  00003	8b c1		 mov	 eax, ecx
  00005	8b 4d 08	 mov	 ecx, DWORD PTR __Val1$[ebp]
  00008	8b 11		 mov	 edx, DWORD PTR [ecx]
  0000a	8b 4d 0c	 mov	 ecx, DWORD PTR __Val2$[ebp]
  0000d	89 10		 mov	 DWORD PTR [eax], edx
  0000f	8a 11		 mov	 dl, BYTE PTR [ecx]
  00011	88 50 04	 mov	 BYTE PTR [eax+4], dl

; 228  : 		}

  00014	5d		 pop	 ebp
  00015	c2 08 00	 ret	 8
??0?$pair@V?$_Tree_iterator@V?$_Tree_val@V?$_Tmap_traits@HPAVTUnionInfo@@U?$less@H@std@@V?$allocator@U?$pair@$$CBHPAVTUnionInfo@@@std@@@3@$0A@@std@@@std@@@std@@_N@std@@QAE@$$QAV?$_Tree_iterator@V?$_Tree_val@V?$_Tmap_traits@HPAVTUnionInfo@@U?$less@H@std@@V?$allocator@U?$pair@$$CBHPAVTUnionInfo@@@std@@@3@$0A@@std@@@std@@@1@$$QA_N@Z ENDP ; std::pair<std::_Tree_iterator<std::_Tree_val<std::_Tmap_traits<int,TUnionInfo *,std::less<int>,std::allocator<std::pair<int const ,TUnionInfo *> >,0> > >,bool>::pair<std::_Tree_iterator<std::_Tree_val<std::_Tmap_traits<int,TUnionInfo *,std::less<int>,std::allocator<std::pair<int const ,TUnionInfo *> >,0> > >,bool>
_TEXT	ENDS
PUBLIC	?_Buynode@?$_Tree_val@V?$_Tmap_traits@HPAVTUnionInfo@@U?$less@H@std@@V?$allocator@U?$pair@$$CBHPAVTUnionInfo@@@std@@@3@$0A@@std@@@std@@QAEPAU_Node@?$_Tree_nod@V?$_Tmap_traits@HPAVTUnionInfo@@U?$less@H@std@@V?$allocator@U?$pair@$$CBHPAVTUnionInfo@@@std@@@3@$0A@@std@@@2@XZ ; std::_Tree_val<std::_Tmap_traits<int,TUnionInfo *,std::less<int>,std::allocator<std::pair<int const ,TUnionInfo *> >,0> >::_Buynode
; Function compile flags: /Ogtp
; File c:\program files (x86)\microsoft visual studio 10.0\vc\include\xtree
;	COMDAT ?_Buynode@?$_Tree_val@V?$_Tmap_traits@HPAVTUnionInfo@@U?$less@H@std@@V?$allocator@U?$pair@$$CBHPAVTUnionInfo@@@std@@@3@$0A@@std@@@std@@QAEPAU_Node@?$_Tree_nod@V?$_Tmap_traits@HPAVTUnionInfo@@U?$less@H@std@@V?$allocator@U?$pair@$$CBHPAVTUnionInfo@@@std@@@3@$0A@@std@@@2@XZ
_TEXT	SEGMENT
$T158902 = -16						; size = 12
$T158886 = -4						; size = 4
?_Buynode@?$_Tree_val@V?$_Tmap_traits@HPAVTUnionInfo@@U?$less@H@std@@V?$allocator@U?$pair@$$CBHPAVTUnionInfo@@@std@@@3@$0A@@std@@@std@@QAEPAU_Node@?$_Tree_nod@V?$_Tmap_traits@HPAVTUnionInfo@@U?$less@H@std@@V?$allocator@U?$pair@$$CBHPAVTUnionInfo@@@std@@@3@$0A@@std@@@2@XZ PROC ; std::_Tree_val<std::_Tmap_traits<int,TUnionInfo *,std::less<int>,std::allocator<std::pair<int const ,TUnionInfo *> >,0> >::_Buynode, COMDAT
; _this$ = ecx

; 559  : 		{	// allocate a node

  00000	55		 push	 ebp
  00001	8b ec		 mov	 ebp, esp
  00003	83 ec 10	 sub	 esp, 16			; 00000010H
  00006	56		 push	 esi

; 560  : 		_Nodeptr _Wherenode = this->_Alnod.allocate(1);

  00007	6a 18		 push	 24			; 00000018H
  00009	8b f1		 mov	 esi, ecx
  0000b	e8 00 00 00 00	 call	 ??2@YAPAXI@Z		; operator new
  00010	33 c9		 xor	 ecx, ecx
  00012	83 c4 04	 add	 esp, 4
  00015	3b c1		 cmp	 eax, ecx
  00017	74 1a		 je	 SHORT $LN5@Buynode

; 561  : 
; 562  : 		this->_Left(_Wherenode) = this->_Myhead;

  00019	8b 56 04	 mov	 edx, DWORD PTR [esi+4]
  0001c	89 10		 mov	 DWORD PTR [eax], edx

; 563  : 		this->_Parent(_Wherenode) = this->_Myhead;

  0001e	8b 56 04	 mov	 edx, DWORD PTR [esi+4]
  00021	89 50 04	 mov	 DWORD PTR [eax+4], edx

; 564  : 		this->_Right(_Wherenode) = this->_Myhead;

  00024	8b 56 04	 mov	 edx, DWORD PTR [esi+4]
  00027	89 50 08	 mov	 DWORD PTR [eax+8], edx

; 565  : 		this->_Color(_Wherenode) = this->_Red;

  0002a	66 89 48 14	 mov	 WORD PTR [eax+20], cx
  0002e	5e		 pop	 esi

; 566  : 		this->_Isnil(_Wherenode) = false;
; 567  : 		return (_Wherenode);
; 568  : 		}

  0002f	8b e5		 mov	 esp, ebp
  00031	5d		 pop	 ebp
  00032	c3		 ret	 0

; 560  : 		_Nodeptr _Wherenode = this->_Alnod.allocate(1);

$LN5@Buynode:
  00033	8d 45 fc	 lea	 eax, DWORD PTR $T158886[ebp]
  00036	89 4d fc	 mov	 DWORD PTR $T158886[ebp], ecx
  00039	50		 push	 eax
  0003a	8d 4d f0	 lea	 ecx, DWORD PTR $T158902[ebp]
  0003d	e8 00 00 00 00	 call	 ??0exception@std@@QAE@ABQBD@Z ; std::exception::exception
  00042	68 00 00 00 00	 push	 OFFSET __TI2?AVbad_alloc@std@@
  00047	8d 4d f0	 lea	 ecx, DWORD PTR $T158902[ebp]
  0004a	51		 push	 ecx
  0004b	c7 45 f0 00 00
	00 00		 mov	 DWORD PTR $T158902[ebp], OFFSET ??_7bad_alloc@std@@6B@
  00052	e8 00 00 00 00	 call	 __CxxThrowException@8
$LN27@Buynode:
$LN26@Buynode:
  00057	cc		 int	 3
?_Buynode@?$_Tree_val@V?$_Tmap_traits@HPAVTUnionInfo@@U?$less@H@std@@V?$allocator@U?$pair@$$CBHPAVTUnionInfo@@@std@@@3@$0A@@std@@@std@@QAEPAU_Node@?$_Tree_nod@V?$_Tmap_traits@HPAVTUnionInfo@@U?$less@H@std@@V?$allocator@U?$pair@$$CBHPAVTUnionInfo@@@std@@@3@$0A@@std@@@2@XZ ENDP ; std::_Tree_val<std::_Tmap_traits<int,TUnionInfo *,std::less<int>,std::allocator<std::pair<int const ,TUnionInfo *> >,0> >::_Buynode
_TEXT	ENDS
PUBLIC	??$?0$$CBHPAVTUnionInfo@@@?$pair@$$CBHPAVTUnionInfo@@@std@@QAE@$$QAU01@@Z ; std::pair<int const ,TUnionInfo *>::pair<int const ,TUnionInfo *><int const ,TUnionInfo *>
; Function compile flags: /Ogtp
; File c:\program files (x86)\microsoft visual studio 10.0\vc\include\utility
;	COMDAT ??$?0$$CBHPAVTUnionInfo@@@?$pair@$$CBHPAVTUnionInfo@@@std@@QAE@$$QAU01@@Z
_TEXT	SEGMENT
__Right$ = 8						; size = 4
??$?0$$CBHPAVTUnionInfo@@@?$pair@$$CBHPAVTUnionInfo@@@std@@QAE@$$QAU01@@Z PROC ; std::pair<int const ,TUnionInfo *>::pair<int const ,TUnionInfo *><int const ,TUnionInfo *>, COMDAT
; _this$ = ecx

; 255  : 		{	// construct from moved compatible pair

  00000	55		 push	 ebp
  00001	8b ec		 mov	 ebp, esp
  00003	8b c1		 mov	 eax, ecx
  00005	8b 4d 08	 mov	 ecx, DWORD PTR __Right$[ebp]
  00008	8b 11		 mov	 edx, DWORD PTR [ecx]
  0000a	89 10		 mov	 DWORD PTR [eax], edx
  0000c	8b 49 04	 mov	 ecx, DWORD PTR [ecx+4]
  0000f	89 48 04	 mov	 DWORD PTR [eax+4], ecx

; 256  : 		}

  00012	5d		 pop	 ebp
  00013	c2 04 00	 ret	 4
??$?0$$CBHPAVTUnionInfo@@@?$pair@$$CBHPAVTUnionInfo@@@std@@QAE@$$QAU01@@Z ENDP ; std::pair<int const ,TUnionInfo *>::pair<int const ,TUnionInfo *><int const ,TUnionInfo *>
_TEXT	ENDS
PUBLIC	??E?$_Tree_iterator@V?$_Tree_val@V?$_Tmap_traits@HPAVTUnionInfo@@U?$less@H@std@@V?$allocator@U?$pair@$$CBHPAVTUnionInfo@@@std@@@3@$0A@@std@@@std@@@std@@QAEAAV01@XZ ; std::_Tree_iterator<std::_Tree_val<std::_Tmap_traits<int,TUnionInfo *,std::less<int>,std::allocator<std::pair<int const ,TUnionInfo *> >,0> > >::operator++
; Function compile flags: /Ogtp
; File c:\program files (x86)\microsoft visual studio 10.0\vc\include\xtree
;	COMDAT ??E?$_Tree_iterator@V?$_Tree_val@V?$_Tmap_traits@HPAVTUnionInfo@@U?$less@H@std@@V?$allocator@U?$pair@$$CBHPAVTUnionInfo@@@std@@@3@$0A@@std@@@std@@@std@@QAEAAV01@XZ
_TEXT	SEGMENT
??E?$_Tree_iterator@V?$_Tree_val@V?$_Tmap_traits@HPAVTUnionInfo@@U?$less@H@std@@V?$allocator@U?$pair@$$CBHPAVTUnionInfo@@@std@@@3@$0A@@std@@@std@@@std@@QAEAAV01@XZ PROC ; std::_Tree_iterator<std::_Tree_val<std::_Tmap_traits<int,TUnionInfo *,std::less<int>,std::allocator<std::pair<int const ,TUnionInfo *> >,0> > >::operator++, COMDAT
; _this$ = ecx

; 405  : 		{	// preincrement

  00000	56		 push	 esi
  00001	8b f1		 mov	 esi, ecx

; 406  : 		++(*(_Mybase *)this);

  00003	e8 00 00 00 00	 call	 ??E?$_Tree_unchecked_const_iterator@V?$_Tree_val@V?$_Tmap_traits@HPAVTUnionInfo@@U?$less@H@std@@V?$allocator@U?$pair@$$CBHPAVTUnionInfo@@@std@@@3@$0A@@std@@@std@@U_Iterator_base0@2@@std@@QAEAAV01@XZ ; std::_Tree_unchecked_const_iterator<std::_Tree_val<std::_Tmap_traits<int,TUnionInfo *,std::less<int>,std::allocator<std::pair<int const ,TUnionInfo *> >,0> >,std::_Iterator_base0>::operator++

; 407  : 		return (*this);

  00008	8b c6		 mov	 eax, esi
  0000a	5e		 pop	 esi

; 408  : 		}

  0000b	c3		 ret	 0
??E?$_Tree_iterator@V?$_Tree_val@V?$_Tmap_traits@HPAVTUnionInfo@@U?$less@H@std@@V?$allocator@U?$pair@$$CBHPAVTUnionInfo@@@std@@@3@$0A@@std@@@std@@@std@@QAEAAV01@XZ ENDP ; std::_Tree_iterator<std::_Tree_val<std::_Tmap_traits<int,TUnionInfo *,std::less<int>,std::allocator<std::pair<int const ,TUnionInfo *> >,0> > >::operator++
_TEXT	ENDS
PUBLIC	?_Erase@?$_Tree@V?$_Tmap_traits@HPAVTUnionInfo@@U?$less@H@std@@V?$allocator@U?$pair@$$CBHPAVTUnionInfo@@@std@@@3@$0A@@std@@@std@@IAEXPAU_Node@?$_Tree_nod@V?$_Tmap_traits@HPAVTUnionInfo@@U?$less@H@std@@V?$allocator@U?$pair@$$CBHPAVTUnionInfo@@@std@@@3@$0A@@std@@@2@@Z ; std::_Tree<std::_Tmap_traits<int,TUnionInfo *,std::less<int>,std::allocator<std::pair<int const ,TUnionInfo *> >,0> >::_Erase
; Function compile flags: /Ogtp
;	COMDAT ?_Erase@?$_Tree@V?$_Tmap_traits@HPAVTUnionInfo@@U?$less@H@std@@V?$allocator@U?$pair@$$CBHPAVTUnionInfo@@@std@@@3@$0A@@std@@@std@@IAEXPAU_Node@?$_Tree_nod@V?$_Tmap_traits@HPAVTUnionInfo@@U?$less@H@std@@V?$allocator@U?$pair@$$CBHPAVTUnionInfo@@@std@@@3@$0A@@std@@@2@@Z
_TEXT	SEGMENT
__Rootnode$ = 8						; size = 4
?_Erase@?$_Tree@V?$_Tmap_traits@HPAVTUnionInfo@@U?$less@H@std@@V?$allocator@U?$pair@$$CBHPAVTUnionInfo@@@std@@@3@$0A@@std@@@std@@IAEXPAU_Node@?$_Tree_nod@V?$_Tmap_traits@HPAVTUnionInfo@@U?$less@H@std@@V?$allocator@U?$pair@$$CBHPAVTUnionInfo@@@std@@@3@$0A@@std@@@2@@Z PROC ; std::_Tree<std::_Tmap_traits<int,TUnionInfo *,std::less<int>,std::allocator<std::pair<int const ,TUnionInfo *> >,0> >::_Erase, COMDAT
; _this$ = ecx

; 1610 : 		{	// free entire subtree, recursively

  00000	55		 push	 ebp
  00001	8b ec		 mov	 ebp, esp
  00003	53		 push	 ebx
  00004	56		 push	 esi
  00005	57		 push	 edi

; 1611 : 		for (_Nodeptr _Pnode = _Rootnode;

  00006	8b 7d 08	 mov	 edi, DWORD PTR __Rootnode$[ebp]

; 1612 : 			!this->_Isnil(_Pnode); _Rootnode = _Pnode)

  00009	80 7f 15 00	 cmp	 BYTE PTR [edi+21], 0
  0000d	8b d9		 mov	 ebx, ecx
  0000f	8b f7		 mov	 esi, edi
  00011	75 1e		 jne	 SHORT $LN1@Erase
$LL3@Erase:

; 1613 : 			{	// free subtrees, then node
; 1614 : 			_Erase(this->_Right(_Pnode));

  00013	8b 46 08	 mov	 eax, DWORD PTR [esi+8]
  00016	50		 push	 eax
  00017	8b cb		 mov	 ecx, ebx
  00019	e8 00 00 00 00	 call	 ?_Erase@?$_Tree@V?$_Tmap_traits@HPAVTUnionInfo@@U?$less@H@std@@V?$allocator@U?$pair@$$CBHPAVTUnionInfo@@@std@@@3@$0A@@std@@@std@@IAEXPAU_Node@?$_Tree_nod@V?$_Tmap_traits@HPAVTUnionInfo@@U?$less@H@std@@V?$allocator@U?$pair@$$CBHPAVTUnionInfo@@@std@@@3@$0A@@std@@@2@@Z ; std::_Tree<std::_Tmap_traits<int,TUnionInfo *,std::less<int>,std::allocator<std::pair<int const ,TUnionInfo *> >,0> >::_Erase

; 1615 : 			_Pnode = this->_Left(_Pnode);

  0001e	8b 36		 mov	 esi, DWORD PTR [esi]

; 1616 : 			_Dest_val(this->_Alval,
; 1617 : 				_STD addressof(this->_Myval(_Rootnode)));
; 1618 : 
; 1619 : 			this->_Alnod.deallocate(_Rootnode, 1);

  00020	57		 push	 edi
  00021	e8 00 00 00 00	 call	 ??3@YAXPAX@Z		; operator delete
  00026	83 c4 04	 add	 esp, 4
  00029	80 7e 15 00	 cmp	 BYTE PTR [esi+21], 0
  0002d	8b fe		 mov	 edi, esi
  0002f	74 e2		 je	 SHORT $LL3@Erase
$LN1@Erase:
  00031	5f		 pop	 edi
  00032	5e		 pop	 esi
  00033	5b		 pop	 ebx

; 1620 : 			}
; 1621 : 		}

  00034	5d		 pop	 ebp
  00035	c2 04 00	 ret	 4
?_Erase@?$_Tree@V?$_Tmap_traits@HPAVTUnionInfo@@U?$less@H@std@@V?$allocator@U?$pair@$$CBHPAVTUnionInfo@@@std@@@3@$0A@@std@@@std@@IAEXPAU_Node@?$_Tree_nod@V?$_Tmap_traits@HPAVTUnionInfo@@U?$less@H@std@@V?$allocator@U?$pair@$$CBHPAVTUnionInfo@@@std@@@3@$0A@@std@@@2@@Z ENDP ; std::_Tree<std::_Tmap_traits<int,TUnionInfo *,std::less<int>,std::allocator<std::pair<int const ,TUnionInfo *> >,0> >::_Erase
_TEXT	ENDS
PUBLIC	??0?$_Tree_iterator@V?$_Tree_val@V?$_Tmap_traits@HPAVTUnionInfo@@U?$less@H@std@@V?$allocator@U?$pair@$$CBHPAVTUnionInfo@@@std@@@3@$0A@@std@@@std@@@std@@QAE@PAU_Node@?$_Tree_nod@V?$_Tmap_traits@HPAVTUnionInfo@@U?$less@H@std@@V?$allocator@U?$pair@$$CBHPAVTUnionInfo@@@std@@@3@$0A@@std@@@1@PBV?$_Tree_val@V?$_Tmap_traits@HPAVTUnionInfo@@U?$less@H@std@@V?$allocator@U?$pair@$$CBHPAVTUnionInfo@@@std@@@3@$0A@@std@@@1@@Z ; std::_Tree_iterator<std::_Tree_val<std::_Tmap_traits<int,TUnionInfo *,std::less<int>,std::allocator<std::pair<int const ,TUnionInfo *> >,0> > >::_Tree_iterator<std::_Tree_val<std::_Tmap_traits<int,TUnionInfo *,std::less<int>,std::allocator<std::pair<int const ,TUnionInfo *> >,0> > >
; Function compile flags: /Ogtp
;	COMDAT ??0?$_Tree_iterator@V?$_Tree_val@V?$_Tmap_traits@HPAVTUnionInfo@@U?$less@H@std@@V?$allocator@U?$pair@$$CBHPAVTUnionInfo@@@std@@@3@$0A@@std@@@std@@@std@@QAE@PAU_Node@?$_Tree_nod@V?$_Tmap_traits@HPAVTUnionInfo@@U?$less@H@std@@V?$allocator@U?$pair@$$CBHPAVTUnionInfo@@@std@@@3@$0A@@std@@@1@PBV?$_Tree_val@V?$_Tmap_traits@HPAVTUnionInfo@@U?$less@H@std@@V?$allocator@U?$pair@$$CBHPAVTUnionInfo@@@std@@@3@$0A@@std@@@1@@Z
_TEXT	SEGMENT
__Pnode$ = 8						; size = 4
__Plist$ = 12						; size = 4
??0?$_Tree_iterator@V?$_Tree_val@V?$_Tmap_traits@HPAVTUnionInfo@@U?$less@H@std@@V?$allocator@U?$pair@$$CBHPAVTUnionInfo@@@std@@@3@$0A@@std@@@std@@@std@@QAE@PAU_Node@?$_Tree_nod@V?$_Tmap_traits@HPAVTUnionInfo@@U?$less@H@std@@V?$allocator@U?$pair@$$CBHPAVTUnionInfo@@@std@@@3@$0A@@std@@@1@PBV?$_Tree_val@V?$_Tmap_traits@HPAVTUnionInfo@@U?$less@H@std@@V?$allocator@U?$pair@$$CBHPAVTUnionInfo@@@std@@@3@$0A@@std@@@1@@Z PROC ; std::_Tree_iterator<std::_Tree_val<std::_Tmap_traits<int,TUnionInfo *,std::less<int>,std::allocator<std::pair<int const ,TUnionInfo *> >,0> > >::_Tree_iterator<std::_Tree_val<std::_Tmap_traits<int,TUnionInfo *,std::less<int>,std::allocator<std::pair<int const ,TUnionInfo *> >,0> > >, COMDAT
; _this$ = ecx

; 378  : 		{	// construct with node pointer _Pnode

  00000	55		 push	 ebp
  00001	8b ec		 mov	 ebp, esp
  00003	8b c1		 mov	 eax, ecx
  00005	8b 4d 08	 mov	 ecx, DWORD PTR __Pnode$[ebp]
  00008	89 08		 mov	 DWORD PTR [eax], ecx

; 379  : 		}

  0000a	5d		 pop	 ebp
  0000b	c2 08 00	 ret	 8
??0?$_Tree_iterator@V?$_Tree_val@V?$_Tmap_traits@HPAVTUnionInfo@@U?$less@H@std@@V?$allocator@U?$pair@$$CBHPAVTUnionInfo@@@std@@@3@$0A@@std@@@std@@@std@@QAE@PAU_Node@?$_Tree_nod@V?$_Tmap_traits@HPAVTUnionInfo@@U?$less@H@std@@V?$allocator@U?$pair@$$CBHPAVTUnionInfo@@@std@@@3@$0A@@std@@@1@PBV?$_Tree_val@V?$_Tmap_traits@HPAVTUnionInfo@@U?$less@H@std@@V?$allocator@U?$pair@$$CBHPAVTUnionInfo@@@std@@@3@$0A@@std@@@1@@Z ENDP ; std::_Tree_iterator<std::_Tree_val<std::_Tmap_traits<int,TUnionInfo *,std::less<int>,std::allocator<std::pair<int const ,TUnionInfo *> >,0> > >::_Tree_iterator<std::_Tree_val<std::_Tmap_traits<int,TUnionInfo *,std::less<int>,std::allocator<std::pair<int const ,TUnionInfo *> >,0> > >
_TEXT	ENDS
PUBLIC	?reserve@?$vector@HV?$allocator@H@std@@@std@@QAEXI@Z ; std::vector<int,std::allocator<int> >::reserve
; Function compile flags: /Ogtp
; File c:\program files (x86)\microsoft visual studio 10.0\vc\include\vector
;	COMDAT ?reserve@?$vector@HV?$allocator@H@std@@@std@@QAEXI@Z
_TEXT	SEGMENT
__Count$ = 8						; size = 4
?reserve@?$vector@HV?$allocator@H@std@@@std@@QAEXI@Z PROC ; std::vector<int,std::allocator<int> >::reserve, COMDAT
; _this$ = ecx

; 746  : 		{	// determine new minimum length of allocated storage

  00000	55		 push	 ebp
  00001	8b ec		 mov	 ebp, esp

; 747  : 		if (max_size() < _Count)

  00003	8b 45 08	 mov	 eax, DWORD PTR __Count$[ebp]
  00006	56		 push	 esi
  00007	8b f1		 mov	 esi, ecx
  00009	3d ff ff ff 3f	 cmp	 eax, 1073741823		; 3fffffffH
  0000e	76 0a		 jbe	 SHORT $LN5@reserve

; 748  : 			_Xlen();	// result too long

  00010	68 00 00 00 00	 push	 OFFSET ??_C@_0BD@OLBABOEK@vector?$DMT?$DO?5too?5long?$AA@
  00015	e8 00 00 00 00	 call	 ?_Xlength_error@std@@YAXPBD@Z ; std::_Xlength_error
$LN43@reserve:
$LN5@reserve:

; 749  : 		else if (capacity() < _Count)

  0001a	8b 4e 08	 mov	 ecx, DWORD PTR [esi+8]
  0001d	2b 0e		 sub	 ecx, DWORD PTR [esi]
  0001f	c1 f9 02	 sar	 ecx, 2
  00022	3b c8		 cmp	 ecx, eax
  00024	73 50		 jae	 SHORT $LN3@reserve

; 750  : 			{	// not enough room, reallocate
; 751  : 			pointer _Ptr = this->_Alval.allocate(_Count);

  00026	53		 push	 ebx
  00027	57		 push	 edi
  00028	50		 push	 eax
  00029	8d 4e 0c	 lea	 ecx, DWORD PTR [esi+12]
  0002c	e8 00 00 00 00	 call	 ?allocate@?$allocator@H@std@@QAEPAHI@Z ; std::allocator<int>::allocate

; 752  : 
; 753  : 			_TRY_BEGIN
; 754  : 			_Umove(this->_Myfirst, this->_Mylast, _Ptr);

  00031	8b 56 04	 mov	 edx, DWORD PTR [esi+4]
  00034	8b d8		 mov	 ebx, eax
  00036	8b 06		 mov	 eax, DWORD PTR [esi]
  00038	2b d0		 sub	 edx, eax
  0003a	c1 fa 02	 sar	 edx, 2
  0003d	03 d2		 add	 edx, edx
  0003f	03 d2		 add	 edx, edx
  00041	52		 push	 edx
  00042	50		 push	 eax
  00043	53		 push	 ebx
  00044	e8 00 00 00 00	 call	 _memmove

; 755  : 			_CATCH_ALL
; 756  : 			this->_Alval.deallocate(_Ptr, _Count);
; 757  : 			_RERAISE;
; 758  : 			_CATCH_END
; 759  : 
; 760  : 			size_type _Size = size();

  00049	8b 06		 mov	 eax, DWORD PTR [esi]
  0004b	8b 7e 04	 mov	 edi, DWORD PTR [esi+4]
  0004e	2b f8		 sub	 edi, eax
  00050	83 c4 0c	 add	 esp, 12			; 0000000cH
  00053	c1 ff 02	 sar	 edi, 2

; 761  : 			if (this->_Myfirst != 0)

  00056	85 c0		 test	 eax, eax
  00058	74 09		 je	 SHORT $LN37@reserve

; 762  : 				{	// destroy and deallocate old array
; 763  : 				_Destroy(this->_Myfirst, this->_Mylast);
; 764  : 				this->_Alval.deallocate(this->_Myfirst,
; 765  : 					this->_Myend - this->_Myfirst);

  0005a	50		 push	 eax
  0005b	e8 00 00 00 00	 call	 ??3@YAXPAX@Z		; operator delete
  00060	83 c4 04	 add	 esp, 4
$LN37@reserve:

; 766  : 				}
; 767  : 
; 768  : 			this->_Orphan_all();
; 769  : 			this->_Myend = _Ptr + _Count;

  00063	8b 45 08	 mov	 eax, DWORD PTR __Count$[ebp]

; 770  : 			this->_Mylast = _Ptr + _Size;

  00066	8d 14 bb	 lea	 edx, DWORD PTR [ebx+edi*4]
  00069	8d 0c 83	 lea	 ecx, DWORD PTR [ebx+eax*4]
  0006c	5f		 pop	 edi

; 771  : 			this->_Myfirst = _Ptr;

  0006d	89 1e		 mov	 DWORD PTR [esi], ebx
  0006f	89 4e 08	 mov	 DWORD PTR [esi+8], ecx
  00072	89 56 04	 mov	 DWORD PTR [esi+4], edx
  00075	5b		 pop	 ebx
$LN3@reserve:
  00076	5e		 pop	 esi

; 772  : 			}
; 773  : 		}

  00077	5d		 pop	 ebp
  00078	c2 04 00	 ret	 4
$LN42@reserve:
?reserve@?$vector@HV?$allocator@H@std@@@std@@QAEXI@Z ENDP ; std::vector<int,std::allocator<int> >::reserve
_TEXT	ENDS
PUBLIC	??_C@_0BM@PAPJHAGI@invalid?5map?1set?$DMT?$DO?5iterator?$AA@ ; `string'
PUBLIC	?erase@?$_Tree@V?$_Tmap_traits@HPAVTUnionInfo@@U?$less@H@std@@V?$allocator@U?$pair@$$CBHPAVTUnionInfo@@@std@@@3@$0A@@std@@@std@@QAE?AV?$_Tree_iterator@V?$_Tree_val@V?$_Tmap_traits@HPAVTUnionInfo@@U?$less@H@std@@V?$allocator@U?$pair@$$CBHPAVTUnionInfo@@@std@@@3@$0A@@std@@@std@@@2@V?$_Tree_const_iterator@V?$_Tree_val@V?$_Tmap_traits@HPAVTUnionInfo@@U?$less@H@std@@V?$allocator@U?$pair@$$CBHPAVTUnionInfo@@@std@@@3@$0A@@std@@@std@@@2@@Z ; std::_Tree<std::_Tmap_traits<int,TUnionInfo *,std::less<int>,std::allocator<std::pair<int const ,TUnionInfo *> >,0> >::erase
EXTRN	?_Xout_of_range@std@@YAXPBD@Z:PROC		; std::_Xout_of_range
;	COMDAT ??_C@_0BM@PAPJHAGI@invalid?5map?1set?$DMT?$DO?5iterator?$AA@
; File c:\program files (x86)\microsoft visual studio 10.0\vc\include\xutility
CONST	SEGMENT
??_C@_0BM@PAPJHAGI@invalid?5map?1set?$DMT?$DO?5iterator?$AA@ DB 'invalid '
	DB	'map/set<T> iterator', 00H			; `string'
; Function compile flags: /Ogtp
; File c:\program files (x86)\microsoft visual studio 10.0\vc\include\xtree
CONST	ENDS
;	COMDAT ?erase@?$_Tree@V?$_Tmap_traits@HPAVTUnionInfo@@U?$less@H@std@@V?$allocator@U?$pair@$$CBHPAVTUnionInfo@@@std@@@3@$0A@@std@@@std@@QAE?AV?$_Tree_iterator@V?$_Tree_val@V?$_Tmap_traits@HPAVTUnionInfo@@U?$less@H@std@@V?$allocator@U?$pair@$$CBHPAVTUnionInfo@@@std@@@3@$0A@@std@@@std@@@2@V?$_Tree_const_iterator@V?$_Tree_val@V?$_Tmap_traits@HPAVTUnionInfo@@U?$less@H@std@@V?$allocator@U?$pair@$$CBHPAVTUnionInfo@@@std@@@3@$0A@@std@@@std@@@2@@Z
_TEXT	SEGMENT
tv795 = -12						; size = 4
__Erasednode$ = -8					; size = 4
_this$ = -4						; size = 4
___$ReturnUdt$ = 8					; size = 4
__Where$ = 12						; size = 4
?erase@?$_Tree@V?$_Tmap_traits@HPAVTUnionInfo@@U?$less@H@std@@V?$allocator@U?$pair@$$CBHPAVTUnionInfo@@@std@@@3@$0A@@std@@@std@@QAE?AV?$_Tree_iterator@V?$_Tree_val@V?$_Tmap_traits@HPAVTUnionInfo@@U?$less@H@std@@V?$allocator@U?$pair@$$CBHPAVTUnionInfo@@@std@@@3@$0A@@std@@@std@@@2@V?$_Tree_const_iterator@V?$_Tree_val@V?$_Tmap_traits@HPAVTUnionInfo@@U?$less@H@std@@V?$allocator@U?$pair@$$CBHPAVTUnionInfo@@@std@@@3@$0A@@std@@@std@@@2@@Z PROC ; std::_Tree<std::_Tmap_traits<int,TUnionInfo *,std::less<int>,std::allocator<std::pair<int const ,TUnionInfo *> >,0> >::erase, COMDAT
; _this$ = ecx

; 1195 : 		{	// erase element at _Where

  00000	55		 push	 ebp
  00001	8b ec		 mov	 ebp, esp
  00003	83 ec 0c	 sub	 esp, 12			; 0000000cH
  00006	53		 push	 ebx

; 1196 :  #if _ITERATOR_DEBUG_LEVEL == 2
; 1197 : 		if (_Where._Getcont() != this || this->_Isnil(_Where._Mynode()))
; 1198 : 			_DEBUG_ERROR("map/set erase iterator outside range");
; 1199 : 		_Nodeptr _Erasednode = _Where._Mynode();	// node to erase
; 1200 : 		++_Where;	// save successor iterator for return
; 1201 : 		_Orphan_ptr(*this, _Erasednode);
; 1202 : 
; 1203 :  #else /* _ITERATOR_DEBUG_LEVEL == 2 */
; 1204 : 		if (this->_Isnil(_Where._Mynode()))

  00007	8b 5d 0c	 mov	 ebx, DWORD PTR __Where$[ebp]
  0000a	80 7b 15 00	 cmp	 BYTE PTR [ebx+21], 0
  0000e	56		 push	 esi
  0000f	57		 push	 edi
  00010	89 4d fc	 mov	 DWORD PTR _this$[ebp], ecx
  00013	74 0a		 je	 SHORT $LN40@erase

; 1205 : 			_Xout_of_range("invalid map/set<T> iterator");

  00015	68 00 00 00 00	 push	 OFFSET ??_C@_0BM@PAPJHAGI@invalid?5map?1set?$DMT?$DO?5iterator?$AA@
  0001a	e8 00 00 00 00	 call	 ?_Xout_of_range@std@@YAXPBD@Z ; std::_Xout_of_range
$LN295@erase:
$LN40@erase:

; 1206 : 		_Nodeptr _Erasednode = _Where._Mynode();	// node to erase
; 1207 : 		++_Where;	// save successor iterator for return

  0001f	8d 4d 0c	 lea	 ecx, DWORD PTR __Where$[ebp]
  00022	89 5d f8	 mov	 DWORD PTR __Erasednode$[ebp], ebx
  00025	e8 00 00 00 00	 call	 ??E?$_Tree_unchecked_const_iterator@V?$_Tree_val@V?$_Tmap_traits@HPAVTUnionInfo@@U?$less@H@std@@V?$allocator@U?$pair@$$CBHPAVTUnionInfo@@@std@@@3@$0A@@std@@@std@@U_Iterator_base0@2@@std@@QAEAAV01@XZ ; std::_Tree_unchecked_const_iterator<std::_Tree_val<std::_Tmap_traits<int,TUnionInfo *,std::less<int>,std::allocator<std::pair<int const ,TUnionInfo *> >,0> >,std::_Iterator_base0>::operator++

; 1208 :  #endif /* _ITERATOR_DEBUG_LEVEL == 2 */
; 1209 : 
; 1210 : 		_Nodeptr _Fixnode;	// the node to recolor as needed
; 1211 : 		_Nodeptr _Fixnodeparent;	// parent of _Fixnode (which may be nil)
; 1212 : 		_Nodeptr _Pnode = _Erasednode;
; 1213 : 
; 1214 : 		if (this->_Isnil(this->_Left(_Pnode)))

  0002a	8b 0b		 mov	 ecx, DWORD PTR [ebx]
  0002c	80 79 15 00	 cmp	 BYTE PTR [ecx+21], 0
  00030	74 05		 je	 SHORT $LN39@erase

; 1215 : 			_Fixnode = this->_Right(_Pnode);	// stitch up right subtree

  00032	8b 7b 08	 mov	 edi, DWORD PTR [ebx+8]

; 1216 : 		else if (this->_Isnil(this->_Right(_Pnode)))

  00035	eb 17		 jmp	 SHORT $LN291@erase
$LN39@erase:
  00037	8b 43 08	 mov	 eax, DWORD PTR [ebx+8]
  0003a	80 78 15 00	 cmp	 BYTE PTR [eax+21], 0
  0003e	74 04		 je	 SHORT $LN37@erase

; 1217 : 			_Fixnode = this->_Left(_Pnode);	// stitch up left subtree

  00040	8b f9		 mov	 edi, ecx

; 1218 : 		else

  00042	eb 0a		 jmp	 SHORT $LN291@erase
$LN37@erase:

; 1219 : 			{	// two subtrees, must lift successor node to replace erased
; 1220 : 			_Pnode = _Where._Mynode();	// _Pnode is successor node

  00044	8b 45 0c	 mov	 eax, DWORD PTR __Where$[ebp]

; 1221 : 			_Fixnode = this->_Right(_Pnode);	// _Fixnode is only subtree

  00047	8b 78 08	 mov	 edi, DWORD PTR [eax+8]

; 1222 : 			}
; 1223 : 
; 1224 : 		if (_Pnode == _Erasednode)

  0004a	3b c3		 cmp	 eax, ebx
  0004c	75 72		 jne	 SHORT $LN35@erase
$LN291@erase:

; 1225 : 			{	// at most one subtree, relink it
; 1226 : 			_Fixnodeparent = this->_Parent(_Erasednode);
; 1227 : 			if (!this->_Isnil(_Fixnode))

  0004e	80 7f 15 00	 cmp	 BYTE PTR [edi+21], 0
  00052	8b 73 04	 mov	 esi, DWORD PTR [ebx+4]
  00055	75 03		 jne	 SHORT $LN34@erase

; 1228 : 				this->_Parent(_Fixnode) = _Fixnodeparent;	// link up

  00057	89 77 04	 mov	 DWORD PTR [edi+4], esi
$LN34@erase:

; 1229 : 
; 1230 : 			if (_Root() == _Erasednode)

  0005a	8b 4d fc	 mov	 ecx, DWORD PTR _this$[ebp]
  0005d	8b 41 04	 mov	 eax, DWORD PTR [ecx+4]
  00060	39 58 04	 cmp	 DWORD PTR [eax+4], ebx
  00063	75 05		 jne	 SHORT $LN33@erase

; 1231 : 				_Root() = _Fixnode;	// link down from root

  00065	89 78 04	 mov	 DWORD PTR [eax+4], edi

; 1232 : 			else if (this->_Left(_Fixnodeparent) == _Erasednode)

  00068	eb 0b		 jmp	 SHORT $LN30@erase
$LN33@erase:
  0006a	39 1e		 cmp	 DWORD PTR [esi], ebx
  0006c	75 04		 jne	 SHORT $LN31@erase

; 1233 : 				this->_Left(_Fixnodeparent) = _Fixnode;	// link down to left

  0006e	89 3e		 mov	 DWORD PTR [esi], edi

; 1234 : 			else

  00070	eb 03		 jmp	 SHORT $LN30@erase
$LN31@erase:

; 1235 : 				this->_Right(_Fixnodeparent) =
; 1236 : 					_Fixnode;	// link down to right

  00072	89 7e 08	 mov	 DWORD PTR [esi+8], edi
$LN30@erase:

; 1237 : 
; 1238 : 			if (_Lmost() == _Erasednode)

  00075	8b 41 04	 mov	 eax, DWORD PTR [ecx+4]
  00078	39 18		 cmp	 DWORD PTR [eax], ebx
  0007a	75 1b		 jne	 SHORT $LN29@erase

; 1239 : 				_Lmost() = this->_Isnil(_Fixnode)
; 1240 : 					? _Fixnodeparent	// smallest is parent of erased node
; 1241 : 					: this->_Min(_Fixnode);	// smallest in relinked subtree

  0007c	80 7f 15 00	 cmp	 BYTE PTR [edi+21], 0
  00080	74 04		 je	 SHORT $LN43@erase
  00082	8b c6		 mov	 eax, esi
  00084	eb 0c		 jmp	 SHORT $LN44@erase
$LN43@erase:
  00086	57		 push	 edi
  00087	e8 00 00 00 00	 call	 ?_Min@?$_Tree_val@V?$_Tmap_traits@HPAVTUnionInfo@@U?$less@H@std@@V?$allocator@U?$pair@$$CBHPAVTUnionInfo@@@std@@@3@$0A@@std@@@std@@SAPAU_Node@?$_Tree_nod@V?$_Tmap_traits@HPAVTUnionInfo@@U?$less@H@std@@V?$allocator@U?$pair@$$CBHPAVTUnionInfo@@@std@@@3@$0A@@std@@@2@PAU342@@Z ; std::_Tree_val<std::_Tmap_traits<int,TUnionInfo *,std::less<int>,std::allocator<std::pair<int const ,TUnionInfo *> >,0> >::_Min
  0008c	8b 4d fc	 mov	 ecx, DWORD PTR _this$[ebp]
  0008f	83 c4 04	 add	 esp, 4
$LN44@erase:
  00092	8b 51 04	 mov	 edx, DWORD PTR [ecx+4]
  00095	89 02		 mov	 DWORD PTR [edx], eax
$LN29@erase:

; 1242 : 
; 1243 : 			if (_Rmost() == _Erasednode)

  00097	8b 49 04	 mov	 ecx, DWORD PTR [ecx+4]
  0009a	89 4d f4	 mov	 DWORD PTR tv795[ebp], ecx
  0009d	39 59 08	 cmp	 DWORD PTR [ecx+8], ebx
  000a0	75 78		 jne	 SHORT $LN165@erase

; 1244 : 				_Rmost() = this->_Isnil(_Fixnode)
; 1245 : 					? _Fixnodeparent	// largest is parent of erased node
; 1246 : 					: this->_Max(_Fixnode);	// largest in relinked subtree

  000a2	80 7f 15 00	 cmp	 BYTE PTR [edi+21], 0
  000a6	74 07		 je	 SHORT $LN45@erase
  000a8	8b c6		 mov	 eax, esi
  000aa	89 41 08	 mov	 DWORD PTR [ecx+8], eax

; 1247 : 			}
; 1248 : 		else

  000ad	eb 6b		 jmp	 SHORT $LN165@erase
$LN45@erase:

; 1244 : 				_Rmost() = this->_Isnil(_Fixnode)
; 1245 : 					? _Fixnodeparent	// largest is parent of erased node
; 1246 : 					: this->_Max(_Fixnode);	// largest in relinked subtree

  000af	57		 push	 edi
  000b0	e8 00 00 00 00	 call	 ?_Max@?$_Tree_val@V?$_Tmap_traits@HPAVTUnionInfo@@U?$less@H@std@@V?$allocator@U?$pair@$$CBHPAVTUnionInfo@@@std@@@3@$0A@@std@@@std@@SAPAU_Node@?$_Tree_nod@V?$_Tmap_traits@HPAVTUnionInfo@@U?$less@H@std@@V?$allocator@U?$pair@$$CBHPAVTUnionInfo@@@std@@@3@$0A@@std@@@2@PAU342@@Z ; std::_Tree_val<std::_Tmap_traits<int,TUnionInfo *,std::less<int>,std::allocator<std::pair<int const ,TUnionInfo *> >,0> >::_Max
  000b5	8b 4d f4	 mov	 ecx, DWORD PTR tv795[ebp]
  000b8	83 c4 04	 add	 esp, 4
  000bb	89 41 08	 mov	 DWORD PTR [ecx+8], eax

; 1247 : 			}
; 1248 : 		else

  000be	eb 5a		 jmp	 SHORT $LN165@erase
$LN35@erase:

; 1249 : 			{	// erased has two subtrees, _Pnode is successor to erased
; 1250 : 			this->_Parent(this->_Left(_Erasednode)) =
; 1251 : 				_Pnode;	// link left up

  000c0	89 41 04	 mov	 DWORD PTR [ecx+4], eax

; 1252 : 			this->_Left(_Pnode) =
; 1253 : 				this->_Left(_Erasednode);	// link successor down

  000c3	8b 0b		 mov	 ecx, DWORD PTR [ebx]
  000c5	89 08		 mov	 DWORD PTR [eax], ecx

; 1254 : 
; 1255 : 			if (_Pnode == this->_Right(_Erasednode))

  000c7	3b 43 08	 cmp	 eax, DWORD PTR [ebx+8]
  000ca	75 04		 jne	 SHORT $LN26@erase

; 1256 : 				_Fixnodeparent = _Pnode;	// successor is next to erased

  000cc	8b f0		 mov	 esi, eax

; 1257 : 			else

  000ce	eb 1a		 jmp	 SHORT $LN25@erase
$LN26@erase:

; 1258 : 				{	// successor further down, link in place of erased
; 1259 : 				_Fixnodeparent =
; 1260 : 					this->_Parent(_Pnode);	// parent is successor's
; 1261 : 				if (!this->_Isnil(_Fixnode))

  000d0	80 7f 15 00	 cmp	 BYTE PTR [edi+21], 0
  000d4	8b 70 04	 mov	 esi, DWORD PTR [eax+4]
  000d7	75 03		 jne	 SHORT $LN24@erase

; 1262 : 					this->_Parent(_Fixnode) = _Fixnodeparent;	// link fix up

  000d9	89 77 04	 mov	 DWORD PTR [edi+4], esi
$LN24@erase:

; 1263 : 				this->_Left(_Fixnodeparent) = _Fixnode;	// link fix down

  000dc	89 3e		 mov	 DWORD PTR [esi], edi

; 1264 : 				this->_Right(_Pnode) =
; 1265 : 					this->_Right(_Erasednode);	// link next down

  000de	8b 4b 08	 mov	 ecx, DWORD PTR [ebx+8]
  000e1	89 48 08	 mov	 DWORD PTR [eax+8], ecx

; 1266 : 				this->_Parent(this->_Right(_Erasednode)) =
; 1267 : 					_Pnode;	// right up

  000e4	8b 53 08	 mov	 edx, DWORD PTR [ebx+8]
  000e7	89 42 04	 mov	 DWORD PTR [edx+4], eax
$LN25@erase:

; 1268 : 				}
; 1269 : 
; 1270 : 			if (_Root() == _Erasednode)

  000ea	8b 4d fc	 mov	 ecx, DWORD PTR _this$[ebp]
  000ed	8b 49 04	 mov	 ecx, DWORD PTR [ecx+4]
  000f0	39 59 04	 cmp	 DWORD PTR [ecx+4], ebx
  000f3	75 05		 jne	 SHORT $LN23@erase

; 1271 : 				_Root() = _Pnode;	// link down from root

  000f5	89 41 04	 mov	 DWORD PTR [ecx+4], eax

; 1272 : 			else if (this->_Left(this->_Parent(_Erasednode)) == _Erasednode)

  000f8	eb 0e		 jmp	 SHORT $LN20@erase
$LN23@erase:
  000fa	8b 4b 04	 mov	 ecx, DWORD PTR [ebx+4]
  000fd	39 19		 cmp	 DWORD PTR [ecx], ebx
  000ff	75 04		 jne	 SHORT $LN21@erase

; 1273 : 				this->_Left(this->_Parent(_Erasednode)) =
; 1274 : 					_Pnode;	// link down to left

  00101	89 01		 mov	 DWORD PTR [ecx], eax

; 1275 : 			else

  00103	eb 03		 jmp	 SHORT $LN20@erase
$LN21@erase:

; 1276 : 				this->_Right(this->_Parent(_Erasednode)) =
; 1277 : 					_Pnode;	// link down to right

  00105	89 41 08	 mov	 DWORD PTR [ecx+8], eax
$LN20@erase:

; 1278 : 
; 1279 : 			this->_Parent(_Pnode) =
; 1280 : 				this->_Parent(_Erasednode);	// link successor up

  00108	8b 53 04	 mov	 edx, DWORD PTR [ebx+4]
  0010b	89 50 04	 mov	 DWORD PTR [eax+4], edx

; 1281 : 			_STD swap(this->_Color(_Pnode),
; 1282 : 				this->_Color(_Erasednode));	// recolor it

  0010e	8a 53 14	 mov	 dl, BYTE PTR [ebx+20]
  00111	8a 48 14	 mov	 cl, BYTE PTR [eax+20]
  00114	88 50 14	 mov	 BYTE PTR [eax+20], dl
  00117	88 4b 14	 mov	 BYTE PTR [ebx+20], cl
$LN165@erase:

; 1283 : 			}
; 1284 : 
; 1285 : 		if (this->_Color(_Erasednode) == this->_Black)

  0011a	8b 45 f8	 mov	 eax, DWORD PTR __Erasednode$[ebp]
  0011d	b3 01		 mov	 bl, 1
  0011f	38 58 14	 cmp	 BYTE PTR [eax+20], bl
  00122	0f 85 fa 00 00
	00		 jne	 $LN19@erase

; 1286 : 			{	// erasing black link, must recolor/rebalance tree
; 1287 : 			for (; _Fixnode != _Root()
; 1288 : 				&& this->_Color(_Fixnode) == this->_Black;
; 1289 : 				_Fixnodeparent = this->_Parent(_Fixnode))

  00128	8b 4d fc	 mov	 ecx, DWORD PTR _this$[ebp]
  0012b	8b 51 04	 mov	 edx, DWORD PTR [ecx+4]
  0012e	3b 7a 04	 cmp	 edi, DWORD PTR [edx+4]
  00131	0f 84 e8 00 00
	00		 je	 $LN16@erase
$LL18@erase:
  00137	38 5f 14	 cmp	 BYTE PTR [edi+20], bl
  0013a	0f 85 df 00 00
	00		 jne	 $LN16@erase

; 1290 : 				if (_Fixnode == this->_Left(_Fixnodeparent))

  00140	8b 06		 mov	 eax, DWORD PTR [esi]
  00142	3b f8		 cmp	 edi, eax
  00144	75 65		 jne	 SHORT $LN15@erase

; 1291 : 					{	// fixup left subtree
; 1292 : 					_Pnode = this->_Right(_Fixnodeparent);

  00146	8b 46 08	 mov	 eax, DWORD PTR [esi+8]

; 1293 : 					if (this->_Color(_Pnode) == this->_Red)

  00149	80 78 14 00	 cmp	 BYTE PTR [eax+20], 0
  0014d	75 13		 jne	 SHORT $LN14@erase

; 1294 : 						{	// rotate red up from right subtree
; 1295 : 						this->_Color(_Pnode) = this->_Black;

  0014f	88 58 14	 mov	 BYTE PTR [eax+20], bl

; 1296 : 						this->_Color(_Fixnodeparent) = this->_Red;
; 1297 : 						_Lrotate(_Fixnodeparent);

  00152	56		 push	 esi
  00153	c6 46 14 00	 mov	 BYTE PTR [esi+20], 0
  00157	e8 00 00 00 00	 call	 ?_Lrotate@?$_Tree@V?$_Tmap_traits@HPAVTUnionInfo@@U?$less@H@std@@V?$allocator@U?$pair@$$CBHPAVTUnionInfo@@@std@@@3@$0A@@std@@@std@@IAEXPAU_Node@?$_Tree_nod@V?$_Tmap_traits@HPAVTUnionInfo@@U?$less@H@std@@V?$allocator@U?$pair@$$CBHPAVTUnionInfo@@@std@@@3@$0A@@std@@@2@@Z ; std::_Tree<std::_Tmap_traits<int,TUnionInfo *,std::less<int>,std::allocator<std::pair<int const ,TUnionInfo *> >,0> >::_Lrotate

; 1298 : 						_Pnode = this->_Right(_Fixnodeparent);

  0015c	8b 46 08	 mov	 eax, DWORD PTR [esi+8]
  0015f	8b 4d fc	 mov	 ecx, DWORD PTR _this$[ebp]
$LN14@erase:

; 1299 : 						}
; 1300 : 
; 1301 : 					if (this->_Isnil(_Pnode))

  00162	80 78 15 00	 cmp	 BYTE PTR [eax+21], 0

; 1302 : 						_Fixnode = _Fixnodeparent;	// shouldn't happen
; 1303 : 					else if (this->_Color(this->_Left(_Pnode)) == this->_Black

  00166	75 74		 jne	 SHORT $LN293@erase

; 1304 : 						&& this->_Color(this->_Right(_Pnode)) == this->_Black)

  00168	8b 10		 mov	 edx, DWORD PTR [eax]
  0016a	38 5a 14	 cmp	 BYTE PTR [edx+20], bl
  0016d	75 08		 jne	 SHORT $LN11@erase
  0016f	8b 50 08	 mov	 edx, DWORD PTR [eax+8]
  00172	38 5a 14	 cmp	 BYTE PTR [edx+20], bl
  00175	74 61		 je	 SHORT $LN294@erase
$LN11@erase:

; 1305 : 						{	// redden right subtree with black children
; 1306 : 						this->_Color(_Pnode) = this->_Red;
; 1307 : 						_Fixnode = _Fixnodeparent;
; 1308 : 						}
; 1309 : 					else
; 1310 : 						{	// must rearrange right subtree
; 1311 : 						if (this->_Color(this->_Right(_Pnode))
; 1312 : 							== this->_Black)

  00177	8b 50 08	 mov	 edx, DWORD PTR [eax+8]
  0017a	38 5a 14	 cmp	 BYTE PTR [edx+20], bl
  0017d	75 15		 jne	 SHORT $LN9@erase

; 1313 : 							{	// rotate red up from left sub-subtree
; 1314 : 							this->_Color(this->_Left(_Pnode)) = this->_Black;

  0017f	8b 10		 mov	 edx, DWORD PTR [eax]
  00181	88 5a 14	 mov	 BYTE PTR [edx+20], bl

; 1315 : 							this->_Color(_Pnode) = this->_Red;
; 1316 : 							_Rrotate(_Pnode);

  00184	50		 push	 eax
  00185	c6 40 14 00	 mov	 BYTE PTR [eax+20], 0
  00189	e8 00 00 00 00	 call	 ?_Rrotate@?$_Tree@V?$_Tmap_traits@HPAVTUnionInfo@@U?$less@H@std@@V?$allocator@U?$pair@$$CBHPAVTUnionInfo@@@std@@@3@$0A@@std@@@std@@IAEXPAU_Node@?$_Tree_nod@V?$_Tmap_traits@HPAVTUnionInfo@@U?$less@H@std@@V?$allocator@U?$pair@$$CBHPAVTUnionInfo@@@std@@@3@$0A@@std@@@2@@Z ; std::_Tree<std::_Tmap_traits<int,TUnionInfo *,std::less<int>,std::allocator<std::pair<int const ,TUnionInfo *> >,0> >::_Rrotate

; 1317 : 							_Pnode = this->_Right(_Fixnodeparent);

  0018e	8b 46 08	 mov	 eax, DWORD PTR [esi+8]
  00191	8b 4d fc	 mov	 ecx, DWORD PTR _this$[ebp]
$LN9@erase:

; 1318 : 							}
; 1319 : 
; 1320 : 						this->_Color(_Pnode) = this->_Color(_Fixnodeparent);

  00194	8a 56 14	 mov	 dl, BYTE PTR [esi+20]
  00197	88 50 14	 mov	 BYTE PTR [eax+20], dl

; 1321 : 						this->_Color(_Fixnodeparent) = this->_Black;

  0019a	88 5e 14	 mov	 BYTE PTR [esi+20], bl

; 1322 : 						this->_Color(this->_Right(_Pnode)) = this->_Black;

  0019d	8b 40 08	 mov	 eax, DWORD PTR [eax+8]

; 1323 : 						_Lrotate(_Fixnodeparent);

  001a0	56		 push	 esi
  001a1	88 58 14	 mov	 BYTE PTR [eax+20], bl
  001a4	e8 00 00 00 00	 call	 ?_Lrotate@?$_Tree@V?$_Tmap_traits@HPAVTUnionInfo@@U?$less@H@std@@V?$allocator@U?$pair@$$CBHPAVTUnionInfo@@@std@@@3@$0A@@std@@@std@@IAEXPAU_Node@?$_Tree_nod@V?$_Tmap_traits@HPAVTUnionInfo@@U?$less@H@std@@V?$allocator@U?$pair@$$CBHPAVTUnionInfo@@@std@@@3@$0A@@std@@@2@@Z ; std::_Tree<std::_Tmap_traits<int,TUnionInfo *,std::less<int>,std::allocator<std::pair<int const ,TUnionInfo *> >,0> >::_Lrotate

; 1324 : 						break;	// tree now recolored/rebalanced

  001a9	eb 74		 jmp	 SHORT $LN16@erase
$LN15@erase:

; 1325 : 						}
; 1326 : 					}
; 1327 : 				else
; 1328 : 					{	// fixup right subtree
; 1329 : 					_Pnode = this->_Left(_Fixnodeparent);
; 1330 : 					if (this->_Color(_Pnode) == this->_Red)

  001ab	80 78 14 00	 cmp	 BYTE PTR [eax+20], 0
  001af	75 12		 jne	 SHORT $LN7@erase

; 1331 : 						{	// rotate red up from left subtree
; 1332 : 						this->_Color(_Pnode) = this->_Black;

  001b1	88 58 14	 mov	 BYTE PTR [eax+20], bl

; 1333 : 						this->_Color(_Fixnodeparent) = this->_Red;
; 1334 : 						_Rrotate(_Fixnodeparent);

  001b4	56		 push	 esi
  001b5	c6 46 14 00	 mov	 BYTE PTR [esi+20], 0
  001b9	e8 00 00 00 00	 call	 ?_Rrotate@?$_Tree@V?$_Tmap_traits@HPAVTUnionInfo@@U?$less@H@std@@V?$allocator@U?$pair@$$CBHPAVTUnionInfo@@@std@@@3@$0A@@std@@@std@@IAEXPAU_Node@?$_Tree_nod@V?$_Tmap_traits@HPAVTUnionInfo@@U?$less@H@std@@V?$allocator@U?$pair@$$CBHPAVTUnionInfo@@@std@@@3@$0A@@std@@@2@@Z ; std::_Tree<std::_Tmap_traits<int,TUnionInfo *,std::less<int>,std::allocator<std::pair<int const ,TUnionInfo *> >,0> >::_Rrotate

; 1335 : 						_Pnode = this->_Left(_Fixnodeparent);

  001be	8b 06		 mov	 eax, DWORD PTR [esi]
  001c0	8b 4d fc	 mov	 ecx, DWORD PTR _this$[ebp]
$LN7@erase:

; 1336 : 						}
; 1337 : 					if (this->_Isnil(_Pnode))

  001c3	80 78 15 00	 cmp	 BYTE PTR [eax+21], 0

; 1338 : 						_Fixnode = _Fixnodeparent;	// shouldn't happen
; 1339 : 					else if (this->_Color(this->_Right(_Pnode)) ==

  001c7	75 13		 jne	 SHORT $LN293@erase

; 1340 : 						this->_Black
; 1341 : 						&& this->_Color(this->_Left(_Pnode)) == this->_Black)

  001c9	8b 50 08	 mov	 edx, DWORD PTR [eax+8]
  001cc	38 5a 14	 cmp	 BYTE PTR [edx+20], bl
  001cf	75 1e		 jne	 SHORT $LN4@erase
  001d1	8b 10		 mov	 edx, DWORD PTR [eax]
  001d3	38 5a 14	 cmp	 BYTE PTR [edx+20], bl
  001d6	75 17		 jne	 SHORT $LN4@erase
$LN294@erase:

; 1342 : 						{	// redden left subtree with black children
; 1343 : 						this->_Color(_Pnode) = this->_Red;

  001d8	c6 40 14 00	 mov	 BYTE PTR [eax+20], 0
$LN293@erase:

; 1286 : 			{	// erasing black link, must recolor/rebalance tree
; 1287 : 			for (; _Fixnode != _Root()
; 1288 : 				&& this->_Color(_Fixnode) == this->_Black;
; 1289 : 				_Fixnodeparent = this->_Parent(_Fixnode))

  001dc	8b 41 04	 mov	 eax, DWORD PTR [ecx+4]

; 1344 : 						_Fixnode = _Fixnodeparent;

  001df	8b fe		 mov	 edi, esi
  001e1	8b 76 04	 mov	 esi, DWORD PTR [esi+4]
  001e4	3b 78 04	 cmp	 edi, DWORD PTR [eax+4]
  001e7	0f 85 4a ff ff
	ff		 jne	 $LL18@erase

; 1286 : 			{	// erasing black link, must recolor/rebalance tree
; 1287 : 			for (; _Fixnode != _Root()
; 1288 : 				&& this->_Color(_Fixnode) == this->_Black;
; 1289 : 				_Fixnodeparent = this->_Parent(_Fixnode))

  001ed	eb 30		 jmp	 SHORT $LN16@erase
$LN4@erase:

; 1345 : 						}
; 1346 : 					else
; 1347 : 						{	// must rearrange left subtree
; 1348 : 						if (this->_Color(this->_Left(_Pnode)) == this->_Black)

  001ef	8b 10		 mov	 edx, DWORD PTR [eax]
  001f1	38 5a 14	 cmp	 BYTE PTR [edx+20], bl
  001f4	75 15		 jne	 SHORT $LN2@erase

; 1349 : 							{	// rotate red up from right sub-subtree
; 1350 : 							this->_Color(this->_Right(_Pnode)) = this->_Black;

  001f6	8b 50 08	 mov	 edx, DWORD PTR [eax+8]
  001f9	88 5a 14	 mov	 BYTE PTR [edx+20], bl

; 1351 : 							this->_Color(_Pnode) = this->_Red;
; 1352 : 							_Lrotate(_Pnode);

  001fc	50		 push	 eax
  001fd	c6 40 14 00	 mov	 BYTE PTR [eax+20], 0
  00201	e8 00 00 00 00	 call	 ?_Lrotate@?$_Tree@V?$_Tmap_traits@HPAVTUnionInfo@@U?$less@H@std@@V?$allocator@U?$pair@$$CBHPAVTUnionInfo@@@std@@@3@$0A@@std@@@std@@IAEXPAU_Node@?$_Tree_nod@V?$_Tmap_traits@HPAVTUnionInfo@@U?$less@H@std@@V?$allocator@U?$pair@$$CBHPAVTUnionInfo@@@std@@@3@$0A@@std@@@2@@Z ; std::_Tree<std::_Tmap_traits<int,TUnionInfo *,std::less<int>,std::allocator<std::pair<int const ,TUnionInfo *> >,0> >::_Lrotate

; 1353 : 							_Pnode = this->_Left(_Fixnodeparent);

  00206	8b 06		 mov	 eax, DWORD PTR [esi]
  00208	8b 4d fc	 mov	 ecx, DWORD PTR _this$[ebp]
$LN2@erase:

; 1354 : 							}
; 1355 : 
; 1356 : 						this->_Color(_Pnode) = this->_Color(_Fixnodeparent);

  0020b	8a 56 14	 mov	 dl, BYTE PTR [esi+20]
  0020e	88 50 14	 mov	 BYTE PTR [eax+20], dl

; 1357 : 						this->_Color(_Fixnodeparent) = this->_Black;

  00211	88 5e 14	 mov	 BYTE PTR [esi+20], bl

; 1358 : 						this->_Color(this->_Left(_Pnode)) = this->_Black;

  00214	8b 00		 mov	 eax, DWORD PTR [eax]

; 1359 : 						_Rrotate(_Fixnodeparent);

  00216	56		 push	 esi
  00217	88 58 14	 mov	 BYTE PTR [eax+20], bl
  0021a	e8 00 00 00 00	 call	 ?_Rrotate@?$_Tree@V?$_Tmap_traits@HPAVTUnionInfo@@U?$less@H@std@@V?$allocator@U?$pair@$$CBHPAVTUnionInfo@@@std@@@3@$0A@@std@@@std@@IAEXPAU_Node@?$_Tree_nod@V?$_Tmap_traits@HPAVTUnionInfo@@U?$less@H@std@@V?$allocator@U?$pair@$$CBHPAVTUnionInfo@@@std@@@3@$0A@@std@@@2@@Z ; std::_Tree<std::_Tmap_traits<int,TUnionInfo *,std::less<int>,std::allocator<std::pair<int const ,TUnionInfo *> >,0> >::_Rrotate
$LN16@erase:

; 1360 : 						break;	// tree now recolored/rebalanced
; 1361 : 						}
; 1362 : 					}
; 1363 : 
; 1364 : 			this->_Color(_Fixnode) = this->_Black;	// stopping node is black

  0021f	88 5f 14	 mov	 BYTE PTR [edi+20], bl
$LN19@erase:

; 1365 : 			}
; 1366 : 
; 1367 : 		_Dest_val(this->_Alval,
; 1368 : 			_STD addressof(this->_Myval(_Erasednode)));	// delete erased node
; 1369 : 
; 1370 : 		this->_Alnod.deallocate(_Erasednode, 1);

  00222	8b 4d f8	 mov	 ecx, DWORD PTR __Erasednode$[ebp]
  00225	51		 push	 ecx
  00226	e8 00 00 00 00	 call	 ??3@YAXPAX@Z		; operator delete

; 1371 : 
; 1372 : 		if (0 < this->_Mysize)

  0022b	8b 4d fc	 mov	 ecx, DWORD PTR _this$[ebp]
  0022e	8b 41 08	 mov	 eax, DWORD PTR [ecx+8]
  00231	83 c4 04	 add	 esp, 4
  00234	5f		 pop	 edi
  00235	5e		 pop	 esi
  00236	5b		 pop	 ebx
  00237	85 c0		 test	 eax, eax
  00239	74 04		 je	 SHORT $LN1@erase

; 1373 : 			--this->_Mysize;

  0023b	48		 dec	 eax
  0023c	89 41 08	 mov	 DWORD PTR [ecx+8], eax
$LN1@erase:

; 1374 : 
; 1375 : 		return (iterator(_Where._Ptr, this));	// return successor iterator

  0023f	8b 45 08	 mov	 eax, DWORD PTR ___$ReturnUdt$[ebp]
  00242	8b 55 0c	 mov	 edx, DWORD PTR __Where$[ebp]
  00245	89 10		 mov	 DWORD PTR [eax], edx

; 1376 : 		}

  00247	8b e5		 mov	 esp, ebp
  00249	5d		 pop	 ebp
  0024a	c2 08 00	 ret	 8
$LN292@erase:
?erase@?$_Tree@V?$_Tmap_traits@HPAVTUnionInfo@@U?$less@H@std@@V?$allocator@U?$pair@$$CBHPAVTUnionInfo@@@std@@@3@$0A@@std@@@std@@QAE?AV?$_Tree_iterator@V?$_Tree_val@V?$_Tmap_traits@HPAVTUnionInfo@@U?$less@H@std@@V?$allocator@U?$pair@$$CBHPAVTUnionInfo@@@std@@@3@$0A@@std@@@std@@@2@V?$_Tree_const_iterator@V?$_Tree_val@V?$_Tmap_traits@HPAVTUnionInfo@@U?$less@H@std@@V?$allocator@U?$pair@$$CBHPAVTUnionInfo@@@std@@@3@$0A@@std@@@std@@@2@@Z ENDP ; std::_Tree<std::_Tmap_traits<int,TUnionInfo *,std::less<int>,std::allocator<std::pair<int const ,TUnionInfo *> >,0> >::erase
_TEXT	ENDS
PUBLIC	?_Eqrange@?$_Tree@V?$_Tmap_traits@HPAVTUnionInfo@@U?$less@H@std@@V?$allocator@U?$pair@$$CBHPAVTUnionInfo@@@std@@@3@$0A@@std@@@std@@IAE?AU?$pair@V?$_Tree_iterator@V?$_Tree_val@V?$_Tmap_traits@HPAVTUnionInfo@@U?$less@H@std@@V?$allocator@U?$pair@$$CBHPAVTUnionInfo@@@std@@@3@$0A@@std@@@std@@@std@@V12@@2@ABH@Z ; std::_Tree<std::_Tmap_traits<int,TUnionInfo *,std::less<int>,std::allocator<std::pair<int const ,TUnionInfo *> >,0> >::_Eqrange
; Function compile flags: /Ogtp
;	COMDAT ?_Eqrange@?$_Tree@V?$_Tmap_traits@HPAVTUnionInfo@@U?$less@H@std@@V?$allocator@U?$pair@$$CBHPAVTUnionInfo@@@std@@@3@$0A@@std@@@std@@IAE?AU?$pair@V?$_Tree_iterator@V?$_Tree_val@V?$_Tmap_traits@HPAVTUnionInfo@@U?$less@H@std@@V?$allocator@U?$pair@$$CBHPAVTUnionInfo@@@std@@@3@$0A@@std@@@std@@@std@@V12@@2@ABH@Z
_TEXT	SEGMENT
___$ReturnUdt$ = 8					; size = 4
__Keyval$ = 12						; size = 4
?_Eqrange@?$_Tree@V?$_Tmap_traits@HPAVTUnionInfo@@U?$less@H@std@@V?$allocator@U?$pair@$$CBHPAVTUnionInfo@@@std@@@3@$0A@@std@@@std@@IAE?AU?$pair@V?$_Tree_iterator@V?$_Tree_val@V?$_Tmap_traits@HPAVTUnionInfo@@U?$less@H@std@@V?$allocator@U?$pair@$$CBHPAVTUnionInfo@@@std@@@3@$0A@@std@@@std@@@std@@V12@@2@ABH@Z PROC ; std::_Tree<std::_Tmap_traits<int,TUnionInfo *,std::less<int>,std::allocator<std::pair<int const ,TUnionInfo *> >,0> >::_Eqrange, COMDAT
; _this$ = ecx

; 1575 : 		{	// find leftmost node not less than _Keyval

  00000	55		 push	 ebp
  00001	8b ec		 mov	 ebp, esp

; 1576 : 		_Nodeptr _Pnode = _Root();

  00003	8b 51 04	 mov	 edx, DWORD PTR [ecx+4]
  00006	8b 42 04	 mov	 eax, DWORD PTR [edx+4]

; 1577 : 		_Nodeptr _Lonode = this->_Myhead;	// end() if search fails
; 1578 : 		_Nodeptr _Hinode = this->_Myhead;	// end() if search fails
; 1579 : 
; 1580 : 		while (!this->_Isnil(_Pnode))

  00009	80 78 15 00	 cmp	 BYTE PTR [eax+21], 0
  0000d	53		 push	 ebx
  0000e	8b da		 mov	 ebx, edx
  00010	75 32		 jne	 SHORT $LN8@Eqrange
  00012	56		 push	 esi
  00013	8b 75 0c	 mov	 esi, DWORD PTR __Keyval$[ebp]
  00016	57		 push	 edi
  00017	8b 3e		 mov	 edi, DWORD PTR [esi]
  00019	8d a4 24 00 00
	00 00		 npad	 7
$LL9@Eqrange:

; 1581 : 			if (_DEBUG_LT_PRED(this->comp, this->_Key(_Pnode), _Keyval))

  00020	8b 70 0c	 mov	 esi, DWORD PTR [eax+12]
  00023	3b f7		 cmp	 esi, edi
  00025	7d 05		 jge	 SHORT $LN7@Eqrange

; 1582 : 				_Pnode = this->_Right(_Pnode);	// descend right subtree

  00027	8b 40 08	 mov	 eax, DWORD PTR [eax+8]

; 1583 : 			else

  0002a	eb 10		 jmp	 SHORT $LN6@Eqrange
$LN7@Eqrange:

; 1584 : 				{	// _Pnode not less than _Keyval, remember it
; 1585 : 				if (this->_Isnil(_Hinode)
; 1586 : 						&& _DEBUG_LT_PRED(this->comp, _Keyval,

  0002c	80 7a 15 00	 cmp	 BYTE PTR [edx+21], 0
  00030	74 06		 je	 SHORT $LN5@Eqrange
  00032	3b fe		 cmp	 edi, esi
  00034	7d 02		 jge	 SHORT $LN5@Eqrange

; 1587 : 						 this->_Key(_Pnode)))
; 1588 : 					_Hinode = _Pnode;	// _Pnode greater, remember it

  00036	8b d0		 mov	 edx, eax
$LN5@Eqrange:

; 1589 : 				_Lonode = _Pnode;

  00038	8b d8		 mov	 ebx, eax

; 1590 : 				_Pnode = this->_Left(_Pnode);	// descend left subtree

  0003a	8b 00		 mov	 eax, DWORD PTR [eax]
$LN6@Eqrange:

; 1577 : 		_Nodeptr _Lonode = this->_Myhead;	// end() if search fails
; 1578 : 		_Nodeptr _Hinode = this->_Myhead;	// end() if search fails
; 1579 : 
; 1580 : 		while (!this->_Isnil(_Pnode))

  0003c	80 78 15 00	 cmp	 BYTE PTR [eax+21], 0
  00040	74 de		 je	 SHORT $LL9@Eqrange
  00042	5f		 pop	 edi
  00043	5e		 pop	 esi
$LN8@Eqrange:

; 1591 : 				}
; 1592 : 
; 1593 : 		_Pnode = this->_Isnil(_Hinode) ? _Root()
; 1594 : 			: this->_Left(_Hinode);	// continue scan for upper bound

  00044	80 7a 15 00	 cmp	 BYTE PTR [edx+21], 0
  00048	74 08		 je	 SHORT $LN12@Eqrange
  0004a	8b 41 04	 mov	 eax, DWORD PTR [ecx+4]
  0004d	8b 40 04	 mov	 eax, DWORD PTR [eax+4]
  00050	eb 02		 jmp	 SHORT $LN13@Eqrange
$LN12@Eqrange:
  00052	8b 02		 mov	 eax, DWORD PTR [edx]
$LN13@Eqrange:

; 1595 : 		while (!this->_Isnil(_Pnode))

  00054	80 78 15 00	 cmp	 BYTE PTR [eax+21], 0
  00058	75 1a		 jne	 SHORT $LN3@Eqrange
  0005a	8b 4d 0c	 mov	 ecx, DWORD PTR __Keyval$[ebp]
  0005d	8b 09		 mov	 ecx, DWORD PTR [ecx]
  0005f	90		 npad	 1
$LL4@Eqrange:

; 1596 : 			if (_DEBUG_LT_PRED(this->comp, _Keyval, this->_Key(_Pnode)))

  00060	3b 48 0c	 cmp	 ecx, DWORD PTR [eax+12]
  00063	7d 06		 jge	 SHORT $LN2@Eqrange

; 1597 : 				{	// _Pnode greater than _Keyval, remember it
; 1598 : 				_Hinode = _Pnode;

  00065	8b d0		 mov	 edx, eax

; 1599 : 				_Pnode = this->_Left(_Pnode);	// descend left subtree

  00067	8b 00		 mov	 eax, DWORD PTR [eax]

; 1600 : 				}
; 1601 : 			else

  00069	eb 03		 jmp	 SHORT $LN1@Eqrange
$LN2@Eqrange:

; 1602 : 				_Pnode = this->_Right(_Pnode);	// descend right subtree

  0006b	8b 40 08	 mov	 eax, DWORD PTR [eax+8]
$LN1@Eqrange:

; 1595 : 		while (!this->_Isnil(_Pnode))

  0006e	80 78 15 00	 cmp	 BYTE PTR [eax+21], 0
  00072	74 ec		 je	 SHORT $LL4@Eqrange
$LN3@Eqrange:

; 1603 : 
; 1604 : 		iterator _First = iterator(_Lonode, this);
; 1605 : 		iterator _Last = iterator(_Hinode, this);
; 1606 : 		return (_Pairii(_First, _Last));

  00074	8b 45 08	 mov	 eax, DWORD PTR ___$ReturnUdt$[ebp]
  00077	89 18		 mov	 DWORD PTR [eax], ebx
  00079	89 50 04	 mov	 DWORD PTR [eax+4], edx
  0007c	5b		 pop	 ebx

; 1607 : 		}

  0007d	5d		 pop	 ebp
  0007e	c2 08 00	 ret	 8
?_Eqrange@?$_Tree@V?$_Tmap_traits@HPAVTUnionInfo@@U?$less@H@std@@V?$allocator@U?$pair@$$CBHPAVTUnionInfo@@@std@@@3@$0A@@std@@@std@@IAE?AU?$pair@V?$_Tree_iterator@V?$_Tree_val@V?$_Tmap_traits@HPAVTUnionInfo@@U?$less@H@std@@V?$allocator@U?$pair@$$CBHPAVTUnionInfo@@@std@@@3@$0A@@std@@@std@@@std@@V12@@2@ABH@Z ENDP ; std::_Tree<std::_Tmap_traits<int,TUnionInfo *,std::less<int>,std::allocator<std::pair<int const ,TUnionInfo *> >,0> >::_Eqrange
_TEXT	ENDS
PUBLIC	??0?$_Tree_val@V?$_Tmap_traits@HPAVTUnionInfo@@U?$less@H@std@@V?$allocator@U?$pair@$$CBHPAVTUnionInfo@@@std@@@3@$0A@@std@@@std@@QAE@ABU?$less@H@1@V?$allocator@U?$pair@$$CBHPAVTUnionInfo@@@std@@@1@@Z ; std::_Tree_val<std::_Tmap_traits<int,TUnionInfo *,std::less<int>,std::allocator<std::pair<int const ,TUnionInfo *> >,0> >::_Tree_val<std::_Tmap_traits<int,TUnionInfo *,std::less<int>,std::allocator<std::pair<int const ,TUnionInfo *> >,0> >
; Function compile flags: /Ogtp
;	COMDAT ??0?$_Tree_val@V?$_Tmap_traits@HPAVTUnionInfo@@U?$less@H@std@@V?$allocator@U?$pair@$$CBHPAVTUnionInfo@@@std@@@3@$0A@@std@@@std@@QAE@ABU?$less@H@1@V?$allocator@U?$pair@$$CBHPAVTUnionInfo@@@std@@@1@@Z
_TEXT	SEGMENT
$T159739 = -16						; size = 12
$T159716 = -4						; size = 4
__Parg$ = 8						; size = 4
__Al$ = 12						; size = 1
??0?$_Tree_val@V?$_Tmap_traits@HPAVTUnionInfo@@U?$less@H@std@@V?$allocator@U?$pair@$$CBHPAVTUnionInfo@@@std@@@3@$0A@@std@@@std@@QAE@ABU?$less@H@1@V?$allocator@U?$pair@$$CBHPAVTUnionInfo@@@std@@@1@@Z PROC ; std::_Tree_val<std::_Tmap_traits<int,TUnionInfo *,std::less<int>,std::allocator<std::pair<int const ,TUnionInfo *> >,0> >::_Tree_val<std::_Tmap_traits<int,TUnionInfo *,std::less<int>,std::allocator<std::pair<int const ,TUnionInfo *> >,0> >, COMDAT
; _this$ = ecx

; 542  : 		{	// construct base, and allocator from _Al

  00000	55		 push	 ebp
  00001	8b ec		 mov	 ebp, esp
  00003	83 ec 10	 sub	 esp, 16			; 00000010H
  00006	56		 push	 esi
  00007	8b f1		 mov	 esi, ecx

; 543  : 		this->_Mysize = 0;
; 544  : 		this->_Myhead = this->_Alnod.allocate(1);

  00009	6a 18		 push	 24			; 00000018H
  0000b	c7 46 08 00 00
	00 00		 mov	 DWORD PTR [esi+8], 0
  00012	e8 00 00 00 00	 call	 ??2@YAPAXI@Z		; operator new
  00017	83 c4 04	 add	 esp, 4
  0001a	85 c0		 test	 eax, eax
  0001c	74 28		 je	 SHORT $LN15@Tree_val
  0001e	89 46 04	 mov	 DWORD PTR [esi+4], eax

; 545  : 
; 546  : 		this->_Left(this->_Myhead) = this->_Myhead;

  00021	89 00		 mov	 DWORD PTR [eax], eax

; 547  : 		this->_Parent(this->_Myhead) = this->_Myhead;

  00023	8b 46 04	 mov	 eax, DWORD PTR [esi+4]
  00026	89 40 04	 mov	 DWORD PTR [eax+4], eax

; 548  : 		this->_Right(this->_Myhead) = this->_Myhead;

  00029	8b 46 04	 mov	 eax, DWORD PTR [esi+4]
  0002c	89 40 08	 mov	 DWORD PTR [eax+8], eax

; 549  : 		this->_Color(this->_Myhead) = this->_Black;

  0002f	8b 4e 04	 mov	 ecx, DWORD PTR [esi+4]
  00032	b0 01		 mov	 al, 1
  00034	88 41 14	 mov	 BYTE PTR [ecx+20], al

; 550  : 		this->_Isnil(this->_Myhead) = true;

  00037	8b 56 04	 mov	 edx, DWORD PTR [esi+4]
  0003a	88 42 15	 mov	 BYTE PTR [edx+21], al

; 551  : 		}

  0003d	8b c6		 mov	 eax, esi
  0003f	5e		 pop	 esi
  00040	8b e5		 mov	 esp, ebp
  00042	5d		 pop	 ebp
  00043	c2 08 00	 ret	 8

; 543  : 		this->_Mysize = 0;
; 544  : 		this->_Myhead = this->_Alnod.allocate(1);

$LN15@Tree_val:
  00046	8d 45 fc	 lea	 eax, DWORD PTR $T159716[ebp]
  00049	50		 push	 eax
  0004a	8d 4d f0	 lea	 ecx, DWORD PTR $T159739[ebp]
  0004d	c7 45 fc 00 00
	00 00		 mov	 DWORD PTR $T159716[ebp], 0
  00054	e8 00 00 00 00	 call	 ??0exception@std@@QAE@ABQBD@Z ; std::exception::exception
  00059	68 00 00 00 00	 push	 OFFSET __TI2?AVbad_alloc@std@@
  0005e	8d 4d f0	 lea	 ecx, DWORD PTR $T159739[ebp]
  00061	51		 push	 ecx
  00062	c7 45 f0 00 00
	00 00		 mov	 DWORD PTR $T159739[ebp], OFFSET ??_7bad_alloc@std@@6B@
  00069	e8 00 00 00 00	 call	 __CxxThrowException@8
$LN37@Tree_val:
$LN36@Tree_val:
  0006e	cc		 int	 3
??0?$_Tree_val@V?$_Tmap_traits@HPAVTUnionInfo@@U?$less@H@std@@V?$allocator@U?$pair@$$CBHPAVTUnionInfo@@@std@@@3@$0A@@std@@@std@@QAE@ABU?$less@H@1@V?$allocator@U?$pair@$$CBHPAVTUnionInfo@@@std@@@1@@Z ENDP ; std::_Tree_val<std::_Tmap_traits<int,TUnionInfo *,std::less<int>,std::allocator<std::pair<int const ,TUnionInfo *> >,0> >::_Tree_val<std::_Tmap_traits<int,TUnionInfo *,std::less<int>,std::allocator<std::pair<int const ,TUnionInfo *> >,0> >
_TEXT	ENDS
PUBLIC	??_C@_0BE@JONHPENG@map?1set?$DMT?$DO?5too?5long?$AA@ ; `string'
PUBLIC	?_Insert@?$_Tree@V?$_Tmap_traits@HPAVTUnionInfo@@U?$less@H@std@@V?$allocator@U?$pair@$$CBHPAVTUnionInfo@@@std@@@3@$0A@@std@@@std@@IAE?AV?$_Tree_iterator@V?$_Tree_val@V?$_Tmap_traits@HPAVTUnionInfo@@U?$less@H@std@@V?$allocator@U?$pair@$$CBHPAVTUnionInfo@@@std@@@3@$0A@@std@@@std@@@2@_NPAU_Node@?$_Tree_nod@V?$_Tmap_traits@HPAVTUnionInfo@@U?$less@H@std@@V?$allocator@U?$pair@$$CBHPAVTUnionInfo@@@std@@@3@$0A@@std@@@2@1@Z ; std::_Tree<std::_Tmap_traits<int,TUnionInfo *,std::less<int>,std::allocator<std::pair<int const ,TUnionInfo *> >,0> >::_Insert
;	COMDAT ??_C@_0BE@JONHPENG@map?1set?$DMT?$DO?5too?5long?$AA@
; File c:\program files (x86)\microsoft visual studio 10.0\vc\include\xutility
CONST	SEGMENT
??_C@_0BE@JONHPENG@map?1set?$DMT?$DO?5too?5long?$AA@ DB 'map/set<T> too l'
	DB	'ong', 00H					; `string'
; Function compile flags: /Ogtp
; File c:\program files (x86)\microsoft visual studio 10.0\vc\include\xtree
CONST	ENDS
;	COMDAT ?_Insert@?$_Tree@V?$_Tmap_traits@HPAVTUnionInfo@@U?$less@H@std@@V?$allocator@U?$pair@$$CBHPAVTUnionInfo@@@std@@@3@$0A@@std@@@std@@IAE?AV?$_Tree_iterator@V?$_Tree_val@V?$_Tmap_traits@HPAVTUnionInfo@@U?$less@H@std@@V?$allocator@U?$pair@$$CBHPAVTUnionInfo@@@std@@@3@$0A@@std@@@std@@@2@_NPAU_Node@?$_Tree_nod@V?$_Tmap_traits@HPAVTUnionInfo@@U?$less@H@std@@V?$allocator@U?$pair@$$CBHPAVTUnionInfo@@@std@@@3@$0A@@std@@@2@1@Z
_TEXT	SEGMENT
___$ReturnUdt$ = 8					; size = 4
__Addleft$ = 12						; size = 1
__Wherenode$ = 16					; size = 4
__Newnode$ = 20						; size = 4
?_Insert@?$_Tree@V?$_Tmap_traits@HPAVTUnionInfo@@U?$less@H@std@@V?$allocator@U?$pair@$$CBHPAVTUnionInfo@@@std@@@3@$0A@@std@@@std@@IAE?AV?$_Tree_iterator@V?$_Tree_val@V?$_Tmap_traits@HPAVTUnionInfo@@U?$less@H@std@@V?$allocator@U?$pair@$$CBHPAVTUnionInfo@@@std@@@3@$0A@@std@@@std@@@2@_NPAU_Node@?$_Tree_nod@V?$_Tmap_traits@HPAVTUnionInfo@@U?$less@H@std@@V?$allocator@U?$pair@$$CBHPAVTUnionInfo@@@std@@@3@$0A@@std@@@2@1@Z PROC ; std::_Tree<std::_Tmap_traits<int,TUnionInfo *,std::less<int>,std::allocator<std::pair<int const ,TUnionInfo *> >,0> >::_Insert, COMDAT
; _this$ = ecx

; 1631 : 		{	// add node with value next to _Wherenode, to left if _Addleft

  00000	55		 push	 ebp
  00001	8b ec		 mov	 ebp, esp

; 1632 : 		if (max_size() - 1 <= this->_Mysize)

  00003	8b 41 08	 mov	 eax, DWORD PTR [ecx+8]
  00006	3d fe ff ff 1f	 cmp	 eax, 536870910		; 1ffffffeH
  0000b	72 16		 jb	 SHORT $LN17@Insert

; 1633 : 			{	// tree would get too big, fail
; 1634 : 			_Dest_val(this->_Alval,
; 1635 : 				_STD addressof(this->_Myval(_Newnode)));
; 1636 : 
; 1637 : 			this->_Alnod.deallocate(_Newnode, 1);

  0000d	8b 45 14	 mov	 eax, DWORD PTR __Newnode$[ebp]
  00010	50		 push	 eax
  00011	e8 00 00 00 00	 call	 ??3@YAXPAX@Z		; operator delete
  00016	83 c4 04	 add	 esp, 4

; 1638 : 
; 1639 : 			_Xlength_error("map/set<T> too long");

  00019	68 00 00 00 00	 push	 OFFSET ??_C@_0BE@JONHPENG@map?1set?$DMT?$DO?5too?5long?$AA@
  0001e	e8 00 00 00 00	 call	 ?_Xlength_error@std@@YAXPBD@Z ; std::_Xlength_error
$LN377@Insert:
$LN17@Insert:

; 1640 : 			}
; 1641 : 		++this->_Mysize;

  00023	40		 inc	 eax
  00024	53		 push	 ebx
  00025	89 41 08	 mov	 DWORD PTR [ecx+8], eax

; 1642 : 		_Newnode->_Parent = _Wherenode;

  00028	8b 45 10	 mov	 eax, DWORD PTR __Wherenode$[ebp]
  0002b	57		 push	 edi
  0002c	8b 7d 14	 mov	 edi, DWORD PTR __Newnode$[ebp]
  0002f	89 47 04	 mov	 DWORD PTR [edi+4], eax

; 1643 : 
; 1644 : 		if (_Wherenode == this->_Myhead)

  00032	8b 51 04	 mov	 edx, DWORD PTR [ecx+4]
  00035	32 db		 xor	 bl, bl
  00037	3b c2		 cmp	 eax, edx
  00039	75 10		 jne	 SHORT $LN16@Insert

; 1645 : 			{	// first node in tree, just set head values
; 1646 : 			_Root() = _Newnode;

  0003b	89 7a 04	 mov	 DWORD PTR [edx+4], edi

; 1647 : 			_Lmost() = _Newnode;

  0003e	8b 51 04	 mov	 edx, DWORD PTR [ecx+4]
  00041	89 3a		 mov	 DWORD PTR [edx], edi

; 1648 : 			_Rmost() = _Newnode;

  00043	8b 41 04	 mov	 eax, DWORD PTR [ecx+4]
  00046	89 78 08	 mov	 DWORD PTR [eax+8], edi
  00049	eb 20		 jmp	 SHORT $LN11@Insert
$LN16@Insert:

; 1649 : 			}
; 1650 : 		else if (_Addleft)

  0004b	38 5d 0c	 cmp	 BYTE PTR __Addleft$[ebp], bl
  0004e	74 0d		 je	 SHORT $LN14@Insert

; 1651 : 			{	// add to left of _Wherenode
; 1652 : 			this->_Left(_Wherenode) = _Newnode;

  00050	89 38		 mov	 DWORD PTR [eax], edi

; 1653 : 			if (_Wherenode == _Lmost())

  00052	8b 51 04	 mov	 edx, DWORD PTR [ecx+4]
  00055	3b 02		 cmp	 eax, DWORD PTR [edx]
  00057	75 12		 jne	 SHORT $LN11@Insert

; 1654 : 				_Lmost() = _Newnode;

  00059	89 3a		 mov	 DWORD PTR [edx], edi

; 1655 : 			}
; 1656 : 		else

  0005b	eb 0e		 jmp	 SHORT $LN11@Insert
$LN14@Insert:

; 1657 : 			{	// add to right of _Wherenode
; 1658 : 			this->_Right(_Wherenode) = _Newnode;

  0005d	89 78 08	 mov	 DWORD PTR [eax+8], edi

; 1659 : 			if (_Wherenode == _Rmost())

  00060	8b 51 04	 mov	 edx, DWORD PTR [ecx+4]
  00063	3b 42 08	 cmp	 eax, DWORD PTR [edx+8]
  00066	75 03		 jne	 SHORT $LN11@Insert

; 1660 : 				_Rmost() = _Newnode;

  00068	89 7a 08	 mov	 DWORD PTR [edx+8], edi
$LN11@Insert:

; 1661 : 			}
; 1662 : 
; 1663 : 		for (_Nodeptr _Pnode = _Newnode;
; 1664 : 			this->_Color(this->_Parent(_Pnode)) == this->_Red; )

  0006b	8b 57 04	 mov	 edx, DWORD PTR [edi+4]
  0006e	8b c7		 mov	 eax, edi
  00070	38 5a 14	 cmp	 BYTE PTR [edx+20], bl
  00073	0f 85 97 01 00
	00		 jne	 $LN9@Insert
  00079	56		 push	 esi
  0007a	8d 9b 00 00 00
	00		 npad	 6
$LL10@Insert:

; 1665 : 			if (this->_Parent(_Pnode)
; 1666 : 				== this->_Left(this->_Parent(this->_Parent(_Pnode))))

  00080	8b 50 04	 mov	 edx, DWORD PTR [eax+4]
  00083	8b 72 04	 mov	 esi, DWORD PTR [edx+4]
  00086	3b 16		 cmp	 edx, DWORD PTR [esi]
  00088	0f 85 c1 00 00
	00		 jne	 $LN8@Insert

; 1667 : 				{	// fixup red-red in left subtree
; 1668 : 				_Wherenode =
; 1669 : 					this->_Right(this->_Parent(this->_Parent(_Pnode)));

  0008e	8b 76 08	 mov	 esi, DWORD PTR [esi+8]

; 1670 : 				if (this->_Color(_Wherenode) == this->_Red)

  00091	38 5e 14	 cmp	 BYTE PTR [esi+20], bl
  00094	75 1c		 jne	 SHORT $LN7@Insert

; 1671 : 					{	// parent has two red children, blacken both
; 1672 : 					this->_Color(this->_Parent(_Pnode)) = this->_Black;

  00096	c6 42 14 01	 mov	 BYTE PTR [edx+20], 1

; 1673 : 					this->_Color(_Wherenode) = this->_Black;

  0009a	c6 46 14 01	 mov	 BYTE PTR [esi+20], 1

; 1674 : 					this->_Color(this->_Parent(this->_Parent(_Pnode)))
; 1675 : 						= this->_Red;

  0009e	8b 50 04	 mov	 edx, DWORD PTR [eax+4]
  000a1	8b 52 04	 mov	 edx, DWORD PTR [edx+4]
  000a4	88 5a 14	 mov	 BYTE PTR [edx+20], bl

; 1676 : 					_Pnode = this->_Parent(this->_Parent(_Pnode));

  000a7	8b 40 04	 mov	 eax, DWORD PTR [eax+4]
  000aa	8b 40 04	 mov	 eax, DWORD PTR [eax+4]

; 1677 : 					}
; 1678 : 				else

  000ad	e9 51 01 00 00	 jmp	 $LN316@Insert
$LN7@Insert:

; 1679 : 					{	// parent has red and black children
; 1680 : 					if (_Pnode == this->_Right(this->_Parent(_Pnode)))

  000b2	3b 42 08	 cmp	 eax, DWORD PTR [edx+8]
  000b5	75 3a		 jne	 SHORT $LN111@Insert

; 1681 : 						{	// rotate right child to left
; 1682 : 						_Pnode = this->_Parent(_Pnode);

  000b7	8b c2		 mov	 eax, edx

; 1683 : 						_Lrotate(_Pnode);

  000b9	8b 50 08	 mov	 edx, DWORD PTR [eax+8]
  000bc	8b 32		 mov	 esi, DWORD PTR [edx]
  000be	89 70 08	 mov	 DWORD PTR [eax+8], esi
  000c1	8b 32		 mov	 esi, DWORD PTR [edx]
  000c3	38 5e 15	 cmp	 BYTE PTR [esi+21], bl
  000c6	75 03		 jne	 SHORT $LN110@Insert
  000c8	89 46 04	 mov	 DWORD PTR [esi+4], eax
$LN110@Insert:
  000cb	8b 70 04	 mov	 esi, DWORD PTR [eax+4]
  000ce	89 72 04	 mov	 DWORD PTR [edx+4], esi
  000d1	8b 71 04	 mov	 esi, DWORD PTR [ecx+4]
  000d4	3b 46 04	 cmp	 eax, DWORD PTR [esi+4]
  000d7	75 05		 jne	 SHORT $LN109@Insert
  000d9	89 56 04	 mov	 DWORD PTR [esi+4], edx
  000dc	eb 0e		 jmp	 SHORT $LN106@Insert
$LN109@Insert:
  000de	8b 70 04	 mov	 esi, DWORD PTR [eax+4]
  000e1	3b 06		 cmp	 eax, DWORD PTR [esi]
  000e3	75 04		 jne	 SHORT $LN107@Insert
  000e5	89 16		 mov	 DWORD PTR [esi], edx
  000e7	eb 03		 jmp	 SHORT $LN106@Insert
$LN107@Insert:
  000e9	89 56 08	 mov	 DWORD PTR [esi+8], edx
$LN106@Insert:
  000ec	89 02		 mov	 DWORD PTR [edx], eax
  000ee	89 50 04	 mov	 DWORD PTR [eax+4], edx
$LN111@Insert:

; 1684 : 						}
; 1685 : 					this->_Color(this->_Parent(_Pnode)) =
; 1686 : 						this->_Black;	// propagate red up

  000f1	8b 50 04	 mov	 edx, DWORD PTR [eax+4]
  000f4	c6 42 14 01	 mov	 BYTE PTR [edx+20], 1

; 1687 : 					this->_Color(this->_Parent(this->_Parent(_Pnode))) =
; 1688 : 						this->_Red;

  000f8	8b 50 04	 mov	 edx, DWORD PTR [eax+4]
  000fb	8b 52 04	 mov	 edx, DWORD PTR [edx+4]
  000fe	88 5a 14	 mov	 BYTE PTR [edx+20], bl

; 1689 : 					_Rrotate(this->_Parent(this->_Parent(_Pnode)));

  00101	8b 50 04	 mov	 edx, DWORD PTR [eax+4]
  00104	8b 52 04	 mov	 edx, DWORD PTR [edx+4]
  00107	8b 32		 mov	 esi, DWORD PTR [edx]
  00109	8b 7e 08	 mov	 edi, DWORD PTR [esi+8]
  0010c	89 3a		 mov	 DWORD PTR [edx], edi
  0010e	8b 7e 08	 mov	 edi, DWORD PTR [esi+8]
  00111	38 5f 15	 cmp	 BYTE PTR [edi+21], bl
  00114	75 03		 jne	 SHORT $LN173@Insert
  00116	89 57 04	 mov	 DWORD PTR [edi+4], edx
$LN173@Insert:
  00119	8b 7a 04	 mov	 edi, DWORD PTR [edx+4]
  0011c	89 7e 04	 mov	 DWORD PTR [esi+4], edi
  0011f	8b 79 04	 mov	 edi, DWORD PTR [ecx+4]
  00122	3b 57 04	 cmp	 edx, DWORD PTR [edi+4]
  00125	75 0b		 jne	 SHORT $LN172@Insert
  00127	89 77 04	 mov	 DWORD PTR [edi+4], esi
  0012a	89 56 08	 mov	 DWORD PTR [esi+8], edx

; 1690 : 					}
; 1691 : 				}
; 1692 : 			else

  0012d	e9 cb 00 00 00	 jmp	 $LN376@Insert

; 1689 : 					_Rrotate(this->_Parent(this->_Parent(_Pnode)));

$LN172@Insert:
  00132	8b 7a 04	 mov	 edi, DWORD PTR [edx+4]
  00135	3b 57 08	 cmp	 edx, DWORD PTR [edi+8]
  00138	75 0b		 jne	 SHORT $LN170@Insert
  0013a	89 77 08	 mov	 DWORD PTR [edi+8], esi
  0013d	89 56 08	 mov	 DWORD PTR [esi+8], edx

; 1690 : 					}
; 1691 : 				}
; 1692 : 			else

  00140	e9 b8 00 00 00	 jmp	 $LN376@Insert

; 1689 : 					_Rrotate(this->_Parent(this->_Parent(_Pnode)));

$LN170@Insert:
  00145	89 37		 mov	 DWORD PTR [edi], esi
  00147	89 56 08	 mov	 DWORD PTR [esi+8], edx

; 1690 : 					}
; 1691 : 				}
; 1692 : 			else

  0014a	e9 ae 00 00 00	 jmp	 $LN376@Insert
$LN8@Insert:

; 1693 : 				{	// fixup red-red in right subtree
; 1694 : 				_Wherenode =
; 1695 : 					this->_Left(this->_Parent(this->_Parent(_Pnode)));

  0014f	8b 36		 mov	 esi, DWORD PTR [esi]

; 1696 : 				if (this->_Color(_Wherenode) == this->_Red)

  00151	38 5e 14	 cmp	 BYTE PTR [esi+20], bl
  00154	75 1c		 jne	 SHORT $LN3@Insert

; 1697 : 					{	// parent has two red children, blacken both
; 1698 : 					this->_Color(this->_Parent(_Pnode)) = this->_Black;

  00156	c6 42 14 01	 mov	 BYTE PTR [edx+20], 1

; 1699 : 					this->_Color(_Wherenode) = this->_Black;

  0015a	c6 46 14 01	 mov	 BYTE PTR [esi+20], 1

; 1700 : 					this->_Color(this->_Parent(this->_Parent(_Pnode))) =
; 1701 : 						this->_Red;

  0015e	8b 50 04	 mov	 edx, DWORD PTR [eax+4]
  00161	8b 52 04	 mov	 edx, DWORD PTR [edx+4]
  00164	88 5a 14	 mov	 BYTE PTR [edx+20], bl

; 1702 : 					_Pnode = this->_Parent(this->_Parent(_Pnode));

  00167	8b 40 04	 mov	 eax, DWORD PTR [eax+4]
  0016a	8b 40 04	 mov	 eax, DWORD PTR [eax+4]

; 1703 : 					}
; 1704 : 				else

  0016d	e9 91 00 00 00	 jmp	 $LN316@Insert
$LN3@Insert:

; 1705 : 					{	// parent has red and black children
; 1706 : 					if (_Pnode == this->_Left(this->_Parent(_Pnode)))

  00172	3b 02		 cmp	 eax, DWORD PTR [edx]
  00174	75 3c		 jne	 SHORT $LN253@Insert

; 1707 : 						{	// rotate left child to right
; 1708 : 						_Pnode = this->_Parent(_Pnode);

  00176	8b c2		 mov	 eax, edx

; 1709 : 						_Rrotate(_Pnode);

  00178	8b 10		 mov	 edx, DWORD PTR [eax]
  0017a	8b 72 08	 mov	 esi, DWORD PTR [edx+8]
  0017d	89 30		 mov	 DWORD PTR [eax], esi
  0017f	8b 72 08	 mov	 esi, DWORD PTR [edx+8]
  00182	38 5e 15	 cmp	 BYTE PTR [esi+21], bl
  00185	75 03		 jne	 SHORT $LN252@Insert
  00187	89 46 04	 mov	 DWORD PTR [esi+4], eax
$LN252@Insert:
  0018a	8b 70 04	 mov	 esi, DWORD PTR [eax+4]
  0018d	89 72 04	 mov	 DWORD PTR [edx+4], esi
  00190	8b 71 04	 mov	 esi, DWORD PTR [ecx+4]
  00193	3b 46 04	 cmp	 eax, DWORD PTR [esi+4]
  00196	75 05		 jne	 SHORT $LN251@Insert
  00198	89 56 04	 mov	 DWORD PTR [esi+4], edx
  0019b	eb 0f		 jmp	 SHORT $LN248@Insert
$LN251@Insert:
  0019d	8b 70 04	 mov	 esi, DWORD PTR [eax+4]
  001a0	3b 46 08	 cmp	 eax, DWORD PTR [esi+8]
  001a3	75 05		 jne	 SHORT $LN249@Insert
  001a5	89 56 08	 mov	 DWORD PTR [esi+8], edx
  001a8	eb 02		 jmp	 SHORT $LN248@Insert
$LN249@Insert:
  001aa	89 16		 mov	 DWORD PTR [esi], edx
$LN248@Insert:
  001ac	89 42 08	 mov	 DWORD PTR [edx+8], eax
  001af	89 50 04	 mov	 DWORD PTR [eax+4], edx
$LN253@Insert:

; 1710 : 						}
; 1711 : 					this->_Color(this->_Parent(_Pnode)) =
; 1712 : 						this->_Black;	// propagate red up

  001b2	8b 50 04	 mov	 edx, DWORD PTR [eax+4]
  001b5	c6 42 14 01	 mov	 BYTE PTR [edx+20], 1

; 1713 : 					this->_Color(this->_Parent(this->_Parent(_Pnode))) =
; 1714 : 						this->_Red;

  001b9	8b 50 04	 mov	 edx, DWORD PTR [eax+4]
  001bc	8b 52 04	 mov	 edx, DWORD PTR [edx+4]
  001bf	88 5a 14	 mov	 BYTE PTR [edx+20], bl

; 1715 : 					_Lrotate(this->_Parent(this->_Parent(_Pnode)));

  001c2	8b 50 04	 mov	 edx, DWORD PTR [eax+4]
  001c5	8b 52 04	 mov	 edx, DWORD PTR [edx+4]
  001c8	8b 72 08	 mov	 esi, DWORD PTR [edx+8]
  001cb	8b 3e		 mov	 edi, DWORD PTR [esi]
  001cd	89 7a 08	 mov	 DWORD PTR [edx+8], edi
  001d0	8b 3e		 mov	 edi, DWORD PTR [esi]
  001d2	38 5f 15	 cmp	 BYTE PTR [edi+21], bl
  001d5	75 03		 jne	 SHORT $LN315@Insert
  001d7	89 57 04	 mov	 DWORD PTR [edi+4], edx
$LN315@Insert:
  001da	8b 7a 04	 mov	 edi, DWORD PTR [edx+4]
  001dd	89 7e 04	 mov	 DWORD PTR [esi+4], edi
  001e0	8b 79 04	 mov	 edi, DWORD PTR [ecx+4]
  001e3	3b 57 04	 cmp	 edx, DWORD PTR [edi+4]
  001e6	75 05		 jne	 SHORT $LN314@Insert
  001e8	89 77 04	 mov	 DWORD PTR [edi+4], esi
  001eb	eb 0e		 jmp	 SHORT $LN311@Insert
$LN314@Insert:
  001ed	8b 7a 04	 mov	 edi, DWORD PTR [edx+4]
  001f0	3b 17		 cmp	 edx, DWORD PTR [edi]
  001f2	75 04		 jne	 SHORT $LN312@Insert
  001f4	89 37		 mov	 DWORD PTR [edi], esi
  001f6	eb 03		 jmp	 SHORT $LN311@Insert
$LN312@Insert:
  001f8	89 77 08	 mov	 DWORD PTR [edi+8], esi
$LN311@Insert:
  001fb	89 16		 mov	 DWORD PTR [esi], edx
