; Listing generated by Microsoft (R) Optimizing Compiler Version 16.00.40219.01 

	TITLE	C:\muserver_dev\development\MU-S8EP2-Repack\GameServer\Source\TUnion.cpp
	.686P
	.XMM
	include listing.inc
	.model	flat

INCLUDELIB LIBCMT
INCLUDELIB OLDNAMES

PUBLIC	??2@YAPAXIPAX@Z					; operator new
; Function compile flags: /Ogtp
; File c:\program files (x86)\microsoft visual studio 10.0\vc\include\new.h
;	COMDAT ??2@YAPAXIPAX@Z
_TEXT	SEGMENT
___formal$ = 8						; size = 4
__Where$ = 12						; size = 4
??2@YAPAXIPAX@Z PROC					; operator new, COMDAT

; 81   :         {return (_Where); }

  00000	55		 push	 ebp
  00001	8b ec		 mov	 ebp, esp
  00003	8b 45 0c	 mov	 eax, DWORD PTR __Where$[ebp]
  00006	5d		 pop	 ebp
  00007	c3		 ret	 0
??2@YAPAXIPAX@Z ENDP					; operator new
_TEXT	ENDS
PUBLIC	??3@YAXPAX0@Z					; operator delete
; Function compile flags: /Ogtp
;	COMDAT ??3@YAXPAX0@Z
_TEXT	SEGMENT
___formal$ = 8						; size = 4
___formal$ = 12						; size = 4
??3@YAXPAX0@Z PROC					; operator delete, COMDAT

; 83   :         {return; }

  00000	c3		 ret	 0
??3@YAXPAX0@Z ENDP					; operator delete
_TEXT	ENDS
PUBLIC	?size@?$vector@HV?$allocator@H@std@@@std@@QBEIXZ ; std::vector<int,std::allocator<int> >::size
; Function compile flags: /Ogtp
; File c:\program files (x86)\microsoft visual studio 10.0\vc\include\vector
;	COMDAT ?size@?$vector@HV?$allocator@H@std@@@std@@QBEIXZ
_TEXT	SEGMENT
?size@?$vector@HV?$allocator@H@std@@@std@@QBEIXZ PROC	; std::vector<int,std::allocator<int> >::size, COMDAT
; _this$ = ecx

; 879  : 		return (this->_Mylast - this->_Myfirst);

  00000	8b 41 04	 mov	 eax, DWORD PTR [ecx+4]
  00003	2b 01		 sub	 eax, DWORD PTR [ecx]
  00005	c1 f8 02	 sar	 eax, 2

; 880  : 		}

  00008	c3		 ret	 0
?size@?$vector@HV?$allocator@H@std@@@std@@QBEIXZ ENDP	; std::vector<int,std::allocator<int> >::size
_TEXT	ENDS
PUBLIC	??A?$vector@HV?$allocator@H@std@@@std@@QAEAAHI@Z ; std::vector<int,std::allocator<int> >::operator[]
; Function compile flags: /Ogtp
;	COMDAT ??A?$vector@HV?$allocator@H@std@@@std@@QAEAAHI@Z
_TEXT	SEGMENT
__Pos$ = 8						; size = 4
??A?$vector@HV?$allocator@H@std@@@std@@QAEAAHI@Z PROC	; std::vector<int,std::allocator<int> >::operator[], COMDAT
; _this$ = ecx

; 928  : 		{	// subscript mutable sequence

  00000	55		 push	 ebp
  00001	8b ec		 mov	 ebp, esp

; 929  :  #if _ITERATOR_DEBUG_LEVEL == 2
; 930  : 		if (size() <= _Pos)
; 931  : 			{	// report error
; 932  : 			_DEBUG_ERROR("vector subscript out of range");
; 933  : 			_SCL_SECURE_OUT_OF_RANGE;
; 934  : 			}
; 935  : 
; 936  :  #elif _ITERATOR_DEBUG_LEVEL == 1
; 937  : 		_SCL_SECURE_VALIDATE_RANGE(_Pos < size());
; 938  :  #endif /* _ITERATOR_DEBUG_LEVEL */
; 939  : 
; 940  : 		return (*(this->_Myfirst + _Pos));

  00003	8b 01		 mov	 eax, DWORD PTR [ecx]
  00005	8b 4d 08	 mov	 ecx, DWORD PTR __Pos$[ebp]
  00008	8d 04 88	 lea	 eax, DWORD PTR [eax+ecx*4]

; 941  : 		}

  0000b	5d		 pop	 ebp
  0000c	c2 04 00	 ret	 4
??A?$vector@HV?$allocator@H@std@@@std@@QAEAAHI@Z ENDP	; std::vector<int,std::allocator<int> >::operator[]
_TEXT	ENDS
PUBLIC	?_Inside@?$vector@HV?$allocator@H@std@@@std@@IBE_NPBH@Z ; std::vector<int,std::allocator<int> >::_Inside
; Function compile flags: /Ogtp
;	COMDAT ?_Inside@?$vector@HV?$allocator@H@std@@@std@@IBE_NPBH@Z
_TEXT	SEGMENT
__Ptr$ = 8						; size = 4
?_Inside@?$vector@HV?$allocator@H@std@@@std@@IBE_NPBH@Z PROC ; std::vector<int,std::allocator<int> >::_Inside, COMDAT
; _this$ = ecx

; 1285 : 		{	// test if _Ptr points inside vector

  00000	55		 push	 ebp
  00001	8b ec		 mov	 ebp, esp

; 1286 : 		return (_Ptr < this->_Mylast && this->_Myfirst <= _Ptr);

  00003	8b 45 08	 mov	 eax, DWORD PTR __Ptr$[ebp]
  00006	3b 41 04	 cmp	 eax, DWORD PTR [ecx+4]
  00009	73 0d		 jae	 SHORT $LN3@Inside
  0000b	39 01		 cmp	 DWORD PTR [ecx], eax
  0000d	77 09		 ja	 SHORT $LN3@Inside
  0000f	b8 01 00 00 00	 mov	 eax, 1

; 1287 : 		}

  00014	5d		 pop	 ebp
  00015	c2 04 00	 ret	 4
$LN3@Inside:

; 1286 : 		return (_Ptr < this->_Mylast && this->_Myfirst <= _Ptr);

  00018	33 c0		 xor	 eax, eax

; 1287 : 		}

  0001a	5d		 pop	 ebp
  0001b	c2 04 00	 ret	 4
?_Inside@?$vector@HV?$allocator@H@std@@@std@@IBE_NPBH@Z ENDP ; std::vector<int,std::allocator<int> >::_Inside
_TEXT	ENDS
PUBLIC	?_Orphan_range@?$vector@HV?$allocator@H@std@@@std@@IBEXPAH0@Z ; std::vector<int,std::allocator<int> >::_Orphan_range
; Function compile flags: /Ogtp
;	COMDAT ?_Orphan_range@?$vector@HV?$allocator@H@std@@@std@@IBEXPAH0@Z
_TEXT	SEGMENT
___formal$ = 8						; size = 4
___formal$ = 12						; size = 4
?_Orphan_range@?$vector@HV?$allocator@H@std@@@std@@IBEXPAH0@Z PROC ; std::vector<int,std::allocator<int> >::_Orphan_range, COMDAT
; _this$ = ecx

; 1454 : 		}

  00000	c2 08 00	 ret	 8
?_Orphan_range@?$vector@HV?$allocator@H@std@@@std@@IBEXPAH0@Z ENDP ; std::vector<int,std::allocator<int> >::_Orphan_range
_TEXT	ENDS
PUBLIC	??0?$allocator@U?$pair@$$CBHPAVTUnionInfo@@@std@@@std@@QAE@XZ ; std::allocator<std::pair<int const ,TUnionInfo *> >::allocator<std::pair<int const ,TUnionInfo *> >
; Function compile flags: /Ogtp
; File c:\program files (x86)\microsoft visual studio 10.0\vc\include\xmemory
;	COMDAT ??0?$allocator@U?$pair@$$CBHPAVTUnionInfo@@@std@@@std@@QAE@XZ
_TEXT	SEGMENT
??0?$allocator@U?$pair@$$CBHPAVTUnionInfo@@@std@@@std@@QAE@XZ PROC ; std::allocator<std::pair<int const ,TUnionInfo *> >::allocator<std::pair<int const ,TUnionInfo *> >, COMDAT
; _this$ = ecx

; 161  : 	_ALLOCATOR() _THROW0()

  00000	8b c1		 mov	 eax, ecx

; 162  : 		{	// construct default allocator (do nothing)
; 163  : 		}

  00002	c3		 ret	 0
??0?$allocator@U?$pair@$$CBHPAVTUnionInfo@@@std@@@std@@QAE@XZ ENDP ; std::allocator<std::pair<int const ,TUnionInfo *> >::allocator<std::pair<int const ,TUnionInfo *> >
_TEXT	ENDS
PUBLIC	??R?$less@H@std@@QBE_NABH0@Z			; std::less<int>::operator()
; Function compile flags: /Ogtp
; File c:\program files (x86)\microsoft visual studio 10.0\vc\include\xfunctional
;	COMDAT ??R?$less@H@std@@QBE_NABH0@Z
_TEXT	SEGMENT
__Left$ = 8						; size = 4
__Right$ = 12						; size = 4
??R?$less@H@std@@QBE_NABH0@Z PROC			; std::less<int>::operator(), COMDAT
; _this$ = ecx

; 124  : 		{	// apply operator< to operands

  00000	55		 push	 ebp
  00001	8b ec		 mov	 ebp, esp

; 125  : 		return (_Left < _Right);

  00003	8b 45 08	 mov	 eax, DWORD PTR __Left$[ebp]
  00006	8b 08		 mov	 ecx, DWORD PTR [eax]
  00008	8b 55 0c	 mov	 edx, DWORD PTR __Right$[ebp]
  0000b	33 c0		 xor	 eax, eax
  0000d	3b 0a		 cmp	 ecx, DWORD PTR [edx]
  0000f	0f 9c c0	 setl	 al

; 126  : 		}

  00012	5d		 pop	 ebp
  00013	c2 08 00	 ret	 8
??R?$less@H@std@@QBE_NABH0@Z ENDP			; std::less<int>::operator()
_TEXT	ENDS
PUBLIC	??8?$_Tree_const_iterator@V?$_Tree_val@V?$_Tmap_traits@HPAVTUnionInfo@@U?$less@H@std@@V?$allocator@U?$pair@$$CBHPAVTUnionInfo@@@std@@@3@$0A@@std@@@std@@@std@@QBE_NABV01@@Z ; std::_Tree_const_iterator<std::_Tree_val<std::_Tmap_traits<int,TUnionInfo *,std::less<int>,std::allocator<std::pair<int const ,TUnionInfo *> >,0> > >::operator==
; Function compile flags: /Ogtp
; File c:\program files (x86)\microsoft visual studio 10.0\vc\include\xtree
;	COMDAT ??8?$_Tree_const_iterator@V?$_Tree_val@V?$_Tmap_traits@HPAVTUnionInfo@@U?$less@H@std@@V?$allocator@U?$pair@$$CBHPAVTUnionInfo@@@std@@@3@$0A@@std@@@std@@@std@@QBE_NABV01@@Z
_TEXT	SEGMENT
__Right$ = 8						; size = 4
??8?$_Tree_const_iterator@V?$_Tree_val@V?$_Tmap_traits@HPAVTUnionInfo@@U?$less@H@std@@V?$allocator@U?$pair@$$CBHPAVTUnionInfo@@@std@@@3@$0A@@std@@@std@@@std@@QBE_NABV01@@Z PROC ; std::_Tree_const_iterator<std::_Tree_val<std::_Tmap_traits<int,TUnionInfo *,std::less<int>,std::allocator<std::pair<int const ,TUnionInfo *> >,0> > >::operator==, COMDAT
; _this$ = ecx

; 316  : 		{	// test for iterator equality

  00000	55		 push	 ebp
  00001	8b ec		 mov	 ebp, esp

; 317  :  #if _ITERATOR_DEBUG_LEVEL == 2
; 318  : 		if (this->_Getcont() == 0
; 319  : 			|| this->_Getcont() != _Right._Getcont())
; 320  : 			{	// report error
; 321  : 			_DEBUG_ERROR("map/set iterators incompatible");
; 322  : 			_SCL_SECURE_INVALID_ARGUMENT;
; 323  : 			}
; 324  : 
; 325  :  #elif _ITERATOR_DEBUG_LEVEL == 1
; 326  : 		_SCL_SECURE_VALIDATE(this->_Getcont() != 0
; 327  : 			&& this->_Getcont() == _Right._Getcont());
; 328  :  #endif /* _ITERATOR_DEBUG_LEVEL */
; 329  : 
; 330  : 		return (this->_Ptr == _Right._Ptr);

  00003	8b 01		 mov	 eax, DWORD PTR [ecx]
  00005	8b 55 08	 mov	 edx, DWORD PTR __Right$[ebp]
  00008	33 c9		 xor	 ecx, ecx
  0000a	3b 02		 cmp	 eax, DWORD PTR [edx]
  0000c	0f 94 c0	 sete	 al

; 331  : 		}

  0000f	5d		 pop	 ebp
  00010	c2 04 00	 ret	 4
??8?$_Tree_const_iterator@V?$_Tree_val@V?$_Tmap_traits@HPAVTUnionInfo@@U?$less@H@std@@V?$allocator@U?$pair@$$CBHPAVTUnionInfo@@@std@@@3@$0A@@std@@@std@@@std@@QBE_NABV01@@Z ENDP ; std::_Tree_const_iterator<std::_Tree_val<std::_Tmap_traits<int,TUnionInfo *,std::less<int>,std::allocator<std::pair<int const ,TUnionInfo *> >,0> > >::operator==
_TEXT	ENDS
PUBLIC	?_Mynode@?$_Tree_unchecked_const_iterator@V?$_Tree_val@V?$_Tmap_traits@HPAVTUnionInfo@@U?$less@H@std@@V?$allocator@U?$pair@$$CBHPAVTUnionInfo@@@std@@@3@$0A@@std@@@std@@U_Iterator_base0@2@@std@@QBEPAU_Node@?$_Tree_nod@V?$_Tmap_traits@HPAVTUnionInfo@@U?$less@H@std@@V?$allocator@U?$pair@$$CBHPAVTUnionInfo@@@std@@@3@$0A@@std@@@2@XZ ; std::_Tree_unchecked_const_iterator<std::_Tree_val<std::_Tmap_traits<int,TUnionInfo *,std::less<int>,std::allocator<std::pair<int const ,TUnionInfo *> >,0> >,std::_Iterator_base0>::_Mynode
; Function compile flags: /Ogtp
;	COMDAT ?_Mynode@?$_Tree_unchecked_const_iterator@V?$_Tree_val@V?$_Tmap_traits@HPAVTUnionInfo@@U?$less@H@std@@V?$allocator@U?$pair@$$CBHPAVTUnionInfo@@@std@@@3@$0A@@std@@@std@@U_Iterator_base0@2@@std@@QBEPAU_Node@?$_Tree_nod@V?$_Tmap_traits@HPAVTUnionInfo@@U?$less@H@std@@V?$allocator@U?$pair@$$CBHPAVTUnionInfo@@@std@@@3@$0A@@std@@@2@XZ
_TEXT	SEGMENT
?_Mynode@?$_Tree_unchecked_const_iterator@V?$_Tree_val@V?$_Tmap_traits@HPAVTUnionInfo@@U?$less@H@std@@V?$allocator@U?$pair@$$CBHPAVTUnionInfo@@@std@@@3@$0A@@std@@@std@@U_Iterator_base0@2@@std@@QBEPAU_Node@?$_Tree_nod@V?$_Tmap_traits@HPAVTUnionInfo@@U?$less@H@std@@V?$allocator@U?$pair@$$CBHPAVTUnionInfo@@@std@@@3@$0A@@std@@@2@XZ PROC ; std::_Tree_unchecked_const_iterator<std::_Tree_val<std::_Tmap_traits<int,TUnionInfo *,std::less<int>,std::allocator<std::pair<int const ,TUnionInfo *> >,0> >,std::_Iterator_base0>::_Mynode, COMDAT
; _this$ = ecx

; 122  : 		return (_Ptr);

  00000	8b 01		 mov	 eax, DWORD PTR [ecx]

; 123  : 		}

  00002	c3		 ret	 0
?_Mynode@?$_Tree_unchecked_const_iterator@V?$_Tree_val@V?$_Tmap_traits@HPAVTUnionInfo@@U?$less@H@std@@V?$allocator@U?$pair@$$CBHPAVTUnionInfo@@@std@@@3@$0A@@std@@@std@@U_Iterator_base0@2@@std@@QBEPAU_Node@?$_Tree_nod@V?$_Tmap_traits@HPAVTUnionInfo@@U?$less@H@std@@V?$allocator@U?$pair@$$CBHPAVTUnionInfo@@@std@@@3@$0A@@std@@@2@XZ ENDP ; std::_Tree_unchecked_const_iterator<std::_Tree_val<std::_Tmap_traits<int,TUnionInfo *,std::less<int>,std::allocator<std::pair<int const ,TUnionInfo *> >,0> >,std::_Iterator_base0>::_Mynode
_TEXT	ENDS
PUBLIC	?capacity@?$vector@HV?$allocator@H@std@@@std@@QBEIXZ ; std::vector<int,std::allocator<int> >::capacity
; Function compile flags: /Ogtp
; File c:\program files (x86)\microsoft visual studio 10.0\vc\include\vector
;	COMDAT ?capacity@?$vector@HV?$allocator@H@std@@@std@@QBEIXZ
_TEXT	SEGMENT
?capacity@?$vector@HV?$allocator@H@std@@@std@@QBEIXZ PROC ; std::vector<int,std::allocator<int> >::capacity, COMDAT
; _this$ = ecx

; 777  : 		return (this->_Myend - this->_Myfirst);

  00000	8b 41 08	 mov	 eax, DWORD PTR [ecx+8]
  00003	2b 01		 sub	 eax, DWORD PTR [ecx]
  00005	c1 f8 02	 sar	 eax, 2

; 778  : 		}

  00008	c3		 ret	 0
?capacity@?$vector@HV?$allocator@H@std@@@std@@QBEIXZ ENDP ; std::vector<int,std::allocator<int> >::capacity
_TEXT	ENDS
PUBLIC	??_C@_0BD@OLBABOEK@vector?$DMT?$DO?5too?5long?$AA@ ; `string'
PUBLIC	?_Xlen@?$vector@HV?$allocator@H@std@@@std@@IBEXXZ ; std::vector<int,std::allocator<int> >::_Xlen
EXTRN	?_Xlength_error@std@@YAXPBD@Z:PROC		; std::_Xlength_error
;	COMDAT ??_C@_0BD@OLBABOEK@vector?$DMT?$DO?5too?5long?$AA@
CONST	SEGMENT
??_C@_0BD@OLBABOEK@vector?$DMT?$DO?5too?5long?$AA@ DB 'vector<T> too long'
	DB	00H						; `string'
; Function compile flags: /Ogtp
CONST	ENDS
;	COMDAT ?_Xlen@?$vector@HV?$allocator@H@std@@@std@@IBEXXZ
_TEXT	SEGMENT
?_Xlen@?$vector@HV?$allocator@H@std@@@std@@IBEXXZ PROC	; std::vector<int,std::allocator<int> >::_Xlen, COMDAT
; _this$ = ecx

; 1427 : 		_Xlength_error("vector<T> too long");

  00000	68 00 00 00 00	 push	 OFFSET ??_C@_0BD@OLBABOEK@vector?$DMT?$DO?5too?5long?$AA@
  00005	e8 00 00 00 00	 call	 ?_Xlength_error@std@@YAXPBD@Z ; std::_Xlength_error
$LN4@Xlen:
$LN3@Xlen:
  0000a	cc		 int	 3
?_Xlen@?$vector@HV?$allocator@H@std@@@std@@IBEXXZ ENDP	; std::vector<int,std::allocator<int> >::_Xlen
_TEXT	ENDS
PUBLIC	?_Isnil@?$_Tree_val@V?$_Tmap_traits@HPAVTUnionInfo@@U?$less@H@std@@V?$allocator@U?$pair@$$CBHPAVTUnionInfo@@@std@@@3@$0A@@std@@@std@@SAAADPAU_Node@?$_Tree_nod@V?$_Tmap_traits@HPAVTUnionInfo@@U?$less@H@std@@V?$allocator@U?$pair@$$CBHPAVTUnionInfo@@@std@@@3@$0A@@std@@@2@@Z ; std::_Tree_val<std::_Tmap_traits<int,TUnionInfo *,std::less<int>,std::allocator<std::pair<int const ,TUnionInfo *> >,0> >::_Isnil
; Function compile flags: /Ogtp
; File c:\program files (x86)\microsoft visual studio 10.0\vc\include\xtree
;	COMDAT ?_Isnil@?$_Tree_val@V?$_Tmap_traits@HPAVTUnionInfo@@U?$less@H@std@@V?$allocator@U?$pair@$$CBHPAVTUnionInfo@@@std@@@3@$0A@@std@@@std@@SAAADPAU_Node@?$_Tree_nod@V?$_Tmap_traits@HPAVTUnionInfo@@U?$less@H@std@@V?$allocator@U?$pair@$$CBHPAVTUnionInfo@@@std@@@3@$0A@@std@@@2@@Z
_TEXT	SEGMENT
__Pnode$ = 8						; size = 4
?_Isnil@?$_Tree_val@V?$_Tmap_traits@HPAVTUnionInfo@@U?$less@H@std@@V?$allocator@U?$pair@$$CBHPAVTUnionInfo@@@std@@@3@$0A@@std@@@std@@SAAADPAU_Node@?$_Tree_nod@V?$_Tmap_traits@HPAVTUnionInfo@@U?$less@H@std@@V?$allocator@U?$pair@$$CBHPAVTUnionInfo@@@std@@@3@$0A@@std@@@2@@Z PROC ; std::_Tree_val<std::_Tmap_traits<int,TUnionInfo *,std::less<int>,std::allocator<std::pair<int const ,TUnionInfo *> >,0> >::_Isnil, COMDAT

; 611  : 		{	// return reference to nil flag in node

  00000	55		 push	 ebp
  00001	8b ec		 mov	 ebp, esp

; 612  : 		return ((char&)(*_Pnode)._Isnil);

  00003	8b 45 08	 mov	 eax, DWORD PTR __Pnode$[ebp]
  00006	83 c0 15	 add	 eax, 21			; 00000015H

; 613  : 		}

  00009	5d		 pop	 ebp
  0000a	c3		 ret	 0
?_Isnil@?$_Tree_val@V?$_Tmap_traits@HPAVTUnionInfo@@U?$less@H@std@@V?$allocator@U?$pair@$$CBHPAVTUnionInfo@@@std@@@3@$0A@@std@@@std@@SAAADPAU_Node@?$_Tree_nod@V?$_Tmap_traits@HPAVTUnionInfo@@U?$less@H@std@@V?$allocator@U?$pair@$$CBHPAVTUnionInfo@@@std@@@3@$0A@@std@@@2@@Z ENDP ; std::_Tree_val<std::_Tmap_traits<int,TUnionInfo *,std::less<int>,std::allocator<std::pair<int const ,TUnionInfo *> >,0> >::_Isnil
_TEXT	ENDS
PUBLIC	?_Left@?$_Tree_val@V?$_Tmap_traits@HPAVTUnionInfo@@U?$less@H@std@@V?$allocator@U?$pair@$$CBHPAVTUnionInfo@@@std@@@3@$0A@@std@@@std@@SAAAPAU_Node@?$_Tree_nod@V?$_Tmap_traits@HPAVTUnionInfo@@U?$less@H@std@@V?$allocator@U?$pair@$$CBHPAVTUnionInfo@@@std@@@3@$0A@@std@@@2@PAU342@@Z ; std::_Tree_val<std::_Tmap_traits<int,TUnionInfo *,std::less<int>,std::allocator<std::pair<int const ,TUnionInfo *> >,0> >::_Left
; Function compile flags: /Ogtp
;	COMDAT ?_Left@?$_Tree_val@V?$_Tmap_traits@HPAVTUnionInfo@@U?$less@H@std@@V?$allocator@U?$pair@$$CBHPAVTUnionInfo@@@std@@@3@$0A@@std@@@std@@SAAAPAU_Node@?$_Tree_nod@V?$_Tmap_traits@HPAVTUnionInfo@@U?$less@H@std@@V?$allocator@U?$pair@$$CBHPAVTUnionInfo@@@std@@@3@$0A@@std@@@2@PAU342@@Z
_TEXT	SEGMENT
__Pnode$ = 8						; size = 4
?_Left@?$_Tree_val@V?$_Tmap_traits@HPAVTUnionInfo@@U?$less@H@std@@V?$allocator@U?$pair@$$CBHPAVTUnionInfo@@@std@@@3@$0A@@std@@@std@@SAAAPAU_Node@?$_Tree_nod@V?$_Tmap_traits@HPAVTUnionInfo@@U?$less@H@std@@V?$allocator@U?$pair@$$CBHPAVTUnionInfo@@@std@@@3@$0A@@std@@@2@PAU342@@Z PROC ; std::_Tree_val<std::_Tmap_traits<int,TUnionInfo *,std::less<int>,std::allocator<std::pair<int const ,TUnionInfo *> >,0> >::_Left, COMDAT

; 621  : 		{	// return reference to left pointer in node

  00000	55		 push	 ebp
  00001	8b ec		 mov	 ebp, esp

; 622  : 		return ((_Nodepref)(*_Pnode)._Left);

  00003	8b 45 08	 mov	 eax, DWORD PTR __Pnode$[ebp]

; 623  : 		}

  00006	5d		 pop	 ebp
  00007	c3		 ret	 0
?_Left@?$_Tree_val@V?$_Tmap_traits@HPAVTUnionInfo@@U?$less@H@std@@V?$allocator@U?$pair@$$CBHPAVTUnionInfo@@@std@@@3@$0A@@std@@@std@@SAAAPAU_Node@?$_Tree_nod@V?$_Tmap_traits@HPAVTUnionInfo@@U?$less@H@std@@V?$allocator@U?$pair@$$CBHPAVTUnionInfo@@@std@@@3@$0A@@std@@@2@PAU342@@Z ENDP ; std::_Tree_val<std::_Tmap_traits<int,TUnionInfo *,std::less<int>,std::allocator<std::pair<int const ,TUnionInfo *> >,0> >::_Left
_TEXT	ENDS
PUBLIC	?_Parent@?$_Tree_val@V?$_Tmap_traits@HPAVTUnionInfo@@U?$less@H@std@@V?$allocator@U?$pair@$$CBHPAVTUnionInfo@@@std@@@3@$0A@@std@@@std@@SAAAPAU_Node@?$_Tree_nod@V?$_Tmap_traits@HPAVTUnionInfo@@U?$less@H@std@@V?$allocator@U?$pair@$$CBHPAVTUnionInfo@@@std@@@3@$0A@@std@@@2@PAU342@@Z ; std::_Tree_val<std::_Tmap_traits<int,TUnionInfo *,std::less<int>,std::allocator<std::pair<int const ,TUnionInfo *> >,0> >::_Parent
; Function compile flags: /Ogtp
;	COMDAT ?_Parent@?$_Tree_val@V?$_Tmap_traits@HPAVTUnionInfo@@U?$less@H@std@@V?$allocator@U?$pair@$$CBHPAVTUnionInfo@@@std@@@3@$0A@@std@@@std@@SAAAPAU_Node@?$_Tree_nod@V?$_Tmap_traits@HPAVTUnionInfo@@U?$less@H@std@@V?$allocator@U?$pair@$$CBHPAVTUnionInfo@@@std@@@3@$0A@@std@@@2@PAU342@@Z
_TEXT	SEGMENT
__Pnode$ = 8						; size = 4
?_Parent@?$_Tree_val@V?$_Tmap_traits@HPAVTUnionInfo@@U?$less@H@std@@V?$allocator@U?$pair@$$CBHPAVTUnionInfo@@@std@@@3@$0A@@std@@@std@@SAAAPAU_Node@?$_Tree_nod@V?$_Tmap_traits@HPAVTUnionInfo@@U?$less@H@std@@V?$allocator@U?$pair@$$CBHPAVTUnionInfo@@@std@@@3@$0A@@std@@@2@PAU342@@Z PROC ; std::_Tree_val<std::_Tmap_traits<int,TUnionInfo *,std::less<int>,std::allocator<std::pair<int const ,TUnionInfo *> >,0> >::_Parent, COMDAT

; 626  : 		{	// return reference to parent pointer in node

  00000	55		 push	 ebp
  00001	8b ec		 mov	 ebp, esp

; 627  : 		return ((_Nodepref)(*_Pnode)._Parent);

  00003	8b 45 08	 mov	 eax, DWORD PTR __Pnode$[ebp]
  00006	83 c0 04	 add	 eax, 4

; 628  : 		}

  00009	5d		 pop	 ebp
  0000a	c3		 ret	 0
?_Parent@?$_Tree_val@V?$_Tmap_traits@HPAVTUnionInfo@@U?$less@H@std@@V?$allocator@U?$pair@$$CBHPAVTUnionInfo@@@std@@@3@$0A@@std@@@std@@SAAAPAU_Node@?$_Tree_nod@V?$_Tmap_traits@HPAVTUnionInfo@@U?$less@H@std@@V?$allocator@U?$pair@$$CBHPAVTUnionInfo@@@std@@@3@$0A@@std@@@2@PAU342@@Z ENDP ; std::_Tree_val<std::_Tmap_traits<int,TUnionInfo *,std::less<int>,std::allocator<std::pair<int const ,TUnionInfo *> >,0> >::_Parent
_TEXT	ENDS
PUBLIC	?_Right@?$_Tree_val@V?$_Tmap_traits@HPAVTUnionInfo@@U?$less@H@std@@V?$allocator@U?$pair@$$CBHPAVTUnionInfo@@@std@@@3@$0A@@std@@@std@@SAAAPAU_Node@?$_Tree_nod@V?$_Tmap_traits@HPAVTUnionInfo@@U?$less@H@std@@V?$allocator@U?$pair@$$CBHPAVTUnionInfo@@@std@@@3@$0A@@std@@@2@PAU342@@Z ; std::_Tree_val<std::_Tmap_traits<int,TUnionInfo *,std::less<int>,std::allocator<std::pair<int const ,TUnionInfo *> >,0> >::_Right
; Function compile flags: /Ogtp
;	COMDAT ?_Right@?$_Tree_val@V?$_Tmap_traits@HPAVTUnionInfo@@U?$less@H@std@@V?$allocator@U?$pair@$$CBHPAVTUnionInfo@@@std@@@3@$0A@@std@@@std@@SAAAPAU_Node@?$_Tree_nod@V?$_Tmap_traits@HPAVTUnionInfo@@U?$less@H@std@@V?$allocator@U?$pair@$$CBHPAVTUnionInfo@@@std@@@3@$0A@@std@@@2@PAU342@@Z
_TEXT	SEGMENT
__Pnode$ = 8						; size = 4
?_Right@?$_Tree_val@V?$_Tmap_traits@HPAVTUnionInfo@@U?$less@H@std@@V?$allocator@U?$pair@$$CBHPAVTUnionInfo@@@std@@@3@$0A@@std@@@std@@SAAAPAU_Node@?$_Tree_nod@V?$_Tmap_traits@HPAVTUnionInfo@@U?$less@H@std@@V?$allocator@U?$pair@$$CBHPAVTUnionInfo@@@std@@@3@$0A@@std@@@2@PAU342@@Z PROC ; std::_Tree_val<std::_Tmap_traits<int,TUnionInfo *,std::less<int>,std::allocator<std::pair<int const ,TUnionInfo *> >,0> >::_Right, COMDAT

; 631  : 		{	// return reference to right pointer in node

  00000	55		 push	 ebp
  00001	8b ec		 mov	 ebp, esp

; 632  : 		return ((_Nodepref)(*_Pnode)._Right);

  00003	8b 45 08	 mov	 eax, DWORD PTR __Pnode$[ebp]
  00006	83 c0 08	 add	 eax, 8

; 633  : 		}

  00009	5d		 pop	 ebp
  0000a	c3		 ret	 0
?_Right@?$_Tree_val@V?$_Tmap_traits@HPAVTUnionInfo@@U?$less@H@std@@V?$allocator@U?$pair@$$CBHPAVTUnionInfo@@@std@@@3@$0A@@std@@@std@@SAAAPAU_Node@?$_Tree_nod@V?$_Tmap_traits@HPAVTUnionInfo@@U?$less@H@std@@V?$allocator@U?$pair@$$CBHPAVTUnionInfo@@@std@@@3@$0A@@std@@@2@PAU342@@Z ENDP ; std::_Tree_val<std::_Tmap_traits<int,TUnionInfo *,std::less<int>,std::allocator<std::pair<int const ,TUnionInfo *> >,0> >::_Right
_TEXT	ENDS
PUBLIC	?_Myval@?$_Tree_val@V?$_Tmap_traits@HPAVTUnionInfo@@U?$less@H@std@@V?$allocator@U?$pair@$$CBHPAVTUnionInfo@@@std@@@3@$0A@@std@@@std@@SAAAU?$pair@$$CBHPAVTUnionInfo@@@2@PAU_Node@?$_Tree_nod@V?$_Tmap_traits@HPAVTUnionInfo@@U?$less@H@std@@V?$allocator@U?$pair@$$CBHPAVTUnionInfo@@@std@@@3@$0A@@std@@@2@@Z ; std::_Tree_val<std::_Tmap_traits<int,TUnionInfo *,std::less<int>,std::allocator<std::pair<int const ,TUnionInfo *> >,0> >::_Myval
; Function compile flags: /Ogtp
;	COMDAT ?_Myval@?$_Tree_val@V?$_Tmap_traits@HPAVTUnionInfo@@U?$less@H@std@@V?$allocator@U?$pair@$$CBHPAVTUnionInfo@@@std@@@3@$0A@@std@@@std@@SAAAU?$pair@$$CBHPAVTUnionInfo@@@2@PAU_Node@?$_Tree_nod@V?$_Tmap_traits@HPAVTUnionInfo@@U?$less@H@std@@V?$allocator@U?$pair@$$CBHPAVTUnionInfo@@@std@@@3@$0A@@std@@@2@@Z
_TEXT	SEGMENT
__Pnode$ = 8						; size = 4
?_Myval@?$_Tree_val@V?$_Tmap_traits@HPAVTUnionInfo@@U?$less@H@std@@V?$allocator@U?$pair@$$CBHPAVTUnionInfo@@@std@@@3@$0A@@std@@@std@@SAAAU?$pair@$$CBHPAVTUnionInfo@@@2@PAU_Node@?$_Tree_nod@V?$_Tmap_traits@HPAVTUnionInfo@@U?$less@H@std@@V?$allocator@U?$pair@$$CBHPAVTUnionInfo@@@std@@@3@$0A@@std@@@2@@Z PROC ; std::_Tree_val<std::_Tmap_traits<int,TUnionInfo *,std::less<int>,std::allocator<std::pair<int const ,TUnionInfo *> >,0> >::_Myval, COMDAT

; 636  : 		{	// return reference to value in node

  00000	55		 push	 ebp
  00001	8b ec		 mov	 ebp, esp

; 637  : 		return ((reference)(*_Pnode)._Myval);

  00003	8b 45 08	 mov	 eax, DWORD PTR __Pnode$[ebp]
  00006	83 c0 0c	 add	 eax, 12			; 0000000cH

; 638  : 		}

  00009	5d		 pop	 ebp
  0000a	c3		 ret	 0
?_Myval@?$_Tree_val@V?$_Tmap_traits@HPAVTUnionInfo@@U?$less@H@std@@V?$allocator@U?$pair@$$CBHPAVTUnionInfo@@@std@@@3@$0A@@std@@@std@@SAAAU?$pair@$$CBHPAVTUnionInfo@@@2@PAU_Node@?$_Tree_nod@V?$_Tmap_traits@HPAVTUnionInfo@@U?$less@H@std@@V?$allocator@U?$pair@$$CBHPAVTUnionInfo@@@std@@@3@$0A@@std@@@2@@Z ENDP ; std::_Tree_val<std::_Tmap_traits<int,TUnionInfo *,std::less<int>,std::allocator<std::pair<int const ,TUnionInfo *> >,0> >::_Myval
_TEXT	ENDS
PUBLIC	??0?$allocator@U?$pair@$$CBHPAVTUnionInfo@@@std@@@std@@QAE@ABV01@@Z ; std::allocator<std::pair<int const ,TUnionInfo *> >::allocator<std::pair<int const ,TUnionInfo *> >
; Function compile flags: /Ogtp
; File c:\program files (x86)\microsoft visual studio 10.0\vc\include\xmemory
;	COMDAT ??0?$allocator@U?$pair@$$CBHPAVTUnionInfo@@@std@@@std@@QAE@ABV01@@Z
_TEXT	SEGMENT
___formal$ = 8						; size = 4
??0?$allocator@U?$pair@$$CBHPAVTUnionInfo@@@std@@@std@@QAE@ABV01@@Z PROC ; std::allocator<std::pair<int const ,TUnionInfo *> >::allocator<std::pair<int const ,TUnionInfo *> >, COMDAT
; _this$ = ecx

; 165  : 	_ALLOCATOR(const _ALLOCATOR<_Ty>&) _THROW0()

  00000	8b c1		 mov	 eax, ecx

; 166  : 		{	// construct by copying (do nothing)
; 167  : 		}

  00002	c2 04 00	 ret	 4
??0?$allocator@U?$pair@$$CBHPAVTUnionInfo@@@std@@@std@@QAE@ABV01@@Z ENDP ; std::allocator<std::pair<int const ,TUnionInfo *> >::allocator<std::pair<int const ,TUnionInfo *> >
_TEXT	ENDS
PUBLIC	?deallocate@?$allocator@U_Node@?$_Tree_nod@V?$_Tmap_traits@HPAVTUnionInfo@@U?$less@H@std@@V?$allocator@U?$pair@$$CBHPAVTUnionInfo@@@std@@@3@$0A@@std@@@std@@@std@@QAEXPAU_Node@?$_Tree_nod@V?$_Tmap_traits@HPAVTUnionInfo@@U?$less@H@std@@V?$allocator@U?$pair@$$CBHPAVTUnionInfo@@@std@@@3@$0A@@std@@@2@I@Z ; std::allocator<std::_Tree_nod<std::_Tmap_traits<int,TUnionInfo *,std::less<int>,std::allocator<std::pair<int const ,TUnionInfo *> >,0> >::_Node>::deallocate
EXTRN	??3@YAXPAX@Z:PROC				; operator delete
; Function compile flags: /Ogtp
;	COMDAT ?deallocate@?$allocator@U_Node@?$_Tree_nod@V?$_Tmap_traits@HPAVTUnionInfo@@U?$less@H@std@@V?$allocator@U?$pair@$$CBHPAVTUnionInfo@@@std@@@3@$0A@@std@@@std@@@std@@QAEXPAU_Node@?$_Tree_nod@V?$_Tmap_traits@HPAVTUnionInfo@@U?$less@H@std@@V?$allocator@U?$pair@$$CBHPAVTUnionInfo@@@std@@@3@$0A@@std@@@2@I@Z
_TEXT	SEGMENT
__Ptr$ = 8						; size = 4
___formal$ = 12						; size = 4
?deallocate@?$allocator@U_Node@?$_Tree_nod@V?$_Tmap_traits@HPAVTUnionInfo@@U?$less@H@std@@V?$allocator@U?$pair@$$CBHPAVTUnionInfo@@@std@@@3@$0A@@std@@@std@@@std@@QAEXPAU_Node@?$_Tree_nod@V?$_Tmap_traits@HPAVTUnionInfo@@U?$less@H@std@@V?$allocator@U?$pair@$$CBHPAVTUnionInfo@@@std@@@3@$0A@@std@@@2@I@Z PROC ; std::allocator<std::_Tree_nod<std::_Tmap_traits<int,TUnionInfo *,std::less<int>,std::allocator<std::pair<int const ,TUnionInfo *> >,0> >::_Node>::deallocate, COMDAT
; _this$ = ecx

; 181  : 		{	// deallocate object at _Ptr, ignore size

  00000	55		 push	 ebp
  00001	8b ec		 mov	 ebp, esp

; 182  : 		::operator delete(_Ptr);

  00003	8b 45 08	 mov	 eax, DWORD PTR __Ptr$[ebp]
  00006	50		 push	 eax
  00007	e8 00 00 00 00	 call	 ??3@YAXPAX@Z		; operator delete
  0000c	83 c4 04	 add	 esp, 4

; 183  : 		}

  0000f	5d		 pop	 ebp
  00010	c2 08 00	 ret	 8
?deallocate@?$allocator@U_Node@?$_Tree_nod@V?$_Tmap_traits@HPAVTUnionInfo@@U?$less@H@std@@V?$allocator@U?$pair@$$CBHPAVTUnionInfo@@@std@@@3@$0A@@std@@@std@@@std@@QAEXPAU_Node@?$_Tree_nod@V?$_Tmap_traits@HPAVTUnionInfo@@U?$less@H@std@@V?$allocator@U?$pair@$$CBHPAVTUnionInfo@@@std@@@3@$0A@@std@@@2@I@Z ENDP ; std::allocator<std::_Tree_nod<std::_Tmap_traits<int,TUnionInfo *,std::less<int>,std::allocator<std::pair<int const ,TUnionInfo *> >,0> >::_Node>::deallocate
_TEXT	ENDS
PUBLIC	??0?$_Tree_unchecked_const_iterator@V?$_Tree_val@V?$_Tmap_traits@HPAVTUnionInfo@@U?$less@H@std@@V?$allocator@U?$pair@$$CBHPAVTUnionInfo@@@std@@@3@$0A@@std@@@std@@U_Iterator_base0@2@@std@@QAE@XZ ; std::_Tree_unchecked_const_iterator<std::_Tree_val<std::_Tmap_traits<int,TUnionInfo *,std::less<int>,std::allocator<std::pair<int const ,TUnionInfo *> >,0> >,std::_Iterator_base0>::_Tree_unchecked_const_iterator<std::_Tree_val<std::_Tmap_traits<int,TUnionInfo *,std::less<int>,std::allocator<std::pair<int const ,TUnionInfo *> >,0> >,std::_Iterator_base0>
; Function compile flags: /Ogtp
; File c:\program files (x86)\microsoft visual studio 10.0\vc\include\xtree
;	COMDAT ??0?$_Tree_unchecked_const_iterator@V?$_Tree_val@V?$_Tmap_traits@HPAVTUnionInfo@@U?$less@H@std@@V?$allocator@U?$pair@$$CBHPAVTUnionInfo@@@std@@@3@$0A@@std@@@std@@U_Iterator_base0@2@@std@@QAE@XZ
_TEXT	SEGMENT
??0?$_Tree_unchecked_const_iterator@V?$_Tree_val@V?$_Tmap_traits@HPAVTUnionInfo@@U?$less@H@std@@V?$allocator@U?$pair@$$CBHPAVTUnionInfo@@@std@@@3@$0A@@std@@@std@@U_Iterator_base0@2@@std@@QAE@XZ PROC ; std::_Tree_unchecked_const_iterator<std::_Tree_val<std::_Tmap_traits<int,TUnionInfo *,std::less<int>,std::allocator<std::pair<int const ,TUnionInfo *> >,0> >,std::_Iterator_base0>::_Tree_unchecked_const_iterator<std::_Tree_val<std::_Tmap_traits<int,TUnionInfo *,std::less<int>,std::allocator<std::pair<int const ,TUnionInfo *> >,0> >,std::_Iterator_base0>, COMDAT
; _this$ = ecx

; 38   : 		{	// construct with null node pointer

  00000	8b c1		 mov	 eax, ecx
  00002	c7 00 00 00 00
	00		 mov	 DWORD PTR [eax], 0

; 39   : 		}

  00008	c3		 ret	 0
??0?$_Tree_unchecked_const_iterator@V?$_Tree_val@V?$_Tmap_traits@HPAVTUnionInfo@@U?$less@H@std@@V?$allocator@U?$pair@$$CBHPAVTUnionInfo@@@std@@@3@$0A@@std@@@std@@U_Iterator_base0@2@@std@@QAE@XZ ENDP ; std::_Tree_unchecked_const_iterator<std::_Tree_val<std::_Tmap_traits<int,TUnionInfo *,std::less<int>,std::allocator<std::pair<int const ,TUnionInfo *> >,0> >,std::_Iterator_base0>::_Tree_unchecked_const_iterator<std::_Tree_val<std::_Tmap_traits<int,TUnionInfo *,std::less<int>,std::allocator<std::pair<int const ,TUnionInfo *> >,0> >,std::_Iterator_base0>
_TEXT	ENDS
PUBLIC	?deallocate@?$allocator@H@std@@QAEXPAHI@Z	; std::allocator<int>::deallocate
; Function compile flags: /Ogtp
; File c:\program files (x86)\microsoft visual studio 10.0\vc\include\xmemory
;	COMDAT ?deallocate@?$allocator@H@std@@QAEXPAHI@Z
_TEXT	SEGMENT
__Ptr$ = 8						; size = 4
___formal$ = 12						; size = 4
?deallocate@?$allocator@H@std@@QAEXPAHI@Z PROC		; std::allocator<int>::deallocate, COMDAT
; _this$ = ecx

; 181  : 		{	// deallocate object at _Ptr, ignore size

  00000	55		 push	 ebp
  00001	8b ec		 mov	 ebp, esp

; 182  : 		::operator delete(_Ptr);

  00003	8b 45 08	 mov	 eax, DWORD PTR __Ptr$[ebp]
  00006	50		 push	 eax
  00007	e8 00 00 00 00	 call	 ??3@YAXPAX@Z		; operator delete
  0000c	83 c4 04	 add	 esp, 4

; 183  : 		}

  0000f	5d		 pop	 ebp
  00010	c2 08 00	 ret	 8
?deallocate@?$allocator@H@std@@QAEXPAHI@Z ENDP		; std::allocator<int>::deallocate
_TEXT	ENDS
PUBLIC	?max_size@?$allocator@H@std@@QBEIXZ		; std::allocator<int>::max_size
; Function compile flags: /Ogtp
;	COMDAT ?max_size@?$allocator@H@std@@QBEIXZ
_TEXT	SEGMENT
?max_size@?$allocator@H@std@@QBEIXZ PROC		; std::allocator<int>::max_size, COMDAT
; _this$ = ecx

; 218  : 		_SIZT _Count = (_SIZT)(-1) / sizeof (_Ty);
; 219  : 		return (0 < _Count ? _Count : 1);

  00000	b8 ff ff ff 3f	 mov	 eax, 1073741823		; 3fffffffH

; 220  : 		}

  00005	c3		 ret	 0
?max_size@?$allocator@H@std@@QBEIXZ ENDP		; std::allocator<int>::max_size
_TEXT	ENDS
PUBLIC	?_Color@?$_Tree_val@V?$_Tmap_traits@HPAVTUnionInfo@@U?$less@H@std@@V?$allocator@U?$pair@$$CBHPAVTUnionInfo@@@std@@@3@$0A@@std@@@std@@SAAADPAU_Node@?$_Tree_nod@V?$_Tmap_traits@HPAVTUnionInfo@@U?$less@H@std@@V?$allocator@U?$pair@$$CBHPAVTUnionInfo@@@std@@@3@$0A@@std@@@2@@Z ; std::_Tree_val<std::_Tmap_traits<int,TUnionInfo *,std::less<int>,std::allocator<std::pair<int const ,TUnionInfo *> >,0> >::_Color
; Function compile flags: /Ogtp
; File c:\program files (x86)\microsoft visual studio 10.0\vc\include\xtree
;	COMDAT ?_Color@?$_Tree_val@V?$_Tmap_traits@HPAVTUnionInfo@@U?$less@H@std@@V?$allocator@U?$pair@$$CBHPAVTUnionInfo@@@std@@@3@$0A@@std@@@std@@SAAADPAU_Node@?$_Tree_nod@V?$_Tmap_traits@HPAVTUnionInfo@@U?$less@H@std@@V?$allocator@U?$pair@$$CBHPAVTUnionInfo@@@std@@@3@$0A@@std@@@2@@Z
_TEXT	SEGMENT
__Pnode$ = 8						; size = 4
?_Color@?$_Tree_val@V?$_Tmap_traits@HPAVTUnionInfo@@U?$less@H@std@@V?$allocator@U?$pair@$$CBHPAVTUnionInfo@@@std@@@3@$0A@@std@@@std@@SAAADPAU_Node@?$_Tree_nod@V?$_Tmap_traits@HPAVTUnionInfo@@U?$less@H@std@@V?$allocator@U?$pair@$$CBHPAVTUnionInfo@@@std@@@3@$0A@@std@@@2@@Z PROC ; std::_Tree_val<std::_Tmap_traits<int,TUnionInfo *,std::less<int>,std::allocator<std::pair<int const ,TUnionInfo *> >,0> >::_Color, COMDAT

; 606  : 		{	// return reference to color in node

  00000	55		 push	 ebp
  00001	8b ec		 mov	 ebp, esp

; 607  : 		return ((char&)(*_Pnode)._Color);

  00003	8b 45 08	 mov	 eax, DWORD PTR __Pnode$[ebp]
  00006	83 c0 14	 add	 eax, 20			; 00000014H

; 608  : 		}

  00009	5d		 pop	 ebp
  0000a	c3		 ret	 0
?_Color@?$_Tree_val@V?$_Tmap_traits@HPAVTUnionInfo@@U?$less@H@std@@V?$allocator@U?$pair@$$CBHPAVTUnionInfo@@@std@@@3@$0A@@std@@@std@@SAAADPAU_Node@?$_Tree_nod@V?$_Tmap_traits@HPAVTUnionInfo@@U?$less@H@std@@V?$allocator@U?$pair@$$CBHPAVTUnionInfo@@@std@@@3@$0A@@std@@@2@@Z ENDP ; std::_Tree_val<std::_Tmap_traits<int,TUnionInfo *,std::less<int>,std::allocator<std::pair<int const ,TUnionInfo *> >,0> >::_Color
_TEXT	ENDS
PUBLIC	?_Max@?$_Tree_val@V?$_Tmap_traits@HPAVTUnionInfo@@U?$less@H@std@@V?$allocator@U?$pair@$$CBHPAVTUnionInfo@@@std@@@3@$0A@@std@@@std@@SAPAU_Node@?$_Tree_nod@V?$_Tmap_traits@HPAVTUnionInfo@@U?$less@H@std@@V?$allocator@U?$pair@$$CBHPAVTUnionInfo@@@std@@@3@$0A@@std@@@2@PAU342@@Z ; std::_Tree_val<std::_Tmap_traits<int,TUnionInfo *,std::less<int>,std::allocator<std::pair<int const ,TUnionInfo *> >,0> >::_Max
; Function compile flags: /Ogtp
;	COMDAT ?_Max@?$_Tree_val@V?$_Tmap_traits@HPAVTUnionInfo@@U?$less@H@std@@V?$allocator@U?$pair@$$CBHPAVTUnionInfo@@@std@@@3@$0A@@std@@@std@@SAPAU_Node@?$_Tree_nod@V?$_Tmap_traits@HPAVTUnionInfo@@U?$less@H@std@@V?$allocator@U?$pair@$$CBHPAVTUnionInfo@@@std@@@3@$0A@@std@@@2@PAU342@@Z
_TEXT	SEGMENT
__Pnode$ = 8						; size = 4
?_Max@?$_Tree_val@V?$_Tmap_traits@HPAVTUnionInfo@@U?$less@H@std@@V?$allocator@U?$pair@$$CBHPAVTUnionInfo@@@std@@@3@$0A@@std@@@std@@SAPAU_Node@?$_Tree_nod@V?$_Tmap_traits@HPAVTUnionInfo@@U?$less@H@std@@V?$allocator@U?$pair@$$CBHPAVTUnionInfo@@@std@@@3@$0A@@std@@@2@PAU342@@Z PROC ; std::_Tree_val<std::_Tmap_traits<int,TUnionInfo *,std::less<int>,std::allocator<std::pair<int const ,TUnionInfo *> >,0> >::_Max, COMDAT

; 641  : 		{	// return rightmost node in subtree at _Pnode

  00000	55		 push	 ebp
  00001	8b ec		 mov	 ebp, esp

; 642  : 		while (!_Isnil(_Right(_Pnode)))

  00003	8b 45 08	 mov	 eax, DWORD PTR __Pnode$[ebp]
  00006	8b 48 08	 mov	 ecx, DWORD PTR [eax+8]
  00009	80 79 15 00	 cmp	 BYTE PTR [ecx+21], 0
  0000d	75 0c		 jne	 SHORT $LN1@Max
  0000f	90		 npad	 1
$LL2@Max:

; 643  : 			_Pnode = _Right(_Pnode);

  00010	8b c1		 mov	 eax, ecx
  00012	8b 48 08	 mov	 ecx, DWORD PTR [eax+8]
  00015	80 79 15 00	 cmp	 BYTE PTR [ecx+21], 0
  00019	74 f5		 je	 SHORT $LL2@Max
$LN1@Max:

; 644  : 		return (_Pnode);
; 645  : 		}

  0001b	5d		 pop	 ebp
  0001c	c3		 ret	 0
?_Max@?$_Tree_val@V?$_Tmap_traits@HPAVTUnionInfo@@U?$less@H@std@@V?$allocator@U?$pair@$$CBHPAVTUnionInfo@@@std@@@3@$0A@@std@@@std@@SAPAU_Node@?$_Tree_nod@V?$_Tmap_traits@HPAVTUnionInfo@@U?$less@H@std@@V?$allocator@U?$pair@$$CBHPAVTUnionInfo@@@std@@@3@$0A@@std@@@2@PAU342@@Z ENDP ; std::_Tree_val<std::_Tmap_traits<int,TUnionInfo *,std::less<int>,std::allocator<std::pair<int const ,TUnionInfo *> >,0> >::_Max
_TEXT	ENDS
PUBLIC	?_Min@?$_Tree_val@V?$_Tmap_traits@HPAVTUnionInfo@@U?$less@H@std@@V?$allocator@U?$pair@$$CBHPAVTUnionInfo@@@std@@@3@$0A@@std@@@std@@SAPAU_Node@?$_Tree_nod@V?$_Tmap_traits@HPAVTUnionInfo@@U?$less@H@std@@V?$allocator@U?$pair@$$CBHPAVTUnionInfo@@@std@@@3@$0A@@std@@@2@PAU342@@Z ; std::_Tree_val<std::_Tmap_traits<int,TUnionInfo *,std::less<int>,std::allocator<std::pair<int const ,TUnionInfo *> >,0> >::_Min
; Function compile flags: /Ogtp
;	COMDAT ?_Min@?$_Tree_val@V?$_Tmap_traits@HPAVTUnionInfo@@U?$less@H@std@@V?$allocator@U?$pair@$$CBHPAVTUnionInfo@@@std@@@3@$0A@@std@@@std@@SAPAU_Node@?$_Tree_nod@V?$_Tmap_traits@HPAVTUnionInfo@@U?$less@H@std@@V?$allocator@U?$pair@$$CBHPAVTUnionInfo@@@std@@@3@$0A@@std@@@2@PAU342@@Z
_TEXT	SEGMENT
__Pnode$ = 8						; size = 4
?_Min@?$_Tree_val@V?$_Tmap_traits@HPAVTUnionInfo@@U?$less@H@std@@V?$allocator@U?$pair@$$CBHPAVTUnionInfo@@@std@@@3@$0A@@std@@@std@@SAPAU_Node@?$_Tree_nod@V?$_Tmap_traits@HPAVTUnionInfo@@U?$less@H@std@@V?$allocator@U?$pair@$$CBHPAVTUnionInfo@@@std@@@3@$0A@@std@@@2@PAU342@@Z PROC ; std::_Tree_val<std::_Tmap_traits<int,TUnionInfo *,std::less<int>,std::allocator<std::pair<int const ,TUnionInfo *> >,0> >::_Min, COMDAT

; 648  : 		{	// return leftmost node in subtree at _Pnode

  00000	55		 push	 ebp
  00001	8b ec		 mov	 ebp, esp

; 649  : 		while (!_Isnil(_Left(_Pnode)))

  00003	8b 45 08	 mov	 eax, DWORD PTR __Pnode$[ebp]
  00006	8b 08		 mov	 ecx, DWORD PTR [eax]
  00008	80 79 15 00	 cmp	 BYTE PTR [ecx+21], 0
  0000c	75 0c		 jne	 SHORT $LN1@Min
  0000e	8b ff		 npad	 2
$LL2@Min:

; 650  : 			_Pnode = _Left(_Pnode);

  00010	8b c1		 mov	 eax, ecx
  00012	8b 08		 mov	 ecx, DWORD PTR [eax]
  00014	80 79 15 00	 cmp	 BYTE PTR [ecx+21], 0
  00018	74 f6		 je	 SHORT $LL2@Min
$LN1@Min:

; 651  : 		return (_Pnode);
; 652  : 		}

  0001a	5d		 pop	 ebp
  0001b	c3		 ret	 0
?_Min@?$_Tree_val@V?$_Tmap_traits@HPAVTUnionInfo@@U?$less@H@std@@V?$allocator@U?$pair@$$CBHPAVTUnionInfo@@@std@@@3@$0A@@std@@@std@@SAPAU_Node@?$_Tree_nod@V?$_Tmap_traits@HPAVTUnionInfo@@U?$less@H@std@@V?$allocator@U?$pair@$$CBHPAVTUnionInfo@@@std@@@3@$0A@@std@@@2@PAU342@@Z ENDP ; std::_Tree_val<std::_Tmap_traits<int,TUnionInfo *,std::less<int>,std::allocator<std::pair<int const ,TUnionInfo *> >,0> >::_Min
_TEXT	ENDS
PUBLIC	??0?$_Tmap_traits@HPAVTUnionInfo@@U?$less@H@std@@V?$allocator@U?$pair@$$CBHPAVTUnionInfo@@@std@@@3@$0A@@std@@QAE@U?$less@H@1@@Z ; std::_Tmap_traits<int,TUnionInfo *,std::less<int>,std::allocator<std::pair<int const ,TUnionInfo *> >,0>::_Tmap_traits<int,TUnionInfo *,std::less<int>,std::allocator<std::pair<int const ,TUnionInfo *> >,0>
; Function compile flags: /Ogtp
; File c:\program files (x86)\microsoft visual studio 10.0\vc\include\map
;	COMDAT ??0?$_Tmap_traits@HPAVTUnionInfo@@U?$less@H@std@@V?$allocator@U?$pair@$$CBHPAVTUnionInfo@@@std@@@3@$0A@@std@@QAE@U?$less@H@1@@Z
_TEXT	SEGMENT
__Parg$ = 8						; size = 1
??0?$_Tmap_traits@HPAVTUnionInfo@@U?$less@H@std@@V?$allocator@U?$pair@$$CBHPAVTUnionInfo@@@std@@@3@$0A@@std@@QAE@U?$less@H@1@@Z PROC ; std::_Tmap_traits<int,TUnionInfo *,std::less<int>,std::allocator<std::pair<int const ,TUnionInfo *> >,0>::_Tmap_traits<int,TUnionInfo *,std::less<int>,std::allocator<std::pair<int const ,TUnionInfo *> >,0>, COMDAT
; _this$ = ecx

; 40   : 		{	// construct with specified comparator

  00000	8b c1		 mov	 eax, ecx

; 41   : 		}

  00002	c2 04 00	 ret	 4
??0?$_Tmap_traits@HPAVTUnionInfo@@U?$less@H@std@@V?$allocator@U?$pair@$$CBHPAVTUnionInfo@@@std@@@3@$0A@@std@@QAE@U?$less@H@1@@Z ENDP ; std::_Tmap_traits<int,TUnionInfo *,std::less<int>,std::allocator<std::pair<int const ,TUnionInfo *> >,0>::_Tmap_traits<int,TUnionInfo *,std::less<int>,std::allocator<std::pair<int const ,TUnionInfo *> >,0>
_TEXT	ENDS
PUBLIC	??$addressof@$$CBH@std@@YAPBHABH@Z		; std::addressof<int const >
; Function compile flags: /Ogtp
; File c:\program files (x86)\microsoft visual studio 10.0\vc\include\xmemory
;	COMDAT ??$addressof@$$CBH@std@@YAPBHABH@Z
_TEXT	SEGMENT
__Val$ = 8						; size = 4
??$addressof@$$CBH@std@@YAPBHABH@Z PROC			; std::addressof<int const >, COMDAT

; 110  : 	{	// return address of _Val

  00000	55		 push	 ebp
  00001	8b ec		 mov	 ebp, esp

; 111  : 	return ((_Ty *) &(char&)_Val);

  00003	8b 45 08	 mov	 eax, DWORD PTR __Val$[ebp]

; 112  : 	}

  00006	5d		 pop	 ebp
  00007	c3		 ret	 0
??$addressof@$$CBH@std@@YAPBHABH@Z ENDP			; std::addressof<int const >
_TEXT	ENDS
PUBLIC	??$addressof@U?$pair@$$CBHPAVTUnionInfo@@@std@@@std@@YAPAU?$pair@$$CBHPAVTUnionInfo@@@0@AAU10@@Z ; std::addressof<std::pair<int const ,TUnionInfo *> >
; Function compile flags: /Ogtp
;	COMDAT ??$addressof@U?$pair@$$CBHPAVTUnionInfo@@@std@@@std@@YAPAU?$pair@$$CBHPAVTUnionInfo@@@0@AAU10@@Z
_TEXT	SEGMENT
__Val$ = 8						; size = 4
??$addressof@U?$pair@$$CBHPAVTUnionInfo@@@std@@@std@@YAPAU?$pair@$$CBHPAVTUnionInfo@@@0@AAU10@@Z PROC ; std::addressof<std::pair<int const ,TUnionInfo *> >, COMDAT

; 110  : 	{	// return address of _Val

  00000	55		 push	 ebp
  00001	8b ec		 mov	 ebp, esp

; 111  : 	return ((_Ty *) &(char&)_Val);

  00003	8b 45 08	 mov	 eax, DWORD PTR __Val$[ebp]

; 112  : 	}

  00006	5d		 pop	 ebp
  00007	c3		 ret	 0
??$addressof@U?$pair@$$CBHPAVTUnionInfo@@@std@@@std@@YAPAU?$pair@$$CBHPAVTUnionInfo@@@0@AAU10@@Z ENDP ; std::addressof<std::pair<int const ,TUnionInfo *> >
_TEXT	ENDS
PUBLIC	??$_Kfn@$$CBHPAVTUnionInfo@@@?$_Tmap_traits@HPAVTUnionInfo@@U?$less@H@std@@V?$allocator@U?$pair@$$CBHPAVTUnionInfo@@@std@@@3@$0A@@std@@SAABHABU?$pair@$$CBHPAVTUnionInfo@@@1@@Z ; std::_Tmap_traits<int,TUnionInfo *,std::less<int>,std::allocator<std::pair<int const ,TUnionInfo *> >,0>::_Kfn<int const ,TUnionInfo *>
; Function compile flags: /Ogtp
; File c:\program files (x86)\microsoft visual studio 10.0\vc\include\map
;	COMDAT ??$_Kfn@$$CBHPAVTUnionInfo@@@?$_Tmap_traits@HPAVTUnionInfo@@U?$less@H@std@@V?$allocator@U?$pair@$$CBHPAVTUnionInfo@@@std@@@3@$0A@@std@@SAABHABU?$pair@$$CBHPAVTUnionInfo@@@1@@Z
_TEXT	SEGMENT
__Val$ = 8						; size = 4
??$_Kfn@$$CBHPAVTUnionInfo@@@?$_Tmap_traits@HPAVTUnionInfo@@U?$less@H@std@@V?$allocator@U?$pair@$$CBHPAVTUnionInfo@@@std@@@3@$0A@@std@@SAABHABU?$pair@$$CBHPAVTUnionInfo@@@1@@Z PROC ; std::_Tmap_traits<int,TUnionInfo *,std::less<int>,std::allocator<std::pair<int const ,TUnionInfo *> >,0>::_Kfn<int const ,TUnionInfo *>, COMDAT

; 66   : 		static const _Kty& _Kfn(const _STD pair<_Ty1, _Ty2>& _Val)

  00000	55		 push	 ebp
  00001	8b ec		 mov	 ebp, esp

; 67   : 		{	// extract key from element value
; 68   : 		return (_Val.first);

  00003	8b 45 08	 mov	 eax, DWORD PTR __Val$[ebp]

; 69   : 		}

  00006	5d		 pop	 ebp
  00007	c3		 ret	 0
??$_Kfn@$$CBHPAVTUnionInfo@@@?$_Tmap_traits@HPAVTUnionInfo@@U?$less@H@std@@V?$allocator@U?$pair@$$CBHPAVTUnionInfo@@@std@@@3@$0A@@std@@SAABHABU?$pair@$$CBHPAVTUnionInfo@@@1@@Z ENDP ; std::_Tmap_traits<int,TUnionInfo *,std::less<int>,std::allocator<std::pair<int const ,TUnionInfo *> >,0>::_Kfn<int const ,TUnionInfo *>
_TEXT	ENDS
PUBLIC	??$move@AAPAVTUnionInfo@@@std@@YA$$QAPAVTUnionInfo@@AAPAV1@@Z ; std::move<TUnionInfo * &>
; Function compile flags: /Ogtp
; File c:\program files (x86)\microsoft visual studio 10.0\vc\include\utility
;	COMDAT ??$move@AAPAVTUnionInfo@@@std@@YA$$QAPAVTUnionInfo@@AAPAV1@@Z
_TEXT	SEGMENT
__Arg$ = 8						; size = 4
??$move@AAPAVTUnionInfo@@@std@@YA$$QAPAVTUnionInfo@@AAPAV1@@Z PROC ; std::move<TUnionInfo * &>, COMDAT

; 86   : 	{	// forward _Arg as movable

  00000	55		 push	 ebp
  00001	8b ec		 mov	 ebp, esp

; 87   : 	return ((typename tr1::_Remove_reference<_Ty>::_Type&&)_Arg);

  00003	8b 45 08	 mov	 eax, DWORD PTR __Arg$[ebp]

; 88   : 	}

  00006	5d		 pop	 ebp
  00007	c3		 ret	 0
??$move@AAPAVTUnionInfo@@@std@@YA$$QAPAVTUnionInfo@@AAPAV1@@Z ENDP ; std::move<TUnionInfo * &>
_TEXT	ENDS
PUBLIC	??$?0U?$pair@$$CBHPAVTUnionInfo@@@std@@@?$allocator@U_Node@?$_Tree_nod@V?$_Tmap_traits@HPAVTUnionInfo@@U?$less@H@std@@V?$allocator@U?$pair@$$CBHPAVTUnionInfo@@@std@@@3@$0A@@std@@@std@@@std@@QAE@ABV?$allocator@U?$pair@$$CBHPAVTUnionInfo@@@std@@@1@@Z ; std::allocator<std::_Tree_nod<std::_Tmap_traits<int,TUnionInfo *,std::less<int>,std::allocator<std::pair<int const ,TUnionInfo *> >,0> >::_Node>::allocator<std::_Tree_nod<std::_Tmap_traits<int,TUnionInfo *,std::less<int>,std::allocator<std::pair<int const ,TUnionInfo *> >,0> >::_Node><std::pair<int const ,TUnionInfo *> >
; Function compile flags: /Ogtp
; File c:\program files (x86)\microsoft visual studio 10.0\vc\include\xmemory
;	COMDAT ??$?0U?$pair@$$CBHPAVTUnionInfo@@@std@@@?$allocator@U_Node@?$_Tree_nod@V?$_Tmap_traits@HPAVTUnionInfo@@U?$less@H@std@@V?$allocator@U?$pair@$$CBHPAVTUnionInfo@@@std@@@3@$0A@@std@@@std@@@std@@QAE@ABV?$allocator@U?$pair@$$CBHPAVTUnionInfo@@@std@@@1@@Z
_TEXT	SEGMENT
___formal$ = 8						; size = 4
??$?0U?$pair@$$CBHPAVTUnionInfo@@@std@@@?$allocator@U_Node@?$_Tree_nod@V?$_Tmap_traits@HPAVTUnionInfo@@U?$less@H@std@@V?$allocator@U?$pair@$$CBHPAVTUnionInfo@@@std@@@3@$0A@@std@@@std@@@std@@QAE@ABV?$allocator@U?$pair@$$CBHPAVTUnionInfo@@@std@@@1@@Z PROC ; std::allocator<std::_Tree_nod<std::_Tmap_traits<int,TUnionInfo *,std::less<int>,std::allocator<std::pair<int const ,TUnionInfo *> >,0> >::_Node>::allocator<std::_Tree_nod<std::_Tmap_traits<int,TUnionInfo *,std::less<int>,std::allocator<std::pair<int const ,TUnionInfo *> >,0> >::_Node><std::pair<int const ,TUnionInfo *> >, COMDAT
; _this$ = ecx

; 170  : 		_ALLOCATOR(const _ALLOCATOR<_Other>&) _THROW0()

  00000	8b c1		 mov	 eax, ecx

; 171  : 		{	// construct from a related allocator (do nothing)
; 172  : 		}

  00002	c2 04 00	 ret	 4
??$?0U?$pair@$$CBHPAVTUnionInfo@@@std@@@?$allocator@U_Node@?$_Tree_nod@V?$_Tmap_traits@HPAVTUnionInfo@@U?$less@H@std@@V?$allocator@U?$pair@$$CBHPAVTUnionInfo@@@std@@@3@$0A@@std@@@std@@@std@@QAE@ABV?$allocator@U?$pair@$$CBHPAVTUnionInfo@@@std@@@1@@Z ENDP ; std::allocator<std::_Tree_nod<std::_Tmap_traits<int,TUnionInfo *,std::less<int>,std::allocator<std::pair<int const ,TUnionInfo *> >,0> >::_Node>::allocator<std::_Tree_nod<std::_Tmap_traits<int,TUnionInfo *,std::less<int>,std::allocator<std::pair<int const ,TUnionInfo *> >,0> >::_Node><std::pair<int const ,TUnionInfo *> >
_TEXT	ENDS
PUBLIC	?size@?$_Tree@V?$_Tmap_traits@HPAVTUnionInfo@@U?$less@H@std@@V?$allocator@U?$pair@$$CBHPAVTUnionInfo@@@std@@@3@$0A@@std@@@std@@QBEIXZ ; std::_Tree<std::_Tmap_traits<int,TUnionInfo *,std::less<int>,std::allocator<std::pair<int const ,TUnionInfo *> >,0> >::size
; Function compile flags: /Ogtp
; File c:\program files (x86)\microsoft visual studio 10.0\vc\include\xtree
;	COMDAT ?size@?$_Tree@V?$_Tmap_traits@HPAVTUnionInfo@@U?$less@H@std@@V?$allocator@U?$pair@$$CBHPAVTUnionInfo@@@std@@@3@$0A@@std@@@std@@QBEIXZ
_TEXT	SEGMENT
?size@?$_Tree@V?$_Tmap_traits@HPAVTUnionInfo@@U?$less@H@std@@V?$allocator@U?$pair@$$CBHPAVTUnionInfo@@@std@@@3@$0A@@std@@@std@@QBEIXZ PROC ; std::_Tree<std::_Tmap_traits<int,TUnionInfo *,std::less<int>,std::allocator<std::pair<int const ,TUnionInfo *> >,0> >::size, COMDAT
; _this$ = ecx

; 869  : 		return (this->_Mysize);

  00000	8b 41 08	 mov	 eax, DWORD PTR [ecx+8]

; 870  : 		}

  00003	c3		 ret	 0
?size@?$_Tree@V?$_Tmap_traits@HPAVTUnionInfo@@U?$less@H@std@@V?$allocator@U?$pair@$$CBHPAVTUnionInfo@@@std@@@3@$0A@@std@@@std@@QBEIXZ ENDP ; std::_Tree<std::_Tmap_traits<int,TUnionInfo *,std::less<int>,std::allocator<std::pair<int const ,TUnionInfo *> >,0> >::size
_TEXT	ENDS
PUBLIC	??F?$_Tree_unchecked_const_iterator@V?$_Tree_val@V?$_Tmap_traits@HPAVTUnionInfo@@U?$less@H@std@@V?$allocator@U?$pair@$$CBHPAVTUnionInfo@@@std@@@3@$0A@@std@@@std@@U_Iterator_base0@2@@std@@QAEAAV01@XZ ; std::_Tree_unchecked_const_iterator<std::_Tree_val<std::_Tmap_traits<int,TUnionInfo *,std::less<int>,std::allocator<std::pair<int const ,TUnionInfo *> >,0> >,std::_Iterator_base0>::operator--
; Function compile flags: /Ogtp
;	COMDAT ??F?$_Tree_unchecked_const_iterator@V?$_Tree_val@V?$_Tmap_traits@HPAVTUnionInfo@@U?$less@H@std@@V?$allocator@U?$pair@$$CBHPAVTUnionInfo@@@std@@@3@$0A@@std@@@std@@U_Iterator_base0@2@@std@@QAEAAV01@XZ
_TEXT	SEGMENT
??F?$_Tree_unchecked_const_iterator@V?$_Tree_val@V?$_Tmap_traits@HPAVTUnionInfo@@U?$less@H@std@@V?$allocator@U?$pair@$$CBHPAVTUnionInfo@@@std@@@3@$0A@@std@@@std@@U_Iterator_base0@2@@std@@QAEAAV01@XZ PROC ; std::_Tree_unchecked_const_iterator<std::_Tree_val<std::_Tmap_traits<int,TUnionInfo *,std::less<int>,std::allocator<std::pair<int const ,TUnionInfo *> >,0> >,std::_Iterator_base0>::operator--, COMDAT
; _this$ = ecx

; 83   : 		{	// predecrement

  00000	8b c1		 mov	 eax, ecx

; 84   : 		if (_Mytree::_Isnil(_Ptr))

  00002	8b 08		 mov	 ecx, DWORD PTR [eax]
  00004	80 79 15 00	 cmp	 BYTE PTR [ecx+21], 0
  00008	74 06		 je	 SHORT $LN8@operator

; 85   : 			_Ptr = _Mytree::_Right(_Ptr);	// end() ==> rightmost

  0000a	8b 49 08	 mov	 ecx, DWORD PTR [ecx+8]
  0000d	89 08		 mov	 DWORD PTR [eax], ecx

; 99   : 			}
; 100  : 		return (*this);
; 101  : 		}

  0000f	c3		 ret	 0
$LN8@operator:

; 86   : 		else if (!_Mytree::_Isnil(_Mytree::_Left(_Ptr)))

  00010	8b 11		 mov	 edx, DWORD PTR [ecx]
  00012	80 7a 15 00	 cmp	 BYTE PTR [edx+21], 0
  00016	75 17		 jne	 SHORT $LN40@operator

; 87   : 			_Ptr = _Mytree::_Max(
; 88   : 				_Mytree::_Left(_Ptr));	// ==> largest of left subtree

  00018	8b 4a 08	 mov	 ecx, DWORD PTR [edx+8]
  0001b	80 79 15 00	 cmp	 BYTE PTR [ecx+21], 0
  0001f	75 30		 jne	 SHORT $LN21@operator
$LL22@operator:
  00021	8b d1		 mov	 edx, ecx
  00023	8b 4a 08	 mov	 ecx, DWORD PTR [edx+8]
  00026	80 79 15 00	 cmp	 BYTE PTR [ecx+21], 0
  0002a	74 f5		 je	 SHORT $LL22@operator

; 96   : 				;	// begin() shouldn't be decremented, don't move
; 97   : 			else
; 98   : 				_Ptr = _Pnode;	// ==> parent if not head

  0002c	89 10		 mov	 DWORD PTR [eax], edx

; 99   : 			}
; 100  : 		return (*this);
; 101  : 		}

  0002e	c3		 ret	 0
$LN40@operator:

; 89   : 		else
; 90   : 			{	// climb looking for left subtree
; 91   : 			_Nodeptr _Pnode;
; 92   : 			while (!_Mytree::_Isnil(_Pnode = _Mytree::_Parent(_Ptr))
; 93   : 				&& _Ptr == _Mytree::_Left(_Pnode))

  0002f	8b 51 04	 mov	 edx, DWORD PTR [ecx+4]
  00032	80 7a 15 00	 cmp	 BYTE PTR [edx+21], 0
  00036	75 11		 jne	 SHORT $LN3@operator
$LL4@operator:
  00038	8b 08		 mov	 ecx, DWORD PTR [eax]
  0003a	3b 0a		 cmp	 ecx, DWORD PTR [edx]
  0003c	75 0b		 jne	 SHORT $LN3@operator

; 94   : 				_Ptr = _Pnode;	// ==> parent while left subtree

  0003e	89 10		 mov	 DWORD PTR [eax], edx
  00040	8b 52 04	 mov	 edx, DWORD PTR [edx+4]
  00043	80 7a 15 00	 cmp	 BYTE PTR [edx+21], 0
  00047	74 ef		 je	 SHORT $LL4@operator
$LN3@operator:

; 95   : 			if (_Mytree::_Isnil(_Ptr))

  00049	8b 08		 mov	 ecx, DWORD PTR [eax]
  0004b	80 79 15 00	 cmp	 BYTE PTR [ecx+21], 0
  0004f	75 02		 jne	 SHORT $LN1@operator

; 87   : 			_Ptr = _Mytree::_Max(
; 88   : 				_Mytree::_Left(_Ptr));	// ==> largest of left subtree

$LN21@operator:

; 96   : 				;	// begin() shouldn't be decremented, don't move
; 97   : 			else
; 98   : 				_Ptr = _Pnode;	// ==> parent if not head

  00051	89 10		 mov	 DWORD PTR [eax], edx
$LN1@operator:

; 99   : 			}
; 100  : 		return (*this);
; 101  : 		}

  00053	c3		 ret	 0
??F?$_Tree_unchecked_const_iterator@V?$_Tree_val@V?$_Tmap_traits@HPAVTUnionInfo@@U?$less@H@std@@V?$allocator@U?$pair@$$CBHPAVTUnionInfo@@@std@@@3@$0A@@std@@@std@@U_Iterator_base0@2@@std@@QAEAAV01@XZ ENDP ; std::_Tree_unchecked_const_iterator<std::_Tree_val<std::_Tmap_traits<int,TUnionInfo *,std::less<int>,std::allocator<std::pair<int const ,TUnionInfo *> >,0> >,std::_Iterator_base0>::operator--
_TEXT	ENDS
PUBLIC	?max_size@?$allocator@U?$pair@$$CBHPAVTUnionInfo@@@std@@@std@@QBEIXZ ; std::allocator<std::pair<int const ,TUnionInfo *> >::max_size
; Function compile flags: /Ogtp
; File c:\program files (x86)\microsoft visual studio 10.0\vc\include\xmemory
;	COMDAT ?max_size@?$allocator@U?$pair@$$CBHPAVTUnionInfo@@@std@@@std@@QBEIXZ
_TEXT	SEGMENT
?max_size@?$allocator@U?$pair@$$CBHPAVTUnionInfo@@@std@@@std@@QBEIXZ PROC ; std::allocator<std::pair<int const ,TUnionInfo *> >::max_size, COMDAT
; _this$ = ecx

; 218  : 		_SIZT _Count = (_SIZT)(-1) / sizeof (_Ty);
; 219  : 		return (0 < _Count ? _Count : 1);

  00000	b8 ff ff ff 1f	 mov	 eax, 536870911		; 1fffffffH

; 220  : 		}

  00005	c3		 ret	 0
?max_size@?$allocator@U?$pair@$$CBHPAVTUnionInfo@@@std@@@std@@QBEIXZ ENDP ; std::allocator<std::pair<int const ,TUnionInfo *> >::max_size
_TEXT	ENDS
PUBLIC	??$forward@AAH@std@@YAAAHAAH@Z			; std::forward<int &>
; Function compile flags: /Ogtp
; File c:\program files (x86)\microsoft visual studio 10.0\vc\include\utility
;	COMDAT ??$forward@AAH@std@@YAAAHAAH@Z
_TEXT	SEGMENT
__Arg$ = 8						; size = 4
??$forward@AAH@std@@YAAAHAAH@Z PROC			; std::forward<int &>, COMDAT

; 78   : 	{	// forward _Arg, given explicitly specified type parameter

  00000	55		 push	 ebp
  00001	8b ec		 mov	 ebp, esp

; 79   : 	return ((_Ty&&)_Arg);

  00003	8b 45 08	 mov	 eax, DWORD PTR __Arg$[ebp]

; 80   : 	}

  00006	5d		 pop	 ebp
  00007	c3		 ret	 0
??$forward@AAH@std@@YAAAHAAH@Z ENDP			; std::forward<int &>
_TEXT	ENDS
PUBLIC	??$construct@AAH@?$allocator@H@std@@QAEXPAHAAH@Z ; std::allocator<int>::construct<int &>
; Function compile flags: /Ogtp
; File c:\program files (x86)\microsoft visual studio 10.0\vc\include\xmemory
;	COMDAT ??$construct@AAH@?$allocator@H@std@@QAEXPAHAAH@Z
_TEXT	SEGMENT
__Ptr$ = 8						; size = 4
__Val$ = 12						; size = 4
??$construct@AAH@?$allocator@H@std@@QAEXPAHAAH@Z PROC	; std::allocator<int>::construct<int &>, COMDAT
; _this$ = ecx

; 206  : 		void construct(pointer _Ptr, _Other&& _Val)

  00000	55		 push	 ebp
  00001	8b ec		 mov	 ebp, esp

; 207  : 		{	// construct object at _Ptr with value _Val
; 208  : 		::new ((void _FARQ *)_Ptr) _Ty(_STD forward<_Other>(_Val));

  00003	8b 45 08	 mov	 eax, DWORD PTR __Ptr$[ebp]
  00006	85 c0		 test	 eax, eax
  00008	74 07		 je	 SHORT $LN3@construct
  0000a	8b 4d 0c	 mov	 ecx, DWORD PTR __Val$[ebp]
  0000d	8b 11		 mov	 edx, DWORD PTR [ecx]
  0000f	89 10		 mov	 DWORD PTR [eax], edx
$LN3@construct:

; 209  : 		}

  00011	5d		 pop	 ebp
  00012	c2 08 00	 ret	 8
??$construct@AAH@?$allocator@H@std@@QAEXPAHAAH@Z ENDP	; std::allocator<int>::construct<int &>
_TEXT	ENDS
PUBLIC	??$forward@ABH@std@@YAABHABH@Z			; std::forward<int const &>
; Function compile flags: /Ogtp
; File c:\program files (x86)\microsoft visual studio 10.0\vc\include\utility
;	COMDAT ??$forward@ABH@std@@YAABHABH@Z
_TEXT	SEGMENT
__Arg$ = 8						; size = 4
??$forward@ABH@std@@YAABHABH@Z PROC			; std::forward<int const &>, COMDAT

; 78   : 	{	// forward _Arg, given explicitly specified type parameter

  00000	55		 push	 ebp
  00001	8b ec		 mov	 ebp, esp

; 79   : 	return ((_Ty&&)_Arg);

  00003	8b 45 08	 mov	 eax, DWORD PTR __Arg$[ebp]

; 80   : 	}

  00006	5d		 pop	 ebp
  00007	c3		 ret	 0
??$forward@ABH@std@@YAABHABH@Z ENDP			; std::forward<int const &>
_TEXT	ENDS
PUBLIC	??$forward@U?$pair@$$CBHPAVTUnionInfo@@@std@@@std@@YA$$QAU?$pair@$$CBHPAVTUnionInfo@@@0@AAU10@@Z ; std::forward<std::pair<int const ,TUnionInfo *> >
; Function compile flags: /Ogtp
;	COMDAT ??$forward@U?$pair@$$CBHPAVTUnionInfo@@@std@@@std@@YA$$QAU?$pair@$$CBHPAVTUnionInfo@@@0@AAU10@@Z
_TEXT	SEGMENT
__Arg$ = 8						; size = 4
??$forward@U?$pair@$$CBHPAVTUnionInfo@@@std@@@std@@YA$$QAU?$pair@$$CBHPAVTUnionInfo@@@0@AAU10@@Z PROC ; std::forward<std::pair<int const ,TUnionInfo *> >, COMDAT

; 78   : 	{	// forward _Arg, given explicitly specified type parameter

  00000	55		 push	 ebp
  00001	8b ec		 mov	 ebp, esp

; 79   : 	return ((_Ty&&)_Arg);

  00003	8b 45 08	 mov	 eax, DWORD PTR __Arg$[ebp]

; 80   : 	}

  00006	5d		 pop	 ebp
  00007	c3		 ret	 0
??$forward@U?$pair@$$CBHPAVTUnionInfo@@@std@@@std@@YA$$QAU?$pair@$$CBHPAVTUnionInfo@@@0@AAU10@@Z ENDP ; std::forward<std::pair<int const ,TUnionInfo *> >
_TEXT	ENDS
PUBLIC	??$_Iter_cat@V?$_Tree_iterator@V?$_Tree_val@V?$_Tmap_traits@HPAVTUnionInfo@@U?$less@H@std@@V?$allocator@U?$pair@$$CBHPAVTUnionInfo@@@std@@@3@$0A@@std@@@std@@@std@@@std@@YA?AUbidirectional_iterator_tag@0@ABV?$_Tree_iterator@V?$_Tree_val@V?$_Tmap_traits@HPAVTUnionInfo@@U?$less@H@std@@V?$allocator@U?$pair@$$CBHPAVTUnionInfo@@@std@@@3@$0A@@std@@@std@@@0@@Z ; std::_Iter_cat<std::_Tree_iterator<std::_Tree_val<std::_Tmap_traits<int,TUnionInfo *,std::less<int>,std::allocator<std::pair<int const ,TUnionInfo *> >,0> > > >
; Function compile flags: /Ogtp
; File c:\program files (x86)\microsoft visual studio 10.0\vc\include\xutility
;	COMDAT ??$_Iter_cat@V?$_Tree_iterator@V?$_Tree_val@V?$_Tmap_traits@HPAVTUnionInfo@@U?$less@H@std@@V?$allocator@U?$pair@$$CBHPAVTUnionInfo@@@std@@@3@$0A@@std@@@std@@@std@@@std@@YA?AUbidirectional_iterator_tag@0@ABV?$_Tree_iterator@V?$_Tree_val@V?$_Tmap_traits@HPAVTUnionInfo@@U?$less@H@std@@V?$allocator@U?$pair@$$CBHPAVTUnionInfo@@@std@@@3@$0A@@std@@@std@@@0@@Z
_TEXT	SEGMENT
___$ReturnUdt$ = 8					; size = 4
___formal$ = 12						; size = 4
??$_Iter_cat@V?$_Tree_iterator@V?$_Tree_val@V?$_Tmap_traits@HPAVTUnionInfo@@U?$less@H@std@@V?$allocator@U?$pair@$$CBHPAVTUnionInfo@@@std@@@3@$0A@@std@@@std@@@std@@@std@@YA?AUbidirectional_iterator_tag@0@ABV?$_Tree_iterator@V?$_Tree_val@V?$_Tmap_traits@HPAVTUnionInfo@@U?$less@H@std@@V?$allocator@U?$pair@$$CBHPAVTUnionInfo@@@std@@@3@$0A@@std@@@std@@@0@@Z PROC ; std::_Iter_cat<std::_Tree_iterator<std::_Tree_val<std::_Tmap_traits<int,TUnionInfo *,std::less<int>,std::allocator<std::pair<int const ,TUnionInfo *> >,0> > > >, COMDAT

; 476  : 	{	// return category from iterator argument

  00000	55		 push	 ebp
  00001	8b ec		 mov	 ebp, esp

; 477  : 	typename iterator_traits<_Iter>::iterator_category _Cat;
; 478  : 	return (_Cat);

  00003	8b 45 08	 mov	 eax, DWORD PTR ___$ReturnUdt$[ebp]

; 479  : 	}

  00006	5d		 pop	 ebp
  00007	c3		 ret	 0
??$_Iter_cat@V?$_Tree_iterator@V?$_Tree_val@V?$_Tmap_traits@HPAVTUnionInfo@@U?$less@H@std@@V?$allocator@U?$pair@$$CBHPAVTUnionInfo@@@std@@@3@$0A@@std@@@std@@@std@@@std@@YA?AUbidirectional_iterator_tag@0@ABV?$_Tree_iterator@V?$_Tree_val@V?$_Tmap_traits@HPAVTUnionInfo@@U?$less@H@std@@V?$allocator@U?$pair@$$CBHPAVTUnionInfo@@@std@@@3@$0A@@std@@@std@@@0@@Z ENDP ; std::_Iter_cat<std::_Tree_iterator<std::_Tree_val<std::_Tmap_traits<int,TUnionInfo *,std::less<int>,std::allocator<std::pair<int const ,TUnionInfo *> >,0> > > >
_TEXT	ENDS
PUBLIC	??$_Move@AAD@std@@YA$$QADAAD@Z			; std::_Move<char &>
; Function compile flags: /Ogtp
; File c:\program files (x86)\microsoft visual studio 10.0\vc\include\utility
;	COMDAT ??$_Move@AAD@std@@YA$$QADAAD@Z
_TEXT	SEGMENT
__Arg$ = 8						; size = 4
??$_Move@AAD@std@@YA$$QADAAD@Z PROC			; std::_Move<char &>, COMDAT

; 94   : 	{	// forward _Arg as movable

  00000	55		 push	 ebp
  00001	8b ec		 mov	 ebp, esp

; 95   : 	return ((typename tr1::_Remove_reference<_Ty>::_Type&&)_Arg);

  00003	8b 45 08	 mov	 eax, DWORD PTR __Arg$[ebp]

; 96   : 	}

  00006	5d		 pop	 ebp
  00007	c3		 ret	 0
??$_Move@AAD@std@@YA$$QADAAD@Z ENDP			; std::_Move<char &>
_TEXT	ENDS
PUBLIC	??$forward@AAV?$_Tree_iterator@V?$_Tree_val@V?$_Tmap_traits@HPAVTUnionInfo@@U?$less@H@std@@V?$allocator@U?$pair@$$CBHPAVTUnionInfo@@@std@@@3@$0A@@std@@@std@@@std@@@std@@YAAAV?$_Tree_iterator@V?$_Tree_val@V?$_Tmap_traits@HPAVTUnionInfo@@U?$less@H@std@@V?$allocator@U?$pair@$$CBHPAVTUnionInfo@@@std@@@3@$0A@@std@@@std@@@0@AAV10@@Z ; std::forward<std::_Tree_iterator<std::_Tree_val<std::_Tmap_traits<int,TUnionInfo *,std::less<int>,std::allocator<std::pair<int const ,TUnionInfo *> >,0> > > &>
; Function compile flags: /Ogtp
;	COMDAT ??$forward@AAV?$_Tree_iterator@V?$_Tree_val@V?$_Tmap_traits@HPAVTUnionInfo@@U?$less@H@std@@V?$allocator@U?$pair@$$CBHPAVTUnionInfo@@@std@@@3@$0A@@std@@@std@@@std@@@std@@YAAAV?$_Tree_iterator@V?$_Tree_val@V?$_Tmap_traits@HPAVTUnionInfo@@U?$less@H@std@@V?$allocator@U?$pair@$$CBHPAVTUnionInfo@@@std@@@3@$0A@@std@@@std@@@0@AAV10@@Z
_TEXT	SEGMENT
__Arg$ = 8						; size = 4
??$forward@AAV?$_Tree_iterator@V?$_Tree_val@V?$_Tmap_traits@HPAVTUnionInfo@@U?$less@H@std@@V?$allocator@U?$pair@$$CBHPAVTUnionInfo@@@std@@@3@$0A@@std@@@std@@@std@@@std@@YAAAV?$_Tree_iterator@V?$_Tree_val@V?$_Tmap_traits@HPAVTUnionInfo@@U?$less@H@std@@V?$allocator@U?$pair@$$CBHPAVTUnionInfo@@@std@@@3@$0A@@std@@@std@@@0@AAV10@@Z PROC ; std::forward<std::_Tree_iterator<std::_Tree_val<std::_Tmap_traits<int,TUnionInfo *,std::less<int>,std::allocator<std::pair<int const ,TUnionInfo *> >,0> > > &>, COMDAT

; 78   : 	{	// forward _Arg, given explicitly specified type parameter

  00000	55		 push	 ebp
  00001	8b ec		 mov	 ebp, esp

; 79   : 	return ((_Ty&&)_Arg);

  00003	8b 45 08	 mov	 eax, DWORD PTR __Arg$[ebp]

; 80   : 	}

  00006	5d		 pop	 ebp
  00007	c3		 ret	 0
??$forward@AAV?$_Tree_iterator@V?$_Tree_val@V?$_Tmap_traits@HPAVTUnionInfo@@U?$less@H@std@@V?$allocator@U?$pair@$$CBHPAVTUnionInfo@@@std@@@3@$0A@@std@@@std@@@std@@@std@@YAAAV?$_Tree_iterator@V?$_Tree_val@V?$_Tmap_traits@HPAVTUnionInfo@@U?$less@H@std@@V?$allocator@U?$pair@$$CBHPAVTUnionInfo@@@std@@@3@$0A@@std@@@std@@@0@AAV10@@Z ENDP ; std::forward<std::_Tree_iterator<std::_Tree_val<std::_Tmap_traits<int,TUnionInfo *,std::less<int>,std::allocator<std::pair<int const ,TUnionInfo *> >,0> > > &>
_TEXT	ENDS
PUBLIC	??$?0AAV?$_Tree_iterator@V?$_Tree_val@V?$_Tmap_traits@HPAVTUnionInfo@@U?$less@H@std@@V?$allocator@U?$pair@$$CBHPAVTUnionInfo@@@std@@@3@$0A@@std@@@std@@@std@@AAV01@@?$_Pair_base@V?$_Tree_iterator@V?$_Tree_val@V?$_Tmap_traits@HPAVTUnionInfo@@U?$less@H@std@@V?$allocator@U?$pair@$$CBHPAVTUnionInfo@@@std@@@3@$0A@@std@@@std@@@std@@V12@@std@@QAE@AAV?$_Tree_iterator@V?$_Tree_val@V?$_Tmap_traits@HPAVTUnionInfo@@U?$less@H@std@@V?$allocator@U?$pair@$$CBHPAVTUnionInfo@@@std@@@3@$0A@@std@@@std@@@1@0@Z ; std::_Pair_base<std::_Tree_iterator<std::_Tree_val<std::_Tmap_traits<int,TUnionInfo *,std::less<int>,std::allocator<std::pair<int const ,TUnionInfo *> >,0> > >,std::_Tree_iterator<std::_Tree_val<std::_Tmap_traits<int,TUnionInfo *,std::less<int>,std::allocator<std::pair<int const ,TUnionInfo *> >,0> > > >::_Pair_base<std::_Tree_iterator<std::_Tree_val<std::_Tmap_traits<int,TUnionInfo *,std::less<int>,std::allocator<std::pair<int const ,TUnionInfo *> >,0> > >,std::_Tree_iterator<std::_Tree_val<std::_Tmap_traits<int,TUnionInfo *,std::less<int>,std::allocator<std::pair<int const ,TUnionInfo *> >,0> > > ><std::_Tree_iterator<std::_Tree_val<std::_Tmap_traits<int,TUnionInfo *,std::less<int>,std::allocator<std::pair<int const ,TUnionInfo *> >,0> > > &,std::_Tree_iterator<std::_Tree_val<std::_Tmap_traits<int,TUnionInfo *,std::less<int>,std::allocator<std::pair<int const ,TUnionInfo *> >,0> > > &>
; Function compile flags: /Ogtp
;	COMDAT ??$?0AAV?$_Tree_iterator@V?$_Tree_val@V?$_Tmap_traits@HPAVTUnionInfo@@U?$less@H@std@@V?$allocator@U?$pair@$$CBHPAVTUnionInfo@@@std@@@3@$0A@@std@@@std@@@std@@AAV01@@?$_Pair_base@V?$_Tree_iterator@V?$_Tree_val@V?$_Tmap_traits@HPAVTUnionInfo@@U?$less@H@std@@V?$allocator@U?$pair@$$CBHPAVTUnionInfo@@@std@@@3@$0A@@std@@@std@@@std@@V12@@std@@QAE@AAV?$_Tree_iterator@V?$_Tree_val@V?$_Tmap_traits@HPAVTUnionInfo@@U?$less@H@std@@V?$allocator@U?$pair@$$CBHPAVTUnionInfo@@@std@@@3@$0A@@std@@@std@@@1@0@Z
_TEXT	SEGMENT
__Val1$ = 8						; size = 4
__Val2$ = 12						; size = 4
??$?0AAV?$_Tree_iterator@V?$_Tree_val@V?$_Tmap_traits@HPAVTUnionInfo@@U?$less@H@std@@V?$allocator@U?$pair@$$CBHPAVTUnionInfo@@@std@@@3@$0A@@std@@@std@@@std@@AAV01@@?$_Pair_base@V?$_Tree_iterator@V?$_Tree_val@V?$_Tmap_traits@HPAVTUnionInfo@@U?$less@H@std@@V?$allocator@U?$pair@$$CBHPAVTUnionInfo@@@std@@@3@$0A@@std@@@std@@@std@@V12@@std@@QAE@AAV?$_Tree_iterator@V?$_Tree_val@V?$_Tmap_traits@HPAVTUnionInfo@@U?$less@H@std@@V?$allocator@U?$pair@$$CBHPAVTUnionInfo@@@std@@@3@$0A@@std@@@std@@@1@0@Z PROC ; std::_Pair_base<std::_Tree_iterator<std::_Tree_val<std::_Tmap_traits<int,TUnionInfo *,std::less<int>,std::allocator<std::pair<int const ,TUnionInfo *> >,0> > >,std::_Tree_iterator<std::_Tree_val<std::_Tmap_traits<int,TUnionInfo *,std::less<int>,std::allocator<std::pair<int const ,TUnionInfo *> >,0> > > >::_Pair_base<std::_Tree_iterator<std::_Tree_val<std::_Tmap_traits<int,TUnionInfo *,std::less<int>,std::allocator<std::pair<int const ,TUnionInfo *> >,0> > >,std::_Tree_iterator<std::_Tree_val<std::_Tmap_traits<int,TUnionInfo *,std::less<int>,std::allocator<std::pair<int const ,TUnionInfo *> >,0> > > ><std::_Tree_iterator<std::_Tree_val<std::_Tmap_traits<int,TUnionInfo *,std::less<int>,std::allocator<std::pair<int const ,TUnionInfo *> >,0> > > &,std::_Tree_iterator<std::_Tree_val<std::_Tmap_traits<int,TUnionInfo *,std::less<int>,std::allocator<std::pair<int const ,TUnionInfo *> >,0> > > &>, COMDAT
; _this$ = ecx

; 163  : 		{	// construct from moved values

  00000	55		 push	 ebp
  00001	8b ec		 mov	 ebp, esp
  00003	8b c1		 mov	 eax, ecx
  00005	8b 4d 08	 mov	 ecx, DWORD PTR __Val1$[ebp]
  00008	8b 11		 mov	 edx, DWORD PTR [ecx]
  0000a	8b 4d 0c	 mov	 ecx, DWORD PTR __Val2$[ebp]
  0000d	89 10		 mov	 DWORD PTR [eax], edx
  0000f	8b 11		 mov	 edx, DWORD PTR [ecx]
  00011	89 50 04	 mov	 DWORD PTR [eax+4], edx

; 164  : 		}

  00014	5d		 pop	 ebp
  00015	c2 08 00	 ret	 8
??$?0AAV?$_Tree_iterator@V?$_Tree_val@V?$_Tmap_traits@HPAVTUnionInfo@@U?$less@H@std@@V?$allocator@U?$pair@$$CBHPAVTUnionInfo@@@std@@@3@$0A@@std@@@std@@@std@@AAV01@@?$_Pair_base@V?$_Tree_iterator@V?$_Tree_val@V?$_Tmap_traits@HPAVTUnionInfo@@U?$less@H@std@@V?$allocator@U?$pair@$$CBHPAVTUnionInfo@@@std@@@3@$0A@@std@@@std@@@std@@V12@@std@@QAE@AAV?$_Tree_iterator@V?$_Tree_val@V?$_Tmap_traits@HPAVTUnionInfo@@U?$less@H@std@@V?$allocator@U?$pair@$$CBHPAVTUnionInfo@@@std@@@3@$0A@@std@@@std@@@1@0@Z ENDP ; std::_Pair_base<std::_Tree_iterator<std::_Tree_val<std::_Tmap_traits<int,TUnionInfo *,std::less<int>,std::allocator<std::pair<int const ,TUnionInfo *> >,0> > >,std::_Tree_iterator<std::_Tree_val<std::_Tmap_traits<int,TUnionInfo *,std::less<int>,std::allocator<std::pair<int const ,TUnionInfo *> >,0> > > >::_Pair_base<std::_Tree_iterator<std::_Tree_val<std::_Tmap_traits<int,TUnionInfo *,std::less<int>,std::allocator<std::pair<int const ,TUnionInfo *> >,0> > >,std::_Tree_iterator<std::_Tree_val<std::_Tmap_traits<int,TUnionInfo *,std::less<int>,std::allocator<std::pair<int const ,TUnionInfo *> >,0> > > ><std::_Tree_iterator<std::_Tree_val<std::_Tmap_traits<int,TUnionInfo *,std::less<int>,std::allocator<std::pair<int const ,TUnionInfo *> >,0> > > &,std::_Tree_iterator<std::_Tree_val<std::_Tmap_traits<int,TUnionInfo *,std::less<int>,std::allocator<std::pair<int const ,TUnionInfo *> >,0> > > &>
_TEXT	ENDS
PUBLIC	??$_Ptr_cat@HH@std@@YA?AU_Scalar_ptr_iterator_tag@0@PAH0@Z ; std::_Ptr_cat<int,int>
; Function compile flags: /Ogtp
; File c:\program files (x86)\microsoft visual studio 10.0\vc\include\xutility
;	COMDAT ??$_Ptr_cat@HH@std@@YA?AU_Scalar_ptr_iterator_tag@0@PAH0@Z
_TEXT	SEGMENT
__Cat$ = -1						; size = 1
___formal$ = 8						; size = 4
___formal$ = 12						; size = 4
??$_Ptr_cat@HH@std@@YA?AU_Scalar_ptr_iterator_tag@0@PAH0@Z PROC ; std::_Ptr_cat<int,int>, COMDAT

; 516  : 	{	// return pointer category from pointers

  00000	55		 push	 ebp
  00001	8b ec		 mov	 ebp, esp
  00003	51		 push	 ecx

; 517  : 	typename _Ptr_cat_helper<_Elem1, _Elem2>::_Type _Cat;
; 518  : 	return (_Cat);

  00004	8a 45 ff	 mov	 al, BYTE PTR __Cat$[ebp]

; 519  : 	}

  00007	8b e5		 mov	 esp, ebp
  00009	5d		 pop	 ebp
  0000a	c3		 ret	 0
??$_Ptr_cat@HH@std@@YA?AU_Scalar_ptr_iterator_tag@0@PAH0@Z ENDP ; std::_Ptr_cat<int,int>
_TEXT	ENDS
PUBLIC	??$_Destroy_range@V?$allocator@H@std@@@std@@YAXPAH0AAV?$allocator@H@0@U_Scalar_ptr_iterator_tag@0@@Z ; std::_Destroy_range<std::allocator<int> >
; Function compile flags: /Ogtp
; File c:\program files (x86)\microsoft visual studio 10.0\vc\include\xmemory
;	COMDAT ??$_Destroy_range@V?$allocator@H@std@@@std@@YAXPAH0AAV?$allocator@H@0@U_Scalar_ptr_iterator_tag@0@@Z
_TEXT	SEGMENT
__First$ = 8						; size = 4
__Last$ = 12						; size = 4
__Al$ = 16						; size = 4
___formal$ = 20						; size = 1
??$_Destroy_range@V?$allocator@H@std@@@std@@YAXPAH0AAV?$allocator@H@0@U_Scalar_ptr_iterator_tag@0@@Z PROC ; std::_Destroy_range<std::allocator<int> >, COMDAT

; 105  : 	}

  00000	c3		 ret	 0
??$_Destroy_range@V?$allocator@H@std@@@std@@YAXPAH0AAV?$allocator@H@0@U_Scalar_ptr_iterator_tag@0@@Z ENDP ; std::_Destroy_range<std::allocator<int> >
_TEXT	ENDS
PUBLIC	??$_Construct@HABH@std@@YAXPAHABH@Z		; std::_Construct<int,int const &>
; Function compile flags: /Ogtp
;	COMDAT ??$_Construct@HABH@std@@YAXPAHABH@Z
_TEXT	SEGMENT
__Ptr$ = 8						; size = 4
__Val$ = 12						; size = 4
??$_Construct@HABH@std@@YAXPAHABH@Z PROC		; std::_Construct<int,int const &>, COMDAT

; 46   : 	{	// construct object at _Ptr with value _Val

  00000	55		 push	 ebp
  00001	8b ec		 mov	 ebp, esp

; 47   : 	void _FARQ *_Vptr = _Ptr;
; 48   : 	::new (_Vptr) _Ty1(_STD forward<_Ty2>(_Val));

  00003	8b 45 08	 mov	 eax, DWORD PTR __Ptr$[ebp]
  00006	85 c0		 test	 eax, eax
  00008	74 07		 je	 SHORT $LN3@Construct
  0000a	8b 4d 0c	 mov	 ecx, DWORD PTR __Val$[ebp]
  0000d	8b 11		 mov	 edx, DWORD PTR [ecx]
  0000f	89 10		 mov	 DWORD PTR [eax], edx
$LN3@Construct:

; 49   : 	}

  00011	5d		 pop	 ebp
  00012	c3		 ret	 0
??$_Construct@HABH@std@@YAXPAHABH@Z ENDP		; std::_Construct<int,int const &>
_TEXT	ENDS
PUBLIC	??$_Destroy@U?$pair@$$CBHPAVTUnionInfo@@@std@@@std@@YAXPAU?$pair@$$CBHPAVTUnionInfo@@@0@@Z ; std::_Destroy<std::pair<int const ,TUnionInfo *> >
; Function compile flags: /Ogtp
;	COMDAT ??$_Destroy@U?$pair@$$CBHPAVTUnionInfo@@@std@@@std@@YAXPAU?$pair@$$CBHPAVTUnionInfo@@@0@@Z
_TEXT	SEGMENT
__Ptr$ = 8						; size = 4
??$_Destroy@U?$pair@$$CBHPAVTUnionInfo@@@std@@@std@@YAXPAU?$pair@$$CBHPAVTUnionInfo@@@0@@Z PROC ; std::_Destroy<std::pair<int const ,TUnionInfo *> >, COMDAT

; 63   : 	_Ptr->~_Ty();
; 64   : 	}

  00000	c3		 ret	 0
??$_Destroy@U?$pair@$$CBHPAVTUnionInfo@@@std@@@std@@YAXPAU?$pair@$$CBHPAVTUnionInfo@@@0@@Z ENDP ; std::_Destroy<std::pair<int const ,TUnionInfo *> >
_TEXT	ENDS
PUBLIC	??$move@AAV?$_Tree_iterator@V?$_Tree_val@V?$_Tmap_traits@HPAVTUnionInfo@@U?$less@H@std@@V?$allocator@U?$pair@$$CBHPAVTUnionInfo@@@std@@@3@$0A@@std@@@std@@@std@@@std@@YA$$QAV?$_Tree_iterator@V?$_Tree_val@V?$_Tmap_traits@HPAVTUnionInfo@@U?$less@H@std@@V?$allocator@U?$pair@$$CBHPAVTUnionInfo@@@std@@@3@$0A@@std@@@std@@@0@AAV10@@Z ; std::move<std::_Tree_iterator<std::_Tree_val<std::_Tmap_traits<int,TUnionInfo *,std::less<int>,std::allocator<std::pair<int const ,TUnionInfo *> >,0> > > &>
; Function compile flags: /Ogtp
; File c:\program files (x86)\microsoft visual studio 10.0\vc\include\utility
;	COMDAT ??$move@AAV?$_Tree_iterator@V?$_Tree_val@V?$_Tmap_traits@HPAVTUnionInfo@@U?$less@H@std@@V?$allocator@U?$pair@$$CBHPAVTUnionInfo@@@std@@@3@$0A@@std@@@std@@@std@@@std@@YA$$QAV?$_Tree_iterator@V?$_Tree_val@V?$_Tmap_traits@HPAVTUnionInfo@@U?$less@H@std@@V?$allocator@U?$pair@$$CBHPAVTUnionInfo@@@std@@@3@$0A@@std@@@std@@@0@AAV10@@Z
_TEXT	SEGMENT
__Arg$ = 8						; size = 4
??$move@AAV?$_Tree_iterator@V?$_Tree_val@V?$_Tmap_traits@HPAVTUnionInfo@@U?$less@H@std@@V?$allocator@U?$pair@$$CBHPAVTUnionInfo@@@std@@@3@$0A@@std@@@std@@@std@@@std@@YA$$QAV?$_Tree_iterator@V?$_Tree_val@V?$_Tmap_traits@HPAVTUnionInfo@@U?$less@H@std@@V?$allocator@U?$pair@$$CBHPAVTUnionInfo@@@std@@@3@$0A@@std@@@std@@@0@AAV10@@Z PROC ; std::move<std::_Tree_iterator<std::_Tree_val<std::_Tmap_traits<int,TUnionInfo *,std::less<int>,std::allocator<std::pair<int const ,TUnionInfo *> >,0> > > &>, COMDAT

; 86   : 	{	// forward _Arg as movable

  00000	55		 push	 ebp
  00001	8b ec		 mov	 ebp, esp

; 87   : 	return ((typename tr1::_Remove_reference<_Ty>::_Type&&)_Arg);

  00003	8b 45 08	 mov	 eax, DWORD PTR __Arg$[ebp]

; 88   : 	}

  00006	5d		 pop	 ebp
  00007	c3		 ret	 0
??$move@AAV?$_Tree_iterator@V?$_Tree_val@V?$_Tmap_traits@HPAVTUnionInfo@@U?$less@H@std@@V?$allocator@U?$pair@$$CBHPAVTUnionInfo@@@std@@@3@$0A@@std@@@std@@@std@@@std@@YA$$QAV?$_Tree_iterator@V?$_Tree_val@V?$_Tmap_traits@HPAVTUnionInfo@@U?$less@H@std@@V?$allocator@U?$pair@$$CBHPAVTUnionInfo@@@std@@@3@$0A@@std@@@std@@@0@AAV10@@Z ENDP ; std::move<std::_Tree_iterator<std::_Tree_val<std::_Tmap_traits<int,TUnionInfo *,std::less<int>,std::allocator<std::pair<int const ,TUnionInfo *> >,0> > > &>
_TEXT	ENDS
PUBLIC	??$move@AA_N@std@@YA$$QA_NAA_N@Z		; std::move<bool &>
; Function compile flags: /Ogtp
;	COMDAT ??$move@AA_N@std@@YA$$QA_NAA_N@Z
_TEXT	SEGMENT
__Arg$ = 8						; size = 4
??$move@AA_N@std@@YA$$QA_NAA_N@Z PROC			; std::move<bool &>, COMDAT

; 86   : 	{	// forward _Arg as movable

  00000	55		 push	 ebp
  00001	8b ec		 mov	 ebp, esp

; 87   : 	return ((typename tr1::_Remove_reference<_Ty>::_Type&&)_Arg);

  00003	8b 45 08	 mov	 eax, DWORD PTR __Arg$[ebp]

; 88   : 	}

  00006	5d		 pop	 ebp
  00007	c3		 ret	 0
??$move@AA_N@std@@YA$$QA_NAA_N@Z ENDP			; std::move<bool &>
_TEXT	ENDS
PUBLIC	??$_Val_type@PAH@std@@YAPAHPAH@Z		; std::_Val_type<int *>
; Function compile flags: /Ogtp
; File c:\program files (x86)\microsoft visual studio 10.0\vc\include\xutility
;	COMDAT ??$_Val_type@PAH@std@@YAPAHPAH@Z
_TEXT	SEGMENT
___formal$ = 8						; size = 4
??$_Val_type@PAH@std@@YAPAHPAH@Z PROC			; std::_Val_type<int *>, COMDAT

; 790  : 	return (0);

  00000	33 c0		 xor	 eax, eax

; 791  : 	}

  00002	c3		 ret	 0
??$_Val_type@PAH@std@@YAPAHPAH@Z ENDP			; std::_Val_type<int *>
_TEXT	ENDS
PUBLIC	??$_Uninit_move@HHH@std@@YAPAHPAH00AAV?$allocator@H@0@0U_Scalar_ptr_iterator_tag@0@@Z ; std::_Uninit_move<int,int,int>
EXTRN	_memmove:PROC
; Function compile flags: /Ogtp
; File c:\program files (x86)\microsoft visual studio 10.0\vc\include\memory
;	COMDAT ??$_Uninit_move@HHH@std@@YAPAHPAH00AAV?$allocator@H@0@0U_Scalar_ptr_iterator_tag@0@@Z
_TEXT	SEGMENT
__First$ = 8						; size = 4
__Last$ = 12						; size = 4
__Dest$ = 16						; size = 4
___formal$ = 20						; size = 4
___formal$ = 24						; size = 4
___formal$ = 28						; size = 1
??$_Uninit_move@HHH@std@@YAPAHPAH00AAV?$allocator@H@0@0U_Scalar_ptr_iterator_tag@0@@Z PROC ; std::_Uninit_move<int,int,int>, COMDAT

; 456  : 	{	// move [_First, _Last) to raw _Dest, scalar type

  00000	55		 push	 ebp
  00001	8b ec		 mov	 ebp, esp

; 457  : 	_DEBUG_RANGE(_First, _Last);
; 458  : 	_DEBUG_POINTER(_Dest);
; 459  : 	size_t _Count = (size_t)(_Last - _First);

  00003	8b 4d 08	 mov	 ecx, DWORD PTR __First$[ebp]
  00006	8b 45 0c	 mov	 eax, DWORD PTR __Last$[ebp]
  00009	2b c1		 sub	 eax, ecx
  0000b	56		 push	 esi
  0000c	c1 f8 02	 sar	 eax, 2

; 460  : 	return ((_Ty2 *)_CSTD memmove(&*_Dest, &*_First,
; 461  : 		_Count * sizeof (*_First)) + _Count);	// NB: non-overlapping move

  0000f	8d 34 85 00 00
	00 00		 lea	 esi, DWORD PTR [eax*4]
  00016	8b 45 10	 mov	 eax, DWORD PTR __Dest$[ebp]
  00019	56		 push	 esi
  0001a	51		 push	 ecx
  0001b	50		 push	 eax
  0001c	e8 00 00 00 00	 call	 _memmove
  00021	83 c4 0c	 add	 esp, 12			; 0000000cH
  00024	03 c6		 add	 eax, esi
  00026	5e		 pop	 esi

; 462  : 	}

  00027	5d		 pop	 ebp
  00028	c3		 ret	 0
??$_Uninit_move@HHH@std@@YAPAHPAH00AAV?$allocator@H@0@0U_Scalar_ptr_iterator_tag@0@@Z ENDP ; std::_Uninit_move<int,int,int>
_TEXT	ENDS
PUBLIC	??$forward@_N@std@@YA$$QA_NAA_N@Z		; std::forward<bool>
; Function compile flags: /Ogtp
; File c:\program files (x86)\microsoft visual studio 10.0\vc\include\utility
;	COMDAT ??$forward@_N@std@@YA$$QA_NAA_N@Z
_TEXT	SEGMENT
__Arg$ = 8						; size = 4
??$forward@_N@std@@YA$$QA_NAA_N@Z PROC			; std::forward<bool>, COMDAT

; 78   : 	{	// forward _Arg, given explicitly specified type parameter

  00000	55		 push	 ebp
  00001	8b ec		 mov	 ebp, esp

; 79   : 	return ((_Ty&&)_Arg);

  00003	8b 45 08	 mov	 eax, DWORD PTR __Arg$[ebp]

; 80   : 	}

  00006	5d		 pop	 ebp
  00007	c3		 ret	 0
??$forward@_N@std@@YA$$QA_NAA_N@Z ENDP			; std::forward<bool>
_TEXT	ENDS
PUBLIC	??$?0AAV?$_Tree_iterator@V?$_Tree_val@V?$_Tmap_traits@HPAVTUnionInfo@@U?$less@H@std@@V?$allocator@U?$pair@$$CBHPAVTUnionInfo@@@std@@@3@$0A@@std@@@std@@@std@@_N@?$_Pair_base@V?$_Tree_iterator@V?$_Tree_val@V?$_Tmap_traits@HPAVTUnionInfo@@U?$less@H@std@@V?$allocator@U?$pair@$$CBHPAVTUnionInfo@@@std@@@3@$0A@@std@@@std@@@std@@_N@std@@QAE@AAV?$_Tree_iterator@V?$_Tree_val@V?$_Tmap_traits@HPAVTUnionInfo@@U?$less@H@std@@V?$allocator@U?$pair@$$CBHPAVTUnionInfo@@@std@@@3@$0A@@std@@@std@@@1@$$QA_N@Z ; std::_Pair_base<std::_Tree_iterator<std::_Tree_val<std::_Tmap_traits<int,TUnionInfo *,std::less<int>,std::allocator<std::pair<int const ,TUnionInfo *> >,0> > >,bool>::_Pair_base<std::_Tree_iterator<std::_Tree_val<std::_Tmap_traits<int,TUnionInfo *,std::less<int>,std::allocator<std::pair<int const ,TUnionInfo *> >,0> > >,bool><std::_Tree_iterator<std::_Tree_val<std::_Tmap_traits<int,TUnionInfo *,std::less<int>,std::allocator<std::pair<int const ,TUnionInfo *> >,0> > > &,bool>
; Function compile flags: /Ogtp
;	COMDAT ??$?0AAV?$_Tree_iterator@V?$_Tree_val@V?$_Tmap_traits@HPAVTUnionInfo@@U?$less@H@std@@V?$allocator@U?$pair@$$CBHPAVTUnionInfo@@@std@@@3@$0A@@std@@@std@@@std@@_N@?$_Pair_base@V?$_Tree_iterator@V?$_Tree_val@V?$_Tmap_traits@HPAVTUnionInfo@@U?$less@H@std@@V?$allocator@U?$pair@$$CBHPAVTUnionInfo@@@std@@@3@$0A@@std@@@std@@@std@@_N@std@@QAE@AAV?$_Tree_iterator@V?$_Tree_val@V?$_Tmap_traits@HPAVTUnionInfo@@U?$less@H@std@@V?$allocator@U?$pair@$$CBHPAVTUnionInfo@@@std@@@3@$0A@@std@@@std@@@1@$$QA_N@Z
_TEXT	SEGMENT
__Val1$ = 8						; size = 4
__Val2$ = 12						; size = 4
??$?0AAV?$_Tree_iterator@V?$_Tree_val@V?$_Tmap_traits@HPAVTUnionInfo@@U?$less@H@std@@V?$allocator@U?$pair@$$CBHPAVTUnionInfo@@@std@@@3@$0A@@std@@@std@@@std@@_N@?$_Pair_base@V?$_Tree_iterator@V?$_Tree_val@V?$_Tmap_traits@HPAVTUnionInfo@@U?$less@H@std@@V?$allocator@U?$pair@$$CBHPAVTUnionInfo@@@std@@@3@$0A@@std@@@std@@@std@@_N@std@@QAE@AAV?$_Tree_iterator@V?$_Tree_val@V?$_Tmap_traits@HPAVTUnionInfo@@U?$less@H@std@@V?$allocator@U?$pair@$$CBHPAVTUnionInfo@@@std@@@3@$0A@@std@@@std@@@1@$$QA_N@Z PROC ; std::_Pair_base<std::_Tree_iterator<std::_Tree_val<std::_Tmap_traits<int,TUnionInfo *,std::less<int>,std::allocator<std::pair<int const ,TUnionInfo *> >,0> > >,bool>::_Pair_base<std::_Tree_iterator<std::_Tree_val<std::_Tmap_traits<int,TUnionInfo *,std::less<int>,std::allocator<std::pair<int const ,TUnionInfo *> >,0> > >,bool><std::_Tree_iterator<std::_Tree_val<std::_Tmap_traits<int,TUnionInfo *,std::less<int>,std::allocator<std::pair<int const ,TUnionInfo *> >,0> > > &,bool>, COMDAT
; _this$ = ecx

; 163  : 		{	// construct from moved values

  00000	55		 push	 ebp
  00001	8b ec		 mov	 ebp, esp
  00003	8b c1		 mov	 eax, ecx
  00005	8b 4d 08	 mov	 ecx, DWORD PTR __Val1$[ebp]
  00008	8b 11		 mov	 edx, DWORD PTR [ecx]
  0000a	8b 4d 0c	 mov	 ecx, DWORD PTR __Val2$[ebp]
  0000d	89 10		 mov	 DWORD PTR [eax], edx
  0000f	8a 11		 mov	 dl, BYTE PTR [ecx]
  00011	88 50 04	 mov	 BYTE PTR [eax+4], dl

; 164  : 		}

  00014	5d		 pop	 ebp
  00015	c2 08 00	 ret	 8
??$?0AAV?$_Tree_iterator@V?$_Tree_val@V?$_Tmap_traits@HPAVTUnionInfo@@U?$less@H@std@@V?$allocator@U?$pair@$$CBHPAVTUnionInfo@@@std@@@3@$0A@@std@@@std@@@std@@_N@?$_Pair_base@V?$_Tree_iterator@V?$_Tree_val@V?$_Tmap_traits@HPAVTUnionInfo@@U?$less@H@std@@V?$allocator@U?$pair@$$CBHPAVTUnionInfo@@@std@@@3@$0A@@std@@@std@@@std@@_N@std@@QAE@AAV?$_Tree_iterator@V?$_Tree_val@V?$_Tmap_traits@HPAVTUnionInfo@@U?$less@H@std@@V?$allocator@U?$pair@$$CBHPAVTUnionInfo@@@std@@@3@$0A@@std@@@std@@@1@$$QA_N@Z ENDP ; std::_Pair_base<std::_Tree_iterator<std::_Tree_val<std::_Tmap_traits<int,TUnionInfo *,std::less<int>,std::allocator<std::pair<int const ,TUnionInfo *> >,0> > >,bool>::_Pair_base<std::_Tree_iterator<std::_Tree_val<std::_Tmap_traits<int,TUnionInfo *,std::less<int>,std::allocator<std::pair<int const ,TUnionInfo *> >,0> > >,bool><std::_Tree_iterator<std::_Tree_val<std::_Tmap_traits<int,TUnionInfo *,std::less<int>,std::allocator<std::pair<int const ,TUnionInfo *> >,0> > > &,bool>
_TEXT	ENDS
PUBLIC	??$forward@$$CBH@std@@YA$$QBHABH@Z		; std::forward<int const >
; Function compile flags: /Ogtp
;	COMDAT ??$forward@$$CBH@std@@YA$$QBHABH@Z
_TEXT	SEGMENT
__Arg$ = 8						; size = 4
??$forward@$$CBH@std@@YA$$QBHABH@Z PROC			; std::forward<int const >, COMDAT

; 78   : 	{	// forward _Arg, given explicitly specified type parameter

  00000	55		 push	 ebp
  00001	8b ec		 mov	 ebp, esp

; 79   : 	return ((_Ty&&)_Arg);

  00003	8b 45 08	 mov	 eax, DWORD PTR __Arg$[ebp]

; 80   : 	}

  00006	5d		 pop	 ebp
  00007	c3		 ret	 0
??$forward@$$CBH@std@@YA$$QBHABH@Z ENDP			; std::forward<int const >
_TEXT	ENDS
PUBLIC	??$forward@PAVTUnionInfo@@@std@@YA$$QAPAVTUnionInfo@@AAPAV1@@Z ; std::forward<TUnionInfo *>
; Function compile flags: /Ogtp
;	COMDAT ??$forward@PAVTUnionInfo@@@std@@YA$$QAPAVTUnionInfo@@AAPAV1@@Z
_TEXT	SEGMENT
__Arg$ = 8						; size = 4
??$forward@PAVTUnionInfo@@@std@@YA$$QAPAVTUnionInfo@@AAPAV1@@Z PROC ; std::forward<TUnionInfo *>, COMDAT

; 78   : 	{	// forward _Arg, given explicitly specified type parameter

  00000	55		 push	 ebp
  00001	8b ec		 mov	 ebp, esp

; 79   : 	return ((_Ty&&)_Arg);

  00003	8b 45 08	 mov	 eax, DWORD PTR __Arg$[ebp]

; 80   : 	}

  00006	5d		 pop	 ebp
  00007	c3		 ret	 0
??$forward@PAVTUnionInfo@@@std@@YA$$QAPAVTUnionInfo@@AAPAV1@@Z ENDP ; std::forward<TUnionInfo *>
_TEXT	ENDS
PUBLIC	??$move@ABH@std@@YA$$QBHABH@Z			; std::move<int const &>
; Function compile flags: /Ogtp
;	COMDAT ??$move@ABH@std@@YA$$QBHABH@Z
_TEXT	SEGMENT
__Arg$ = 8						; size = 4
??$move@ABH@std@@YA$$QBHABH@Z PROC			; std::move<int const &>, COMDAT

; 86   : 	{	// forward _Arg as movable

  00000	55		 push	 ebp
  00001	8b ec		 mov	 ebp, esp

; 87   : 	return ((typename tr1::_Remove_reference<_Ty>::_Type&&)_Arg);

  00003	8b 45 08	 mov	 eax, DWORD PTR __Arg$[ebp]

; 88   : 	}

  00006	5d		 pop	 ebp
  00007	c3		 ret	 0
??$move@ABH@std@@YA$$QBHABH@Z ENDP			; std::move<int const &>
_TEXT	ENDS
PUBLIC	??_7bad_alloc@std@@6B@				; std::bad_alloc::`vftable'
PUBLIC	??0bad_alloc@std@@QAE@PBD@Z			; std::bad_alloc::bad_alloc
PUBLIC	??_R4bad_alloc@std@@6B@				; std::bad_alloc::`RTTI Complete Object Locator'
PUBLIC	??_R0?AVbad_alloc@std@@@8			; std::bad_alloc `RTTI Type Descriptor'
PUBLIC	??_R3bad_alloc@std@@8				; std::bad_alloc::`RTTI Class Hierarchy Descriptor'
PUBLIC	??_R2bad_alloc@std@@8				; std::bad_alloc::`RTTI Base Class Array'
PUBLIC	??_R1A@?0A@EA@bad_alloc@std@@8			; std::bad_alloc::`RTTI Base Class Descriptor at (0,-1,0,64)'
PUBLIC	??_R1A@?0A@EA@exception@std@@8			; std::exception::`RTTI Base Class Descriptor at (0,-1,0,64)'
PUBLIC	??_R0?AVexception@std@@@8			; std::exception `RTTI Type Descriptor'
PUBLIC	??_R3exception@std@@8				; std::exception::`RTTI Class Hierarchy Descriptor'
PUBLIC	??_R2exception@std@@8				; std::exception::`RTTI Base Class Array'
EXTRN	??0exception@std@@QAE@ABQBD@Z:PROC		; std::exception::exception
EXTRN	??_7type_info@@6B@:QWORD			; type_info::`vftable'
EXTRN	??_Ebad_alloc@std@@UAEPAXI@Z:PROC		; std::bad_alloc::`vector deleting destructor'
EXTRN	?what@exception@std@@UBEPBDXZ:PROC		; std::exception::what
;	COMDAT ??_R2exception@std@@8
; File c:\program files (x86)\microsoft visual studio 10.0\vc\include\exception
rdata$r	SEGMENT
??_R2exception@std@@8 DD FLAT:??_R1A@?0A@EA@exception@std@@8 ; std::exception::`RTTI Base Class Array'
rdata$r	ENDS
;	COMDAT ??_R3exception@std@@8
rdata$r	SEGMENT
??_R3exception@std@@8 DD 00H				; std::exception::`RTTI Class Hierarchy Descriptor'
	DD	00H
	DD	01H
	DD	FLAT:??_R2exception@std@@8
rdata$r	ENDS
;	COMDAT ??_R0?AVexception@std@@@8
_DATA	SEGMENT
??_R0?AVexception@std@@@8 DD FLAT:??_7type_info@@6B@	; std::exception `RTTI Type Descriptor'
	DD	00H
	DB	'.?AVexception@std@@', 00H
_DATA	ENDS
;	COMDAT ??_R1A@?0A@EA@exception@std@@8
rdata$r	SEGMENT
??_R1A@?0A@EA@exception@std@@8 DD FLAT:??_R0?AVexception@std@@@8 ; std::exception::`RTTI Base Class Descriptor at (0,-1,0,64)'
	DD	00H
	DD	00H
	DD	0ffffffffH
	DD	00H
	DD	040H
	DD	FLAT:??_R3exception@std@@8
rdata$r	ENDS
;	COMDAT ??_R1A@?0A@EA@bad_alloc@std@@8
rdata$r	SEGMENT
??_R1A@?0A@EA@bad_alloc@std@@8 DD FLAT:??_R0?AVbad_alloc@std@@@8 ; std::bad_alloc::`RTTI Base Class Descriptor at (0,-1,0,64)'
	DD	01H
	DD	00H
	DD	0ffffffffH
	DD	00H
	DD	040H
	DD	FLAT:??_R3bad_alloc@std@@8
rdata$r	ENDS
;	COMDAT ??_R2bad_alloc@std@@8
rdata$r	SEGMENT
??_R2bad_alloc@std@@8 DD FLAT:??_R1A@?0A@EA@bad_alloc@std@@8 ; std::bad_alloc::`RTTI Base Class Array'
	DD	FLAT:??_R1A@?0A@EA@exception@std@@8
rdata$r	ENDS
;	COMDAT ??_R3bad_alloc@std@@8
rdata$r	SEGMENT
??_R3bad_alloc@std@@8 DD 00H				; std::bad_alloc::`RTTI Class Hierarchy Descriptor'
	DD	00H
	DD	02H
	DD	FLAT:??_R2bad_alloc@std@@8
rdata$r	ENDS
;	COMDAT ??_R0?AVbad_alloc@std@@@8
_DATA	SEGMENT
??_R0?AVbad_alloc@std@@@8 DD FLAT:??_7type_info@@6B@	; std::bad_alloc `RTTI Type Descriptor'
	DD	00H
	DB	'.?AVbad_alloc@std@@', 00H
_DATA	ENDS
;	COMDAT ??_R4bad_alloc@std@@6B@
rdata$r	SEGMENT
??_R4bad_alloc@std@@6B@ DD 00H				; std::bad_alloc::`RTTI Complete Object Locator'
	DD	00H
	DD	00H
	DD	FLAT:??_R0?AVbad_alloc@std@@@8
	DD	FLAT:??_R3bad_alloc@std@@8
rdata$r	ENDS
;	COMDAT ??_7bad_alloc@std@@6B@
CONST	SEGMENT
??_7bad_alloc@std@@6B@ DD FLAT:??_R4bad_alloc@std@@6B@	; std::bad_alloc::`vftable'
	DD	FLAT:??_Ebad_alloc@std@@UAEPAXI@Z
	DD	FLAT:?what@exception@std@@UBEPBDXZ
; Function compile flags: /Ogtp
CONST	ENDS
;	COMDAT ??0bad_alloc@std@@QAE@PBD@Z
_TEXT	SEGMENT
__Message$ = 8						; size = 4
??0bad_alloc@std@@QAE@PBD@Z PROC			; std::bad_alloc::bad_alloc, COMDAT
; _this$ = ecx

; 345  : 		{	// construct from message string

  00000	55		 push	 ebp
  00001	8b ec		 mov	 ebp, esp
  00003	56		 push	 esi
  00004	8d 45 08	 lea	 eax, DWORD PTR __Message$[ebp]
  00007	50		 push	 eax
  00008	8b f1		 mov	 esi, ecx
  0000a	e8 00 00 00 00	 call	 ??0exception@std@@QAE@ABQBD@Z ; std::exception::exception
  0000f	c7 06 00 00 00
	00		 mov	 DWORD PTR [esi], OFFSET ??_7bad_alloc@std@@6B@

; 346  : 		}

  00015	8b c6		 mov	 eax, esi
  00017	5e		 pop	 esi
  00018	5d		 pop	 ebp
  00019	c2 04 00	 ret	 4
??0bad_alloc@std@@QAE@PBD@Z ENDP			; std::bad_alloc::bad_alloc
_TEXT	ENDS
PUBLIC	??1bad_alloc@std@@UAE@XZ			; std::bad_alloc::~bad_alloc
EXTRN	??1exception@std@@UAE@XZ:PROC			; std::exception::~exception
; Function compile flags: /Ogtp
;	COMDAT ??1bad_alloc@std@@UAE@XZ
_TEXT	SEGMENT
??1bad_alloc@std@@UAE@XZ PROC				; std::bad_alloc::~bad_alloc, COMDAT
; _this$ = ecx

; 354  : 		{	// destroy the object

  00000	c7 01 00 00 00
	00		 mov	 DWORD PTR [ecx], OFFSET ??_7bad_alloc@std@@6B@

; 355  : 		}

  00006	e9 00 00 00 00	 jmp	 ??1exception@std@@UAE@XZ ; std::exception::~exception
??1bad_alloc@std@@UAE@XZ ENDP				; std::bad_alloc::~bad_alloc
; Function compile flags: /Ogtp
_TEXT	ENDS
;	COMDAT ??_Gbad_alloc@std@@UAEPAXI@Z
_TEXT	SEGMENT
___flags$ = 8						; size = 4
??_Gbad_alloc@std@@UAEPAXI@Z PROC			; std::bad_alloc::`scalar deleting destructor', COMDAT
; _this$ = ecx
  00000	55		 push	 ebp
  00001	8b ec		 mov	 ebp, esp
  00003	56		 push	 esi
  00004	8b f1		 mov	 esi, ecx
  00006	c7 06 00 00 00
	00		 mov	 DWORD PTR [esi], OFFSET ??_7bad_alloc@std@@6B@
  0000c	e8 00 00 00 00	 call	 ??1exception@std@@UAE@XZ ; std::exception::~exception
  00011	f6 45 08 01	 test	 BYTE PTR ___flags$[ebp], 1
  00015	74 09		 je	 SHORT $LN6@scalar
  00017	56		 push	 esi
  00018	e8 00 00 00 00	 call	 ??3@YAXPAX@Z		; operator delete
  0001d	83 c4 04	 add	 esp, 4
$LN6@scalar:
  00020	8b c6		 mov	 eax, esi
  00022	5e		 pop	 esi
  00023	5d		 pop	 ebp
  00024	c2 04 00	 ret	 4
??_Gbad_alloc@std@@UAEPAXI@Z ENDP			; std::bad_alloc::`scalar deleting destructor'
_TEXT	ENDS
PUBLIC	?_Orphan_all@_Container_base0@std@@QAEXXZ	; std::_Container_base0::_Orphan_all
; Function compile flags: /Ogtp
; File c:\program files (x86)\microsoft visual studio 10.0\vc\include\xutility
;	COMDAT ?_Orphan_all@_Container_base0@std@@QAEXXZ
_TEXT	SEGMENT
?_Orphan_all@_Container_base0@std@@QAEXXZ PROC		; std::_Container_base0::_Orphan_all, COMDAT
; _this$ = ecx

; 38   : 		}

  00000	c3		 ret	 0
?_Orphan_all@_Container_base0@std@@QAEXXZ ENDP		; std::_Container_base0::_Orphan_all
_TEXT	ENDS
PUBLIC	?_Adopt@_Iterator_base0@std@@QAEXPBX@Z		; std::_Iterator_base0::_Adopt
; Function compile flags: /Ogtp
;	COMDAT ?_Adopt@_Iterator_base0@std@@QAEXPBX@Z
_TEXT	SEGMENT
___formal$ = 8						; size = 4
?_Adopt@_Iterator_base0@std@@QAEXPBX@Z PROC		; std::_Iterator_base0::_Adopt, COMDAT
; _this$ = ecx

; 49   : 		}

  00000	c2 04 00	 ret	 4
?_Adopt@_Iterator_base0@std@@QAEXPBX@Z ENDP		; std::_Iterator_base0::_Adopt
_TEXT	ENDS
PUBLIC	??9?$_Tree_const_iterator@V?$_Tree_val@V?$_Tmap_traits@HPAVTUnionInfo@@U?$less@H@std@@V?$allocator@U?$pair@$$CBHPAVTUnionInfo@@@std@@@3@$0A@@std@@@std@@@std@@QBE_NABV01@@Z ; std::_Tree_const_iterator<std::_Tree_val<std::_Tmap_traits<int,TUnionInfo *,std::less<int>,std::allocator<std::pair<int const ,TUnionInfo *> >,0> > >::operator!=
; Function compile flags: /Ogtp
; File c:\program files (x86)\microsoft visual studio 10.0\vc\include\xtree
;	COMDAT ??9?$_Tree_const_iterator@V?$_Tree_val@V?$_Tmap_traits@HPAVTUnionInfo@@U?$less@H@std@@V?$allocator@U?$pair@$$CBHPAVTUnionInfo@@@std@@@3@$0A@@std@@@std@@@std@@QBE_NABV01@@Z
_TEXT	SEGMENT
__Right$ = 8						; size = 4
??9?$_Tree_const_iterator@V?$_Tree_val@V?$_Tmap_traits@HPAVTUnionInfo@@U?$less@H@std@@V?$allocator@U?$pair@$$CBHPAVTUnionInfo@@@std@@@3@$0A@@std@@@std@@@std@@QBE_NABV01@@Z PROC ; std::_Tree_const_iterator<std::_Tree_val<std::_Tmap_traits<int,TUnionInfo *,std::less<int>,std::allocator<std::pair<int const ,TUnionInfo *> >,0> > >::operator!=, COMDAT
; _this$ = ecx

; 334  : 		{	// test for iterator inequality

  00000	55		 push	 ebp
  00001	8b ec		 mov	 ebp, esp

; 335  : 		return (!(*this == _Right));

  00003	8b 01		 mov	 eax, DWORD PTR [ecx]
  00005	8b 55 08	 mov	 edx, DWORD PTR __Right$[ebp]
  00008	33 c9		 xor	 ecx, ecx
  0000a	3b 02		 cmp	 eax, DWORD PTR [edx]
  0000c	0f 95 c0	 setne	 al

; 336  : 		}

  0000f	5d		 pop	 ebp
  00010	c2 04 00	 ret	 4
??9?$_Tree_const_iterator@V?$_Tree_val@V?$_Tmap_traits@HPAVTUnionInfo@@U?$less@H@std@@V?$allocator@U?$pair@$$CBHPAVTUnionInfo@@@std@@@3@$0A@@std@@@std@@@std@@QBE_NABV01@@Z ENDP ; std::_Tree_const_iterator<std::_Tree_val<std::_Tmap_traits<int,TUnionInfo *,std::less<int>,std::allocator<std::pair<int const ,TUnionInfo *> >,0> > >::operator!=
_TEXT	ENDS
PUBLIC	?_Lmost@?$_Tree@V?$_Tmap_traits@HPAVTUnionInfo@@U?$less@H@std@@V?$allocator@U?$pair@$$CBHPAVTUnionInfo@@@std@@@3@$0A@@std@@@std@@IBEAAPAU_Node@?$_Tree_nod@V?$_Tmap_traits@HPAVTUnionInfo@@U?$less@H@std@@V?$allocator@U?$pair@$$CBHPAVTUnionInfo@@@std@@@3@$0A@@std@@@2@XZ ; std::_Tree<std::_Tmap_traits<int,TUnionInfo *,std::less<int>,std::allocator<std::pair<int const ,TUnionInfo *> >,0> >::_Lmost
; Function compile flags: /Ogtp
;	COMDAT ?_Lmost@?$_Tree@V?$_Tmap_traits@HPAVTUnionInfo@@U?$less@H@std@@V?$allocator@U?$pair@$$CBHPAVTUnionInfo@@@std@@@3@$0A@@std@@@std@@IBEAAPAU_Node@?$_Tree_nod@V?$_Tmap_traits@HPAVTUnionInfo@@U?$less@H@std@@V?$allocator@U?$pair@$$CBHPAVTUnionInfo@@@std@@@3@$0A@@std@@@2@XZ
_TEXT	SEGMENT
?_Lmost@?$_Tree@V?$_Tmap_traits@HPAVTUnionInfo@@U?$less@H@std@@V?$allocator@U?$pair@$$CBHPAVTUnionInfo@@@std@@@3@$0A@@std@@@std@@IBEAAPAU_Node@?$_Tree_nod@V?$_Tmap_traits@HPAVTUnionInfo@@U?$less@H@std@@V?$allocator@U?$pair@$$CBHPAVTUnionInfo@@@std@@@3@$0A@@std@@@2@XZ PROC ; std::_Tree<std::_Tmap_traits<int,TUnionInfo *,std::less<int>,std::allocator<std::pair<int const ,TUnionInfo *> >,0> >::_Lmost, COMDAT
; _this$ = ecx

; 1759 : 		return (this->_Left(this->_Myhead));

  00000	8b 41 04	 mov	 eax, DWORD PTR [ecx+4]

; 1760 : 		}

  00003	c3		 ret	 0
?_Lmost@?$_Tree@V?$_Tmap_traits@HPAVTUnionInfo@@U?$less@H@std@@V?$allocator@U?$pair@$$CBHPAVTUnionInfo@@@std@@@3@$0A@@std@@@std@@IBEAAPAU_Node@?$_Tree_nod@V?$_Tmap_traits@HPAVTUnionInfo@@U?$less@H@std@@V?$allocator@U?$pair@$$CBHPAVTUnionInfo@@@std@@@3@$0A@@std@@@2@XZ ENDP ; std::_Tree<std::_Tmap_traits<int,TUnionInfo *,std::less<int>,std::allocator<std::pair<int const ,TUnionInfo *> >,0> >::_Lmost
_TEXT	ENDS
PUBLIC	?_Rmost@?$_Tree@V?$_Tmap_traits@HPAVTUnionInfo@@U?$less@H@std@@V?$allocator@U?$pair@$$CBHPAVTUnionInfo@@@std@@@3@$0A@@std@@@std@@IBEAAPAU_Node@?$_Tree_nod@V?$_Tmap_traits@HPAVTUnionInfo@@U?$less@H@std@@V?$allocator@U?$pair@$$CBHPAVTUnionInfo@@@std@@@3@$0A@@std@@@2@XZ ; std::_Tree<std::_Tmap_traits<int,TUnionInfo *,std::less<int>,std::allocator<std::pair<int const ,TUnionInfo *> >,0> >::_Rmost
; Function compile flags: /Ogtp
;	COMDAT ?_Rmost@?$_Tree@V?$_Tmap_traits@HPAVTUnionInfo@@U?$less@H@std@@V?$allocator@U?$pair@$$CBHPAVTUnionInfo@@@std@@@3@$0A@@std@@@std@@IBEAAPAU_Node@?$_Tree_nod@V?$_Tmap_traits@HPAVTUnionInfo@@U?$less@H@std@@V?$allocator@U?$pair@$$CBHPAVTUnionInfo@@@std@@@3@$0A@@std@@@2@XZ
_TEXT	SEGMENT
?_Rmost@?$_Tree@V?$_Tmap_traits@HPAVTUnionInfo@@U?$less@H@std@@V?$allocator@U?$pair@$$CBHPAVTUnionInfo@@@std@@@3@$0A@@std@@@std@@IBEAAPAU_Node@?$_Tree_nod@V?$_Tmap_traits@HPAVTUnionInfo@@U?$less@H@std@@V?$allocator@U?$pair@$$CBHPAVTUnionInfo@@@std@@@3@$0A@@std@@@2@XZ PROC ; std::_Tree<std::_Tmap_traits<int,TUnionInfo *,std::less<int>,std::allocator<std::pair<int const ,TUnionInfo *> >,0> >::_Rmost, COMDAT
; _this$ = ecx

; 1784 : 		return (this->_Right(this->_Myhead));

  00000	8b 41 04	 mov	 eax, DWORD PTR [ecx+4]
  00003	83 c0 08	 add	 eax, 8

; 1785 : 		}

  00006	c3		 ret	 0
?_Rmost@?$_Tree@V?$_Tmap_traits@HPAVTUnionInfo@@U?$less@H@std@@V?$allocator@U?$pair@$$CBHPAVTUnionInfo@@@std@@@3@$0A@@std@@@std@@IBEAAPAU_Node@?$_Tree_nod@V?$_Tmap_traits@HPAVTUnionInfo@@U?$less@H@std@@V?$allocator@U?$pair@$$CBHPAVTUnionInfo@@@std@@@3@$0A@@std@@@2@XZ ENDP ; std::_Tree<std::_Tmap_traits<int,TUnionInfo *,std::less<int>,std::allocator<std::pair<int const ,TUnionInfo *> >,0> >::_Rmost
_TEXT	ENDS
PUBLIC	?_Root@?$_Tree@V?$_Tmap_traits@HPAVTUnionInfo@@U?$less@H@std@@V?$allocator@U?$pair@$$CBHPAVTUnionInfo@@@std@@@3@$0A@@std@@@std@@IBEAAPAU_Node@?$_Tree_nod@V?$_Tmap_traits@HPAVTUnionInfo@@U?$less@H@std@@V?$allocator@U?$pair@$$CBHPAVTUnionInfo@@@std@@@3@$0A@@std@@@2@XZ ; std::_Tree<std::_Tmap_traits<int,TUnionInfo *,std::less<int>,std::allocator<std::pair<int const ,TUnionInfo *> >,0> >::_Root
; Function compile flags: /Ogtp
;	COMDAT ?_Root@?$_Tree@V?$_Tmap_traits@HPAVTUnionInfo@@U?$less@H@std@@V?$allocator@U?$pair@$$CBHPAVTUnionInfo@@@std@@@3@$0A@@std@@@std@@IBEAAPAU_Node@?$_Tree_nod@V?$_Tmap_traits@HPAVTUnionInfo@@U?$less@H@std@@V?$allocator@U?$pair@$$CBHPAVTUnionInfo@@@std@@@3@$0A@@std@@@2@XZ
_TEXT	SEGMENT
?_Root@?$_Tree@V?$_Tmap_traits@HPAVTUnionInfo@@U?$less@H@std@@V?$allocator@U?$pair@$$CBHPAVTUnionInfo@@@std@@@3@$0A@@std@@@std@@IBEAAPAU_Node@?$_Tree_nod@V?$_Tmap_traits@HPAVTUnionInfo@@U?$less@H@std@@V?$allocator@U?$pair@$$CBHPAVTUnionInfo@@@std@@@3@$0A@@std@@@2@XZ PROC ; std::_Tree<std::_Tmap_traits<int,TUnionInfo *,std::less<int>,std::allocator<std::pair<int const ,TUnionInfo *> >,0> >::_Root, COMDAT
; _this$ = ecx

; 1789 : 		return (this->_Parent(this->_Myhead));

  00000	8b 41 04	 mov	 eax, DWORD PTR [ecx+4]
  00003	83 c0 04	 add	 eax, 4

; 1790 : 		}

  00006	c3		 ret	 0
?_Root@?$_Tree@V?$_Tmap_traits@HPAVTUnionInfo@@U?$less@H@std@@V?$allocator@U?$pair@$$CBHPAVTUnionInfo@@@std@@@3@$0A@@std@@@std@@IBEAAPAU_Node@?$_Tree_nod@V?$_Tmap_traits@HPAVTUnionInfo@@U?$less@H@std@@V?$allocator@U?$pair@$$CBHPAVTUnionInfo@@@std@@@3@$0A@@std@@@2@XZ ENDP ; std::_Tree<std::_Tmap_traits<int,TUnionInfo *,std::less<int>,std::allocator<std::pair<int const ,TUnionInfo *> >,0> >::_Root
_TEXT	ENDS
PUBLIC	??1?$_Tree_val@V?$_Tmap_traits@HPAVTUnionInfo@@U?$less@H@std@@V?$allocator@U?$pair@$$CBHPAVTUnionInfo@@@std@@@3@$0A@@std@@@std@@QAE@XZ ; std::_Tree_val<std::_Tmap_traits<int,TUnionInfo *,std::less<int>,std::allocator<std::pair<int const ,TUnionInfo *> >,0> >::~_Tree_val<std::_Tmap_traits<int,TUnionInfo *,std::less<int>,std::allocator<std::pair<int const ,TUnionInfo *> >,0> >
; Function compile flags: /Ogtp
;	COMDAT ??1?$_Tree_val@V?$_Tmap_traits@HPAVTUnionInfo@@U?$less@H@std@@V?$allocator@U?$pair@$$CBHPAVTUnionInfo@@@std@@@3@$0A@@std@@@std@@QAE@XZ
_TEXT	SEGMENT
??1?$_Tree_val@V?$_Tmap_traits@HPAVTUnionInfo@@U?$less@H@std@@V?$allocator@U?$pair@$$CBHPAVTUnionInfo@@@std@@@3@$0A@@std@@@std@@QAE@XZ PROC ; std::_Tree_val<std::_Tmap_traits<int,TUnionInfo *,std::less<int>,std::allocator<std::pair<int const ,TUnionInfo *> >,0> >::~_Tree_val<std::_Tmap_traits<int,TUnionInfo *,std::less<int>,std::allocator<std::pair<int const ,TUnionInfo *> >,0> >, COMDAT
; _this$ = ecx

; 555  : 		this->_Alnod.deallocate(this->_Myhead, 1);

  00000	8b 41 04	 mov	 eax, DWORD PTR [ecx+4]
  00003	50		 push	 eax
  00004	e8 00 00 00 00	 call	 ??3@YAXPAX@Z		; operator delete
  00009	59		 pop	 ecx

; 556  : 		}

  0000a	c3		 ret	 0
??1?$_Tree_val@V?$_Tmap_traits@HPAVTUnionInfo@@U?$less@H@std@@V?$allocator@U?$pair@$$CBHPAVTUnionInfo@@@std@@@3@$0A@@std@@@std@@QAE@XZ ENDP ; std::_Tree_val<std::_Tmap_traits<int,TUnionInfo *,std::less<int>,std::allocator<std::pair<int const ,TUnionInfo *> >,0> >::~_Tree_val<std::_Tmap_traits<int,TUnionInfo *,std::less<int>,std::allocator<std::pair<int const ,TUnionInfo *> >,0> >
_TEXT	ENDS
PUBLIC	?_Key@?$_Tree_val@V?$_Tmap_traits@HPAVTUnionInfo@@U?$less@H@std@@V?$allocator@U?$pair@$$CBHPAVTUnionInfo@@@std@@@3@$0A@@std@@@std@@SAAAHPAU_Node@?$_Tree_nod@V?$_Tmap_traits@HPAVTUnionInfo@@U?$less@H@std@@V?$allocator@U?$pair@$$CBHPAVTUnionInfo@@@std@@@3@$0A@@std@@@2@@Z ; std::_Tree_val<std::_Tmap_traits<int,TUnionInfo *,std::less<int>,std::allocator<std::pair<int const ,TUnionInfo *> >,0> >::_Key
; Function compile flags: /Ogtp
;	COMDAT ?_Key@?$_Tree_val@V?$_Tmap_traits@HPAVTUnionInfo@@U?$less@H@std@@V?$allocator@U?$pair@$$CBHPAVTUnionInfo@@@std@@@3@$0A@@std@@@std@@SAAAHPAU_Node@?$_Tree_nod@V?$_Tmap_traits@HPAVTUnionInfo@@U?$less@H@std@@V?$allocator@U?$pair@$$CBHPAVTUnionInfo@@@std@@@3@$0A@@std@@@2@@Z
_TEXT	SEGMENT
__Pnode$ = 8						; size = 4
?_Key@?$_Tree_val@V?$_Tmap_traits@HPAVTUnionInfo@@U?$less@H@std@@V?$allocator@U?$pair@$$CBHPAVTUnionInfo@@@std@@@3@$0A@@std@@@std@@SAAAHPAU_Node@?$_Tree_nod@V?$_Tmap_traits@HPAVTUnionInfo@@U?$less@H@std@@V?$allocator@U?$pair@$$CBHPAVTUnionInfo@@@std@@@3@$0A@@std@@@2@@Z PROC ; std::_Tree_val<std::_Tmap_traits<int,TUnionInfo *,std::less<int>,std::allocator<std::pair<int const ,TUnionInfo *> >,0> >::_Key, COMDAT

; 616  : 		{	// return reference to key in node

  00000	55		 push	 ebp
  00001	8b ec		 mov	 ebp, esp

; 617  : 		return ((key_type&)_Traits::_Kfn(_Myval(_Pnode)));

  00003	8b 45 08	 mov	 eax, DWORD PTR __Pnode$[ebp]
  00006	83 c0 0c	 add	 eax, 12			; 0000000cH

; 618  : 		}

  00009	5d		 pop	 ebp
  0000a	c3		 ret	 0
?_Key@?$_Tree_val@V?$_Tmap_traits@HPAVTUnionInfo@@U?$less@H@std@@V?$allocator@U?$pair@$$CBHPAVTUnionInfo@@@std@@@3@$0A@@std@@@std@@SAAAHPAU_Node@?$_Tree_nod@V?$_Tmap_traits@HPAVTUnionInfo@@U?$less@H@std@@V?$allocator@U?$pair@$$CBHPAVTUnionInfo@@@std@@@3@$0A@@std@@@2@@Z ENDP ; std::_Tree_val<std::_Tmap_traits<int,TUnionInfo *,std::less<int>,std::allocator<std::pair<int const ,TUnionInfo *> >,0> >::_Key
_TEXT	ENDS
PUBLIC	??0?$_Tree_const_iterator@V?$_Tree_val@V?$_Tmap_traits@HPAVTUnionInfo@@U?$less@H@std@@V?$allocator@U?$pair@$$CBHPAVTUnionInfo@@@std@@@3@$0A@@std@@@std@@@std@@QAE@XZ ; std::_Tree_const_iterator<std::_Tree_val<std::_Tmap_traits<int,TUnionInfo *,std::less<int>,std::allocator<std::pair<int const ,TUnionInfo *> >,0> > >::_Tree_const_iterator<std::_Tree_val<std::_Tmap_traits<int,TUnionInfo *,std::less<int>,std::allocator<std::pair<int const ,TUnionInfo *> >,0> > >
; Function compile flags: /Ogtp
;	COMDAT ??0?$_Tree_const_iterator@V?$_Tree_val@V?$_Tmap_traits@HPAVTUnionInfo@@U?$less@H@std@@V?$allocator@U?$pair@$$CBHPAVTUnionInfo@@@std@@@3@$0A@@std@@@std@@@std@@QAE@XZ
_TEXT	SEGMENT
??0?$_Tree_const_iterator@V?$_Tree_val@V?$_Tmap_traits@HPAVTUnionInfo@@U?$less@H@std@@V?$allocator@U?$pair@$$CBHPAVTUnionInfo@@@std@@@3@$0A@@std@@@std@@@std@@QAE@XZ PROC ; std::_Tree_const_iterator<std::_Tree_val<std::_Tmap_traits<int,TUnionInfo *,std::less<int>,std::allocator<std::pair<int const ,TUnionInfo *> >,0> > >::_Tree_const_iterator<std::_Tree_val<std::_Tmap_traits<int,TUnionInfo *,std::less<int>,std::allocator<std::pair<int const ,TUnionInfo *> >,0> > >, COMDAT
; _this$ = ecx

; 208  : 		{	// construct with null node pointer

  00000	8b c1		 mov	 eax, ecx
  00002	c7 00 00 00 00
	00		 mov	 DWORD PTR [eax], 0

; 209  : 		}

  00008	c3		 ret	 0
??0?$_Tree_const_iterator@V?$_Tree_val@V?$_Tmap_traits@HPAVTUnionInfo@@U?$less@H@std@@V?$allocator@U?$pair@$$CBHPAVTUnionInfo@@@std@@@3@$0A@@std@@@std@@@std@@QAE@XZ ENDP ; std::_Tree_const_iterator<std::_Tree_val<std::_Tmap_traits<int,TUnionInfo *,std::less<int>,std::allocator<std::pair<int const ,TUnionInfo *> >,0> > >::_Tree_const_iterator<std::_Tree_val<std::_Tmap_traits<int,TUnionInfo *,std::less<int>,std::allocator<std::pair<int const ,TUnionInfo *> >,0> > >
_TEXT	ENDS
PUBLIC	??D?$_Tree_const_iterator@V?$_Tree_val@V?$_Tmap_traits@HPAVTUnionInfo@@U?$less@H@std@@V?$allocator@U?$pair@$$CBHPAVTUnionInfo@@@std@@@3@$0A@@std@@@std@@@std@@QBEABU?$pair@$$CBHPAVTUnionInfo@@@1@XZ ; std::_Tree_const_iterator<std::_Tree_val<std::_Tmap_traits<int,TUnionInfo *,std::less<int>,std::allocator<std::pair<int const ,TUnionInfo *> >,0> > >::operator*
; Function compile flags: /Ogtp
;	COMDAT ??D?$_Tree_const_iterator@V?$_Tree_val@V?$_Tmap_traits@HPAVTUnionInfo@@U?$less@H@std@@V?$allocator@U?$pair@$$CBHPAVTUnionInfo@@@std@@@3@$0A@@std@@@std@@@std@@QBEABU?$pair@$$CBHPAVTUnionInfo@@@1@XZ
_TEXT	SEGMENT
??D?$_Tree_const_iterator@V?$_Tree_val@V?$_Tmap_traits@HPAVTUnionInfo@@U?$less@H@std@@V?$allocator@U?$pair@$$CBHPAVTUnionInfo@@@std@@@3@$0A@@std@@@std@@@std@@QBEABU?$pair@$$CBHPAVTUnionInfo@@@1@XZ PROC ; std::_Tree_const_iterator<std::_Tree_val<std::_Tmap_traits<int,TUnionInfo *,std::less<int>,std::allocator<std::pair<int const ,TUnionInfo *> >,0> > >::operator*, COMDAT
; _this$ = ecx

; 231  :  #if _ITERATOR_DEBUG_LEVEL == 2
; 232  : 		if (this->_Getcont() == 0
; 233  : 			|| this->_Ptr == 0
; 234  : 			|| this->_Ptr == ((_Mytree *)this->_Getcont())->_Myhead)
; 235  : 			{	// report error
; 236  : 			_DEBUG_ERROR("map/set iterator not dereferencable");
; 237  : 			_SCL_SECURE_OUT_OF_RANGE;
; 238  : 			}
; 239  : 
; 240  :  #elif _ITERATOR_DEBUG_LEVEL == 1
; 241  : 		_SCL_SECURE_VALIDATE(this->_Getcont() != 0 && this->_Ptr != 0);
; 242  : 		_SCL_SECURE_VALIDATE_RANGE(this->_Ptr !=
; 243  : 			((_Mytree *)this->_Getcont())->_Myhead);
; 244  :  #endif /* _ITERATOR_DEBUG_LEVEL */
; 245  : 
; 246  : 		return (_Mytree::_Myval(this->_Ptr));

  00000	8b 01		 mov	 eax, DWORD PTR [ecx]
  00002	83 c0 0c	 add	 eax, 12			; 0000000cH

; 247  : 		}

  00005	c3		 ret	 0
??D?$_Tree_const_iterator@V?$_Tree_val@V?$_Tmap_traits@HPAVTUnionInfo@@U?$less@H@std@@V?$allocator@U?$pair@$$CBHPAVTUnionInfo@@@std@@@3@$0A@@std@@@std@@@std@@QBEABU?$pair@$$CBHPAVTUnionInfo@@@1@XZ ENDP ; std::_Tree_const_iterator<std::_Tree_val<std::_Tmap_traits<int,TUnionInfo *,std::less<int>,std::allocator<std::pair<int const ,TUnionInfo *> >,0> > >::operator*
_TEXT	ENDS
PUBLIC	?max_size@?$vector@HV?$allocator@H@std@@@std@@QBEIXZ ; std::vector<int,std::allocator<int> >::max_size
; Function compile flags: /Ogtp
; File c:\program files (x86)\microsoft visual studio 10.0\vc\include\vector
;	COMDAT ?max_size@?$vector@HV?$allocator@H@std@@@std@@QBEIXZ
_TEXT	SEGMENT
?max_size@?$vector@HV?$allocator@H@std@@@std@@QBEIXZ PROC ; std::vector<int,std::allocator<int> >::max_size, COMDAT
; _this$ = ecx

; 884  : 		return (this->_Alval.max_size());

  00000	b8 ff ff ff 3f	 mov	 eax, 1073741823		; 3fffffffH

; 885  : 		}

  00005	c3		 ret	 0
?max_size@?$vector@HV?$allocator@H@std@@@std@@QBEIXZ ENDP ; std::vector<int,std::allocator<int> >::max_size
_TEXT	ENDS
PUBLIC	?_Grow_to@?$vector@HV?$allocator@H@std@@@std@@IBEII@Z ; std::vector<int,std::allocator<int> >::_Grow_to
; Function compile flags: /Ogtp
;	COMDAT ?_Grow_to@?$vector@HV?$allocator@H@std@@@std@@IBEII@Z
_TEXT	SEGMENT
__Count$ = 8						; size = 4
?_Grow_to@?$vector@HV?$allocator@H@std@@@std@@IBEII@Z PROC ; std::vector<int,std::allocator<int> >::_Grow_to, COMDAT
; _this$ = ecx

; 1274 : 		{	// grow by 50% or at least to _Count

  00000	55		 push	 ebp
  00001	8b ec		 mov	 ebp, esp

; 1275 : 		size_type _Capacity = capacity();

  00003	8b 41 08	 mov	 eax, DWORD PTR [ecx+8]
  00006	2b 01		 sub	 eax, DWORD PTR [ecx]

; 1276 : 
; 1277 : 		_Capacity = max_size() - _Capacity / 2 < _Capacity
; 1278 : 			? 0 : _Capacity + _Capacity / 2;	// try to grow by 50%

  00008	ba ff ff ff 3f	 mov	 edx, 1073741823		; 3fffffffH
  0000d	c1 f8 02	 sar	 eax, 2
  00010	8b c8		 mov	 ecx, eax
  00012	d1 e9		 shr	 ecx, 1
  00014	2b d1		 sub	 edx, ecx
  00016	3b d0		 cmp	 edx, eax
  00018	73 04		 jae	 SHORT $LN4@Grow_to
  0001a	33 c0		 xor	 eax, eax
  0001c	eb 02		 jmp	 SHORT $LN5@Grow_to
$LN4@Grow_to:
  0001e	03 c1		 add	 eax, ecx
$LN5@Grow_to:

; 1279 : 		if (_Capacity < _Count)

  00020	8b 4d 08	 mov	 ecx, DWORD PTR __Count$[ebp]
  00023	3b c1		 cmp	 eax, ecx
  00025	73 02		 jae	 SHORT $LN1@Grow_to

; 1280 : 			_Capacity = _Count;
; 1281 : 		return (_Capacity);

  00027	8b c1		 mov	 eax, ecx
$LN1@Grow_to:

; 1282 : 		}

  00029	5d		 pop	 ebp
  0002a	c2 04 00	 ret	 4
?_Grow_to@?$vector@HV?$allocator@H@std@@@std@@IBEII@Z ENDP ; std::vector<int,std::allocator<int> >::_Grow_to
_TEXT	ENDS
PUBLIC	?_Lbound@?$_Tree@V?$_Tmap_traits@HPAVTUnionInfo@@U?$less@H@std@@V?$allocator@U?$pair@$$CBHPAVTUnionInfo@@@std@@@3@$0A@@std@@@std@@IAEPAU_Node@?$_Tree_nod@V?$_Tmap_traits@HPAVTUnionInfo@@U?$less@H@std@@V?$allocator@U?$pair@$$CBHPAVTUnionInfo@@@std@@@3@$0A@@std@@@2@ABH@Z ; std::_Tree<std::_Tmap_traits<int,TUnionInfo *,std::less<int>,std::allocator<std::pair<int const ,TUnionInfo *> >,0> >::_Lbound
; Function compile flags: /Ogtp
; File c:\program files (x86)\microsoft visual studio 10.0\vc\include\xtree
;	COMDAT ?_Lbound@?$_Tree@V?$_Tmap_traits@HPAVTUnionInfo@@U?$less@H@std@@V?$allocator@U?$pair@$$CBHPAVTUnionInfo@@@std@@@3@$0A@@std@@@std@@IAEPAU_Node@?$_Tree_nod@V?$_Tmap_traits@HPAVTUnionInfo@@U?$less@H@std@@V?$allocator@U?$pair@$$CBHPAVTUnionInfo@@@std@@@3@$0A@@std@@@2@ABH@Z
_TEXT	SEGMENT
__Keyval$ = 8						; size = 4
?_Lbound@?$_Tree@V?$_Tmap_traits@HPAVTUnionInfo@@U?$less@H@std@@V?$allocator@U?$pair@$$CBHPAVTUnionInfo@@@std@@@3@$0A@@std@@@std@@IAEPAU_Node@?$_Tree_nod@V?$_Tmap_traits@HPAVTUnionInfo@@U?$less@H@std@@V?$allocator@U?$pair@$$CBHPAVTUnionInfo@@@std@@@3@$0A@@std@@@2@ABH@Z PROC ; std::_Tree<std::_Tmap_traits<int,TUnionInfo *,std::less<int>,std::allocator<std::pair<int const ,TUnionInfo *> >,0> >::_Lbound, COMDAT
; _this$ = ecx

; 1741 : 		{	// find leftmost node not less than _Keyval

  00000	55		 push	 ebp
  00001	8b ec		 mov	 ebp, esp

; 1742 : 		_Nodeptr _Pnode = _Root();

  00003	8b 41 04	 mov	 eax, DWORD PTR [ecx+4]
  00006	8b 48 04	 mov	 ecx, DWORD PTR [eax+4]

; 1743 : 		_Nodeptr _Wherenode = this->_Myhead;	// end() if search fails
; 1744 : 
; 1745 : 		while (!this->_Isnil(_Pnode))

  00009	80 79 15 00	 cmp	 BYTE PTR [ecx+21], 0
  0000d	75 19		 jne	 SHORT $LN3@Lbound
  0000f	8b 55 08	 mov	 edx, DWORD PTR __Keyval$[ebp]
  00012	8b 12		 mov	 edx, DWORD PTR [edx]
$LL4@Lbound:

; 1746 : 			if (_DEBUG_LT_PRED(this->comp, this->_Key(_Pnode), _Keyval))

  00014	39 51 0c	 cmp	 DWORD PTR [ecx+12], edx
  00017	7d 05		 jge	 SHORT $LN2@Lbound

; 1747 : 				_Pnode = this->_Right(_Pnode);	// descend right subtree

  00019	8b 49 08	 mov	 ecx, DWORD PTR [ecx+8]

; 1748 : 			else

  0001c	eb 04		 jmp	 SHORT $LN1@Lbound
$LN2@Lbound:

; 1749 : 				{	// _Pnode not less than _Keyval, remember it
; 1750 : 				_Wherenode = _Pnode;

  0001e	8b c1		 mov	 eax, ecx

; 1751 : 				_Pnode = this->_Left(_Pnode);	// descend left subtree

  00020	8b 09		 mov	 ecx, DWORD PTR [ecx]
$LN1@Lbound:

; 1743 : 		_Nodeptr _Wherenode = this->_Myhead;	// end() if search fails
; 1744 : 
; 1745 : 		while (!this->_Isnil(_Pnode))

  00022	80 79 15 00	 cmp	 BYTE PTR [ecx+21], 0
  00026	74 ec		 je	 SHORT $LL4@Lbound
$LN3@Lbound:

; 1752 : 				}
; 1753 : 
; 1754 : 		return (_Wherenode);	// return best remembered candidate
; 1755 : 		}

  00028	5d		 pop	 ebp
  00029	c2 04 00	 ret	 4
?_Lbound@?$_Tree@V?$_Tmap_traits@HPAVTUnionInfo@@U?$less@H@std@@V?$allocator@U?$pair@$$CBHPAVTUnionInfo@@@std@@@3@$0A@@std@@@std@@IAEPAU_Node@?$_Tree_nod@V?$_Tmap_traits@HPAVTUnionInfo@@U?$less@H@std@@V?$allocator@U?$pair@$$CBHPAVTUnionInfo@@@std@@@3@$0A@@std@@@2@ABH@Z ENDP ; std::_Tree<std::_Tmap_traits<int,TUnionInfo *,std::less<int>,std::allocator<std::pair<int const ,TUnionInfo *> >,0> >::_Lbound
_TEXT	ENDS
PUBLIC	??E?$_Tree_unchecked_const_iterator@V?$_Tree_val@V?$_Tmap_traits@HPAVTUnionInfo@@U?$less@H@std@@V?$allocator@U?$pair@$$CBHPAVTUnionInfo@@@std@@@3@$0A@@std@@@std@@U_Iterator_base0@2@@std@@QAEAAV01@XZ ; std::_Tree_unchecked_const_iterator<std::_Tree_val<std::_Tmap_traits<int,TUnionInfo *,std::less<int>,std::allocator<std::pair<int const ,TUnionInfo *> >,0> >,std::_Iterator_base0>::operator++
; Function compile flags: /Ogtp
;	COMDAT ??E?$_Tree_unchecked_const_iterator@V?$_Tree_val@V?$_Tmap_traits@HPAVTUnionInfo@@U?$less@H@std@@V?$allocator@U?$pair@$$CBHPAVTUnionInfo@@@std@@@3@$0A@@std@@@std@@U_Iterator_base0@2@@std@@QAEAAV01@XZ
_TEXT	SEGMENT
??E?$_Tree_unchecked_const_iterator@V?$_Tree_val@V?$_Tmap_traits@HPAVTUnionInfo@@U?$less@H@std@@V?$allocator@U?$pair@$$CBHPAVTUnionInfo@@@std@@@3@$0A@@std@@@std@@U_Iterator_base0@2@@std@@QAEAAV01@XZ PROC ; std::_Tree_unchecked_const_iterator<std::_Tree_val<std::_Tmap_traits<int,TUnionInfo *,std::less<int>,std::allocator<std::pair<int const ,TUnionInfo *> >,0> >,std::_Iterator_base0>::operator++, COMDAT
; _this$ = ecx

; 58   : 		{	// preincrement

  00000	8b c1		 mov	 eax, ecx

; 59   : 		if (_Mytree::_Isnil(_Ptr))

  00002	8b 10		 mov	 edx, DWORD PTR [eax]
  00004	80 7a 15 00	 cmp	 BYTE PTR [edx+21], 0
  00008	75 40		 jne	 SHORT $LN3@operator@2

; 60   : 			;	// end() shouldn't be incremented, don't move
; 61   : 		else if (!_Mytree::_Isnil(_Mytree::_Right(_Ptr)))

  0000a	8b 4a 08	 mov	 ecx, DWORD PTR [edx+8]
  0000d	80 79 15 00	 cmp	 BYTE PTR [ecx+21], 0
  00011	75 1a		 jne	 SHORT $LN34@operator@2

; 62   : 			_Ptr = _Mytree::_Min(
; 63   : 				_Mytree::_Right(_Ptr));	// ==> smallest of right subtree

  00013	8b 11		 mov	 edx, DWORD PTR [ecx]
  00015	80 7a 15 00	 cmp	 BYTE PTR [edx+21], 0
  00019	75 0f		 jne	 SHORT $LN17@operator@2
  0001b	eb 03 8d 49 00	 npad	 5
$LL18@operator@2:
  00020	8b ca		 mov	 ecx, edx
  00022	8b 11		 mov	 edx, DWORD PTR [ecx]
  00024	80 7a 15 00	 cmp	 BYTE PTR [edx+21], 0
  00028	74 f6		 je	 SHORT $LL18@operator@2
$LN17@operator@2:
  0002a	89 08		 mov	 DWORD PTR [eax], ecx

; 71   : 			}
; 72   : 		return (*this);
; 73   : 		}

  0002c	c3		 ret	 0
$LN34@operator@2:

; 64   : 		else
; 65   : 			{	// climb looking for right subtree
; 66   : 			_Nodeptr _Pnode;
; 67   : 			while (!_Mytree::_Isnil(_Pnode = _Mytree::_Parent(_Ptr))
; 68   : 				&& _Ptr == _Mytree::_Right(_Pnode))

  0002d	8b 52 04	 mov	 edx, DWORD PTR [edx+4]
  00030	80 7a 15 00	 cmp	 BYTE PTR [edx+21], 0
  00034	75 12		 jne	 SHORT $LN1@operator@2
$LL2@operator@2:
  00036	8b 08		 mov	 ecx, DWORD PTR [eax]
  00038	3b 4a 08	 cmp	 ecx, DWORD PTR [edx+8]
  0003b	75 0b		 jne	 SHORT $LN1@operator@2

; 69   : 				_Ptr = _Pnode;	// ==> parent while right subtree

  0003d	89 10		 mov	 DWORD PTR [eax], edx
  0003f	8b 52 04	 mov	 edx, DWORD PTR [edx+4]
  00042	80 7a 15 00	 cmp	 BYTE PTR [edx+21], 0
  00046	74 ee		 je	 SHORT $LL2@operator@2
$LN1@operator@2:

; 70   : 			_Ptr = _Pnode;	// ==> parent (head if end())

  00048	89 10		 mov	 DWORD PTR [eax], edx
$LN3@operator@2:

; 71   : 			}
; 72   : 		return (*this);
; 73   : 		}

  0004a	c3		 ret	 0
??E?$_Tree_unchecked_const_iterator@V?$_Tree_val@V?$_Tmap_traits@HPAVTUnionInfo@@U?$less@H@std@@V?$allocator@U?$pair@$$CBHPAVTUnionInfo@@@std@@@3@$0A@@std@@@std@@U_Iterator_base0@2@@std@@QAEAAV01@XZ ENDP ; std::_Tree_unchecked_const_iterator<std::_Tree_val<std::_Tmap_traits<int,TUnionInfo *,std::less<int>,std::allocator<std::pair<int const ,TUnionInfo *> >,0> >,std::_Iterator_base0>::operator++
_TEXT	ENDS
PUBLIC	??0?$_Pair_base@$$CBHPAVTUnionInfo@@@std@@QAE@ABH$$QAPAVTUnionInfo@@@Z ; std::_Pair_base<int const ,TUnionInfo *>::_Pair_base<int const ,TUnionInfo *>
; Function compile flags: /Ogtp
; File c:\program files (x86)\microsoft visual studio 10.0\vc\include\utility
;	COMDAT ??0?$_Pair_base@$$CBHPAVTUnionInfo@@@std@@QAE@ABH$$QAPAVTUnionInfo@@@Z
_TEXT	SEGMENT
__Val1$ = 8						; size = 4
__Val2$ = 12						; size = 4
??0?$_Pair_base@$$CBHPAVTUnionInfo@@@std@@QAE@ABH$$QAPAVTUnionInfo@@@Z PROC ; std::_Pair_base<int const ,TUnionInfo *>::_Pair_base<int const ,TUnionInfo *>, COMDAT
; _this$ = ecx

; 150  : 		{	// construct from specified values

  00000	55		 push	 ebp
  00001	8b ec		 mov	 ebp, esp
  00003	8b c1		 mov	 eax, ecx
  00005	8b 4d 08	 mov	 ecx, DWORD PTR __Val1$[ebp]
  00008	8b 11		 mov	 edx, DWORD PTR [ecx]
  0000a	8b 4d 0c	 mov	 ecx, DWORD PTR __Val2$[ebp]
  0000d	89 10		 mov	 DWORD PTR [eax], edx
  0000f	8b 11		 mov	 edx, DWORD PTR [ecx]
  00011	89 50 04	 mov	 DWORD PTR [eax+4], edx

; 151  : 		}

  00014	5d		 pop	 ebp
  00015	c2 08 00	 ret	 8
??0?$_Pair_base@$$CBHPAVTUnionInfo@@@std@@QAE@ABH$$QAPAVTUnionInfo@@@Z ENDP ; std::_Pair_base<int const ,TUnionInfo *>::_Pair_base<int const ,TUnionInfo *>
_TEXT	ENDS
PUBLIC	?_Lrotate@?$_Tree@V?$_Tmap_traits@HPAVTUnionInfo@@U?$less@H@std@@V?$allocator@U?$pair@$$CBHPAVTUnionInfo@@@std@@@3@$0A@@std@@@std@@IAEXPAU_Node@?$_Tree_nod@V?$_Tmap_traits@HPAVTUnionInfo@@U?$less@H@std@@V?$allocator@U?$pair@$$CBHPAVTUnionInfo@@@std@@@3@$0A@@std@@@2@@Z ; std::_Tree<std::_Tmap_traits<int,TUnionInfo *,std::less<int>,std::allocator<std::pair<int const ,TUnionInfo *> >,0> >::_Lrotate
; Function compile flags: /Ogtp
; File c:\program files (x86)\microsoft visual studio 10.0\vc\include\xtree
;	COMDAT ?_Lrotate@?$_Tree@V?$_Tmap_traits@HPAVTUnionInfo@@U?$less@H@std@@V?$allocator@U?$pair@$$CBHPAVTUnionInfo@@@std@@@3@$0A@@std@@@std@@IAEXPAU_Node@?$_Tree_nod@V?$_Tmap_traits@HPAVTUnionInfo@@U?$less@H@std@@V?$allocator@U?$pair@$$CBHPAVTUnionInfo@@@std@@@3@$0A@@std@@@2@@Z
_TEXT	SEGMENT
__Wherenode$ = 8					; size = 4
?_Lrotate@?$_Tree@V?$_Tmap_traits@HPAVTUnionInfo@@U?$less@H@std@@V?$allocator@U?$pair@$$CBHPAVTUnionInfo@@@std@@@3@$0A@@std@@@std@@IAEXPAU_Node@?$_Tree_nod@V?$_Tmap_traits@HPAVTUnionInfo@@U?$less@H@std@@V?$allocator@U?$pair@$$CBHPAVTUnionInfo@@@std@@@3@$0A@@std@@@2@@Z PROC ; std::_Tree<std::_Tmap_traits<int,TUnionInfo *,std::less<int>,std::allocator<std::pair<int const ,TUnionInfo *> >,0> >::_Lrotate, COMDAT
; _this$ = ecx

; 1763 : 		{	// promote right node to root of subtree

  00000	55		 push	 ebp
  00001	8b ec		 mov	 ebp, esp

; 1764 : 		_Nodeptr _Pnode = this->_Right(_Wherenode);

  00003	8b 55 08	 mov	 edx, DWORD PTR __Wherenode$[ebp]
  00006	8b 42 08	 mov	 eax, DWORD PTR [edx+8]
  00009	56		 push	 esi

; 1765 : 		this->_Right(_Wherenode) = this->_Left(_Pnode);

  0000a	8b 30		 mov	 esi, DWORD PTR [eax]
  0000c	89 72 08	 mov	 DWORD PTR [edx+8], esi

; 1766 : 
; 1767 : 		if (!this->_Isnil(this->_Left(_Pnode)))

  0000f	8b 30		 mov	 esi, DWORD PTR [eax]
  00011	80 7e 15 00	 cmp	 BYTE PTR [esi+21], 0
  00015	75 03		 jne	 SHORT $LN5@Lrotate

; 1768 : 			this->_Parent(this->_Left(_Pnode)) = _Wherenode;

  00017	89 56 04	 mov	 DWORD PTR [esi+4], edx
$LN5@Lrotate:

; 1769 : 		this->_Parent(_Pnode) = this->_Parent(_Wherenode);

  0001a	8b 72 04	 mov	 esi, DWORD PTR [edx+4]
  0001d	89 70 04	 mov	 DWORD PTR [eax+4], esi

; 1770 : 
; 1771 : 		if (_Wherenode == _Root())

  00020	8b 49 04	 mov	 ecx, DWORD PTR [ecx+4]
  00023	5e		 pop	 esi
  00024	3b 51 04	 cmp	 edx, DWORD PTR [ecx+4]
  00027	75 0c		 jne	 SHORT $LN4@Lrotate

; 1772 : 			_Root() = _Pnode;

  00029	89 41 04	 mov	 DWORD PTR [ecx+4], eax

; 1777 : 
; 1778 : 		this->_Left(_Pnode) = _Wherenode;

  0002c	89 10		 mov	 DWORD PTR [eax], edx

; 1779 : 		this->_Parent(_Wherenode) = _Pnode;

  0002e	89 42 04	 mov	 DWORD PTR [edx+4], eax

; 1780 : 		}

  00031	5d		 pop	 ebp
  00032	c2 04 00	 ret	 4
$LN4@Lrotate:

; 1773 : 		else if (_Wherenode == this->_Left(this->_Parent(_Wherenode)))

  00035	8b 4a 04	 mov	 ecx, DWORD PTR [edx+4]
  00038	3b 11		 cmp	 edx, DWORD PTR [ecx]
  0003a	75 0b		 jne	 SHORT $LN2@Lrotate

; 1774 : 			this->_Left(this->_Parent(_Wherenode)) = _Pnode;

  0003c	89 01		 mov	 DWORD PTR [ecx], eax

; 1777 : 
; 1778 : 		this->_Left(_Pnode) = _Wherenode;

  0003e	89 10		 mov	 DWORD PTR [eax], edx

; 1779 : 		this->_Parent(_Wherenode) = _Pnode;

  00040	89 42 04	 mov	 DWORD PTR [edx+4], eax

; 1780 : 		}

  00043	5d		 pop	 ebp
  00044	c2 04 00	 ret	 4
$LN2@Lrotate:

; 1775 : 		else
; 1776 : 			this->_Right(this->_Parent(_Wherenode)) = _Pnode;

  00047	89 41 08	 mov	 DWORD PTR [ecx+8], eax

; 1777 : 
; 1778 : 		this->_Left(_Pnode) = _Wherenode;

  0004a	89 10		 mov	 DWORD PTR [eax], edx

; 1779 : 		this->_Parent(_Wherenode) = _Pnode;

  0004c	89 42 04	 mov	 DWORD PTR [edx+4], eax

; 1780 : 		}

  0004f	5d		 pop	 ebp
  00050	c2 04 00	 ret	 4
?_Lrotate@?$_Tree@V?$_Tmap_traits@HPAVTUnionInfo@@U?$less@H@std@@V?$allocator@U?$pair@$$CBHPAVTUnionInfo@@@std@@@3@$0A@@std@@@std@@IAEXPAU_Node@?$_Tree_nod@V?$_Tmap_traits@HPAVTUnionInfo@@U?$less@H@std@@V?$allocator@U?$pair@$$CBHPAVTUnionInfo@@@std@@@3@$0A@@std@@@2@@Z ENDP ; std::_Tree<std::_Tmap_traits<int,TUnionInfo *,std::less<int>,std::allocator<std::pair<int const ,TUnionInfo *> >,0> >::_Lrotate
_TEXT	ENDS
PUBLIC	?_Rrotate@?$_Tree@V?$_Tmap_traits@HPAVTUnionInfo@@U?$less@H@std@@V?$allocator@U?$pair@$$CBHPAVTUnionInfo@@@std@@@3@$0A@@std@@@std@@IAEXPAU_Node@?$_Tree_nod@V?$_Tmap_traits@HPAVTUnionInfo@@U?$less@H@std@@V?$allocator@U?$pair@$$CBHPAVTUnionInfo@@@std@@@3@$0A@@std@@@2@@Z ; std::_Tree<std::_Tmap_traits<int,TUnionInfo *,std::less<int>,std::allocator<std::pair<int const ,TUnionInfo *> >,0> >::_Rrotate
; Function compile flags: /Ogtp
;	COMDAT ?_Rrotate@?$_Tree@V?$_Tmap_traits@HPAVTUnionInfo@@U?$less@H@std@@V?$allocator@U?$pair@$$CBHPAVTUnionInfo@@@std@@@3@$0A@@std@@@std@@IAEXPAU_Node@?$_Tree_nod@V?$_Tmap_traits@HPAVTUnionInfo@@U?$less@H@std@@V?$allocator@U?$pair@$$CBHPAVTUnionInfo@@@std@@@3@$0A@@std@@@2@@Z
_TEXT	SEGMENT
__Wherenode$ = 8					; size = 4
?_Rrotate@?$_Tree@V?$_Tmap_traits@HPAVTUnionInfo@@U?$less@H@std@@V?$allocator@U?$pair@$$CBHPAVTUnionInfo@@@std@@@3@$0A@@std@@@std@@IAEXPAU_Node@?$_Tree_nod@V?$_Tmap_traits@HPAVTUnionInfo@@U?$less@H@std@@V?$allocator@U?$pair@$$CBHPAVTUnionInfo@@@std@@@3@$0A@@std@@@2@@Z PROC ; std::_Tree<std::_Tmap_traits<int,TUnionInfo *,std::less<int>,std::allocator<std::pair<int const ,TUnionInfo *> >,0> >::_Rrotate, COMDAT
; _this$ = ecx

; 1793 : 		{	// promote left node to root of subtree

  00000	55		 push	 ebp
  00001	8b ec		 mov	 ebp, esp

; 1794 : 		_Nodeptr _Pnode = this->_Left(_Wherenode);

  00003	8b 55 08	 mov	 edx, DWORD PTR __Wherenode$[ebp]
  00006	8b 02		 mov	 eax, DWORD PTR [edx]
  00008	56		 push	 esi

; 1795 : 		this->_Left(_Wherenode) = this->_Right(_Pnode);

  00009	8b 70 08	 mov	 esi, DWORD PTR [eax+8]
  0000c	89 32		 mov	 DWORD PTR [edx], esi

; 1796 : 
; 1797 : 		if (!this->_Isnil(this->_Right(_Pnode)))

  0000e	8b 70 08	 mov	 esi, DWORD PTR [eax+8]
  00011	80 7e 15 00	 cmp	 BYTE PTR [esi+21], 0
  00015	75 03		 jne	 SHORT $LN5@Rrotate

; 1798 : 			this->_Parent(this->_Right(_Pnode)) = _Wherenode;

  00017	89 56 04	 mov	 DWORD PTR [esi+4], edx
$LN5@Rrotate:

; 1799 : 		this->_Parent(_Pnode) = this->_Parent(_Wherenode);

  0001a	8b 72 04	 mov	 esi, DWORD PTR [edx+4]
  0001d	89 70 04	 mov	 DWORD PTR [eax+4], esi

; 1800 : 
; 1801 : 		if (_Wherenode == _Root())

  00020	8b 49 04	 mov	 ecx, DWORD PTR [ecx+4]
  00023	5e		 pop	 esi
  00024	3b 51 04	 cmp	 edx, DWORD PTR [ecx+4]
  00027	75 0d		 jne	 SHORT $LN4@Rrotate

; 1802 : 			_Root() = _Pnode;

  00029	89 41 04	 mov	 DWORD PTR [ecx+4], eax

; 1807 : 
; 1808 : 		this->_Right(_Pnode) = _Wherenode;

  0002c	89 50 08	 mov	 DWORD PTR [eax+8], edx

; 1809 : 		this->_Parent(_Wherenode) = _Pnode;

  0002f	89 42 04	 mov	 DWORD PTR [edx+4], eax

; 1810 : 		}

  00032	5d		 pop	 ebp
  00033	c2 04 00	 ret	 4
$LN4@Rrotate:

; 1803 : 		else if (_Wherenode == this->_Right(this->_Parent(_Wherenode)))

  00036	8b 4a 04	 mov	 ecx, DWORD PTR [edx+4]
  00039	3b 51 08	 cmp	 edx, DWORD PTR [ecx+8]
  0003c	75 0d		 jne	 SHORT $LN2@Rrotate

; 1804 : 			this->_Right(this->_Parent(_Wherenode)) = _Pnode;

  0003e	89 41 08	 mov	 DWORD PTR [ecx+8], eax

; 1807 : 
; 1808 : 		this->_Right(_Pnode) = _Wherenode;

  00041	89 50 08	 mov	 DWORD PTR [eax+8], edx

; 1809 : 		this->_Parent(_Wherenode) = _Pnode;

  00044	89 42 04	 mov	 DWORD PTR [edx+4], eax

; 1810 : 		}

  00047	5d		 pop	 ebp
  00048	c2 04 00	 ret	 4
$LN2@Rrotate:

; 1805 : 		else
; 1806 : 			this->_Left(this->_Parent(_Wherenode)) = _Pnode;

  0004b	89 01		 mov	 DWORD PTR [ecx], eax

; 1807 : 
; 1808 : 		this->_Right(_Pnode) = _Wherenode;

  0004d	89 50 08	 mov	 DWORD PTR [eax+8], edx

; 1809 : 		this->_Parent(_Wherenode) = _Pnode;

  00050	89 42 04	 mov	 DWORD PTR [edx+4], eax

; 1810 : 		}

  00053	5d		 pop	 ebp
  00054	c2 04 00	 ret	 4
?_Rrotate@?$_Tree@V?$_Tmap_traits@HPAVTUnionInfo@@U?$less@H@std@@V?$allocator@U?$pair@$$CBHPAVTUnionInfo@@@std@@@3@$0A@@std@@@std@@IAEXPAU_Node@?$_Tree_nod@V?$_Tmap_traits@HPAVTUnionInfo@@U?$less@H@std@@V?$allocator@U?$pair@$$CBHPAVTUnionInfo@@@std@@@3@$0A@@std@@@2@@Z ENDP ; std::_Tree<std::_Tmap_traits<int,TUnionInfo *,std::less<int>,std::allocator<std::pair<int const ,TUnionInfo *> >,0> >::_Rrotate
_TEXT	ENDS
PUBLIC	??0?$_Tree_nod@V?$_Tmap_traits@HPAVTUnionInfo@@U?$less@H@std@@V?$allocator@U?$pair@$$CBHPAVTUnionInfo@@@std@@@3@$0A@@std@@@std@@QAE@ABU?$less@H@1@V?$allocator@U?$pair@$$CBHPAVTUnionInfo@@@std@@@1@@Z ; std::_Tree_nod<std::_Tmap_traits<int,TUnionInfo *,std::less<int>,std::allocator<std::pair<int const ,TUnionInfo *> >,0> >::_Tree_nod<std::_Tmap_traits<int,TUnionInfo *,std::less<int>,std::allocator<std::pair<int const ,TUnionInfo *> >,0> >
; Function compile flags: /Ogtp
;	COMDAT ??0?$_Tree_nod@V?$_Tmap_traits@HPAVTUnionInfo@@U?$less@H@std@@V?$allocator@U?$pair@$$CBHPAVTUnionInfo@@@std@@@3@$0A@@std@@@std@@QAE@ABU?$less@H@1@V?$allocator@U?$pair@$$CBHPAVTUnionInfo@@@std@@@1@@Z
_TEXT	SEGMENT
__Parg$ = 8						; size = 4
__Al$ = 12						; size = 1
??0?$_Tree_nod@V?$_Tmap_traits@HPAVTUnionInfo@@U?$less@H@std@@V?$allocator@U?$pair@$$CBHPAVTUnionInfo@@@std@@@3@$0A@@std@@@std@@QAE@ABU?$less@H@1@V?$allocator@U?$pair@$$CBHPAVTUnionInfo@@@std@@@1@@Z PROC ; std::_Tree_nod<std::_Tmap_traits<int,TUnionInfo *,std::less<int>,std::allocator<std::pair<int const ,TUnionInfo *> >,0> >::_Tree_nod<std::_Tmap_traits<int,TUnionInfo *,std::less<int>,std::allocator<std::pair<int const ,TUnionInfo *> >,0> >, COMDAT
; _this$ = ecx

; 482  : 		{	// construct traits from _Parg and allocators from _Al

  00000	8b c1		 mov	 eax, ecx

; 483  : 		}

  00002	c2 08 00	 ret	 8
??0?$_Tree_nod@V?$_Tmap_traits@HPAVTUnionInfo@@U?$less@H@std@@V?$allocator@U?$pair@$$CBHPAVTUnionInfo@@@std@@@3@$0A@@std@@@std@@QAE@ABU?$less@H@1@V?$allocator@U?$pair@$$CBHPAVTUnionInfo@@@std@@@1@@Z ENDP ; std::_Tree_nod<std::_Tmap_traits<int,TUnionInfo *,std::less<int>,std::allocator<std::pair<int const ,TUnionInfo *> >,0> >::_Tree_nod<std::_Tmap_traits<int,TUnionInfo *,std::less<int>,std::allocator<std::pair<int const ,TUnionInfo *> >,0> >
_TEXT	ENDS
PUBLIC	??0?$_Tree_unchecked_const_iterator@V?$_Tree_val@V?$_Tmap_traits@HPAVTUnionInfo@@U?$less@H@std@@V?$allocator@U?$pair@$$CBHPAVTUnionInfo@@@std@@@3@$0A@@std@@@std@@U_Iterator_base0@2@@std@@QAE@PAU_Node@?$_Tree_nod@V?$_Tmap_traits@HPAVTUnionInfo@@U?$less@H@std@@V?$allocator@U?$pair@$$CBHPAVTUnionInfo@@@std@@@3@$0A@@std@@@1@PBV?$_Tree_val@V?$_Tmap_traits@HPAVTUnionInfo@@U?$less@H@std@@V?$allocator@U?$pair@$$CBHPAVTUnionInfo@@@std@@@3@$0A@@std@@@1@@Z ; std::_Tree_unchecked_const_iterator<std::_Tree_val<std::_Tmap_traits<int,TUnionInfo *,std::less<int>,std::allocator<std::pair<int const ,TUnionInfo *> >,0> >,std::_Iterator_base0>::_Tree_unchecked_const_iterator<std::_Tree_val<std::_Tmap_traits<int,TUnionInfo *,std::less<int>,std::allocator<std::pair<int const ,TUnionInfo *> >,0> >,std::_Iterator_base0>
; Function compile flags: /Ogtp
;	COMDAT ??0?$_Tree_unchecked_const_iterator@V?$_Tree_val@V?$_Tmap_traits@HPAVTUnionInfo@@U?$less@H@std@@V?$allocator@U?$pair@$$CBHPAVTUnionInfo@@@std@@@3@$0A@@std@@@std@@U_Iterator_base0@2@@std@@QAE@PAU_Node@?$_Tree_nod@V?$_Tmap_traits@HPAVTUnionInfo@@U?$less@H@std@@V?$allocator@U?$pair@$$CBHPAVTUnionInfo@@@std@@@3@$0A@@std@@@1@PBV?$_Tree_val@V?$_Tmap_traits@HPAVTUnionInfo@@U?$less@H@std@@V?$allocator@U?$pair@$$CBHPAVTUnionInfo@@@std@@@3@$0A@@std@@@1@@Z
_TEXT	SEGMENT
__Pnode$ = 8						; size = 4
__Plist$ = 12						; size = 4
??0?$_Tree_unchecked_const_iterator@V?$_Tree_val@V?$_Tmap_traits@HPAVTUnionInfo@@U?$less@H@std@@V?$allocator@U?$pair@$$CBHPAVTUnionInfo@@@std@@@3@$0A@@std@@@std@@U_Iterator_base0@2@@std@@QAE@PAU_Node@?$_Tree_nod@V?$_Tmap_traits@HPAVTUnionInfo@@U?$less@H@std@@V?$allocator@U?$pair@$$CBHPAVTUnionInfo@@@std@@@3@$0A@@std@@@1@PBV?$_Tree_val@V?$_Tmap_traits@HPAVTUnionInfo@@U?$less@H@std@@V?$allocator@U?$pair@$$CBHPAVTUnionInfo@@@std@@@3@$0A@@std@@@1@@Z PROC ; std::_Tree_unchecked_const_iterator<std::_Tree_val<std::_Tmap_traits<int,TUnionInfo *,std::less<int>,std::allocator<std::pair<int const ,TUnionInfo *> >,0> >,std::_Iterator_base0>::_Tree_unchecked_const_iterator<std::_Tree_val<std::_Tmap_traits<int,TUnionInfo *,std::less<int>,std::allocator<std::pair<int const ,TUnionInfo *> >,0> >,std::_Iterator_base0>, COMDAT
; _this$ = ecx

; 43   : 		{	// construct with node pointer _Pnode

  00000	55		 push	 ebp
  00001	8b ec		 mov	 ebp, esp
  00003	8b c1		 mov	 eax, ecx
  00005	8b 4d 08	 mov	 ecx, DWORD PTR __Pnode$[ebp]
  00008	89 08		 mov	 DWORD PTR [eax], ecx

; 44   : 		this->_Adopt(_Plist);
; 45   : 		}

  0000a	5d		 pop	 ebp
  0000b	c2 08 00	 ret	 8
??0?$_Tree_unchecked_const_iterator@V?$_Tree_val@V?$_Tmap_traits@HPAVTUnionInfo@@U?$less@H@std@@V?$allocator@U?$pair@$$CBHPAVTUnionInfo@@@std@@@3@$0A@@std@@@std@@U_Iterator_base0@2@@std@@QAE@PAU_Node@?$_Tree_nod@V?$_Tmap_traits@HPAVTUnionInfo@@U?$less@H@std@@V?$allocator@U?$pair@$$CBHPAVTUnionInfo@@@std@@@3@$0A@@std@@@1@PBV?$_Tree_val@V?$_Tmap_traits@HPAVTUnionInfo@@U?$less@H@std@@V?$allocator@U?$pair@$$CBHPAVTUnionInfo@@@std@@@3@$0A@@std@@@1@@Z ENDP ; std::_Tree_unchecked_const_iterator<std::_Tree_val<std::_Tmap_traits<int,TUnionInfo *,std::less<int>,std::allocator<std::pair<int const ,TUnionInfo *> >,0> >,std::_Iterator_base0>::_Tree_unchecked_const_iterator<std::_Tree_val<std::_Tmap_traits<int,TUnionInfo *,std::less<int>,std::allocator<std::pair<int const ,TUnionInfo *> >,0> >,std::_Iterator_base0>
_TEXT	ENDS
PUBLIC	??$_Cons_val@V?$allocator@H@std@@HAAH@std@@YAXAAV?$allocator@H@0@PAHAAH@Z ; std::_Cons_val<std::allocator<int>,int,int &>
; Function compile flags: /Ogtp
; File c:\program files (x86)\microsoft visual studio 10.0\vc\include\xmemory
;	COMDAT ??$_Cons_val@V?$allocator@H@std@@HAAH@std@@YAXAAV?$allocator@H@0@PAHAAH@Z
_TEXT	SEGMENT
__Alval$ = 8						; size = 4
__Pdest$ = 12						; size = 4
__Src$ = 16						; size = 4
??$_Cons_val@V?$allocator@H@std@@HAAH@std@@YAXAAV?$allocator@H@0@PAHAAH@Z PROC ; std::_Cons_val<std::allocator<int>,int,int &>, COMDAT

; 279  : 	{	// construct using allocator

  00000	55		 push	 ebp
  00001	8b ec		 mov	 ebp, esp

; 280  : 	_Alval.construct(_Pdest, _STD forward<_Ty2>(_Src));

  00003	8b 45 0c	 mov	 eax, DWORD PTR __Pdest$[ebp]
  00006	85 c0		 test	 eax, eax
  00008	74 07		 je	 SHORT $LN7@Cons_val
  0000a	8b 4d 10	 mov	 ecx, DWORD PTR __Src$[ebp]
  0000d	8b 11		 mov	 edx, DWORD PTR [ecx]
  0000f	89 10		 mov	 DWORD PTR [eax], edx
$LN7@Cons_val:

; 281  : 	}

  00011	5d		 pop	 ebp
  00012	c3		 ret	 0
??$_Cons_val@V?$allocator@H@std@@HAAH@std@@YAXAAV?$allocator@H@0@PAHAAH@Z ENDP ; std::_Cons_val<std::allocator<int>,int,int &>
_TEXT	ENDS
PUBLIC	??$swap@D@std@@YAXAAD0@Z			; std::swap<char>
; Function compile flags: /Ogtp
; File c:\program files (x86)\microsoft visual studio 10.0\vc\include\utility
;	COMDAT ??$swap@D@std@@YAXAAD0@Z
_TEXT	SEGMENT
__Left$ = 8						; size = 4
__Right$ = 12						; size = 4
??$swap@D@std@@YAXAAD0@Z PROC				; std::swap<char>, COMDAT

; 101  : 	{	// exchange values stored at _Left and _Right

  00000	55		 push	 ebp
  00001	8b ec		 mov	 ebp, esp

; 102  : 	_Ty _Tmp = _Move(_Left);

  00003	8b 45 08	 mov	 eax, DWORD PTR __Left$[ebp]
  00006	8a 08		 mov	 cl, BYTE PTR [eax]
  00008	56		 push	 esi

; 103  : 	_Left = _Move(_Right);

  00009	8b 75 0c	 mov	 esi, DWORD PTR __Right$[ebp]
  0000c	8a 16		 mov	 dl, BYTE PTR [esi]
  0000e	88 10		 mov	 BYTE PTR [eax], dl

; 104  : 	_Right = _Move(_Tmp);

  00010	88 0e		 mov	 BYTE PTR [esi], cl
  00012	5e		 pop	 esi

; 105  : 	}

  00013	5d		 pop	 ebp
  00014	c3		 ret	 0
??$swap@D@std@@YAXAAD0@Z ENDP				; std::swap<char>
_TEXT	ENDS
PUBLIC	??$?0AAV?$_Tree_iterator@V?$_Tree_val@V?$_Tmap_traits@HPAVTUnionInfo@@U?$less@H@std@@V?$allocator@U?$pair@$$CBHPAVTUnionInfo@@@std@@@3@$0A@@std@@@std@@@std@@AAV01@@?$pair@V?$_Tree_iterator@V?$_Tree_val@V?$_Tmap_traits@HPAVTUnionInfo@@U?$less@H@std@@V?$allocator@U?$pair@$$CBHPAVTUnionInfo@@@std@@@3@$0A@@std@@@std@@@std@@V12@@std@@QAE@AAV?$_Tree_iterator@V?$_Tree_val@V?$_Tmap_traits@HPAVTUnionInfo@@U?$less@H@std@@V?$allocator@U?$pair@$$CBHPAVTUnionInfo@@@std@@@3@$0A@@std@@@std@@@1@0@Z ; std::pair<std::_Tree_iterator<std::_Tree_val<std::_Tmap_traits<int,TUnionInfo *,std::less<int>,std::allocator<std::pair<int const ,TUnionInfo *> >,0> > >,std::_Tree_iterator<std::_Tree_val<std::_Tmap_traits<int,TUnionInfo *,std::less<int>,std::allocator<std::pair<int const ,TUnionInfo *> >,0> > > >::pair<std::_Tree_iterator<std::_Tree_val<std::_Tmap_traits<int,TUnionInfo *,std::less<int>,std::allocator<std::pair<int const ,TUnionInfo *> >,0> > >,std::_Tree_iterator<std::_Tree_val<std::_Tmap_traits<int,TUnionInfo *,std::less<int>,std::allocator<std::pair<int const ,TUnionInfo *> >,0> > > ><std::_Tree_iterator<std::_Tree_val<std::_Tmap_traits<int,TUnionInfo *,std::less<int>,std::allocator<std::pair<int const ,TUnionInfo *> >,0> > > &,std::_Tree_iterator<std::_Tree_val<std::_Tmap_traits<int,TUnionInfo *,std::less<int>,std::allocator<std::pair<int const ,TUnionInfo *> >,0> > > &>
; Function compile flags: /Ogtp
;	COMDAT ??$?0AAV?$_Tree_iterator@V?$_Tree_val@V?$_Tmap_traits@HPAVTUnionInfo@@U?$less@H@std@@V?$allocator@U?$pair@$$CBHPAVTUnionInfo@@@std@@@3@$0A@@std@@@std@@@std@@AAV01@@?$pair@V?$_Tree_iterator@V?$_Tree_val@V?$_Tmap_traits@HPAVTUnionInfo@@U?$less@H@std@@V?$allocator@U?$pair@$$CBHPAVTUnionInfo@@@std@@@3@$0A@@std@@@std@@@std@@V12@@std@@QAE@AAV?$_Tree_iterator@V?$_Tree_val@V?$_Tmap_traits@HPAVTUnionInfo@@U?$less@H@std@@V?$allocator@U?$pair@$$CBHPAVTUnionInfo@@@std@@@3@$0A@@std@@@std@@@1@0@Z
_TEXT	SEGMENT
__Val1$ = 8						; size = 4
__Val2$ = 12						; size = 4
??$?0AAV?$_Tree_iterator@V?$_Tree_val@V?$_Tmap_traits@HPAVTUnionInfo@@U?$less@H@std@@V?$allocator@U?$pair@$$CBHPAVTUnionInfo@@@std@@@3@$0A@@std@@@std@@@std@@AAV01@@?$pair@V?$_Tree_iterator@V?$_Tree_val@V?$_Tmap_traits@HPAVTUnionInfo@@U?$less@H@std@@V?$allocator@U?$pair@$$CBHPAVTUnionInfo@@@std@@@3@$0A@@std@@@std@@@std@@V12@@std@@QAE@AAV?$_Tree_iterator@V?$_Tree_val@V?$_Tmap_traits@HPAVTUnionInfo@@U?$less@H@std@@V?$allocator@U?$pair@$$CBHPAVTUnionInfo@@@std@@@3@$0A@@std@@@std@@@1@0@Z PROC ; std::pair<std::_Tree_iterator<std::_Tree_val<std::_Tmap_traits<int,TUnionInfo *,std::less<int>,std::allocator<std::pair<int const ,TUnionInfo *> >,0> > >,std::_Tree_iterator<std::_Tree_val<std::_Tmap_traits<int,TUnionInfo *,std::less<int>,std::allocator<std::pair<int const ,TUnionInfo *> >,0> > > >::pair<std::_Tree_iterator<std::_Tree_val<std::_Tmap_traits<int,TUnionInfo *,std::less<int>,std::allocator<std::pair<int const ,TUnionInfo *> >,0> > >,std::_Tree_iterator<std::_Tree_val<std::_Tmap_traits<int,TUnionInfo *,std::less<int>,std::allocator<std::pair<int const ,TUnionInfo *> >,0> > > ><std::_Tree_iterator<std::_Tree_val<std::_Tmap_traits<int,TUnionInfo *,std::less<int>,std::allocator<std::pair<int const ,TUnionInfo *> >,0> > > &,std::_Tree_iterator<std::_Tree_val<std::_Tmap_traits<int,TUnionInfo *,std::less<int>,std::allocator<std::pair<int const ,TUnionInfo *> >,0> > > &>, COMDAT
; _this$ = ecx

; 247  : 		{	// construct from moved values

  00000	55		 push	 ebp
  00001	8b ec		 mov	 ebp, esp
  00003	8b c1		 mov	 eax, ecx
  00005	8b 4d 08	 mov	 ecx, DWORD PTR __Val1$[ebp]
  00008	8b 11		 mov	 edx, DWORD PTR [ecx]
  0000a	8b 4d 0c	 mov	 ecx, DWORD PTR __Val2$[ebp]
  0000d	89 10		 mov	 DWORD PTR [eax], edx
  0000f	8b 11		 mov	 edx, DWORD PTR [ecx]
  00011	89 50 04	 mov	 DWORD PTR [eax+4], edx

; 248  : 		}

  00014	5d		 pop	 ebp
  00015	c2 08 00	 ret	 8
??$?0AAV?$_Tree_iterator@V?$_Tree_val@V?$_Tmap_traits@HPAVTUnionInfo@@U?$less@H@std@@V?$allocator@U?$pair@$$CBHPAVTUnionInfo@@@std@@@3@$0A@@std@@@std@@@std@@AAV01@@?$pair@V?$_Tree_iterator@V?$_Tree_val@V?$_Tmap_traits@HPAVTUnionInfo@@U?$less@H@std@@V?$allocator@U?$pair@$$CBHPAVTUnionInfo@@@std@@@3@$0A@@std@@@std@@@std@@V12@@std@@QAE@AAV?$_Tree_iterator@V?$_Tree_val@V?$_Tmap_traits@HPAVTUnionInfo@@U?$less@H@std@@V?$allocator@U?$pair@$$CBHPAVTUnionInfo@@@std@@@3@$0A@@std@@@std@@@1@0@Z ENDP ; std::pair<std::_Tree_iterator<std::_Tree_val<std::_Tmap_traits<int,TUnionInfo *,std::less<int>,std::allocator<std::pair<int const ,TUnionInfo *> >,0> > >,std::_Tree_iterator<std::_Tree_val<std::_Tmap_traits<int,TUnionInfo *,std::less<int>,std::allocator<std::pair<int const ,TUnionInfo *> >,0> > > >::pair<std::_Tree_iterator<std::_Tree_val<std::_Tmap_traits<int,TUnionInfo *,std::less<int>,std::allocator<std::pair<int const ,TUnionInfo *> >,0> > >,std::_Tree_iterator<std::_Tree_val<std::_Tmap_traits<int,TUnionInfo *,std::less<int>,std::allocator<std::pair<int const ,TUnionInfo *> >,0> > > ><std::_Tree_iterator<std::_Tree_val<std::_Tmap_traits<int,TUnionInfo *,std::less<int>,std::allocator<std::pair<int const ,TUnionInfo *> >,0> > > &,std::_Tree_iterator<std::_Tree_val<std::_Tmap_traits<int,TUnionInfo *,std::less<int>,std::allocator<std::pair<int const ,TUnionInfo *> >,0> > > &>
_TEXT	ENDS
PUBLIC	??$_Destroy_range@V?$allocator@H@std@@@std@@YAXPAH0AAV?$allocator@H@0@@Z ; std::_Destroy_range<std::allocator<int> >
; Function compile flags: /Ogtp
; File c:\program files (x86)\microsoft visual studio 10.0\vc\include\xmemory
;	COMDAT ??$_Destroy_range@V?$allocator@H@std@@@std@@YAXPAH0AAV?$allocator@H@0@@Z
_TEXT	SEGMENT
__First$ = 8						; size = 4
__Last$ = 12						; size = 4
__Al$ = 16						; size = 4
??$_Destroy_range@V?$allocator@H@std@@@std@@YAXPAH0AAV?$allocator@H@0@@Z PROC ; std::_Destroy_range<std::allocator<int> >, COMDAT

; 88   : 	_Destroy_range(_First, _Last, _Al, _Ptr_cat(_First, _Last));
; 89   : 	}

  00000	c3		 ret	 0
??$_Destroy_range@V?$allocator@H@std@@@std@@YAXPAH0AAV?$allocator@H@0@@Z ENDP ; std::_Destroy_range<std::allocator<int> >
_TEXT	ENDS
PUBLIC	__TI2?AVbad_alloc@std@@
PUBLIC	??$_Allocate@H@std@@YAPAHIPAH@Z			; std::_Allocate<int>
PUBLIC	__CTA2?AVbad_alloc@std@@
PUBLIC	__CT??_R0?AVbad_alloc@std@@@8??0bad_alloc@std@@QAE@ABV01@@Z12
PUBLIC	??0bad_alloc@std@@QAE@ABV01@@Z			; std::bad_alloc::bad_alloc
PUBLIC	__CT??_R0?AVexception@std@@@8??0exception@std@@QAE@ABV01@@Z12
EXTRN	??2@YAPAXI@Z:PROC				; operator new
EXTRN	__CxxThrowException@8:PROC
EXTRN	??0exception@std@@QAE@ABV01@@Z:PROC		; std::exception::exception
;	COMDAT __CT??_R0?AVexception@std@@@8??0exception@std@@QAE@ABV01@@Z12
; File c:\program files (x86)\microsoft visual studio 10.0\vc\include\exception
xdata$x	SEGMENT
__CT??_R0?AVexception@std@@@8??0exception@std@@QAE@ABV01@@Z12 DD 00H
	DD	FLAT:??_R0?AVexception@std@@@8
	DD	00H
	DD	0ffffffffH
	ORG $+4
	DD	0cH
	DD	FLAT:??0exception@std@@QAE@ABV01@@Z
xdata$x	ENDS
;	COMDAT __CT??_R0?AVbad_alloc@std@@@8??0bad_alloc@std@@QAE@ABV01@@Z12
xdata$x	SEGMENT
__CT??_R0?AVbad_alloc@std@@@8??0bad_alloc@std@@QAE@ABV01@@Z12 DD 00H
	DD	FLAT:??_R0?AVbad_alloc@std@@@8
	DD	00H
	DD	0ffffffffH
	ORG $+4
	DD	0cH
	DD	FLAT:??0bad_alloc@std@@QAE@ABV01@@Z
xdata$x	ENDS
;	COMDAT __CTA2?AVbad_alloc@std@@
xdata$x	SEGMENT
__CTA2?AVbad_alloc@std@@ DD 02H
	DD	FLAT:__CT??_R0?AVbad_alloc@std@@@8??0bad_alloc@std@@QAE@ABV01@@Z12
	DD	FLAT:__CT??_R0?AVexception@std@@@8??0exception@std@@QAE@ABV01@@Z12
xdata$x	ENDS
;	COMDAT __TI2?AVbad_alloc@std@@
xdata$x	SEGMENT
__TI2?AVbad_alloc@std@@ DD 00H
	DD	FLAT:??1bad_alloc@std@@UAE@XZ
	DD	00H
	DD	FLAT:__CTA2?AVbad_alloc@std@@
; Function compile flags: /Ogtp
; File c:\program files (x86)\microsoft visual studio 10.0\vc\include\xmemory
xdata$x	ENDS
;	COMDAT ??$_Allocate@H@std@@YAPAHIPAH@Z
_TEXT	SEGMENT
$T158546 = -12						; size = 12
$T158551 = 8						; size = 4
__Count$ = 8						; size = 4
___formal$ = 12						; size = 4
??$_Allocate@H@std@@YAPAHIPAH@Z PROC			; std::_Allocate<int>, COMDAT

; 30   : 	{	// allocate storage for _Count elements of type _Ty

  00000	55		 push	 ebp
  00001	8b ec		 mov	 ebp, esp

; 31   : 	void *_Ptr = 0;
; 32   : 
; 33   : 	if (_Count <= 0)

  00003	8b 4d 08	 mov	 ecx, DWORD PTR __Count$[ebp]
  00006	83 ec 0c	 sub	 esp, 12			; 0000000cH
  00009	33 c0		 xor	 eax, eax
  0000b	85 c9		 test	 ecx, ecx

; 34   : 		_Count = 0;
; 35   : 	else if (((_SIZT)(-1) / sizeof (_Ty) < _Count)

  0000d	74 44		 je	 SHORT $LN5@Allocate

; 36   : 		|| (_Ptr = ::operator new(_Count * sizeof (_Ty))) == 0)

  0000f	81 f9 ff ff ff
	3f		 cmp	 ecx, 1073741823		; 3fffffffH
  00015	77 14		 ja	 SHORT $LN1@Allocate
  00017	8d 04 8d 00 00
	00 00		 lea	 eax, DWORD PTR [ecx*4]
  0001e	50		 push	 eax
  0001f	e8 00 00 00 00	 call	 ??2@YAPAXI@Z		; operator new
  00024	83 c4 04	 add	 esp, 4
  00027	85 c0		 test	 eax, eax

; 38   : 
; 39   : 	return ((_Ty _FARQ *)_Ptr);

  00029	75 28		 jne	 SHORT $LN5@Allocate
$LN1@Allocate:

; 37   : 		_THROW_NCEE(bad_alloc, 0);

  0002b	8d 4d 08	 lea	 ecx, DWORD PTR $T158551[ebp]
  0002e	51		 push	 ecx
  0002f	8d 4d f4	 lea	 ecx, DWORD PTR $T158546[ebp]
  00032	c7 45 08 00 00
	00 00		 mov	 DWORD PTR $T158551[ebp], 0
  00039	e8 00 00 00 00	 call	 ??0exception@std@@QAE@ABQBD@Z ; std::exception::exception
  0003e	68 00 00 00 00	 push	 OFFSET __TI2?AVbad_alloc@std@@
  00043	8d 55 f4	 lea	 edx, DWORD PTR $T158546[ebp]
  00046	52		 push	 edx
  00047	c7 45 f4 00 00
	00 00		 mov	 DWORD PTR $T158546[ebp], OFFSET ??_7bad_alloc@std@@6B@
  0004e	e8 00 00 00 00	 call	 __CxxThrowException@8
$LN10@Allocate:
$LN5@Allocate:

; 40   : 	}

  00053	8b e5		 mov	 esp, ebp
  00055	5d		 pop	 ebp
  00056	c3		 ret	 0
$LN9@Allocate:
??$_Allocate@H@std@@YAPAHIPAH@Z ENDP			; std::_Allocate<int>
; Function compile flags: /Ogtp
_TEXT	ENDS
;	COMDAT ??0bad_alloc@std@@QAE@ABV01@@Z
_TEXT	SEGMENT
___that$ = 8						; size = 4
??0bad_alloc@std@@QAE@ABV01@@Z PROC			; std::bad_alloc::bad_alloc, COMDAT
; _this$ = ecx
  00000	55		 push	 ebp
  00001	8b ec		 mov	 ebp, esp
  00003	8b 45 08	 mov	 eax, DWORD PTR ___that$[ebp]
  00006	56		 push	 esi
  00007	50		 push	 eax
  00008	8b f1		 mov	 esi, ecx
  0000a	e8 00 00 00 00	 call	 ??0exception@std@@QAE@ABV01@@Z ; std::exception::exception
  0000f	c7 06 00 00 00
	00		 mov	 DWORD PTR [esi], OFFSET ??_7bad_alloc@std@@6B@
  00015	8b c6		 mov	 eax, esi
  00017	5e		 pop	 esi
  00018	5d		 pop	 ebp
  00019	c2 04 00	 ret	 4
??0bad_alloc@std@@QAE@ABV01@@Z ENDP			; std::bad_alloc::bad_alloc
_TEXT	ENDS
PUBLIC	??$_Allocate@U_Node@?$_Tree_nod@V?$_Tmap_traits@HPAVTUnionInfo@@U?$less@H@std@@V?$allocator@U?$pair@$$CBHPAVTUnionInfo@@@std@@@3@$0A@@std@@@std@@@std@@YAPAU_Node@?$_Tree_nod@V?$_Tmap_traits@HPAVTUnionInfo@@U?$less@H@std@@V?$allocator@U?$pair@$$CBHPAVTUnionInfo@@@std@@@3@$0A@@std@@@0@IPAU120@@Z ; std::_Allocate<std::_Tree_nod<std::_Tmap_traits<int,TUnionInfo *,std::less<int>,std::allocator<std::pair<int const ,TUnionInfo *> >,0> >::_Node>
; Function compile flags: /Ogtp
;	COMDAT ??$_Allocate@U_Node@?$_Tree_nod@V?$_Tmap_traits@HPAVTUnionInfo@@U?$less@H@std@@V?$allocator@U?$pair@$$CBHPAVTUnionInfo@@@std@@@3@$0A@@std@@@std@@@std@@YAPAU_Node@?$_Tree_nod@V?$_Tmap_traits@HPAVTUnionInfo@@U?$less@H@std@@V?$allocator@U?$pair@$$CBHPAVTUnionInfo@@@std@@@3@$0A@@std@@@0@IPAU120@@Z
_TEXT	SEGMENT
$T158559 = -12						; size = 12
$T158563 = 8						; size = 4
__Count$ = 8						; size = 4
___formal$ = 12						; size = 4
??$_Allocate@U_Node@?$_Tree_nod@V?$_Tmap_traits@HPAVTUnionInfo@@U?$less@H@std@@V?$allocator@U?$pair@$$CBHPAVTUnionInfo@@@std@@@3@$0A@@std@@@std@@@std@@YAPAU_Node@?$_Tree_nod@V?$_Tmap_traits@HPAVTUnionInfo@@U?$less@H@std@@V?$allocator@U?$pair@$$CBHPAVTUnionInfo@@@std@@@3@$0A@@std@@@0@IPAU120@@Z PROC ; std::_Allocate<std::_Tree_nod<std::_Tmap_traits<int,TUnionInfo *,std::less<int>,std::allocator<std::pair<int const ,TUnionInfo *> >,0> >::_Node>, COMDAT

; 30   : 	{	// allocate storage for _Count elements of type _Ty

  00000	55		 push	 ebp
  00001	8b ec		 mov	 ebp, esp

; 31   : 	void *_Ptr = 0;
; 32   : 
; 33   : 	if (_Count <= 0)

  00003	8b 4d 08	 mov	 ecx, DWORD PTR __Count$[ebp]
  00006	83 ec 0c	 sub	 esp, 12			; 0000000cH
  00009	33 c0		 xor	 eax, eax
  0000b	85 c9		 test	 ecx, ecx

; 34   : 		_Count = 0;
; 35   : 	else if (((_SIZT)(-1) / sizeof (_Ty) < _Count)

  0000d	74 46		 je	 SHORT $LN5@Allocate@2

; 36   : 		|| (_Ptr = ::operator new(_Count * sizeof (_Ty))) == 0)

  0000f	81 f9 aa aa aa
	0a		 cmp	 ecx, 178956970		; 0aaaaaaaH
  00015	77 16		 ja	 SHORT $LN1@Allocate@2
  00017	8d 04 49	 lea	 eax, DWORD PTR [ecx+ecx*2]
  0001a	03 c0		 add	 eax, eax
  0001c	03 c0		 add	 eax, eax
  0001e	03 c0		 add	 eax, eax
  00020	50		 push	 eax
  00021	e8 00 00 00 00	 call	 ??2@YAPAXI@Z		; operator new
  00026	83 c4 04	 add	 esp, 4
  00029	85 c0		 test	 eax, eax

; 38   : 
; 39   : 	return ((_Ty _FARQ *)_Ptr);

  0002b	75 28		 jne	 SHORT $LN5@Allocate@2
$LN1@Allocate@2:

; 37   : 		_THROW_NCEE(bad_alloc, 0);

  0002d	8d 4d 08	 lea	 ecx, DWORD PTR $T158563[ebp]
  00030	51		 push	 ecx
  00031	8d 4d f4	 lea	 ecx, DWORD PTR $T158559[ebp]
  00034	c7 45 08 00 00
	00 00		 mov	 DWORD PTR $T158563[ebp], 0
  0003b	e8 00 00 00 00	 call	 ??0exception@std@@QAE@ABQBD@Z ; std::exception::exception
  00040	68 00 00 00 00	 push	 OFFSET __TI2?AVbad_alloc@std@@
  00045	8d 55 f4	 lea	 edx, DWORD PTR $T158559[ebp]
  00048	52		 push	 edx
  00049	c7 45 f4 00 00
	00 00		 mov	 DWORD PTR $T158559[ebp], OFFSET ??_7bad_alloc@std@@6B@
  00050	e8 00 00 00 00	 call	 __CxxThrowException@8
$LN10@Allocate@2:
$LN5@Allocate@2:

; 40   : 	}

  00055	8b e5		 mov	 esp, ebp
  00057	5d		 pop	 ebp
  00058	c3		 ret	 0
$LN9@Allocate@2:
??$_Allocate@U_Node@?$_Tree_nod@V?$_Tmap_traits@HPAVTUnionInfo@@U?$less@H@std@@V?$allocator@U?$pair@$$CBHPAVTUnionInfo@@@std@@@3@$0A@@std@@@std@@@std@@YAPAU_Node@?$_Tree_nod@V?$_Tmap_traits@HPAVTUnionInfo@@U?$less@H@std@@V?$allocator@U?$pair@$$CBHPAVTUnionInfo@@@std@@@3@$0A@@std@@@0@IPAU120@@Z ENDP ; std::_Allocate<std::_Tree_nod<std::_Tmap_traits<int,TUnionInfo *,std::less<int>,std::allocator<std::pair<int const ,TUnionInfo *> >,0> >::_Node>
_TEXT	ENDS
PUBLIC	?construct@?$allocator@H@std@@QAEXPAHABH@Z	; std::allocator<int>::construct
; Function compile flags: /Ogtp
;	COMDAT ?construct@?$allocator@H@std@@QAEXPAHABH@Z
_TEXT	SEGMENT
__Ptr$ = 8						; size = 4
__Val$ = 12						; size = 4
?construct@?$allocator@H@std@@QAEXPAHABH@Z PROC		; std::allocator<int>::construct, COMDAT
; _this$ = ecx

; 196  : 		{	// construct object at _Ptr with value _Val

  00000	55		 push	 ebp
  00001	8b ec		 mov	 ebp, esp

; 197  : 		_Construct(_Ptr, _Val);

  00003	8b 45 08	 mov	 eax, DWORD PTR __Ptr$[ebp]
  00006	85 c0		 test	 eax, eax
  00008	74 07		 je	 SHORT $LN5@construct@2
  0000a	8b 4d 0c	 mov	 ecx, DWORD PTR __Val$[ebp]
  0000d	8b 11		 mov	 edx, DWORD PTR [ecx]
  0000f	89 10		 mov	 DWORD PTR [eax], edx
$LN5@construct@2:

; 198  : 		}

  00011	5d		 pop	 ebp
  00012	c2 08 00	 ret	 8
?construct@?$allocator@H@std@@QAEXPAHABH@Z ENDP		; std::allocator<int>::construct
_TEXT	ENDS
PUBLIC	?destroy@?$allocator@U?$pair@$$CBHPAVTUnionInfo@@@std@@@std@@QAEXPAU?$pair@$$CBHPAVTUnionInfo@@@2@@Z ; std::allocator<std::pair<int const ,TUnionInfo *> >::destroy
; Function compile flags: /Ogtp
;	COMDAT ?destroy@?$allocator@U?$pair@$$CBHPAVTUnionInfo@@@std@@@std@@QAEXPAU?$pair@$$CBHPAVTUnionInfo@@@2@@Z
_TEXT	SEGMENT
__Ptr$ = 8						; size = 4
?destroy@?$allocator@U?$pair@$$CBHPAVTUnionInfo@@@std@@@std@@QAEXPAU?$pair@$$CBHPAVTUnionInfo@@@2@@Z PROC ; std::allocator<std::pair<int const ,TUnionInfo *> >::destroy, COMDAT
; _this$ = ecx

; 213  : 		_Destroy(_Ptr);
; 214  : 		}

  00000	c2 04 00	 ret	 4
?destroy@?$allocator@U?$pair@$$CBHPAVTUnionInfo@@@std@@@std@@QAEXPAU?$pair@$$CBHPAVTUnionInfo@@@2@@Z ENDP ; std::allocator<std::pair<int const ,TUnionInfo *> >::destroy
_TEXT	ENDS
PUBLIC	??F?$_Tree_const_iterator@V?$_Tree_val@V?$_Tmap_traits@HPAVTUnionInfo@@U?$less@H@std@@V?$allocator@U?$pair@$$CBHPAVTUnionInfo@@@std@@@3@$0A@@std@@@std@@@std@@QAEAAV01@XZ ; std::_Tree_const_iterator<std::_Tree_val<std::_Tmap_traits<int,TUnionInfo *,std::less<int>,std::allocator<std::pair<int const ,TUnionInfo *> >,0> > >::operator--
; Function compile flags: /Ogtp
; File c:\program files (x86)\microsoft visual studio 10.0\vc\include\xtree
;	COMDAT ??F?$_Tree_const_iterator@V?$_Tree_val@V?$_Tmap_traits@HPAVTUnionInfo@@U?$less@H@std@@V?$allocator@U?$pair@$$CBHPAVTUnionInfo@@@std@@@3@$0A@@std@@@std@@@std@@QAEAAV01@XZ
_TEXT	SEGMENT
??F?$_Tree_const_iterator@V?$_Tree_val@V?$_Tmap_traits@HPAVTUnionInfo@@U?$less@H@std@@V?$allocator@U?$pair@$$CBHPAVTUnionInfo@@@std@@@3@$0A@@std@@@std@@@std@@QAEAAV01@XZ PROC ; std::_Tree_const_iterator<std::_Tree_val<std::_Tmap_traits<int,TUnionInfo *,std::less<int>,std::allocator<std::pair<int const ,TUnionInfo *> >,0> > >::operator--, COMDAT
; _this$ = ecx

; 277  : 		{	// predecrement

  00000	56		 push	 esi
  00001	8b f1		 mov	 esi, ecx

; 278  :  #if _ITERATOR_DEBUG_LEVEL == 2
; 279  : 		if (this->_Getcont() == 0
; 280  : 			|| this->_Ptr == 0)
; 281  : 			{	// report error
; 282  : 			_DEBUG_ERROR("map/set iterator not decrementable");
; 283  : 			_SCL_SECURE_OUT_OF_RANGE;
; 284  : 			}
; 285  : 
; 286  : 		_Nodeptr _Ptrsav = this->_Ptr;
; 287  : 		--(*(_Mybase *)this);
; 288  : 		if (_Ptrsav == this->_Ptr)
; 289  : 			{	// report error
; 290  : 			_DEBUG_ERROR("map/set iterator not decrementable");
; 291  : 			_SCL_SECURE_OUT_OF_RANGE;
; 292  : 			}
; 293  : 
; 294  :  #elif _ITERATOR_DEBUG_LEVEL == 1
; 295  : 		_SCL_SECURE_VALIDATE(this->_Getcont() != 0 && this->_Ptr != 0);
; 296  : 
; 297  : 		_Nodeptr _Ptrsav = this->_Ptr;
; 298  : 		--(*(_Mybase *)this);
; 299  : 		_SCL_SECURE_VALIDATE(_Ptrsav != this->_Ptr);
; 300  : 
; 301  :  #else /* _ITERATOR_DEBUG_LEVEL == 0 */
; 302  : 		--(*(_Mybase *)this);

  00003	e8 00 00 00 00	 call	 ??F?$_Tree_unchecked_const_iterator@V?$_Tree_val@V?$_Tmap_traits@HPAVTUnionInfo@@U?$less@H@std@@V?$allocator@U?$pair@$$CBHPAVTUnionInfo@@@std@@@3@$0A@@std@@@std@@U_Iterator_base0@2@@std@@QAEAAV01@XZ ; std::_Tree_unchecked_const_iterator<std::_Tree_val<std::_Tmap_traits<int,TUnionInfo *,std::less<int>,std::allocator<std::pair<int const ,TUnionInfo *> >,0> >,std::_Iterator_base0>::operator--

; 303  :  #endif /* _ITERATOR_DEBUG_LEVEL */
; 304  : 
; 305  : 		return (*this);

  00008	8b c6		 mov	 eax, esi
  0000a	5e		 pop	 esi

; 306  : 		}

  0000b	c3		 ret	 0
??F?$_Tree_const_iterator@V?$_Tree_val@V?$_Tmap_traits@HPAVTUnionInfo@@U?$less@H@std@@V?$allocator@U?$pair@$$CBHPAVTUnionInfo@@@std@@@3@$0A@@std@@@std@@@std@@QAEAAV01@XZ ENDP ; std::_Tree_const_iterator<std::_Tree_val<std::_Tmap_traits<int,TUnionInfo *,std::less<int>,std::allocator<std::pair<int const ,TUnionInfo *> >,0> > >::operator--
_TEXT	ENDS
PUBLIC	?max_size@?$_Tree@V?$_Tmap_traits@HPAVTUnionInfo@@U?$less@H@std@@V?$allocator@U?$pair@$$CBHPAVTUnionInfo@@@std@@@3@$0A@@std@@@std@@QBEIXZ ; std::_Tree<std::_Tmap_traits<int,TUnionInfo *,std::less<int>,std::allocator<std::pair<int const ,TUnionInfo *> >,0> >::max_size
; Function compile flags: /Ogtp
;	COMDAT ?max_size@?$_Tree@V?$_Tmap_traits@HPAVTUnionInfo@@U?$less@H@std@@V?$allocator@U?$pair@$$CBHPAVTUnionInfo@@@std@@@3@$0A@@std@@@std@@QBEIXZ
_TEXT	SEGMENT
?max_size@?$_Tree@V?$_Tmap_traits@HPAVTUnionInfo@@U?$less@H@std@@V?$allocator@U?$pair@$$CBHPAVTUnionInfo@@@std@@@3@$0A@@std@@@std@@QBEIXZ PROC ; std::_Tree<std::_Tmap_traits<int,TUnionInfo *,std::less<int>,std::allocator<std::pair<int const ,TUnionInfo *> >,0> >::max_size, COMDAT
; _this$ = ecx

; 874  : 		return (this->_Alval.max_size());

  00000	b8 ff ff ff 1f	 mov	 eax, 536870911		; 1fffffffH

; 875  : 		}

  00005	c3		 ret	 0
?max_size@?$_Tree@V?$_Tmap_traits@HPAVTUnionInfo@@U?$less@H@std@@V?$allocator@U?$pair@$$CBHPAVTUnionInfo@@@std@@@3@$0A@@std@@@std@@QBEIXZ ENDP ; std::_Tree<std::_Tmap_traits<int,TUnionInfo *,std::less<int>,std::allocator<std::pair<int const ,TUnionInfo *> >,0> >::max_size
_TEXT	ENDS
PUBLIC	??F?$_Tree_iterator@V?$_Tree_val@V?$_Tmap_traits@HPAVTUnionInfo@@U?$less@H@std@@V?$allocator@U?$pair@$$CBHPAVTUnionInfo@@@std@@@3@$0A@@std@@@std@@@std@@QAEAAV01@XZ ; std::_Tree_iterator<std::_Tree_val<std::_Tmap_traits<int,TUnionInfo *,std::less<int>,std::allocator<std::pair<int const ,TUnionInfo *> >,0> > >::operator--
; Function compile flags: /Ogtp
;	COMDAT ??F?$_Tree_iterator@V?$_Tree_val@V?$_Tmap_traits@HPAVTUnionInfo@@U?$less@H@std@@V?$allocator@U?$pair@$$CBHPAVTUnionInfo@@@std@@@3@$0A@@std@@@std@@@std@@QAEAAV01@XZ
_TEXT	SEGMENT
??F?$_Tree_iterator@V?$_Tree_val@V?$_Tmap_traits@HPAVTUnionInfo@@U?$less@H@std@@V?$allocator@U?$pair@$$CBHPAVTUnionInfo@@@std@@@3@$0A@@std@@@std@@@std@@QAEAAV01@XZ PROC ; std::_Tree_iterator<std::_Tree_val<std::_Tmap_traits<int,TUnionInfo *,std::less<int>,std::allocator<std::pair<int const ,TUnionInfo *> >,0> > >::operator--, COMDAT
; _this$ = ecx

; 418  : 		{	// predecrement

  00000	56		 push	 esi
  00001	8b f1		 mov	 esi, ecx

; 419  : 		--(*(_Mybase *)this);

  00003	e8 00 00 00 00	 call	 ??F?$_Tree_unchecked_const_iterator@V?$_Tree_val@V?$_Tmap_traits@HPAVTUnionInfo@@U?$less@H@std@@V?$allocator@U?$pair@$$CBHPAVTUnionInfo@@@std@@@3@$0A@@std@@@std@@U_Iterator_base0@2@@std@@QAEAAV01@XZ ; std::_Tree_unchecked_const_iterator<std::_Tree_val<std::_Tmap_traits<int,TUnionInfo *,std::less<int>,std::allocator<std::pair<int const ,TUnionInfo *> >,0> >,std::_Iterator_base0>::operator--

; 420  : 		return (*this);

  00008	8b c6		 mov	 eax, esi
  0000a	5e		 pop	 esi

; 421  : 		}

  0000b	c3		 ret	 0
??F?$_Tree_iterator@V?$_Tree_val@V?$_Tmap_traits@HPAVTUnionInfo@@U?$less@H@std@@V?$allocator@U?$pair@$$CBHPAVTUnionInfo@@@std@@@3@$0A@@std@@@std@@@std@@QAEAAV01@XZ ENDP ; std::_Tree_iterator<std::_Tree_val<std::_Tmap_traits<int,TUnionInfo *,std::less<int>,std::allocator<std::pair<int const ,TUnionInfo *> >,0> > >::operator--
_TEXT	ENDS
PUBLIC	??0?$_Pair_base@V?$_Tree_iterator@V?$_Tree_val@V?$_Tmap_traits@HPAVTUnionInfo@@U?$less@H@std@@V?$allocator@U?$pair@$$CBHPAVTUnionInfo@@@std@@@3@$0A@@std@@@std@@@std@@_N@std@@QAE@$$QAV?$_Tree_iterator@V?$_Tree_val@V?$_Tmap_traits@HPAVTUnionInfo@@U?$less@H@std@@V?$allocator@U?$pair@$$CBHPAVTUnionInfo@@@std@@@3@$0A@@std@@@std@@@1@$$QA_N@Z ; std::_Pair_base<std::_Tree_iterator<std::_Tree_val<std::_Tmap_traits<int,TUnionInfo *,std::less<int>,std::allocator<std::pair<int const ,TUnionInfo *> >,0> > >,bool>::_Pair_base<std::_Tree_iterator<std::_Tree_val<std::_Tmap_traits<int,TUnionInfo *,std::less<int>,std::allocator<std::pair<int const ,TUnionInfo *> >,0> > >,bool>
; Function compile flags: /Ogtp
; File c:\program files (x86)\microsoft visual studio 10.0\vc\include\utility
;	COMDAT ??0?$_Pair_base@V?$_Tree_iterator@V?$_Tree_val@V?$_Tmap_traits@HPAVTUnionInfo@@U?$less@H@std@@V?$allocator@U?$pair@$$CBHPAVTUnionInfo@@@std@@@3@$0A@@std@@@std@@@std@@_N@std@@QAE@$$QAV?$_Tree_iterator@V?$_Tree_val@V?$_Tmap_traits@HPAVTUnionInfo@@U?$less@H@std@@V?$allocator@U?$pair@$$CBHPAVTUnionInfo@@@std@@@3@$0A@@std@@@std@@@1@$$QA_N@Z
_TEXT	SEGMENT
__Val1$ = 8						; size = 4
__Val2$ = 12						; size = 4
??0?$_Pair_base@V?$_Tree_iterator@V?$_Tree_val@V?$_Tmap_traits@HPAVTUnionInfo@@U?$less@H@std@@V?$allocator@U?$pair@$$CBHPAVTUnionInfo@@@std@@@3@$0A@@std@@@std@@@std@@_N@std@@QAE@$$QAV?$_Tree_iterator@V?$_Tree_val@V?$_Tmap_traits@HPAVTUnionInfo@@U?$less@H@std@@V?$allocator@U?$pair@$$CBHPAVTUnionInfo@@@std@@@3@$0A@@std@@@std@@@1@$$QA_N@Z PROC ; std::_Pair_base<std::_Tree_iterator<std::_Tree_val<std::_Tmap_traits<int,TUnionInfo *,std::less<int>,std::allocator<std::pair<int const ,TUnionInfo *> >,0> > >,bool>::_Pair_base<std::_Tree_iterator<std::_Tree_val<std::_Tmap_traits<int,TUnionInfo *,std::less<int>,std::allocator<std::pair<int const ,TUnionInfo *> >,0> > >,bool>, COMDAT
; _this$ = ecx

; 145  : 		{	// construct from specified values

  00000	55		 push	 ebp
  00001	8b ec		 mov	 ebp, esp
  00003	8b c1		 mov	 eax, ecx
  00005	8b 4d 08	 mov	 ecx, DWORD PTR __Val1$[ebp]
  00008	8b 11		 mov	 edx, DWORD PTR [ecx]
  0000a	8b 4d 0c	 mov	 ecx, DWORD PTR __Val2$[ebp]
  0000d	89 10		 mov	 DWORD PTR [eax], edx
  0000f	8a 11		 mov	 dl, BYTE PTR [ecx]
  00011	88 50 04	 mov	 BYTE PTR [eax+4], dl

; 146  : 		}

  00014	5d		 pop	 ebp
  00015	c2 08 00	 ret	 8
??0?$_Pair_base@V?$_Tree_iterator@V?$_Tree_val@V?$_Tmap_traits@HPAVTUnionInfo@@U?$less@H@std@@V?$allocator@U?$pair@$$CBHPAVTUnionInfo@@@std@@@3@$0A@@std@@@std@@@std@@_N@std@@QAE@$$QAV?$_Tree_iterator@V?$_Tree_val@V?$_Tmap_traits@HPAVTUnionInfo@@U?$less@H@std@@V?$allocator@U?$pair@$$CBHPAVTUnionInfo@@@std@@@3@$0A@@std@@@std@@@1@$$QA_N@Z ENDP ; std::_Pair_base<std::_Tree_iterator<std::_Tree_val<std::_Tmap_traits<int,TUnionInfo *,std::less<int>,std::allocator<std::pair<int const ,TUnionInfo *> >,0> > >,bool>::_Pair_base<std::_Tree_iterator<std::_Tree_val<std::_Tmap_traits<int,TUnionInfo *,std::less<int>,std::allocator<std::pair<int const ,TUnionInfo *> >,0> > >,bool>
_TEXT	ENDS
PUBLIC	??$_Uninitialized_move@PAHPAHV?$allocator@H@std@@@std@@YAPAHPAH00AAV?$allocator@H@0@@Z ; std::_Uninitialized_move<int *,int *,std::allocator<int> >
; Function compile flags: /Ogtp
; File c:\program files (x86)\microsoft visual studio 10.0\vc\include\memory
;	COMDAT ??$_Uninitialized_move@PAHPAHV?$allocator@H@std@@@std@@YAPAHPAH00AAV?$allocator@H@0@@Z
_TEXT	SEGMENT
__First$ = 8						; size = 4
__Last$ = 12						; size = 4
__Dest$ = 16						; size = 4
__Al$ = 20						; size = 4
??$_Uninitialized_move@PAHPAHV?$allocator@H@std@@@std@@YAPAHPAH00AAV?$allocator@H@0@@Z PROC ; std::_Uninitialized_move<int *,int *,std::allocator<int> >, COMDAT

; 469  : 	{	// move [_First, _Last) to raw _Dest, using _Al

  00000	55		 push	 ebp
  00001	8b ec		 mov	 ebp, esp

; 470  : 	return (_Uninit_move(_First, _Last, _Dest, _Al,
; 471  : 		_Val_type(_First), _Ptr_cat(_First, _Dest)));

  00003	8b 4d 08	 mov	 ecx, DWORD PTR __First$[ebp]
  00006	8b 45 0c	 mov	 eax, DWORD PTR __Last$[ebp]
  00009	2b c1		 sub	 eax, ecx
  0000b	56		 push	 esi
  0000c	c1 f8 02	 sar	 eax, 2
  0000f	8d 34 85 00 00
	00 00		 lea	 esi, DWORD PTR [eax*4]
  00016	8b 45 10	 mov	 eax, DWORD PTR __Dest$[ebp]
  00019	56		 push	 esi
  0001a	51		 push	 ecx
  0001b	50		 push	 eax
  0001c	e8 00 00 00 00	 call	 _memmove
  00021	83 c4 0c	 add	 esp, 12			; 0000000cH
  00024	03 c6		 add	 eax, esi
  00026	5e		 pop	 esi

; 472  : 	}

  00027	5d		 pop	 ebp
  00028	c3		 ret	 0
??$_Uninitialized_move@PAHPAHV?$allocator@H@std@@@std@@YAPAHPAH00AAV?$allocator@H@0@@Z ENDP ; std::_Uninitialized_move<int *,int *,std::allocator<int> >
_TEXT	ENDS
PUBLIC	??$?0AAV?$_Tree_iterator@V?$_Tree_val@V?$_Tmap_traits@HPAVTUnionInfo@@U?$less@H@std@@V?$allocator@U?$pair@$$CBHPAVTUnionInfo@@@std@@@3@$0A@@std@@@std@@@std@@_N@?$pair@V?$_Tree_iterator@V?$_Tree_val@V?$_Tmap_traits@HPAVTUnionInfo@@U?$less@H@std@@V?$allocator@U?$pair@$$CBHPAVTUnionInfo@@@std@@@3@$0A@@std@@@std@@@std@@_N@std@@QAE@AAV?$_Tree_iterator@V?$_Tree_val@V?$_Tmap_traits@HPAVTUnionInfo@@U?$less@H@std@@V?$allocator@U?$pair@$$CBHPAVTUnionInfo@@@std@@@3@$0A@@std@@@std@@@1@$$QA_N@Z ; std::pair<std::_Tree_iterator<std::_Tree_val<std::_Tmap_traits<int,TUnionInfo *,std::less<int>,std::allocator<std::pair<int const ,TUnionInfo *> >,0> > >,bool>::pair<std::_Tree_iterator<std::_Tree_val<std::_Tmap_traits<int,TUnionInfo *,std::less<int>,std::allocator<std::pair<int const ,TUnionInfo *> >,0> > >,bool><std::_Tree_iterator<std::_Tree_val<std::_Tmap_traits<int,TUnionInfo *,std::less<int>,std::allocator<std::pair<int const ,TUnionInfo *> >,0> > > &,bool>
; Function compile flags: /Ogtp
; File c:\program files (x86)\microsoft visual studio 10.0\vc\include\utility
;	COMDAT ??$?0AAV?$_Tree_iterator@V?$_Tree_val@V?$_Tmap_traits@HPAVTUnionInfo@@U?$less@H@std@@V?$allocator@U?$pair@$$CBHPAVTUnionInfo@@@std@@@3@$0A@@std@@@std@@@std@@_N@?$pair@V?$_Tree_iterator@V?$_Tree_val@V?$_Tmap_traits@HPAVTUnionInfo@@U?$less@H@std@@V?$allocator@U?$pair@$$CBHPAVTUnionInfo@@@std@@@3@$0A@@std@@@std@@@std@@_N@std@@QAE@AAV?$_Tree_iterator@V?$_Tree_val@V?$_Tmap_traits@HPAVTUnionInfo@@U?$less@H@std@@V?$allocator@U?$pair@$$CBHPAVTUnionInfo@@@std@@@3@$0A@@std@@@std@@@1@$$QA_N@Z
_TEXT	SEGMENT
__Val1$ = 8						; size = 4
__Val2$ = 12						; size = 4
??$?0AAV?$_Tree_iterator@V?$_Tree_val@V?$_Tmap_traits@HPAVTUnionInfo@@U?$less@H@std@@V?$allocator@U?$pair@$$CBHPAVTUnionInfo@@@std@@@3@$0A@@std@@@std@@@std@@_N@?$pair@V?$_Tree_iterator@V?$_Tree_val@V?$_Tmap_traits@HPAVTUnionInfo@@U?$less@H@std@@V?$allocator@U?$pair@$$CBHPAVTUnionInfo@@@std@@@3@$0A@@std@@@std@@@std@@_N@std@@QAE@AAV?$_Tree_iterator@V?$_Tree_val@V?$_Tmap_traits@HPAVTUnionInfo@@U?$less@H@std@@V?$allocator@U?$pair@$$CBHPAVTUnionInfo@@@std@@@3@$0A@@std@@@std@@@1@$$QA_N@Z PROC ; std::pair<std::_Tree_iterator<std::_Tree_val<std::_Tmap_traits<int,TUnionInfo *,std::less<int>,std::allocator<std::pair<int const ,TUnionInfo *> >,0> > >,bool>::pair<std::_Tree_iterator<std::_Tree_val<std::_Tmap_traits<int,TUnionInfo *,std::less<int>,std::allocator<std::pair<int const ,TUnionInfo *> >,0> > >,bool><std::_Tree_iterator<std::_Tree_val<std::_Tmap_traits<int,TUnionInfo *,std::less<int>,std::allocator<std::pair<int const ,TUnionInfo *> >,0> > > &,bool>, COMDAT
; _this$ = ecx

; 247  : 		{	// construct from moved values

  00000	55		 push	 ebp
  00001	8b ec		 mov	 ebp, esp
  00003	8b c1		 mov	 eax, ecx
  00005	8b 4d 08	 mov	 ecx, DWORD PTR __Val1$[ebp]
  00008	8b 11		 mov	 edx, DWORD PTR [ecx]
  0000a	8b 4d 0c	 mov	 ecx, DWORD PTR __Val2$[ebp]
  0000d	89 10		 mov	 DWORD PTR [eax], edx
  0000f	8a 11		 mov	 dl, BYTE PTR [ecx]
  00011	88 50 04	 mov	 BYTE PTR [eax+4], dl

; 248  : 		}

  00014	5d		 pop	 ebp
  00015	c2 08 00	 ret	 8
??$?0AAV?$_Tree_iterator@V?$_Tree_val@V?$_Tmap_traits@HPAVTUnionInfo@@U?$less@H@std@@V?$allocator@U?$pair@$$CBHPAVTUnionInfo@@@std@@@3@$0A@@std@@@std@@@std@@_N@?$pair@V?$_Tree_iterator@V?$_Tree_val@V?$_Tmap_traits@HPAVTUnionInfo@@U?$less@H@std@@V?$allocator@U?$pair@$$CBHPAVTUnionInfo@@@std@@@3@$0A@@std@@@std@@@std@@_N@std@@QAE@AAV?$_Tree_iterator@V?$_Tree_val@V?$_Tmap_traits@HPAVTUnionInfo@@U?$less@H@std@@V?$allocator@U?$pair@$$CBHPAVTUnionInfo@@@std@@@3@$0A@@std@@@std@@@1@$$QA_N@Z ENDP ; std::pair<std::_Tree_iterator<std::_Tree_val<std::_Tmap_traits<int,TUnionInfo *,std::less<int>,std::allocator<std::pair<int const ,TUnionInfo *> >,0> > >,bool>::pair<std::_Tree_iterator<std::_Tree_val<std::_Tmap_traits<int,TUnionInfo *,std::less<int>,std::allocator<std::pair<int const ,TUnionInfo *> >,0> > >,bool><std::_Tree_iterator<std::_Tree_val<std::_Tmap_traits<int,TUnionInfo *,std::less<int>,std::allocator<std::pair<int const ,TUnionInfo *> >,0> > > &,bool>
_TEXT	ENDS
PUBLIC	??0?$_Pair_base@$$CBHPAVTUnionInfo@@@std@@QAE@$$QBH$$QAPAVTUnionInfo@@@Z ; std::_Pair_base<int const ,TUnionInfo *>::_Pair_base<int const ,TUnionInfo *>
; Function compile flags: /Ogtp
;	COMDAT ??0?$_Pair_base@$$CBHPAVTUnionInfo@@@std@@QAE@$$QBH$$QAPAVTUnionInfo@@@Z
_TEXT	SEGMENT
__Val1$ = 8						; size = 4
__Val2$ = 12						; size = 4
??0?$_Pair_base@$$CBHPAVTUnionInfo@@@std@@QAE@$$QBH$$QAPAVTUnionInfo@@@Z PROC ; std::_Pair_base<int const ,TUnionInfo *>::_Pair_base<int const ,TUnionInfo *>, COMDAT
; _this$ = ecx

; 145  : 		{	// construct from specified values

  00000	55		 push	 ebp
  00001	8b ec		 mov	 ebp, esp
  00003	8b c1		 mov	 eax, ecx
  00005	8b 4d 08	 mov	 ecx, DWORD PTR __Val1$[ebp]
  00008	8b 11		 mov	 edx, DWORD PTR [ecx]
  0000a	8b 4d 0c	 mov	 ecx, DWORD PTR __Val2$[ebp]
  0000d	89 10		 mov	 DWORD PTR [eax], edx
  0000f	8b 11		 mov	 edx, DWORD PTR [ecx]
  00011	89 50 04	 mov	 DWORD PTR [eax+4], edx

; 146  : 		}

  00014	5d		 pop	 ebp
  00015	c2 08 00	 ret	 8
??0?$_Pair_base@$$CBHPAVTUnionInfo@@@std@@QAE@$$QBH$$QAPAVTUnionInfo@@@Z ENDP ; std::_Pair_base<int const ,TUnionInfo *>::_Pair_base<int const ,TUnionInfo *>
_TEXT	ENDS
PUBLIC	??0?$_Tree_iterator@V?$_Tree_val@V?$_Tmap_traits@HPAVTUnionInfo@@U?$less@H@std@@V?$allocator@U?$pair@$$CBHPAVTUnionInfo@@@std@@@3@$0A@@std@@@std@@@std@@QAE@XZ ; std::_Tree_iterator<std::_Tree_val<std::_Tmap_traits<int,TUnionInfo *,std::less<int>,std::allocator<std::pair<int const ,TUnionInfo *> >,0> > >::_Tree_iterator<std::_Tree_val<std::_Tmap_traits<int,TUnionInfo *,std::less<int>,std::allocator<std::pair<int const ,TUnionInfo *> >,0> > >
; Function compile flags: /Ogtp
; File c:\program files (x86)\microsoft visual studio 10.0\vc\include\xtree
;	COMDAT ??0?$_Tree_iterator@V?$_Tree_val@V?$_Tmap_traits@HPAVTUnionInfo@@U?$less@H@std@@V?$allocator@U?$pair@$$CBHPAVTUnionInfo@@@std@@@3@$0A@@std@@@std@@@std@@QAE@XZ
_TEXT	SEGMENT
??0?$_Tree_iterator@V?$_Tree_val@V?$_Tmap_traits@HPAVTUnionInfo@@U?$less@H@std@@V?$allocator@U?$pair@$$CBHPAVTUnionInfo@@@std@@@3@$0A@@std@@@std@@@std@@QAE@XZ PROC ; std::_Tree_iterator<std::_Tree_val<std::_Tmap_traits<int,TUnionInfo *,std::less<int>,std::allocator<std::pair<int const ,TUnionInfo *> >,0> > >::_Tree_iterator<std::_Tree_val<std::_Tmap_traits<int,TUnionInfo *,std::less<int>,std::allocator<std::pair<int const ,TUnionInfo *> >,0> > >, COMDAT
; _this$ = ecx

; 372  : 	_Tree_iterator()

  00000	8b c1		 mov	 eax, ecx
  00002	c7 00 00 00 00
	00		 mov	 DWORD PTR [eax], 0

; 373  : 		{	// construct with null node
; 374  : 		}

  00008	c3		 ret	 0
??0?$_Tree_iterator@V?$_Tree_val@V?$_Tmap_traits@HPAVTUnionInfo@@U?$less@H@std@@V?$allocator@U?$pair@$$CBHPAVTUnionInfo@@@std@@@3@$0A@@std@@@std@@@std@@QAE@XZ ENDP ; std::_Tree_iterator<std::_Tree_val<std::_Tmap_traits<int,TUnionInfo *,std::less<int>,std::allocator<std::pair<int const ,TUnionInfo *> >,0> > >::_Tree_iterator<std::_Tree_val<std::_Tmap_traits<int,TUnionInfo *,std::less<int>,std::allocator<std::pair<int const ,TUnionInfo *> >,0> > >
_TEXT	ENDS
PUBLIC	??D?$_Tree_iterator@V?$_Tree_val@V?$_Tmap_traits@HPAVTUnionInfo@@U?$less@H@std@@V?$allocator@U?$pair@$$CBHPAVTUnionInfo@@@std@@@3@$0A@@std@@@std@@@std@@QBEAAU?$pair@$$CBHPAVTUnionInfo@@@1@XZ ; std::_Tree_iterator<std::_Tree_val<std::_Tmap_traits<int,TUnionInfo *,std::less<int>,std::allocator<std::pair<int const ,TUnionInfo *> >,0> > >::operator*
; Function compile flags: /Ogtp
;	COMDAT ??D?$_Tree_iterator@V?$_Tree_val@V?$_Tmap_traits@HPAVTUnionInfo@@U?$less@H@std@@V?$allocator@U?$pair@$$CBHPAVTUnionInfo@@@std@@@3@$0A@@std@@@std@@@std@@QBEAAU?$pair@$$CBHPAVTUnionInfo@@@1@XZ
_TEXT	SEGMENT
??D?$_Tree_iterator@V?$_Tree_val@V?$_Tmap_traits@HPAVTUnionInfo@@U?$less@H@std@@V?$allocator@U?$pair@$$CBHPAVTUnionInfo@@@std@@@3@$0A@@std@@@std@@@std@@QBEAAU?$pair@$$CBHPAVTUnionInfo@@@1@XZ PROC ; std::_Tree_iterator<std::_Tree_val<std::_Tmap_traits<int,TUnionInfo *,std::less<int>,std::allocator<std::pair<int const ,TUnionInfo *> >,0> > >::operator*, COMDAT
; _this$ = ecx

; 396  : 		return ((reference)**(_Mybase *)this);

  00000	8b 01		 mov	 eax, DWORD PTR [ecx]
  00002	83 c0 0c	 add	 eax, 12			; 0000000cH

; 397  : 		}

  00005	c3		 ret	 0
??D?$_Tree_iterator@V?$_Tree_val@V?$_Tmap_traits@HPAVTUnionInfo@@U?$less@H@std@@V?$allocator@U?$pair@$$CBHPAVTUnionInfo@@@std@@@3@$0A@@std@@@std@@@std@@QBEAAU?$pair@$$CBHPAVTUnionInfo@@@1@XZ ENDP ; std::_Tree_iterator<std::_Tree_val<std::_Tmap_traits<int,TUnionInfo *,std::less<int>,std::allocator<std::pair<int const ,TUnionInfo *> >,0> > >::operator*
_TEXT	ENDS
PUBLIC	??C?$_Tree_iterator@V?$_Tree_val@V?$_Tmap_traits@HPAVTUnionInfo@@U?$less@H@std@@V?$allocator@U?$pair@$$CBHPAVTUnionInfo@@@std@@@3@$0A@@std@@@std@@@std@@QBEPAU?$pair@$$CBHPAVTUnionInfo@@@1@XZ ; std::_Tree_iterator<std::_Tree_val<std::_Tmap_traits<int,TUnionInfo *,std::less<int>,std::allocator<std::pair<int const ,TUnionInfo *> >,0> > >::operator->
; Function compile flags: /Ogtp
;	COMDAT ??C?$_Tree_iterator@V?$_Tree_val@V?$_Tmap_traits@HPAVTUnionInfo@@U?$less@H@std@@V?$allocator@U?$pair@$$CBHPAVTUnionInfo@@@std@@@3@$0A@@std@@@std@@@std@@QBEPAU?$pair@$$CBHPAVTUnionInfo@@@1@XZ
_TEXT	SEGMENT
??C?$_Tree_iterator@V?$_Tree_val@V?$_Tmap_traits@HPAVTUnionInfo@@U?$less@H@std@@V?$allocator@U?$pair@$$CBHPAVTUnionInfo@@@std@@@3@$0A@@std@@@std@@@std@@QBEPAU?$pair@$$CBHPAVTUnionInfo@@@1@XZ PROC ; std::_Tree_iterator<std::_Tree_val<std::_Tmap_traits<int,TUnionInfo *,std::less<int>,std::allocator<std::pair<int const ,TUnionInfo *> >,0> > >::operator->, COMDAT
; _this$ = ecx

; 401  : 		return (&**this);

  00000	8b 01		 mov	 eax, DWORD PTR [ecx]
  00002	83 c0 0c	 add	 eax, 12			; 0000000cH

; 402  : 		}

  00005	c3		 ret	 0
??C?$_Tree_iterator@V?$_Tree_val@V?$_Tmap_traits@HPAVTUnionInfo@@U?$less@H@std@@V?$allocator@U?$pair@$$CBHPAVTUnionInfo@@@std@@@3@$0A@@std@@@std@@@std@@QBEPAU?$pair@$$CBHPAVTUnionInfo@@@1@XZ ENDP ; std::_Tree_iterator<std::_Tree_val<std::_Tmap_traits<int,TUnionInfo *,std::less<int>,std::allocator<std::pair<int const ,TUnionInfo *> >,0> > >::operator->
_TEXT	ENDS
PUBLIC	??E?$_Tree_const_iterator@V?$_Tree_val@V?$_Tmap_traits@HPAVTUnionInfo@@U?$less@H@std@@V?$allocator@U?$pair@$$CBHPAVTUnionInfo@@@std@@@3@$0A@@std@@@std@@@std@@QAEAAV01@XZ ; std::_Tree_const_iterator<std::_Tree_val<std::_Tmap_traits<int,TUnionInfo *,std::less<int>,std::allocator<std::pair<int const ,TUnionInfo *> >,0> > >::operator++
; Function compile flags: /Ogtp
;	COMDAT ??E?$_Tree_const_iterator@V?$_Tree_val@V?$_Tmap_traits@HPAVTUnionInfo@@U?$less@H@std@@V?$allocator@U?$pair@$$CBHPAVTUnionInfo@@@std@@@3@$0A@@std@@@std@@@std@@QAEAAV01@XZ
_TEXT	SEGMENT
??E?$_Tree_const_iterator@V?$_Tree_val@V?$_Tmap_traits@HPAVTUnionInfo@@U?$less@H@std@@V?$allocator@U?$pair@$$CBHPAVTUnionInfo@@@std@@@3@$0A@@std@@@std@@@std@@QAEAAV01@XZ PROC ; std::_Tree_const_iterator<std::_Tree_val<std::_Tmap_traits<int,TUnionInfo *,std::less<int>,std::allocator<std::pair<int const ,TUnionInfo *> >,0> > >::operator++, COMDAT
; _this$ = ecx

; 250  : 		{	// preincrement

  00000	56		 push	 esi
  00001	8b f1		 mov	 esi, ecx

; 251  :  #if _ITERATOR_DEBUG_LEVEL == 2
; 252  : 		if (this->_Getcont() == 0
; 253  : 			|| this->_Ptr == 0
; 254  : 			|| _Mytree::_Isnil(this->_Ptr))
; 255  : 			{	// report error
; 256  : 			_DEBUG_ERROR("map/set iterator not incrementable");
; 257  : 			_SCL_SECURE_OUT_OF_RANGE;
; 258  : 			}
; 259  : 
; 260  :  #elif _ITERATOR_DEBUG_LEVEL == 1
; 261  : 		_SCL_SECURE_VALIDATE(this->_Getcont() != 0 && this->_Ptr != 0);
; 262  : 		_SCL_SECURE_VALIDATE_RANGE(!_Mytree::_Isnil(this->_Ptr));
; 263  :  #endif /* _ITERATOR_DEBUG_LEVEL */
; 264  : 
; 265  : 		++(*(_Mybase *)this);

  00003	e8 00 00 00 00	 call	 ??E?$_Tree_unchecked_const_iterator@V?$_Tree_val@V?$_Tmap_traits@HPAVTUnionInfo@@U?$less@H@std@@V?$allocator@U?$pair@$$CBHPAVTUnionInfo@@@std@@@3@$0A@@std@@@std@@U_Iterator_base0@2@@std@@QAEAAV01@XZ ; std::_Tree_unchecked_const_iterator<std::_Tree_val<std::_Tmap_traits<int,TUnionInfo *,std::less<int>,std::allocator<std::pair<int const ,TUnionInfo *> >,0> >,std::_Iterator_base0>::operator++

; 266  : 		return (*this);

  00008	8b c6		 mov	 eax, esi
  0000a	5e		 pop	 esi

; 267  : 		}

  0000b	c3		 ret	 0
??E?$_Tree_const_iterator@V?$_Tree_val@V?$_Tmap_traits@HPAVTUnionInfo@@U?$less@H@std@@V?$allocator@U?$pair@$$CBHPAVTUnionInfo@@@std@@@3@$0A@@std@@@std@@@std@@QAEAAV01@XZ ENDP ; std::_Tree_const_iterator<std::_Tree_val<std::_Tmap_traits<int,TUnionInfo *,std::less<int>,std::allocator<std::pair<int const ,TUnionInfo *> >,0> > >::operator++
_TEXT	ENDS
PUBLIC	??0?$pair@$$CBHPAVTUnionInfo@@@std@@QAE@ABH$$QAPAVTUnionInfo@@@Z ; std::pair<int const ,TUnionInfo *>::pair<int const ,TUnionInfo *>
; Function compile flags: /Ogtp
; File c:\program files (x86)\microsoft visual studio 10.0\vc\include\utility
;	COMDAT ??0?$pair@$$CBHPAVTUnionInfo@@@std@@QAE@ABH$$QAPAVTUnionInfo@@@Z
_TEXT	SEGMENT
__Val1$ = 8						; size = 4
__Val2$ = 12						; size = 4
??0?$pair@$$CBHPAVTUnionInfo@@@std@@QAE@ABH$$QAPAVTUnionInfo@@@Z PROC ; std::pair<int const ,TUnionInfo *>::pair<int const ,TUnionInfo *>, COMDAT
; _this$ = ecx

; 233  : 		{	// construct from specified values

  00000	55		 push	 ebp
  00001	8b ec		 mov	 ebp, esp
  00003	8b c1		 mov	 eax, ecx
  00005	8b 4d 08	 mov	 ecx, DWORD PTR __Val1$[ebp]
  00008	8b 11		 mov	 edx, DWORD PTR [ecx]
  0000a	8b 4d 0c	 mov	 ecx, DWORD PTR __Val2$[ebp]
  0000d	89 10		 mov	 DWORD PTR [eax], edx
  0000f	8b 11		 mov	 edx, DWORD PTR [ecx]
  00011	89 50 04	 mov	 DWORD PTR [eax+4], edx

; 234  : 		}

  00014	5d		 pop	 ebp
  00015	c2 08 00	 ret	 8
??0?$pair@$$CBHPAVTUnionInfo@@@std@@QAE@ABH$$QAPAVTUnionInfo@@@Z ENDP ; std::pair<int const ,TUnionInfo *>::pair<int const ,TUnionInfo *>
_TEXT	ENDS
PUBLIC	??0?$_Tree_const_iterator@V?$_Tree_val@V?$_Tmap_traits@HPAVTUnionInfo@@U?$less@H@std@@V?$allocator@U?$pair@$$CBHPAVTUnionInfo@@@std@@@3@$0A@@std@@@std@@@std@@QAE@PAU_Node@?$_Tree_nod@V?$_Tmap_traits@HPAVTUnionInfo@@U?$less@H@std@@V?$allocator@U?$pair@$$CBHPAVTUnionInfo@@@std@@@3@$0A@@std@@@1@PBV?$_Tree_val@V?$_Tmap_traits@HPAVTUnionInfo@@U?$less@H@std@@V?$allocator@U?$pair@$$CBHPAVTUnionInfo@@@std@@@3@$0A@@std@@@1@@Z ; std::_Tree_const_iterator<std::_Tree_val<std::_Tmap_traits<int,TUnionInfo *,std::less<int>,std::allocator<std::pair<int const ,TUnionInfo *> >,0> > >::_Tree_const_iterator<std::_Tree_val<std::_Tmap_traits<int,TUnionInfo *,std::less<int>,std::allocator<std::pair<int const ,TUnionInfo *> >,0> > >
; Function compile flags: /Ogtp
; File c:\program files (x86)\microsoft visual studio 10.0\vc\include\xtree
;	COMDAT ??0?$_Tree_const_iterator@V?$_Tree_val@V?$_Tmap_traits@HPAVTUnionInfo@@U?$less@H@std@@V?$allocator@U?$pair@$$CBHPAVTUnionInfo@@@std@@@3@$0A@@std@@@std@@@std@@QAE@PAU_Node@?$_Tree_nod@V?$_Tmap_traits@HPAVTUnionInfo@@U?$less@H@std@@V?$allocator@U?$pair@$$CBHPAVTUnionInfo@@@std@@@3@$0A@@std@@@1@PBV?$_Tree_val@V?$_Tmap_traits@HPAVTUnionInfo@@U?$less@H@std@@V?$allocator@U?$pair@$$CBHPAVTUnionInfo@@@std@@@3@$0A@@std@@@1@@Z
_TEXT	SEGMENT
__Pnode$ = 8						; size = 4
__Plist$ = 12						; size = 4
??0?$_Tree_const_iterator@V?$_Tree_val@V?$_Tmap_traits@HPAVTUnionInfo@@U?$less@H@std@@V?$allocator@U?$pair@$$CBHPAVTUnionInfo@@@std@@@3@$0A@@std@@@std@@@std@@QAE@PAU_Node@?$_Tree_nod@V?$_Tmap_traits@HPAVTUnionInfo@@U?$less@H@std@@V?$allocator@U?$pair@$$CBHPAVTUnionInfo@@@std@@@3@$0A@@std@@@1@PBV?$_Tree_val@V?$_Tmap_traits@HPAVTUnionInfo@@U?$less@H@std@@V?$allocator@U?$pair@$$CBHPAVTUnionInfo@@@std@@@3@$0A@@std@@@1@@Z PROC ; std::_Tree_const_iterator<std::_Tree_val<std::_Tmap_traits<int,TUnionInfo *,std::less<int>,std::allocator<std::pair<int const ,TUnionInfo *> >,0> > >::_Tree_const_iterator<std::_Tree_val<std::_Tmap_traits<int,TUnionInfo *,std::less<int>,std::allocator<std::pair<int const ,TUnionInfo *> >,0> > >, COMDAT
; _this$ = ecx

; 213  : 		{	// construct with node pointer _Pnode

  00000	55		 push	 ebp
  00001	8b ec		 mov	 ebp, esp
  00003	8b c1		 mov	 eax, ecx
  00005	8b 4d 08	 mov	 ecx, DWORD PTR __Pnode$[ebp]
  00008	89 08		 mov	 DWORD PTR [eax], ecx

; 214  : 		}

  0000a	5d		 pop	 ebp
  0000b	c2 08 00	 ret	 8
??0?$_Tree_const_iterator@V?$_Tree_val@V?$_Tmap_traits@HPAVTUnionInfo@@U?$less@H@std@@V?$allocator@U?$pair@$$CBHPAVTUnionInfo@@@std@@@3@$0A@@std@@@std@@@std@@QAE@PAU_Node@?$_Tree_nod@V?$_Tmap_traits@HPAVTUnionInfo@@U?$less@H@std@@V?$allocator@U?$pair@$$CBHPAVTUnionInfo@@@std@@@3@$0A@@std@@@1@PBV?$_Tree_val@V?$_Tmap_traits@HPAVTUnionInfo@@U?$less@H@std@@V?$allocator@U?$pair@$$CBHPAVTUnionInfo@@@std@@@3@$0A@@std@@@1@@Z ENDP ; std::_Tree_const_iterator<std::_Tree_val<std::_Tmap_traits<int,TUnionInfo *,std::less<int>,std::allocator<std::pair<int const ,TUnionInfo *> >,0> > >::_Tree_const_iterator<std::_Tree_val<std::_Tmap_traits<int,TUnionInfo *,std::less<int>,std::allocator<std::pair<int const ,TUnionInfo *> >,0> > >
_TEXT	ENDS
PUBLIC	??E?$_Tree_const_iterator@V?$_Tree_val@V?$_Tmap_traits@HPAVTUnionInfo@@U?$less@H@std@@V?$allocator@U?$pair@$$CBHPAVTUnionInfo@@@std@@@3@$0A@@std@@@std@@@std@@QAE?AV01@H@Z ; std::_Tree_const_iterator<std::_Tree_val<std::_Tmap_traits<int,TUnionInfo *,std::less<int>,std::allocator<std::pair<int const ,TUnionInfo *> >,0> > >::operator++
; Function compile flags: /Ogtp
;	COMDAT ??E?$_Tree_const_iterator@V?$_Tree_val@V?$_Tmap_traits@HPAVTUnionInfo@@U?$less@H@std@@V?$allocator@U?$pair@$$CBHPAVTUnionInfo@@@std@@@3@$0A@@std@@@std@@@std@@QAE?AV01@H@Z
_TEXT	SEGMENT
___$ReturnUdt$ = 8					; size = 4
___formal$ = 12						; size = 4
??E?$_Tree_const_iterator@V?$_Tree_val@V?$_Tmap_traits@HPAVTUnionInfo@@U?$less@H@std@@V?$allocator@U?$pair@$$CBHPAVTUnionInfo@@@std@@@3@$0A@@std@@@std@@@std@@QAE?AV01@H@Z PROC ; std::_Tree_const_iterator<std::_Tree_val<std::_Tmap_traits<int,TUnionInfo *,std::less<int>,std::allocator<std::pair<int const ,TUnionInfo *> >,0> > >::operator++, COMDAT
; _this$ = ecx

; 270  : 		{	// postincrement

  00000	55		 push	 ebp
  00001	8b ec		 mov	 ebp, esp

; 271  : 		_Myiter _Tmp = *this;

  00003	8b 01		 mov	 eax, DWORD PTR [ecx]
  00005	56		 push	 esi
  00006	8b 75 08	 mov	 esi, DWORD PTR ___$ReturnUdt$[ebp]
  00009	89 06		 mov	 DWORD PTR [esi], eax

; 272  : 		++*this;

  0000b	e8 00 00 00 00	 call	 ??E?$_Tree_unchecked_const_iterator@V?$_Tree_val@V?$_Tmap_traits@HPAVTUnionInfo@@U?$less@H@std@@V?$allocator@U?$pair@$$CBHPAVTUnionInfo@@@std@@@3@$0A@@std@@@std@@U_Iterator_base0@2@@std@@QAEAAV01@XZ ; std::_Tree_unchecked_const_iterator<std::_Tree_val<std::_Tmap_traits<int,TUnionInfo *,std::less<int>,std::allocator<std::pair<int const ,TUnionInfo *> >,0> >,std::_Iterator_base0>::operator++

; 273  : 		return (_Tmp);

  00010	8b c6		 mov	 eax, esi
  00012	5e		 pop	 esi

; 274  : 		}

  00013	5d		 pop	 ebp
  00014	c2 08 00	 ret	 8
??E?$_Tree_const_iterator@V?$_Tree_val@V?$_Tmap_traits@HPAVTUnionInfo@@U?$less@H@std@@V?$allocator@U?$pair@$$CBHPAVTUnionInfo@@@std@@@3@$0A@@std@@@std@@@std@@QAE?AV01@H@Z ENDP ; std::_Tree_const_iterator<std::_Tree_val<std::_Tmap_traits<int,TUnionInfo *,std::less<int>,std::allocator<std::pair<int const ,TUnionInfo *> >,0> > >::operator++
_TEXT	ENDS
PUBLIC	?_Destroy@?$vector@HV?$allocator@H@std@@@std@@IAEXPAH0@Z ; std::vector<int,std::allocator<int> >::_Destroy
; Function compile flags: /Ogtp
; File c:\program files (x86)\microsoft visual studio 10.0\vc\include\vector
;	COMDAT ?_Destroy@?$vector@HV?$allocator@H@std@@@std@@IAEXPAH0@Z
_TEXT	SEGMENT
__First$ = 8						; size = 4
__Last$ = 12						; size = 4
?_Destroy@?$vector@HV?$allocator@H@std@@@std@@IAEXPAH0@Z PROC ; std::vector<int,std::allocator<int> >::_Destroy, COMDAT
; _this$ = ecx

; 1270 : 		_Destroy_range(_First, _Last, this->_Alval);
; 1271 : 		}

  00000	c2 08 00	 ret	 8
?_Destroy@?$vector@HV?$allocator@H@std@@@std@@IAEXPAH0@Z ENDP ; std::vector<int,std::allocator<int> >::_Destroy
_TEXT	ENDS
PUBLIC	?allocate@?$allocator@H@std@@QAEPAHI@Z		; std::allocator<int>::allocate
; Function compile flags: /Ogtp
; File c:\program files (x86)\microsoft visual studio 10.0\vc\include\xmemory
;	COMDAT ?allocate@?$allocator@H@std@@QAEPAHI@Z
_TEXT	SEGMENT
$T158750 = -12						; size = 12
$T158748 = 8						; size = 4
__Count$ = 8						; size = 4
?allocate@?$allocator@H@std@@QAEPAHI@Z PROC		; std::allocator<int>::allocate, COMDAT
; _this$ = ecx

; 186  : 		{	// allocate array of _Count elements

  00000	55		 push	 ebp
  00001	8b ec		 mov	 ebp, esp

; 187  : 		return (_Allocate(_Count, (pointer)0));

  00003	8b 4d 08	 mov	 ecx, DWORD PTR __Count$[ebp]
  00006	83 ec 0c	 sub	 esp, 12			; 0000000cH
  00009	33 c0		 xor	 eax, eax
  0000b	85 c9		 test	 ecx, ecx
  0000d	74 44		 je	 SHORT $LN1@allocate
  0000f	81 f9 ff ff ff
	3f		 cmp	 ecx, 1073741823		; 3fffffffH
  00015	77 14		 ja	 SHORT $LN3@allocate
  00017	8d 04 8d 00 00
	00 00		 lea	 eax, DWORD PTR [ecx*4]
  0001e	50		 push	 eax
  0001f	e8 00 00 00 00	 call	 ??2@YAPAXI@Z		; operator new
  00024	83 c4 04	 add	 esp, 4
  00027	85 c0		 test	 eax, eax
  00029	75 28		 jne	 SHORT $LN1@allocate
$LN3@allocate:
  0002b	8d 4d 08	 lea	 ecx, DWORD PTR $T158748[ebp]
  0002e	51		 push	 ecx
  0002f	8d 4d f4	 lea	 ecx, DWORD PTR $T158750[ebp]
  00032	c7 45 08 00 00
	00 00		 mov	 DWORD PTR $T158748[ebp], 0
  00039	e8 00 00 00 00	 call	 ??0exception@std@@QAE@ABQBD@Z ; std::exception::exception
  0003e	68 00 00 00 00	 push	 OFFSET __TI2?AVbad_alloc@std@@
  00043	8d 55 f4	 lea	 edx, DWORD PTR $T158750[ebp]
  00046	52		 push	 edx
  00047	c7 45 f4 00 00
	00 00		 mov	 DWORD PTR $T158750[ebp], OFFSET ??_7bad_alloc@std@@6B@
  0004e	e8 00 00 00 00	 call	 __CxxThrowException@8
$LN13@allocate:
$LN1@allocate:

; 188  : 		}

  00053	8b e5		 mov	 esp, ebp
  00055	5d		 pop	 ebp
  00056	c2 04 00	 ret	 4
$LN12@allocate:
?allocate@?$allocator@H@std@@QAEPAHI@Z ENDP		; std::allocator<int>::allocate
_TEXT	ENDS
PUBLIC	?allocate@?$allocator@U_Node@?$_Tree_nod@V?$_Tmap_traits@HPAVTUnionInfo@@U?$less@H@std@@V?$allocator@U?$pair@$$CBHPAVTUnionInfo@@@std@@@3@$0A@@std@@@std@@@std@@QAEPAU_Node@?$_Tree_nod@V?$_Tmap_traits@HPAVTUnionInfo@@U?$less@H@std@@V?$allocator@U?$pair@$$CBHPAVTUnionInfo@@@std@@@3@$0A@@std@@@2@I@Z ; std::allocator<std::_Tree_nod<std::_Tmap_traits<int,TUnionInfo *,std::less<int>,std::allocator<std::pair<int const ,TUnionInfo *> >,0> >::_Node>::allocate
; Function compile flags: /Ogtp
;	COMDAT ?allocate@?$allocator@U_Node@?$_Tree_nod@V?$_Tmap_traits@HPAVTUnionInfo@@U?$less@H@std@@V?$allocator@U?$pair@$$CBHPAVTUnionInfo@@@std@@@3@$0A@@std@@@std@@@std@@QAEPAU_Node@?$_Tree_nod@V?$_Tmap_traits@HPAVTUnionInfo@@U?$less@H@std@@V?$allocator@U?$pair@$$CBHPAVTUnionInfo@@@std@@@3@$0A@@std@@@2@I@Z
_TEXT	SEGMENT
$T158773 = -12						; size = 12
$T158771 = 8						; size = 4
__Count$ = 8						; size = 4
?allocate@?$allocator@U_Node@?$_Tree_nod@V?$_Tmap_traits@HPAVTUnionInfo@@U?$less@H@std@@V?$allocator@U?$pair@$$CBHPAVTUnionInfo@@@std@@@3@$0A@@std@@@std@@@std@@QAEPAU_Node@?$_Tree_nod@V?$_Tmap_traits@HPAVTUnionInfo@@U?$less@H@std@@V?$allocator@U?$pair@$$CBHPAVTUnionInfo@@@std@@@3@$0A@@std@@@2@I@Z PROC ; std::allocator<std::_Tree_nod<std::_Tmap_traits<int,TUnionInfo *,std::less<int>,std::allocator<std::pair<int const ,TUnionInfo *> >,0> >::_Node>::allocate, COMDAT
; _this$ = ecx

; 186  : 		{	// allocate array of _Count elements

  00000	55		 push	 ebp
  00001	8b ec		 mov	 ebp, esp

; 187  : 		return (_Allocate(_Count, (pointer)0));

  00003	8b 4d 08	 mov	 ecx, DWORD PTR __Count$[ebp]
  00006	83 ec 0c	 sub	 esp, 12			; 0000000cH
  00009	33 c0		 xor	 eax, eax
  0000b	85 c9		 test	 ecx, ecx
  0000d	74 46		 je	 SHORT $LN1@allocate@2
  0000f	81 f9 aa aa aa
	0a		 cmp	 ecx, 178956970		; 0aaaaaaaH
  00015	77 16		 ja	 SHORT $LN3@allocate@2
  00017	8d 04 49	 lea	 eax, DWORD PTR [ecx+ecx*2]
  0001a	03 c0		 add	 eax, eax
  0001c	03 c0		 add	 eax, eax
  0001e	03 c0		 add	 eax, eax
  00020	50		 push	 eax
  00021	e8 00 00 00 00	 call	 ??2@YAPAXI@Z		; operator new
  00026	83 c4 04	 add	 esp, 4
  00029	85 c0		 test	 eax, eax
  0002b	75 28		 jne	 SHORT $LN1@allocate@2
$LN3@allocate@2:
  0002d	8d 4d 08	 lea	 ecx, DWORD PTR $T158771[ebp]
  00030	51		 push	 ecx
  00031	8d 4d f4	 lea	 ecx, DWORD PTR $T158773[ebp]
  00034	c7 45 08 00 00
	00 00		 mov	 DWORD PTR $T158771[ebp], 0
  0003b	e8 00 00 00 00	 call	 ??0exception@std@@QAE@ABQBD@Z ; std::exception::exception
  00040	68 00 00 00 00	 push	 OFFSET __TI2?AVbad_alloc@std@@
  00045	8d 55 f4	 lea	 edx, DWORD PTR $T158773[ebp]
  00048	52		 push	 edx
  00049	c7 45 f4 00 00
	00 00		 mov	 DWORD PTR $T158773[ebp], OFFSET ??_7bad_alloc@std@@6B@
  00050	e8 00 00 00 00	 call	 __CxxThrowException@8
$LN13@allocate@2:
$LN1@allocate@2:

; 188  : 		}

  00055	8b e5		 mov	 esp, ebp
  00057	5d		 pop	 ebp
  00058	c2 04 00	 ret	 4
$LN12@allocate@2:
?allocate@?$allocator@U_Node@?$_Tree_nod@V?$_Tmap_traits@HPAVTUnionInfo@@U?$less@H@std@@V?$allocator@U?$pair@$$CBHPAVTUnionInfo@@@std@@@3@$0A@@std@@@std@@@std@@QAEPAU_Node@?$_Tree_nod@V?$_Tmap_traits@HPAVTUnionInfo@@U?$less@H@std@@V?$allocator@U?$pair@$$CBHPAVTUnionInfo@@@std@@@3@$0A@@std@@@2@I@Z ENDP ; std::allocator<std::_Tree_nod<std::_Tmap_traits<int,TUnionInfo *,std::less<int>,std::allocator<std::pair<int const ,TUnionInfo *> >,0> >::_Node>::allocate
_TEXT	ENDS
PUBLIC	??$_Cons_val@V?$allocator@H@std@@HABH@std@@YAXAAV?$allocator@H@0@PAHABH@Z ; std::_Cons_val<std::allocator<int>,int,int const &>
; Function compile flags: /Ogtp
;	COMDAT ??$_Cons_val@V?$allocator@H@std@@HABH@std@@YAXAAV?$allocator@H@0@PAHABH@Z
_TEXT	SEGMENT
__Alval$ = 8						; size = 4
__Pdest$ = 12						; size = 4
__Src$ = 16						; size = 4
??$_Cons_val@V?$allocator@H@std@@HABH@std@@YAXAAV?$allocator@H@0@PAHABH@Z PROC ; std::_Cons_val<std::allocator<int>,int,int const &>, COMDAT

; 279  : 	{	// construct using allocator

  00000	55		 push	 ebp
  00001	8b ec		 mov	 ebp, esp

; 280  : 	_Alval.construct(_Pdest, _STD forward<_Ty2>(_Src));

  00003	8b 45 0c	 mov	 eax, DWORD PTR __Pdest$[ebp]
  00006	85 c0		 test	 eax, eax
  00008	74 07		 je	 SHORT $LN9@Cons_val@2
  0000a	8b 4d 10	 mov	 ecx, DWORD PTR __Src$[ebp]
  0000d	8b 11		 mov	 edx, DWORD PTR [ecx]
  0000f	89 10		 mov	 DWORD PTR [eax], edx
$LN9@Cons_val@2:

; 281  : 	}

  00011	5d		 pop	 ebp
  00012	c3		 ret	 0
??$_Cons_val@V?$allocator@H@std@@HABH@std@@YAXAAV?$allocator@H@0@PAHABH@Z ENDP ; std::_Cons_val<std::allocator<int>,int,int const &>
_TEXT	ENDS
PUBLIC	??$_Dest_val@V?$allocator@U?$pair@$$CBHPAVTUnionInfo@@@std@@@std@@U?$pair@$$CBHPAVTUnionInfo@@@2@@std@@YAXAAV?$allocator@U?$pair@$$CBHPAVTUnionInfo@@@std@@@0@PAU?$pair@$$CBHPAVTUnionInfo@@@0@@Z ; std::_Dest_val<std::allocator<std::pair<int const ,TUnionInfo *> >,std::pair<int const ,TUnionInfo *> >
; Function compile flags: /Ogtp
;	COMDAT ??$_Dest_val@V?$allocator@U?$pair@$$CBHPAVTUnionInfo@@@std@@@std@@U?$pair@$$CBHPAVTUnionInfo@@@2@@std@@YAXAAV?$allocator@U?$pair@$$CBHPAVTUnionInfo@@@std@@@0@PAU?$pair@$$CBHPAVTUnionInfo@@@0@@Z
_TEXT	SEGMENT
__Alval$ = 8						; size = 4
__Pdest$ = 12						; size = 4
??$_Dest_val@V?$allocator@U?$pair@$$CBHPAVTUnionInfo@@@std@@@std@@U?$pair@$$CBHPAVTUnionInfo@@@2@@std@@YAXAAV?$allocator@U?$pair@$$CBHPAVTUnionInfo@@@std@@@0@PAU?$pair@$$CBHPAVTUnionInfo@@@0@@Z PROC ; std::_Dest_val<std::allocator<std::pair<int const ,TUnionInfo *> >,std::pair<int const ,TUnionInfo *> >, COMDAT

; 287  : 	_Alval.destroy(_Pdest);
; 288  : 	}

  00000	c3		 ret	 0
??$_Dest_val@V?$allocator@U?$pair@$$CBHPAVTUnionInfo@@@std@@@std@@U?$pair@$$CBHPAVTUnionInfo@@@2@@std@@YAXAAV?$allocator@U?$pair@$$CBHPAVTUnionInfo@@@std@@@0@PAU?$pair@$$CBHPAVTUnionInfo@@@0@@Z ENDP ; std::_Dest_val<std::allocator<std::pair<int const ,TUnionInfo *> >,std::pair<int const ,TUnionInfo *> >
_TEXT	ENDS
PUBLIC	??$_Umove@PAH@?$vector@HV?$allocator@H@std@@@std@@IAEPAHPAH00@Z ; std::vector<int,std::allocator<int> >::_Umove<int *>
; Function compile flags: /Ogtp
; File c:\program files (x86)\microsoft visual studio 10.0\vc\include\vector
;	COMDAT ??$_Umove@PAH@?$vector@HV?$allocator@H@std@@@std@@IAEPAHPAH00@Z
_TEXT	SEGMENT
__First$ = 8						; size = 4
__Last$ = 12						; size = 4
__Ptr$ = 16						; size = 4
??$_Umove@PAH@?$vector@HV?$allocator@H@std@@@std@@IAEPAHPAH00@Z PROC ; std::vector<int,std::allocator<int> >::_Umove<int *>, COMDAT
; _this$ = ecx

; 1322 : 		pointer _Umove(_Iter _First, _Iter _Last, pointer _Ptr)

  00000	55		 push	 ebp
  00001	8b ec		 mov	 ebp, esp

; 1323 : 		{	// move initializing [_First, _Last), using allocator
; 1324 : 		return (_Uninitialized_move(_First, _Last,
; 1325 : 			_Ptr, this->_Alval));

  00003	8b 4d 08	 mov	 ecx, DWORD PTR __First$[ebp]
  00006	8b 45 0c	 mov	 eax, DWORD PTR __Last$[ebp]
  00009	2b c1		 sub	 eax, ecx
  0000b	56		 push	 esi
  0000c	c1 f8 02	 sar	 eax, 2
  0000f	8d 34 85 00 00
	00 00		 lea	 esi, DWORD PTR [eax*4]
  00016	8b 45 10	 mov	 eax, DWORD PTR __Ptr$[ebp]
  00019	56		 push	 esi
  0001a	51		 push	 ecx
  0001b	50		 push	 eax
  0001c	e8 00 00 00 00	 call	 _memmove
  00021	83 c4 0c	 add	 esp, 12			; 0000000cH
  00024	03 c6		 add	 eax, esi
  00026	5e		 pop	 esi

; 1326 : 		}

  00027	5d		 pop	 ebp
  00028	c2 0c 00	 ret	 12			; 0000000cH
??$_Umove@PAH@?$vector@HV?$allocator@H@std@@@std@@IAEPAHPAH00@Z ENDP ; std::vector<int,std::allocator<int> >::_Umove<int *>
_TEXT	ENDS
PUBLIC	??0?$pair@V?$_Tree_iterator@V?$_Tree_val@V?$_Tmap_traits@HPAVTUnionInfo@@U?$less@H@std@@V?$allocator@U?$pair@$$CBHPAVTUnionInfo@@@std@@@3@$0A@@std@@@std@@@std@@_N@std@@QAE@$$QAV?$_Tree_iterator@V?$_Tree_val@V?$_Tmap_traits@HPAVTUnionInfo@@U?$less@H@std@@V?$allocator@U?$pair@$$CBHPAVTUnionInfo@@@std@@@3@$0A@@std@@@std@@@1@$$QA_N@Z ; std::pair<std::_Tree_iterator<std::_Tree_val<std::_Tmap_traits<int,TUnionInfo *,std::less<int>,std::allocator<std::pair<int const ,TUnionInfo *> >,0> > >,bool>::pair<std::_Tree_iterator<std::_Tree_val<std::_Tmap_traits<int,TUnionInfo *,std::less<int>,std::allocator<std::pair<int const ,TUnionInfo *> >,0> > >,bool>
; Function compile flags: /Ogtp
; File c:\program files (x86)\microsoft visual studio 10.0\vc\include\utility
;	COMDAT ??0?$pair@V?$_Tree_iterator@V?$_Tree_val@V?$_Tmap_traits@HPAVTUnionInfo@@U?$less@H@std@@V?$allocator@U?$pair@$$CBHPAVTUnionInfo@@@std@@@3@$0A@@std@@@std@@@std@@_N@std@@QAE@$$QAV?$_Tree_iterator@V?$_Tree_val@V?$_Tmap_traits@HPAVTUnionInfo@@U?$less@H@std@@V?$allocator@U?$pair@$$CBHPAVTUnionInfo@@@std@@@3@$0A@@std@@@std@@@1@$$QA_N@Z
_TEXT	SEGMENT
__Val1$ = 8						; size = 4
__Val2$ = 12						; size = 4
??0?$pair@V?$_Tree_iterator@V?$_Tree_val@V?$_Tmap_traits@HPAVTUnionInfo@@U?$less@H@std@@V?$allocator@U?$pair@$$CBHPAVTUnionInfo@@@std@@@3@$0A@@std@@@std@@@std@@_N@std@@QAE@$$QAV?$_Tree_iterator@V?$_Tree_val@V?$_Tmap_traits@HPAVTUnionInfo@@U?$less@H@std@@V?$allocator@U?$pair@$$CBHPAVTUnionInfo@@@std@@@3@$0A@@std@@@std@@@1@$$QA_N@Z PROC ; std::pair<std::_Tree_iterator<std::_Tree_val<std::_Tmap_traits<int,TUnionInfo *,std::less<int>,std::allocator<std::pair<int const ,TUnionInfo *> >,0> > >,bool>::pair<std::_Tree_iterator<std::_Tree_val<std::_Tmap_traits<int,TUnionInfo *,std::less<int>,std::allocator<std::pair<int const ,TUnionInfo *> >,0> > >,bool>, COMDAT
; _this$ = ecx

; 227  : 		{	// construct from specified values

  00000	55		 push	 ebp
  00001	8b ec		 mov	 ebp, esp
  00003	8b c1		 mov	 eax, ecx
  00005	8b 4d 08	 mov	 ecx, DWORD PTR __Val1$[ebp]
  00008	8b 11		 mov	 edx, DWORD PTR [ecx]
  0000a	8b 4d 0c	 mov	 ecx, DWORD PTR __Val2$[ebp]
  0000d	89 10		 mov	 DWORD PTR [eax], edx
  0000f	8a 11		 mov	 dl, BYTE PTR [ecx]
  00011	88 50 04	 mov	 BYTE PTR [eax+4], dl

; 228  : 		}

  00014	5d		 pop	 ebp
  00015	c2 08 00	 ret	 8
??0?$pair@V?$_Tree_iterator@V?$_Tree_val@V?$_Tmap_traits@HPAVTUnionInfo@@U?$less@H@std@@V?$allocator@U?$pair@$$CBHPAVTUnionInfo@@@std@@@3@$0A@@std@@@std@@@std@@_N@std@@QAE@$$QAV?$_Tree_iterator@V?$_Tree_val@V?$_Tmap_traits@HPAVTUnionInfo@@U?$less@H@std@@V?$allocator@U?$pair@$$CBHPAVTUnionInfo@@@std@@@3@$0A@@std@@@std@@@1@$$QA_N@Z ENDP ; std::pair<std::_Tree_iterator<std::_Tree_val<std::_Tmap_traits<int,TUnionInfo *,std::less<int>,std::allocator<std::pair<int const ,TUnionInfo *> >,0> > >,bool>::pair<std::_Tree_iterator<std::_Tree_val<std::_Tmap_traits<int,TUnionInfo *,std::less<int>,std::allocator<std::pair<int const ,TUnionInfo *> >,0> > >,bool>
_TEXT	ENDS
PUBLIC	?_Buynode@?$_Tree_val@V?$_Tmap_traits@HPAVTUnionInfo@@U?$less@H@std@@V?$allocator@U?$pair@$$CBHPAVTUnionInfo@@@std@@@3@$0A@@std@@@std@@QAEPAU_Node@?$_Tree_nod@V?$_Tmap_traits@HPAVTUnionInfo@@U?$less@H@std@@V?$allocator@U?$pair@$$CBHPAVTUnionInfo@@@std@@@3@$0A@@std@@@2@XZ ; std::_Tree_val<std::_Tmap_traits<int,TUnionInfo *,std::less<int>,std::allocator<std::pair<int const ,TUnionInfo *> >,0> >::_Buynode
; Function compile flags: /Ogtp
; File c:\program files (x86)\microsoft visual studio 10.0\vc\include\xtree
;	COMDAT ?_Buynode@?$_Tree_val@V?$_Tmap_traits@HPAVTUnionInfo@@U?$less@H@std@@V?$allocator@U?$pair@$$CBHPAVTUnionInfo@@@std@@@3@$0A@@std@@@std@@QAEPAU_Node@?$_Tree_nod@V?$_Tmap_traits@HPAVTUnionInfo@@U?$less@H@std@@V?$allocator@U?$pair@$$CBHPAVTUnionInfo@@@std@@@3@$0A@@std@@@2@XZ
_TEXT	SEGMENT
$T158902 = -16						; size = 12
$T158886 = -4						; size = 4
?_Buynode@?$_Tree_val@V?$_Tmap_traits@HPAVTUnionInfo@@U?$less@H@std@@V?$allocator@U?$pair@$$CBHPAVTUnionInfo@@@std@@@3@$0A@@std@@@std@@QAEPAU_Node@?$_Tree_nod@V?$_Tmap_traits@HPAVTUnionInfo@@U?$less@H@std@@V?$allocator@U?$pair@$$CBHPAVTUnionInfo@@@std@@@3@$0A@@std@@@2@XZ PROC ; std::_Tree_val<std::_Tmap_traits<int,TUnionInfo *,std::less<int>,std::allocator<std::pair<int const ,TUnionInfo *> >,0> >::_Buynode, COMDAT
; _this$ = ecx

; 559  : 		{	// allocate a node

  00000	55		 push	 ebp
  00001	8b ec		 mov	 ebp, esp
  00003	83 ec 10	 sub	 esp, 16			; 00000010H
  00006	56		 push	 esi

; 560  : 		_Nodeptr _Wherenode = this->_Alnod.allocate(1);

  00007	6a 18		 push	 24			; 00000018H
  00009	8b f1		 mov	 esi, ecx
  0000b	e8 00 00 00 00	 call	 ??2@YAPAXI@Z		; operator new
  00010	33 c9		 xor	 ecx, ecx
  00012	83 c4 04	 add	 esp, 4
  00015	3b c1		 cmp	 eax, ecx
  00017	74 1a		 je	 SHORT $LN5@Buynode

; 561  : 
; 562  : 		this->_Left(_Wherenode) = this->_Myhead;

  00019	8b 56 04	 mov	 edx, DWORD PTR [esi+4]
  0001c	89 10		 mov	 DWORD PTR [eax], edx

; 563  : 		this->_Parent(_Wherenode) = this->_Myhead;

  0001e	8b 56 04	 mov	 edx, DWORD PTR [esi+4]
  00021	89 50 04	 mov	 DWORD PTR [eax+4], edx

; 564  : 		this->_Right(_Wherenode) = this->_Myhead;

  00024	8b 56 04	 mov	 edx, DWORD PTR [esi+4]
  00027	89 50 08	 mov	 DWORD PTR [eax+8], edx

; 565  : 		this->_Color(_Wherenode) = this->_Red;

  0002a	66 89 48 14	 mov	 WORD PTR [eax+20], cx
  0002e	5e		 pop	 esi

; 566  : 		this->_Isnil(_Wherenode) = false;
; 567  : 		return (_Wherenode);
; 568  : 		}

  0002f	8b e5		 mov	 esp, ebp
  00031	5d		 pop	 ebp
  00032	c3		 ret	 0

; 560  : 		_Nodeptr _Wherenode = this->_Alnod.allocate(1);

$LN5@Buynode:
  00033	8d 45 fc	 lea	 eax, DWORD PTR $T158886[ebp]
  00036	89 4d fc	 mov	 DWORD PTR $T158886[ebp], ecx
  00039	50		 push	 eax
  0003a	8d 4d f0	 lea	 ecx, DWORD PTR $T158902[ebp]
  0003d	e8 00 00 00 00	 call	 ??0exception@std@@QAE@ABQBD@Z ; std::exception::exception
  00042	68 00 00 00 00	 push	 OFFSET __TI2?AVbad_alloc@std@@
  00047	8d 4d f0	 lea	 ecx, DWORD PTR $T158902[ebp]
  0004a	51		 push	 ecx
  0004b	c7 45 f0 00 00
	00 00		 mov	 DWORD PTR $T158902[ebp], OFFSET ??_7bad_alloc@std@@6B@
  00052	e8 00 00 00 00	 call	 __CxxThrowException@8
$LN27@Buynode:
$LN26@Buynode:
  00057	cc		 int	 3
?_Buynode@?$_Tree_val@V?$_Tmap_traits@HPAVTUnionInfo@@U?$less@H@std@@V?$allocator@U?$pair@$$CBHPAVTUnionInfo@@@std@@@3@$0A@@std@@@std@@QAEPAU_Node@?$_Tree_nod@V?$_Tmap_traits@HPAVTUnionInfo@@U?$less@H@std@@V?$allocator@U?$pair@$$CBHPAVTUnionInfo@@@std@@@3@$0A@@std@@@2@XZ ENDP ; std::_Tree_val<std::_Tmap_traits<int,TUnionInfo *,std::less<int>,std::allocator<std::pair<int const ,TUnionInfo *> >,0> >::_Buynode
_TEXT	ENDS
PUBLIC	??$?0$$CBHPAVTUnionInfo@@@?$pair@$$CBHPAVTUnionInfo@@@std@@QAE@$$QAU01@@Z ; std::pair<int const ,TUnionInfo *>::pair<int const ,TUnionInfo *><int const ,TUnionInfo *>
; Function compile flags: /Ogtp
; File c:\program files (x86)\microsoft visual studio 10.0\vc\include\utility
;	COMDAT ??$?0$$CBHPAVTUnionInfo@@@?$pair@$$CBHPAVTUnionInfo@@@std@@QAE@$$QAU01@@Z
_TEXT	SEGMENT
__Right$ = 8						; size = 4
??$?0$$CBHPAVTUnionInfo@@@?$pair@$$CBHPAVTUnionInfo@@@std@@QAE@$$QAU01@@Z PROC ; std::pair<int const ,TUnionInfo *>::pair<int const ,TUnionInfo *><int const ,TUnionInfo *>, COMDAT
; _this$ = ecx

; 255  : 		{	// construct from moved compatible pair

  00000	55		 push	 ebp
  00001	8b ec		 mov	 ebp, esp
  00003	8b c1		 mov	 eax, ecx
  00005	8b 4d 08	 mov	 ecx, DWORD PTR __Right$[ebp]
  00008	8b 11		 mov	 edx, DWORD PTR [ecx]
  0000a	89 10		 mov	 DWORD PTR [eax], edx
  0000c	8b 49 04	 mov	 ecx, DWORD PTR [ecx+4]
  0000f	89 48 04	 mov	 DWORD PTR [eax+4], ecx

; 256  : 		}

  00012	5d		 pop	 ebp
  00013	c2 04 00	 ret	 4
??$?0$$CBHPAVTUnionInfo@@@?$pair@$$CBHPAVTUnionInfo@@@std@@QAE@$$QAU01@@Z ENDP ; std::pair<int const ,TUnionInfo *>::pair<int const ,TUnionInfo *><int const ,TUnionInfo *>
_TEXT	ENDS
PUBLIC	??E?$_Tree_iterator@V?$_Tree_val@V?$_Tmap_traits@HPAVTUnionInfo@@U?$less@H@std@@V?$allocator@U?$pair@$$CBHPAVTUnionInfo@@@std@@@3@$0A@@std@@@std@@@std@@QAEAAV01@XZ ; std::_Tree_iterator<std::_Tree_val<std::_Tmap_traits<int,TUnionInfo *,std::less<int>,std::allocator<std::pair<int const ,TUnionInfo *> >,0> > >::operator++
; Function compile flags: /Ogtp
; File c:\program files (x86)\microsoft visual studio 10.0\vc\include\xtree
;	COMDAT ??E?$_Tree_iterator@V?$_Tree_val@V?$_Tmap_traits@HPAVTUnionInfo@@U?$less@H@std@@V?$allocator@U?$pair@$$CBHPAVTUnionInfo@@@std@@@3@$0A@@std@@@std@@@std@@QAEAAV01@XZ
_TEXT	SEGMENT
??E?$_Tree_iterator@V?$_Tree_val@V?$_Tmap_traits@HPAVTUnionInfo@@U?$less@H@std@@V?$allocator@U?$pair@$$CBHPAVTUnionInfo@@@std@@@3@$0A@@std@@@std@@@std@@QAEAAV01@XZ PROC ; std::_Tree_iterator<std::_Tree_val<std::_Tmap_traits<int,TUnionInfo *,std::less<int>,std::allocator<std::pair<int const ,TUnionInfo *> >,0> > >::operator++, COMDAT
; _this$ = ecx

; 405  : 		{	// preincrement

  00000	56		 push	 esi
  00001	8b f1		 mov	 esi, ecx

; 406  : 		++(*(_Mybase *)this);

  00003	e8 00 00 00 00	 call	 ??E?$_Tree_unchecked_const_iterator@V?$_Tree_val@V?$_Tmap_traits@HPAVTUnionInfo@@U?$less@H@std@@V?$allocator@U?$pair@$$CBHPAVTUnionInfo@@@std@@@3@$0A@@std@@@std@@U_Iterator_base0@2@@std@@QAEAAV01@XZ ; std::_Tree_unchecked_const_iterator<std::_Tree_val<std::_Tmap_traits<int,TUnionInfo *,std::less<int>,std::allocator<std::pair<int const ,TUnionInfo *> >,0> >,std::_Iterator_base0>::operator++

; 407  : 		return (*this);

  00008	8b c6		 mov	 eax, esi
  0000a	5e		 pop	 esi

; 408  : 		}

  0000b	c3		 ret	 0
??E?$_Tree_iterator@V?$_Tree_val@V?$_Tmap_traits@HPAVTUnionInfo@@U?$less@H@std@@V?$allocator@U?$pair@$$CBHPAVTUnionInfo@@@std@@@3@$0A@@std@@@std@@@std@@QAEAAV01@XZ ENDP ; std::_Tree_iterator<std::_Tree_val<std::_Tmap_traits<int,TUnionInfo *,std::less<int>,std::allocator<std::pair<int const ,TUnionInfo *> >,0> > >::operator++
_TEXT	ENDS
PUBLIC	?_Erase@?$_Tree@V?$_Tmap_traits@HPAVTUnionInfo@@U?$less@H@std@@V?$allocator@U?$pair@$$CBHPAVTUnionInfo@@@std@@@3@$0A@@std@@@std@@IAEXPAU_Node@?$_Tree_nod@V?$_Tmap_traits@HPAVTUnionInfo@@U?$less@H@std@@V?$allocator@U?$pair@$$CBHPAVTUnionInfo@@@std@@@3@$0A@@std@@@2@@Z ; std::_Tree<std::_Tmap_traits<int,TUnionInfo *,std::less<int>,std::allocator<std::pair<int const ,TUnionInfo *> >,0> >::_Erase
; Function compile flags: /Ogtp
;	COMDAT ?_Erase@?$_Tree@V?$_Tmap_traits@HPAVTUnionInfo@@U?$less@H@std@@V?$allocator@U?$pair@$$CBHPAVTUnionInfo@@@std@@@3@$0A@@std@@@std@@IAEXPAU_Node@?$_Tree_nod@V?$_Tmap_traits@HPAVTUnionInfo@@U?$less@H@std@@V?$allocator@U?$pair@$$CBHPAVTUnionInfo@@@std@@@3@$0A@@std@@@2@@Z
_TEXT	SEGMENT
__Rootnode$ = 8						; size = 4
?_Erase@?$_Tree@V?$_Tmap_traits@HPAVTUnionInfo@@U?$less@H@std@@V?$allocator@U?$pair@$$CBHPAVTUnionInfo@@@std@@@3@$0A@@std@@@std@@IAEXPAU_Node@?$_Tree_nod@V?$_Tmap_traits@HPAVTUnionInfo@@U?$less@H@std@@V?$allocator@U?$pair@$$CBHPAVTUnionInfo@@@std@@@3@$0A@@std@@@2@@Z PROC ; std::_Tree<std::_Tmap_traits<int,TUnionInfo *,std::less<int>,std::allocator<std::pair<int const ,TUnionInfo *> >,0> >::_Erase, COMDAT
; _this$ = ecx

; 1610 : 		{	// free entire subtree, recursively

  00000	55		 push	 ebp
  00001	8b ec		 mov	 ebp, esp
  00003	53		 push	 ebx
  00004	56		 push	 esi
  00005	57		 push	 edi

; 1611 : 		for (_Nodeptr _Pnode = _Rootnode;

  00006	8b 7d 08	 mov	 edi, DWORD PTR __Rootnode$[ebp]

; 1612 : 			!this->_Isnil(_Pnode); _Rootnode = _Pnode)

  00009	80 7f 15 00	 cmp	 BYTE PTR [edi+21], 0
  0000d	8b d9		 mov	 ebx, ecx
  0000f	8b f7		 mov	 esi, edi
  00011	75 1e		 jne	 SHORT $LN1@Erase
$LL3@Erase:

; 1613 : 			{	// free subtrees, then node
; 1614 : 			_Erase(this->_Right(_Pnode));

  00013	8b 46 08	 mov	 eax, DWORD PTR [esi+8]
  00016	50		 push	 eax
  00017	8b cb		 mov	 ecx, ebx
  00019	e8 00 00 00 00	 call	 ?_Erase@?$_Tree@V?$_Tmap_traits@HPAVTUnionInfo@@U?$less@H@std@@V?$allocator@U?$pair@$$CBHPAVTUnionInfo@@@std@@@3@$0A@@std@@@std@@IAEXPAU_Node@?$_Tree_nod@V?$_Tmap_traits@HPAVTUnionInfo@@U?$less@H@std@@V?$allocator@U?$pair@$$CBHPAVTUnionInfo@@@std@@@3@$0A@@std@@@2@@Z ; std::_Tree<std::_Tmap_traits<int,TUnionInfo *,std::less<int>,std::allocator<std::pair<int const ,TUnionInfo *> >,0> >::_Erase

; 1615 : 			_Pnode = this->_Left(_Pnode);

  0001e	8b 36		 mov	 esi, DWORD PTR [esi]

; 1616 : 			_Dest_val(this->_Alval,
; 1617 : 				_STD addressof(this->_Myval(_Rootnode)));
; 1618 : 
; 1619 : 			this->_Alnod.deallocate(_Rootnode, 1);

  00020	57		 push	 edi
  00021	e8 00 00 00 00	 call	 ??3@YAXPAX@Z		; operator delete
  00026	83 c4 04	 add	 esp, 4
  00029	80 7e 15 00	 cmp	 BYTE PTR [esi+21], 0
  0002d	8b fe		 mov	 edi, esi
  0002f	74 e2		 je	 SHORT $LL3@Erase
$LN1@Erase:
  00031	5f		 pop	 edi
  00032	5e		 pop	 esi
  00033	5b		 pop	 ebx

; 1620 : 			}
; 1621 : 		}

  00034	5d		 pop	 ebp
  00035	c2 04 00	 ret	 4
?_Erase@?$_Tree@V?$_Tmap_traits@HPAVTUnionInfo@@U?$less@H@std@@V?$allocator@U?$pair@$$CBHPAVTUnionInfo@@@std@@@3@$0A@@std@@@std@@IAEXPAU_Node@?$_Tree_nod@V?$_Tmap_traits@HPAVTUnionInfo@@U?$less@H@std@@V?$allocator@U?$pair@$$CBHPAVTUnionInfo@@@std@@@3@$0A@@std@@@2@@Z ENDP ; std::_Tree<std::_Tmap_traits<int,TUnionInfo *,std::less<int>,std::allocator<std::pair<int const ,TUnionInfo *> >,0> >::_Erase
_TEXT	ENDS
PUBLIC	??0?$_Tree_iterator@V?$_Tree_val@V?$_Tmap_traits@HPAVTUnionInfo@@U?$less@H@std@@V?$allocator@U?$pair@$$CBHPAVTUnionInfo@@@std@@@3@$0A@@std@@@std@@@std@@QAE@PAU_Node@?$_Tree_nod@V?$_Tmap_traits@HPAVTUnionInfo@@U?$less@H@std@@V?$allocator@U?$pair@$$CBHPAVTUnionInfo@@@std@@@3@$0A@@std@@@1@PBV?$_Tree_val@V?$_Tmap_traits@HPAVTUnionInfo@@U?$less@H@std@@V?$allocator@U?$pair@$$CBHPAVTUnionInfo@@@std@@@3@$0A@@std@@@1@@Z ; std::_Tree_iterator<std::_Tree_val<std::_Tmap_traits<int,TUnionInfo *,std::less<int>,std::allocator<std::pair<int const ,TUnionInfo *> >,0> > >::_Tree_iterator<std::_Tree_val<std::_Tmap_traits<int,TUnionInfo *,std::less<int>,std::allocator<std::pair<int const ,TUnionInfo *> >,0> > >
; Function compile flags: /Ogtp
;	COMDAT ??0?$_Tree_iterator@V?$_Tree_val@V?$_Tmap_traits@HPAVTUnionInfo@@U?$less@H@std@@V?$allocator@U?$pair@$$CBHPAVTUnionInfo@@@std@@@3@$0A@@std@@@std@@@std@@QAE@PAU_Node@?$_Tree_nod@V?$_Tmap_traits@HPAVTUnionInfo@@U?$less@H@std@@V?$allocator@U?$pair@$$CBHPAVTUnionInfo@@@std@@@3@$0A@@std@@@1@PBV?$_Tree_val@V?$_Tmap_traits@HPAVTUnionInfo@@U?$less@H@std@@V?$allocator@U?$pair@$$CBHPAVTUnionInfo@@@std@@@3@$0A@@std@@@1@@Z
_TEXT	SEGMENT
__Pnode$ = 8						; size = 4
__Plist$ = 12						; size = 4
??0?$_Tree_iterator@V?$_Tree_val@V?$_Tmap_traits@HPAVTUnionInfo@@U?$less@H@std@@V?$allocator@U?$pair@$$CBHPAVTUnionInfo@@@std@@@3@$0A@@std@@@std@@@std@@QAE@PAU_Node@?$_Tree_nod@V?$_Tmap_traits@HPAVTUnionInfo@@U?$less@H@std@@V?$allocator@U?$pair@$$CBHPAVTUnionInfo@@@std@@@3@$0A@@std@@@1@PBV?$_Tree_val@V?$_Tmap_traits@HPAVTUnionInfo@@U?$less@H@std@@V?$allocator@U?$pair@$$CBHPAVTUnionInfo@@@std@@@3@$0A@@std@@@1@@Z PROC ; std::_Tree_iterator<std::_Tree_val<std::_Tmap_traits<int,TUnionInfo *,std::less<int>,std::allocator<std::pair<int const ,TUnionInfo *> >,0> > >::_Tree_iterator<std::_Tree_val<std::_Tmap_traits<int,TUnionInfo *,std::less<int>,std::allocator<std::pair<int const ,TUnionInfo *> >,0> > >, COMDAT
; _this$ = ecx

; 378  : 		{	// construct with node pointer _Pnode

  00000	55		 push	 ebp
  00001	8b ec		 mov	 ebp, esp
  00003	8b c1		 mov	 eax, ecx
  00005	8b 4d 08	 mov	 ecx, DWORD PTR __Pnode$[ebp]
  00008	89 08		 mov	 DWORD PTR [eax], ecx

; 379  : 		}

  0000a	5d		 pop	 ebp
  0000b	c2 08 00	 ret	 8
??0?$_Tree_iterator@V?$_Tree_val@V?$_Tmap_traits@HPAVTUnionInfo@@U?$less@H@std@@V?$allocator@U?$pair@$$CBHPAVTUnionInfo@@@std@@@3@$0A@@std@@@std@@@std@@QAE@PAU_Node@?$_Tree_nod@V?$_Tmap_traits@HPAVTUnionInfo@@U?$less@H@std@@V?$allocator@U?$pair@$$CBHPAVTUnionInfo@@@std@@@3@$0A@@std@@@1@PBV?$_Tree_val@V?$_Tmap_traits@HPAVTUnionInfo@@U?$less@H@std@@V?$allocator@U?$pair@$$CBHPAVTUnionInfo@@@std@@@3@$0A@@std@@@1@@Z ENDP ; std::_Tree_iterator<std::_Tree_val<std::_Tmap_traits<int,TUnionInfo *,std::less<int>,std::allocator<std::pair<int const ,TUnionInfo *> >,0> > >::_Tree_iterator<std::_Tree_val<std::_Tmap_traits<int,TUnionInfo *,std::less<int>,std::allocator<std::pair<int const ,TUnionInfo *> >,0> > >
_TEXT	ENDS
PUBLIC	?reserve@?$vector@HV?$allocator@H@std@@@std@@QAEXI@Z ; std::vector<int,std::allocator<int> >::reserve
; Function compile flags: /Ogtp
; File c:\program files (x86)\microsoft visual studio 10.0\vc\include\vector
;	COMDAT ?reserve@?$vector@HV?$allocator@H@std@@@std@@QAEXI@Z
_TEXT	SEGMENT
__Count$ = 8						; size = 4
?reserve@?$vector@HV?$allocator@H@std@@@std@@QAEXI@Z PROC ; std::vector<int,std::allocator<int> >::reserve, COMDAT
; _this$ = ecx

; 746  : 		{	// determine new minimum length of allocated storage

  00000	55		 push	 ebp
  00001	8b ec		 mov	 ebp, esp

; 747  : 		if (max_size() < _Count)

  00003	8b 45 08	 mov	 eax, DWORD PTR __Count$[ebp]
  00006	56		 push	 esi
  00007	8b f1		 mov	 esi, ecx
  00009	3d ff ff ff 3f	 cmp	 eax, 1073741823		; 3fffffffH
  0000e	76 0a		 jbe	 SHORT $LN5@reserve

; 748  : 			_Xlen();	// result too long

  00010	68 00 00 00 00	 push	 OFFSET ??_C@_0BD@OLBABOEK@vector?$DMT?$DO?5too?5long?$AA@
  00015	e8 00 00 00 00	 call	 ?_Xlength_error@std@@YAXPBD@Z ; std::_Xlength_error
$LN43@reserve:
$LN5@reserve:

; 749  : 		else if (capacity() < _Count)

  0001a	8b 4e 08	 mov	 ecx, DWORD PTR [esi+8]
  0001d	2b 0e		 sub	 ecx, DWORD PTR [esi]
  0001f	c1 f9 02	 sar	 ecx, 2
  00022	3b c8		 cmp	 ecx, eax
  00024	73 50		 jae	 SHORT $LN3@reserve

; 750  : 			{	// not enough room, reallocate
; 751  : 			pointer _Ptr = this->_Alval.allocate(_Count);

  00026	53		 push	 ebx
  00027	57		 push	 edi
  00028	50		 push	 eax
  00029	8d 4e 0c	 lea	 ecx, DWORD PTR [esi+12]
  0002c	e8 00 00 00 00	 call	 ?allocate@?$allocator@H@std@@QAEPAHI@Z ; std::allocator<int>::allocate

; 752  : 
; 753  : 			_TRY_BEGIN
; 754  : 			_Umove(this->_Myfirst, this->_Mylast, _Ptr);

  00031	8b 56 04	 mov	 edx, DWORD PTR [esi+4]
  00034	8b d8		 mov	 ebx, eax
  00036	8b 06		 mov	 eax, DWORD PTR [esi]
  00038	2b d0		 sub	 edx, eax
  0003a	c1 fa 02	 sar	 edx, 2
  0003d	03 d2		 add	 edx, edx
  0003f	03 d2		 add	 edx, edx
  00041	52		 push	 edx
  00042	50		 push	 eax
  00043	53		 push	 ebx
  00044	e8 00 00 00 00	 call	 _memmove

; 755  : 			_CATCH_ALL
; 756  : 			this->_Alval.deallocate(_Ptr, _Count);
; 757  : 			_RERAISE;
; 758  : 			_CATCH_END
; 759  : 
; 760  : 			size_type _Size = size();

  00049	8b 06		 mov	 eax, DWORD PTR [esi]
  0004b	8b 7e 04	 mov	 edi, DWORD PTR [esi+4]
  0004e	2b f8		 sub	 edi, eax
  00050	83 c4 0c	 add	 esp, 12			; 0000000cH
  00053	c1 ff 02	 sar	 edi, 2

; 761  : 			if (this->_Myfirst != 0)

  00056	85 c0		 test	 eax, eax
  00058	74 09		 je	 SHORT $LN37@reserve

; 762  : 				{	// destroy and deallocate old array
; 763  : 				_Destroy(this->_Myfirst, this->_Mylast);
; 764  : 				this->_Alval.deallocate(this->_Myfirst,
; 765  : 					this->_Myend - this->_Myfirst);

  0005a	50		 push	 eax
  0005b	e8 00 00 00 00	 call	 ??3@YAXPAX@Z		; operator delete
  00060	83 c4 04	 add	 esp, 4
$LN37@reserve:

; 766  : 				}
; 767  : 
; 768  : 			this->_Orphan_all();
; 769  : 			this->_Myend = _Ptr + _Count;

  00063	8b 45 08	 mov	 eax, DWORD PTR __Count$[ebp]

; 770  : 			this->_Mylast = _Ptr + _Size;

  00066	8d 14 bb	 lea	 edx, DWORD PTR [ebx+edi*4]
  00069	8d 0c 83	 lea	 ecx, DWORD PTR [ebx+eax*4]
  0006c	5f		 pop	 edi

; 771  : 			this->_Myfirst = _Ptr;

  0006d	89 1e		 mov	 DWORD PTR [esi], ebx
  0006f	89 4e 08	 mov	 DWORD PTR [esi+8], ecx
  00072	89 56 04	 mov	 DWORD PTR [esi+4], edx
  00075	5b		 pop	 ebx
$LN3@reserve:
  00076	5e		 pop	 esi

; 772  : 			}
; 773  : 		}

  00077	5d		 pop	 ebp
  00078	c2 04 00	 ret	 4
$LN42@reserve:
?reserve@?$vector@HV?$allocator@H@std@@@std@@QAEXI@Z ENDP ; std::vector<int,std::allocator<int> >::reserve
_TEXT	ENDS
PUBLIC	??_C@_0BM@PAPJHAGI@invalid?5map?1set?$DMT?$DO?5iterator?$AA@ ; `string'
PUBLIC	?erase@?$_Tree@V?$_Tmap_traits@HPAVTUnionInfo@@U?$less@H@std@@V?$allocator@U?$pair@$$CBHPAVTUnionInfo@@@std@@@3@$0A@@std@@@std@@QAE?AV?$_Tree_iterator@V?$_Tree_val@V?$_Tmap_traits@HPAVTUnionInfo@@U?$less@H@std@@V?$allocator@U?$pair@$$CBHPAVTUnionInfo@@@std@@@3@$0A@@std@@@std@@@2@V?$_Tree_const_iterator@V?$_Tree_val@V?$_Tmap_traits@HPAVTUnionInfo@@U?$less@H@std@@V?$allocator@U?$pair@$$CBHPAVTUnionInfo@@@std@@@3@$0A@@std@@@std@@@2@@Z ; std::_Tree<std::_Tmap_traits<int,TUnionInfo *,std::less<int>,std::allocator<std::pair<int const ,TUnionInfo *> >,0> >::erase
EXTRN	?_Xout_of_range@std@@YAXPBD@Z:PROC		; std::_Xout_of_range
;	COMDAT ??_C@_0BM@PAPJHAGI@invalid?5map?1set?$DMT?$DO?5iterator?$AA@
; File c:\program files (x86)\microsoft visual studio 10.0\vc\include\xutility
CONST	SEGMENT
??_C@_0BM@PAPJHAGI@invalid?5map?1set?$DMT?$DO?5iterator?$AA@ DB 'invalid '
	DB	'map/set<T> iterator', 00H			; `string'
; Function compile flags: /Ogtp
; File c:\program files (x86)\microsoft visual studio 10.0\vc\include\xtree
CONST	ENDS
;	COMDAT ?erase@?$_Tree@V?$_Tmap_traits@HPAVTUnionInfo@@U?$less@H@std@@V?$allocator@U?$pair@$$CBHPAVTUnionInfo@@@std@@@3@$0A@@std@@@std@@QAE?AV?$_Tree_iterator@V?$_Tree_val@V?$_Tmap_traits@HPAVTUnionInfo@@U?$less@H@std@@V?$allocator@U?$pair@$$CBHPAVTUnionInfo@@@std@@@3@$0A@@std@@@std@@@2@V?$_Tree_const_iterator@V?$_Tree_val@V?$_Tmap_traits@HPAVTUnionInfo@@U?$less@H@std@@V?$allocator@U?$pair@$$CBHPAVTUnionInfo@@@std@@@3@$0A@@std@@@std@@@2@@Z
_TEXT	SEGMENT
tv795 = -12						; size = 4
__Erasednode$ = -8					; size = 4
_this$ = -4						; size = 4
___$ReturnUdt$ = 8					; size = 4
__Where$ = 12						; size = 4
?erase@?$_Tree@V?$_Tmap_traits@HPAVTUnionInfo@@U?$less@H@std@@V?$allocator@U?$pair@$$CBHPAVTUnionInfo@@@std@@@3@$0A@@std@@@std@@QAE?AV?$_Tree_iterator@V?$_Tree_val@V?$_Tmap_traits@HPAVTUnionInfo@@U?$less@H@std@@V?$allocator@U?$pair@$$CBHPAVTUnionInfo@@@std@@@3@$0A@@std@@@std@@@2@V?$_Tree_const_iterator@V?$_Tree_val@V?$_Tmap_traits@HPAVTUnionInfo@@U?$less@H@std@@V?$allocator@U?$pair@$$CBHPAVTUnionInfo@@@std@@@3@$0A@@std@@@std@@@2@@Z PROC ; std::_Tree<std::_Tmap_traits<int,TUnionInfo *,std::less<int>,std::allocator<std::pair<int const ,TUnionInfo *> >,0> >::erase, COMDAT
; _this$ = ecx

; 1195 : 		{	// erase element at _Where

  00000	55		 push	 ebp
  00001	8b ec		 mov	 ebp, esp
  00003	83 ec 0c	 sub	 esp, 12			; 0000000cH
  00006	53		 push	 ebx

; 1196 :  #if _ITERATOR_DEBUG_LEVEL == 2
; 1197 : 		if (_Where._Getcont() != this || this->_Isnil(_Where._Mynode()))
; 1198 : 			_DEBUG_ERROR("map/set erase iterator outside range");
; 1199 : 		_Nodeptr _Erasednode = _Where._Mynode();	// node to erase
; 1200 : 		++_Where;	// save successor iterator for return
; 1201 : 		_Orphan_ptr(*this, _Erasednode);
; 1202 : 
; 1203 :  #else /* _ITERATOR_DEBUG_LEVEL == 2 */
; 1204 : 		if (this->_Isnil(_Where._Mynode()))

  00007	8b 5d 0c	 mov	 ebx, DWORD PTR __Where$[ebp]
  0000a	80 7b 15 00	 cmp	 BYTE PTR [ebx+21], 0
  0000e	56		 push	 esi
  0000f	57		 push	 edi
  00010	89 4d fc	 mov	 DWORD PTR _this$[ebp], ecx
  00013	74 0a		 je	 SHORT $LN40@erase

; 1205 : 			_Xout_of_range("invalid map/set<T> iterator");

  00015	68 00 00 00 00	 push	 OFFSET ??_C@_0BM@PAPJHAGI@invalid?5map?1set?$DMT?$DO?5iterator?$AA@
  0001a	e8 00 00 00 00	 call	 ?_Xout_of_range@std@@YAXPBD@Z ; std::_Xout_of_range
$LN295@erase:
$LN40@erase:

; 1206 : 		_Nodeptr _Erasednode = _Where._Mynode();	// node to erase
; 1207 : 		++_Where;	// save successor iterator for return

  0001f	8d 4d 0c	 lea	 ecx, DWORD PTR __Where$[ebp]
  00022	89 5d f8	 mov	 DWORD PTR __Erasednode$[ebp], ebx
  00025	e8 00 00 00 00	 call	 ??E?$_Tree_unchecked_const_iterator@V?$_Tree_val@V?$_Tmap_traits@HPAVTUnionInfo@@U?$less@H@std@@V?$allocator@U?$pair@$$CBHPAVTUnionInfo@@@std@@@3@$0A@@std@@@std@@U_Iterator_base0@2@@std@@QAEAAV01@XZ ; std::_Tree_unchecked_const_iterator<std::_Tree_val<std::_Tmap_traits<int,TUnionInfo *,std::less<int>,std::allocator<std::pair<int const ,TUnionInfo *> >,0> >,std::_Iterator_base0>::operator++

; 1208 :  #endif /* _ITERATOR_DEBUG_LEVEL == 2 */
; 1209 : 
; 1210 : 		_Nodeptr _Fixnode;	// the node to recolor as needed
; 1211 : 		_Nodeptr _Fixnodeparent;	// parent of _Fixnode (which may be nil)
; 1212 : 		_Nodeptr _Pnode = _Erasednode;
; 1213 : 
; 1214 : 		if (this->_Isnil(this->_Left(_Pnode)))

  0002a	8b 0b		 mov	 ecx, DWORD PTR [ebx]
  0002c	80 79 15 00	 cmp	 BYTE PTR [ecx+21], 0
  00030	74 05		 je	 SHORT $LN39@erase

; 1215 : 			_Fixnode = this->_Right(_Pnode);	// stitch up right subtree

  00032	8b 7b 08	 mov	 edi, DWORD PTR [ebx+8]

; 1216 : 		else if (this->_Isnil(this->_Right(_Pnode)))

  00035	eb 17		 jmp	 SHORT $LN291@erase
$LN39@erase:
  00037	8b 43 08	 mov	 eax, DWORD PTR [ebx+8]
  0003a	80 78 15 00	 cmp	 BYTE PTR [eax+21], 0
  0003e	74 04		 je	 SHORT $LN37@erase

; 1217 : 			_Fixnode = this->_Left(_Pnode);	// stitch up left subtree

  00040	8b f9		 mov	 edi, ecx

; 1218 : 		else

  00042	eb 0a		 jmp	 SHORT $LN291@erase
$LN37@erase:

; 1219 : 			{	// two subtrees, must lift successor node to replace erased
; 1220 : 			_Pnode = _Where._Mynode();	// _Pnode is successor node

  00044	8b 45 0c	 mov	 eax, DWORD PTR __Where$[ebp]

; 1221 : 			_Fixnode = this->_Right(_Pnode);	// _Fixnode is only subtree

  00047	8b 78 08	 mov	 edi, DWORD PTR [eax+8]

; 1222 : 			}
; 1223 : 
; 1224 : 		if (_Pnode == _Erasednode)

  0004a	3b c3		 cmp	 eax, ebx
  0004c	75 72		 jne	 SHORT $LN35@erase
$LN291@erase:

; 1225 : 			{	// at most one subtree, relink it
; 1226 : 			_Fixnodeparent = this->_Parent(_Erasednode);
; 1227 : 			if (!this->_Isnil(_Fixnode))

  0004e	80 7f 15 00	 cmp	 BYTE PTR [edi+21], 0
  00052	8b 73 04	 mov	 esi, DWORD PTR [ebx+4]
  00055	75 03		 jne	 SHORT $LN34@erase

; 1228 : 				this->_Parent(_Fixnode) = _Fixnodeparent;	// link up

  00057	89 77 04	 mov	 DWORD PTR [edi+4], esi
$LN34@erase:

; 1229 : 
; 1230 : 			if (_Root() == _Erasednode)

  0005a	8b 4d fc	 mov	 ecx, DWORD PTR _this$[ebp]
  0005d	8b 41 04	 mov	 eax, DWORD PTR [ecx+4]
  00060	39 58 04	 cmp	 DWORD PTR [eax+4], ebx
  00063	75 05		 jne	 SHORT $LN33@erase

; 1231 : 				_Root() = _Fixnode;	// link down from root

  00065	89 78 04	 mov	 DWORD PTR [eax+4], edi

; 1232 : 			else if (this->_Left(_Fixnodeparent) == _Erasednode)

  00068	eb 0b		 jmp	 SHORT $LN30@erase
$LN33@erase:
  0006a	39 1e		 cmp	 DWORD PTR [esi], ebx
  0006c	75 04		 jne	 SHORT $LN31@erase

; 1233 : 				this->_Left(_Fixnodeparent) = _Fixnode;	// link down to left

  0006e	89 3e		 mov	 DWORD PTR [esi], edi

; 1234 : 			else

  00070	eb 03		 jmp	 SHORT $LN30@erase
$LN31@erase:

; 1235 : 				this->_Right(_Fixnodeparent) =
; 1236 : 					_Fixnode;	// link down to right

  00072	89 7e 08	 mov	 DWORD PTR [esi+8], edi
$LN30@erase:

; 1237 : 
; 1238 : 			if (_Lmost() == _Erasednode)

  00075	8b 41 04	 mov	 eax, DWORD PTR [ecx+4]
  00078	39 18		 cmp	 DWORD PTR [eax], ebx
  0007a	75 1b		 jne	 SHORT $LN29@erase

; 1239 : 				_Lmost() = this->_Isnil(_Fixnode)
; 1240 : 					? _Fixnodeparent	// smallest is parent of erased node
; 1241 : 					: this->_Min(_Fixnode);	// smallest in relinked subtree

  0007c	80 7f 15 00	 cmp	 BYTE PTR [edi+21], 0
  00080	74 04		 je	 SHORT $LN43@erase
  00082	8b c6		 mov	 eax, esi
  00084	eb 0c		 jmp	 SHORT $LN44@erase
$LN43@erase:
  00086	57		 push	 edi
  00087	e8 00 00 00 00	 call	 ?_Min@?$_Tree_val@V?$_Tmap_traits@HPAVTUnionInfo@@U?$less@H@std@@V?$allocator@U?$pair@$$CBHPAVTUnionInfo@@@std@@@3@$0A@@std@@@std@@SAPAU_Node@?$_Tree_nod@V?$_Tmap_traits@HPAVTUnionInfo@@U?$less@H@std@@V?$allocator@U?$pair@$$CBHPAVTUnionInfo@@@std@@@3@$0A@@std@@@2@PAU342@@Z ; std::_Tree_val<std::_Tmap_traits<int,TUnionInfo *,std::less<int>,std::allocator<std::pair<int const ,TUnionInfo *> >,0> >::_Min
  0008c	8b 4d fc	 mov	 ecx, DWORD PTR _this$[ebp]
  0008f	83 c4 04	 add	 esp, 4
$LN44@erase:
  00092	8b 51 04	 mov	 edx, DWORD PTR [ecx+4]
  00095	89 02		 mov	 DWORD PTR [edx], eax
$LN29@erase:

; 1242 : 
; 1243 : 			if (_Rmost() == _Erasednode)

  00097	8b 49 04	 mov	 ecx, DWORD PTR [ecx+4]
  0009a	89 4d f4	 mov	 DWORD PTR tv795[ebp], ecx
  0009d	39 59 08	 cmp	 DWORD PTR [ecx+8], ebx
  000a0	75 78		 jne	 SHORT $LN165@erase

; 1244 : 				_Rmost() = this->_Isnil(_Fixnode)
; 1245 : 					? _Fixnodeparent	// largest is parent of erased node
; 1246 : 					: this->_Max(_Fixnode);	// largest in relinked subtree

  000a2	80 7f 15 00	 cmp	 BYTE PTR [edi+21], 0
  000a6	74 07		 je	 SHORT $LN45@erase
  000a8	8b c6		 mov	 eax, esi
  000aa	89 41 08	 mov	 DWORD PTR [ecx+8], eax

; 1247 : 			}
; 1248 : 		else

  000ad	eb 6b		 jmp	 SHORT $LN165@erase
$LN45@erase:

; 1244 : 				_Rmost() = this->_Isnil(_Fixnode)
; 1245 : 					? _Fixnodeparent	// largest is parent of erased node
; 1246 : 					: this->_Max(_Fixnode);	// largest in relinked subtree

  000af	57		 push	 edi
  000b0	e8 00 00 00 00	 call	 ?_Max@?$_Tree_val@V?$_Tmap_traits@HPAVTUnionInfo@@U?$less@H@std@@V?$allocator@U?$pair@$$CBHPAVTUnionInfo@@@std@@@3@$0A@@std@@@std@@SAPAU_Node@?$_Tree_nod@V?$_Tmap_traits@HPAVTUnionInfo@@U?$less@H@std@@V?$allocator@U?$pair@$$CBHPAVTUnionInfo@@@std@@@3@$0A@@std@@@2@PAU342@@Z ; std::_Tree_val<std::_Tmap_traits<int,TUnionInfo *,std::less<int>,std::allocator<std::pair<int const ,TUnionInfo *> >,0> >::_Max
  000b5	8b 4d f4	 mov	 ecx, DWORD PTR tv795[ebp]
  000b8	83 c4 04	 add	 esp, 4
  000bb	89 41 08	 mov	 DWORD PTR [ecx+8], eax

; 1247 : 			}
; 1248 : 		else

  000be	eb 5a		 jmp	 SHORT $LN165@erase
$LN35@erase:

; 1249 : 			{	// erased has two subtrees, _Pnode is successor to erased
; 1250 : 			this->_Parent(this->_Left(_Erasednode)) =
; 1251 : 				_Pnode;	// link left up

  000c0	89 41 04	 mov	 DWORD PTR [ecx+4], eax

; 1252 : 			this->_Left(_Pnode) =
; 1253 : 				this->_Left(_Erasednode);	// link successor down

  000c3	8b 0b		 mov	 ecx, DWORD PTR [ebx]
  000c5	89 08		 mov	 DWORD PTR [eax], ecx

; 1254 : 
; 1255 : 			if (_Pnode == this->_Right(_Erasednode))

  000c7	3b 43 08	 cmp	 eax, DWORD PTR [ebx+8]
  000ca	75 04		 jne	 SHORT $LN26@erase

; 1256 : 				_Fixnodeparent = _Pnode;	// successor is next to erased

  000cc	8b f0		 mov	 esi, eax

; 1257 : 			else

  000ce	eb 1a		 jmp	 SHORT $LN25@erase
$LN26@erase:

; 1258 : 				{	// successor further down, link in place of erased
; 1259 : 				_Fixnodeparent =
; 1260 : 					this->_Parent(_Pnode);	// parent is successor's
; 1261 : 				if (!this->_Isnil(_Fixnode))

  000d0	80 7f 15 00	 cmp	 BYTE PTR [edi+21], 0
  000d4	8b 70 04	 mov	 esi, DWORD PTR [eax+4]
  000d7	75 03		 jne	 SHORT $LN24@erase

; 1262 : 					this->_Parent(_Fixnode) = _Fixnodeparent;	// link fix up

  000d9	89 77 04	 mov	 DWORD PTR [edi+4], esi
$LN24@erase:

; 1263 : 				this->_Left(_Fixnodeparent) = _Fixnode;	// link fix down

  000dc	89 3e		 mov	 DWORD PTR [esi], edi

; 1264 : 				this->_Right(_Pnode) =
; 1265 : 					this->_Right(_Erasednode);	// link next down

  000de	8b 4b 08	 mov	 ecx, DWORD PTR [ebx+8]
  000e1	89 48 08	 mov	 DWORD PTR [eax+8], ecx

; 1266 : 				this->_Parent(this->_Right(_Erasednode)) =
; 1267 : 					_Pnode;	// right up

  000e4	8b 53 08	 mov	 edx, DWORD PTR [ebx+8]
  000e7	89 42 04	 mov	 DWORD PTR [edx+4], eax
$LN25@erase:

; 1268 : 				}
; 1269 : 
; 1270 : 			if (_Root() == _Erasednode)

  000ea	8b 4d fc	 mov	 ecx, DWORD PTR _this$[ebp]
  000ed	8b 49 04	 mov	 ecx, DWORD PTR [ecx+4]
  000f0	39 59 04	 cmp	 DWORD PTR [ecx+4], ebx
  000f3	75 05		 jne	 SHORT $LN23@erase

; 1271 : 				_Root() = _Pnode;	// link down from root

  000f5	89 41 04	 mov	 DWORD PTR [ecx+4], eax

; 1272 : 			else if (this->_Left(this->_Parent(_Erasednode)) == _Erasednode)

  000f8	eb 0e		 jmp	 SHORT $LN20@erase
$LN23@erase:
  000fa	8b 4b 04	 mov	 ecx, DWORD PTR [ebx+4]
  000fd	39 19		 cmp	 DWORD PTR [ecx], ebx
  000ff	75 04		 jne	 SHORT $LN21@erase

; 1273 : 				this->_Left(this->_Parent(_Erasednode)) =
; 1274 : 					_Pnode;	// link down to left

  00101	89 01		 mov	 DWORD PTR [ecx], eax

; 1275 : 			else

  00103	eb 03		 jmp	 SHORT $LN20@erase
$LN21@erase:

; 1276 : 				this->_Right(this->_Parent(_Erasednode)) =
; 1277 : 					_Pnode;	// link down to right

  00105	89 41 08	 mov	 DWORD PTR [ecx+8], eax
$LN20@erase:

; 1278 : 
; 1279 : 			this->_Parent(_Pnode) =
; 1280 : 				this->_Parent(_Erasednode);	// link successor up

  00108	8b 53 04	 mov	 edx, DWORD PTR [ebx+4]
  0010b	89 50 04	 mov	 DWORD PTR [eax+4], edx

; 1281 : 			_STD swap(this->_Color(_Pnode),
; 1282 : 				this->_Color(_Erasednode));	// recolor it

  0010e	8a 53 14	 mov	 dl, BYTE PTR [ebx+20]
  00111	8a 48 14	 mov	 cl, BYTE PTR [eax+20]
  00114	88 50 14	 mov	 BYTE PTR [eax+20], dl
  00117	88 4b 14	 mov	 BYTE PTR [ebx+20], cl
$LN165@erase:

; 1283 : 			}
; 1284 : 
; 1285 : 		if (this->_Color(_Erasednode) == this->_Black)

  0011a	8b 45 f8	 mov	 eax, DWORD PTR __Erasednode$[ebp]
  0011d	b3 01		 mov	 bl, 1
  0011f	38 58 14	 cmp	 BYTE PTR [eax+20], bl
  00122	0f 85 fa 00 00
	00		 jne	 $LN19@erase

; 1286 : 			{	// erasing black link, must recolor/rebalance tree
; 1287 : 			for (; _Fixnode != _Root()
; 1288 : 				&& this->_Color(_Fixnode) == this->_Black;
; 1289 : 				_Fixnodeparent = this->_Parent(_Fixnode))

  00128	8b 4d fc	 mov	 ecx, DWORD PTR _this$[ebp]
  0012b	8b 51 04	 mov	 edx, DWORD PTR [ecx+4]
  0012e	3b 7a 04	 cmp	 edi, DWORD PTR [edx+4]
  00131	0f 84 e8 00 00
	00		 je	 $LN16@erase
$LL18@erase:
  00137	38 5f 14	 cmp	 BYTE PTR [edi+20], bl
  0013a	0f 85 df 00 00
	00		 jne	 $LN16@erase

; 1290 : 				if (_Fixnode == this->_Left(_Fixnodeparent))

  00140	8b 06		 mov	 eax, DWORD PTR [esi]
  00142	3b f8		 cmp	 edi, eax
  00144	75 65		 jne	 SHORT $LN15@erase

; 1291 : 					{	// fixup left subtree
; 1292 : 					_Pnode = this->_Right(_Fixnodeparent);

  00146	8b 46 08	 mov	 eax, DWORD PTR [esi+8]

; 1293 : 					if (this->_Color(_Pnode) == this->_Red)

  00149	80 78 14 00	 cmp	 BYTE PTR [eax+20], 0
  0014d	75 13		 jne	 SHORT $LN14@erase

; 1294 : 						{	// rotate red up from right subtree
; 1295 : 						this->_Color(_Pnode) = this->_Black;

  0014f	88 58 14	 mov	 BYTE PTR [eax+20], bl

; 1296 : 						this->_Color(_Fixnodeparent) = this->_Red;
; 1297 : 						_Lrotate(_Fixnodeparent);

  00152	56		 push	 esi
  00153	c6 46 14 00	 mov	 BYTE PTR [esi+20], 0
  00157	e8 00 00 00 00	 call	 ?_Lrotate@?$_Tree@V?$_Tmap_traits@HPAVTUnionInfo@@U?$less@H@std@@V?$allocator@U?$pair@$$CBHPAVTUnionInfo@@@std@@@3@$0A@@std@@@std@@IAEXPAU_Node@?$_Tree_nod@V?$_Tmap_traits@HPAVTUnionInfo@@U?$less@H@std@@V?$allocator@U?$pair@$$CBHPAVTUnionInfo@@@std@@@3@$0A@@std@@@2@@Z ; std::_Tree<std::_Tmap_traits<int,TUnionInfo *,std::less<int>,std::allocator<std::pair<int const ,TUnionInfo *> >,0> >::_Lrotate

; 1298 : 						_Pnode = this->_Right(_Fixnodeparent);

  0015c	8b 46 08	 mov	 eax, DWORD PTR [esi+8]
  0015f	8b 4d fc	 mov	 ecx, DWORD PTR _this$[ebp]
$LN14@erase:

; 1299 : 						}
; 1300 : 
; 1301 : 					if (this->_Isnil(_Pnode))

  00162	80 78 15 00	 cmp	 BYTE PTR [eax+21], 0

; 1302 : 						_Fixnode = _Fixnodeparent;	// shouldn't happen
; 1303 : 					else if (this->_Color(this->_Left(_Pnode)) == this->_Black

  00166	75 74		 jne	 SHORT $LN293@erase

; 1304 : 						&& this->_Color(this->_Right(_Pnode)) == this->_Black)

  00168	8b 10		 mov	 edx, DWORD PTR [eax]
  0016a	38 5a 14	 cmp	 BYTE PTR [edx+20], bl
  0016d	75 08		 jne	 SHORT $LN11@erase
  0016f	8b 50 08	 mov	 edx, DWORD PTR [eax+8]
  00172	38 5a 14	 cmp	 BYTE PTR [edx+20], bl
  00175	74 61		 je	 SHORT $LN294@erase
$LN11@erase:

; 1305 : 						{	// redden right subtree with black children
; 1306 : 						this->_Color(_Pnode) = this->_Red;
; 1307 : 						_Fixnode = _Fixnodeparent;
; 1308 : 						}
; 1309 : 					else
; 1310 : 						{	// must rearrange right subtree
; 1311 : 						if (this->_Color(this->_Right(_Pnode))
; 1312 : 							== this->_Black)

  00177	8b 50 08	 mov	 edx, DWORD PTR [eax+8]
  0017a	38 5a 14	 cmp	 BYTE PTR [edx+20], bl
  0017d	75 15		 jne	 SHORT $LN9@erase

; 1313 : 							{	// rotate red up from left sub-subtree
; 1314 : 							this->_Color(this->_Left(_Pnode)) = this->_Black;

  0017f	8b 10		 mov	 edx, DWORD PTR [eax]
  00181	88 5a 14	 mov	 BYTE PTR [edx+20], bl

; 1315 : 							this->_Color(_Pnode) = this->_Red;
; 1316 : 							_Rrotate(_Pnode);

  00184	50		 push	 eax
  00185	c6 40 14 00	 mov	 BYTE PTR [eax+20], 0
  00189	e8 00 00 00 00	 call	 ?_Rrotate@?$_Tree@V?$_Tmap_traits@HPAVTUnionInfo@@U?$less@H@std@@V?$allocator@U?$pair@$$CBHPAVTUnionInfo@@@std@@@3@$0A@@std@@@std@@IAEXPAU_Node@?$_Tree_nod@V?$_Tmap_traits@HPAVTUnionInfo@@U?$less@H@std@@V?$allocator@U?$pair@$$CBHPAVTUnionInfo@@@std@@@3@$0A@@std@@@2@@Z ; std::_Tree<std::_Tmap_traits<int,TUnionInfo *,std::less<int>,std::allocator<std::pair<int const ,TUnionInfo *> >,0> >::_Rrotate

; 1317 : 							_Pnode = this->_Right(_Fixnodeparent);

  0018e	8b 46 08	 mov	 eax, DWORD PTR [esi+8]
  00191	8b 4d fc	 mov	 ecx, DWORD PTR _this$[ebp]
$LN9@erase:

; 1318 : 							}
; 1319 : 
; 1320 : 						this->_Color(_Pnode) = this->_Color(_Fixnodeparent);

  00194	8a 56 14	 mov	 dl, BYTE PTR [esi+20]
  00197	88 50 14	 mov	 BYTE PTR [eax+20], dl

; 1321 : 						this->_Color(_Fixnodeparent) = this->_Black;

  0019a	88 5e 14	 mov	 BYTE PTR [esi+20], bl

; 1322 : 						this->_Color(this->_Right(_Pnode)) = this->_Black;

  0019d	8b 40 08	 mov	 eax, DWORD PTR [eax+8]

; 1323 : 						_Lrotate(_Fixnodeparent);

  001a0	56		 push	 esi
  001a1	88 58 14	 mov	 BYTE PTR [eax+20], bl
  001a4	e8 00 00 00 00	 call	 ?_Lrotate@?$_Tree@V?$_Tmap_traits@HPAVTUnionInfo@@U?$less@H@std@@V?$allocator@U?$pair@$$CBHPAVTUnionInfo@@@std@@@3@$0A@@std@@@std@@IAEXPAU_Node@?$_Tree_nod@V?$_Tmap_traits@HPAVTUnionInfo@@U?$less@H@std@@V?$allocator@U?$pair@$$CBHPAVTUnionInfo@@@std@@@3@$0A@@std@@@2@@Z ; std::_Tree<std::_Tmap_traits<int,TUnionInfo *,std::less<int>,std::allocator<std::pair<int const ,TUnionInfo *> >,0> >::_Lrotate

; 1324 : 						break;	// tree now recolored/rebalanced

  001a9	eb 74		 jmp	 SHORT $LN16@erase
$LN15@erase:

; 1325 : 						}
; 1326 : 					}
; 1327 : 				else
; 1328 : 					{	// fixup right subtree
; 1329 : 					_Pnode = this->_Left(_Fixnodeparent);
; 1330 : 					if (this->_Color(_Pnode) == this->_Red)

  001ab	80 78 14 00	 cmp	 BYTE PTR [eax+20], 0
  001af	75 12		 jne	 SHORT $LN7@erase

; 1331 : 						{	// rotate red up from left subtree
; 1332 : 						this->_Color(_Pnode) = this->_Black;

  001b1	88 58 14	 mov	 BYTE PTR [eax+20], bl

; 1333 : 						this->_Color(_Fixnodeparent) = this->_Red;
; 1334 : 						_Rrotate(_Fixnodeparent);

  001b4	56		 push	 esi
  001b5	c6 46 14 00	 mov	 BYTE PTR [esi+20], 0
  001b9	e8 00 00 00 00	 call	 ?_Rrotate@?$_Tree@V?$_Tmap_traits@HPAVTUnionInfo@@U?$less@H@std@@V?$allocator@U?$pair@$$CBHPAVTUnionInfo@@@std@@@3@$0A@@std@@@std@@IAEXPAU_Node@?$_Tree_nod@V?$_Tmap_traits@HPAVTUnionInfo@@U?$less@H@std@@V?$allocator@U?$pair@$$CBHPAVTUnionInfo@@@std@@@3@$0A@@std@@@2@@Z ; std::_Tree<std::_Tmap_traits<int,TUnionInfo *,std::less<int>,std::allocator<std::pair<int const ,TUnionInfo *> >,0> >::_Rrotate

; 1335 : 						_Pnode = this->_Left(_Fixnodeparent);

  001be	8b 06		 mov	 eax, DWORD PTR [esi]
  001c0	8b 4d fc	 mov	 ecx, DWORD PTR _this$[ebp]
$LN7@erase:

; 1336 : 						}
; 1337 : 					if (this->_Isnil(_Pnode))

  001c3	80 78 15 00	 cmp	 BYTE PTR [eax+21], 0

; 1338 : 						_Fixnode = _Fixnodeparent;	// shouldn't happen
; 1339 : 					else if (this->_Color(this->_Right(_Pnode)) ==

  001c7	75 13		 jne	 SHORT $LN293@erase

; 1340 : 						this->_Black
; 1341 : 						&& this->_Color(this->_Left(_Pnode)) == this->_Black)

  001c9	8b 50 08	 mov	 edx, DWORD PTR [eax+8]
  001cc	38 5a 14	 cmp	 BYTE PTR [edx+20], bl
  001cf	75 1e		 jne	 SHORT $LN4@erase
  001d1	8b 10		 mov	 edx, DWORD PTR [eax]
  001d3	38 5a 14	 cmp	 BYTE PTR [edx+20], bl
  001d6	75 17		 jne	 SHORT $LN4@erase
$LN294@erase:

; 1342 : 						{	// redden left subtree with black children
; 1343 : 						this->_Color(_Pnode) = this->_Red;

  001d8	c6 40 14 00	 mov	 BYTE PTR [eax+20], 0
$LN293@erase:

; 1286 : 			{	// erasing black link, must recolor/rebalance tree
; 1287 : 			for (; _Fixnode != _Root()
; 1288 : 				&& this->_Color(_Fixnode) == this->_Black;
; 1289 : 				_Fixnodeparent = this->_Parent(_Fixnode))

  001dc	8b 41 04	 mov	 eax, DWORD PTR [ecx+4]

; 1344 : 						_Fixnode = _Fixnodeparent;

  001df	8b fe		 mov	 edi, esi
  001e1	8b 76 04	 mov	 esi, DWORD PTR [esi+4]
  001e4	3b 78 04	 cmp	 edi, DWORD PTR [eax+4]
  001e7	0f 85 4a ff ff
	ff		 jne	 $LL18@erase

; 1286 : 			{	// erasing black link, must recolor/rebalance tree
; 1287 : 			for (; _Fixnode != _Root()
; 1288 : 				&& this->_Color(_Fixnode) == this->_Black;
; 1289 : 				_Fixnodeparent = this->_Parent(_Fixnode))

  001ed	eb 30		 jmp	 SHORT $LN16@erase
$LN4@erase:

; 1345 : 						}
; 1346 : 					else
; 1347 : 						{	// must rearrange left subtree
; 1348 : 						if (this->_Color(this->_Left(_Pnode)) == this->_Black)

  001ef	8b 10		 mov	 edx, DWORD PTR [eax]
  001f1	38 5a 14	 cmp	 BYTE PTR [edx+20], bl
  001f4	75 15		 jne	 SHORT $LN2@erase

; 1349 : 							{	// rotate red up from right sub-subtree
; 1350 : 							this->_Color(this->_Right(_Pnode)) = this->_Black;

  001f6	8b 50 08	 mov	 edx, DWORD PTR [eax+8]
  001f9	88 5a 14	 mov	 BYTE PTR [edx+20], bl

; 1351 : 							this->_Color(_Pnode) = this->_Red;
; 1352 : 							_Lrotate(_Pnode);

  001fc	50		 push	 eax
  001fd	c6 40 14 00	 mov	 BYTE PTR [eax+20], 0
  00201	e8 00 00 00 00	 call	 ?_Lrotate@?$_Tree@V?$_Tmap_traits@HPAVTUnionInfo@@U?$less@H@std@@V?$allocator@U?$pair@$$CBHPAVTUnionInfo@@@std@@@3@$0A@@std@@@std@@IAEXPAU_Node@?$_Tree_nod@V?$_Tmap_traits@HPAVTUnionInfo@@U?$less@H@std@@V?$allocator@U?$pair@$$CBHPAVTUnionInfo@@@std@@@3@$0A@@std@@@2@@Z ; std::_Tree<std::_Tmap_traits<int,TUnionInfo *,std::less<int>,std::allocator<std::pair<int const ,TUnionInfo *> >,0> >::_Lrotate

; 1353 : 							_Pnode = this->_Left(_Fixnodeparent);

  00206	8b 06		 mov	 eax, DWORD PTR [esi]
  00208	8b 4d fc	 mov	 ecx, DWORD PTR _this$[ebp]
$LN2@erase:

; 1354 : 							}
; 1355 : 
; 1356 : 						this->_Color(_Pnode) = this->_Color(_Fixnodeparent);

  0020b	8a 56 14	 mov	 dl, BYTE PTR [esi+20]
  0020e	88 50 14	 mov	 BYTE PTR [eax+20], dl

; 1357 : 						this->_Color(_Fixnodeparent) = this->_Black;

  00211	88 5e 14	 mov	 BYTE PTR [esi+20], bl

; 1358 : 						this->_Color(this->_Left(_Pnode)) = this->_Black;

  00214	8b 00		 mov	 eax, DWORD PTR [eax]

; 1359 : 						_Rrotate(_Fixnodeparent);

  00216	56		 push	 esi
  00217	88 58 14	 mov	 BYTE PTR [eax+20], bl
  0021a	e8 00 00 00 00	 call	 ?_Rrotate@?$_Tree@V?$_Tmap_traits@HPAVTUnionInfo@@U?$less@H@std@@V?$allocator@U?$pair@$$CBHPAVTUnionInfo@@@std@@@3@$0A@@std@@@std@@IAEXPAU_Node@?$_Tree_nod@V?$_Tmap_traits@HPAVTUnionInfo@@U?$less@H@std@@V?$allocator@U?$pair@$$CBHPAVTUnionInfo@@@std@@@3@$0A@@std@@@2@@Z ; std::_Tree<std::_Tmap_traits<int,TUnionInfo *,std::less<int>,std::allocator<std::pair<int const ,TUnionInfo *> >,0> >::_Rrotate
$LN16@erase:

; 1360 : 						break;	// tree now recolored/rebalanced
; 1361 : 						}
; 1362 : 					}
; 1363 : 
; 1364 : 			this->_Color(_Fixnode) = this->_Black;	// stopping node is black

  0021f	88 5f 14	 mov	 BYTE PTR [edi+20], bl
$LN19@erase:

; 1365 : 			}
; 1366 : 
; 1367 : 		_Dest_val(this->_Alval,
; 1368 : 			_STD addressof(this->_Myval(_Erasednode)));	// delete erased node
; 1369 : 
; 1370 : 		this->_Alnod.deallocate(_Erasednode, 1);

  00222	8b 4d f8	 mov	 ecx, DWORD PTR __Erasednode$[ebp]
  00225	51		 push	 ecx
  00226	e8 00 00 00 00	 call	 ??3@YAXPAX@Z		; operator delete

; 1371 : 
; 1372 : 		if (0 < this->_Mysize)

  0022b	8b 4d fc	 mov	 ecx, DWORD PTR _this$[ebp]
  0022e	8b 41 08	 mov	 eax, DWORD PTR [ecx+8]
  00231	83 c4 04	 add	 esp, 4
  00234	5f		 pop	 edi
  00235	5e		 pop	 esi
  00236	5b		 pop	 ebx
  00237	85 c0		 test	 eax, eax
  00239	74 04		 je	 SHORT $LN1@erase

; 1373 : 			--this->_Mysize;

  0023b	48		 dec	 eax
  0023c	89 41 08	 mov	 DWORD PTR [ecx+8], eax
$LN1@erase:

; 1374 : 
; 1375 : 		return (iterator(_Where._Ptr, this));	// return successor iterator

  0023f	8b 45 08	 mov	 eax, DWORD PTR ___$ReturnUdt$[ebp]
  00242	8b 55 0c	 mov	 edx, DWORD PTR __Where$[ebp]
  00245	89 10		 mov	 DWORD PTR [eax], edx

; 1376 : 		}

  00247	8b e5		 mov	 esp, ebp
  00249	5d		 pop	 ebp
  0024a	c2 08 00	 ret	 8
$LN292@erase:
?erase@?$_Tree@V?$_Tmap_traits@HPAVTUnionInfo@@U?$less@H@std@@V?$allocator@U?$pair@$$CBHPAVTUnionInfo@@@std@@@3@$0A@@std@@@std@@QAE?AV?$_Tree_iterator@V?$_Tree_val@V?$_Tmap_traits@HPAVTUnionInfo@@U?$less@H@std@@V?$allocator@U?$pair@$$CBHPAVTUnionInfo@@@std@@@3@$0A@@std@@@std@@@2@V?$_Tree_const_iterator@V?$_Tree_val@V?$_Tmap_traits@HPAVTUnionInfo@@U?$less@H@std@@V?$allocator@U?$pair@$$CBHPAVTUnionInfo@@@std@@@3@$0A@@std@@@std@@@2@@Z ENDP ; std::_Tree<std::_Tmap_traits<int,TUnionInfo *,std::less<int>,std::allocator<std::pair<int const ,TUnionInfo *> >,0> >::erase
_TEXT	ENDS
PUBLIC	?_Eqrange@?$_Tree@V?$_Tmap_traits@HPAVTUnionInfo@@U?$less@H@std@@V?$allocator@U?$pair@$$CBHPAVTUnionInfo@@@std@@@3@$0A@@std@@@std@@IAE?AU?$pair@V?$_Tree_iterator@V?$_Tree_val@V?$_Tmap_traits@HPAVTUnionInfo@@U?$less@H@std@@V?$allocator@U?$pair@$$CBHPAVTUnionInfo@@@std@@@3@$0A@@std@@@std@@@std@@V12@@2@ABH@Z ; std::_Tree<std::_Tmap_traits<int,TUnionInfo *,std::less<int>,std::allocator<std::pair<int const ,TUnionInfo *> >,0> >::_Eqrange
; Function compile flags: /Ogtp
;	COMDAT ?_Eqrange@?$_Tree@V?$_Tmap_traits@HPAVTUnionInfo@@U?$less@H@std@@V?$allocator@U?$pair@$$CBHPAVTUnionInfo@@@std@@@3@$0A@@std@@@std@@IAE?AU?$pair@V?$_Tree_iterator@V?$_Tree_val@V?$_Tmap_traits@HPAVTUnionInfo@@U?$less@H@std@@V?$allocator@U?$pair@$$CBHPAVTUnionInfo@@@std@@@3@$0A@@std@@@std@@@std@@V12@@2@ABH@Z
_TEXT	SEGMENT
___$ReturnUdt$ = 8					; size = 4
__Keyval$ = 12						; size = 4
?_Eqrange@?$_Tree@V?$_Tmap_traits@HPAVTUnionInfo@@U?$less@H@std@@V?$allocator@U?$pair@$$CBHPAVTUnionInfo@@@std@@@3@$0A@@std@@@std@@IAE?AU?$pair@V?$_Tree_iterator@V?$_Tree_val@V?$_Tmap_traits@HPAVTUnionInfo@@U?$less@H@std@@V?$allocator@U?$pair@$$CBHPAVTUnionInfo@@@std@@@3@$0A@@std@@@std@@@std@@V12@@2@ABH@Z PROC ; std::_Tree<std::_Tmap_traits<int,TUnionInfo *,std::less<int>,std::allocator<std::pair<int const ,TUnionInfo *> >,0> >::_Eqrange, COMDAT
; _this$ = ecx

; 1575 : 		{	// find leftmost node not less than _Keyval

  00000	55		 push	 ebp
  00001	8b ec		 mov	 ebp, esp

; 1576 : 		_Nodeptr _Pnode = _Root();

  00003	8b 51 04	 mov	 edx, DWORD PTR [ecx+4]
  00006	8b 42 04	 mov	 eax, DWORD PTR [edx+4]

; 1577 : 		_Nodeptr _Lonode = this->_Myhead;	// end() if search fails
; 1578 : 		_Nodeptr _Hinode = this->_Myhead;	// end() if search fails
; 1579 : 
; 1580 : 		while (!this->_Isnil(_Pnode))

  00009	80 78 15 00	 cmp	 BYTE PTR [eax+21], 0
  0000d	53		 push	 ebx
  0000e	8b da		 mov	 ebx, edx
  00010	75 32		 jne	 SHORT $LN8@Eqrange
  00012	56		 push	 esi
  00013	8b 75 0c	 mov	 esi, DWORD PTR __Keyval$[ebp]
  00016	57		 push	 edi
  00017	8b 3e		 mov	 edi, DWORD PTR [esi]
  00019	8d a4 24 00 00
	00 00		 npad	 7
$LL9@Eqrange:

; 1581 : 			if (_DEBUG_LT_PRED(this->comp, this->_Key(_Pnode), _Keyval))

  00020	8b 70 0c	 mov	 esi, DWORD PTR [eax+12]
  00023	3b f7		 cmp	 esi, edi
  00025	7d 05		 jge	 SHORT $LN7@Eqrange

; 1582 : 				_Pnode = this->_Right(_Pnode);	// descend right subtree

  00027	8b 40 08	 mov	 eax, DWORD PTR [eax+8]

; 1583 : 			else

  0002a	eb 10		 jmp	 SHORT $LN6@Eqrange
$LN7@Eqrange:

; 1584 : 				{	// _Pnode not less than _Keyval, remember it
; 1585 : 				if (this->_Isnil(_Hinode)
; 1586 : 						&& _DEBUG_LT_PRED(this->comp, _Keyval,

  0002c	80 7a 15 00	 cmp	 BYTE PTR [edx+21], 0
  00030	74 06		 je	 SHORT $LN5@Eqrange
  00032	3b fe		 cmp	 edi, esi
  00034	7d 02		 jge	 SHORT $LN5@Eqrange

; 1587 : 						 this->_Key(_Pnode)))
; 1588 : 					_Hinode = _Pnode;	// _Pnode greater, remember it

  00036	8b d0		 mov	 edx, eax
$LN5@Eqrange:

; 1589 : 				_Lonode = _Pnode;

  00038	8b d8		 mov	 ebx, eax

; 1590 : 				_Pnode = this->_Left(_Pnode);	// descend left subtree

  0003a	8b 00		 mov	 eax, DWORD PTR [eax]
$LN6@Eqrange:

; 1577 : 		_Nodeptr _Lonode = this->_Myhead;	// end() if search fails
; 1578 : 		_Nodeptr _Hinode = this->_Myhead;	// end() if search fails
; 1579 : 
; 1580 : 		while (!this->_Isnil(_Pnode))

  0003c	80 78 15 00	 cmp	 BYTE PTR [eax+21], 0
  00040	74 de		 je	 SHORT $LL9@Eqrange
  00042	5f		 pop	 edi
  00043	5e		 pop	 esi
$LN8@Eqrange:

; 1591 : 				}
; 1592 : 
; 1593 : 		_Pnode = this->_Isnil(_Hinode) ? _Root()
; 1594 : 			: this->_Left(_Hinode);	// continue scan for upper bound

  00044	80 7a 15 00	 cmp	 BYTE PTR [edx+21], 0
  00048	74 08		 je	 SHORT $LN12@Eqrange
  0004a	8b 41 04	 mov	 eax, DWORD PTR [ecx+4]
  0004d	8b 40 04	 mov	 eax, DWORD PTR [eax+4]
  00050	eb 02		 jmp	 SHORT $LN13@Eqrange
$LN12@Eqrange:
  00052	8b 02		 mov	 eax, DWORD PTR [edx]
$LN13@Eqrange:

; 1595 : 		while (!this->_Isnil(_Pnode))

  00054	80 78 15 00	 cmp	 BYTE PTR [eax+21], 0
  00058	75 1a		 jne	 SHORT $LN3@Eqrange
  0005a	8b 4d 0c	 mov	 ecx, DWORD PTR __Keyval$[ebp]
  0005d	8b 09		 mov	 ecx, DWORD PTR [ecx]
  0005f	90		 npad	 1
$LL4@Eqrange:

; 1596 : 			if (_DEBUG_LT_PRED(this->comp, _Keyval, this->_Key(_Pnode)))

  00060	3b 48 0c	 cmp	 ecx, DWORD PTR [eax+12]
  00063	7d 06		 jge	 SHORT $LN2@Eqrange

; 1597 : 				{	// _Pnode greater than _Keyval, remember it
; 1598 : 				_Hinode = _Pnode;

  00065	8b d0		 mov	 edx, eax

; 1599 : 				_Pnode = this->_Left(_Pnode);	// descend left subtree

  00067	8b 00		 mov	 eax, DWORD PTR [eax]

; 1600 : 				}
; 1601 : 			else

  00069	eb 03		 jmp	 SHORT $LN1@Eqrange
$LN2@Eqrange:

; 1602 : 				_Pnode = this->_Right(_Pnode);	// descend right subtree

  0006b	8b 40 08	 mov	 eax, DWORD PTR [eax+8]
$LN1@Eqrange:

; 1595 : 		while (!this->_Isnil(_Pnode))

  0006e	80 78 15 00	 cmp	 BYTE PTR [eax+21], 0
  00072	74 ec		 je	 SHORT $LL4@Eqrange
$LN3@Eqrange:

; 1603 : 
; 1604 : 		iterator _First = iterator(_Lonode, this);
; 1605 : 		iterator _Last = iterator(_Hinode, this);
; 1606 : 		return (_Pairii(_First, _Last));

  00074	8b 45 08	 mov	 eax, DWORD PTR ___$ReturnUdt$[ebp]
  00077	89 18		 mov	 DWORD PTR [eax], ebx
  00079	89 50 04	 mov	 DWORD PTR [eax+4], edx
  0007c	5b		 pop	 ebx

; 1607 : 		}

  0007d	5d		 pop	 ebp
  0007e	c2 08 00	 ret	 8
?_Eqrange@?$_Tree@V?$_Tmap_traits@HPAVTUnionInfo@@U?$less@H@std@@V?$allocator@U?$pair@$$CBHPAVTUnionInfo@@@std@@@3@$0A@@std@@@std@@IAE?AU?$pair@V?$_Tree_iterator@V?$_Tree_val@V?$_Tmap_traits@HPAVTUnionInfo@@U?$less@H@std@@V?$allocator@U?$pair@$$CBHPAVTUnionInfo@@@std@@@3@$0A@@std@@@std@@@std@@V12@@2@ABH@Z ENDP ; std::_Tree<std::_Tmap_traits<int,TUnionInfo *,std::less<int>,std::allocator<std::pair<int const ,TUnionInfo *> >,0> >::_Eqrange
_TEXT	ENDS
PUBLIC	??0?$_Tree_val@V?$_Tmap_traits@HPAVTUnionInfo@@U?$less@H@std@@V?$allocator@U?$pair@$$CBHPAVTUnionInfo@@@std@@@3@$0A@@std@@@std@@QAE@ABU?$less@H@1@V?$allocator@U?$pair@$$CBHPAVTUnionInfo@@@std@@@1@@Z ; std::_Tree_val<std::_Tmap_traits<int,TUnionInfo *,std::less<int>,std::allocator<std::pair<int const ,TUnionInfo *> >,0> >::_Tree_val<std::_Tmap_traits<int,TUnionInfo *,std::less<int>,std::allocator<std::pair<int const ,TUnionInfo *> >,0> >
; Function compile flags: /Ogtp
;	COMDAT ??0?$_Tree_val@V?$_Tmap_traits@HPAVTUnionInfo@@U?$less@H@std@@V?$allocator@U?$pair@$$CBHPAVTUnionInfo@@@std@@@3@$0A@@std@@@std@@QAE@ABU?$less@H@1@V?$allocator@U?$pair@$$CBHPAVTUnionInfo@@@std@@@1@@Z
_TEXT	SEGMENT
$T159739 = -16						; size = 12
$T159716 = -4						; size = 4
__Parg$ = 8						; size = 4
__Al$ = 12						; size = 1
??0?$_Tree_val@V?$_Tmap_traits@HPAVTUnionInfo@@U?$less@H@std@@V?$allocator@U?$pair@$$CBHPAVTUnionInfo@@@std@@@3@$0A@@std@@@std@@QAE@ABU?$less@H@1@V?$allocator@U?$pair@$$CBHPAVTUnionInfo@@@std@@@1@@Z PROC ; std::_Tree_val<std::_Tmap_traits<int,TUnionInfo *,std::less<int>,std::allocator<std::pair<int const ,TUnionInfo *> >,0> >::_Tree_val<std::_Tmap_traits<int,TUnionInfo *,std::less<int>,std::allocator<std::pair<int const ,TUnionInfo *> >,0> >, COMDAT
; _this$ = ecx

; 542  : 		{	// construct base, and allocator from _Al

  00000	55		 push	 ebp
  00001	8b ec		 mov	 ebp, esp
  00003	83 ec 10	 sub	 esp, 16			; 00000010H
  00006	56		 push	 esi
  00007	8b f1		 mov	 esi, ecx

; 543  : 		this->_Mysize = 0;
; 544  : 		this->_Myhead = this->_Alnod.allocate(1);

  00009	6a 18		 push	 24			; 00000018H
  0000b	c7 46 08 00 00
	00 00		 mov	 DWORD PTR [esi+8], 0
  00012	e8 00 00 00 00	 call	 ??2@YAPAXI@Z		; operator new
  00017	83 c4 04	 add	 esp, 4
  0001a	85 c0		 test	 eax, eax
  0001c	74 28		 je	 SHORT $LN15@Tree_val
  0001e	89 46 04	 mov	 DWORD PTR [esi+4], eax

; 545  : 
; 546  : 		this->_Left(this->_Myhead) = this->_Myhead;

  00021	89 00		 mov	 DWORD PTR [eax], eax

; 547  : 		this->_Parent(this->_Myhead) = this->_Myhead;

  00023	8b 46 04	 mov	 eax, DWORD PTR [esi+4]
  00026	89 40 04	 mov	 DWORD PTR [eax+4], eax

; 548  : 		this->_Right(this->_Myhead) = this->_Myhead;

  00029	8b 46 04	 mov	 eax, DWORD PTR [esi+4]
  0002c	89 40 08	 mov	 DWORD PTR [eax+8], eax

; 549  : 		this->_Color(this->_Myhead) = this->_Black;

  0002f	8b 4e 04	 mov	 ecx, DWORD PTR [esi+4]
  00032	b0 01		 mov	 al, 1
  00034	88 41 14	 mov	 BYTE PTR [ecx+20], al

; 550  : 		this->_Isnil(this->_Myhead) = true;

  00037	8b 56 04	 mov	 edx, DWORD PTR [esi+4]
  0003a	88 42 15	 mov	 BYTE PTR [edx+21], al

; 551  : 		}

  0003d	8b c6		 mov	 eax, esi
  0003f	5e		 pop	 esi
  00040	8b e5		 mov	 esp, ebp
  00042	5d		 pop	 ebp
  00043	c2 08 00	 ret	 8

; 543  : 		this->_Mysize = 0;
; 544  : 		this->_Myhead = this->_Alnod.allocate(1);

$LN15@Tree_val:
  00046	8d 45 fc	 lea	 eax, DWORD PTR $T159716[ebp]
  00049	50		 push	 eax
  0004a	8d 4d f0	 lea	 ecx, DWORD PTR $T159739[ebp]
  0004d	c7 45 fc 00 00
	00 00		 mov	 DWORD PTR $T159716[ebp], 0
  00054	e8 00 00 00 00	 call	 ??0exception@std@@QAE@ABQBD@Z ; std::exception::exception
  00059	68 00 00 00 00	 push	 OFFSET __TI2?AVbad_alloc@std@@
  0005e	8d 4d f0	 lea	 ecx, DWORD PTR $T159739[ebp]
  00061	51		 push	 ecx
  00062	c7 45 f0 00 00
	00 00		 mov	 DWORD PTR $T159739[ebp], OFFSET ??_7bad_alloc@std@@6B@
  00069	e8 00 00 00 00	 call	 __CxxThrowException@8
$LN37@Tree_val:
$LN36@Tree_val:
  0006e	cc		 int	 3
??0?$_Tree_val@V?$_Tmap_traits@HPAVTUnionInfo@@U?$less@H@std@@V?$allocator@U?$pair@$$CBHPAVTUnionInfo@@@std@@@3@$0A@@std@@@std@@QAE@ABU?$less@H@1@V?$allocator@U?$pair@$$CBHPAVTUnionInfo@@@std@@@1@@Z ENDP ; std::_Tree_val<std::_Tmap_traits<int,TUnionInfo *,std::less<int>,std::allocator<std::pair<int const ,TUnionInfo *> >,0> >::_Tree_val<std::_Tmap_traits<int,TUnionInfo *,std::less<int>,std::allocator<std::pair<int const ,TUnionInfo *> >,0> >
_TEXT	ENDS
PUBLIC	??_C@_0BE@JONHPENG@map?1set?$DMT?$DO?5too?5long?$AA@ ; `string'
PUBLIC	?_Insert@?$_Tree@V?$_Tmap_traits@HPAVTUnionInfo@@U?$less@H@std@@V?$allocator@U?$pair@$$CBHPAVTUnionInfo@@@std@@@3@$0A@@std@@@std@@IAE?AV?$_Tree_iterator@V?$_Tree_val@V?$_Tmap_traits@HPAVTUnionInfo@@U?$less@H@std@@V?$allocator@U?$pair@$$CBHPAVTUnionInfo@@@std@@@3@$0A@@std@@@std@@@2@_NPAU_Node@?$_Tree_nod@V?$_Tmap_traits@HPAVTUnionInfo@@U?$less@H@std@@V?$allocator@U?$pair@$$CBHPAVTUnionInfo@@@std@@@3@$0A@@std@@@2@1@Z ; std::_Tree<std::_Tmap_traits<int,TUnionInfo *,std::less<int>,std::allocator<std::pair<int const ,TUnionInfo *> >,0> >::_Insert
;	COMDAT ??_C@_0BE@JONHPENG@map?1set?$DMT?$DO?5too?5long?$AA@
; File c:\program files (x86)\microsoft visual studio 10.0\vc\include\xutility
CONST	SEGMENT
??_C@_0BE@JONHPENG@map?1set?$DMT?$DO?5too?5long?$AA@ DB 'map/set<T> too l'
	DB	'ong', 00H					; `string'
; Function compile flags: /Ogtp
; File c:\program files (x86)\microsoft visual studio 10.0\vc\include\xtree
CONST	ENDS
;	COMDAT ?_Insert@?$_Tree@V?$_Tmap_traits@HPAVTUnionInfo@@U?$less@H@std@@V?$allocator@U?$pair@$$CBHPAVTUnionInfo@@@std@@@3@$0A@@std@@@std@@IAE?AV?$_Tree_iterator@V?$_Tree_val@V?$_Tmap_traits@HPAVTUnionInfo@@U?$less@H@std@@V?$allocator@U?$pair@$$CBHPAVTUnionInfo@@@std@@@3@$0A@@std@@@std@@@2@_NPAU_Node@?$_Tree_nod@V?$_Tmap_traits@HPAVTUnionInfo@@U?$less@H@std@@V?$allocator@U?$pair@$$CBHPAVTUnionInfo@@@std@@@3@$0A@@std@@@2@1@Z
_TEXT	SEGMENT
___$ReturnUdt$ = 8					; size = 4
__Addleft$ = 12						; size = 1
__Wherenode$ = 16					; size = 4
__Newnode$ = 20						; size = 4
?_Insert@?$_Tree@V?$_Tmap_traits@HPAVTUnionInfo@@U?$less@H@std@@V?$allocator@U?$pair@$$CBHPAVTUnionInfo@@@std@@@3@$0A@@std@@@std@@IAE?AV?$_Tree_iterator@V?$_Tree_val@V?$_Tmap_traits@HPAVTUnionInfo@@U?$less@H@std@@V?$allocator@U?$pair@$$CBHPAVTUnionInfo@@@std@@@3@$0A@@std@@@std@@@2@_NPAU_Node@?$_Tree_nod@V?$_Tmap_traits@HPAVTUnionInfo@@U?$less@H@std@@V?$allocator@U?$pair@$$CBHPAVTUnionInfo@@@std@@@3@$0A@@std@@@2@1@Z PROC ; std::_Tree<std::_Tmap_traits<int,TUnionInfo *,std::less<int>,std::allocator<std::pair<int const ,TUnionInfo *> >,0> >::_Insert, COMDAT
; _this$ = ecx

; 1631 : 		{	// add node with value next to _Wherenode, to left if _Addleft

  00000	55		 push	 ebp
  00001	8b ec		 mov	 ebp, esp

; 1632 : 		if (max_size() - 1 <= this->_Mysize)

  00003	8b 41 08	 mov	 eax, DWORD PTR [ecx+8]
  00006	3d fe ff ff 1f	 cmp	 eax, 536870910		; 1ffffffeH
  0000b	72 16		 jb	 SHORT $LN17@Insert

; 1633 : 			{	// tree would get too big, fail
; 1634 : 			_Dest_val(this->_Alval,
; 1635 : 				_STD addressof(this->_Myval(_Newnode)));
; 1636 : 
; 1637 : 			this->_Alnod.deallocate(_Newnode, 1);

  0000d	8b 45 14	 mov	 eax, DWORD PTR __Newnode$[ebp]
  00010	50		 push	 eax
  00011	e8 00 00 00 00	 call	 ??3@YAXPAX@Z		; operator delete
  00016	83 c4 04	 add	 esp, 4

; 1638 : 
; 1639 : 			_Xlength_error("map/set<T> too long");

  00019	68 00 00 00 00	 push	 OFFSET ??_C@_0BE@JONHPENG@map?1set?$DMT?$DO?5too?5long?$AA@
  0001e	e8 00 00 00 00	 call	 ?_Xlength_error@std@@YAXPBD@Z ; std::_Xlength_error
$LN377@Insert:
$LN17@Insert:

; 1640 : 			}
; 1641 : 		++this->_Mysize;

  00023	40		 inc	 eax
  00024	53		 push	 ebx
  00025	89 41 08	 mov	 DWORD PTR [ecx+8], eax

; 1642 : 		_Newnode->_Parent = _Wherenode;

  00028	8b 45 10	 mov	 eax, DWORD PTR __Wherenode$[ebp]
  0002b	57		 push	 edi
  0002c	8b 7d 14	 mov	 edi, DWORD PTR __Newnode$[ebp]
  0002f	89 47 04	 mov	 DWORD PTR [edi+4], eax

; 1643 : 
; 1644 : 		if (_Wherenode == this->_Myhead)

  00032	8b 51 04	 mov	 edx, DWORD PTR [ecx+4]
  00035	32 db		 xor	 bl, bl
  00037	3b c2		 cmp	 eax, edx
  00039	75 10		 jne	 SHORT $LN16@Insert

; 1645 : 			{	// first node in tree, just set head values
; 1646 : 			_Root() = _Newnode;

  0003b	89 7a 04	 mov	 DWORD PTR [edx+4], edi

; 1647 : 			_Lmost() = _Newnode;

  0003e	8b 51 04	 mov	 edx, DWORD PTR [ecx+4]
  00041	89 3a		 mov	 DWORD PTR [edx], edi

; 1648 : 			_Rmost() = _Newnode;

  00043	8b 41 04	 mov	 eax, DWORD PTR [ecx+4]
  00046	89 78 08	 mov	 DWORD PTR [eax+8], edi
  00049	eb 20		 jmp	 SHORT $LN11@Insert
$LN16@Insert:

; 1649 : 			}
; 1650 : 		else if (_Addleft)

  0004b	38 5d 0c	 cmp	 BYTE PTR __Addleft$[ebp], bl
  0004e	74 0d		 je	 SHORT $LN14@Insert

; 1651 : 			{	// add to left of _Wherenode
; 1652 : 			this->_Left(_Wherenode) = _Newnode;

  00050	89 38		 mov	 DWORD PTR [eax], edi

; 1653 : 			if (_Wherenode == _Lmost())

  00052	8b 51 04	 mov	 edx, DWORD PTR [ecx+4]
  00055	3b 02		 cmp	 eax, DWORD PTR [edx]
  00057	75 12		 jne	 SHORT $LN11@Insert

; 1654 : 				_Lmost() = _Newnode;

  00059	89 3a		 mov	 DWORD PTR [edx], edi

; 1655 : 			}
; 1656 : 		else

  0005b	eb 0e		 jmp	 SHORT $LN11@Insert
$LN14@Insert:

; 1657 : 			{	// add to right of _Wherenode
; 1658 : 			this->_Right(_Wherenode) = _Newnode;

  0005d	89 78 08	 mov	 DWORD PTR [eax+8], edi

; 1659 : 			if (_Wherenode == _Rmost())

  00060	8b 51 04	 mov	 edx, DWORD PTR [ecx+4]
  00063	3b 42 08	 cmp	 eax, DWORD PTR [edx+8]
  00066	75 03		 jne	 SHORT $LN11@Insert

; 1660 : 				_Rmost() = _Newnode;

  00068	89 7a 08	 mov	 DWORD PTR [edx+8], edi
$LN11@Insert:

; 1661 : 			}
; 1662 : 
; 1663 : 		for (_Nodeptr _Pnode = _Newnode;
; 1664 : 			this->_Color(this->_Parent(_Pnode)) == this->_Red; )

  0006b	8b 57 04	 mov	 edx, DWORD PTR [edi+4]
  0006e	8b c7		 mov	 eax, edi
  00070	38 5a 14	 cmp	 BYTE PTR [edx+20], bl
  00073	0f 85 97 01 00
	00		 jne	 $LN9@Insert
  00079	56		 push	 esi
  0007a	8d 9b 00 00 00
	00		 npad	 6
$LL10@Insert:

; 1665 : 			if (this->_Parent(_Pnode)
; 1666 : 				== this->_Left(this->_Parent(this->_Parent(_Pnode))))

  00080	8b 50 04	 mov	 edx, DWORD PTR [eax+4]
  00083	8b 72 04	 mov	 esi, DWORD PTR [edx+4]
  00086	3b 16		 cmp	 edx, DWORD PTR [esi]
  00088	0f 85 c1 00 00
	00		 jne	 $LN8@Insert

; 1667 : 				{	// fixup red-red in left subtree
; 1668 : 				_Wherenode =
; 1669 : 					this->_Right(this->_Parent(this->_Parent(_Pnode)));

  0008e	8b 76 08	 mov	 esi, DWORD PTR [esi+8]

; 1670 : 				if (this->_Color(_Wherenode) == this->_Red)

  00091	38 5e 14	 cmp	 BYTE PTR [esi+20], bl
  00094	75 1c		 jne	 SHORT $LN7@Insert

; 1671 : 					{	// parent has two red children, blacken both
; 1672 : 					this->_Color(this->_Parent(_Pnode)) = this->_Black;

  00096	c6 42 14 01	 mov	 BYTE PTR [edx+20], 1

; 1673 : 					this->_Color(_Wherenode) = this->_Black;

  0009a	c6 46 14 01	 mov	 BYTE PTR [esi+20], 1

; 1674 : 					this->_Color(this->_Parent(this->_Parent(_Pnode)))
; 1675 : 						= this->_Red;

  0009e	8b 50 04	 mov	 edx, DWORD PTR [eax+4]
  000a1	8b 52 04	 mov	 edx, DWORD PTR [edx+4]
  000a4	88 5a 14	 mov	 BYTE PTR [edx+20], bl

; 1676 : 					_Pnode = this->_Parent(this->_Parent(_Pnode));

  000a7	8b 40 04	 mov	 eax, DWORD PTR [eax+4]
  000aa	8b 40 04	 mov	 eax, DWORD PTR [eax+4]

; 1677 : 					}
; 1678 : 				else

  000ad	e9 51 01 00 00	 jmp	 $LN316@Insert
$LN7@Insert:

; 1679 : 					{	// parent has red and black children
; 1680 : 					if (_Pnode == this->_Right(this->_Parent(_Pnode)))

  000b2	3b 42 08	 cmp	 eax, DWORD PTR [edx+8]
  000b5	75 3a		 jne	 SHORT $LN111@Insert

; 1681 : 						{	// rotate right child to left
; 1682 : 						_Pnode = this->_Parent(_Pnode);

  000b7	8b c2		 mov	 eax, edx

; 1683 : 						_Lrotate(_Pnode);

  000b9	8b 50 08	 mov	 edx, DWORD PTR [eax+8]
  000bc	8b 32		 mov	 esi, DWORD PTR [edx]
  000be	89 70 08	 mov	 DWORD PTR [eax+8], esi
  000c1	8b 32		 mov	 esi, DWORD PTR [edx]
  000c3	38 5e 15	 cmp	 BYTE PTR [esi+21], bl
  000c6	75 03		 jne	 SHORT $LN110@Insert
  000c8	89 46 04	 mov	 DWORD PTR [esi+4], eax
$LN110@Insert:
  000cb	8b 70 04	 mov	 esi, DWORD PTR [eax+4]
  000ce	89 72 04	 mov	 DWORD PTR [edx+4], esi
  000d1	8b 71 04	 mov	 esi, DWORD PTR [ecx+4]
  000d4	3b 46 04	 cmp	 eax, DWORD PTR [esi+4]
  000d7	75 05		 jne	 SHORT $LN109@Insert
  000d9	89 56 04	 mov	 DWORD PTR [esi+4], edx
  000dc	eb 0e		 jmp	 SHORT $LN106@Insert
$LN109@Insert:
  000de	8b 70 04	 mov	 esi, DWORD PTR [eax+4]
  000e1	3b 06		 cmp	 eax, DWORD PTR [esi]
  000e3	75 04		 jne	 SHORT $LN107@Insert
  000e5	89 16		 mov	 DWORD PTR [esi], edx
  000e7	eb 03		 jmp	 SHORT $LN106@Insert
$LN107@Insert:
  000e9	89 56 08	 mov	 DWORD PTR [esi+8], edx
$LN106@Insert:
  000ec	89 02		 mov	 DWORD PTR [edx], eax
  000ee	89 50 04	 mov	 DWORD PTR [eax+4], edx
$LN111@Insert:

; 1684 : 						}
; 1685 : 					this->_Color(this->_Parent(_Pnode)) =
; 1686 : 						this->_Black;	// propagate red up

  000f1	8b 50 04	 mov	 edx, DWORD PTR [eax+4]
  000f4	c6 42 14 01	 mov	 BYTE PTR [edx+20], 1

; 1687 : 					this->_Color(this->_Parent(this->_Parent(_Pnode))) =
; 1688 : 						this->_Red;

  000f8	8b 50 04	 mov	 edx, DWORD PTR [eax+4]
  000fb	8b 52 04	 mov	 edx, DWORD PTR [edx+4]
  000fe	88 5a 14	 mov	 BYTE PTR [edx+20], bl

; 1689 : 					_Rrotate(this->_Parent(this->_Parent(_Pnode)));

  00101	8b 50 04	 mov	 edx, DWORD PTR [eax+4]
  00104	8b 52 04	 mov	 edx, DWORD PTR [edx+4]
  00107	8b 32		 mov	 esi, DWORD PTR [edx]
  00109	8b 7e 08	 mov	 edi, DWORD PTR [esi+8]
  0010c	89 3a		 mov	 DWORD PTR [edx], edi
  0010e	8b 7e 08	 mov	 edi, DWORD PTR [esi+8]
  00111	38 5f 15	 cmp	 BYTE PTR [edi+21], bl
  00114	75 03		 jne	 SHORT $LN173@Insert
  00116	89 57 04	 mov	 DWORD PTR [edi+4], edx
$LN173@Insert:
  00119	8b 7a 04	 mov	 edi, DWORD PTR [edx+4]
  0011c	89 7e 04	 mov	 DWORD PTR [esi+4], edi
  0011f	8b 79 04	 mov	 edi, DWORD PTR [ecx+4]
  00122	3b 57 04	 cmp	 edx, DWORD PTR [edi+4]
  00125	75 0b		 jne	 SHORT $LN172@Insert
  00127	89 77 04	 mov	 DWORD PTR [edi+4], esi
  0012a	89 56 08	 mov	 DWORD PTR [esi+8], edx

; 1690 : 					}
; 1691 : 				}
; 1692 : 			else

  0012d	e9 cb 00 00 00	 jmp	 $LN376@Insert

; 1689 : 					_Rrotate(this->_Parent(this->_Parent(_Pnode)));

$LN172@Insert:
  00132	8b 7a 04	 mov	 edi, DWORD PTR [edx+4]
  00135	3b 57 08	 cmp	 edx, DWORD PTR [edi+8]
  00138	75 0b		 jne	 SHORT $LN170@Insert
  0013a	89 77 08	 mov	 DWORD PTR [edi+8], esi
  0013d	89 56 08	 mov	 DWORD PTR [esi+8], edx

; 1690 : 					}
; 1691 : 				}
; 1692 : 			else

  00140	e9 b8 00 00 00	 jmp	 $LN376@Insert

; 1689 : 					_Rrotate(this->_Parent(this->_Parent(_Pnode)));

$LN170@Insert:
  00145	89 37		 mov	 DWORD PTR [edi], esi
  00147	89 56 08	 mov	 DWORD PTR [esi+8], edx

; 1690 : 					}
; 1691 : 				}
; 1692 : 			else

  0014a	e9 ae 00 00 00	 jmp	 $LN376@Insert
$LN8@Insert:

; 1693 : 				{	// fixup red-red in right subtree
; 1694 : 				_Wherenode =
; 1695 : 					this->_Left(this->_Parent(this->_Parent(_Pnode)));

  0014f	8b 36		 mov	 esi, DWORD PTR [esi]

; 1696 : 				if (this->_Color(_Wherenode) == this->_Red)

  00151	38 5e 14	 cmp	 BYTE PTR [esi+20], bl
  00154	75 1c		 jne	 SHORT $LN3@Insert

; 1697 : 					{	// parent has two red children, blacken both
; 1698 : 					this->_Color(this->_Parent(_Pnode)) = this->_Black;

  00156	c6 42 14 01	 mov	 BYTE PTR [edx+20], 1

; 1699 : 					this->_Color(_Wherenode) = this->_Black;

  0015a	c6 46 14 01	 mov	 BYTE PTR [esi+20], 1

; 1700 : 					this->_Color(this->_Parent(this->_Parent(_Pnode))) =
; 1701 : 						this->_Red;

  0015e	8b 50 04	 mov	 edx, DWORD PTR [eax+4]
  00161	8b 52 04	 mov	 edx, DWORD PTR [edx+4]
  00164	88 5a 14	 mov	 BYTE PTR [edx+20], bl

; 1702 : 					_Pnode = this->_Parent(this->_Parent(_Pnode));

  00167	8b 40 04	 mov	 eax, DWORD PTR [eax+4]
  0016a	8b 40 04	 mov	 eax, DWORD PTR [eax+4]

; 1703 : 					}
; 1704 : 				else

  0016d	e9 91 00 00 00	 jmp	 $LN316@Insert
$LN3@Insert:

; 1705 : 					{	// parent has red and black children
; 1706 : 					if (_Pnode == this->_Left(this->_Parent(_Pnode)))

  00172	3b 02		 cmp	 eax, DWORD PTR [edx]
  00174	75 3c		 jne	 SHORT $LN253@Insert

; 1707 : 						{	// rotate left child to right
; 1708 : 						_Pnode = this->_Parent(_Pnode);

  00176	8b c2		 mov	 eax, edx

; 1709 : 						_Rrotate(_Pnode);

  00178	8b 10		 mov	 edx, DWORD PTR [eax]
  0017a	8b 72 08	 mov	 esi, DWORD PTR [edx+8]
  0017d	89 30		 mov	 DWORD PTR [eax], esi
  0017f	8b 72 08	 mov	 esi, DWORD PTR [edx+8]
  00182	38 5e 15	 cmp	 BYTE PTR [esi+21], bl
  00185	75 03		 jne	 SHORT $LN252@Insert
  00187	89 46 04	 mov	 DWORD PTR [esi+4], eax
$LN252@Insert:
  0018a	8b 70 04	 mov	 esi, DWORD PTR [eax+4]
  0018d	89 72 04	 mov	 DWORD PTR [edx+4], esi
  00190	8b 71 04	 mov	 esi, DWORD PTR [ecx+4]
  00193	3b 46 04	 cmp	 eax, DWORD PTR [esi+4]
  00196	75 05		 jne	 SHORT $LN251@Insert
  00198	89 56 04	 mov	 DWORD PTR [esi+4], edx
  0019b	eb 0f		 jmp	 SHORT $LN248@Insert
$LN251@Insert:
  0019d	8b 70 04	 mov	 esi, DWORD PTR [eax+4]
  001a0	3b 46 08	 cmp	 eax, DWORD PTR [esi+8]
  001a3	75 05		 jne	 SHORT $LN249@Insert
  001a5	89 56 08	 mov	 DWORD PTR [esi+8], edx
  001a8	eb 02		 jmp	 SHORT $LN248@Insert
$LN249@Insert:
  001aa	89 16		 mov	 DWORD PTR [esi], edx
$LN248@Insert:
  001ac	89 42 08	 mov	 DWORD PTR [edx+8], eax
  001af	89 50 04	 mov	 DWORD PTR [eax+4], edx
$LN253@Insert:

; 1710 : 						}
; 1711 : 					this->_Color(this->_Parent(_Pnode)) =
; 1712 : 						this->_Black;	// propagate red up

  001b2	8b 50 04	 mov	 edx, DWORD PTR [eax+4]
  001b5	c6 42 14 01	 mov	 BYTE PTR [edx+20], 1

; 1713 : 					this->_Color(this->_Parent(this->_Parent(_Pnode))) =
; 1714 : 						this->_Red;

  001b9	8b 50 04	 mov	 edx, DWORD PTR [eax+4]
  001bc	8b 52 04	 mov	 edx, DWORD PTR [edx+4]
  001bf	88 5a 14	 mov	 BYTE PTR [edx+20], bl

; 1715 : 					_Lrotate(this->_Parent(this->_Parent(_Pnode)));

  001c2	8b 50 04	 mov	 edx, DWORD PTR [eax+4]
  001c5	8b 52 04	 mov	 edx, DWORD PTR [edx+4]
  001c8	8b 72 08	 mov	 esi, DWORD PTR [edx+8]
  001cb	8b 3e		 mov	 edi, DWORD PTR [esi]
  001cd	89 7a 08	 mov	 DWORD PTR [edx+8], edi
  001d0	8b 3e		 mov	 edi, DWORD PTR [esi]
  001d2	38 5f 15	 cmp	 BYTE PTR [edi+21], bl
  001d5	75 03		 jne	 SHORT $LN315@Insert
  001d7	89 57 04	 mov	 DWORD PTR [edi+4], edx
$LN315@Insert:
  001da	8b 7a 04	 mov	 edi, DWORD PTR [edx+4]
  001dd	89 7e 04	 mov	 DWORD PTR [esi+4], edi
  001e0	8b 79 04	 mov	 edi, DWORD PTR [ecx+4]
  001e3	3b 57 04	 cmp	 edx, DWORD PTR [edi+4]
  001e6	75 05		 jne	 SHORT $LN314@Insert
  001e8	89 77 04	 mov	 DWORD PTR [edi+4], esi
  001eb	eb 0e		 jmp	 SHORT $LN311@Insert
$LN314@Insert:
  001ed	8b 7a 04	 mov	 edi, DWORD PTR [edx+4]
  001f0	3b 17		 cmp	 edx, DWORD PTR [edi]
  001f2	75 04		 jne	 SHORT $LN312@Insert
  001f4	89 37		 mov	 DWORD PTR [edi], esi
  001f6	eb 03		 jmp	 SHORT $LN311@Insert
$LN312@Insert:
  001f8	89 77 08	 mov	 DWORD PTR [edi+8], esi
$LN311@Insert:
  001fb	89 16		 mov	 DWORD PTR [esi], edx
$LN376@Insert:
  001fd	8b 7d 14	 mov	 edi, DWORD PTR __Newnode$[ebp]
  00200	89 72 04	 mov	 DWORD PTR [edx+4], esi
$LN316@Insert:

; 1661 : 			}
; 1662 : 
; 1663 : 		for (_Nodeptr _Pnode = _Newnode;
; 1664 : 			this->_Color(this->_Parent(_Pnode)) == this->_Red; )

  00203	8b 50 04	 mov	 edx, DWORD PTR [eax+4]
  00206	38 5a 14	 cmp	 BYTE PTR [edx+20], bl
  00209	0f 84 71 fe ff
	ff		 je	 $LL10@Insert
  0020f	5e		 pop	 esi
$LN9@Insert:

; 1716 : 					}
; 1717 : 				}
; 1718 : 
; 1719 : 		this->_Color(_Root()) = this->_Black;	// root is always black

  00210	8b 41 04	 mov	 eax, DWORD PTR [ecx+4]
  00213	8b 48 04	 mov	 ecx, DWORD PTR [eax+4]

; 1720 : 		return (iterator(_Newnode, this));

  00216	8b 45 08	 mov	 eax, DWORD PTR ___$ReturnUdt$[ebp]
  00219	89 38		 mov	 DWORD PTR [eax], edi
  0021b	5f		 pop	 edi
  0021c	c6 41 14 01	 mov	 BYTE PTR [ecx+20], 1
  00220	5b		 pop	 ebx

; 1721 : 		}

  00221	5d		 pop	 ebp
  00222	c2 10 00	 ret	 16			; 00000010H
$LN375@Insert:
?_Insert@?$_Tree@V?$_Tmap_traits@HPAVTUnionInfo@@U?$less@H@std@@V?$allocator@U?$pair@$$CBHPAVTUnionInfo@@@std@@@3@$0A@@std@@@std@@IAE?AV?$_Tree_iterator@V?$_Tree_val@V?$_Tmap_traits@HPAVTUnionInfo@@U?$less@H@std@@V?$allocator@U?$pair@$$CBHPAVTUnionInfo@@@std@@@3@$0A@@std@@@std@@@2@_NPAU_Node@?$_Tree_nod@V?$_Tmap_traits@HPAVTUnionInfo@@U?$less@H@std@@V?$allocator@U?$pair@$$CBHPAVTUnionInfo@@@std@@@3@$0A@@std@@@2@1@Z ENDP ; std::_Tree<std::_Tmap_traits<int,TUnionInfo *,std::less<int>,std::allocator<std::pair<int const ,TUnionInfo *> >,0> >::_Insert
_TEXT	ENDS
PUBLIC	??$_Distance2@V?$_Tree_iterator@V?$_Tree_val@V?$_Tmap_traits@HPAVTUnionInfo@@U?$less@H@std@@V?$allocator@U?$pair@$$CBHPAVTUnionInfo@@@std@@@3@$0A@@std@@@std@@@std@@I@std@@YAXV?$_Tree_iterator@V?$_Tree_val@V?$_Tmap_traits@HPAVTUnionInfo@@U?$less@H@std@@V?$allocator@U?$pair@$$CBHPAVTUnionInfo@@@std@@@3@$0A@@std@@@std@@@0@0AAIUbidirectional_iterator_tag@0@@Z ; std::_Distance2<std::_Tree_iterator<std::_Tree_val<std::_Tmap_traits<int,TUnionInfo *,std::less<int>,std::allocator<std::pair<int const ,TUnionInfo *> >,0> > >,unsigned int>
; Function compile flags: /Ogtp
; File c:\program files (x86)\microsoft visual studio 10.0\vc\include\xutility
;	COMDAT ??$_Distance2@V?$_Tree_iterator@V?$_Tree_val@V?$_Tmap_traits@HPAVTUnionInfo@@U?$less@H@std@@V?$allocator@U?$pair@$$CBHPAVTUnionInfo@@@std@@@3@$0A@@std@@@std@@@std@@I@std@@YAXV?$_Tree_iterator@V?$_Tree_val@V?$_Tmap_traits@HPAVTUnionInfo@@U?$less@H@std@@V?$allocator@U?$pair@$$CBHPAVTUnionInfo@@@std@@@3@$0A@@std@@@std@@@0@0AAIUbidirectional_iterator_tag@0@@Z
_TEXT	SEGMENT
__First$ = 8						; size = 4
__Last$ = 12						; size = 4
__Off$ = 16						; size = 4
___formal$ = 20						; size = 1
??$_Distance2@V?$_Tree_iterator@V?$_Tree_val@V?$_Tmap_traits@HPAVTUnionInfo@@U?$less@H@std@@V?$allocator@U?$pair@$$CBHPAVTUnionInfo@@@std@@@3@$0A@@std@@@std@@@std@@I@std@@YAXV?$_Tree_iterator@V?$_Tree_val@V?$_Tmap_traits@HPAVTUnionInfo@@U?$less@H@std@@V?$allocator@U?$pair@$$CBHPAVTUnionInfo@@@std@@@3@$0A@@std@@@std@@@0@0AAIUbidirectional_iterator_tag@0@@Z PROC ; std::_Distance2<std::_Tree_iterator<std::_Tree_val<std::_Tmap_traits<int,TUnionInfo *,std::less<int>,std::allocator<std::pair<int const ,TUnionInfo *> >,0> > >,unsigned int>, COMDAT

; 876  : 	{	// add to _Off distance between bidirectional iterators (redundant)

  00000	55		 push	 ebp
  00001	8b ec		 mov	 ebp, esp

; 877  : 	for (; _First != _Last; ++_First)

  00003	8b 4d 08	 mov	 ecx, DWORD PTR __First$[ebp]
  00006	57		 push	 edi
  00007	8b 7d 0c	 mov	 edi, DWORD PTR __Last$[ebp]
  0000a	3b cf		 cmp	 ecx, edi
  0000c	74 54		 je	 SHORT $LN1@Distance2
  0000e	56		 push	 esi
  0000f	8b 75 10	 mov	 esi, DWORD PTR __Off$[ebp]
  00012	8b 16		 mov	 edx, DWORD PTR [esi]
$LL12@Distance2:

; 878  : 		++_Off;

  00014	42		 inc	 edx
  00015	89 16		 mov	 DWORD PTR [esi], edx
  00017	80 79 15 00	 cmp	 BYTE PTR [ecx+21], 0
  0001b	75 40		 jne	 SHORT $LN51@Distance2

; 877  : 	for (; _First != _Last; ++_First)

  0001d	8b 41 08	 mov	 eax, DWORD PTR [ecx+8]
  00020	80 78 15 00	 cmp	 BYTE PTR [eax+21], 0
  00024	75 16		 jne	 SHORT $LN48@Distance2
  00026	8b c8		 mov	 ecx, eax
  00028	8b 01		 mov	 eax, DWORD PTR [ecx]
  0002a	80 78 15 00	 cmp	 BYTE PTR [eax+21], 0
  0002e	75 2a		 jne	 SHORT $LN26@Distance2
$LL27@Distance2:
  00030	8b c8		 mov	 ecx, eax
  00032	8b 01		 mov	 eax, DWORD PTR [ecx]
  00034	80 78 15 00	 cmp	 BYTE PTR [eax+21], 0
  00038	74 f6		 je	 SHORT $LL27@Distance2
  0003a	eb 1e		 jmp	 SHORT $LN26@Distance2
$LN48@Distance2:
  0003c	8b 41 04	 mov	 eax, DWORD PTR [ecx+4]
  0003f	80 78 15 00	 cmp	 BYTE PTR [eax+21], 0
  00043	75 13		 jne	 SHORT $LN10@Distance2
$LL11@Distance2:
  00045	3b 48 08	 cmp	 ecx, DWORD PTR [eax+8]
  00048	75 0e		 jne	 SHORT $LN10@Distance2
  0004a	8b c8		 mov	 ecx, eax
  0004c	89 4d 08	 mov	 DWORD PTR __First$[ebp], ecx
  0004f	8b 40 04	 mov	 eax, DWORD PTR [eax+4]
  00052	80 78 15 00	 cmp	 BYTE PTR [eax+21], 0
  00056	74 ed		 je	 SHORT $LL11@Distance2
$LN10@Distance2:
  00058	8b c8		 mov	 ecx, eax
$LN26@Distance2:
  0005a	89 4d 08	 mov	 DWORD PTR __First$[ebp], ecx
$LN51@Distance2:
  0005d	3b cf		 cmp	 ecx, edi
  0005f	75 b3		 jne	 SHORT $LL12@Distance2
  00061	5e		 pop	 esi
$LN1@Distance2:
  00062	5f		 pop	 edi

; 879  : 	}

  00063	5d		 pop	 ebp
  00064	c3		 ret	 0
??$_Distance2@V?$_Tree_iterator@V?$_Tree_val@V?$_Tmap_traits@HPAVTUnionInfo@@U?$less@H@std@@V?$allocator@U?$pair@$$CBHPAVTUnionInfo@@@std@@@3@$0A@@std@@@std@@@std@@I@std@@YAXV?$_Tree_iterator@V?$_Tree_val@V?$_Tmap_traits@HPAVTUnionInfo@@U?$less@H@std@@V?$allocator@U?$pair@$$CBHPAVTUnionInfo@@@std@@@3@$0A@@std@@@std@@@0@0AAIUbidirectional_iterator_tag@0@@Z ENDP ; std::_Distance2<std::_Tree_iterator<std::_Tree_val<std::_Tmap_traits<int,TUnionInfo *,std::less<int>,std::allocator<std::pair<int const ,TUnionInfo *> >,0> > >,unsigned int>
_TEXT	ENDS
PUBLIC	?construct@?$allocator@U?$pair@$$CBHPAVTUnionInfo@@@std@@@std@@QAEXPAU?$pair@$$CBHPAVTUnionInfo@@@2@$$QAU32@@Z ; std::allocator<std::pair<int const ,TUnionInfo *> >::construct
; Function compile flags: /Ogtp
; File c:\program files (x86)\microsoft visual studio 10.0\vc\include\xmemory
;	COMDAT ?construct@?$allocator@U?$pair@$$CBHPAVTUnionInfo@@@std@@@std@@QAEXPAU?$pair@$$CBHPAVTUnionInfo@@@2@$$QAU32@@Z
_TEXT	SEGMENT
__Ptr$ = 8						; size = 4
__Val$ = 12						; size = 4
?construct@?$allocator@U?$pair@$$CBHPAVTUnionInfo@@@std@@@std@@QAEXPAU?$pair@$$CBHPAVTUnionInfo@@@2@$$QAU32@@Z PROC ; std::allocator<std::pair<int const ,TUnionInfo *> >::construct, COMDAT
; _this$ = ecx

; 201  : 		{	// construct object at _Ptr with value _Val

  00000	55		 push	 ebp
  00001	8b ec		 mov	 ebp, esp

; 202  : 		::new ((void _FARQ *)_Ptr) _Ty(_STD forward<_Ty>(_Val));

  00003	8b 45 08	 mov	 eax, DWORD PTR __Ptr$[ebp]
  00006	85 c0		 test	 eax, eax
  00008	74 0d		 je	 SHORT $LN3@construct@3
  0000a	8b 4d 0c	 mov	 ecx, DWORD PTR __Val$[ebp]
  0000d	8b 11		 mov	 edx, DWORD PTR [ecx]
  0000f	89 10		 mov	 DWORD PTR [eax], edx
  00011	8b 49 04	 mov	 ecx, DWORD PTR [ecx+4]
  00014	89 48 04	 mov	 DWORD PTR [eax+4], ecx
$LN3@construct@3:

; 203  : 		}

  00017	5d		 pop	 ebp
  00018	c2 08 00	 ret	 8
?construct@?$allocator@U?$pair@$$CBHPAVTUnionInfo@@@std@@@std@@QAEXPAU?$pair@$$CBHPAVTUnionInfo@@@2@$$QAU32@@Z ENDP ; std::allocator<std::pair<int const ,TUnionInfo *> >::construct
_TEXT	ENDS
PUBLIC	?begin@?$_Tree@V?$_Tmap_traits@HPAVTUnionInfo@@U?$less@H@std@@V?$allocator@U?$pair@$$CBHPAVTUnionInfo@@@std@@@3@$0A@@std@@@std@@QAE?AV?$_Tree_iterator@V?$_Tree_val@V?$_Tmap_traits@HPAVTUnionInfo@@U?$less@H@std@@V?$allocator@U?$pair@$$CBHPAVTUnionInfo@@@std@@@3@$0A@@std@@@std@@@2@XZ ; std::_Tree<std::_Tmap_traits<int,TUnionInfo *,std::less<int>,std::allocator<std::pair<int const ,TUnionInfo *> >,0> >::begin
; Function compile flags: /Ogtp
; File c:\program files (x86)\microsoft visual studio 10.0\vc\include\xtree
;	COMDAT ?begin@?$_Tree@V?$_Tmap_traits@HPAVTUnionInfo@@U?$less@H@std@@V?$allocator@U?$pair@$$CBHPAVTUnionInfo@@@std@@@3@$0A@@std@@@std@@QAE?AV?$_Tree_iterator@V?$_Tree_val@V?$_Tmap_traits@HPAVTUnionInfo@@U?$less@H@std@@V?$allocator@U?$pair@$$CBHPAVTUnionInfo@@@std@@@3@$0A@@std@@@std@@@2@XZ
_TEXT	SEGMENT
___$ReturnUdt$ = 8					; size = 4
?begin@?$_Tree@V?$_Tmap_traits@HPAVTUnionInfo@@U?$less@H@std@@V?$allocator@U?$pair@$$CBHPAVTUnionInfo@@@std@@@3@$0A@@std@@@std@@QAE?AV?$_Tree_iterator@V?$_Tree_val@V?$_Tmap_traits@HPAVTUnionInfo@@U?$less@H@std@@V?$allocator@U?$pair@$$CBHPAVTUnionInfo@@@std@@@3@$0A@@std@@@std@@@2@XZ PROC ; std::_Tree<std::_Tmap_traits<int,TUnionInfo *,std::less<int>,std::allocator<std::pair<int const ,TUnionInfo *> >,0> >::begin, COMDAT
; _this$ = ecx

; 806  : 		{	// return iterator for beginning of mutable sequence

  00000	55		 push	 ebp
  00001	8b ec		 mov	 ebp, esp

; 807  : 		return (iterator(_Lmost(), this));

  00003	8b 41 04	 mov	 eax, DWORD PTR [ecx+4]
  00006	8b 08		 mov	 ecx, DWORD PTR [eax]
  00008	8b 45 08	 mov	 eax, DWORD PTR ___$ReturnUdt$[ebp]
  0000b	89 08		 mov	 DWORD PTR [eax], ecx

; 808  : 		}

  0000d	5d		 pop	 ebp
  0000e	c2 04 00	 ret	 4
?begin@?$_Tree@V?$_Tmap_traits@HPAVTUnionInfo@@U?$less@H@std@@V?$allocator@U?$pair@$$CBHPAVTUnionInfo@@@std@@@3@$0A@@std@@@std@@QAE?AV?$_Tree_iterator@V?$_Tree_val@V?$_Tmap_traits@HPAVTUnionInfo@@U?$less@H@std@@V?$allocator@U?$pair@$$CBHPAVTUnionInfo@@@std@@@3@$0A@@std@@@std@@@2@XZ ENDP ; std::_Tree<std::_Tmap_traits<int,TUnionInfo *,std::less<int>,std::allocator<std::pair<int const ,TUnionInfo *> >,0> >::begin
_TEXT	ENDS
PUBLIC	?end@?$_Tree@V?$_Tmap_traits@HPAVTUnionInfo@@U?$less@H@std@@V?$allocator@U?$pair@$$CBHPAVTUnionInfo@@@std@@@3@$0A@@std@@@std@@QAE?AV?$_Tree_iterator@V?$_Tree_val@V?$_Tmap_traits@HPAVTUnionInfo@@U?$less@H@std@@V?$allocator@U?$pair@$$CBHPAVTUnionInfo@@@std@@@3@$0A@@std@@@std@@@2@XZ ; std::_Tree<std::_Tmap_traits<int,TUnionInfo *,std::less<int>,std::allocator<std::pair<int const ,TUnionInfo *> >,0> >::end
; Function compile flags: /Ogtp
;	COMDAT ?end@?$_Tree@V?$_Tmap_traits@HPAVTUnionInfo@@U?$less@H@std@@V?$allocator@U?$pair@$$CBHPAVTUnionInfo@@@std@@@3@$0A@@std@@@std@@QAE?AV?$_Tree_iterator@V?$_Tree_val@V?$_Tmap_traits@HPAVTUnionInfo@@U?$less@H@std@@V?$allocator@U?$pair@$$CBHPAVTUnionInfo@@@std@@@3@$0A@@std@@@std@@@2@XZ
_TEXT	SEGMENT
___$ReturnUdt$ = 8					; size = 4
?end@?$_Tree@V?$_Tmap_traits@HPAVTUnionInfo@@U?$less@H@std@@V?$allocator@U?$pair@$$CBHPAVTUnionInfo@@@std@@@3@$0A@@std@@@std@@QAE?AV?$_Tree_iterator@V?$_Tree_val@V?$_Tmap_traits@HPAVTUnionInfo@@U?$less@H@std@@V?$allocator@U?$pair@$$CBHPAVTUnionInfo@@@std@@@3@$0A@@std@@@std@@@2@XZ PROC ; std::_Tree<std::_Tmap_traits<int,TUnionInfo *,std::less<int>,std::allocator<std::pair<int const ,TUnionInfo *> >,0> >::end, COMDAT
; _this$ = ecx

; 816  : 		{	// return iterator for end of mutable sequence

  00000	55		 push	 ebp
  00001	8b ec		 mov	 ebp, esp

; 817  : 		return (iterator(this->_Myhead, this));

  00003	8b 49 04	 mov	 ecx, DWORD PTR [ecx+4]
  00006	8b 45 08	 mov	 eax, DWORD PTR ___$ReturnUdt$[ebp]
  00009	89 08		 mov	 DWORD PTR [eax], ecx

; 818  : 		}

  0000b	5d		 pop	 ebp
  0000c	c2 04 00	 ret	 4
?end@?$_Tree@V?$_Tmap_traits@HPAVTUnionInfo@@U?$less@H@std@@V?$allocator@U?$pair@$$CBHPAVTUnionInfo@@@std@@@3@$0A@@std@@@std@@QAE?AV?$_Tree_iterator@V?$_Tree_val@V?$_Tmap_traits@HPAVTUnionInfo@@U?$less@H@std@@V?$allocator@U?$pair@$$CBHPAVTUnionInfo@@@std@@@3@$0A@@std@@@std@@@2@XZ ENDP ; std::_Tree<std::_Tmap_traits<int,TUnionInfo *,std::less<int>,std::allocator<std::pair<int const ,TUnionInfo *> >,0> >::end
_TEXT	ENDS
PUBLIC	?clear@?$_Tree@V?$_Tmap_traits@HPAVTUnionInfo@@U?$less@H@std@@V?$allocator@U?$pair@$$CBHPAVTUnionInfo@@@std@@@3@$0A@@std@@@std@@QAEXXZ ; std::_Tree<std::_Tmap_traits<int,TUnionInfo *,std::less<int>,std::allocator<std::pair<int const ,TUnionInfo *> >,0> >::clear
; Function compile flags: /Ogtp
;	COMDAT ?clear@?$_Tree@V?$_Tmap_traits@HPAVTUnionInfo@@U?$less@H@std@@V?$allocator@U?$pair@$$CBHPAVTUnionInfo@@@std@@@3@$0A@@std@@@std@@QAEXXZ
_TEXT	SEGMENT
?clear@?$_Tree@V?$_Tmap_traits@HPAVTUnionInfo@@U?$less@H@std@@V?$allocator@U?$pair@$$CBHPAVTUnionInfo@@@std@@@3@$0A@@std@@@std@@QAEXXZ PROC ; std::_Tree<std::_Tmap_traits<int,TUnionInfo *,std::less<int>,std::allocator<std::pair<int const ,TUnionInfo *> >,0> >::clear, COMDAT
; _this$ = ecx

; 1410 : 		{	// erase all

  00000	53		 push	 ebx
  00001	56		 push	 esi
  00002	57		 push	 edi
  00003	8b f9		 mov	 edi, ecx

; 1411 :  #if _ITERATOR_DEBUG_LEVEL == 2
; 1412 : 		this->_Orphan_ptr(*this, 0);
; 1413 :  #endif /* _ITERATOR_DEBUG_LEVEL == 2 */
; 1414 : 
; 1415 : 		_Erase(_Root());

  00005	8b 47 04	 mov	 eax, DWORD PTR [edi+4]
  00008	8b 58 04	 mov	 ebx, DWORD PTR [eax+4]
  0000b	80 7b 15 00	 cmp	 BYTE PTR [ebx+21], 0
  0000f	8b f3		 mov	 esi, ebx
  00011	75 1e		 jne	 SHORT $LN7@clear
$LL9@clear:
  00013	8b 4e 08	 mov	 ecx, DWORD PTR [esi+8]
  00016	51		 push	 ecx
  00017	8b cf		 mov	 ecx, edi
  00019	e8 00 00 00 00	 call	 ?_Erase@?$_Tree@V?$_Tmap_traits@HPAVTUnionInfo@@U?$less@H@std@@V?$allocator@U?$pair@$$CBHPAVTUnionInfo@@@std@@@3@$0A@@std@@@std@@IAEXPAU_Node@?$_Tree_nod@V?$_Tmap_traits@HPAVTUnionInfo@@U?$less@H@std@@V?$allocator@U?$pair@$$CBHPAVTUnionInfo@@@std@@@3@$0A@@std@@@2@@Z ; std::_Tree<std::_Tmap_traits<int,TUnionInfo *,std::less<int>,std::allocator<std::pair<int const ,TUnionInfo *> >,0> >::_Erase
  0001e	8b 36		 mov	 esi, DWORD PTR [esi]
  00020	53		 push	 ebx
  00021	e8 00 00 00 00	 call	 ??3@YAXPAX@Z		; operator delete
  00026	83 c4 04	 add	 esp, 4
  00029	80 7e 15 00	 cmp	 BYTE PTR [esi+21], 0
  0002d	8b de		 mov	 ebx, esi
  0002f	74 e2		 je	 SHORT $LL9@clear
$LN7@clear:

; 1416 : 		_Root() = this->_Myhead;

  00031	8b 47 04	 mov	 eax, DWORD PTR [edi+4]
  00034	89 40 04	 mov	 DWORD PTR [eax+4], eax

; 1417 : 		_Lmost() = this->_Myhead;

  00037	8b 47 04	 mov	 eax, DWORD PTR [edi+4]
  0003a	89 00		 mov	 DWORD PTR [eax], eax

; 1418 : 		_Rmost() = this->_Myhead;

  0003c	8b 47 04	 mov	 eax, DWORD PTR [edi+4]
  0003f	89 40 08	 mov	 DWORD PTR [eax+8], eax

; 1419 : 		this->_Mysize = 0;

  00042	c7 47 08 00 00
	00 00		 mov	 DWORD PTR [edi+8], 0
  00049	5f		 pop	 edi
  0004a	5e		 pop	 esi
  0004b	5b		 pop	 ebx

; 1420 : 		}

  0004c	c3		 ret	 0
?clear@?$_Tree@V?$_Tmap_traits@HPAVTUnionInfo@@U?$less@H@std@@V?$allocator@U?$pair@$$CBHPAVTUnionInfo@@@std@@@3@$0A@@std@@@std@@QAEXXZ ENDP ; std::_Tree<std::_Tmap_traits<int,TUnionInfo *,std::less<int>,std::allocator<std::pair<int const ,TUnionInfo *> >,0> >::clear
_TEXT	ENDS
PUBLIC	?_Reserve@?$vector@HV?$allocator@H@std@@@std@@IAEXI@Z ; std::vector<int,std::allocator<int> >::_Reserve
; Function compile flags: /Ogtp
; File c:\program files (x86)\microsoft visual studio 10.0\vc\include\vector
;	COMDAT ?_Reserve@?$vector@HV?$allocator@H@std@@@std@@IAEXI@Z
_TEXT	SEGMENT
__Count$ = 8						; size = 4
?_Reserve@?$vector@HV?$allocator@H@std@@@std@@IAEXI@Z PROC ; std::vector<int,std::allocator<int> >::_Reserve, COMDAT
; _this$ = ecx

; 1290 : 		{	// ensure room for _Count new elements, grow exponentially

  00000	55		 push	 ebp
  00001	8b ec		 mov	 ebp, esp

; 1291 : 		size_type _Size = size();

  00003	8b 41 04	 mov	 eax, DWORD PTR [ecx+4]

; 1292 : 		if (max_size() - _Count < _Size)

  00006	8b 55 08	 mov	 edx, DWORD PTR __Count$[ebp]
  00009	56		 push	 esi
  0000a	8b 31		 mov	 esi, DWORD PTR [ecx]
  0000c	57		 push	 edi
  0000d	2b c6		 sub	 eax, esi
  0000f	bf ff ff ff 3f	 mov	 edi, 1073741823		; 3fffffffH
  00014	c1 f8 02	 sar	 eax, 2
  00017	2b fa		 sub	 edi, edx
  00019	3b f8		 cmp	 edi, eax
  0001b	73 0a		 jae	 SHORT $LN4@Reserve

; 1293 : 			_Xlen();

  0001d	68 00 00 00 00	 push	 OFFSET ??_C@_0BD@OLBABOEK@vector?$DMT?$DO?5too?5long?$AA@
  00022	e8 00 00 00 00	 call	 ?_Xlength_error@std@@YAXPBD@Z ; std::_Xlength_error
$LN34@Reserve:
$LN4@Reserve:

; 1294 : 		else if ((_Size += _Count) <= capacity())

  00027	03 c2		 add	 eax, edx
  00029	8b 51 08	 mov	 edx, DWORD PTR [ecx+8]
  0002c	2b d6		 sub	 edx, esi
  0002e	c1 fa 02	 sar	 edx, 2
  00031	3b c2		 cmp	 eax, edx
  00033	76 21		 jbe	 SHORT $LN1@Reserve

; 1295 : 			;
; 1296 : 		else
; 1297 : 			reserve(_Grow_to(_Size));

  00035	8b f2		 mov	 esi, edx
  00037	d1 ee		 shr	 esi, 1
  00039	bf ff ff ff 3f	 mov	 edi, 1073741823		; 3fffffffH
  0003e	2b fe		 sub	 edi, esi
  00040	3b fa		 cmp	 edi, edx
  00042	73 04		 jae	 SHORT $LN23@Reserve
  00044	33 d2		 xor	 edx, edx
  00046	eb 02		 jmp	 SHORT $LN24@Reserve
$LN23@Reserve:
  00048	03 d6		 add	 edx, esi
$LN24@Reserve:
  0004a	3b d0		 cmp	 edx, eax
  0004c	73 02		 jae	 SHORT $LN20@Reserve
  0004e	8b d0		 mov	 edx, eax
$LN20@Reserve:
  00050	52		 push	 edx
  00051	e8 00 00 00 00	 call	 ?reserve@?$vector@HV?$allocator@H@std@@@std@@QAEXI@Z ; std::vector<int,std::allocator<int> >::reserve
$LN1@Reserve:
  00056	5f		 pop	 edi
  00057	5e		 pop	 esi

; 1298 : 		}

  00058	5d		 pop	 ebp
  00059	c2 04 00	 ret	 4
$LN33@Reserve:
?_Reserve@?$vector@HV?$allocator@H@std@@@std@@IAEXI@Z ENDP ; std::vector<int,std::allocator<int> >::_Reserve
_TEXT	ENDS
PUBLIC	??0?$_Tree@V?$_Tmap_traits@HPAVTUnionInfo@@U?$less@H@std@@V?$allocator@U?$pair@$$CBHPAVTUnionInfo@@@std@@@3@$0A@@std@@@std@@QAE@ABU?$less@H@1@ABV?$allocator@U?$pair@$$CBHPAVTUnionInfo@@@std@@@1@@Z ; std::_Tree<std::_Tmap_traits<int,TUnionInfo *,std::less<int>,std::allocator<std::pair<int const ,TUnionInfo *> >,0> >::_Tree<std::_Tmap_traits<int,TUnionInfo *,std::less<int>,std::allocator<std::pair<int const ,TUnionInfo *> >,0> >
; Function compile flags: /Ogtp
; File c:\program files (x86)\microsoft visual studio 10.0\vc\include\xtree
;	COMDAT ??0?$_Tree@V?$_Tmap_traits@HPAVTUnionInfo@@U?$less@H@std@@V?$allocator@U?$pair@$$CBHPAVTUnionInfo@@@std@@@3@$0A@@std@@@std@@QAE@ABU?$less@H@1@ABV?$allocator@U?$pair@$$CBHPAVTUnionInfo@@@std@@@1@@Z
_TEXT	SEGMENT
$T161041 = -16						; size = 12
$T160983 = -4						; size = 4
__Parg$ = 8						; size = 4
__Al$ = 12						; size = 4
??0?$_Tree@V?$_Tmap_traits@HPAVTUnionInfo@@U?$less@H@std@@V?$allocator@U?$pair@$$CBHPAVTUnionInfo@@@std@@@3@$0A@@std@@@std@@QAE@ABU?$less@H@1@ABV?$allocator@U?$pair@$$CBHPAVTUnionInfo@@@std@@@1@@Z PROC ; std::_Tree<std::_Tmap_traits<int,TUnionInfo *,std::less<int>,std::allocator<std::pair<int const ,TUnionInfo *> >,0> >::_Tree<std::_Tmap_traits<int,TUnionInfo *,std::less<int>,std::allocator<std::pair<int const ,TUnionInfo *> >,0> >, COMDAT
; _this$ = ecx

; 698  : 		{	// construct empty tree

  00000	55		 push	 ebp
  00001	8b ec		 mov	 ebp, esp
  00003	83 ec 10	 sub	 esp, 16			; 00000010H
  00006	56		 push	 esi
  00007	8b f1		 mov	 esi, ecx
  00009	6a 18		 push	 24			; 00000018H
  0000b	c7 46 08 00 00
	00 00		 mov	 DWORD PTR [esi+8], 0
  00012	e8 00 00 00 00	 call	 ??2@YAPAXI@Z		; operator new
  00017	83 c4 04	 add	 esp, 4
  0001a	85 c0		 test	 eax, eax
  0001c	74 28		 je	 SHORT $LN20@Tree
  0001e	89 46 04	 mov	 DWORD PTR [esi+4], eax
  00021	89 00		 mov	 DWORD PTR [eax], eax
  00023	8b 46 04	 mov	 eax, DWORD PTR [esi+4]
  00026	89 40 04	 mov	 DWORD PTR [eax+4], eax
  00029	8b 46 04	 mov	 eax, DWORD PTR [esi+4]
  0002c	89 40 08	 mov	 DWORD PTR [eax+8], eax
  0002f	8b 4e 04	 mov	 ecx, DWORD PTR [esi+4]
  00032	b0 01		 mov	 al, 1
  00034	88 41 14	 mov	 BYTE PTR [ecx+20], al
  00037	8b 56 04	 mov	 edx, DWORD PTR [esi+4]
  0003a	88 42 15	 mov	 BYTE PTR [edx+21], al

; 699  : 		}

  0003d	8b c6		 mov	 eax, esi
  0003f	5e		 pop	 esi
  00040	8b e5		 mov	 esp, ebp
  00042	5d		 pop	 ebp
  00043	c2 08 00	 ret	 8

; 698  : 		{	// construct empty tree

$LN20@Tree:
  00046	8d 45 fc	 lea	 eax, DWORD PTR $T160983[ebp]
  00049	50		 push	 eax
  0004a	8d 4d f0	 lea	 ecx, DWORD PTR $T161041[ebp]
  0004d	c7 45 fc 00 00
	00 00		 mov	 DWORD PTR $T160983[ebp], 0
  00054	e8 00 00 00 00	 call	 ??0exception@std@@QAE@ABQBD@Z ; std::exception::exception
  00059	68 00 00 00 00	 push	 OFFSET __TI2?AVbad_alloc@std@@
  0005e	8d 4d f0	 lea	 ecx, DWORD PTR $T161041[ebp]
  00061	51		 push	 ecx
  00062	c7 45 f0 00 00
	00 00		 mov	 DWORD PTR $T161041[ebp], OFFSET ??_7bad_alloc@std@@6B@
  00069	e8 00 00 00 00	 call	 __CxxThrowException@8
$LN43@Tree:
$LN42@Tree:
  0006e	cc		 int	 3
??0?$_Tree@V?$_Tmap_traits@HPAVTUnionInfo@@U?$less@H@std@@V?$allocator@U?$pair@$$CBHPAVTUnionInfo@@@std@@@3@$0A@@std@@@std@@QAE@ABU?$less@H@1@ABV?$allocator@U?$pair@$$CBHPAVTUnionInfo@@@std@@@1@@Z ENDP ; std::_Tree<std::_Tmap_traits<int,TUnionInfo *,std::less<int>,std::allocator<std::pair<int const ,TUnionInfo *> >,0> >::_Tree<std::_Tmap_traits<int,TUnionInfo *,std::less<int>,std::allocator<std::pair<int const ,TUnionInfo *> >,0> >
_TEXT	ENDS
PUBLIC	?erase@?$_Tree@V?$_Tmap_traits@HPAVTUnionInfo@@U?$less@H@std@@V?$allocator@U?$pair@$$CBHPAVTUnionInfo@@@std@@@3@$0A@@std@@@std@@QAE?AV?$_Tree_iterator@V?$_Tree_val@V?$_Tmap_traits@HPAVTUnionInfo@@U?$less@H@std@@V?$allocator@U?$pair@$$CBHPAVTUnionInfo@@@std@@@3@$0A@@std@@@std@@@2@V?$_Tree_const_iterator@V?$_Tree_val@V?$_Tmap_traits@HPAVTUnionInfo@@U?$less@H@std@@V?$allocator@U?$pair@$$CBHPAVTUnionInfo@@@std@@@3@$0A@@std@@@std@@@2@0@Z ; std::_Tree<std::_Tmap_traits<int,TUnionInfo *,std::less<int>,std::allocator<std::pair<int const ,TUnionInfo *> >,0> >::erase
; Function compile flags: /Ogtp
;	COMDAT ?erase@?$_Tree@V?$_Tmap_traits@HPAVTUnionInfo@@U?$less@H@std@@V?$allocator@U?$pair@$$CBHPAVTUnionInfo@@@std@@@3@$0A@@std@@@std@@QAE?AV?$_Tree_iterator@V?$_Tree_val@V?$_Tmap_traits@HPAVTUnionInfo@@U?$less@H@std@@V?$allocator@U?$pair@$$CBHPAVTUnionInfo@@@std@@@3@$0A@@std@@@std@@@2@V?$_Tree_const_iterator@V?$_Tree_val@V?$_Tmap_traits@HPAVTUnionInfo@@U?$less@H@std@@V?$allocator@U?$pair@$$CBHPAVTUnionInfo@@@std@@@3@$0A@@std@@@std@@@2@0@Z
_TEXT	SEGMENT
$T161072 = -4						; size = 4
___$ReturnUdt$ = 8					; size = 4
__First$ = 12						; size = 4
__Last$ = 16						; size = 4
?erase@?$_Tree@V?$_Tmap_traits@HPAVTUnionInfo@@U?$less@H@std@@V?$allocator@U?$pair@$$CBHPAVTUnionInfo@@@std@@@3@$0A@@std@@@std@@QAE?AV?$_Tree_iterator@V?$_Tree_val@V?$_Tmap_traits@HPAVTUnionInfo@@U?$less@H@std@@V?$allocator@U?$pair@$$CBHPAVTUnionInfo@@@std@@@3@$0A@@std@@@std@@@2@V?$_Tree_const_iterator@V?$_Tree_val@V?$_Tmap_traits@HPAVTUnionInfo@@U?$less@H@std@@V?$allocator@U?$pair@$$CBHPAVTUnionInfo@@@std@@@3@$0A@@std@@@std@@@2@0@Z PROC ; std::_Tree<std::_Tmap_traits<int,TUnionInfo *,std::less<int>,std::allocator<std::pair<int const ,TUnionInfo *> >,0> >::erase, COMDAT
; _this$ = ecx

; 1379 : 		{	// erase [_First, _Last)

  00000	55		 push	 ebp
  00001	8b ec		 mov	 ebp, esp
  00003	51		 push	 ecx

; 1380 : 		if (_First == begin() && _Last == end())

  00004	8b 55 10	 mov	 edx, DWORD PTR __Last$[ebp]
  00007	56		 push	 esi
  00008	8b f1		 mov	 esi, ecx
  0000a	8b 46 04	 mov	 eax, DWORD PTR [esi+4]
  0000d	8b 4d 0c	 mov	 ecx, DWORD PTR __First$[ebp]
  00010	3b 08		 cmp	 ecx, DWORD PTR [eax]
  00012	75 1c		 jne	 SHORT $LN97@erase@2
  00014	3b d0		 cmp	 edx, eax
  00016	75 18		 jne	 SHORT $LN97@erase@2

; 1381 : 			{	// erase all
; 1382 : 			clear();

  00018	8b ce		 mov	 ecx, esi
  0001a	e8 00 00 00 00	 call	 ?clear@?$_Tree@V?$_Tmap_traits@HPAVTUnionInfo@@U?$less@H@std@@V?$allocator@U?$pair@$$CBHPAVTUnionInfo@@@std@@@3@$0A@@std@@@std@@QAEXXZ ; std::_Tree<std::_Tmap_traits<int,TUnionInfo *,std::less<int>,std::allocator<std::pair<int const ,TUnionInfo *> >,0> >::clear

; 1383 : 			return (begin());

  0001f	8b 46 04	 mov	 eax, DWORD PTR [esi+4]
  00022	8b 08		 mov	 ecx, DWORD PTR [eax]

; 1389 : 			return (iterator(_First._Ptr, this));

  00024	8b 45 08	 mov	 eax, DWORD PTR ___$ReturnUdt$[ebp]
  00027	89 08		 mov	 DWORD PTR [eax], ecx
  00029	5e		 pop	 esi

; 1390 : 			}
; 1391 : 		}

  0002a	8b e5		 mov	 esp, ebp
  0002c	5d		 pop	 ebp
  0002d	c2 0c 00	 ret	 12			; 0000000cH
$LN97@erase@2:

; 1384 : 			}
; 1385 : 		else
; 1386 : 			{	// partial erase, one at a time
; 1387 : 			while (_First != _Last)

  00030	3b ca		 cmp	 ecx, edx
  00032	74 5e		 je	 SHORT $LN1@erase@2
$LL2@erase@2:

; 1388 : 				erase(_First++);

  00034	80 79 15 00	 cmp	 BYTE PTR [ecx+21], 0
  00038	8b d1		 mov	 edx, ecx
  0003a	75 42		 jne	 SHORT $LN59@erase@2
  0003c	8b 41 08	 mov	 eax, DWORD PTR [ecx+8]
  0003f	80 78 15 00	 cmp	 BYTE PTR [eax+21], 0
  00043	75 1a		 jne	 SHORT $LN99@erase@2
  00045	8b c8		 mov	 ecx, eax
  00047	8b 01		 mov	 eax, DWORD PTR [ecx]
  00049	80 78 15 00	 cmp	 BYTE PTR [eax+21], 0
  0004d	75 0b		 jne	 SHORT $LN73@erase@2
  0004f	90		 npad	 1
$LL74@erase@2:
  00050	8b c8		 mov	 ecx, eax
  00052	8b 01		 mov	 eax, DWORD PTR [ecx]
  00054	80 78 15 00	 cmp	 BYTE PTR [eax+21], 0
  00058	74 f6		 je	 SHORT $LL74@erase@2
$LN73@erase@2:
  0005a	89 4d 0c	 mov	 DWORD PTR __First$[ebp], ecx
  0005d	eb 1f		 jmp	 SHORT $LN59@erase@2
$LN99@erase@2:
  0005f	8b 41 04	 mov	 eax, DWORD PTR [ecx+4]
  00062	80 78 15 00	 cmp	 BYTE PTR [eax+21], 0
  00066	75 13		 jne	 SHORT $LN57@erase@2
$LL58@erase@2:
  00068	3b 48 08	 cmp	 ecx, DWORD PTR [eax+8]
  0006b	75 0e		 jne	 SHORT $LN57@erase@2
  0006d	8b c8		 mov	 ecx, eax
  0006f	89 4d 0c	 mov	 DWORD PTR __First$[ebp], ecx
  00072	8b 40 04	 mov	 eax, DWORD PTR [eax+4]
  00075	80 78 15 00	 cmp	 BYTE PTR [eax+21], 0
  00079	74 ed		 je	 SHORT $LL58@erase@2
$LN57@erase@2:
  0007b	89 45 0c	 mov	 DWORD PTR __First$[ebp], eax
$LN59@erase@2:
  0007e	52		 push	 edx
  0007f	8d 55 fc	 lea	 edx, DWORD PTR $T161072[ebp]
  00082	52		 push	 edx
  00083	8b ce		 mov	 ecx, esi
  00085	e8 00 00 00 00	 call	 ?erase@?$_Tree@V?$_Tmap_traits@HPAVTUnionInfo@@U?$less@H@std@@V?$allocator@U?$pair@$$CBHPAVTUnionInfo@@@std@@@3@$0A@@std@@@std@@QAE?AV?$_Tree_iterator@V?$_Tree_val@V?$_Tmap_traits@HPAVTUnionInfo@@U?$less@H@std@@V?$allocator@U?$pair@$$CBHPAVTUnionInfo@@@std@@@3@$0A@@std@@@std@@@2@V?$_Tree_const_iterator@V?$_Tree_val@V?$_Tmap_traits@HPAVTUnionInfo@@U?$less@H@std@@V?$allocator@U?$pair@$$CBHPAVTUnionInfo@@@std@@@3@$0A@@std@@@std@@@2@@Z ; std::_Tree<std::_Tmap_traits<int,TUnionInfo *,std::less<int>,std::allocator<std::pair<int const ,TUnionInfo *> >,0> >::erase
  0008a	8b 4d 0c	 mov	 ecx, DWORD PTR __First$[ebp]
  0008d	3b 4d 10	 cmp	 ecx, DWORD PTR __Last$[ebp]
  00090	75 a2		 jne	 SHORT $LL2@erase@2
$LN1@erase@2:

; 1389 : 			return (iterator(_First._Ptr, this));

  00092	8b 45 08	 mov	 eax, DWORD PTR ___$ReturnUdt$[ebp]
  00095	89 08		 mov	 DWORD PTR [eax], ecx
  00097	5e		 pop	 esi

; 1390 : 			}
; 1391 : 		}

  00098	8b e5		 mov	 esp, ebp
  0009a	5d		 pop	 ebp
  0009b	c2 0c 00	 ret	 12			; 0000000cH
?erase@?$_Tree@V?$_Tmap_traits@HPAVTUnionInfo@@U?$less@H@std@@V?$allocator@U?$pair@$$CBHPAVTUnionInfo@@@std@@@3@$0A@@std@@@std@@QAE?AV?$_Tree_iterator@V?$_Tree_val@V?$_Tmap_traits@HPAVTUnionInfo@@U?$less@H@std@@V?$allocator@U?$pair@$$CBHPAVTUnionInfo@@@std@@@3@$0A@@std@@@std@@@2@V?$_Tree_const_iterator@V?$_Tree_val@V?$_Tmap_traits@HPAVTUnionInfo@@U?$less@H@std@@V?$allocator@U?$pair@$$CBHPAVTUnionInfo@@@std@@@3@$0A@@std@@@std@@@2@0@Z ENDP ; std::_Tree<std::_Tmap_traits<int,TUnionInfo *,std::less<int>,std::allocator<std::pair<int const ,TUnionInfo *> >,0> >::erase
_TEXT	ENDS
PUBLIC	?lower_bound@?$_Tree@V?$_Tmap_traits@HPAVTUnionInfo@@U?$less@H@std@@V?$allocator@U?$pair@$$CBHPAVTUnionInfo@@@std@@@3@$0A@@std@@@std@@QAE?AV?$_Tree_iterator@V?$_Tree_val@V?$_Tmap_traits@HPAVTUnionInfo@@U?$less@H@std@@V?$allocator@U?$pair@$$CBHPAVTUnionInfo@@@std@@@3@$0A@@std@@@std@@@2@ABH@Z ; std::_Tree<std::_Tmap_traits<int,TUnionInfo *,std::less<int>,std::allocator<std::pair<int const ,TUnionInfo *> >,0> >::lower_bound
; Function compile flags: /Ogtp
;	COMDAT ?lower_bound@?$_Tree@V?$_Tmap_traits@HPAVTUnionInfo@@U?$less@H@std@@V?$allocator@U?$pair@$$CBHPAVTUnionInfo@@@std@@@3@$0A@@std@@@std@@QAE?AV?$_Tree_iterator@V?$_Tree_val@V?$_Tmap_traits@HPAVTUnionInfo@@U?$less@H@std@@V?$allocator@U?$pair@$$CBHPAVTUnionInfo@@@std@@@3@$0A@@std@@@std@@@2@ABH@Z
_TEXT	SEGMENT
___$ReturnUdt$ = 8					; size = 4
__Keyval$ = 12						; size = 4
?lower_bound@?$_Tree@V?$_Tmap_traits@HPAVTUnionInfo@@U?$less@H@std@@V?$allocator@U?$pair@$$CBHPAVTUnionInfo@@@std@@@3@$0A@@std@@@std@@QAE?AV?$_Tree_iterator@V?$_Tree_val@V?$_Tmap_traits@HPAVTUnionInfo@@U?$less@H@std@@V?$allocator@U?$pair@$$CBHPAVTUnionInfo@@@std@@@3@$0A@@std@@@std@@@2@ABH@Z PROC ; std::_Tree<std::_Tmap_traits<int,TUnionInfo *,std::less<int>,std::allocator<std::pair<int const ,TUnionInfo *> >,0> >::lower_bound, COMDAT
; _this$ = ecx

; 1449 : 		{	// find leftmost node not less than _Keyval in mutable tree

  00000	55		 push	 ebp
  00001	8b ec		 mov	 ebp, esp

; 1450 : 		return (iterator(_Lbound(_Keyval), this));

  00003	8b 49 04	 mov	 ecx, DWORD PTR [ecx+4]
  00006	8b 41 04	 mov	 eax, DWORD PTR [ecx+4]
  00009	80 78 15 00	 cmp	 BYTE PTR [eax+21], 0
  0000d	75 19		 jne	 SHORT $LN36@lower_boun
  0000f	8b 55 0c	 mov	 edx, DWORD PTR __Keyval$[ebp]
  00012	8b 12		 mov	 edx, DWORD PTR [edx]
$LL6@lower_boun:
  00014	39 50 0c	 cmp	 DWORD PTR [eax+12], edx
  00017	7d 05		 jge	 SHORT $LN4@lower_boun
  00019	8b 40 08	 mov	 eax, DWORD PTR [eax+8]
  0001c	eb 04		 jmp	 SHORT $LN3@lower_boun
$LN4@lower_boun:
  0001e	8b c8		 mov	 ecx, eax
  00020	8b 00		 mov	 eax, DWORD PTR [eax]
$LN3@lower_boun:
  00022	80 78 15 00	 cmp	 BYTE PTR [eax+21], 0
  00026	74 ec		 je	 SHORT $LL6@lower_boun
$LN36@lower_boun:
  00028	8b 45 08	 mov	 eax, DWORD PTR ___$ReturnUdt$[ebp]
  0002b	89 08		 mov	 DWORD PTR [eax], ecx

; 1451 : 		}

  0002d	5d		 pop	 ebp
  0002e	c2 08 00	 ret	 8
?lower_bound@?$_Tree@V?$_Tmap_traits@HPAVTUnionInfo@@U?$less@H@std@@V?$allocator@U?$pair@$$CBHPAVTUnionInfo@@@std@@@3@$0A@@std@@@std@@QAE?AV?$_Tree_iterator@V?$_Tree_val@V?$_Tmap_traits@HPAVTUnionInfo@@U?$less@H@std@@V?$allocator@U?$pair@$$CBHPAVTUnionInfo@@@std@@@3@$0A@@std@@@std@@@2@ABH@Z ENDP ; std::_Tree<std::_Tmap_traits<int,TUnionInfo *,std::less<int>,std::allocator<std::pair<int const ,TUnionInfo *> >,0> >::lower_bound
_TEXT	ENDS
PUBLIC	?equal_range@?$_Tree@V?$_Tmap_traits@HPAVTUnionInfo@@U?$less@H@std@@V?$allocator@U?$pair@$$CBHPAVTUnionInfo@@@std@@@3@$0A@@std@@@std@@QAE?AU?$pair@V?$_Tree_iterator@V?$_Tree_val@V?$_Tmap_traits@HPAVTUnionInfo@@U?$less@H@std@@V?$allocator@U?$pair@$$CBHPAVTUnionInfo@@@std@@@3@$0A@@std@@@std@@@std@@V12@@2@ABH@Z ; std::_Tree<std::_Tmap_traits<int,TUnionInfo *,std::less<int>,std::allocator<std::pair<int const ,TUnionInfo *> >,0> >::equal_range
; Function compile flags: /Ogtp
;	COMDAT ?equal_range@?$_Tree@V?$_Tmap_traits@HPAVTUnionInfo@@U?$less@H@std@@V?$allocator@U?$pair@$$CBHPAVTUnionInfo@@@std@@@3@$0A@@std@@@std@@QAE?AU?$pair@V?$_Tree_iterator@V?$_Tree_val@V?$_Tmap_traits@HPAVTUnionInfo@@U?$less@H@std@@V?$allocator@U?$pair@$$CBHPAVTUnionInfo@@@std@@@3@$0A@@std@@@std@@@std@@V12@@2@ABH@Z
_TEXT	SEGMENT
___$ReturnUdt$ = 8					; size = 4
__Keyval$ = 12						; size = 4
?equal_range@?$_Tree@V?$_Tmap_traits@HPAVTUnionInfo@@U?$less@H@std@@V?$allocator@U?$pair@$$CBHPAVTUnionInfo@@@std@@@3@$0A@@std@@@std@@QAE?AU?$pair@V?$_Tree_iterator@V?$_Tree_val@V?$_Tmap_traits@HPAVTUnionInfo@@U?$less@H@std@@V?$allocator@U?$pair@$$CBHPAVTUnionInfo@@@std@@@3@$0A@@std@@@std@@@std@@V12@@2@ABH@Z PROC ; std::_Tree<std::_Tmap_traits<int,TUnionInfo *,std::less<int>,std::allocator<std::pair<int const ,TUnionInfo *> >,0> >::equal_range, COMDAT
; _this$ = ecx

; 1469 : 		{	// find range equivalent to _Keyval in mutable tree

  00000	55		 push	 ebp
  00001	8b ec		 mov	 ebp, esp

; 1470 : 		return (_Eqrange(_Keyval));

  00003	8b 45 0c	 mov	 eax, DWORD PTR __Keyval$[ebp]
  00006	56		 push	 esi
  00007	8b 75 08	 mov	 esi, DWORD PTR ___$ReturnUdt$[ebp]
  0000a	50		 push	 eax
  0000b	56		 push	 esi
  0000c	e8 00 00 00 00	 call	 ?_Eqrange@?$_Tree@V?$_Tmap_traits@HPAVTUnionInfo@@U?$less@H@std@@V?$allocator@U?$pair@$$CBHPAVTUnionInfo@@@std@@@3@$0A@@std@@@std@@IAE?AU?$pair@V?$_Tree_iterator@V?$_Tree_val@V?$_Tmap_traits@HPAVTUnionInfo@@U?$less@H@std@@V?$allocator@U?$pair@$$CBHPAVTUnionInfo@@@std@@@3@$0A@@std@@@std@@@std@@V12@@2@ABH@Z ; std::_Tree<std::_Tmap_traits<int,TUnionInfo *,std::less<int>,std::allocator<std::pair<int const ,TUnionInfo *> >,0> >::_Eqrange
  00011	8b c6		 mov	 eax, esi
  00013	5e		 pop	 esi

; 1471 : 		}

  00014	5d		 pop	 ebp
  00015	c2 08 00	 ret	 8
?equal_range@?$_Tree@V?$_Tmap_traits@HPAVTUnionInfo@@U?$less@H@std@@V?$allocator@U?$pair@$$CBHPAVTUnionInfo@@@std@@@3@$0A@@std@@@std@@QAE?AU?$pair@V?$_Tree_iterator@V?$_Tree_val@V?$_Tmap_traits@HPAVTUnionInfo@@U?$less@H@std@@V?$allocator@U?$pair@$$CBHPAVTUnionInfo@@@std@@@3@$0A@@std@@@std@@@std@@V12@@2@ABH@Z ENDP ; std::_Tree<std::_Tmap_traits<int,TUnionInfo *,std::less<int>,std::allocator<std::pair<int const ,TUnionInfo *> >,0> >::equal_range
_TEXT	ENDS
PUBLIC	?_Tidy@?$_Tree@V?$_Tmap_traits@HPAVTUnionInfo@@U?$less@H@std@@V?$allocator@U?$pair@$$CBHPAVTUnionInfo@@@std@@@3@$0A@@std@@@std@@IAEXXZ ; std::_Tree<std::_Tmap_traits<int,TUnionInfo *,std::less<int>,std::allocator<std::pair<int const ,TUnionInfo *> >,0> >::_Tidy
; Function compile flags: /Ogtp
;	COMDAT ?_Tidy@?$_Tree@V?$_Tmap_traits@HPAVTUnionInfo@@U?$less@H@std@@V?$allocator@U?$pair@$$CBHPAVTUnionInfo@@@std@@@3@$0A@@std@@@std@@IAEXXZ
_TEXT	SEGMENT
$T161499 = -4						; size = 4
?_Tidy@?$_Tree@V?$_Tmap_traits@HPAVTUnionInfo@@U?$less@H@std@@V?$allocator@U?$pair@$$CBHPAVTUnionInfo@@@std@@@3@$0A@@std@@@std@@IAEXXZ PROC ; std::_Tree<std::_Tmap_traits<int,TUnionInfo *,std::less<int>,std::allocator<std::pair<int const ,TUnionInfo *> >,0> >::_Tidy, COMDAT
; _this$ = ecx

; 1865 : 		{	// free all storage

  00000	55		 push	 ebp
  00001	8b ec		 mov	 ebp, esp
  00003	51		 push	 ecx

; 1866 : 		erase(begin(), end());

  00004	8b 41 04	 mov	 eax, DWORD PTR [ecx+4]
  00007	8b 10		 mov	 edx, DWORD PTR [eax]
  00009	50		 push	 eax
  0000a	52		 push	 edx
  0000b	8d 45 fc	 lea	 eax, DWORD PTR $T161499[ebp]
  0000e	50		 push	 eax
  0000f	e8 00 00 00 00	 call	 ?erase@?$_Tree@V?$_Tmap_traits@HPAVTUnionInfo@@U?$less@H@std@@V?$allocator@U?$pair@$$CBHPAVTUnionInfo@@@std@@@3@$0A@@std@@@std@@QAE?AV?$_Tree_iterator@V?$_Tree_val@V?$_Tmap_traits@HPAVTUnionInfo@@U?$less@H@std@@V?$allocator@U?$pair@$$CBHPAVTUnionInfo@@@std@@@3@$0A@@std@@@std@@@2@V?$_Tree_const_iterator@V?$_Tree_val@V?$_Tmap_traits@HPAVTUnionInfo@@U?$less@H@std@@V?$allocator@U?$pair@$$CBHPAVTUnionInfo@@@std@@@3@$0A@@std@@@std@@@2@0@Z ; std::_Tree<std::_Tmap_traits<int,TUnionInfo *,std::less<int>,std::allocator<std::pair<int const ,TUnionInfo *> >,0> >::erase

; 1867 : 		}

  00014	8b e5		 mov	 esp, ebp
  00016	5d		 pop	 ebp
  00017	c3		 ret	 0
?_Tidy@?$_Tree@V?$_Tmap_traits@HPAVTUnionInfo@@U?$less@H@std@@V?$allocator@U?$pair@$$CBHPAVTUnionInfo@@@std@@@3@$0A@@std@@@std@@IAEXXZ ENDP ; std::_Tree<std::_Tmap_traits<int,TUnionInfo *,std::less<int>,std::allocator<std::pair<int const ,TUnionInfo *> >,0> >::_Tidy
_TEXT	ENDS
PUBLIC	??$_Distance@V?$_Tree_iterator@V?$_Tree_val@V?$_Tmap_traits@HPAVTUnionInfo@@U?$less@H@std@@V?$allocator@U?$pair@$$CBHPAVTUnionInfo@@@std@@@3@$0A@@std@@@std@@@std@@I@std@@YAXV?$_Tree_iterator@V?$_Tree_val@V?$_Tmap_traits@HPAVTUnionInfo@@U?$less@H@std@@V?$allocator@U?$pair@$$CBHPAVTUnionInfo@@@std@@@3@$0A@@std@@@std@@@0@0AAI@Z ; std::_Distance<std::_Tree_iterator<std::_Tree_val<std::_Tmap_traits<int,TUnionInfo *,std::less<int>,std::allocator<std::pair<int const ,TUnionInfo *> >,0> > >,unsigned int>
; Function compile flags: /Ogtp
; File c:\program files (x86)\microsoft visual studio 10.0\vc\include\xutility
;	COMDAT ??$_Distance@V?$_Tree_iterator@V?$_Tree_val@V?$_Tmap_traits@HPAVTUnionInfo@@U?$less@H@std@@V?$allocator@U?$pair@$$CBHPAVTUnionInfo@@@std@@@3@$0A@@std@@@std@@@std@@I@std@@YAXV?$_Tree_iterator@V?$_Tree_val@V?$_Tmap_traits@HPAVTUnionInfo@@U?$less@H@std@@V?$allocator@U?$pair@$$CBHPAVTUnionInfo@@@std@@@3@$0A@@std@@@std@@@0@0AAI@Z
_TEXT	SEGMENT
$T161587 = -4						; size = 1
__First$ = 8						; size = 4
__Last$ = 12						; size = 4
__Off$ = 16						; size = 4
??$_Distance@V?$_Tree_iterator@V?$_Tree_val@V?$_Tmap_traits@HPAVTUnionInfo@@U?$less@H@std@@V?$allocator@U?$pair@$$CBHPAVTUnionInfo@@@std@@@3@$0A@@std@@@std@@@std@@I@std@@YAXV?$_Tree_iterator@V?$_Tree_val@V?$_Tmap_traits@HPAVTUnionInfo@@U?$less@H@std@@V?$allocator@U?$pair@$$CBHPAVTUnionInfo@@@std@@@3@$0A@@std@@@std@@@0@0AAI@Z PROC ; std::_Distance<std::_Tree_iterator<std::_Tree_val<std::_Tmap_traits<int,TUnionInfo *,std::less<int>,std::allocator<std::pair<int const ,TUnionInfo *> >,0> > >,unsigned int>, COMDAT

; 909  : 	{	// add to _Off distance between iterators

  00000	55		 push	 ebp
  00001	8b ec		 mov	 ebp, esp
  00003	51		 push	 ecx

; 910  : 	_Distance2(_First, _Last, _Off, _Iter_cat(_First));

  00004	8b 45 fc	 mov	 eax, DWORD PTR $T161587[ebp]
  00007	8b 4d 10	 mov	 ecx, DWORD PTR __Off$[ebp]
  0000a	8b 55 0c	 mov	 edx, DWORD PTR __Last$[ebp]
  0000d	50		 push	 eax
  0000e	8b 45 08	 mov	 eax, DWORD PTR __First$[ebp]
  00011	51		 push	 ecx
  00012	52		 push	 edx
  00013	50		 push	 eax
  00014	e8 00 00 00 00	 call	 ??$_Distance2@V?$_Tree_iterator@V?$_Tree_val@V?$_Tmap_traits@HPAVTUnionInfo@@U?$less@H@std@@V?$allocator@U?$pair@$$CBHPAVTUnionInfo@@@std@@@3@$0A@@std@@@std@@@std@@I@std@@YAXV?$_Tree_iterator@V?$_Tree_val@V?$_Tmap_traits@HPAVTUnionInfo@@U?$less@H@std@@V?$allocator@U?$pair@$$CBHPAVTUnionInfo@@@std@@@3@$0A@@std@@@std@@@0@0AAIUbidirectional_iterator_tag@0@@Z ; std::_Distance2<std::_Tree_iterator<std::_Tree_val<std::_Tmap_traits<int,TUnionInfo *,std::less<int>,std::allocator<std::pair<int const ,TUnionInfo *> >,0> > >,unsigned int>
  00019	83 c4 10	 add	 esp, 16			; 00000010H

; 911  : 	}

  0001c	8b e5		 mov	 esp, ebp
  0001e	5d		 pop	 ebp
  0001f	c3		 ret	 0
??$_Distance@V?$_Tree_iterator@V?$_Tree_val@V?$_Tmap_traits@HPAVTUnionInfo@@U?$less@H@std@@V?$allocator@U?$pair@$$CBHPAVTUnionInfo@@@std@@@3@$0A@@std@@@std@@@std@@I@std@@YAXV?$_Tree_iterator@V?$_Tree_val@V?$_Tmap_traits@HPAVTUnionInfo@@U?$less@H@std@@V?$allocator@U?$pair@$$CBHPAVTUnionInfo@@@std@@@3@$0A@@std@@@std@@@0@0AAI@Z ENDP ; std::_Distance<std::_Tree_iterator<std::_Tree_val<std::_Tmap_traits<int,TUnionInfo *,std::less<int>,std::allocator<std::pair<int const ,TUnionInfo *> >,0> > >,unsigned int>
_TEXT	ENDS
PUBLIC	?_Linsert@?$_Tree@V?$_Tmap_traits@HPAVTUnionInfo@@U?$less@H@std@@V?$allocator@U?$pair@$$CBHPAVTUnionInfo@@@std@@@3@$0A@@std@@@std@@QAE?AU?$pair@V?$_Tree_iterator@V?$_Tree_val@V?$_Tmap_traits@HPAVTUnionInfo@@U?$less@H@std@@V?$allocator@U?$pair@$$CBHPAVTUnionInfo@@@std@@@3@$0A@@std@@@std@@@std@@_N@2@PAU_Node@?$_Tree_nod@V?$_Tmap_traits@HPAVTUnionInfo@@U?$less@H@std@@V?$allocator@U?$pair@$$CBHPAVTUnionInfo@@@std@@@3@$0A@@std@@@2@_N@Z ; std::_Tree<std::_Tmap_traits<int,TUnionInfo *,std::less<int>,std::allocator<std::pair<int const ,TUnionInfo *> >,0> >::_Linsert
; Function compile flags: /Ogtp
; File c:\program files (x86)\microsoft visual studio 10.0\vc\include\xtree
;	COMDAT ?_Linsert@?$_Tree@V?$_Tmap_traits@HPAVTUnionInfo@@U?$less@H@std@@V?$allocator@U?$pair@$$CBHPAVTUnionInfo@@@std@@@3@$0A@@std@@@std@@QAE?AU?$pair@V?$_Tree_iterator@V?$_Tree_val@V?$_Tmap_traits@HPAVTUnionInfo@@U?$less@H@std@@V?$allocator@U?$pair@$$CBHPAVTUnionInfo@@@std@@@3@$0A@@std@@@std@@@std@@_N@2@PAU_Node@?$_Tree_nod@V?$_Tmap_traits@HPAVTUnionInfo@@U?$less@H@std@@V?$allocator@U?$pair@$$CBHPAVTUnionInfo@@@std@@@3@$0A@@std@@@2@_N@Z
_TEXT	SEGMENT
__Addleft$ = -4						; size = 1
___$ReturnUdt$ = 8					; size = 4
__Node$ = 12						; size = 4
$T161602 = 16						; size = 4
$T161600 = 16						; size = 4
__Where$157307 = 16					; size = 4
__Leftish$ = 16						; size = 1
?_Linsert@?$_Tree@V?$_Tmap_traits@HPAVTUnionInfo@@U?$less@H@std@@V?$allocator@U?$pair@$$CBHPAVTUnionInfo@@@std@@@3@$0A@@std@@@std@@QAE?AU?$pair@V?$_Tree_iterator@V?$_Tree_val@V?$_Tmap_traits@HPAVTUnionInfo@@U?$less@H@std@@V?$allocator@U?$pair@$$CBHPAVTUnionInfo@@@std@@@3@$0A@@std@@@std@@@std@@_N@2@PAU_Node@?$_Tree_nod@V?$_Tmap_traits@HPAVTUnionInfo@@U?$less@H@std@@V?$allocator@U?$pair@$$CBHPAVTUnionInfo@@@std@@@3@$0A@@std@@@2@_N@Z PROC ; std::_Tree<std::_Tmap_traits<int,TUnionInfo *,std::less<int>,std::allocator<std::pair<int const ,TUnionInfo *> >,0> >::_Linsert, COMDAT
; _this$ = ecx

; 944  : 		{	// try to insert node at _Node, on left if _Leftish

  00000	55		 push	 ebp
  00001	8b ec		 mov	 ebp, esp
  00003	51		 push	 ecx

; 945  : 		const value_type& _Val = this->_Myval(_Node);
; 946  : 
; 947  : 		_Nodeptr _Trynode = _Root();
; 948  : 		_Nodeptr _Wherenode = this->_Myhead;
; 949  : 		bool _Addleft = true;	// add to left of head if tree empty
; 950  : 		while (!this->_Isnil(_Trynode))

  00004	8b 55 0c	 mov	 edx, DWORD PTR __Node$[ebp]
  00007	53		 push	 ebx
  00008	8b d9		 mov	 ebx, ecx
  0000a	8b 4b 04	 mov	 ecx, DWORD PTR [ebx+4]
  0000d	8b 41 04	 mov	 eax, DWORD PTR [ecx+4]
  00010	80 78 15 00	 cmp	 BYTE PTR [eax+21], 0
  00014	56		 push	 esi
  00015	8b f1		 mov	 esi, ecx
  00017	b1 01		 mov	 cl, 1
  00019	57		 push	 edi
  0001a	88 4d fc	 mov	 BYTE PTR __Addleft$[ebp], cl
  0001d	75 2d		 jne	 SHORT $LN11@Linsert
  0001f	8b 7a 0c	 mov	 edi, DWORD PTR [edx+12]
$LL12@Linsert:

; 951  : 			{	// look for leaf to insert before (_Addleft) or after
; 952  : 			_Wherenode = _Trynode;
; 953  : 			if (_Leftish)

  00022	80 7d 10 00	 cmp	 BYTE PTR __Leftish$[ebp], 0
  00026	8b f0		 mov	 esi, eax
  00028	74 08		 je	 SHORT $LN10@Linsert

; 954  : 				_Addleft = !_DEBUG_LT_PRED(this->comp,

  0002a	39 78 0c	 cmp	 DWORD PTR [eax+12], edi
  0002d	0f 9d c1	 setge	 cl

; 955  : 					this->_Key(_Trynode),
; 956  : 					this->_Kfn(_Val));	// favor left end
; 957  : 			else

  00030	eb 06		 jmp	 SHORT $LN146@Linsert
$LN10@Linsert:

; 958  : 				_Addleft = _DEBUG_LT_PRED(this->comp,

  00032	3b 78 0c	 cmp	 edi, DWORD PTR [eax+12]
  00035	0f 9c c1	 setl	 cl
$LN146@Linsert:
  00038	88 4d fc	 mov	 BYTE PTR __Addleft$[ebp], cl

; 959  : 					this->_Kfn(_Val),
; 960  : 					this->_Key(_Trynode));	// favor right end
; 961  : 			_Trynode = _Addleft ? this->_Left(_Trynode)
; 962  : 				: this->_Right(_Trynode);

  0003b	84 c9		 test	 cl, cl
  0003d	74 04		 je	 SHORT $LN15@Linsert
  0003f	8b 00		 mov	 eax, DWORD PTR [eax]
  00041	eb 03		 jmp	 SHORT $LN16@Linsert
$LN15@Linsert:
  00043	8b 40 08	 mov	 eax, DWORD PTR [eax+8]
$LN16@Linsert:

; 945  : 		const value_type& _Val = this->_Myval(_Node);
; 946  : 
; 947  : 		_Nodeptr _Trynode = _Root();
; 948  : 		_Nodeptr _Wherenode = this->_Myhead;
; 949  : 		bool _Addleft = true;	// add to left of head if tree empty
; 950  : 		while (!this->_Isnil(_Trynode))

  00046	80 78 15 00	 cmp	 BYTE PTR [eax+21], 0
  0004a	74 d6		 je	 SHORT $LL12@Linsert
$LN11@Linsert:

; 963  : 			}
; 964  : 
; 965  : 		if (this->_Multi)
; 966  : 			return (_Pairib(_Insert(_Addleft, _Wherenode, _Node), true));
; 967  : 		else
; 968  : 			{	// insert only if unique
; 969  : 			iterator _Where = iterator(_Wherenode, this);

  0004c	8b fe		 mov	 edi, esi
  0004e	89 7d 10	 mov	 DWORD PTR __Where$157307[ebp], edi

; 970  : 			if (!_Addleft)

  00051	84 c9		 test	 cl, cl
  00053	74 35		 je	 SHORT $LN99@Linsert

; 971  : 				;	// need to test if insert after is okay
; 972  : 			else if (_Where == begin())

  00055	8b 43 04	 mov	 eax, DWORD PTR [ebx+4]

; 973  : 				return (_Pairib(_Insert(true, _Wherenode, _Node), true));

  00058	8d 4d 10	 lea	 ecx, DWORD PTR $T161600[ebp]
  0005b	3b 30		 cmp	 esi, DWORD PTR [eax]
  0005d	75 20		 jne	 SHORT $LN4@Linsert
  0005f	52		 push	 edx
  00060	56		 push	 esi
  00061	6a 01		 push	 1
  00063	51		 push	 ecx
  00064	8b cb		 mov	 ecx, ebx
  00066	e8 00 00 00 00	 call	 ?_Insert@?$_Tree@V?$_Tmap_traits@HPAVTUnionInfo@@U?$less@H@std@@V?$allocator@U?$pair@$$CBHPAVTUnionInfo@@@std@@@3@$0A@@std@@@std@@IAE?AV?$_Tree_iterator@V?$_Tree_val@V?$_Tmap_traits@HPAVTUnionInfo@@U?$less@H@std@@V?$allocator@U?$pair@$$CBHPAVTUnionInfo@@@std@@@3@$0A@@std@@@std@@@2@_NPAU_Node@?$_Tree_nod@V?$_Tmap_traits@HPAVTUnionInfo@@U?$less@H@std@@V?$allocator@U?$pair@$$CBHPAVTUnionInfo@@@std@@@3@$0A@@std@@@2@1@Z ; std::_Tree<std::_Tmap_traits<int,TUnionInfo *,std::less<int>,std::allocator<std::pair<int const ,TUnionInfo *> >,0> >::_Insert
  0006b	8b 10		 mov	 edx, DWORD PTR [eax]
  0006d	8b 45 08	 mov	 eax, DWORD PTR ___$ReturnUdt$[ebp]
  00070	5f		 pop	 edi
  00071	5e		 pop	 esi
  00072	89 10		 mov	 DWORD PTR [eax], edx
  00074	c6 40 04 01	 mov	 BYTE PTR [eax+4], 1
  00078	5b		 pop	 ebx

; 989  : 				}
; 990  : 			}
; 991  : 		}

  00079	8b e5		 mov	 esp, ebp
  0007b	5d		 pop	 ebp
  0007c	c2 0c 00	 ret	 12			; 0000000cH
$LN4@Linsert:

; 974  : 			else
; 975  : 				--_Where;	// need to test if insert before is okay

  0007f	e8 00 00 00 00	 call	 ??F?$_Tree_unchecked_const_iterator@V?$_Tree_val@V?$_Tmap_traits@HPAVTUnionInfo@@U?$less@H@std@@V?$allocator@U?$pair@$$CBHPAVTUnionInfo@@@std@@@3@$0A@@std@@@std@@U_Iterator_base0@2@@std@@QAEAAV01@XZ ; std::_Tree_unchecked_const_iterator<std::_Tree_val<std::_Tmap_traits<int,TUnionInfo *,std::less<int>,std::allocator<std::pair<int const ,TUnionInfo *> >,0> >,std::_Iterator_base0>::operator--
  00084	8b 7d 10	 mov	 edi, DWORD PTR __Where$157307[ebp]
  00087	8b 55 0c	 mov	 edx, DWORD PTR __Node$[ebp]
$LN99@Linsert:

; 976  : 
; 977  : 			if (_DEBUG_LT_PRED(this->comp,

  0008a	8b 47 0c	 mov	 eax, DWORD PTR [edi+12]

; 978  : 				this->_Key(_Where._Mynode()),
; 979  : 				this->_Kfn(_Val)))
; 980  : 				return (_Pairib(_Insert(_Addleft, _Wherenode, _Node), true));

  0008d	52		 push	 edx
  0008e	3b 42 0c	 cmp	 eax, DWORD PTR [edx+12]
  00091	7d 24		 jge	 SHORT $LN2@Linsert
  00093	8b 4d fc	 mov	 ecx, DWORD PTR __Addleft$[ebp]
  00096	56		 push	 esi
  00097	51		 push	 ecx
  00098	8d 55 10	 lea	 edx, DWORD PTR $T161602[ebp]
  0009b	52		 push	 edx
  0009c	8b cb		 mov	 ecx, ebx
  0009e	e8 00 00 00 00	 call	 ?_Insert@?$_Tree@V?$_Tmap_traits@HPAVTUnionInfo@@U?$less@H@std@@V?$allocator@U?$pair@$$CBHPAVTUnionInfo@@@std@@@3@$0A@@std@@@std@@IAE?AV?$_Tree_iterator@V?$_Tree_val@V?$_Tmap_traits@HPAVTUnionInfo@@U?$less@H@std@@V?$allocator@U?$pair@$$CBHPAVTUnionInfo@@@std@@@3@$0A@@std@@@std@@@2@_NPAU_Node@?$_Tree_nod@V?$_Tmap_traits@HPAVTUnionInfo@@U?$less@H@std@@V?$allocator@U?$pair@$$CBHPAVTUnionInfo@@@std@@@3@$0A@@std@@@2@1@Z ; std::_Tree<std::_Tmap_traits<int,TUnionInfo *,std::less<int>,std::allocator<std::pair<int const ,TUnionInfo *> >,0> >::_Insert
  000a3	8b 08		 mov	 ecx, DWORD PTR [eax]
  000a5	8b 45 08	 mov	 eax, DWORD PTR ___$ReturnUdt$[ebp]
  000a8	5f		 pop	 edi
  000a9	5e		 pop	 esi
  000aa	89 08		 mov	 DWORD PTR [eax], ecx
  000ac	c6 40 04 01	 mov	 BYTE PTR [eax+4], 1
  000b0	5b		 pop	 ebx

; 989  : 				}
; 990  : 			}
; 991  : 		}

  000b1	8b e5		 mov	 esp, ebp
  000b3	5d		 pop	 ebp
  000b4	c2 0c 00	 ret	 12			; 0000000cH
$LN2@Linsert:

; 981  : 			else
; 982  : 				{	// duplicate, don't insert
; 983  : 				_Dest_val(this->_Alval,
; 984  : 					_STD addressof(this->_Myval(_Node)));
; 985  : 
; 986  : 				this->_Alnod.deallocate(_Node, 1);

  000b7	e8 00 00 00 00	 call	 ??3@YAXPAX@Z		; operator delete

; 987  : 
; 988  : 				return (_Pairib(_Where, false));

  000bc	8b 45 08	 mov	 eax, DWORD PTR ___$ReturnUdt$[ebp]
  000bf	83 c4 04	 add	 esp, 4
  000c2	89 38		 mov	 DWORD PTR [eax], edi
  000c4	5f		 pop	 edi
  000c5	5e		 pop	 esi
  000c6	c6 40 04 00	 mov	 BYTE PTR [eax+4], 0
  000ca	5b		 pop	 ebx

; 989  : 				}
; 990  : 			}
; 991  : 		}

  000cb	8b e5		 mov	 esp, ebp
  000cd	5d		 pop	 ebp
  000ce	c2 0c 00	 ret	 12			; 0000000cH
?_Linsert@?$_Tree@V?$_Tmap_traits@HPAVTUnionInfo@@U?$less@H@std@@V?$allocator@U?$pair@$$CBHPAVTUnionInfo@@@std@@@3@$0A@@std@@@std@@QAE?AU?$pair@V?$_Tree_iterator@V?$_Tree_val@V?$_Tmap_traits@HPAVTUnionInfo@@U?$less@H@std@@V?$allocator@U?$pair@$$CBHPAVTUnionInfo@@@std@@@3@$0A@@std@@@std@@@std@@_N@2@PAU_Node@?$_Tree_nod@V?$_Tmap_traits@HPAVTUnionInfo@@U?$less@H@std@@V?$allocator@U?$pair@$$CBHPAVTUnionInfo@@@std@@@3@$0A@@std@@@2@_N@Z ENDP ; std::_Tree<std::_Tmap_traits<int,TUnionInfo *,std::less<int>,std::allocator<std::pair<int const ,TUnionInfo *> >,0> >::_Linsert
_TEXT	ENDS
PUBLIC	??$_Cons_val@V?$allocator@U?$pair@$$CBHPAVTUnionInfo@@@std@@@std@@U?$pair@$$CBHPAVTUnionInfo@@@2@U32@@std@@YAXAAV?$allocator@U?$pair@$$CBHPAVTUnionInfo@@@std@@@0@PAU?$pair@$$CBHPAVTUnionInfo@@@0@$$QAU20@@Z ; std::_Cons_val<std::allocator<std::pair<int const ,TUnionInfo *> >,std::pair<int const ,TUnionInfo *>,std::pair<int const ,TUnionInfo *> >
; Function compile flags: /Ogtp
; File c:\program files (x86)\microsoft visual studio 10.0\vc\include\xmemory
;	COMDAT ??$_Cons_val@V?$allocator@U?$pair@$$CBHPAVTUnionInfo@@@std@@@std@@U?$pair@$$CBHPAVTUnionInfo@@@2@U32@@std@@YAXAAV?$allocator@U?$pair@$$CBHPAVTUnionInfo@@@std@@@0@PAU?$pair@$$CBHPAVTUnionInfo@@@0@$$QAU20@@Z
_TEXT	SEGMENT
__Alval$ = 8						; size = 4
__Pdest$ = 12						; size = 4
__Src$ = 16						; size = 4
??$_Cons_val@V?$allocator@U?$pair@$$CBHPAVTUnionInfo@@@std@@@std@@U?$pair@$$CBHPAVTUnionInfo@@@2@U32@@std@@YAXAAV?$allocator@U?$pair@$$CBHPAVTUnionInfo@@@std@@@0@PAU?$pair@$$CBHPAVTUnionInfo@@@0@$$QAU20@@Z PROC ; std::_Cons_val<std::allocator<std::pair<int const ,TUnionInfo *> >,std::pair<int const ,TUnionInfo *>,std::pair<int const ,TUnionInfo *> >, COMDAT

; 279  : 	{	// construct using allocator

  00000	55		 push	 ebp
  00001	8b ec		 mov	 ebp, esp

; 280  : 	_Alval.construct(_Pdest, _STD forward<_Ty2>(_Src));

  00003	8b 45 0c	 mov	 eax, DWORD PTR __Pdest$[ebp]
  00006	85 c0		 test	 eax, eax
  00008	74 0d		 je	 SHORT $LN7@Cons_val@3
  0000a	8b 4d 10	 mov	 ecx, DWORD PTR __Src$[ebp]
  0000d	8b 11		 mov	 edx, DWORD PTR [ecx]
  0000f	89 10		 mov	 DWORD PTR [eax], edx
  00011	8b 49 04	 mov	 ecx, DWORD PTR [ecx+4]
  00014	89 48 04	 mov	 DWORD PTR [eax+4], ecx
$LN7@Cons_val@3:

; 281  : 	}

  00017	5d		 pop	 ebp
  00018	c3		 ret	 0
??$_Cons_val@V?$allocator@U?$pair@$$CBHPAVTUnionInfo@@@std@@@std@@U?$pair@$$CBHPAVTUnionInfo@@@2@U32@@std@@YAXAAV?$allocator@U?$pair@$$CBHPAVTUnionInfo@@@std@@@0@PAU?$pair@$$CBHPAVTUnionInfo@@@0@$$QAU20@@Z ENDP ; std::_Cons_val<std::allocator<std::pair<int const ,TUnionInfo *> >,std::pair<int const ,TUnionInfo *>,std::pair<int const ,TUnionInfo *> >
_TEXT	ENDS
PUBLIC	?DelAllUnion@TUnion@@QAEHXZ			; TUnion::DelAllUnion
EXTRN	?Unlock@TSync@@QAEXXZ:PROC			; TSync::Unlock
EXTRN	?Lock@TSync@@QAEXXZ:PROC			; TSync::Lock
; Function compile flags: /Ogtp
; File c:\muserver_dev\development\mu-s8ep2-repack\gameserver\source\tunion.cpp
;	COMDAT ?DelAllUnion@TUnion@@QAEHXZ
_TEXT	SEGMENT
tv384 = -4						; size = 4
?DelAllUnion@TUnion@@QAEHXZ PROC			; TUnion::DelAllUnion, COMDAT
; _this$ = ecx

; 23   : {

  00000	55		 push	 ebp
  00001	8b ec		 mov	 ebp, esp
  00003	51		 push	 ecx
  00004	53		 push	 ebx
  00005	56		 push	 esi
  00006	57		 push	 edi
  00007	8b f9		 mov	 edi, ecx

; 24   : 	this->m_Sync.Lock();

  00009	8d 4f 14	 lea	 ecx, DWORD PTR [edi+20]
  0000c	89 4d fc	 mov	 DWORD PTR tv384[ebp], ecx
  0000f	e8 00 00 00 00	 call	 ?Lock@TSync@@QAEXXZ	; TSync::Lock

; 25   : 	std::map<int, TUnionInfo*>::iterator _PosItor;
; 26   : 		
; 27   : 	
; 28   : 	for ( _PosItor = this->m_mpUnion.begin() ; _PosItor != this->m_mpUnion.end() ; ++_PosItor )

  00014	8b 47 08	 mov	 eax, DWORD PTR [edi+8]
  00017	8b 30		 mov	 esi, DWORD PTR [eax]
  00019	3b f0		 cmp	 esi, eax
  0001b	74 5a		 je	 SHORT $LN1@DelAllUnio
  0001d	8d 49 00	 npad	 3
$LL34@DelAllUnio:

; 29   : 	{
; 30   : 		delete _PosItor->second;

  00020	8b 4e 10	 mov	 ecx, DWORD PTR [esi+16]
  00023	85 c9		 test	 ecx, ecx
  00025	74 08		 je	 SHORT $LN2@DelAllUnio
  00027	8b 01		 mov	 eax, DWORD PTR [ecx]
  00029	8b 10		 mov	 edx, DWORD PTR [eax]
  0002b	6a 01		 push	 1
  0002d	ff d2		 call	 edx
$LN2@DelAllUnio:

; 25   : 	std::map<int, TUnionInfo*>::iterator _PosItor;
; 26   : 		
; 27   : 	
; 28   : 	for ( _PosItor = this->m_mpUnion.begin() ; _PosItor != this->m_mpUnion.end() ; ++_PosItor )

  0002f	80 7e 15 00	 cmp	 BYTE PTR [esi+21], 0
  00033	75 3d		 jne	 SHORT $LN127@DelAllUnio
  00035	8b 46 08	 mov	 eax, DWORD PTR [esi+8]
  00038	80 78 15 00	 cmp	 BYTE PTR [eax+21], 0
  0003c	75 16		 jne	 SHORT $LN123@DelAllUnio
  0003e	8b f0		 mov	 esi, eax
  00040	8b 06		 mov	 eax, DWORD PTR [esi]
  00042	80 78 15 00	 cmp	 BYTE PTR [eax+21], 0
  00046	75 2a		 jne	 SHORT $LN127@DelAllUnio
$LL49@DelAllUnio:
  00048	8b f0		 mov	 esi, eax
  0004a	8b 06		 mov	 eax, DWORD PTR [esi]
  0004c	80 78 15 00	 cmp	 BYTE PTR [eax+21], 0
  00050	74 f6		 je	 SHORT $LL49@DelAllUnio
  00052	eb 1e		 jmp	 SHORT $LN127@DelAllUnio
$LN123@DelAllUnio:
  00054	8b 46 04	 mov	 eax, DWORD PTR [esi+4]
  00057	80 78 15 00	 cmp	 BYTE PTR [eax+21], 0
  0005b	75 13		 jne	 SHORT $LN32@DelAllUnio
  0005d	8d 49 00	 npad	 3
$LL33@DelAllUnio:
  00060	3b 70 08	 cmp	 esi, DWORD PTR [eax+8]
  00063	75 0b		 jne	 SHORT $LN32@DelAllUnio
  00065	8b f0		 mov	 esi, eax
  00067	8b 40 04	 mov	 eax, DWORD PTR [eax+4]
  0006a	80 78 15 00	 cmp	 BYTE PTR [eax+21], 0
  0006e	74 f0		 je	 SHORT $LL33@DelAllUnio
$LN32@DelAllUnio:
  00070	8b f0		 mov	 esi, eax
$LN127@DelAllUnio:
  00072	3b 77 08	 cmp	 esi, DWORD PTR [edi+8]
  00075	75 a9		 jne	 SHORT $LL34@DelAllUnio
$LN1@DelAllUnio:

; 31   : 	}
; 32   : 
; 33   : 	this->m_mpUnion.clear();

  00077	8b 47 08	 mov	 eax, DWORD PTR [edi+8]
  0007a	8b 58 04	 mov	 ebx, DWORD PTR [eax+4]
  0007d	80 7b 15 00	 cmp	 BYTE PTR [ebx+21], 0
  00081	8b f3		 mov	 esi, ebx
  00083	75 1f		 jne	 SHORT $LN92@DelAllUnio
$LL94@DelAllUnio:
  00085	8b 4e 08	 mov	 ecx, DWORD PTR [esi+8]
  00088	51		 push	 ecx
  00089	8d 4f 04	 lea	 ecx, DWORD PTR [edi+4]
  0008c	e8 00 00 00 00	 call	 ?_Erase@?$_Tree@V?$_Tmap_traits@HPAVTUnionInfo@@U?$less@H@std@@V?$allocator@U?$pair@$$CBHPAVTUnionInfo@@@std@@@3@$0A@@std@@@std@@IAEXPAU_Node@?$_Tree_nod@V?$_Tmap_traits@HPAVTUnionInfo@@U?$less@H@std@@V?$allocator@U?$pair@$$CBHPAVTUnionInfo@@@std@@@3@$0A@@std@@@2@@Z ; std::_Tree<std::_Tmap_traits<int,TUnionInfo *,std::less<int>,std::allocator<std::pair<int const ,TUnionInfo *> >,0> >::_Erase
  00091	8b 36		 mov	 esi, DWORD PTR [esi]
  00093	53		 push	 ebx
  00094	e8 00 00 00 00	 call	 ??3@YAXPAX@Z		; operator delete
  00099	83 c4 04	 add	 esp, 4
  0009c	80 7e 15 00	 cmp	 BYTE PTR [esi+21], 0
  000a0	8b de		 mov	 ebx, esi
  000a2	74 e1		 je	 SHORT $LL94@DelAllUnio
$LN92@DelAllUnio:
  000a4	8b 47 08	 mov	 eax, DWORD PTR [edi+8]

; 34   : 	this->m_Sync.Unlock();

  000a7	8b 4d fc	 mov	 ecx, DWORD PTR tv384[ebp]
  000aa	89 40 04	 mov	 DWORD PTR [eax+4], eax
  000ad	8b 47 08	 mov	 eax, DWORD PTR [edi+8]
  000b0	89 00		 mov	 DWORD PTR [eax], eax
  000b2	8b 47 08	 mov	 eax, DWORD PTR [edi+8]
  000b5	89 40 08	 mov	 DWORD PTR [eax+8], eax
  000b8	c7 47 0c 00 00
	00 00		 mov	 DWORD PTR [edi+12], 0
  000bf	e8 00 00 00 00	 call	 ?Unlock@TSync@@QAEXXZ	; TSync::Unlock
  000c4	5f		 pop	 edi
  000c5	5e		 pop	 esi

; 35   : 	return -1;

  000c6	83 c8 ff	 or	 eax, -1
  000c9	5b		 pop	 ebx

; 36   : }

  000ca	8b e5		 mov	 esp, ebp
  000cc	5d		 pop	 ebp
  000cd	c3		 ret	 0
?DelAllUnion@TUnion@@QAEHXZ ENDP			; TUnion::DelAllUnion
_TEXT	ENDS
PUBLIC	?push_back@?$vector@HV?$allocator@H@std@@@std@@QAEXABH@Z ; std::vector<int,std::allocator<int> >::push_back
; Function compile flags: /Ogtp
; File c:\program files (x86)\microsoft visual studio 10.0\vc\include\vector
;	COMDAT ?push_back@?$vector@HV?$allocator@H@std@@@std@@QAEXABH@Z
_TEXT	SEGMENT
__Val$ = 8						; size = 4
?push_back@?$vector@HV?$allocator@H@std@@@std@@QAEXABH@Z PROC ; std::vector<int,std::allocator<int> >::push_back, COMDAT
; _this$ = ecx

; 976  : 		{	// insert element at end

  00000	55		 push	 ebp
  00001	8b ec		 mov	 ebp, esp
  00003	56		 push	 esi
  00004	8b f1		 mov	 esi, ecx

; 977  : 		if (_Inside(_STD addressof(_Val)))

  00006	8b 46 04	 mov	 eax, DWORD PTR [esi+4]
  00009	57		 push	 edi
  0000a	8b 7d 08	 mov	 edi, DWORD PTR __Val$[ebp]
  0000d	3b f8		 cmp	 edi, eax
  0000f	73 39		 jae	 SHORT $LN4@push_back
  00011	8b 0e		 mov	 ecx, DWORD PTR [esi]
  00013	3b cf		 cmp	 ecx, edi
  00015	77 33		 ja	 SHORT $LN4@push_back

; 978  : 			{	// push back an element
; 979  : 			size_type _Idx = _STD addressof(_Val) - this->_Myfirst;

  00017	2b f9		 sub	 edi, ecx
  00019	c1 ff 02	 sar	 edi, 2

; 980  : 			if (this->_Mylast == this->_Myend)

  0001c	3b 46 08	 cmp	 eax, DWORD PTR [esi+8]
  0001f	75 09		 jne	 SHORT $LN3@push_back

; 981  : 				_Reserve(1);

  00021	6a 01		 push	 1
  00023	8b ce		 mov	 ecx, esi
  00025	e8 00 00 00 00	 call	 ?_Reserve@?$vector@HV?$allocator@H@std@@@std@@IAEXI@Z ; std::vector<int,std::allocator<int> >::_Reserve
$LN3@push_back:

; 982  : 			_Orphan_range(this->_Mylast, this->_Mylast);
; 983  : 			_Cons_val(this->_Alval,
; 984  : 				this->_Mylast,
; 985  : 				this->_Myfirst[_Idx]);

  0002a	8b 06		 mov	 eax, DWORD PTR [esi]
  0002c	8b 56 04	 mov	 edx, DWORD PTR [esi+4]
  0002f	8d 0c b8	 lea	 ecx, DWORD PTR [eax+edi*4]
  00032	51		 push	 ecx
  00033	52		 push	 edx
  00034	8d 46 0c	 lea	 eax, DWORD PTR [esi+12]
  00037	50		 push	 eax
  00038	e8 00 00 00 00	 call	 ??$_Cons_val@V?$allocator@H@std@@HAAH@std@@YAXAAV?$allocator@H@0@PAHAAH@Z ; std::_Cons_val<std::allocator<int>,int,int &>

; 992  : 			_Orphan_range(this->_Mylast, this->_Mylast);
; 993  : 			_Cons_val(this->_Alval,
; 994  : 				this->_Mylast,
; 995  : 				_Val);

  0003d	83 c4 0c	 add	 esp, 12			; 0000000cH

; 996  : 			++this->_Mylast;

  00040	83 46 04 04	 add	 DWORD PTR [esi+4], 4
  00044	5f		 pop	 edi
  00045	5e		 pop	 esi

; 997  : 			}
; 998  : 		}

  00046	5d		 pop	 ebp
  00047	c2 04 00	 ret	 4
$LN4@push_back:

; 986  : 			++this->_Mylast;
; 987  : 			}
; 988  : 		else
; 989  : 			{	// push back a non-element
; 990  : 			if (this->_Mylast == this->_Myend)

  0004a	3b 46 08	 cmp	 eax, DWORD PTR [esi+8]
  0004d	75 09		 jne	 SHORT $LN1@push_back

; 991  : 				_Reserve(1);

  0004f	6a 01		 push	 1
  00051	8b ce		 mov	 ecx, esi
  00053	e8 00 00 00 00	 call	 ?_Reserve@?$vector@HV?$allocator@H@std@@@std@@IAEXI@Z ; std::vector<int,std::allocator<int> >::_Reserve
$LN1@push_back:

; 992  : 			_Orphan_range(this->_Mylast, this->_Mylast);
; 993  : 			_Cons_val(this->_Alval,
; 994  : 				this->_Mylast,
; 995  : 				_Val);

  00058	8b 4e 04	 mov	 ecx, DWORD PTR [esi+4]
  0005b	57		 push	 edi
  0005c	51		 push	 ecx
  0005d	8d 56 0c	 lea	 edx, DWORD PTR [esi+12]
  00060	52		 push	 edx
  00061	e8 00 00 00 00	 call	 ??$_Cons_val@V?$allocator@H@std@@HABH@std@@YAXAAV?$allocator@H@0@PAHABH@Z ; std::_Cons_val<std::allocator<int>,int,int const &>
  00066	83 c4 0c	 add	 esp, 12			; 0000000cH

; 996  : 			++this->_Mylast;

  00069	83 46 04 04	 add	 DWORD PTR [esi+4], 4
  0006d	5f		 pop	 edi
  0006e	5e		 pop	 esi

; 997  : 			}
; 998  : 		}

  0006f	5d		 pop	 ebp
  00070	c2 04 00	 ret	 4
?push_back@?$vector@HV?$allocator@H@std@@@std@@QAEXABH@Z ENDP ; std::vector<int,std::allocator<int> >::push_back
_TEXT	ENDS
PUBLIC	??1?$_Tree@V?$_Tmap_traits@HPAVTUnionInfo@@U?$less@H@std@@V?$allocator@U?$pair@$$CBHPAVTUnionInfo@@@std@@@3@$0A@@std@@@std@@QAE@XZ ; std::_Tree<std::_Tmap_traits<int,TUnionInfo *,std::less<int>,std::allocator<std::pair<int const ,TUnionInfo *> >,0> >::~_Tree<std::_Tmap_traits<int,TUnionInfo *,std::less<int>,std::allocator<std::pair<int const ,TUnionInfo *> >,0> >
EXTRN	___security_cookie:DWORD
EXTRN	___CxxFrameHandler3:PROC
EXTRN	@__security_check_cookie@4:PROC
;	COMDAT xdata$x
; File c:\program files (x86)\microsoft visual studio 10.0\vc\include\xmemory
xdata$x	SEGMENT
__unwindtable$??1?$_Tree@V?$_Tmap_traits@HPAVTUnionInfo@@U?$less@H@std@@V?$allocator@U?$pair@$$CBHPAVTUnionInfo@@@std@@@3@$0A@@std@@@std@@QAE@XZ DD 0ffffffffH
	DD	FLAT:__unwindfunclet$??1?$_Tree@V?$_Tmap_traits@HPAVTUnionInfo@@U?$less@H@std@@V?$allocator@U?$pair@$$CBHPAVTUnionInfo@@@std@@@3@$0A@@std@@@std@@QAE@XZ$0
__ehfuncinfo$??1?$_Tree@V?$_Tmap_traits@HPAVTUnionInfo@@U?$less@H@std@@V?$allocator@U?$pair@$$CBHPAVTUnionInfo@@@std@@@3@$0A@@std@@@std@@QAE@XZ DD 019930522H
	DD	01H
	DD	FLAT:__unwindtable$??1?$_Tree@V?$_Tmap_traits@HPAVTUnionInfo@@U?$less@H@std@@V?$allocator@U?$pair@$$CBHPAVTUnionInfo@@@std@@@3@$0A@@std@@@std@@QAE@XZ
	DD	2 DUP(00H)
	DD	2 DUP(00H)
	DD	00H
	DD	01H
; Function compile flags: /Ogtp
; File c:\program files (x86)\microsoft visual studio 10.0\vc\include\xtree
xdata$x	ENDS
;	COMDAT ??1?$_Tree@V?$_Tmap_traits@HPAVTUnionInfo@@U?$less@H@std@@V?$allocator@U?$pair@$$CBHPAVTUnionInfo@@@std@@@3@$0A@@std@@@std@@QAE@XZ
_TEXT	SEGMENT
$T162511 = -20						; size = 4
_this$ = -16						; size = 4
__$EHRec$ = -12						; size = 12
??1?$_Tree@V?$_Tmap_traits@HPAVTUnionInfo@@U?$less@H@std@@V?$allocator@U?$pair@$$CBHPAVTUnionInfo@@@std@@@3@$0A@@std@@@std@@QAE@XZ PROC ; std::_Tree<std::_Tmap_traits<int,TUnionInfo *,std::less<int>,std::allocator<std::pair<int const ,TUnionInfo *> >,0> >::~_Tree<std::_Tmap_traits<int,TUnionInfo *,std::less<int>,std::allocator<std::pair<int const ,TUnionInfo *> >,0> >, COMDAT
; _this$ = ecx

; 790  : 		{	// destroy tree

  00000	55		 push	 ebp
  00001	8b ec		 mov	 ebp, esp
  00003	6a ff		 push	 -1
  00005	68 00 00 00 00	 push	 __ehhandler$??1?$_Tree@V?$_Tmap_traits@HPAVTUnionInfo@@U?$less@H@std@@V?$allocator@U?$pair@$$CBHPAVTUnionInfo@@@std@@@3@$0A@@std@@@std@@QAE@XZ
  0000a	64 a1 00 00 00
	00		 mov	 eax, DWORD PTR fs:0
  00010	50		 push	 eax
  00011	83 ec 08	 sub	 esp, 8
  00014	56		 push	 esi
  00015	a1 00 00 00 00	 mov	 eax, DWORD PTR ___security_cookie
  0001a	33 c5		 xor	 eax, ebp
  0001c	50		 push	 eax
  0001d	8d 45 f4	 lea	 eax, DWORD PTR __$EHRec$[ebp]
  00020	64 a3 00 00 00
	00		 mov	 DWORD PTR fs:0, eax
  00026	8b f1		 mov	 esi, ecx
  00028	89 75 f0	 mov	 DWORD PTR _this$[ebp], esi

; 791  : 		_Tidy();

  0002b	8b 46 04	 mov	 eax, DWORD PTR [esi+4]
  0002e	8b 08		 mov	 ecx, DWORD PTR [eax]
  00030	50		 push	 eax
  00031	51		 push	 ecx
  00032	8d 45 ec	 lea	 eax, DWORD PTR $T162511[ebp]
  00035	50		 push	 eax
  00036	8b ce		 mov	 ecx, esi
  00038	c7 45 fc 00 00
	00 00		 mov	 DWORD PTR __$EHRec$[ebp+8], 0
  0003f	e8 00 00 00 00	 call	 ?erase@?$_Tree@V?$_Tmap_traits@HPAVTUnionInfo@@U?$less@H@std@@V?$allocator@U?$pair@$$CBHPAVTUnionInfo@@@std@@@3@$0A@@std@@@std@@QAE?AV?$_Tree_iterator@V?$_Tree_val@V?$_Tmap_traits@HPAVTUnionInfo@@U?$less@H@std@@V?$allocator@U?$pair@$$CBHPAVTUnionInfo@@@std@@@3@$0A@@std@@@std@@@2@V?$_Tree_const_iterator@V?$_Tree_val@V?$_Tmap_traits@HPAVTUnionInfo@@U?$less@H@std@@V?$allocator@U?$pair@$$CBHPAVTUnionInfo@@@std@@@3@$0A@@std@@@std@@@2@0@Z ; std::_Tree<std::_Tmap_traits<int,TUnionInfo *,std::less<int>,std::allocator<std::pair<int const ,TUnionInfo *> >,0> >::erase

; 792  : 		}

  00044	8b 4e 04	 mov	 ecx, DWORD PTR [esi+4]
  00047	51		 push	 ecx
  00048	e8 00 00 00 00	 call	 ??3@YAXPAX@Z		; operator delete
  0004d	83 c4 04	 add	 esp, 4
  00050	8b 4d f4	 mov	 ecx, DWORD PTR __$EHRec$[ebp]
  00053	64 89 0d 00 00
	00 00		 mov	 DWORD PTR fs:0, ecx
  0005a	59		 pop	 ecx
  0005b	5e		 pop	 esi
  0005c	8b e5		 mov	 esp, ebp
  0005e	5d		 pop	 ebp
  0005f	c3		 ret	 0
_TEXT	ENDS
;	COMDAT text$x
text$x	SEGMENT
__unwindfunclet$??1?$_Tree@V?$_Tmap_traits@HPAVTUnionInfo@@U?$less@H@std@@V?$allocator@U?$pair@$$CBHPAVTUnionInfo@@@std@@@3@$0A@@std@@@std@@QAE@XZ$0:
  00000	8b 4d f0	 mov	 ecx, DWORD PTR _this$[ebp]
  00003	e9 00 00 00 00	 jmp	 ??1?$_Tree_val@V?$_Tmap_traits@HPAVTUnionInfo@@U?$less@H@std@@V?$allocator@U?$pair@$$CBHPAVTUnionInfo@@@std@@@3@$0A@@std@@@std@@QAE@XZ ; std::_Tree_val<std::_Tmap_traits<int,TUnionInfo *,std::less<int>,std::allocator<std::pair<int const ,TUnionInfo *> >,0> >::~_Tree_val<std::_Tmap_traits<int,TUnionInfo *,std::less<int>,std::allocator<std::pair<int const ,TUnionInfo *> >,0> >
__ehhandler$??1?$_Tree@V?$_Tmap_traits@HPAVTUnionInfo@@U?$less@H@std@@V?$allocator@U?$pair@$$CBHPAVTUnionInfo@@@std@@@3@$0A@@std@@@std@@QAE@XZ:
  00008	8b 54 24 08	 mov	 edx, DWORD PTR [esp+8]
  0000c	8d 42 0c	 lea	 eax, DWORD PTR [edx+12]
  0000f	8b 4a f0	 mov	 ecx, DWORD PTR [edx-16]
  00012	33 c8		 xor	 ecx, eax
  00014	e8 00 00 00 00	 call	 @__security_check_cookie@4
  00019	b8 00 00 00 00	 mov	 eax, OFFSET __ehfuncinfo$??1?$_Tree@V?$_Tmap_traits@HPAVTUnionInfo@@U?$less@H@std@@V?$allocator@U?$pair@$$CBHPAVTUnionInfo@@@std@@@3@$0A@@std@@@std@@QAE@XZ
  0001e	e9 00 00 00 00	 jmp	 ___CxxFrameHandler3
text$x	ENDS
??1?$_Tree@V?$_Tmap_traits@HPAVTUnionInfo@@U?$less@H@std@@V?$allocator@U?$pair@$$CBHPAVTUnionInfo@@@std@@@3@$0A@@std@@@std@@QAE@XZ ENDP ; std::_Tree<std::_Tmap_traits<int,TUnionInfo *,std::less<int>,std::allocator<std::pair<int const ,TUnionInfo *> >,0> >::~_Tree<std::_Tmap_traits<int,TUnionInfo *,std::less<int>,std::allocator<std::pair<int const ,TUnionInfo *> >,0> >
PUBLIC	?erase@?$_Tree@V?$_Tmap_traits@HPAVTUnionInfo@@U?$less@H@std@@V?$allocator@U?$pair@$$CBHPAVTUnionInfo@@@std@@@3@$0A@@std@@@std@@QAEIABH@Z ; std::_Tree<std::_Tmap_traits<int,TUnionInfo *,std::less<int>,std::allocator<std::pair<int const ,TUnionInfo *> >,0> >::erase
; Function compile flags: /Ogtp
;	COMDAT ?erase@?$_Tree@V?$_Tmap_traits@HPAVTUnionInfo@@U?$less@H@std@@V?$allocator@U?$pair@$$CBHPAVTUnionInfo@@@std@@@3@$0A@@std@@@std@@QAEIABH@Z
_TEXT	SEGMENT
__Where$ = -8						; size = 8
$T162559 = -4						; size = 4
$T162571 = 8						; size = 1
__Num$ = 8						; size = 4
__Keyval$ = 8						; size = 4
?erase@?$_Tree@V?$_Tmap_traits@HPAVTUnionInfo@@U?$less@H@std@@V?$allocator@U?$pair@$$CBHPAVTUnionInfo@@@std@@@3@$0A@@std@@@std@@QAEIABH@Z PROC ; std::_Tree<std::_Tmap_traits<int,TUnionInfo *,std::less<int>,std::allocator<std::pair<int const ,TUnionInfo *> >,0> >::erase, COMDAT
; _this$ = ecx

; 1394 : 		{	// erase and count all that match _Keyval

  00000	55		 push	 ebp
  00001	8b ec		 mov	 ebp, esp
  00003	83 ec 08	 sub	 esp, 8

; 1395 : 		_Pairii _Where = equal_range(_Keyval);

  00006	8b 45 08	 mov	 eax, DWORD PTR __Keyval$[ebp]
  00009	53		 push	 ebx
  0000a	56		 push	 esi
  0000b	57		 push	 edi
  0000c	8b f1		 mov	 esi, ecx
  0000e	50		 push	 eax
  0000f	8d 4d f8	 lea	 ecx, DWORD PTR __Where$[ebp]
  00012	51		 push	 ecx
  00013	8b ce		 mov	 ecx, esi
  00015	e8 00 00 00 00	 call	 ?_Eqrange@?$_Tree@V?$_Tmap_traits@HPAVTUnionInfo@@U?$less@H@std@@V?$allocator@U?$pair@$$CBHPAVTUnionInfo@@@std@@@3@$0A@@std@@@std@@IAE?AU?$pair@V?$_Tree_iterator@V?$_Tree_val@V?$_Tmap_traits@HPAVTUnionInfo@@U?$less@H@std@@V?$allocator@U?$pair@$$CBHPAVTUnionInfo@@@std@@@3@$0A@@std@@@std@@@std@@V12@@2@ABH@Z ; std::_Tree<std::_Tmap_traits<int,TUnionInfo *,std::less<int>,std::allocator<std::pair<int const ,TUnionInfo *> >,0> >::_Eqrange

; 1396 : 		size_type _Num = 0;
; 1397 : 		_Distance(_Where.first, _Where.second, _Num);

  0001a	8b 7d fc	 mov	 edi, DWORD PTR __Where$[ebp+4]
  0001d	8b 5d f8	 mov	 ebx, DWORD PTR __Where$[ebp]
  00020	c7 45 08 00 00
	00 00		 mov	 DWORD PTR __Num$[ebp], 0
  00027	8b 55 08	 mov	 edx, DWORD PTR $T162571[ebp]
  0002a	52		 push	 edx
  0002b	8d 45 08	 lea	 eax, DWORD PTR __Num$[ebp]
  0002e	50		 push	 eax
  0002f	57		 push	 edi
  00030	53		 push	 ebx
  00031	e8 00 00 00 00	 call	 ??$_Distance2@V?$_Tree_iterator@V?$_Tree_val@V?$_Tmap_traits@HPAVTUnionInfo@@U?$less@H@std@@V?$allocator@U?$pair@$$CBHPAVTUnionInfo@@@std@@@3@$0A@@std@@@std@@@std@@I@std@@YAXV?$_Tree_iterator@V?$_Tree_val@V?$_Tmap_traits@HPAVTUnionInfo@@U?$less@H@std@@V?$allocator@U?$pair@$$CBHPAVTUnionInfo@@@std@@@3@$0A@@std@@@std@@@0@0AAIUbidirectional_iterator_tag@0@@Z ; std::_Distance2<std::_Tree_iterator<std::_Tree_val<std::_Tmap_traits<int,TUnionInfo *,std::less<int>,std::allocator<std::pair<int const ,TUnionInfo *> >,0> > >,unsigned int>
  00036	83 c4 10	 add	 esp, 16			; 00000010H

; 1398 : 		erase(_Where.first, _Where.second);

  00039	57		 push	 edi
  0003a	53		 push	 ebx
  0003b	8d 4d fc	 lea	 ecx, DWORD PTR $T162559[ebp]
  0003e	51		 push	 ecx
  0003f	8b ce		 mov	 ecx, esi
  00041	e8 00 00 00 00	 call	 ?erase@?$_Tree@V?$_Tmap_traits@HPAVTUnionInfo@@U?$less@H@std@@V?$allocator@U?$pair@$$CBHPAVTUnionInfo@@@std@@@3@$0A@@std@@@std@@QAE?AV?$_Tree_iterator@V?$_Tree_val@V?$_Tmap_traits@HPAVTUnionInfo@@U?$less@H@std@@V?$allocator@U?$pair@$$CBHPAVTUnionInfo@@@std@@@3@$0A@@std@@@std@@@2@V?$_Tree_const_iterator@V?$_Tree_val@V?$_Tmap_traits@HPAVTUnionInfo@@U?$less@H@std@@V?$allocator@U?$pair@$$CBHPAVTUnionInfo@@@std@@@3@$0A@@std@@@std@@@2@0@Z ; std::_Tree<std::_Tmap_traits<int,TUnionInfo *,std::less<int>,std::allocator<std::pair<int const ,TUnionInfo *> >,0> >::erase

; 1399 : 		return (_Num);

  00046	8b 45 08	 mov	 eax, DWORD PTR __Num$[ebp]
  00049	5f		 pop	 edi
  0004a	5e		 pop	 esi
  0004b	5b		 pop	 ebx

; 1400 : 		}

  0004c	8b e5		 mov	 esp, ebp
  0004e	5d		 pop	 ebp
  0004f	c2 04 00	 ret	 4
?erase@?$_Tree@V?$_Tmap_traits@HPAVTUnionInfo@@U?$less@H@std@@V?$allocator@U?$pair@$$CBHPAVTUnionInfo@@@std@@@3@$0A@@std@@@std@@QAEIABH@Z ENDP ; std::_Tree<std::_Tmap_traits<int,TUnionInfo *,std::less<int>,std::allocator<std::pair<int const ,TUnionInfo *> >,0> >::erase
_TEXT	ENDS
PUBLIC	?find@?$_Tree@V?$_Tmap_traits@HPAVTUnionInfo@@U?$less@H@std@@V?$allocator@U?$pair@$$CBHPAVTUnionInfo@@@std@@@3@$0A@@std@@@std@@QAE?AV?$_Tree_iterator@V?$_Tree_val@V?$_Tmap_traits@HPAVTUnionInfo@@U?$less@H@std@@V?$allocator@U?$pair@$$CBHPAVTUnionInfo@@@std@@@3@$0A@@std@@@std@@@2@ABH@Z ; std::_Tree<std::_Tmap_traits<int,TUnionInfo *,std::less<int>,std::allocator<std::pair<int const ,TUnionInfo *> >,0> >::find
; Function compile flags: /Ogtp
;	COMDAT ?find@?$_Tree@V?$_Tmap_traits@HPAVTUnionInfo@@U?$less@H@std@@V?$allocator@U?$pair@$$CBHPAVTUnionInfo@@@std@@@3@$0A@@std@@@std@@QAE?AV?$_Tree_iterator@V?$_Tree_val@V?$_Tmap_traits@HPAVTUnionInfo@@U?$less@H@std@@V?$allocator@U?$pair@$$CBHPAVTUnionInfo@@@std@@@3@$0A@@std@@@std@@@2@ABH@Z
_TEXT	SEGMENT
$T162582 = -4						; size = 4
___$ReturnUdt$ = 8					; size = 4
__Where$ = 12						; size = 4
__Keyval$ = 12						; size = 4
?find@?$_Tree@V?$_Tmap_traits@HPAVTUnionInfo@@U?$less@H@std@@V?$allocator@U?$pair@$$CBHPAVTUnionInfo@@@std@@@3@$0A@@std@@@std@@QAE?AV?$_Tree_iterator@V?$_Tree_val@V?$_Tmap_traits@HPAVTUnionInfo@@U?$less@H@std@@V?$allocator@U?$pair@$$CBHPAVTUnionInfo@@@std@@@3@$0A@@std@@@std@@@2@ABH@Z PROC ; std::_Tree<std::_Tmap_traits<int,TUnionInfo *,std::less<int>,std::allocator<std::pair<int const ,TUnionInfo *> >,0> >::find, COMDAT
; _this$ = ecx

; 1423 : 		{	// find an element in mutable sequence that matches _Keyval

  00000	55		 push	 ebp
  00001	8b ec		 mov	 ebp, esp
  00003	51		 push	 ecx

; 1424 : 		iterator _Where = lower_bound(_Keyval);

  00004	8b 51 04	 mov	 edx, DWORD PTR [ecx+4]
  00007	8b 42 04	 mov	 eax, DWORD PTR [edx+4]
  0000a	80 78 15 00	 cmp	 BYTE PTR [eax+21], 0
  0000e	57		 push	 edi
  0000f	8b 7d 0c	 mov	 edi, DWORD PTR __Keyval$[ebp]
  00012	75 18		 jne	 SHORT $LN9@find
  00014	56		 push	 esi
  00015	8b 37		 mov	 esi, DWORD PTR [edi]
$LL10@find:
  00017	39 70 0c	 cmp	 DWORD PTR [eax+12], esi
  0001a	7d 05		 jge	 SHORT $LN8@find
  0001c	8b 40 08	 mov	 eax, DWORD PTR [eax+8]
  0001f	eb 04		 jmp	 SHORT $LN7@find
$LN8@find:
  00021	8b d0		 mov	 edx, eax
  00023	8b 00		 mov	 eax, DWORD PTR [eax]
$LN7@find:
  00025	80 78 15 00	 cmp	 BYTE PTR [eax+21], 0
  00029	74 ec		 je	 SHORT $LL10@find
  0002b	5e		 pop	 esi
$LN9@find:

; 1425 : 		return (_Where == end()
; 1426 : 			|| _DEBUG_LT_PRED(this->comp,
; 1427 : 				_Keyval, this->_Key(_Where._Mynode()))
; 1428 : 					? end() : _Where);

  0002c	8b 41 04	 mov	 eax, DWORD PTR [ecx+4]
  0002f	89 55 0c	 mov	 DWORD PTR __Where$[ebp], edx
  00032	3b d0		 cmp	 edx, eax
  00034	74 18		 je	 SHORT $LN3@find
  00036	8b 0f		 mov	 ecx, DWORD PTR [edi]
  00038	3b 4a 0c	 cmp	 ecx, DWORD PTR [edx+12]
  0003b	7c 11		 jl	 SHORT $LN3@find
  0003d	8d 45 0c	 lea	 eax, DWORD PTR __Where$[ebp]
  00040	8b 10		 mov	 edx, DWORD PTR [eax]
  00042	8b 45 08	 mov	 eax, DWORD PTR ___$ReturnUdt$[ebp]
  00045	89 10		 mov	 DWORD PTR [eax], edx
  00047	5f		 pop	 edi

; 1429 : 		}

  00048	8b e5		 mov	 esp, ebp
  0004a	5d		 pop	 ebp
  0004b	c2 08 00	 ret	 8
$LN3@find:

; 1425 : 		return (_Where == end()
; 1426 : 			|| _DEBUG_LT_PRED(this->comp,
; 1427 : 				_Keyval, this->_Key(_Where._Mynode()))
; 1428 : 					? end() : _Where);

  0004e	89 45 fc	 mov	 DWORD PTR $T162582[ebp], eax
  00051	8d 45 fc	 lea	 eax, DWORD PTR $T162582[ebp]
  00054	8b 10		 mov	 edx, DWORD PTR [eax]
  00056	8b 45 08	 mov	 eax, DWORD PTR ___$ReturnUdt$[ebp]
  00059	89 10		 mov	 DWORD PTR [eax], edx
  0005b	5f		 pop	 edi

; 1429 : 		}

  0005c	8b e5		 mov	 esp, ebp
  0005e	5d		 pop	 ebp
  0005f	c2 08 00	 ret	 8
?find@?$_Tree@V?$_Tmap_traits@HPAVTUnionInfo@@U?$less@H@std@@V?$allocator@U?$pair@$$CBHPAVTUnionInfo@@@std@@@3@$0A@@std@@@std@@QAE?AV?$_Tree_iterator@V?$_Tree_val@V?$_Tmap_traits@HPAVTUnionInfo@@U?$less@H@std@@V?$allocator@U?$pair@$$CBHPAVTUnionInfo@@@std@@@3@$0A@@std@@@std@@@2@ABH@Z ENDP ; std::_Tree<std::_Tmap_traits<int,TUnionInfo *,std::less<int>,std::allocator<std::pair<int const ,TUnionInfo *> >,0> >::find
_TEXT	ENDS
PUBLIC	?_Insert@?$_Tree@V?$_Tmap_traits@HPAVTUnionInfo@@U?$less@H@std@@V?$allocator@U?$pair@$$CBHPAVTUnionInfo@@@std@@@3@$0A@@std@@@std@@QAE?AV?$_Tree_iterator@V?$_Tree_val@V?$_Tmap_traits@HPAVTUnionInfo@@U?$less@H@std@@V?$allocator@U?$pair@$$CBHPAVTUnionInfo@@@std@@@3@$0A@@std@@@std@@@2@V?$_Tree_const_iterator@V?$_Tree_val@V?$_Tmap_traits@HPAVTUnionInfo@@U?$less@H@std@@V?$allocator@U?$pair@$$CBHPAVTUnionInfo@@@std@@@3@$0A@@std@@@std@@@2@PAU_Node@?$_Tree_nod@V?$_Tmap_traits@HPAVTUnionInfo@@U?$less@H@std@@V?$allocator@U?$pair@$$CBHPAVTUnionInfo@@@std@@@3@$0A@@std@@@2@@Z ; std::_Tree<std::_Tmap_traits<int,TUnionInfo *,std::less<int>,std::allocator<std::pair<int const ,TUnionInfo *> >,0> >::_Insert
; Function compile flags: /Ogtp
;	COMDAT ?_Insert@?$_Tree@V?$_Tmap_traits@HPAVTUnionInfo@@U?$less@H@std@@V?$allocator@U?$pair@$$CBHPAVTUnionInfo@@@std@@@3@$0A@@std@@@std@@QAE?AV?$_Tree_iterator@V?$_Tree_val@V?$_Tmap_traits@HPAVTUnionInfo@@U?$less@H@std@@V?$allocator@U?$pair@$$CBHPAVTUnionInfo@@@std@@@3@$0A@@std@@@std@@@2@V?$_Tree_const_iterator@V?$_Tree_val@V?$_Tmap_traits@HPAVTUnionInfo@@U?$less@H@std@@V?$allocator@U?$pair@$$CBHPAVTUnionInfo@@@std@@@3@$0A@@std@@@std@@@2@PAU_Node@?$_Tree_nod@V?$_Tmap_traits@HPAVTUnionInfo@@U?$less@H@std@@V?$allocator@U?$pair@$$CBHPAVTUnionInfo@@@std@@@3@$0A@@std@@@2@@Z
_TEXT	SEGMENT
$T162808 = -8						; size = 8
___$ReturnUdt$ = 8					; size = 4
__Where$ = 12						; size = 4
__Next$ = 16						; size = 4
__Node$ = 16						; size = 4
?_Insert@?$_Tree@V?$_Tmap_traits@HPAVTUnionInfo@@U?$less@H@std@@V?$allocator@U?$pair@$$CBHPAVTUnionInfo@@@std@@@3@$0A@@std@@@std@@QAE?AV?$_Tree_iterator@V?$_Tree_val@V?$_Tmap_traits@HPAVTUnionInfo@@U?$less@H@std@@V?$allocator@U?$pair@$$CBHPAVTUnionInfo@@@std@@@3@$0A@@std@@@std@@@2@V?$_Tree_const_iterator@V?$_Tree_val@V?$_Tmap_traits@HPAVTUnionInfo@@U?$less@H@std@@V?$allocator@U?$pair@$$CBHPAVTUnionInfo@@@std@@@3@$0A@@std@@@std@@@2@PAU_Node@?$_Tree_nod@V?$_Tmap_traits@HPAVTUnionInfo@@U?$less@H@std@@V?$allocator@U?$pair@$$CBHPAVTUnionInfo@@@std@@@3@$0A@@std@@@2@@Z PROC ; std::_Tree<std::_Tmap_traits<int,TUnionInfo *,std::less<int>,std::allocator<std::pair<int const ,TUnionInfo *> >,0> >::_Insert, COMDAT
; _this$ = ecx

; 1089 : 		{	// try to insert node at _Node using _Where as a hint

  00000	55		 push	 ebp
  00001	8b ec		 mov	 ebp, esp
  00003	83 ec 08	 sub	 esp, 8
  00006	56		 push	 esi
  00007	8b f1		 mov	 esi, ecx

; 1090 :  #if _ITERATOR_DEBUG_LEVEL == 2
; 1091 : 		if (_Where._Getcont() != this)
; 1092 : 			_DEBUG_ERROR("map/set insert iterator outside range");
; 1093 :  #endif /* _ITERATOR_DEBUG_LEVEL == 2 */
; 1094 : 
; 1095 : 		const value_type& _Val = this->_Myval(_Node);
; 1096 : 
; 1097 : 		const_iterator _Next;
; 1098 : 		bool _Leftish = false;	// assume nearest point is end of sequence
; 1099 : 
; 1100 : 		if (size() == 0)

  00009	83 7e 08 00	 cmp	 DWORD PTR [esi+8], 0

; 1101 : 			return (_Insert(true, this->_Myhead, _Node));	// empty tree

  0000d	8b 46 04	 mov	 eax, DWORD PTR [esi+4]
  00010	57		 push	 edi
  00011	8b 7d 10	 mov	 edi, DWORD PTR __Node$[ebp]
  00014	75 17		 jne	 SHORT $LN33@Insert@2
  00016	57		 push	 edi
  00017	8b 7d 08	 mov	 edi, DWORD PTR ___$ReturnUdt$[ebp]
  0001a	50		 push	 eax
  0001b	6a 01		 push	 1
  0001d	57		 push	 edi
  0001e	e8 00 00 00 00	 call	 ?_Insert@?$_Tree@V?$_Tmap_traits@HPAVTUnionInfo@@U?$less@H@std@@V?$allocator@U?$pair@$$CBHPAVTUnionInfo@@@std@@@3@$0A@@std@@@std@@IAE?AV?$_Tree_iterator@V?$_Tree_val@V?$_Tmap_traits@HPAVTUnionInfo@@U?$less@H@std@@V?$allocator@U?$pair@$$CBHPAVTUnionInfo@@@std@@@3@$0A@@std@@@std@@@2@_NPAU_Node@?$_Tree_nod@V?$_Tmap_traits@HPAVTUnionInfo@@U?$less@H@std@@V?$allocator@U?$pair@$$CBHPAVTUnionInfo@@@std@@@3@$0A@@std@@@2@1@Z ; std::_Tree<std::_Tmap_traits<int,TUnionInfo *,std::less<int>,std::allocator<std::pair<int const ,TUnionInfo *> >,0> >::_Insert
  00023	8b c7		 mov	 eax, edi
  00025	5f		 pop	 edi
  00026	5e		 pop	 esi

; 1181 : 		}

  00027	8b e5		 mov	 esp, ebp
  00029	5d		 pop	 ebp
  0002a	c2 0c 00	 ret	 12			; 0000000cH
$LN33@Insert@2:
  0002d	53		 push	 ebx

; 1102 : 		else if (this->_Multi)
; 1103 : 			{	// insert even if duplicate
; 1104 : 			if (_Where == begin())
; 1105 : 				{	// insert at beginning if before first element
; 1106 : 				if (!_DEBUG_LT_PRED(this->comp,
; 1107 : 					this->_Key(_Where._Mynode()), this->_Kfn(_Val)))
; 1108 : 					return (_Insert(true, _Where._Mynode(), _Node));
; 1109 : 				_Leftish = true;	// nearest point is beginning of sequence
; 1110 : 				}
; 1111 : 			else if (_Where == end())
; 1112 : 				{	// insert at end if after last element
; 1113 : 				if (!_DEBUG_LT_PRED(this->comp,
; 1114 : 					this->_Kfn(_Val), this->_Key(_Rmost())))
; 1115 : 					return (_Insert(false, _Rmost(), _Node));
; 1116 : 				}
; 1117 : 			else if (!_DEBUG_LT_PRED(this->comp,
; 1118 : 				this->_Key(_Where._Mynode()), this->_Kfn(_Val))
; 1119 : 				&& !_DEBUG_LT_PRED(this->comp,
; 1120 : 					this->_Kfn(_Val),
; 1121 : 					this->_Key((--(_Next = _Where))._Mynode())))
; 1122 : 				{	// insert before _Where
; 1123 : 				if (this->_Isnil(this->_Right(_Next._Mynode())))
; 1124 : 					return (_Insert(false, _Next._Mynode(), _Node));
; 1125 : 				else
; 1126 : 					return (_Insert(true, _Where._Mynode(), _Node));
; 1127 : 				}
; 1128 : 			else if (!_DEBUG_LT_PRED(this->comp,
; 1129 : 				this->_Kfn(_Val), this->_Key(_Where._Mynode()))
; 1130 : 				&& (++(_Next = _Where) == end()
; 1131 : 					|| !_DEBUG_LT_PRED(this->comp,
; 1132 : 						this->_Key(_Next._Mynode()), this->_Kfn(_Val))))
; 1133 : 				{	// insert after _Where
; 1134 : 				if (this->_Isnil(this->_Right(_Where._Mynode())))
; 1135 : 					return (_Insert(false, _Where._Mynode(), _Node));
; 1136 : 				else
; 1137 : 					return (_Insert(true, _Next._Mynode(), _Node));
; 1138 : 				}
; 1139 : 			else
; 1140 : 				_Leftish = true;	// nearest point is beginning of sequence
; 1141 : 			}
; 1142 : 		else
; 1143 : 			{	// insert only if unique
; 1144 : 			if (_Where == begin())

  0002e	8b 5d 0c	 mov	 ebx, DWORD PTR __Where$[ebp]
  00031	3b 18		 cmp	 ebx, DWORD PTR [eax]
  00033	75 26		 jne	 SHORT $LN14@Insert@2

; 1145 : 				{	// insert at beginning if before first element
; 1146 : 				if (_DEBUG_LT_PRED(this->comp,

  00035	8b 4f 0c	 mov	 ecx, DWORD PTR [edi+12]
  00038	3b 4b 0c	 cmp	 ecx, DWORD PTR [ebx+12]
  0003b	0f 8d f4 00 00
	00		 jge	 $LN333@Insert@2

; 1147 : 					this->_Kfn(_Val), this->_Key(_Where._Mynode())))
; 1148 : 					return (_Insert(true, _Where._Mynode(), _Node));

  00041	57		 push	 edi
  00042	8b 7d 08	 mov	 edi, DWORD PTR ___$ReturnUdt$[ebp]
  00045	53		 push	 ebx
  00046	6a 01		 push	 1
  00048	57		 push	 edi
  00049	8b ce		 mov	 ecx, esi
  0004b	e8 00 00 00 00	 call	 ?_Insert@?$_Tree@V?$_Tmap_traits@HPAVTUnionInfo@@U?$less@H@std@@V?$allocator@U?$pair@$$CBHPAVTUnionInfo@@@std@@@3@$0A@@std@@@std@@IAE?AV?$_Tree_iterator@V?$_Tree_val@V?$_Tmap_traits@HPAVTUnionInfo@@U?$less@H@std@@V?$allocator@U?$pair@$$CBHPAVTUnionInfo@@@std@@@3@$0A@@std@@@std@@@2@_NPAU_Node@?$_Tree_nod@V?$_Tmap_traits@HPAVTUnionInfo@@U?$less@H@std@@V?$allocator@U?$pair@$$CBHPAVTUnionInfo@@@std@@@3@$0A@@std@@@2@1@Z ; std::_Tree<std::_Tmap_traits<int,TUnionInfo *,std::less<int>,std::allocator<std::pair<int const ,TUnionInfo *> >,0> >::_Insert
  00050	5b		 pop	 ebx
  00051	8b c7		 mov	 eax, edi
  00053	5f		 pop	 edi
  00054	5e		 pop	 esi

; 1181 : 		}

  00055	8b e5		 mov	 esp, ebp
  00057	5d		 pop	 ebp
  00058	c2 0c 00	 ret	 12			; 0000000cH
$LN14@Insert@2:

; 1149 : 				}
; 1150 : 			else if (_Where == end())

  0005b	3b d8		 cmp	 ebx, eax
  0005d	75 27		 jne	 SHORT $LN11@Insert@2

; 1151 : 				{	// insert at end if after last element
; 1152 : 				if (_DEBUG_LT_PRED(this->comp,

  0005f	8b 40 08	 mov	 eax, DWORD PTR [eax+8]
  00062	8b 50 0c	 mov	 edx, DWORD PTR [eax+12]
  00065	3b 57 0c	 cmp	 edx, DWORD PTR [edi+12]
  00068	0f 8d c7 00 00
	00		 jge	 $LN333@Insert@2

; 1153 : 					this->_Key(_Rmost()), this->_Kfn(_Val)))
; 1154 : 					return (_Insert(false, _Rmost(), _Node));

  0006e	57		 push	 edi
  0006f	8b 7d 08	 mov	 edi, DWORD PTR ___$ReturnUdt$[ebp]
  00072	50		 push	 eax
  00073	6a 00		 push	 0
  00075	57		 push	 edi
  00076	e8 00 00 00 00	 call	 ?_Insert@?$_Tree@V?$_Tmap_traits@HPAVTUnionInfo@@U?$less@H@std@@V?$allocator@U?$pair@$$CBHPAVTUnionInfo@@@std@@@3@$0A@@std@@@std@@IAE?AV?$_Tree_iterator@V?$_Tree_val@V?$_Tmap_traits@HPAVTUnionInfo@@U?$less@H@std@@V?$allocator@U?$pair@$$CBHPAVTUnionInfo@@@std@@@3@$0A@@std@@@std@@@2@_NPAU_Node@?$_Tree_nod@V?$_Tmap_traits@HPAVTUnionInfo@@U?$less@H@std@@V?$allocator@U?$pair@$$CBHPAVTUnionInfo@@@std@@@3@$0A@@std@@@2@1@Z ; std::_Tree<std::_Tmap_traits<int,TUnionInfo *,std::less<int>,std::allocator<std::pair<int const ,TUnionInfo *> >,0> >::_Insert
  0007b	5b		 pop	 ebx
  0007c	8b c7		 mov	 eax, edi
  0007e	5f		 pop	 edi
  0007f	5e		 pop	 esi

; 1181 : 		}

  00080	8b e5		 mov	 esp, ebp
  00082	5d		 pop	 ebp
  00083	c2 0c 00	 ret	 12			; 0000000cH
$LN11@Insert@2:

; 1155 : 				}
; 1156 : 			else if (_DEBUG_LT_PRED(this->comp,
; 1157 : 				this->_Kfn(_Val), this->_Key(_Where._Mynode()))
; 1158 : 				&& _DEBUG_LT_PRED(this->comp,

  00086	8b 47 0c	 mov	 eax, DWORD PTR [edi+12]
  00089	3b 43 0c	 cmp	 eax, DWORD PTR [ebx+12]
  0008c	7d 4d		 jge	 SHORT $LN332@Insert@2
  0008e	8d 4d 10	 lea	 ecx, DWORD PTR __Next$[ebp]
  00091	89 5d 10	 mov	 DWORD PTR __Next$[ebp], ebx
  00094	e8 00 00 00 00	 call	 ??F?$_Tree_unchecked_const_iterator@V?$_Tree_val@V?$_Tmap_traits@HPAVTUnionInfo@@U?$less@H@std@@V?$allocator@U?$pair@$$CBHPAVTUnionInfo@@@std@@@3@$0A@@std@@@std@@U_Iterator_base0@2@@std@@QAEAAV01@XZ ; std::_Tree_unchecked_const_iterator<std::_Tree_val<std::_Tmap_traits<int,TUnionInfo *,std::less<int>,std::allocator<std::pair<int const ,TUnionInfo *> >,0> >,std::_Iterator_base0>::operator--
  00099	8b 45 10	 mov	 eax, DWORD PTR __Next$[ebp]
  0009c	8b 4f 0c	 mov	 ecx, DWORD PTR [edi+12]
  0009f	39 48 0c	 cmp	 DWORD PTR [eax+12], ecx
  000a2	7d 37		 jge	 SHORT $LN332@Insert@2

; 1159 : 					this->_Key((--(_Next = _Where))._Mynode()),
; 1160 : 					this->_Kfn(_Val)))
; 1161 : 				{	// insert before _Where
; 1162 : 				if (this->_Isnil(this->_Right(_Next._Mynode())))

  000a4	8b 48 08	 mov	 ecx, DWORD PTR [eax+8]
  000a7	80 79 15 00	 cmp	 BYTE PTR [ecx+21], 0

; 1163 : 					return (_Insert(false, _Next._Mynode(), _Node));

  000ab	57		 push	 edi
  000ac	8b 7d 08	 mov	 edi, DWORD PTR ___$ReturnUdt$[ebp]
  000af	8b ce		 mov	 ecx, esi
  000b1	74 14		 je	 SHORT $LN7@Insert@2
  000b3	50		 push	 eax
  000b4	6a 00		 push	 0
  000b6	57		 push	 edi
  000b7	e8 00 00 00 00	 call	 ?_Insert@?$_Tree@V?$_Tmap_traits@HPAVTUnionInfo@@U?$less@H@std@@V?$allocator@U?$pair@$$CBHPAVTUnionInfo@@@std@@@3@$0A@@std@@@std@@IAE?AV?$_Tree_iterator@V?$_Tree_val@V?$_Tmap_traits@HPAVTUnionInfo@@U?$less@H@std@@V?$allocator@U?$pair@$$CBHPAVTUnionInfo@@@std@@@3@$0A@@std@@@std@@@2@_NPAU_Node@?$_Tree_nod@V?$_Tmap_traits@HPAVTUnionInfo@@U?$less@H@std@@V?$allocator@U?$pair@$$CBHPAVTUnionInfo@@@std@@@3@$0A@@std@@@2@1@Z ; std::_Tree<std::_Tmap_traits<int,TUnionInfo *,std::less<int>,std::allocator<std::pair<int const ,TUnionInfo *> >,0> >::_Insert
  000bc	5b		 pop	 ebx
  000bd	8b c7		 mov	 eax, edi
  000bf	5f		 pop	 edi
  000c0	5e		 pop	 esi

; 1181 : 		}

  000c1	8b e5		 mov	 esp, ebp
  000c3	5d		 pop	 ebp
  000c4	c2 0c 00	 ret	 12			; 0000000cH
$LN7@Insert@2:

; 1164 : 				else
; 1165 : 					return (_Insert(true, _Where._Mynode(), _Node));

  000c7	53		 push	 ebx
  000c8	6a 01		 push	 1
  000ca	57		 push	 edi
  000cb	e8 00 00 00 00	 call	 ?_Insert@?$_Tree@V?$_Tmap_traits@HPAVTUnionInfo@@U?$less@H@std@@V?$allocator@U?$pair@$$CBHPAVTUnionInfo@@@std@@@3@$0A@@std@@@std@@IAE?AV?$_Tree_iterator@V?$_Tree_val@V?$_Tmap_traits@HPAVTUnionInfo@@U?$less@H@std@@V?$allocator@U?$pair@$$CBHPAVTUnionInfo@@@std@@@3@$0A@@std@@@std@@@2@_NPAU_Node@?$_Tree_nod@V?$_Tmap_traits@HPAVTUnionInfo@@U?$less@H@std@@V?$allocator@U?$pair@$$CBHPAVTUnionInfo@@@std@@@3@$0A@@std@@@2@1@Z ; std::_Tree<std::_Tmap_traits<int,TUnionInfo *,std::less<int>,std::allocator<std::pair<int const ,TUnionInfo *> >,0> >::_Insert
  000d0	5b		 pop	 ebx
  000d1	8b c7		 mov	 eax, edi
  000d3	5f		 pop	 edi
  000d4	5e		 pop	 esi

; 1181 : 		}

  000d5	8b e5		 mov	 esp, ebp
  000d7	5d		 pop	 ebp
  000d8	c2 0c 00	 ret	 12			; 0000000cH
$LN332@Insert@2:

; 1166 : 				}
; 1167 : 			else if (_DEBUG_LT_PRED(this->comp,
; 1168 : 				this->_Key(_Where._Mynode()), this->_Kfn(_Val))
; 1169 : 				&& (++(_Next = _Where) == end()
; 1170 : 					|| _DEBUG_LT_PRED(this->comp,

  000db	8b 47 0c	 mov	 eax, DWORD PTR [edi+12]
  000de	39 43 0c	 cmp	 DWORD PTR [ebx+12], eax
  000e1	7d 52		 jge	 SHORT $LN333@Insert@2
  000e3	8d 4d 10	 lea	 ecx, DWORD PTR __Next$[ebp]
  000e6	89 5d 10	 mov	 DWORD PTR __Next$[ebp], ebx
  000e9	e8 00 00 00 00	 call	 ??E?$_Tree_unchecked_const_iterator@V?$_Tree_val@V?$_Tmap_traits@HPAVTUnionInfo@@U?$less@H@std@@V?$allocator@U?$pair@$$CBHPAVTUnionInfo@@@std@@@3@$0A@@std@@@std@@U_Iterator_base0@2@@std@@QAEAAV01@XZ ; std::_Tree_unchecked_const_iterator<std::_Tree_val<std::_Tmap_traits<int,TUnionInfo *,std::less<int>,std::allocator<std::pair<int const ,TUnionInfo *> >,0> >,std::_Iterator_base0>::operator++
  000ee	8b 45 10	 mov	 eax, DWORD PTR __Next$[ebp]
  000f1	3b 46 04	 cmp	 eax, DWORD PTR [esi+4]
  000f4	74 08		 je	 SHORT $LN3@Insert@2
  000f6	8b 4f 0c	 mov	 ecx, DWORD PTR [edi+12]
  000f9	3b 48 0c	 cmp	 ecx, DWORD PTR [eax+12]
  000fc	7d 37		 jge	 SHORT $LN333@Insert@2
$LN3@Insert@2:

; 1171 : 						this->_Kfn(_Val), this->_Key(_Next._Mynode()))))
; 1172 : 				{	// insert after _Where
; 1173 : 				if (this->_Isnil(this->_Right(_Where._Mynode())))

  000fe	8b 53 08	 mov	 edx, DWORD PTR [ebx+8]
  00101	80 7a 15 00	 cmp	 BYTE PTR [edx+21], 0

; 1174 : 					return (_Insert(false, _Where._Mynode(), _Node));

  00105	57		 push	 edi
  00106	8b 7d 08	 mov	 edi, DWORD PTR ___$ReturnUdt$[ebp]
  00109	8b ce		 mov	 ecx, esi
  0010b	74 14		 je	 SHORT $LN2@Insert@2
  0010d	53		 push	 ebx
  0010e	6a 00		 push	 0
  00110	57		 push	 edi
  00111	e8 00 00 00 00	 call	 ?_Insert@?$_Tree@V?$_Tmap_traits@HPAVTUnionInfo@@U?$less@H@std@@V?$allocator@U?$pair@$$CBHPAVTUnionInfo@@@std@@@3@$0A@@std@@@std@@IAE?AV?$_Tree_iterator@V?$_Tree_val@V?$_Tmap_traits@HPAVTUnionInfo@@U?$less@H@std@@V?$allocator@U?$pair@$$CBHPAVTUnionInfo@@@std@@@3@$0A@@std@@@std@@@2@_NPAU_Node@?$_Tree_nod@V?$_Tmap_traits@HPAVTUnionInfo@@U?$less@H@std@@V?$allocator@U?$pair@$$CBHPAVTUnionInfo@@@std@@@3@$0A@@std@@@2@1@Z ; std::_Tree<std::_Tmap_traits<int,TUnionInfo *,std::less<int>,std::allocator<std::pair<int const ,TUnionInfo *> >,0> >::_Insert
  00116	5b		 pop	 ebx
  00117	8b c7		 mov	 eax, edi
  00119	5f		 pop	 edi
  0011a	5e		 pop	 esi

; 1181 : 		}

  0011b	8b e5		 mov	 esp, ebp
  0011d	5d		 pop	 ebp
  0011e	c2 0c 00	 ret	 12			; 0000000cH
$LN2@Insert@2:

; 1175 : 				else
; 1176 : 					return (_Insert(true, _Next._Mynode(), _Node));

  00121	50		 push	 eax
  00122	6a 01		 push	 1
  00124	57		 push	 edi
  00125	e8 00 00 00 00	 call	 ?_Insert@?$_Tree@V?$_Tmap_traits@HPAVTUnionInfo@@U?$less@H@std@@V?$allocator@U?$pair@$$CBHPAVTUnionInfo@@@std@@@3@$0A@@std@@@std@@IAE?AV?$_Tree_iterator@V?$_Tree_val@V?$_Tmap_traits@HPAVTUnionInfo@@U?$less@H@std@@V?$allocator@U?$pair@$$CBHPAVTUnionInfo@@@std@@@3@$0A@@std@@@std@@@2@_NPAU_Node@?$_Tree_nod@V?$_Tmap_traits@HPAVTUnionInfo@@U?$less@H@std@@V?$allocator@U?$pair@$$CBHPAVTUnionInfo@@@std@@@3@$0A@@std@@@2@1@Z ; std::_Tree<std::_Tmap_traits<int,TUnionInfo *,std::less<int>,std::allocator<std::pair<int const ,TUnionInfo *> >,0> >::_Insert
  0012a	5b		 pop	 ebx
  0012b	8b c7		 mov	 eax, edi
  0012d	5f		 pop	 edi
  0012e	5e		 pop	 esi

; 1181 : 		}

  0012f	8b e5		 mov	 esp, ebp
  00131	5d		 pop	 ebp
  00132	c2 0c 00	 ret	 12			; 0000000cH
$LN333@Insert@2:

; 1177 : 				}
; 1178 : 			}
; 1179 : 
; 1180 : 		return (_Linsert(_Node, _Leftish).first);	// try usual insert

  00135	6a 00		 push	 0
  00137	57		 push	 edi
  00138	8d 45 f8	 lea	 eax, DWORD PTR $T162808[ebp]
  0013b	50		 push	 eax
  0013c	8b ce		 mov	 ecx, esi
  0013e	e8 00 00 00 00	 call	 ?_Linsert@?$_Tree@V?$_Tmap_traits@HPAVTUnionInfo@@U?$less@H@std@@V?$allocator@U?$pair@$$CBHPAVTUnionInfo@@@std@@@3@$0A@@std@@@std@@QAE?AU?$pair@V?$_Tree_iterator@V?$_Tree_val@V?$_Tmap_traits@HPAVTUnionInfo@@U?$less@H@std@@V?$allocator@U?$pair@$$CBHPAVTUnionInfo@@@std@@@3@$0A@@std@@@std@@@std@@_N@2@PAU_Node@?$_Tree_nod@V?$_Tmap_traits@HPAVTUnionInfo@@U?$less@H@std@@V?$allocator@U?$pair@$$CBHPAVTUnionInfo@@@std@@@3@$0A@@std@@@2@_N@Z ; std::_Tree<std::_Tmap_traits<int,TUnionInfo *,std::less<int>,std::allocator<std::pair<int const ,TUnionInfo *> >,0> >::_Linsert
  00143	8b 08		 mov	 ecx, DWORD PTR [eax]
  00145	8b 45 08	 mov	 eax, DWORD PTR ___$ReturnUdt$[ebp]
  00148	5b		 pop	 ebx
  00149	5f		 pop	 edi
  0014a	89 08		 mov	 DWORD PTR [eax], ecx
  0014c	5e		 pop	 esi

; 1181 : 		}

  0014d	8b e5		 mov	 esp, ebp
  0014f	5d		 pop	 ebp
  00150	c2 0c 00	 ret	 12			; 0000000cH
?_Insert@?$_Tree@V?$_Tmap_traits@HPAVTUnionInfo@@U?$less@H@std@@V?$allocator@U?$pair@$$CBHPAVTUnionInfo@@@std@@@3@$0A@@std@@@std@@QAE?AV?$_Tree_iterator@V?$_Tree_val@V?$_Tmap_traits@HPAVTUnionInfo@@U?$less@H@std@@V?$allocator@U?$pair@$$CBHPAVTUnionInfo@@@std@@@3@$0A@@std@@@std@@@2@V?$_Tree_const_iterator@V?$_Tree_val@V?$_Tmap_traits@HPAVTUnionInfo@@U?$less@H@std@@V?$allocator@U?$pair@$$CBHPAVTUnionInfo@@@std@@@3@$0A@@std@@@std@@@2@PAU_Node@?$_Tree_nod@V?$_Tmap_traits@HPAVTUnionInfo@@U?$less@H@std@@V?$allocator@U?$pair@$$CBHPAVTUnionInfo@@@std@@@3@$0A@@std@@@2@@Z ENDP ; std::_Tree<std::_Tmap_traits<int,TUnionInfo *,std::less<int>,std::allocator<std::pair<int const ,TUnionInfo *> >,0> >::_Insert
_TEXT	ENDS
PUBLIC	??$_Buynode@U?$pair@$$CBHPAVTUnionInfo@@@std@@@?$_Tree_val@V?$_Tmap_traits@HPAVTUnionInfo@@U?$less@H@std@@V?$allocator@U?$pair@$$CBHPAVTUnionInfo@@@std@@@3@$0A@@std@@@std@@QAEPAU_Node@?$_Tree_nod@V?$_Tmap_traits@HPAVTUnionInfo@@U?$less@H@std@@V?$allocator@U?$pair@$$CBHPAVTUnionInfo@@@std@@@3@$0A@@std@@@1@$$QAU?$pair@$$CBHPAVTUnionInfo@@@1@@Z ; std::_Tree_val<std::_Tmap_traits<int,TUnionInfo *,std::less<int>,std::allocator<std::pair<int const ,TUnionInfo *> >,0> >::_Buynode<std::pair<int const ,TUnionInfo *> >
; Function compile flags: /Ogtp
;	COMDAT ??$_Buynode@U?$pair@$$CBHPAVTUnionInfo@@@std@@@?$_Tree_val@V?$_Tmap_traits@HPAVTUnionInfo@@U?$less@H@std@@V?$allocator@U?$pair@$$CBHPAVTUnionInfo@@@std@@@3@$0A@@std@@@std@@QAEPAU_Node@?$_Tree_nod@V?$_Tmap_traits@HPAVTUnionInfo@@U?$less@H@std@@V?$allocator@U?$pair@$$CBHPAVTUnionInfo@@@std@@@3@$0A@@std@@@1@$$QAU?$pair@$$CBHPAVTUnionInfo@@@1@@Z
_TEXT	SEGMENT
$T163519 = -12						; size = 12
$T163468 = 8						; size = 4
__Val$ = 8						; size = 4
??$_Buynode@U?$pair@$$CBHPAVTUnionInfo@@@std@@@?$_Tree_val@V?$_Tmap_traits@HPAVTUnionInfo@@U?$less@H@std@@V?$allocator@U?$pair@$$CBHPAVTUnionInfo@@@std@@@3@$0A@@std@@@std@@QAEPAU_Node@?$_Tree_nod@V?$_Tmap_traits@HPAVTUnionInfo@@U?$less@H@std@@V?$allocator@U?$pair@$$CBHPAVTUnionInfo@@@std@@@3@$0A@@std@@@1@$$QAU?$pair@$$CBHPAVTUnionInfo@@@1@@Z PROC ; std::_Tree_val<std::_Tmap_traits<int,TUnionInfo *,std::less<int>,std::allocator<std::pair<int const ,TUnionInfo *> >,0> >::_Buynode<std::pair<int const ,TUnionInfo *> >, COMDAT
; _this$ = ecx

; 586  : 		_Nodeptr _Buynode(_Valty&& _Val)

  00000	55		 push	 ebp
  00001	8b ec		 mov	 ebp, esp
  00003	83 ec 0c	 sub	 esp, 12			; 0000000cH
  00006	56		 push	 esi
  00007	57		 push	 edi

; 587  : 		{	// allocate a node with defaults
; 588  : 		_Nodeptr _Wherenode = _Buynode();

  00008	6a 18		 push	 24			; 00000018H
  0000a	8b f9		 mov	 edi, ecx
  0000c	e8 00 00 00 00	 call	 ??2@YAPAXI@Z		; operator new
  00011	8b f0		 mov	 esi, eax
  00013	33 c0		 xor	 eax, eax
  00015	83 c4 04	 add	 esp, 4
  00018	3b f0		 cmp	 esi, eax
  0001a	74 33		 je	 SHORT $LN12@Buynode@2
  0001c	8b 4f 04	 mov	 ecx, DWORD PTR [edi+4]
  0001f	89 0e		 mov	 DWORD PTR [esi], ecx
  00021	8b 57 04	 mov	 edx, DWORD PTR [edi+4]
  00024	89 56 04	 mov	 DWORD PTR [esi+4], edx
  00027	8b 4f 04	 mov	 ecx, DWORD PTR [edi+4]

; 589  : 
; 590  : 		_TRY_BEGIN
; 591  : 		_Cons_val(this->_Alval, _STD addressof(this->_Myval(_Wherenode)),
; 592  : 			_STD forward<_Valty>(_Val));

  0002a	8b 55 08	 mov	 edx, DWORD PTR __Val$[ebp]
  0002d	66 89 46 14	 mov	 WORD PTR [esi+20], ax
  00031	52		 push	 edx
  00032	8d 46 0c	 lea	 eax, DWORD PTR [esi+12]
  00035	50		 push	 eax
  00036	83 c7 0d	 add	 edi, 13			; 0000000dH
  00039	57		 push	 edi
  0003a	89 4e 08	 mov	 DWORD PTR [esi+8], ecx
  0003d	e8 00 00 00 00	 call	 ??$_Cons_val@V?$allocator@U?$pair@$$CBHPAVTUnionInfo@@@std@@@std@@U?$pair@$$CBHPAVTUnionInfo@@@2@U32@@std@@YAXAAV?$allocator@U?$pair@$$CBHPAVTUnionInfo@@@std@@@0@PAU?$pair@$$CBHPAVTUnionInfo@@@0@$$QAU20@@Z ; std::_Cons_val<std::allocator<std::pair<int const ,TUnionInfo *> >,std::pair<int const ,TUnionInfo *>,std::pair<int const ,TUnionInfo *> >
  00042	83 c4 0c	 add	 esp, 12			; 0000000cH
  00045	5f		 pop	 edi

; 593  : 		_CATCH_ALL
; 594  : 		this->_Alnod.deallocate(_Wherenode, 1);
; 595  : 		_RERAISE;
; 596  : 		_CATCH_END
; 597  : 
; 598  : 		return (_Wherenode);

  00046	8b c6		 mov	 eax, esi
  00048	5e		 pop	 esi

; 599  : 		}

  00049	8b e5		 mov	 esp, ebp
  0004b	5d		 pop	 ebp
  0004c	c2 04 00	 ret	 4

; 587  : 		{	// allocate a node with defaults
; 588  : 		_Nodeptr _Wherenode = _Buynode();

$LN12@Buynode@2:
  0004f	8d 4d 08	 lea	 ecx, DWORD PTR $T163468[ebp]
  00052	51		 push	 ecx
  00053	8d 4d f4	 lea	 ecx, DWORD PTR $T163519[ebp]
  00056	89 45 08	 mov	 DWORD PTR $T163468[ebp], eax
  00059	e8 00 00 00 00	 call	 ??0exception@std@@QAE@ABQBD@Z ; std::exception::exception
  0005e	68 00 00 00 00	 push	 OFFSET __TI2?AVbad_alloc@std@@
  00063	8d 55 f4	 lea	 edx, DWORD PTR $T163519[ebp]
  00066	52		 push	 edx
  00067	c7 45 f4 00 00
	00 00		 mov	 DWORD PTR $T163519[ebp], OFFSET ??_7bad_alloc@std@@6B@
  0006e	e8 00 00 00 00	 call	 __CxxThrowException@8
$LN44@Buynode@2:
$LN43@Buynode@2:
  00073	cc		 int	 3
??$_Buynode@U?$pair@$$CBHPAVTUnionInfo@@@std@@@?$_Tree_val@V?$_Tmap_traits@HPAVTUnionInfo@@U?$less@H@std@@V?$allocator@U?$pair@$$CBHPAVTUnionInfo@@@std@@@3@$0A@@std@@@std@@QAEPAU_Node@?$_Tree_nod@V?$_Tmap_traits@HPAVTUnionInfo@@U?$less@H@std@@V?$allocator@U?$pair@$$CBHPAVTUnionInfo@@@std@@@3@$0A@@std@@@1@$$QAU?$pair@$$CBHPAVTUnionInfo@@@1@@Z ENDP ; std::_Tree_val<std::_Tmap_traits<int,TUnionInfo *,std::less<int>,std::allocator<std::pair<int const ,TUnionInfo *> >,0> >::_Buynode<std::pair<int const ,TUnionInfo *> >
_TEXT	ENDS
PUBLIC	??1?$map@HPAVTUnionInfo@@U?$less@H@std@@V?$allocator@U?$pair@$$CBHPAVTUnionInfo@@@std@@@3@@std@@QAE@XZ ; std::map<int,TUnionInfo *,std::less<int>,std::allocator<std::pair<int const ,TUnionInfo *> > >::~map<int,TUnionInfo *,std::less<int>,std::allocator<std::pair<int const ,TUnionInfo *> > >
;	COMDAT xdata$x
xdata$x	SEGMENT
__unwindtable$??1?$map@HPAVTUnionInfo@@U?$less@H@std@@V?$allocator@U?$pair@$$CBHPAVTUnionInfo@@@std@@@3@@std@@QAE@XZ DD 0ffffffffH
	DD	FLAT:__unwindfunclet$??1?$map@HPAVTUnionInfo@@U?$less@H@std@@V?$allocator@U?$pair@$$CBHPAVTUnionInfo@@@std@@@3@@std@@QAE@XZ$1
__ehfuncinfo$??1?$map@HPAVTUnionInfo@@U?$less@H@std@@V?$allocator@U?$pair@$$CBHPAVTUnionInfo@@@std@@@3@@std@@QAE@XZ DD 019930522H
	DD	01H
	DD	FLAT:__unwindtable$??1?$map@HPAVTUnionInfo@@U?$less@H@std@@V?$allocator@U?$pair@$$CBHPAVTUnionInfo@@@std@@@3@@std@@QAE@XZ
	DD	2 DUP(00H)
	DD	2 DUP(00H)
	DD	00H
	DD	01H
; Function compile flags: /Ogtp
xdata$x	ENDS
;	COMDAT ??1?$map@HPAVTUnionInfo@@U?$less@H@std@@V?$allocator@U?$pair@$$CBHPAVTUnionInfo@@@std@@@3@@std@@QAE@XZ
_TEXT	SEGMENT
$T163698 = -20						; size = 4
_this$ = -16						; size = 4
__$EHRec$ = -12						; size = 12
??1?$map@HPAVTUnionInfo@@U?$less@H@std@@V?$allocator@U?$pair@$$CBHPAVTUnionInfo@@@std@@@3@@std@@QAE@XZ PROC ; std::map<int,TUnionInfo *,std::less<int>,std::allocator<std::pair<int const ,TUnionInfo *> > >::~map<int,TUnionInfo *,std::less<int>,std::allocator<std::pair<int const ,TUnionInfo *> > >, COMDAT
; _this$ = ecx
  00000	55		 push	 ebp
  00001	8b ec		 mov	 ebp, esp
  00003	6a ff		 push	 -1
  00005	68 00 00 00 00	 push	 __ehhandler$??1?$map@HPAVTUnionInfo@@U?$less@H@std@@V?$allocator@U?$pair@$$CBHPAVTUnionInfo@@@std@@@3@@std@@QAE@XZ
  0000a	64 a1 00 00 00
	00		 mov	 eax, DWORD PTR fs:0
  00010	50		 push	 eax
  00011	83 ec 08	 sub	 esp, 8
  00014	56		 push	 esi
  00015	a1 00 00 00 00	 mov	 eax, DWORD PTR ___security_cookie
  0001a	33 c5		 xor	 eax, ebp
  0001c	50		 push	 eax
  0001d	8d 45 f4	 lea	 eax, DWORD PTR __$EHRec$[ebp]
  00020	64 a3 00 00 00
	00		 mov	 DWORD PTR fs:0, eax
  00026	8b f1		 mov	 esi, ecx
  00028	89 75 f0	 mov	 DWORD PTR _this$[ebp], esi
  0002b	8b 46 04	 mov	 eax, DWORD PTR [esi+4]
  0002e	8b 08		 mov	 ecx, DWORD PTR [eax]
  00030	50		 push	 eax
  00031	51		 push	 ecx
  00032	8d 45 ec	 lea	 eax, DWORD PTR $T163698[ebp]
  00035	50		 push	 eax
  00036	8b ce		 mov	 ecx, esi
  00038	c7 45 fc 00 00
	00 00		 mov	 DWORD PTR __$EHRec$[ebp+8], 0
  0003f	e8 00 00 00 00	 call	 ?erase@?$_Tree@V?$_Tmap_traits@HPAVTUnionInfo@@U?$less@H@std@@V?$allocator@U?$pair@$$CBHPAVTUnionInfo@@@std@@@3@$0A@@std@@@std@@QAE?AV?$_Tree_iterator@V?$_Tree_val@V?$_Tmap_traits@HPAVTUnionInfo@@U?$less@H@std@@V?$allocator@U?$pair@$$CBHPAVTUnionInfo@@@std@@@3@$0A@@std@@@std@@@2@V?$_Tree_const_iterator@V?$_Tree_val@V?$_Tmap_traits@HPAVTUnionInfo@@U?$less@H@std@@V?$allocator@U?$pair@$$CBHPAVTUnionInfo@@@std@@@3@$0A@@std@@@std@@@2@0@Z ; std::_Tree<std::_Tmap_traits<int,TUnionInfo *,std::less<int>,std::allocator<std::pair<int const ,TUnionInfo *> >,0> >::erase
  00044	8b 4e 04	 mov	 ecx, DWORD PTR [esi+4]
  00047	51		 push	 ecx
  00048	e8 00 00 00 00	 call	 ??3@YAXPAX@Z		; operator delete
  0004d	83 c4 04	 add	 esp, 4
  00050	8b 4d f4	 mov	 ecx, DWORD PTR __$EHRec$[ebp]
  00053	64 89 0d 00 00
	00 00		 mov	 DWORD PTR fs:0, ecx
  0005a	59		 pop	 ecx
  0005b	5e		 pop	 esi
  0005c	8b e5		 mov	 esp, ebp
  0005e	5d		 pop	 ebp
  0005f	c3		 ret	 0
_TEXT	ENDS
;	COMDAT text$x
text$x	SEGMENT
__unwindfunclet$??1?$map@HPAVTUnionInfo@@U?$less@H@std@@V?$allocator@U?$pair@$$CBHPAVTUnionInfo@@@std@@@3@@std@@QAE@XZ$1:
  00000	8b 4d f0	 mov	 ecx, DWORD PTR _this$[ebp]
  00003	e9 00 00 00 00	 jmp	 ??1?$_Tree_val@V?$_Tmap_traits@HPAVTUnionInfo@@U?$less@H@std@@V?$allocator@U?$pair@$$CBHPAVTUnionInfo@@@std@@@3@$0A@@std@@@std@@QAE@XZ ; std::_Tree_val<std::_Tmap_traits<int,TUnionInfo *,std::less<int>,std::allocator<std::pair<int const ,TUnionInfo *> >,0> >::~_Tree_val<std::_Tmap_traits<int,TUnionInfo *,std::less<int>,std::allocator<std::pair<int const ,TUnionInfo *> >,0> >
__ehhandler$??1?$map@HPAVTUnionInfo@@U?$less@H@std@@V?$allocator@U?$pair@$$CBHPAVTUnionInfo@@@std@@@3@@std@@QAE@XZ:
  00008	8b 54 24 08	 mov	 edx, DWORD PTR [esp+8]
  0000c	8d 42 0c	 lea	 eax, DWORD PTR [edx+12]
  0000f	8b 4a f0	 mov	 ecx, DWORD PTR [edx-16]
  00012	33 c8		 xor	 ecx, eax
  00014	e8 00 00 00 00	 call	 @__security_check_cookie@4
  00019	b8 00 00 00 00	 mov	 eax, OFFSET __ehfuncinfo$??1?$map@HPAVTUnionInfo@@U?$less@H@std@@V?$allocator@U?$pair@$$CBHPAVTUnionInfo@@@std@@@3@@std@@QAE@XZ
  0001e	e9 00 00 00 00	 jmp	 ___CxxFrameHandler3
text$x	ENDS
??1?$map@HPAVTUnionInfo@@U?$less@H@std@@V?$allocator@U?$pair@$$CBHPAVTUnionInfo@@@std@@@3@@std@@QAE@XZ ENDP ; std::map<int,TUnionInfo *,std::less<int>,std::allocator<std::pair<int const ,TUnionInfo *> > >::~map<int,TUnionInfo *,std::less<int>,std::allocator<std::pair<int const ,TUnionInfo *> > >
PUBLIC	??_7TUnion@@6B@					; TUnion::`vftable'
PUBLIC	??1TUnion@@UAE@XZ				; TUnion::~TUnion
PUBLIC	??_R4TUnion@@6B@				; TUnion::`RTTI Complete Object Locator'
PUBLIC	??_R0?AVTUnion@@@8				; TUnion `RTTI Type Descriptor'
PUBLIC	??_R3TUnion@@8					; TUnion::`RTTI Class Hierarchy Descriptor'
PUBLIC	??_R2TUnion@@8					; TUnion::`RTTI Base Class Array'
PUBLIC	??_R1A@?0A@EA@TUnion@@8				; TUnion::`RTTI Base Class Descriptor at (0,-1,0,64)'
EXTRN	??1TSync@@QAE@XZ:PROC				; TSync::~TSync
EXTRN	??_ETUnion@@UAEPAXI@Z:PROC			; TUnion::`vector deleting destructor'
;	COMDAT ??_R1A@?0A@EA@TUnion@@8
; File c:\program files (x86)\microsoft visual studio 10.0\vc\include\xmemory
rdata$r	SEGMENT
??_R1A@?0A@EA@TUnion@@8 DD FLAT:??_R0?AVTUnion@@@8	; TUnion::`RTTI Base Class Descriptor at (0,-1,0,64)'
	DD	00H
	DD	00H
	DD	0ffffffffH
	DD	00H
	DD	040H
	DD	FLAT:??_R3TUnion@@8
rdata$r	ENDS
;	COMDAT ??_R2TUnion@@8
rdata$r	SEGMENT
??_R2TUnion@@8 DD FLAT:??_R1A@?0A@EA@TUnion@@8		; TUnion::`RTTI Base Class Array'
rdata$r	ENDS
;	COMDAT ??_R3TUnion@@8
rdata$r	SEGMENT
??_R3TUnion@@8 DD 00H					; TUnion::`RTTI Class Hierarchy Descriptor'
	DD	00H
	DD	01H
	DD	FLAT:??_R2TUnion@@8
rdata$r	ENDS
;	COMDAT ??_R0?AVTUnion@@@8
_DATA	SEGMENT
??_R0?AVTUnion@@@8 DD FLAT:??_7type_info@@6B@		; TUnion `RTTI Type Descriptor'
	DD	00H
	DB	'.?AVTUnion@@', 00H
_DATA	ENDS
;	COMDAT ??_R4TUnion@@6B@
rdata$r	SEGMENT
??_R4TUnion@@6B@ DD 00H					; TUnion::`RTTI Complete Object Locator'
	DD	00H
	DD	00H
	DD	FLAT:??_R0?AVTUnion@@@8
	DD	FLAT:??_R3TUnion@@8
rdata$r	ENDS
;	COMDAT ??_7TUnion@@6B@
CONST	SEGMENT
??_7TUnion@@6B@ DD FLAT:??_R4TUnion@@6B@		; TUnion::`vftable'
	DD	FLAT:??_ETUnion@@UAEPAXI@Z
CONST	ENDS
;	COMDAT xdata$x
xdata$x	SEGMENT
__unwindtable$??1TUnion@@UAE@XZ DD 0ffffffffH
	DD	FLAT:__unwindfunclet$??1TUnion@@UAE@XZ$0
	DD	0ffffffffH
	DD	FLAT:__unwindfunclet$??1TUnion@@UAE@XZ$3
__ehfuncinfo$??1TUnion@@UAE@XZ DD 019930522H
	DD	02H
	DD	FLAT:__unwindtable$??1TUnion@@UAE@XZ
	DD	2 DUP(00H)
	DD	2 DUP(00H)
	DD	00H
	DD	01H
; Function compile flags: /Ogtp
; File c:\muserver_dev\development\mu-s8ep2-repack\gameserver\source\tunion.cpp
xdata$x	ENDS
;	COMDAT ??1TUnion@@UAE@XZ
_TEXT	SEGMENT
$T163944 = -20						; size = 4
$T163948 = -16						; size = 4
_this$ = -16						; size = 4
__$EHRec$ = -12						; size = 12
??1TUnion@@UAE@XZ PROC					; TUnion::~TUnion, COMDAT
; _this$ = ecx

; 18   : {

  00000	55		 push	 ebp
  00001	8b ec		 mov	 ebp, esp
  00003	6a ff		 push	 -1
  00005	68 00 00 00 00	 push	 __ehhandler$??1TUnion@@UAE@XZ
  0000a	64 a1 00 00 00
	00		 mov	 eax, DWORD PTR fs:0
  00010	50		 push	 eax
  00011	83 ec 08	 sub	 esp, 8
  00014	56		 push	 esi
  00015	a1 00 00 00 00	 mov	 eax, DWORD PTR ___security_cookie
  0001a	33 c5		 xor	 eax, ebp
  0001c	50		 push	 eax
  0001d	8d 45 f4	 lea	 eax, DWORD PTR __$EHRec$[ebp]
  00020	64 a3 00 00 00
	00		 mov	 DWORD PTR fs:0, eax
  00026	8b f1		 mov	 esi, ecx
  00028	89 75 f0	 mov	 DWORD PTR _this$[ebp], esi
  0002b	c7 06 00 00 00
	00		 mov	 DWORD PTR [esi], OFFSET ??_7TUnion@@6B@

; 19   : 	return;
; 20   : }

  00031	8d 4e 14	 lea	 ecx, DWORD PTR [esi+20]
  00034	c7 45 fc 00 00
	00 00		 mov	 DWORD PTR __$EHRec$[ebp+8], 0
  0003b	e8 00 00 00 00	 call	 ??1TSync@@QAE@XZ	; TSync::~TSync
  00040	83 c6 04	 add	 esi, 4
  00043	89 75 f0	 mov	 DWORD PTR $T163948[ebp], esi
  00046	8b 46 04	 mov	 eax, DWORD PTR [esi+4]
  00049	8b 08		 mov	 ecx, DWORD PTR [eax]
  0004b	50		 push	 eax
  0004c	51		 push	 ecx
  0004d	8d 45 ec	 lea	 eax, DWORD PTR $T163944[ebp]
  00050	50		 push	 eax
  00051	8b ce		 mov	 ecx, esi
  00053	c7 45 fc 01 00
	00 00		 mov	 DWORD PTR __$EHRec$[ebp+8], 1
  0005a	e8 00 00 00 00	 call	 ?erase@?$_Tree@V?$_Tmap_traits@HPAVTUnionInfo@@U?$less@H@std@@V?$allocator@U?$pair@$$CBHPAVTUnionInfo@@@std@@@3@$0A@@std@@@std@@QAE?AV?$_Tree_iterator@V?$_Tree_val@V?$_Tmap_traits@HPAVTUnionInfo@@U?$less@H@std@@V?$allocator@U?$pair@$$CBHPAVTUnionInfo@@@std@@@3@$0A@@std@@@std@@@2@V?$_Tree_const_iterator@V?$_Tree_val@V?$_Tmap_traits@HPAVTUnionInfo@@U?$less@H@std@@V?$allocator@U?$pair@$$CBHPAVTUnionInfo@@@std@@@3@$0A@@std@@@std@@@2@0@Z ; std::_Tree<std::_Tmap_traits<int,TUnionInfo *,std::less<int>,std::allocator<std::pair<int const ,TUnionInfo *> >,0> >::erase
  0005f	8b 4e 04	 mov	 ecx, DWORD PTR [esi+4]
  00062	51		 push	 ecx
  00063	e8 00 00 00 00	 call	 ??3@YAXPAX@Z		; operator delete
  00068	83 c4 04	 add	 esp, 4
  0006b	8b 4d f4	 mov	 ecx, DWORD PTR __$EHRec$[ebp]
  0006e	64 89 0d 00 00
	00 00		 mov	 DWORD PTR fs:0, ecx
  00075	59		 pop	 ecx
  00076	5e		 pop	 esi
  00077	8b e5		 mov	 esp, ebp
  00079	5d		 pop	 ebp
  0007a	c3		 ret	 0
_TEXT	ENDS
;	COMDAT text$x
text$x	SEGMENT
__unwindfunclet$??1TUnion@@UAE@XZ$0:
  00000	8b 4d f0	 mov	 ecx, DWORD PTR _this$[ebp]
  00003	83 c1 04	 add	 ecx, 4
  00006	e9 00 00 00 00	 jmp	 ??1?$map@HPAVTUnionInfo@@U?$less@H@std@@V?$allocator@U?$pair@$$CBHPAVTUnionInfo@@@std@@@3@@std@@QAE@XZ
__unwindfunclet$??1TUnion@@UAE@XZ$3:
  0000b	8b 4d f0	 mov	 ecx, DWORD PTR $T163948[ebp]
  0000e	e9 00 00 00 00	 jmp	 ??1?$_Tree_val@V?$_Tmap_traits@HPAVTUnionInfo@@U?$less@H@std@@V?$allocator@U?$pair@$$CBHPAVTUnionInfo@@@std@@@3@$0A@@std@@@std@@QAE@XZ ; std::_Tree_val<std::_Tmap_traits<int,TUnionInfo *,std::less<int>,std::allocator<std::pair<int const ,TUnionInfo *> >,0> >::~_Tree_val<std::_Tmap_traits<int,TUnionInfo *,std::less<int>,std::allocator<std::pair<int const ,TUnionInfo *> >,0> >
__ehhandler$??1TUnion@@UAE@XZ:
  00013	8b 54 24 08	 mov	 edx, DWORD PTR [esp+8]
  00017	8d 42 0c	 lea	 eax, DWORD PTR [edx+12]
  0001a	8b 4a f0	 mov	 ecx, DWORD PTR [edx-16]
  0001d	33 c8		 xor	 ecx, eax
  0001f	e8 00 00 00 00	 call	 @__security_check_cookie@4
  00024	b8 00 00 00 00	 mov	 eax, OFFSET __ehfuncinfo$??1TUnion@@UAE@XZ
  00029	e9 00 00 00 00	 jmp	 ___CxxFrameHandler3
text$x	ENDS
??1TUnion@@UAE@XZ ENDP					; TUnion::~TUnion
PUBLIC	?SearchUnion@TUnion@@QAEPAVTUnionInfo@@H@Z	; TUnion::SearchUnion
; Function compile flags: /Ogtp
;	COMDAT ?SearchUnion@TUnion@@QAEPAVTUnionInfo@@H@Z
_TEXT	SEGMENT
__Itor$ = -4						; size = 4
_iMasterGuildNumber$ = 8				; size = 4
?SearchUnion@TUnion@@QAEPAVTUnionInfo@@H@Z PROC		; TUnion::SearchUnion, COMDAT
; _this$ = ecx

; 83   : {

  00000	55		 push	 ebp
  00001	8b ec		 mov	 ebp, esp
  00003	51		 push	 ecx
  00004	53		 push	 ebx
  00005	56		 push	 esi
  00006	8b f1		 mov	 esi, ecx
  00008	57		 push	 edi

; 84   : 	this->m_Sync.Lock();

  00009	8d 4e 14	 lea	 ecx, DWORD PTR [esi+20]
  0000c	e8 00 00 00 00	 call	 ?Lock@TSync@@QAEXXZ	; TSync::Lock

; 85   : 
; 86   : 	std::map<int, TUnionInfo *>::iterator _Itor = this->m_mpUnion.find(iMasterGuildNumber);

  00011	8d 45 08	 lea	 eax, DWORD PTR _iMasterGuildNumber$[ebp]
  00014	50		 push	 eax
  00015	8d 4d fc	 lea	 ecx, DWORD PTR __Itor$[ebp]
  00018	51		 push	 ecx
  00019	8d 4e 04	 lea	 ecx, DWORD PTR [esi+4]
  0001c	e8 00 00 00 00	 call	 ?find@?$_Tree@V?$_Tmap_traits@HPAVTUnionInfo@@U?$less@H@std@@V?$allocator@U?$pair@$$CBHPAVTUnionInfo@@@std@@@3@$0A@@std@@@std@@QAE?AV?$_Tree_iterator@V?$_Tree_val@V?$_Tmap_traits@HPAVTUnionInfo@@U?$less@H@std@@V?$allocator@U?$pair@$$CBHPAVTUnionInfo@@@std@@@3@$0A@@std@@@std@@@2@ABH@Z ; std::_Tree<std::_Tmap_traits<int,TUnionInfo *,std::less<int>,std::allocator<std::pair<int const ,TUnionInfo *> >,0> >::find

; 87   : 
; 88   : 	if ( _Itor != this->m_mpUnion.end() )

  00021	8b 5d fc	 mov	 ebx, DWORD PTR __Itor$[ebp]

; 89   : 	{
; 90   : 		this->m_Sync.Unlock();

  00024	8d 4e 14	 lea	 ecx, DWORD PTR [esi+20]
  00027	3b 5e 08	 cmp	 ebx, DWORD PTR [esi+8]
  0002a	74 11		 je	 SHORT $LN1@SearchUnio
  0002c	e8 00 00 00 00	 call	 ?Unlock@TSync@@QAEXXZ	; TSync::Unlock

; 91   : 		return (*(_Itor)).second;

  00031	8b 43 10	 mov	 eax, DWORD PTR [ebx+16]
  00034	5f		 pop	 edi
  00035	5e		 pop	 esi
  00036	5b		 pop	 ebx

; 96   : }

  00037	8b e5		 mov	 esp, ebp
  00039	5d		 pop	 ebp
  0003a	c2 04 00	 ret	 4
$LN1@SearchUnio:

; 92   : 	}
; 93   : 
; 94   : 	this->m_Sync.Unlock();

  0003d	e8 00 00 00 00	 call	 ?Unlock@TSync@@QAEXXZ	; TSync::Unlock
  00042	5f		 pop	 edi
  00043	5e		 pop	 esi

; 95   : 	return NULL;

  00044	33 c0		 xor	 eax, eax
  00046	5b		 pop	 ebx

; 96   : }

  00047	8b e5		 mov	 esp, ebp
  00049	5d		 pop	 ebp
  0004a	c2 04 00	 ret	 4
?SearchUnion@TUnion@@QAEPAVTUnionInfo@@H@Z ENDP		; TUnion::SearchUnion
_TEXT	ENDS
PUBLIC	?DelUnion@TUnion@@QAEHH@Z			; TUnion::DelUnion
; Function compile flags: /Ogtp
;	COMDAT ?DelUnion@TUnion@@QAEHH@Z
_TEXT	SEGMENT
__Where$164057 = -8					; size = 8
$T164047 = 8						; size = 4
_iMasterGuildNumber$ = 8				; size = 4
?DelUnion@TUnion@@QAEHH@Z PROC				; TUnion::DelUnion, COMDAT
; _this$ = ecx

; 120  : {

  00000	55		 push	 ebp
  00001	8b ec		 mov	 ebp, esp

; 121  : 
; 122  : 	TUnionInfo * pUnionInfo = this->SearchUnion(iMasterGuildNumber);

  00003	8b 45 08	 mov	 eax, DWORD PTR _iMasterGuildNumber$[ebp]
  00006	83 ec 08	 sub	 esp, 8
  00009	53		 push	 ebx
  0000a	57		 push	 edi
  0000b	50		 push	 eax
  0000c	8b f9		 mov	 edi, ecx
  0000e	e8 00 00 00 00	 call	 ?SearchUnion@TUnion@@QAEPAVTUnionInfo@@H@Z ; TUnion::SearchUnion
  00013	8b d8		 mov	 ebx, eax

; 123  : 
; 124  : 	if ( pUnionInfo != NULL )

  00015	85 db		 test	 ebx, ebx
  00017	74 4d		 je	 SHORT $LN1@DelUnion

; 125  : 	{
; 126  : 		this->m_Sync.Lock();

  00019	56		 push	 esi
  0001a	8d 4f 14	 lea	 ecx, DWORD PTR [edi+20]
  0001d	e8 00 00 00 00	 call	 ?Lock@TSync@@QAEXXZ	; TSync::Lock

; 127  : 		this->m_mpUnion.erase(iMasterGuildNumber);

  00022	8d 4d 08	 lea	 ecx, DWORD PTR _iMasterGuildNumber$[ebp]
  00025	51		 push	 ecx
  00026	8d 55 f8	 lea	 edx, DWORD PTR __Where$164057[ebp]
  00029	52		 push	 edx
  0002a	8d 4f 04	 lea	 ecx, DWORD PTR [edi+4]
  0002d	e8 00 00 00 00	 call	 ?_Eqrange@?$_Tree@V?$_Tmap_traits@HPAVTUnionInfo@@U?$less@H@std@@V?$allocator@U?$pair@$$CBHPAVTUnionInfo@@@std@@@3@$0A@@std@@@std@@IAE?AU?$pair@V?$_Tree_iterator@V?$_Tree_val@V?$_Tmap_traits@HPAVTUnionInfo@@U?$less@H@std@@V?$allocator@U?$pair@$$CBHPAVTUnionInfo@@@std@@@3@$0A@@std@@@std@@@std@@V12@@2@ABH@Z ; std::_Tree<std::_Tmap_traits<int,TUnionInfo *,std::less<int>,std::allocator<std::pair<int const ,TUnionInfo *> >,0> >::_Eqrange
  00032	8b 45 fc	 mov	 eax, DWORD PTR __Where$164057[ebp+4]
  00035	8b 4d f8	 mov	 ecx, DWORD PTR __Where$164057[ebp]
  00038	50		 push	 eax
  00039	51		 push	 ecx
  0003a	8d 55 08	 lea	 edx, DWORD PTR $T164047[ebp]
  0003d	52		 push	 edx
  0003e	8d 4f 04	 lea	 ecx, DWORD PTR [edi+4]
  00041	e8 00 00 00 00	 call	 ?erase@?$_Tree@V?$_Tmap_traits@HPAVTUnionInfo@@U?$less@H@std@@V?$allocator@U?$pair@$$CBHPAVTUnionInfo@@@std@@@3@$0A@@std@@@std@@QAE?AV?$_Tree_iterator@V?$_Tree_val@V?$_Tmap_traits@HPAVTUnionInfo@@U?$less@H@std@@V?$allocator@U?$pair@$$CBHPAVTUnionInfo@@@std@@@3@$0A@@std@@@std@@@2@V?$_Tree_const_iterator@V?$_Tree_val@V?$_Tmap_traits@HPAVTUnionInfo@@U?$less@H@std@@V?$allocator@U?$pair@$$CBHPAVTUnionInfo@@@std@@@3@$0A@@std@@@std@@@2@0@Z ; std::_Tree<std::_Tmap_traits<int,TUnionInfo *,std::less<int>,std::allocator<std::pair<int const ,TUnionInfo *> >,0> >::erase

; 128  : 		delete pUnionInfo;

  00046	8b 03		 mov	 eax, DWORD PTR [ebx]
  00048	8b 10		 mov	 edx, DWORD PTR [eax]
  0004a	6a 01		 push	 1
  0004c	8b cb		 mov	 ecx, ebx
  0004e	ff d2		 call	 edx

; 129  : 		this->m_Sync.Unlock();

  00050	8d 4f 14	 lea	 ecx, DWORD PTR [edi+20]
  00053	e8 00 00 00 00	 call	 ?Unlock@TSync@@QAEXXZ	; TSync::Unlock
  00058	5e		 pop	 esi
  00059	5f		 pop	 edi

; 130  : 		return TRUE;

  0005a	b8 01 00 00 00	 mov	 eax, 1
  0005f	5b		 pop	 ebx

; 134  : }

  00060	8b e5		 mov	 esp, ebp
  00062	5d		 pop	 ebp
  00063	c2 04 00	 ret	 4
$LN1@DelUnion:
  00066	5f		 pop	 edi

; 131  : 	}
; 132  : 
; 133  : 	return -1;

  00067	83 c8 ff	 or	 eax, -1
  0006a	5b		 pop	 ebx

; 134  : }

  0006b	8b e5		 mov	 esp, ebp
  0006d	5d		 pop	 ebp
  0006e	c2 04 00	 ret	 4
?DelUnion@TUnion@@QAEHH@Z ENDP				; TUnion::DelUnion
_TEXT	ENDS
PUBLIC	?SetGuildUnionMemberList@TUnion@@QAEHHHPBH@Z	; TUnion::SetGuildUnionMemberList
EXTRN	?Clear@TUnionInfo@@QAEXH@Z:PROC			; TUnionInfo::Clear
; Function compile flags: /Ogtp
;	COMDAT ?SetGuildUnionMemberList@TUnion@@QAEHHHPBH@Z
_TEXT	SEGMENT
tv417 = -4						; size = 4
_i$155913 = 8						; size = 4
_iMasterGuildNumber$ = 8				; size = 4
_iCount$ = 12						; size = 4
tv556 = 16						; size = 4
_iList$ = 16						; size = 4
?SetGuildUnionMemberList@TUnion@@QAEHHHPBH@Z PROC	; TUnion::SetGuildUnionMemberList, COMDAT
; _this$ = ecx

; 138  : {

  00000	55		 push	 ebp
  00001	8b ec		 mov	 ebp, esp
  00003	51		 push	 ecx

; 139  : 	TUnionInfo * pUnionInfo = this->SearchUnion(iMasterGuildNumber);

  00004	8b 45 08	 mov	 eax, DWORD PTR _iMasterGuildNumber$[ebp]
  00007	56		 push	 esi
  00008	57		 push	 edi
  00009	50		 push	 eax
  0000a	8b f9		 mov	 edi, ecx
  0000c	e8 00 00 00 00	 call	 ?SearchUnion@TUnion@@QAEPAVTUnionInfo@@H@Z ; TUnion::SearchUnion
  00011	8b f0		 mov	 esi, eax

; 140  : 
; 141  : 	if ( pUnionInfo != NULL )

  00013	85 f6		 test	 esi, esi
  00015	0f 84 39 01 00
	00		 je	 $LN4@SetGuildUn

; 142  : 	{
; 143  : 		pUnionInfo->Clear(1);

  0001b	6a 01		 push	 1
  0001d	8b ce		 mov	 ecx, esi
  0001f	e8 00 00 00 00	 call	 ?Clear@TUnionInfo@@QAEXH@Z ; TUnionInfo::Clear

; 144  : 		this->m_Sync.Lock();

  00024	83 c7 14	 add	 edi, 20			; 00000014H
  00027	8b cf		 mov	 ecx, edi
  00029	89 7d fc	 mov	 DWORD PTR tv417[ebp], edi
  0002c	e8 00 00 00 00	 call	 ?Lock@TSync@@QAEXXZ	; TSync::Lock

; 145  : 
; 146  : 		for ( int i=0;i<iCount;i++)

  00031	83 7d 0c 00	 cmp	 DWORD PTR _iCount$[ebp], 0
  00035	c7 45 08 00 00
	00 00		 mov	 DWORD PTR _i$155913[ebp], 0
  0003c	0f 8e f4 00 00
	00		 jle	 $LN1@SetGuildUn

; 142  : 	{
; 143  : 		pUnionInfo->Clear(1);

  00042	53		 push	 ebx
  00043	8b 5d 10	 mov	 ebx, DWORD PTR _iList$[ebp]
  00046	89 5d 10	 mov	 DWORD PTR tv556[ebp], ebx
  00049	8d a4 24 00 00
	00 00		 npad	 7
$LL3@SetGuildUn:

; 147  : 		{
; 148  : 			pUnionInfo->m_vtUnionMember.push_back(iList[i]);

  00050	8b 46 20	 mov	 eax, DWORD PTR [esi+32]
  00053	3b d8		 cmp	 ebx, eax
  00055	73 6c		 jae	 SHORT $LN10@SetGuildUn
  00057	8b 56 1c	 mov	 edx, DWORD PTR [esi+28]
  0005a	3b d3		 cmp	 edx, ebx
  0005c	77 65		 ja	 SHORT $LN10@SetGuildUn
  0005e	8b 4e 24	 mov	 ecx, DWORD PTR [esi+36]
  00061	8b fb		 mov	 edi, ebx
  00063	2b fa		 sub	 edi, edx
  00065	c1 ff 02	 sar	 edi, 2
  00068	3b c1		 cmp	 eax, ecx
  0006a	75 41		 jne	 SHORT $LN21@SetGuildUn
  0006c	2b c2		 sub	 eax, edx
  0006e	c1 f8 02	 sar	 eax, 2
  00071	3d fe ff ff 3f	 cmp	 eax, 1073741822		; 3ffffffeH
  00076	0f 87 ce 00 00
	00		 ja	 $LN92@SetGuildUn
  0007c	2b ca		 sub	 ecx, edx
  0007e	40		 inc	 eax
  0007f	c1 f9 02	 sar	 ecx, 2
  00082	3b c1		 cmp	 eax, ecx
  00084	76 27		 jbe	 SHORT $LN21@SetGuildUn
  00086	8b d1		 mov	 edx, ecx
  00088	d1 ea		 shr	 edx, 1
  0008a	bb ff ff ff 3f	 mov	 ebx, 1073741823		; 3fffffffH
  0008f	2b da		 sub	 ebx, edx
  00091	3b d9		 cmp	 ebx, ecx
  00093	73 04		 jae	 SHORT $LN43@SetGuildUn
  00095	33 c9		 xor	 ecx, ecx
  00097	eb 02		 jmp	 SHORT $LN44@SetGuildUn
$LN43@SetGuildUn:
  00099	03 ca		 add	 ecx, edx
$LN44@SetGuildUn:
  0009b	3b c8		 cmp	 ecx, eax
  0009d	73 02		 jae	 SHORT $LN40@SetGuildUn
  0009f	8b c8		 mov	 ecx, eax
$LN40@SetGuildUn:
  000a1	51		 push	 ecx
  000a2	8d 4e 1c	 lea	 ecx, DWORD PTR [esi+28]
  000a5	e8 00 00 00 00	 call	 ?reserve@?$vector@HV?$allocator@H@std@@@std@@QAEXI@Z ; std::vector<int,std::allocator<int> >::reserve
  000aa	8b 5d 10	 mov	 ebx, DWORD PTR tv556[ebp]
$LN21@SetGuildUn:
  000ad	8b 4e 1c	 mov	 ecx, DWORD PTR [esi+28]
  000b0	8b 46 20	 mov	 eax, DWORD PTR [esi+32]
  000b3	8d 14 b9	 lea	 edx, DWORD PTR [ecx+edi*4]
  000b6	52		 push	 edx
  000b7	50		 push	 eax
  000b8	8d 4e 28	 lea	 ecx, DWORD PTR [esi+40]
  000bb	51		 push	 ecx
  000bc	e8 00 00 00 00	 call	 ??$_Cons_val@V?$allocator@H@std@@HAAH@std@@YAXAAV?$allocator@H@0@PAHAAH@Z ; std::_Cons_val<std::allocator<int>,int,int &>
  000c1	eb 52		 jmp	 SHORT $LN98@SetGuildUn
$LN10@SetGuildUn:
  000c3	8b 4e 24	 mov	 ecx, DWORD PTR [esi+36]
  000c6	3b c1		 cmp	 eax, ecx
  000c8	75 3d		 jne	 SHORT $LN96@SetGuildUn
  000ca	8b 56 1c	 mov	 edx, DWORD PTR [esi+28]
  000cd	2b c2		 sub	 eax, edx
  000cf	c1 f8 02	 sar	 eax, 2
  000d2	3d fe ff ff 3f	 cmp	 eax, 1073741822		; 3ffffffeH
  000d7	77 71		 ja	 SHORT $LN92@SetGuildUn
  000d9	2b ca		 sub	 ecx, edx
  000db	40		 inc	 eax
  000dc	c1 f9 02	 sar	 ecx, 2
  000df	3b c1		 cmp	 eax, ecx
  000e1	76 24		 jbe	 SHORT $LN96@SetGuildUn
  000e3	8b d1		 mov	 edx, ecx
  000e5	d1 ea		 shr	 edx, 1
  000e7	bf ff ff ff 3f	 mov	 edi, 1073741823		; 3fffffffH
  000ec	2b fa		 sub	 edi, edx
  000ee	3b f9		 cmp	 edi, ecx
  000f0	73 04		 jae	 SHORT $LN78@SetGuildUn
  000f2	33 c9		 xor	 ecx, ecx
  000f4	eb 02		 jmp	 SHORT $LN79@SetGuildUn
$LN78@SetGuildUn:
  000f6	03 ca		 add	 ecx, edx
$LN79@SetGuildUn:
  000f8	3b c8		 cmp	 ecx, eax
  000fa	73 02		 jae	 SHORT $LN75@SetGuildUn
  000fc	8b c8		 mov	 ecx, eax
$LN75@SetGuildUn:
  000fe	51		 push	 ecx
  000ff	8d 4e 1c	 lea	 ecx, DWORD PTR [esi+28]
  00102	e8 00 00 00 00	 call	 ?reserve@?$vector@HV?$allocator@H@std@@@std@@QAEXI@Z ; std::vector<int,std::allocator<int> >::reserve
$LN96@SetGuildUn:
  00107	8b 56 20	 mov	 edx, DWORD PTR [esi+32]
  0010a	53		 push	 ebx
  0010b	52		 push	 edx
  0010c	8d 46 28	 lea	 eax, DWORD PTR [esi+40]
  0010f	50		 push	 eax
  00110	e8 00 00 00 00	 call	 ??$_Cons_val@V?$allocator@H@std@@HABH@std@@YAXAAV?$allocator@H@0@PAHABH@Z ; std::_Cons_val<std::allocator<int>,int,int const &>
$LN98@SetGuildUn:
  00115	8b 45 08	 mov	 eax, DWORD PTR _i$155913[ebp]
  00118	83 46 20 04	 add	 DWORD PTR [esi+32], 4
  0011c	40		 inc	 eax
  0011d	83 c3 04	 add	 ebx, 4
  00120	83 c4 0c	 add	 esp, 12			; 0000000cH
  00123	89 45 08	 mov	 DWORD PTR _i$155913[ebp], eax
  00126	89 5d 10	 mov	 DWORD PTR tv556[ebp], ebx
  00129	3b 45 0c	 cmp	 eax, DWORD PTR _iCount$[ebp]
  0012c	0f 8c 1e ff ff
	ff		 jl	 $LL3@SetGuildUn
  00132	8b 7d fc	 mov	 edi, DWORD PTR tv417[ebp]
  00135	5b		 pop	 ebx
$LN1@SetGuildUn:

; 149  : 		}
; 150  : 
; 151  : 		this->m_Sync.Unlock();

  00136	8b cf		 mov	 ecx, edi
  00138	e8 00 00 00 00	 call	 ?Unlock@TSync@@QAEXXZ	; TSync::Unlock
  0013d	5f		 pop	 edi

; 152  : 		return TRUE;

  0013e	b8 01 00 00 00	 mov	 eax, 1
  00143	5e		 pop	 esi

; 156  : }

  00144	8b e5		 mov	 esp, ebp
  00146	5d		 pop	 ebp
  00147	c2 0c 00	 ret	 12			; 0000000cH
$LN92@SetGuildUn:

; 147  : 		{
; 148  : 			pUnionInfo->m_vtUnionMember.push_back(iList[i]);

  0014a	68 00 00 00 00	 push	 OFFSET ??_C@_0BD@OLBABOEK@vector?$DMT?$DO?5too?5long?$AA@
  0014f	e8 00 00 00 00	 call	 ?_Xlength_error@std@@YAXPBD@Z ; std::_Xlength_error
$LN99@SetGuildUn:
$LN4@SetGuildUn:
  00154	5f		 pop	 edi

; 153  : 	}
; 154  : 
; 155  : 	return -1;

  00155	83 c8 ff	 or	 eax, -1
  00158	5e		 pop	 esi

; 156  : }

  00159	8b e5		 mov	 esp, ebp
  0015b	5d		 pop	 ebp
  0015c	c2 0c 00	 ret	 12			; 0000000cH
$LN97@SetGuildUn:
?SetGuildUnionMemberList@TUnion@@QAEHHHPBH@Z ENDP	; TUnion::SetGuildUnionMemberList
_TEXT	ENDS
PUBLIC	?SetGuildRivalMemberList@TUnion@@QAEHHHPBH@Z	; TUnion::SetGuildRivalMemberList
; Function compile flags: /Ogtp
;	COMDAT ?SetGuildRivalMemberList@TUnion@@QAEHHHPBH@Z
_TEXT	SEGMENT
tv417 = -4						; size = 4
_i$155925 = 8						; size = 4
_iMasterGuildNumber$ = 8				; size = 4
_iCount$ = 12						; size = 4
tv556 = 16						; size = 4
_iList$ = 16						; size = 4
?SetGuildRivalMemberList@TUnion@@QAEHHHPBH@Z PROC	; TUnion::SetGuildRivalMemberList, COMDAT
; _this$ = ecx

; 160  : {

  00000	55		 push	 ebp
  00001	8b ec		 mov	 ebp, esp
  00003	51		 push	 ecx

; 161  : 	TUnionInfo * pUnionInfo = this->SearchUnion(iMasterGuildNumber);

  00004	8b 45 08	 mov	 eax, DWORD PTR _iMasterGuildNumber$[ebp]
  00007	56		 push	 esi
  00008	57		 push	 edi
  00009	50		 push	 eax
  0000a	8b f9		 mov	 edi, ecx
  0000c	e8 00 00 00 00	 call	 ?SearchUnion@TUnion@@QAEPAVTUnionInfo@@H@Z ; TUnion::SearchUnion
  00011	8b f0		 mov	 esi, eax

; 162  : 
; 163  : 	if ( pUnionInfo != NULL )

  00013	85 f6		 test	 esi, esi
  00015	0f 84 39 01 00
	00		 je	 $LN4@SetGuildRi

; 164  : 	{
; 165  : 		pUnionInfo->Clear(2);

  0001b	6a 02		 push	 2
  0001d	8b ce		 mov	 ecx, esi
  0001f	e8 00 00 00 00	 call	 ?Clear@TUnionInfo@@QAEXH@Z ; TUnionInfo::Clear

; 166  : 		this->m_Sync.Lock();

  00024	83 c7 14	 add	 edi, 20			; 00000014H
  00027	8b cf		 mov	 ecx, edi
  00029	89 7d fc	 mov	 DWORD PTR tv417[ebp], edi
  0002c	e8 00 00 00 00	 call	 ?Lock@TSync@@QAEXXZ	; TSync::Lock

; 167  : 
; 168  : 		for ( int i=0;i<iCount;i++)

  00031	83 7d 0c 00	 cmp	 DWORD PTR _iCount$[ebp], 0
  00035	c7 45 08 00 00
	00 00		 mov	 DWORD PTR _i$155925[ebp], 0
  0003c	0f 8e f4 00 00
	00		 jle	 $LN1@SetGuildRi

; 164  : 	{
; 165  : 		pUnionInfo->Clear(2);

  00042	53		 push	 ebx
  00043	8b 5d 10	 mov	 ebx, DWORD PTR _iList$[ebp]
  00046	89 5d 10	 mov	 DWORD PTR tv556[ebp], ebx
  00049	8d a4 24 00 00
	00 00		 npad	 7
$LL3@SetGuildRi:

; 169  : 		{
; 170  : 			pUnionInfo->m_vtRivalMember.push_back(iList[i]);

  00050	8b 46 30	 mov	 eax, DWORD PTR [esi+48]
  00053	3b d8		 cmp	 ebx, eax
  00055	73 6c		 jae	 SHORT $LN10@SetGuildRi
  00057	8b 56 2c	 mov	 edx, DWORD PTR [esi+44]
  0005a	3b d3		 cmp	 edx, ebx
  0005c	77 65		 ja	 SHORT $LN10@SetGuildRi
  0005e	8b 4e 34	 mov	 ecx, DWORD PTR [esi+52]
  00061	8b fb		 mov	 edi, ebx
  00063	2b fa		 sub	 edi, edx
  00065	c1 ff 02	 sar	 edi, 2
  00068	3b c1		 cmp	 eax, ecx
  0006a	75 41		 jne	 SHORT $LN21@SetGuildRi
  0006c	2b c2		 sub	 eax, edx
  0006e	c1 f8 02	 sar	 eax, 2
  00071	3d fe ff ff 3f	 cmp	 eax, 1073741822		; 3ffffffeH
  00076	0f 87 ce 00 00
	00		 ja	 $LN92@SetGuildRi
  0007c	2b ca		 sub	 ecx, edx
  0007e	40		 inc	 eax
  0007f	c1 f9 02	 sar	 ecx, 2
  00082	3b c1		 cmp	 eax, ecx
  00084	76 27		 jbe	 SHORT $LN21@SetGuildRi
  00086	8b d1		 mov	 edx, ecx
  00088	d1 ea		 shr	 edx, 1
  0008a	bb ff ff ff 3f	 mov	 ebx, 1073741823		; 3fffffffH
  0008f	2b da		 sub	 ebx, edx
  00091	3b d9		 cmp	 ebx, ecx
  00093	73 04		 jae	 SHORT $LN43@SetGuildRi
  00095	33 c9		 xor	 ecx, ecx
  00097	eb 02		 jmp	 SHORT $LN44@SetGuildRi
$LN43@SetGuildRi:
  00099	03 ca		 add	 ecx, edx
$LN44@SetGuildRi:
  0009b	3b c8		 cmp	 ecx, eax
  0009d	73 02		 jae	 SHORT $LN40@SetGuildRi
  0009f	8b c8		 mov	 ecx, eax
$LN40@SetGuildRi:
  000a1	51		 push	 ecx
  000a2	8d 4e 2c	 lea	 ecx, DWORD PTR [esi+44]
  000a5	e8 00 00 00 00	 call	 ?reserve@?$vector@HV?$allocator@H@std@@@std@@QAEXI@Z ; std::vector<int,std::allocator<int> >::reserve
  000aa	8b 5d 10	 mov	 ebx, DWORD PTR tv556[ebp]
$LN21@SetGuildRi:
  000ad	8b 4e 2c	 mov	 ecx, DWORD PTR [esi+44]
  000b0	8b 46 30	 mov	 eax, DWORD PTR [esi+48]
  000b3	8d 14 b9	 lea	 edx, DWORD PTR [ecx+edi*4]
  000b6	52		 push	 edx
  000b7	50		 push	 eax
  000b8	8d 4e 38	 lea	 ecx, DWORD PTR [esi+56]
  000bb	51		 push	 ecx
  000bc	e8 00 00 00 00	 call	 ??$_Cons_val@V?$allocator@H@std@@HAAH@std@@YAXAAV?$allocator@H@0@PAHAAH@Z ; std::_Cons_val<std::allocator<int>,int,int &>
  000c1	eb 52		 jmp	 SHORT $LN98@SetGuildRi
$LN10@SetGuildRi:
  000c3	8b 4e 34	 mov	 ecx, DWORD PTR [esi+52]
  000c6	3b c1		 cmp	 eax, ecx
  000c8	75 3d		 jne	 SHORT $LN96@SetGuildRi
  000ca	8b 56 2c	 mov	 edx, DWORD PTR [esi+44]
  000cd	2b c2		 sub	 eax, edx
  000cf	c1 f8 02	 sar	 eax, 2
  000d2	3d fe ff ff 3f	 cmp	 eax, 1073741822		; 3ffffffeH
  000d7	77 71		 ja	 SHORT $LN92@SetGuildRi
  000d9	2b ca		 sub	 ecx, edx
  000db	40		 inc	 eax
  000dc	c1 f9 02	 sar	 ecx, 2
  000df	3b c1		 cmp	 eax, ecx
  000e1	76 24		 jbe	 SHORT $LN96@SetGuildRi
  000e3	8b d1		 mov	 edx, ecx
  000e5	d1 ea		 shr	 edx, 1
  000e7	bf ff ff ff 3f	 mov	 edi, 1073741823		; 3fffffffH
  000ec	2b fa		 sub	 edi, edx
  000ee	3b f9		 cmp	 edi, ecx
  000f0	73 04		 jae	 SHORT $LN78@SetGuildRi
  000f2	33 c9		 xor	 ecx, ecx
  000f4	eb 02		 jmp	 SHORT $LN79@SetGuildRi
$LN78@SetGuildRi:
  000f6	03 ca		 add	 ecx, edx
$LN79@SetGuildRi:
  000f8	3b c8		 cmp	 ecx, eax
  000fa	73 02		 jae	 SHORT $LN75@SetGuildRi
  000fc	8b c8		 mov	 ecx, eax
$LN75@SetGuildRi:
  000fe	51		 push	 ecx
  000ff	8d 4e 2c	 lea	 ecx, DWORD PTR [esi+44]
  00102	e8 00 00 00 00	 call	 ?reserve@?$vector@HV?$allocator@H@std@@@std@@QAEXI@Z ; std::vector<int,std::allocator<int> >::reserve
$LN96@SetGuildRi:
  00107	8b 56 30	 mov	 edx, DWORD PTR [esi+48]
  0010a	53		 push	 ebx
  0010b	52		 push	 edx
  0010c	8d 46 38	 lea	 eax, DWORD PTR [esi+56]
  0010f	50		 push	 eax
  00110	e8 00 00 00 00	 call	 ??$_Cons_val@V?$allocator@H@std@@HABH@std@@YAXAAV?$allocator@H@0@PAHABH@Z ; std::_Cons_val<std::allocator<int>,int,int const &>
$LN98@SetGuildRi:
  00115	8b 45 08	 mov	 eax, DWORD PTR _i$155925[ebp]
  00118	83 46 30 04	 add	 DWORD PTR [esi+48], 4
  0011c	40		 inc	 eax
  0011d	83 c3 04	 add	 ebx, 4
  00120	83 c4 0c	 add	 esp, 12			; 0000000cH
  00123	89 45 08	 mov	 DWORD PTR _i$155925[ebp], eax
  00126	89 5d 10	 mov	 DWORD PTR tv556[ebp], ebx
  00129	3b 45 0c	 cmp	 eax, DWORD PTR _iCount$[ebp]
  0012c	0f 8c 1e ff ff
	ff		 jl	 $LL3@SetGuildRi
  00132	8b 7d fc	 mov	 edi, DWORD PTR tv417[ebp]
  00135	5b		 pop	 ebx
$LN1@SetGuildRi:

; 171  : 		}
; 172  : 
; 173  : 		this->m_Sync.Unlock();

  00136	8b cf		 mov	 ecx, edi
  00138	e8 00 00 00 00	 call	 ?Unlock@TSync@@QAEXXZ	; TSync::Unlock
  0013d	5f		 pop	 edi

; 174  : 		return TRUE;

  0013e	b8 01 00 00 00	 mov	 eax, 1
  00143	5e		 pop	 esi

; 178  : }

  00144	8b e5		 mov	 esp, ebp
  00146	5d		 pop	 ebp
  00147	c2 0c 00	 ret	 12			; 0000000cH
$LN92@SetGuildRi:

; 169  : 		{
; 170  : 			pUnionInfo->m_vtRivalMember.push_back(iList[i]);

  0014a	68 00 00 00 00	 push	 OFFSET ??_C@_0BD@OLBABOEK@vector?$DMT?$DO?5too?5long?$AA@
  0014f	e8 00 00 00 00	 call	 ?_Xlength_error@std@@YAXPBD@Z ; std::_Xlength_error
$LN99@SetGuildRi:
$LN4@SetGuildRi:
  00154	5f		 pop	 edi

; 175  : 	}
; 176  : 
; 177  : 	return -1;

  00155	83 c8 ff	 or	 eax, -1
  00158	5e		 pop	 esi

; 178  : }

  00159	8b e5		 mov	 esp, ebp
  0015b	5d		 pop	 ebp
  0015c	c2 0c 00	 ret	 12			; 0000000cH
$LN97@SetGuildRi:
?SetGuildRivalMemberList@TUnion@@QAEHHHPBH@Z ENDP	; TUnion::SetGuildRivalMemberList
_TEXT	ENDS
PUBLIC	?GetGuildUnionMemberList@TUnion@@QAEHHAAHPAH@Z	; TUnion::GetGuildUnionMemberList
; Function compile flags: /Ogtp
;	COMDAT ?GetGuildUnionMemberList@TUnion@@QAEHHAAHPAH@Z
_TEXT	SEGMENT
tv161 = 8						; size = 4
_iMasterGuildNumber$ = 8				; size = 4
_iCount$ = 12						; size = 4
_iList$ = 16						; size = 4
?GetGuildUnionMemberList@TUnion@@QAEHHAAHPAH@Z PROC	; TUnion::GetGuildUnionMemberList, COMDAT
; _this$ = ecx

; 181  : {

  00000	55		 push	 ebp
  00001	8b ec		 mov	 ebp, esp

; 182  : 	TUnionInfo * pUnionInfo = this->SearchUnion(iMasterGuildNumber);

  00003	8b 45 08	 mov	 eax, DWORD PTR _iMasterGuildNumber$[ebp]
  00006	53		 push	 ebx
  00007	56		 push	 esi
  00008	57		 push	 edi
  00009	50		 push	 eax
  0000a	8b d9		 mov	 ebx, ecx
  0000c	e8 00 00 00 00	 call	 ?SearchUnion@TUnion@@QAEPAVTUnionInfo@@H@Z ; TUnion::SearchUnion
  00011	8b f0		 mov	 esi, eax

; 183  : 
; 184  : 	if (pUnionInfo != NULL) {

  00013	85 f6		 test	 esi, esi
  00015	74 65		 je	 SHORT $LN1@GetGuildUn

; 185  : 		this->m_Sync.Lock();

  00017	83 c3 14	 add	 ebx, 20			; 00000014H
  0001a	8b cb		 mov	 ecx, ebx
  0001c	89 5d 08	 mov	 DWORD PTR tv161[ebp], ebx
  0001f	e8 00 00 00 00	 call	 ?Lock@TSync@@QAEXXZ	; TSync::Lock

; 186  : 
; 187  : 		for (int i = 0; i < pUnionInfo->m_vtUnionMember.size(); i++) {

  00024	8b 4e 20	 mov	 ecx, DWORD PTR [esi+32]
  00027	2b 4e 1c	 sub	 ecx, DWORD PTR [esi+28]
  0002a	8b 7d 0c	 mov	 edi, DWORD PTR _iCount$[ebp]
  0002d	c1 f9 02	 sar	 ecx, 2
  00030	33 c0		 xor	 eax, eax
  00032	85 c9		 test	 ecx, ecx
  00034	74 28		 je	 SHORT $LN2@GetGuildUn
  00036	8b 4d 10	 mov	 ecx, DWORD PTR _iList$[ebp]
  00039	8d a4 24 00 00
	00 00		 npad	 7
$LL4@GetGuildUn:

; 188  : 			iList[iCount] = *&pUnionInfo->m_vtUnionMember[i];

  00040	8b 56 1c	 mov	 edx, DWORD PTR [esi+28]
  00043	8b 14 82	 mov	 edx, DWORD PTR [edx+eax*4]
  00046	8b 1f		 mov	 ebx, DWORD PTR [edi]
  00048	89 14 99	 mov	 DWORD PTR [ecx+ebx*4], edx

; 189  : 			iCount++;

  0004b	ff 07		 inc	 DWORD PTR [edi]
  0004d	8b 56 20	 mov	 edx, DWORD PTR [esi+32]
  00050	2b 56 1c	 sub	 edx, DWORD PTR [esi+28]
  00053	40		 inc	 eax
  00054	c1 fa 02	 sar	 edx, 2
  00057	3b c2		 cmp	 eax, edx
  00059	72 e5		 jb	 SHORT $LL4@GetGuildUn

; 186  : 
; 187  : 		for (int i = 0; i < pUnionInfo->m_vtUnionMember.size(); i++) {

  0005b	8b 5d 08	 mov	 ebx, DWORD PTR tv161[ebp]
$LN2@GetGuildUn:

; 190  : 		}
; 191  : 
; 192  : 		this->m_Sync.Unlock();

  0005e	8b cb		 mov	 ecx, ebx
  00060	e8 00 00 00 00	 call	 ?Unlock@TSync@@QAEXXZ	; TSync::Unlock

; 193  : 
; 194  : 		if (iCount > 0 &&  iCount < 100) {

  00065	8b 3f		 mov	 edi, DWORD PTR [edi]
  00067	85 ff		 test	 edi, edi
  00069	7e 11		 jle	 SHORT $LN1@GetGuildUn
  0006b	83 ff 64	 cmp	 edi, 100		; 00000064H
  0006e	7d 0c		 jge	 SHORT $LN1@GetGuildUn

; 195  : 			return 1;

  00070	5f		 pop	 edi
  00071	5e		 pop	 esi
  00072	b8 01 00 00 00	 mov	 eax, 1
  00077	5b		 pop	 ebx

; 200  : }

  00078	5d		 pop	 ebp
  00079	c2 0c 00	 ret	 12			; 0000000cH
$LN1@GetGuildUn:
  0007c	5f		 pop	 edi
  0007d	5e		 pop	 esi

; 196  : 		}
; 197  : 	}
; 198  : 
; 199  : 	return -1;

  0007e	83 c8 ff	 or	 eax, -1
  00081	5b		 pop	 ebx

; 200  : }

  00082	5d		 pop	 ebp
  00083	c2 0c 00	 ret	 12			; 0000000cH
?GetGuildUnionMemberList@TUnion@@QAEHHAAHPAH@Z ENDP	; TUnion::GetGuildUnionMemberList
_TEXT	ENDS
PUBLIC	?GetUnionName@TUnion@@QAEHHPAD@Z		; TUnion::GetUnionName
; Function compile flags: /Ogtp
;	COMDAT ?GetUnionName@TUnion@@QAEHHPAD@Z
_TEXT	SEGMENT
_iMasterGuildNumber$ = 8				; size = 4
_szMasterGuildName$ = 12				; size = 4
?GetUnionName@TUnion@@QAEHHPAD@Z PROC			; TUnion::GetUnionName, COMDAT
; _this$ = ecx

; 204  : {

  00000	55		 push	 ebp
  00001	8b ec		 mov	 ebp, esp

; 205  : 	TUnionInfo * pUnionInfo = this->SearchUnion(iMasterGuildNumber);

  00003	8b 45 08	 mov	 eax, DWORD PTR _iMasterGuildNumber$[ebp]
  00006	56		 push	 esi
  00007	57		 push	 edi
  00008	50		 push	 eax
  00009	8b f1		 mov	 esi, ecx
  0000b	e8 00 00 00 00	 call	 ?SearchUnion@TUnion@@QAEPAVTUnionInfo@@H@Z ; TUnion::SearchUnion
  00010	8b f8		 mov	 edi, eax

; 206  : 
; 207  : 	if ( pUnionInfo != NULL )

  00012	85 ff		 test	 edi, edi
  00014	74 29		 je	 SHORT $LN1@GetUnionNa

; 208  : 	{
; 209  : 		this->m_Sync.Lock();

  00016	8d 4e 14	 lea	 ecx, DWORD PTR [esi+20]
  00019	e8 00 00 00 00	 call	 ?Lock@TSync@@QAEXXZ	; TSync::Lock

; 210  : 		memcpy(szMasterGuildName, pUnionInfo->m_szMasterGuild, sizeof(pUnionInfo->m_szMasterGuild)-1);

  0001e	8b 4f 10	 mov	 ecx, DWORD PTR [edi+16]
  00021	8b 45 0c	 mov	 eax, DWORD PTR _szMasterGuildName$[ebp]
  00024	89 08		 mov	 DWORD PTR [eax], ecx
  00026	8b 57 14	 mov	 edx, DWORD PTR [edi+20]

; 211  : 		this->m_Sync.Unlock();

  00029	8d 4e 14	 lea	 ecx, DWORD PTR [esi+20]
  0002c	89 50 04	 mov	 DWORD PTR [eax+4], edx
  0002f	e8 00 00 00 00	 call	 ?Unlock@TSync@@QAEXXZ	; TSync::Unlock
  00034	5f		 pop	 edi

; 212  : 		return TRUE;

  00035	b8 01 00 00 00	 mov	 eax, 1
  0003a	5e		 pop	 esi

; 216  : }

  0003b	5d		 pop	 ebp
  0003c	c2 08 00	 ret	 8
$LN1@GetUnionNa:
  0003f	5f		 pop	 edi

; 213  : 	}
; 214  : 
; 215  : 	return -1;

  00040	83 c8 ff	 or	 eax, -1
  00043	5e		 pop	 esi

; 216  : }

  00044	5d		 pop	 ebp
  00045	c2 08 00	 ret	 8
?GetUnionName@TUnion@@QAEHHPAD@Z ENDP			; TUnion::GetUnionName
_TEXT	ENDS
PUBLIC	??0?$map@HPAVTUnionInfo@@U?$less@H@std@@V?$allocator@U?$pair@$$CBHPAVTUnionInfo@@@std@@@3@@std@@QAE@XZ ; std::map<int,TUnionInfo *,std::less<int>,std::allocator<std::pair<int const ,TUnionInfo *> > >::map<int,TUnionInfo *,std::less<int>,std::allocator<std::pair<int const ,TUnionInfo *> > >
; Function compile flags: /Ogtp
; File c:\program files (x86)\microsoft visual studio 10.0\vc\include\map
;	COMDAT ??0?$map@HPAVTUnionInfo@@U?$less@H@std@@V?$allocator@U?$pair@$$CBHPAVTUnionInfo@@@std@@@3@@std@@QAE@XZ
_TEXT	SEGMENT
$T164870 = -16						; size = 12
$T164763 = -4						; size = 4
??0?$map@HPAVTUnionInfo@@U?$less@H@std@@V?$allocator@U?$pair@$$CBHPAVTUnionInfo@@@std@@@3@@std@@QAE@XZ PROC ; std::map<int,TUnionInfo *,std::less<int>,std::allocator<std::pair<int const ,TUnionInfo *> > >::map<int,TUnionInfo *,std::less<int>,std::allocator<std::pair<int const ,TUnionInfo *> > >, COMDAT
; _this$ = ecx

; 106  : 		{	// construct empty map from defaults

  00000	55		 push	 ebp
  00001	8b ec		 mov	 ebp, esp
  00003	83 ec 10	 sub	 esp, 16			; 00000010H
  00006	56		 push	 esi
  00007	8b f1		 mov	 esi, ecx
  00009	6a 18		 push	 24			; 00000018H
  0000b	c7 46 08 00 00
	00 00		 mov	 DWORD PTR [esi+8], 0
  00012	e8 00 00 00 00	 call	 ??2@YAPAXI@Z		; operator new
  00017	83 c4 04	 add	 esp, 4
  0001a	85 c0		 test	 eax, eax
  0001c	74 26		 je	 SHORT $LN25@map
  0001e	89 46 04	 mov	 DWORD PTR [esi+4], eax
  00021	89 00		 mov	 DWORD PTR [eax], eax
  00023	8b 46 04	 mov	 eax, DWORD PTR [esi+4]
  00026	89 40 04	 mov	 DWORD PTR [eax+4], eax
  00029	8b 46 04	 mov	 eax, DWORD PTR [esi+4]
  0002c	89 40 08	 mov	 DWORD PTR [eax+8], eax
  0002f	8b 4e 04	 mov	 ecx, DWORD PTR [esi+4]
  00032	b0 01		 mov	 al, 1
  00034	88 41 14	 mov	 BYTE PTR [ecx+20], al
  00037	8b 56 04	 mov	 edx, DWORD PTR [esi+4]
  0003a	88 42 15	 mov	 BYTE PTR [edx+21], al

; 107  : 		}

  0003d	8b c6		 mov	 eax, esi
  0003f	5e		 pop	 esi
  00040	8b e5		 mov	 esp, ebp
  00042	5d		 pop	 ebp
  00043	c3		 ret	 0

; 106  : 		{	// construct empty map from defaults

$LN25@map:
  00044	8d 45 fc	 lea	 eax, DWORD PTR $T164763[ebp]
  00047	50		 push	 eax
  00048	8d 4d f0	 lea	 ecx, DWORD PTR $T164870[ebp]
  0004b	c7 45 fc 00 00
	00 00		 mov	 DWORD PTR $T164763[ebp], 0
  00052	e8 00 00 00 00	 call	 ??0exception@std@@QAE@ABQBD@Z ; std::exception::exception
  00057	68 00 00 00 00	 push	 OFFSET __TI2?AVbad_alloc@std@@
  0005c	8d 4d f0	 lea	 ecx, DWORD PTR $T164870[ebp]
  0005f	51		 push	 ecx
  00060	c7 45 f0 00 00
	00 00		 mov	 DWORD PTR $T164870[ebp], OFFSET ??_7bad_alloc@std@@6B@
  00067	e8 00 00 00 00	 call	 __CxxThrowException@8
$LN49@map:
$LN48@map:
  0006c	cc		 int	 3
??0?$map@HPAVTUnionInfo@@U?$less@H@std@@V?$allocator@U?$pair@$$CBHPAVTUnionInfo@@@std@@@3@@std@@QAE@XZ ENDP ; std::map<int,TUnionInfo *,std::less<int>,std::allocator<std::pair<int const ,TUnionInfo *> > >::map<int,TUnionInfo *,std::less<int>,std::allocator<std::pair<int const ,TUnionInfo *> > >
_TEXT	ENDS
PUBLIC	??$insert@U?$pair@$$CBHPAVTUnionInfo@@@std@@@?$_Tree@V?$_Tmap_traits@HPAVTUnionInfo@@U?$less@H@std@@V?$allocator@U?$pair@$$CBHPAVTUnionInfo@@@std@@@3@$0A@@std@@@std@@QAE?AV?$_Tree_iterator@V?$_Tree_val@V?$_Tmap_traits@HPAVTUnionInfo@@U?$less@H@std@@V?$allocator@U?$pair@$$CBHPAVTUnionInfo@@@std@@@3@$0A@@std@@@std@@@1@V?$_Tree_const_iterator@V?$_Tree_val@V?$_Tmap_traits@HPAVTUnionInfo@@U?$less@H@std@@V?$allocator@U?$pair@$$CBHPAVTUnionInfo@@@std@@@3@$0A@@std@@@std@@@1@$$QAU?$pair@$$CBHPAVTUnionInfo@@@1@@Z ; std::_Tree<std::_Tmap_traits<int,TUnionInfo *,std::less<int>,std::allocator<std::pair<int const ,TUnionInfo *> >,0> >::insert<std::pair<int const ,TUnionInfo *> >
; Function compile flags: /Ogtp
; File c:\program files (x86)\microsoft visual studio 10.0\vc\include\xtree
;	COMDAT ??$insert@U?$pair@$$CBHPAVTUnionInfo@@@std@@@?$_Tree@V?$_Tmap_traits@HPAVTUnionInfo@@U?$less@H@std@@V?$allocator@U?$pair@$$CBHPAVTUnionInfo@@@std@@@3@$0A@@std@@@std@@QAE?AV?$_Tree_iterator@V?$_Tree_val@V?$_Tmap_traits@HPAVTUnionInfo@@U?$less@H@std@@V?$allocator@U?$pair@$$CBHPAVTUnionInfo@@@std@@@3@$0A@@std@@@std@@@1@V?$_Tree_const_iterator@V?$_Tree_val@V?$_Tmap_traits@HPAVTUnionInfo@@U?$less@H@std@@V?$allocator@U?$pair@$$CBHPAVTUnionInfo@@@std@@@3@$0A@@std@@@std@@@1@$$QAU?$pair@$$CBHPAVTUnionInfo@@@1@@Z
_TEXT	SEGMENT
___$ReturnUdt$ = 8					; size = 4
__Where$ = 12						; size = 4
__Val$ = 16						; size = 4
??$insert@U?$pair@$$CBHPAVTUnionInfo@@@std@@@?$_Tree@V?$_Tmap_traits@HPAVTUnionInfo@@U?$less@H@std@@V?$allocator@U?$pair@$$CBHPAVTUnionInfo@@@std@@@3@$0A@@std@@@std@@QAE?AV?$_Tree_iterator@V?$_Tree_val@V?$_Tmap_traits@HPAVTUnionInfo@@U?$less@H@std@@V?$allocator@U?$pair@$$CBHPAVTUnionInfo@@@std@@@3@$0A@@std@@@std@@@1@V?$_Tree_const_iterator@V?$_Tree_val@V?$_Tmap_traits@HPAVTUnionInfo@@U?$less@H@std@@V?$allocator@U?$pair@$$CBHPAVTUnionInfo@@@std@@@3@$0A@@std@@@std@@@1@$$QAU?$pair@$$CBHPAVTUnionInfo@@@1@@Z PROC ; std::_Tree<std::_Tmap_traits<int,TUnionInfo *,std::less<int>,std::allocator<std::pair<int const ,TUnionInfo *> >,0> >::insert<std::pair<int const ,TUnionInfo *> >, COMDAT
; _this$ = ecx

; 760  : 		typename _STD tr1::enable_if<!_STD tr1::is_same<const_iterator,

  00000	55		 push	 ebp
  00001	8b ec		 mov	 ebp, esp

; 761  : 			typename _STD tr1::remove_reference<_Valty>::type>::value,
; 762  : 				iterator>::type
; 763  : 		insert(const_iterator _Where,
; 764  : 			_Valty&& _Val)
; 765  : 		{	// try to insert node with value _Val using _Where as a hint
; 766  : 		return (_Insert(_Where,
; 767  : 			this->_Buynode(_STD forward<_Valty>(_Val))));

  00003	8b 45 10	 mov	 eax, DWORD PTR __Val$[ebp]
  00006	56		 push	 esi
  00007	57		 push	 edi
  00008	50		 push	 eax
  00009	8b f1		 mov	 esi, ecx
  0000b	e8 00 00 00 00	 call	 ??$_Buynode@U?$pair@$$CBHPAVTUnionInfo@@@std@@@?$_Tree_val@V?$_Tmap_traits@HPAVTUnionInfo@@U?$less@H@std@@V?$allocator@U?$pair@$$CBHPAVTUnionInfo@@@std@@@3@$0A@@std@@@std@@QAEPAU_Node@?$_Tree_nod@V?$_Tmap_traits@HPAVTUnionInfo@@U?$less@H@std@@V?$allocator@U?$pair@$$CBHPAVTUnionInfo@@@std@@@3@$0A@@std@@@1@$$QAU?$pair@$$CBHPAVTUnionInfo@@@1@@Z ; std::_Tree_val<std::_Tmap_traits<int,TUnionInfo *,std::less<int>,std::allocator<std::pair<int const ,TUnionInfo *> >,0> >::_Buynode<std::pair<int const ,TUnionInfo *> >
  00010	8b 4d 0c	 mov	 ecx, DWORD PTR __Where$[ebp]
  00013	8b 7d 08	 mov	 edi, DWORD PTR ___$ReturnUdt$[ebp]
  00016	50		 push	 eax
  00017	51		 push	 ecx
  00018	57		 push	 edi
  00019	8b ce		 mov	 ecx, esi
  0001b	e8 00 00 00 00	 call	 ?_Insert@?$_Tree@V?$_Tmap_traits@HPAVTUnionInfo@@U?$less@H@std@@V?$allocator@U?$pair@$$CBHPAVTUnionInfo@@@std@@@3@$0A@@std@@@std@@QAE?AV?$_Tree_iterator@V?$_Tree_val@V?$_Tmap_traits@HPAVTUnionInfo@@U?$less@H@std@@V?$allocator@U?$pair@$$CBHPAVTUnionInfo@@@std@@@3@$0A@@std@@@std@@@2@V?$_Tree_const_iterator@V?$_Tree_val@V?$_Tmap_traits@HPAVTUnionInfo@@U?$less@H@std@@V?$allocator@U?$pair@$$CBHPAVTUnionInfo@@@std@@@3@$0A@@std@@@std@@@2@PAU_Node@?$_Tree_nod@V?$_Tmap_traits@HPAVTUnionInfo@@U?$less@H@std@@V?$allocator@U?$pair@$$CBHPAVTUnionInfo@@@std@@@3@$0A@@std@@@2@@Z ; std::_Tree<std::_Tmap_traits<int,TUnionInfo *,std::less<int>,std::allocator<std::pair<int const ,TUnionInfo *> >,0> >::_Insert
  00020	8b c7		 mov	 eax, edi
  00022	5f		 pop	 edi
  00023	5e		 pop	 esi

; 768  : 		}

  00024	5d		 pop	 ebp
  00025	c2 0c 00	 ret	 12			; 0000000cH
??$insert@U?$pair@$$CBHPAVTUnionInfo@@@std@@@?$_Tree@V?$_Tmap_traits@HPAVTUnionInfo@@U?$less@H@std@@V?$allocator@U?$pair@$$CBHPAVTUnionInfo@@@std@@@3@$0A@@std@@@std@@QAE?AV?$_Tree_iterator@V?$_Tree_val@V?$_Tmap_traits@HPAVTUnionInfo@@U?$less@H@std@@V?$allocator@U?$pair@$$CBHPAVTUnionInfo@@@std@@@3@$0A@@std@@@std@@@1@V?$_Tree_const_iterator@V?$_Tree_val@V?$_Tmap_traits@HPAVTUnionInfo@@U?$less@H@std@@V?$allocator@U?$pair@$$CBHPAVTUnionInfo@@@std@@@3@$0A@@std@@@std@@@1@$$QAU?$pair@$$CBHPAVTUnionInfo@@@1@@Z ENDP ; std::_Tree<std::_Tmap_traits<int,TUnionInfo *,std::less<int>,std::allocator<std::pair<int const ,TUnionInfo *> >,0> >::insert<std::pair<int const ,TUnionInfo *> >
_TEXT	ENDS
PUBLIC	??0TUnion@@QAE@XZ				; TUnion::TUnion
EXTRN	??0TSync@@QAE@XZ:PROC				; TSync::TSync
;	COMDAT xdata$x
xdata$x	SEGMENT
__unwindtable$??0TUnion@@QAE@XZ DD 0ffffffffH
	DD	FLAT:__unwindfunclet$??0TUnion@@QAE@XZ$0
__ehfuncinfo$??0TUnion@@QAE@XZ DD 019930522H
	DD	01H
	DD	FLAT:__unwindtable$??0TUnion@@QAE@XZ
	DD	2 DUP(00H)
	DD	2 DUP(00H)
	DD	00H
	DD	01H
; Function compile flags: /Ogtp
; File c:\muserver_dev\development\mu-s8ep2-repack\gameserver\source\tunion.cpp
xdata$x	ENDS
;	COMDAT ??0TUnion@@QAE@XZ
_TEXT	SEGMENT
$T165087 = -32						; size = 12
_this$ = -20						; size = 4
$T164942 = -16						; size = 4
__$EHRec$ = -12						; size = 12
??0TUnion@@QAE@XZ PROC					; TUnion::TUnion, COMDAT
; _this$ = ecx

; 13   : {

  00000	55		 push	 ebp
  00001	8b ec		 mov	 ebp, esp
  00003	6a ff		 push	 -1
  00005	68 00 00 00 00	 push	 __ehhandler$??0TUnion@@QAE@XZ
  0000a	64 a1 00 00 00
	00		 mov	 eax, DWORD PTR fs:0
  00010	50		 push	 eax
  00011	83 ec 14	 sub	 esp, 20			; 00000014H
  00014	56		 push	 esi
  00015	a1 00 00 00 00	 mov	 eax, DWORD PTR ___security_cookie
  0001a	33 c5		 xor	 eax, ebp
  0001c	50		 push	 eax
  0001d	8d 45 f4	 lea	 eax, DWORD PTR __$EHRec$[ebp]
  00020	64 a3 00 00 00
	00		 mov	 DWORD PTR fs:0, eax
  00026	8b f1		 mov	 esi, ecx
  00028	89 75 ec	 mov	 DWORD PTR _this$[ebp], esi
  0002b	c7 06 00 00 00
	00		 mov	 DWORD PTR [esi], OFFSET ??_7TUnion@@6B@
  00031	6a 18		 push	 24			; 00000018H
  00033	c7 46 0c 00 00
	00 00		 mov	 DWORD PTR [esi+12], 0
  0003a	e8 00 00 00 00	 call	 ??2@YAPAXI@Z		; operator new
  0003f	83 c4 04	 add	 esp, 4
  00042	85 c0		 test	 eax, eax
  00044	74 40		 je	 SHORT $LN29@TUnion
  00046	89 46 08	 mov	 DWORD PTR [esi+8], eax
  00049	89 00		 mov	 DWORD PTR [eax], eax
  0004b	8b 46 08	 mov	 eax, DWORD PTR [esi+8]
  0004e	89 40 04	 mov	 DWORD PTR [eax+4], eax
  00051	8b 46 08	 mov	 eax, DWORD PTR [esi+8]
  00054	89 40 08	 mov	 DWORD PTR [eax+8], eax
  00057	8b 4e 08	 mov	 ecx, DWORD PTR [esi+8]
  0005a	b0 01		 mov	 al, 1
  0005c	88 41 14	 mov	 BYTE PTR [ecx+20], al
  0005f	8b 56 08	 mov	 edx, DWORD PTR [esi+8]
  00062	88 42 15	 mov	 BYTE PTR [edx+21], al
  00065	8d 4e 14	 lea	 ecx, DWORD PTR [esi+20]
  00068	c7 45 fc 00 00
	00 00		 mov	 DWORD PTR __$EHRec$[ebp+8], 0
  0006f	e8 00 00 00 00	 call	 ??0TSync@@QAE@XZ	; TSync::TSync

; 14   : 	return;
; 15   : }

  00074	8b c6		 mov	 eax, esi
  00076	8b 4d f4	 mov	 ecx, DWORD PTR __$EHRec$[ebp]
  00079	64 89 0d 00 00
	00 00		 mov	 DWORD PTR fs:0, ecx
  00080	59		 pop	 ecx
  00081	5e		 pop	 esi
  00082	8b e5		 mov	 esp, ebp
  00084	5d		 pop	 ebp
  00085	c3		 ret	 0

; 13   : {

$LN29@TUnion:
  00086	8d 45 f0	 lea	 eax, DWORD PTR $T164942[ebp]
  00089	50		 push	 eax
  0008a	8d 4d e0	 lea	 ecx, DWORD PTR $T165087[ebp]
  0008d	c7 45 f0 00 00
	00 00		 mov	 DWORD PTR $T164942[ebp], 0
  00094	e8 00 00 00 00	 call	 ??0exception@std@@QAE@ABQBD@Z ; std::exception::exception
  00099	68 00 00 00 00	 push	 OFFSET __TI2?AVbad_alloc@std@@
  0009e	8d 4d e0	 lea	 ecx, DWORD PTR $T165087[ebp]
  000a1	51		 push	 ecx
  000a2	c7 45 e0 00 00
	00 00		 mov	 DWORD PTR $T165087[ebp], OFFSET ??_7bad_alloc@std@@6B@
  000a9	e8 00 00 00 00	 call	 __CxxThrowException@8
$LN55@TUnion:
$LN54@TUnion:
  000ae	cc		 int	 3
_TEXT	ENDS
;	COMDAT text$x
text$x	SEGMENT
__unwindfunclet$??0TUnion@@QAE@XZ$0:
  00000	8b 4d ec	 mov	 ecx, DWORD PTR _this$[ebp]
  00003	83 c1 04	 add	 ecx, 4
  00006	e9 00 00 00 00	 jmp	 ??1?$map@HPAVTUnionInfo@@U?$less@H@std@@V?$allocator@U?$pair@$$CBHPAVTUnionInfo@@@std@@@3@@std@@QAE@XZ
__ehhandler$??0TUnion@@QAE@XZ:
  0000b	8b 54 24 08	 mov	 edx, DWORD PTR [esp+8]
  0000f	8d 42 0c	 lea	 eax, DWORD PTR [edx+12]
  00012	8b 4a e4	 mov	 ecx, DWORD PTR [edx-28]
  00015	33 c8		 xor	 ecx, eax
  00017	e8 00 00 00 00	 call	 @__security_check_cookie@4
  0001c	b8 00 00 00 00	 mov	 eax, OFFSET __ehfuncinfo$??0TUnion@@QAE@XZ
  00021	e9 00 00 00 00	 jmp	 ___CxxFrameHandler3
text$x	ENDS
??0TUnion@@QAE@XZ ENDP					; TUnion::TUnion
; Function compile flags: /Ogtp
;	COMDAT ??_GTUnion@@UAEPAXI@Z
_TEXT	SEGMENT
___flags$ = 8						; size = 4
??_GTUnion@@UAEPAXI@Z PROC				; TUnion::`scalar deleting destructor', COMDAT
; _this$ = ecx
  00000	55		 push	 ebp
  00001	8b ec		 mov	 ebp, esp
  00003	56		 push	 esi
  00004	8b f1		 mov	 esi, ecx
  00006	e8 00 00 00 00	 call	 ??1TUnion@@UAE@XZ	; TUnion::~TUnion
  0000b	f6 45 08 01	 test	 BYTE PTR ___flags$[ebp], 1
  0000f	74 09		 je	 SHORT $LN4@scalar@2
  00011	56		 push	 esi
  00012	e8 00 00 00 00	 call	 ??3@YAXPAX@Z		; operator delete
  00017	83 c4 04	 add	 esp, 4
$LN4@scalar@2:
  0001a	8b c6		 mov	 eax, esi
  0001c	5e		 pop	 esi
  0001d	5d		 pop	 ebp
  0001e	c2 04 00	 ret	 4
??_GTUnion@@UAEPAXI@Z ENDP				; TUnion::`scalar deleting destructor'
_TEXT	ENDS
PUBLIC	?GetGuildRelationShip@TUnion@@QAEHHH@Z		; TUnion::GetGuildRelationShip
EXTRN	?IsRivalMember@TUnionInfo@@QAEHH@Z:PROC		; TUnionInfo::IsRivalMember
EXTRN	?IsUnionMember@TUnionInfo@@QAEHH@Z:PROC		; TUnionInfo::IsUnionMember
; Function compile flags: /Ogtp
;	COMDAT ?GetGuildRelationShip@TUnion@@QAEHHH@Z
_TEXT	SEGMENT
_iGuildNumber$ = 8					; size = 4
_iTargetGuildNumber$ = 12				; size = 4
?GetGuildRelationShip@TUnion@@QAEHHH@Z PROC		; TUnion::GetGuildRelationShip, COMDAT
; _this$ = ecx

; 40   : {

  00000	55		 push	 ebp
  00001	8b ec		 mov	 ebp, esp

; 41   : 	TUnionInfo * pUnionInfo = this->SearchUnion(iGuildNumber);

  00003	8b 45 08	 mov	 eax, DWORD PTR _iGuildNumber$[ebp]
  00006	56		 push	 esi
  00007	50		 push	 eax
  00008	e8 00 00 00 00	 call	 ?SearchUnion@TUnion@@QAEPAVTUnionInfo@@H@Z ; TUnion::SearchUnion
  0000d	8b f0		 mov	 esi, eax

; 42   : 
; 43   : 	if ( pUnionInfo == NULL )

  0000f	85 f6		 test	 esi, esi
  00011	75 05		 jne	 SHORT $LN3@GetGuildRe
  00013	5e		 pop	 esi

; 54   : 	{
; 55   : 		return 2;
; 56   : 	}
; 57   : 	
; 58   : 	return 0;
; 59   : }

  00014	5d		 pop	 ebp
  00015	c2 08 00	 ret	 8
$LN3@GetGuildRe:
  00018	57		 push	 edi

; 44   : 	{
; 45   : 		return 0;
; 46   : 	}
; 47   : 
; 48   : 	if ( pUnionInfo->IsUnionMember(iTargetGuildNumber) != FALSE )

  00019	8b 7d 0c	 mov	 edi, DWORD PTR _iTargetGuildNumber$[ebp]
  0001c	57		 push	 edi
  0001d	8b ce		 mov	 ecx, esi
  0001f	e8 00 00 00 00	 call	 ?IsUnionMember@TUnionInfo@@QAEHH@Z ; TUnionInfo::IsUnionMember
  00024	85 c0		 test	 eax, eax
  00026	74 0b		 je	 SHORT $LN2@GetGuildRe

; 49   : 	{
; 50   : 		return 1;

  00028	5f		 pop	 edi
  00029	b8 01 00 00 00	 mov	 eax, 1
  0002e	5e		 pop	 esi

; 54   : 	{
; 55   : 		return 2;
; 56   : 	}
; 57   : 	
; 58   : 	return 0;
; 59   : }

  0002f	5d		 pop	 ebp
  00030	c2 08 00	 ret	 8
$LN2@GetGuildRe:

; 51   : 	}
; 52   : 
; 53   : 	if ( pUnionInfo->IsRivalMember(iTargetGuildNumber) != FALSE )

  00033	57		 push	 edi
  00034	8b ce		 mov	 ecx, esi
  00036	e8 00 00 00 00	 call	 ?IsRivalMember@TUnionInfo@@QAEHH@Z ; TUnionInfo::IsRivalMember
  0003b	f7 d8		 neg	 eax
  0003d	1b c0		 sbb	 eax, eax
  0003f	5f		 pop	 edi
  00040	83 e0 02	 and	 eax, 2
  00043	5e		 pop	 esi

; 54   : 	{
; 55   : 		return 2;
; 56   : 	}
; 57   : 	
; 58   : 	return 0;
; 59   : }

  00044	5d		 pop	 ebp
  00045	c2 08 00	 ret	 8
?GetGuildRelationShip@TUnion@@QAEHHH@Z ENDP		; TUnion::GetGuildRelationShip
_TEXT	ENDS
PUBLIC	?GetGuildRelationShipCount@TUnion@@QAEHHH@Z	; TUnion::GetGuildRelationShipCount
EXTRN	?GetRivalMemberCount@TUnionInfo@@QAEHXZ:PROC	; TUnionInfo::GetRivalMemberCount
EXTRN	?GetUnionMemberCount@TUnionInfo@@QAEHXZ:PROC	; TUnionInfo::GetUnionMemberCount
; Function compile flags: /Ogtp
;	COMDAT ?GetGuildRelationShipCount@TUnion@@QAEHHH@Z
_TEXT	SEGMENT
_iGuildNumber$ = 8					; size = 4
_iRelationShipType$ = 12				; size = 4
?GetGuildRelationShipCount@TUnion@@QAEHHH@Z PROC	; TUnion::GetGuildRelationShipCount, COMDAT
; _this$ = ecx

; 63   : {

  00000	55		 push	 ebp
  00001	8b ec		 mov	 ebp, esp

; 64   : 	TUnionInfo * pUnionInfo = this->SearchUnion(iGuildNumber);

  00003	8b 45 08	 mov	 eax, DWORD PTR _iGuildNumber$[ebp]
  00006	50		 push	 eax
  00007	e8 00 00 00 00	 call	 ?SearchUnion@TUnion@@QAEPAVTUnionInfo@@H@Z ; TUnion::SearchUnion
  0000c	8b c8		 mov	 ecx, eax

; 65   : 
; 66   : 	if ( pUnionInfo == NULL )

  0000e	85 c9		 test	 ecx, ecx

; 67   : 	{
; 68   : 		return 0;

  00010	74 1f		 je	 SHORT $LN1@GetGuildRe@2

; 69   : 	}
; 70   : 
; 71   : 	if ( iRelationShipType == 1 )

  00012	8b 45 0c	 mov	 eax, DWORD PTR _iRelationShipType$[ebp]
  00015	83 f8 01	 cmp	 eax, 1
  00018	75 09		 jne	 SHORT $LN3@GetGuildRe@2

; 72   : 	{
; 73   : 		return pUnionInfo->GetUnionMemberCount();

  0001a	e8 00 00 00 00	 call	 ?GetUnionMemberCount@TUnionInfo@@QAEHXZ ; TUnionInfo::GetUnionMemberCount

; 80   : }

  0001f	5d		 pop	 ebp
  00020	c2 08 00	 ret	 8
$LN3@GetGuildRe@2:

; 74   : 	}
; 75   : 	else if ( iRelationShipType == 2 )

  00023	83 f8 02	 cmp	 eax, 2
  00026	75 09		 jne	 SHORT $LN1@GetGuildRe@2

; 76   : 	{
; 77   : 		return pUnionInfo->GetRivalMemberCount();

  00028	e8 00 00 00 00	 call	 ?GetRivalMemberCount@TUnionInfo@@QAEHXZ ; TUnionInfo::GetRivalMemberCount

; 80   : }

  0002d	5d		 pop	 ebp
  0002e	c2 08 00	 ret	 8
$LN1@GetGuildRe@2:

; 78   : 	}
; 79   : 	return 0;

  00031	33 c0		 xor	 eax, eax

; 80   : }

  00033	5d		 pop	 ebp
  00034	c2 08 00	 ret	 8
?GetGuildRelationShipCount@TUnion@@QAEHHH@Z ENDP	; TUnion::GetGuildRelationShipCount
_TEXT	ENDS
PUBLIC	??A?$map@HPAVTUnionInfo@@U?$less@H@std@@V?$allocator@U?$pair@$$CBHPAVTUnionInfo@@@std@@@3@@std@@QAEAAPAVTUnionInfo@@ABH@Z ; std::map<int,TUnionInfo *,std::less<int>,std::allocator<std::pair<int const ,TUnionInfo *> > >::operator[]
; Function compile flags: /Ogtp
; File c:\program files (x86)\microsoft visual studio 10.0\vc\include\map
;	COMDAT ??A?$map@HPAVTUnionInfo@@U?$less@H@std@@V?$allocator@U?$pair@$$CBHPAVTUnionInfo@@@std@@@3@@std@@QAEAAPAVTUnionInfo@@ABH@Z
_TEXT	SEGMENT
$T165132 = -8						; size = 8
$T165135 = 8						; size = 4
__Keyval$ = 8						; size = 4
??A?$map@HPAVTUnionInfo@@U?$less@H@std@@V?$allocator@U?$pair@$$CBHPAVTUnionInfo@@@std@@@3@@std@@QAEAAPAVTUnionInfo@@ABH@Z PROC ; std::map<int,TUnionInfo *,std::less<int>,std::allocator<std::pair<int const ,TUnionInfo *> > >::operator[], COMDAT
; _this$ = ecx

; 210  : 		{	// find element matching _Keyval or insert with default mapped

  00000	55		 push	 ebp
  00001	8b ec		 mov	 ebp, esp

; 211  : 		iterator _Where = this->lower_bound(_Keyval);

  00003	8b 55 08	 mov	 edx, DWORD PTR __Keyval$[ebp]
  00006	83 ec 08	 sub	 esp, 8
  00009	56		 push	 esi
  0000a	8b f1		 mov	 esi, ecx
  0000c	8b 4e 04	 mov	 ecx, DWORD PTR [esi+4]
  0000f	8b 41 04	 mov	 eax, DWORD PTR [ecx+4]
  00012	80 78 15 00	 cmp	 BYTE PTR [eax+21], 0
  00016	57		 push	 edi
  00017	8b f9		 mov	 edi, ecx
  00019	75 19		 jne	 SHORT $LN9@operator@3
  0001b	8b 0a		 mov	 ecx, DWORD PTR [edx]
  0001d	8d 49 00	 npad	 3
$LL10@operator@3:
  00020	39 48 0c	 cmp	 DWORD PTR [eax+12], ecx
  00023	7d 05		 jge	 SHORT $LN8@operator@3
  00025	8b 40 08	 mov	 eax, DWORD PTR [eax+8]
  00028	eb 04		 jmp	 SHORT $LN7@operator@3
$LN8@operator@3:
  0002a	8b f8		 mov	 edi, eax
  0002c	8b 00		 mov	 eax, DWORD PTR [eax]
$LN7@operator@3:
  0002e	80 78 15 00	 cmp	 BYTE PTR [eax+21], 0
  00032	74 ec		 je	 SHORT $LL10@operator@3
$LN9@operator@3:

; 212  : 		if (_Where == this->end()
; 213  : 			|| this->comp(_Keyval, this->_Key(_Where._Mynode())))

  00034	3b 7e 04	 cmp	 edi, DWORD PTR [esi+4]
  00037	74 07		 je	 SHORT $LN1@operator@3
  00039	8b 02		 mov	 eax, DWORD PTR [edx]
  0003b	3b 47 0c	 cmp	 eax, DWORD PTR [edi+12]
  0003e	7d 32		 jge	 SHORT $LN80@operator@3
$LN1@operator@3:

; 214  : 			_Where = this->insert(_Where,
; 215  : 				value_type(_Keyval, mapped_type()));

  00040	8b 0a		 mov	 ecx, DWORD PTR [edx]
  00042	8d 55 f8	 lea	 edx, DWORD PTR $T165132[ebp]
  00045	89 4d f8	 mov	 DWORD PTR $T165132[ebp], ecx
  00048	52		 push	 edx
  00049	8b ce		 mov	 ecx, esi
  0004b	c7 45 fc 00 00
	00 00		 mov	 DWORD PTR $T165132[ebp+4], 0
  00052	e8 00 00 00 00	 call	 ??$_Buynode@U?$pair@$$CBHPAVTUnionInfo@@@std@@@?$_Tree_val@V?$_Tmap_traits@HPAVTUnionInfo@@U?$less@H@std@@V?$allocator@U?$pair@$$CBHPAVTUnionInfo@@@std@@@3@$0A@@std@@@std@@QAEPAU_Node@?$_Tree_nod@V?$_Tmap_traits@HPAVTUnionInfo@@U?$less@H@std@@V?$allocator@U?$pair@$$CBHPAVTUnionInfo@@@std@@@3@$0A@@std@@@1@$$QAU?$pair@$$CBHPAVTUnionInfo@@@1@@Z ; std::_Tree_val<std::_Tmap_traits<int,TUnionInfo *,std::less<int>,std::allocator<std::pair<int const ,TUnionInfo *> >,0> >::_Buynode<std::pair<int const ,TUnionInfo *> >
  00057	50		 push	 eax
  00058	57		 push	 edi
  00059	8d 45 08	 lea	 eax, DWORD PTR $T165135[ebp]
  0005c	50		 push	 eax
  0005d	8b ce		 mov	 ecx, esi
  0005f	e8 00 00 00 00	 call	 ?_Insert@?$_Tree@V?$_Tmap_traits@HPAVTUnionInfo@@U?$less@H@std@@V?$allocator@U?$pair@$$CBHPAVTUnionInfo@@@std@@@3@$0A@@std@@@std@@QAE?AV?$_Tree_iterator@V?$_Tree_val@V?$_Tmap_traits@HPAVTUnionInfo@@U?$less@H@std@@V?$allocator@U?$pair@$$CBHPAVTUnionInfo@@@std@@@3@$0A@@std@@@std@@@2@V?$_Tree_const_iterator@V?$_Tree_val@V?$_Tmap_traits@HPAVTUnionInfo@@U?$less@H@std@@V?$allocator@U?$pair@$$CBHPAVTUnionInfo@@@std@@@3@$0A@@std@@@std@@@2@PAU_Node@?$_Tree_nod@V?$_Tmap_traits@HPAVTUnionInfo@@U?$less@H@std@@V?$allocator@U?$pair@$$CBHPAVTUnionInfo@@@std@@@3@$0A@@std@@@2@@Z ; std::_Tree<std::_Tmap_traits<int,TUnionInfo *,std::less<int>,std::allocator<std::pair<int const ,TUnionInfo *> >,0> >::_Insert
  00064	8b 45 08	 mov	 eax, DWORD PTR $T165135[ebp]
  00067	5f		 pop	 edi

; 216  : 		return ((*_Where).second);

  00068	83 c0 10	 add	 eax, 16			; 00000010H
  0006b	5e		 pop	 esi

; 217  : 		}

  0006c	8b e5		 mov	 esp, ebp
  0006e	5d		 pop	 ebp
  0006f	c2 04 00	 ret	 4
$LN80@operator@3:

; 216  : 		return ((*_Where).second);

  00072	8d 47 10	 lea	 eax, DWORD PTR [edi+16]
  00075	5f		 pop	 edi
  00076	5e		 pop	 esi

; 217  : 		}

  00077	8b e5		 mov	 esp, ebp
  00079	5d		 pop	 ebp
  0007a	c2 04 00	 ret	 4
??A?$map@HPAVTUnionInfo@@U?$less@H@std@@V?$allocator@U?$pair@$$CBHPAVTUnionInfo@@@std@@@3@@std@@QAEAAPAVTUnionInfo@@ABH@Z ENDP ; std::map<int,TUnionInfo *,std::less<int>,std::allocator<std::pair<int const ,TUnionInfo *> > >::operator[]
_TEXT	ENDS
PUBLIC	?AddUnion@TUnion@@QAEHHPAD@Z			; TUnion::AddUnion
EXTRN	?SetUnionMaster@TUnionInfo@@QAEHHPAD@Z:PROC	; TUnionInfo::SetUnionMaster
EXTRN	??0TUnionInfo@@QAE@XZ:PROC			; TUnionInfo::TUnionInfo
;	COMDAT xdata$x
; File c:\muserver_dev\development\mu-s8ep2-repack\gameserver\source\tunion.cpp
xdata$x	SEGMENT
__unwindtable$?AddUnion@TUnion@@QAEHHPAD@Z DD 0ffffffffH
	DD	FLAT:__unwindfunclet$?AddUnion@TUnion@@QAEHHPAD@Z$0
__ehfuncinfo$?AddUnion@TUnion@@QAEHHPAD@Z DD 019930522H
	DD	01H
	DD	FLAT:__unwindtable$?AddUnion@TUnion@@QAEHHPAD@Z
	DD	2 DUP(00H)
	DD	2 DUP(00H)
	DD	00H
	DD	01H
; Function compile flags: /Ogtp
xdata$x	ENDS
;	COMDAT ?AddUnion@TUnion@@QAEHHPAD@Z
_TEXT	SEGMENT
$T165363 = -16						; size = 4
__$EHRec$ = -12						; size = 12
_iMasterGuildNumber$ = 8				; size = 4
_szUnionMasterGuildName$ = 12				; size = 4
?AddUnion@TUnion@@QAEHHPAD@Z PROC			; TUnion::AddUnion, COMDAT
; _this$ = ecx

; 99   : {

  00000	55		 push	 ebp
  00001	8b ec		 mov	 ebp, esp
  00003	6a ff		 push	 -1
  00005	68 00 00 00 00	 push	 __ehhandler$?AddUnion@TUnion@@QAEHHPAD@Z
  0000a	64 a1 00 00 00
	00		 mov	 eax, DWORD PTR fs:0
  00010	50		 push	 eax
  00011	51		 push	 ecx
  00012	53		 push	 ebx
  00013	56		 push	 esi
  00014	57		 push	 edi
  00015	a1 00 00 00 00	 mov	 eax, DWORD PTR ___security_cookie
  0001a	33 c5		 xor	 eax, ebp
  0001c	50		 push	 eax
  0001d	8d 45 f4	 lea	 eax, DWORD PTR __$EHRec$[ebp]
  00020	64 a3 00 00 00
	00		 mov	 DWORD PTR fs:0, eax
  00026	8b f1		 mov	 esi, ecx

; 100  : 	TUnionInfo * pUnionInfo = this->SearchUnion(iMasterGuildNumber);

  00028	8b 5d 08	 mov	 ebx, DWORD PTR _iMasterGuildNumber$[ebp]
  0002b	53		 push	 ebx
  0002c	e8 00 00 00 00	 call	 ?SearchUnion@TUnion@@QAEPAVTUnionInfo@@H@Z ; TUnion::SearchUnion

; 101  : 	
; 102  : 	if ( pUnionInfo == NULL )
; 103  : 	{
; 104  : 		this->m_Sync.Lock();

  00031	8d 4e 14	 lea	 ecx, DWORD PTR [esi+20]
  00034	8b f8		 mov	 edi, eax
  00036	e8 00 00 00 00	 call	 ?Lock@TSync@@QAEXXZ	; TSync::Lock
  0003b	85 ff		 test	 edi, edi
  0003d	75 62		 jne	 SHORT $LN1@AddUnion

; 105  : 		pUnionInfo = new TUnionInfo;

  0003f	6a 58		 push	 88			; 00000058H
  00041	e8 00 00 00 00	 call	 ??2@YAPAXI@Z		; operator new
  00046	83 c4 04	 add	 esp, 4
  00049	89 45 f0	 mov	 DWORD PTR $T165363[ebp], eax
  0004c	89 7d fc	 mov	 DWORD PTR __$EHRec$[ebp+8], edi
  0004f	3b c7		 cmp	 eax, edi
  00051	74 09		 je	 SHORT $LN4@AddUnion
  00053	8b c8		 mov	 ecx, eax
  00055	e8 00 00 00 00	 call	 ??0TUnionInfo@@QAE@XZ	; TUnionInfo::TUnionInfo
  0005a	8b f8		 mov	 edi, eax
$LN4@AddUnion:

; 106  : 		pUnionInfo->SetUnionMaster(iMasterGuildNumber, szUnionMasterGuildName);

  0005c	8b 45 0c	 mov	 eax, DWORD PTR _szUnionMasterGuildName$[ebp]
  0005f	8b 4d 08	 mov	 ecx, DWORD PTR _iMasterGuildNumber$[ebp]
  00062	50		 push	 eax
  00063	51		 push	 ecx
  00064	8b cf		 mov	 ecx, edi
  00066	c7 45 fc ff ff
	ff ff		 mov	 DWORD PTR __$EHRec$[ebp+8], -1
  0006d	e8 00 00 00 00	 call	 ?SetUnionMaster@TUnionInfo@@QAEHHPAD@Z ; TUnionInfo::SetUnionMaster

; 107  : 		this->m_mpUnion[iMasterGuildNumber] = pUnionInfo;

  00072	8d 55 08	 lea	 edx, DWORD PTR _iMasterGuildNumber$[ebp]
  00075	52		 push	 edx
  00076	8d 4e 04	 lea	 ecx, DWORD PTR [esi+4]
  00079	e8 00 00 00 00	 call	 ??A?$map@HPAVTUnionInfo@@U?$less@H@std@@V?$allocator@U?$pair@$$CBHPAVTUnionInfo@@@std@@@3@@std@@QAEAAPAVTUnionInfo@@ABH@Z ; std::map<int,TUnionInfo *,std::less<int>,std::allocator<std::pair<int const ,TUnionInfo *> > >::operator[]

; 108  : 		this->m_Sync.Unlock();

  0007e	8d 4e 14	 lea	 ecx, DWORD PTR [esi+20]
  00081	89 38		 mov	 DWORD PTR [eax], edi
  00083	e8 00 00 00 00	 call	 ?Unlock@TSync@@QAEXXZ	; TSync::Unlock

; 109  : 		return TRUE;

  00088	b8 01 00 00 00	 mov	 eax, 1

; 116  : }

  0008d	8b 4d f4	 mov	 ecx, DWORD PTR __$EHRec$[ebp]
  00090	64 89 0d 00 00
	00 00		 mov	 DWORD PTR fs:0, ecx
  00097	59		 pop	 ecx
  00098	5f		 pop	 edi
  00099	5e		 pop	 esi
  0009a	5b		 pop	 ebx
  0009b	8b e5		 mov	 esp, ebp
  0009d	5d		 pop	 ebp
  0009e	c2 08 00	 ret	 8
$LN1@AddUnion:

; 110  : 	}
; 111  : 
; 112  : 	this->m_Sync.Lock();
; 113  : 	pUnionInfo->SetUnionMaster(iMasterGuildNumber, szUnionMasterGuildName);

  000a1	8b 45 0c	 mov	 eax, DWORD PTR _szUnionMasterGuildName$[ebp]
  000a4	50		 push	 eax
  000a5	53		 push	 ebx
  000a6	8b cf		 mov	 ecx, edi
  000a8	e8 00 00 00 00	 call	 ?SetUnionMaster@TUnionInfo@@QAEHHPAD@Z ; TUnionInfo::SetUnionMaster

; 114  : 	this->m_Sync.Unlock();

  000ad	8d 4e 14	 lea	 ecx, DWORD PTR [esi+20]
  000b0	e8 00 00 00 00	 call	 ?Unlock@TSync@@QAEXXZ	; TSync::Unlock

; 115  : 	return FALSE;

  000b5	33 c0		 xor	 eax, eax

; 116  : }

  000b7	8b 4d f4	 mov	 ecx, DWORD PTR __$EHRec$[ebp]
  000ba	64 89 0d 00 00
	00 00		 mov	 DWORD PTR fs:0, ecx
  000c1	59		 pop	 ecx
  000c2	5f		 pop	 edi
  000c3	5e		 pop	 esi
  000c4	5b		 pop	 ebx
  000c5	8b e5		 mov	 esp, ebp
  000c7	5d		 pop	 ebp
  000c8	c2 08 00	 ret	 8
_TEXT	ENDS
;	COMDAT text$x
text$x	SEGMENT
__unwindfunclet$?AddUnion@TUnion@@QAEHHPAD@Z$0:
  00000	8b 45 f0	 mov	 eax, DWORD PTR $T165363[ebp]
  00003	50		 push	 eax
  00004	e8 00 00 00 00	 call	 ??3@YAXPAX@Z		; operator delete
  00009	59		 pop	 ecx
  0000a	c3		 ret	 0
__ehhandler$?AddUnion@TUnion@@QAEHHPAD@Z:
  0000b	8b 54 24 08	 mov	 edx, DWORD PTR [esp+8]
  0000f	8d 42 0c	 lea	 eax, DWORD PTR [edx+12]
  00012	8b 4a ec	 mov	 ecx, DWORD PTR [edx-20]
  00015	33 c8		 xor	 ecx, eax
  00017	e8 00 00 00 00	 call	 @__security_check_cookie@4
  0001c	b8 00 00 00 00	 mov	 eax, OFFSET __ehfuncinfo$?AddUnion@TUnion@@QAEHHPAD@Z
  00021	e9 00 00 00 00	 jmp	 ___CxxFrameHandler3
text$x	ENDS
?AddUnion@TUnion@@QAEHHPAD@Z ENDP			; TUnion::AddUnion
EXTRN	_atexit:PROC
; Function compile flags: /Ogtp
;	COMDAT ??__EUnionManager@@YAXXZ
text$yc	SEGMENT
??__EUnionManager@@YAXXZ PROC				; `dynamic initializer for 'UnionManager'', COMDAT

; 9    : TUnion UnionManager;

  00000	b9 00 00 00 00	 mov	 ecx, OFFSET ?UnionManager@@3VTUnion@@A ; UnionManager
  00005	e8 00 00 00 00	 call	 ??0TUnion@@QAE@XZ	; TUnion::TUnion
  0000a	68 00 00 00 00	 push	 OFFSET ??__FUnionManager@@YAXXZ ; `dynamic atexit destructor for 'UnionManager''
  0000f	e8 00 00 00 00	 call	 _atexit
  00014	59		 pop	 ecx
  00015	c3		 ret	 0
??__EUnionManager@@YAXXZ ENDP				; `dynamic initializer for 'UnionManager''
; Function compile flags: /Ogtp
text$yc	ENDS
;	COMDAT ??__FUnionManager@@YAXXZ
text$yd	SEGMENT
??__FUnionManager@@YAXXZ PROC				; `dynamic atexit destructor for 'UnionManager'', COMDAT
  00000	b9 00 00 00 00	 mov	 ecx, OFFSET ?UnionManager@@3VTUnion@@A ; UnionManager
  00005	e9 00 00 00 00	 jmp	 ??1TUnion@@UAE@XZ	; TUnion::~TUnion
??__FUnionManager@@YAXXZ ENDP				; `dynamic atexit destructor for 'UnionManager''
text$yd	ENDS
PUBLIC	?UnionManager@@3VTUnion@@A			; UnionManager
_BSS	SEGMENT
?UnionManager@@3VTUnion@@A DB 030H DUP (?)		; UnionManager
_BSS	ENDS
CRT$XCU	SEGMENT
_UnionManager$initializer$ DD FLAT:??__EUnionManager@@YAXXZ
CRT$XCU	ENDS
END
