; Listing generated by Microsoft (R) Optimizing Compiler Version 16.00.40219.01 

	TITLE	C:\muserver_dev\development\MU-S8EP2-Repack\GameServer\common\winutil.cpp
	.686P
	.XMM
	include listing.inc
	.model	flat

INCLUDELIB LIBCMT
INCLUDELIB OLDNAMES

_DATA	SEGMENT
_bBuxCode DB	0fcH
	DB	0cfH
	DB	0abH
_DATA	ENDS
PUBLIC	?strchr@@YAPADPADH@Z				; strchr
EXTRN	_strchr:PROC
; Function compile flags: /Ogtp
; File c:\program files (x86)\microsoft visual studio 10.0\vc\include\string.h
;	COMDAT ?strchr@@YAPADPADH@Z
_TEXT	SEGMENT
__Str$ = 8						; size = 4
__Ch$ = 12						; size = 4
?strchr@@YAPADPADH@Z PROC				; strchr, COMDAT

; 215  : 	{ return (char*)strchr((const char*)_Str, _Ch); }

  00000	55		 push	 ebp
  00001	8b ec		 mov	 ebp, esp
  00003	5d		 pop	 ebp
  00004	e9 00 00 00 00	 jmp	 _strchr
?strchr@@YAPADPADH@Z ENDP				; strchr
_TEXT	ENDS
PUBLIC	??1OBJECTSTRUCT@@QAE@XZ				; OBJECTSTRUCT::~OBJECTSTRUCT
EXTRN	??1CSkillDelay@@UAE@XZ:PROC			; CSkillDelay::~CSkillDelay
EXTRN	??1TMonsterAIAgro@@UAE@XZ:PROC			; TMonsterAIAgro::~TMonsterAIAgro
EXTRN	___security_cookie:DWORD
EXTRN	___CxxFrameHandler3:PROC
EXTRN	@__security_check_cookie@4:PROC
;	COMDAT xdata$x
xdata$x	SEGMENT
__unwindtable$??1OBJECTSTRUCT@@QAE@XZ DD 0ffffffffH
	DD	FLAT:__unwindfunclet$??1OBJECTSTRUCT@@QAE@XZ$0
__ehfuncinfo$??1OBJECTSTRUCT@@QAE@XZ DD 019930522H
	DD	01H
	DD	FLAT:__unwindtable$??1OBJECTSTRUCT@@QAE@XZ
	DD	2 DUP(00H)
	DD	2 DUP(00H)
	DD	00H
	DD	01H
; Function compile flags: /Ogtp
xdata$x	ENDS
;	COMDAT ??1OBJECTSTRUCT@@QAE@XZ
_TEXT	SEGMENT
_this$ = -16						; size = 4
__$EHRec$ = -12						; size = 12
??1OBJECTSTRUCT@@QAE@XZ PROC				; OBJECTSTRUCT::~OBJECTSTRUCT, COMDAT
; _this$ = ecx
  00000	55		 push	 ebp
  00001	8b ec		 mov	 ebp, esp
  00003	6a ff		 push	 -1
  00005	68 00 00 00 00	 push	 __ehhandler$??1OBJECTSTRUCT@@QAE@XZ
  0000a	64 a1 00 00 00
	00		 mov	 eax, DWORD PTR fs:0
  00010	50		 push	 eax
  00011	51		 push	 ecx
  00012	56		 push	 esi
  00013	a1 00 00 00 00	 mov	 eax, DWORD PTR ___security_cookie
  00018	33 c5		 xor	 eax, ebp
  0001a	50		 push	 eax
  0001b	8d 45 f4	 lea	 eax, DWORD PTR __$EHRec$[ebp]
  0001e	64 a3 00 00 00
	00		 mov	 DWORD PTR fs:0, eax
  00024	8b f1		 mov	 esi, ecx
  00026	89 75 f0	 mov	 DWORD PTR _this$[ebp], esi
  00029	8d 8e ec 20 00
	00		 lea	 ecx, DWORD PTR [esi+8428]
  0002f	c7 45 fc 00 00
	00 00		 mov	 DWORD PTR __$EHRec$[ebp+8], 0
  00036	e8 00 00 00 00	 call	 ??1TMonsterAIAgro@@UAE@XZ ; TMonsterAIAgro::~TMonsterAIAgro
  0003b	8d 8e 0c 16 00
	00		 lea	 ecx, DWORD PTR [esi+5644]
  00041	c7 45 fc ff ff
	ff ff		 mov	 DWORD PTR __$EHRec$[ebp+8], -1
  00048	e8 00 00 00 00	 call	 ??1CSkillDelay@@UAE@XZ	; CSkillDelay::~CSkillDelay
  0004d	8b 4d f4	 mov	 ecx, DWORD PTR __$EHRec$[ebp]
  00050	64 89 0d 00 00
	00 00		 mov	 DWORD PTR fs:0, ecx
  00057	59		 pop	 ecx
  00058	5e		 pop	 esi
  00059	8b e5		 mov	 esp, ebp
  0005b	5d		 pop	 ebp
  0005c	c3		 ret	 0
_TEXT	ENDS
;	COMDAT text$x
text$x	SEGMENT
__unwindfunclet$??1OBJECTSTRUCT@@QAE@XZ$0:
  00000	8b 4d f0	 mov	 ecx, DWORD PTR _this$[ebp]
  00003	81 c1 0c 16 00
	00		 add	 ecx, 5644		; 0000160cH
  00009	e9 00 00 00 00	 jmp	 ??1CSkillDelay@@UAE@XZ	; CSkillDelay::~CSkillDelay
__ehhandler$??1OBJECTSTRUCT@@QAE@XZ:
  0000e	8b 54 24 08	 mov	 edx, DWORD PTR [esp+8]
  00012	8d 42 0c	 lea	 eax, DWORD PTR [edx+12]
  00015	8b 4a f4	 mov	 ecx, DWORD PTR [edx-12]
  00018	33 c8		 xor	 ecx, eax
  0001a	e8 00 00 00 00	 call	 @__security_check_cookie@4
  0001f	b8 00 00 00 00	 mov	 eax, OFFSET __ehfuncinfo$??1OBJECTSTRUCT@@QAE@XZ
  00024	e9 00 00 00 00	 jmp	 ___CxxFrameHandler3
text$x	ENDS
??1OBJECTSTRUCT@@QAE@XZ ENDP				; OBJECTSTRUCT::~OBJECTSTRUCT
EXTRN	__localtime64:PROC
; Function compile flags: /Ogtp
; File c:\program files (x86)\microsoft visual studio 10.0\vc\include\time.inl
;	COMDAT _localtime
_TEXT	SEGMENT
_localtime PROC						; COMDAT
; __Time$ = eax

; 114  : #pragma warning( push )
; 115  : #pragma warning( disable : 4996 )
; 116  :     return _localtime64(_Time);

  00000	50		 push	 eax
  00001	e8 00 00 00 00	 call	 __localtime64
  00006	83 c4 04	 add	 esp, 4

; 117  : #pragma warning( pop )
; 118  : }

  00009	c3		 ret	 0
_localtime ENDP
_TEXT	ENDS
EXTRN	__time64:PROC
; Function compile flags: /Ogtp
;	COMDAT _time
_TEXT	SEGMENT
_time	PROC						; COMDAT
; __Time$ = eax

; 133  :     return _time64(_Time);

  00000	50		 push	 eax
  00001	e8 00 00 00 00	 call	 __time64
  00006	83 c4 04	 add	 esp, 4

; 134  : }

  00009	c3		 ret	 0
_time	ENDP
_TEXT	ENDS
PUBLIC	?BuxConvert@@YAXPADH@Z				; BuxConvert
; Function compile flags: /Ogtp
; File c:\muserver_dev\development\mu-s8ep2-repack\gameserver\common\winutil.cpp
;	COMDAT ?BuxConvert@@YAXPADH@Z
_TEXT	SEGMENT
_buf$ = 8						; size = 4
_size$ = 12						; size = 4
?BuxConvert@@YAXPADH@Z PROC				; BuxConvert, COMDAT

; 15   : {

  00000	55		 push	 ebp
  00001	8b ec		 mov	 ebp, esp
  00003	57		 push	 edi

; 16   : 	int n;
; 17   : 
; 18   : 	for (n=0;n<size;n++)

  00004	8b 7d 0c	 mov	 edi, DWORD PTR _size$[ebp]
  00007	33 c9		 xor	 ecx, ecx
  00009	85 ff		 test	 edi, edi
  0000b	7e 23		 jle	 SHORT $LN1@BuxConvert
  0000d	56		 push	 esi
  0000e	8b 75 08	 mov	 esi, DWORD PTR _buf$[ebp]
$LL3@BuxConvert:

; 19   : 	{
; 20   : 		buf[n]^=bBuxCode[n%3] ;		// Nice trick from WebZen

  00011	b8 ab aa aa aa	 mov	 eax, -1431655765	; aaaaaaabH
  00016	f7 e1		 mul	 ecx
  00018	d1 ea		 shr	 edx, 1
  0001a	8d 04 52	 lea	 eax, DWORD PTR [edx+edx*2]
  0001d	8b d1		 mov	 edx, ecx
  0001f	2b d0		 sub	 edx, eax
  00021	8a 82 00 00 00
	00		 mov	 al, BYTE PTR _bBuxCode[edx]
  00027	30 04 31	 xor	 BYTE PTR [ecx+esi], al
  0002a	41		 inc	 ecx
  0002b	3b cf		 cmp	 ecx, edi
  0002d	7c e2		 jl	 SHORT $LL3@BuxConvert
  0002f	5e		 pop	 esi
$LN1@BuxConvert:
  00030	5f		 pop	 edi

; 21   : 	}
; 22   : }

  00031	5d		 pop	 ebp
  00032	c3		 ret	 0
?BuxConvert@@YAXPADH@Z ENDP				; BuxConvert
_TEXT	ENDS
PUBLIC	?SQLSyntexCheck@@YAHPAD@Z			; SQLSyntexCheck
; Function compile flags: /Ogtp
;	COMDAT ?SQLSyntexCheck@@YAHPAD@Z
_TEXT	SEGMENT
_SQLString$ = 8						; size = 4
?SQLSyntexCheck@@YAHPAD@Z PROC				; SQLSyntexCheck, COMDAT

; 26   : {

  00000	55		 push	 ebp
  00001	8b ec		 mov	 ebp, esp
  00003	56		 push	 esi

; 27   : 	char* temp;
; 28   : 
; 29   : 	temp=strchr(SQLString, 39);

  00004	8b 75 08	 mov	 esi, DWORD PTR _SQLString$[ebp]
  00007	6a 27		 push	 39			; 00000027H
  00009	56		 push	 esi
  0000a	e8 00 00 00 00	 call	 _strchr
  0000f	83 c4 08	 add	 esp, 8

; 30   : 	if (temp==0)

  00012	85 c0		 test	 eax, eax
  00014	75 13		 jne	 SHORT $LN4@SQLSyntexC

; 31   : 	{
; 32   : 		temp=strchr(SQLString, 32);

  00016	6a 20		 push	 32			; 00000020H
  00018	56		 push	 esi
  00019	e8 00 00 00 00	 call	 _strchr
  0001e	83 c4 08	 add	 esp, 8

; 33   : 		if (temp==0)

  00021	f7 d8		 neg	 eax
  00023	1b c0		 sbb	 eax, eax
  00025	40		 inc	 eax
  00026	5e		 pop	 esi

; 45   : 	}
; 46   : }

  00027	5d		 pop	 ebp
  00028	c3		 ret	 0
$LN4@SQLSyntexC:

; 34   : 		{
; 35   : 			return TRUE;
; 36   : 		}
; 37   : 		else
; 38   : 		{
; 39   : 			return FALSE;
; 40   : 		}
; 41   : 	}
; 42   : 	else
; 43   : 	{
; 44   : 		return FALSE;

  00029	33 c0		 xor	 eax, eax
  0002b	5e		 pop	 esi

; 45   : 	}
; 46   : }

  0002c	5d		 pop	 ebp
  0002d	c3		 ret	 0
?SQLSyntexCheck@@YAHPAD@Z ENDP				; SQLSyntexCheck
_TEXT	ENDS
PUBLIC	??_C@_02OHHJMEON@?8?8?$AA@			; `string'
PUBLIC	_SQLString$GSCopy$
PUBLIC	__$ArrayPad$
PUBLIC	?SQLSyntexCheckConvert@@YAHPAD@Z		; SQLSyntexCheckConvert
EXTRN	_memcpy:PROC
;	COMDAT ??_C@_02OHHJMEON@?8?8?$AA@
; File c:\program files (x86)\microsoft visual studio 10.0\vc\include\string.h
CONST	SEGMENT
??_C@_02OHHJMEON@?8?8?$AA@ DB '''''', 00H		; `string'
; Function compile flags: /Ogtp
; File c:\muserver_dev\development\mu-s8ep2-repack\gameserver\common\winutil.cpp
CONST	ENDS
;	COMDAT ?SQLSyntexCheckConvert@@YAHPAD@Z
_TEXT	SEGMENT
_SQLString$GSCopy$ = -264				; size = 4
_tempSQL$ = -260					; size = 256
__$ArrayPad$ = -4					; size = 4
_SQLString$ = 8						; size = 4
?SQLSyntexCheckConvert@@YAHPAD@Z PROC			; SQLSyntexCheckConvert, COMDAT

; 49   : {

  00000	55		 push	 ebp
  00001	8b ec		 mov	 ebp, esp
  00003	81 ec 08 01 00
	00		 sub	 esp, 264		; 00000108H
  00009	a1 00 00 00 00	 mov	 eax, DWORD PTR ___security_cookie
  0000e	33 c5		 xor	 eax, ebp
  00010	89 45 fc	 mov	 DWORD PTR __$ArrayPad$[ebp], eax
  00013	53		 push	 ebx
  00014	56		 push	 esi
  00015	57		 push	 edi
  00016	8b 7d 08	 mov	 edi, DWORD PTR _SQLString$[ebp]

; 50   : 	char tempSQL[256];
; 51   : 	char* temp;
; 52   : 	char* temp2;
; 53   : 
; 54   : 	temp2 = SQLString;
; 55   : 	int lOfs=0;
; 56   : 	int tOfs=0;

  00019	33 db		 xor	 ebx, ebx

; 84   : 			
; 85   : 		}
; 86   : 		else
; 87   : 		{
; 88   : 			strcpy(&tempSQL[tOfs], temp2);

  0001b	89 bd f8 fe ff
	ff		 mov	 DWORD PTR _SQLString$GSCopy$[ebp], edi
  00021	8b f7		 mov	 esi, edi
  00023	85 ff		 test	 edi, edi
  00025	75 13		 jne	 SHORT $LN13@SQLSyntexC@2

; 57   : 	int sOfs=0;
; 58   : 
; 59   : 	
; 60   : 
; 61   : 	if (SQLString==0)
; 62   : 	{
; 63   : 		return FALSE;

  00027	5f		 pop	 edi
  00028	5e		 pop	 esi
  00029	33 c0		 xor	 eax, eax
  0002b	5b		 pop	 ebx

; 95   : 	return TRUE;
; 96   : }

  0002c	8b 4d fc	 mov	 ecx, DWORD PTR __$ArrayPad$[ebp]
  0002f	33 cd		 xor	 ecx, ebp
  00031	e8 00 00 00 00	 call	 @__security_check_cookie@4
  00036	8b e5		 mov	 esp, ebp
  00038	5d		 pop	 ebp
  00039	c3		 ret	 0
$LN13@SQLSyntexC@2:

; 64   : 	}
; 65   : 	while (true)
; 66   : 	{
; 67   : 		temp = strchr(temp2, 39);

  0003a	6a 27		 push	 39			; 00000027H
  0003c	57		 push	 edi
  0003d	e8 00 00 00 00	 call	 _strchr
  00042	83 c4 08	 add	 esp, 8

; 68   : 		if (temp != 0 )

  00045	85 c0		 test	 eax, eax
  00047	74 67		 je	 SHORT $LN3@SQLSyntexC@2
  00049	8d a4 24 00 00
	00 00		 npad	 7
$LL5@SQLSyntexC@2:

; 69   : 		{
; 70   : 			if (temp - temp2 != 0)

  00050	8b f8		 mov	 edi, eax
  00052	2b fe		 sub	 edi, esi
  00054	74 12		 je	 SHORT $LN2@SQLSyntexC@2

; 71   : 			{
; 72   : 				memcpy(&tempSQL[tOfs], temp2, temp-temp2);

  00056	57		 push	 edi
  00057	8d 84 1d fc fe
	ff ff		 lea	 eax, DWORD PTR _tempSQL$[ebp+ebx]
  0005e	56		 push	 esi
  0005f	50		 push	 eax
  00060	e8 00 00 00 00	 call	 _memcpy
  00065	83 c4 0c	 add	 esp, 12			; 0000000cH
$LN2@SQLSyntexC@2:

; 73   : 			}
; 74   : 			lOfs = temp - (temp2 + sOfs);
; 75   : 			tOfs += lOfs;

  00068	03 df		 add	 ebx, edi

; 76   : 			temp2 += lOfs;
; 77   : 
; 78   : 			tempSQL[tOfs]=0;

  0006a	c6 84 1d fc fe
	ff ff 00	 mov	 BYTE PTR _tempSQL$[ebp+ebx], 0

; 79   : 
; 80   : 			tOfs += 2;
; 81   : 			temp2++;
; 82   : 
; 83   : 			strcat(tempSQL, "''");

  00072	8d 85 fc fe ff
	ff		 lea	 eax, DWORD PTR _tempSQL$[ebp]
  00078	83 c3 02	 add	 ebx, 2
  0007b	8d 74 3e 01	 lea	 esi, DWORD PTR [esi+edi+1]
  0007f	48		 dec	 eax
$LL16@SQLSyntexC@2:
  00080	8a 48 01	 mov	 cl, BYTE PTR [eax+1]
  00083	40		 inc	 eax
  00084	84 c9		 test	 cl, cl
  00086	75 f8		 jne	 SHORT $LL16@SQLSyntexC@2
  00088	66 8b 0d 00 00
	00 00		 mov	 cx, WORD PTR ??_C@_02OHHJMEON@?8?8?$AA@
  0008f	8a 15 02 00 00
	00		 mov	 dl, BYTE PTR ??_C@_02OHHJMEON@?8?8?$AA@+2
  00095	6a 27		 push	 39			; 00000027H
  00097	66 89 08	 mov	 WORD PTR [eax], cx
  0009a	56		 push	 esi
  0009b	88 50 02	 mov	 BYTE PTR [eax+2], dl
  0009e	e8 00 00 00 00	 call	 _strchr
  000a3	83 c4 08	 add	 esp, 8
  000a6	85 c0		 test	 eax, eax
  000a8	75 a6		 jne	 SHORT $LL5@SQLSyntexC@2

; 68   : 		if (temp != 0 )

  000aa	8b bd f8 fe ff
	ff		 mov	 edi, DWORD PTR _SQLString$GSCopy$[ebp]
$LN3@SQLSyntexC@2:

; 84   : 			
; 85   : 		}
; 86   : 		else
; 87   : 		{
; 88   : 			strcpy(&tempSQL[tOfs], temp2);

  000b0	8d 9c 1d fc fe
	ff ff		 lea	 ebx, DWORD PTR _tempSQL$[ebp+ebx]
  000b7	2b de		 sub	 ebx, esi
  000b9	8d a4 24 00 00
	00 00		 npad	 7
$LL9@SQLSyntexC@2:
  000c0	8a 06		 mov	 al, BYTE PTR [esi]
  000c2	88 04 33	 mov	 BYTE PTR [ebx+esi], al
  000c5	46		 inc	 esi
  000c6	84 c0		 test	 al, al
  000c8	75 f6		 jne	 SHORT $LL9@SQLSyntexC@2

; 89   : 			break;
; 90   : 		}
; 91   : 	}
; 92   : 
; 93   : 	
; 94   : 	strcpy(SQLString, tempSQL);		// Strange unseless jump here

  000ca	8d 85 fc fe ff
	ff		 lea	 eax, DWORD PTR _tempSQL$[ebp]
  000d0	8b d7		 mov	 edx, edi
  000d2	8b c8		 mov	 ecx, eax
  000d4	2b d1		 sub	 edx, ecx
$LL10@SQLSyntexC@2:
  000d6	8a 08		 mov	 cl, BYTE PTR [eax]
  000d8	88 0c 02	 mov	 BYTE PTR [edx+eax], cl
  000db	40		 inc	 eax
  000dc	84 c9		 test	 cl, cl
  000de	75 f6		 jne	 SHORT $LL10@SQLSyntexC@2

; 95   : 	return TRUE;
; 96   : }

  000e0	8b 4d fc	 mov	 ecx, DWORD PTR __$ArrayPad$[ebp]
  000e3	5f		 pop	 edi
  000e4	5e		 pop	 esi
  000e5	33 cd		 xor	 ecx, ebp
  000e7	b8 01 00 00 00	 mov	 eax, 1
  000ec	5b		 pop	 ebx
  000ed	e8 00 00 00 00	 call	 @__security_check_cookie@4
  000f2	8b e5		 mov	 esp, ebp
  000f4	5d		 pop	 ebp
  000f5	c3		 ret	 0
?SQLSyntexCheckConvert@@YAHPAD@Z ENDP			; SQLSyntexCheckConvert
_TEXT	ENDS
PUBLIC	?SpaceSyntexCheck@@YAHPAD@Z			; SpaceSyntexCheck
; Function compile flags: /Ogtp
;	COMDAT ?SpaceSyntexCheck@@YAHPAD@Z
_TEXT	SEGMENT
_string$ = 8						; size = 4
?SpaceSyntexCheck@@YAHPAD@Z PROC			; SpaceSyntexCheck, COMDAT

; 100  : {

  00000	55		 push	 ebp
  00001	8b ec		 mov	 ebp, esp

; 101  : 	char* temp;
; 102  : 	
; 103  : 	temp = strchr(string, 32);

  00003	8b 45 08	 mov	 eax, DWORD PTR _string$[ebp]
  00006	6a 20		 push	 32			; 00000020H
  00008	50		 push	 eax
  00009	e8 00 00 00 00	 call	 _strchr
  0000e	83 c4 08	 add	 esp, 8

; 104  : 	if (temp ==0 )

  00011	f7 d8		 neg	 eax
  00013	1b c0		 sbb	 eax, eax
  00015	40		 inc	 eax

; 105  : 	{
; 106  : 		return TRUE;
; 107  : 	}
; 108  : 	else
; 109  : 	{
; 110  : 		return FALSE;
; 111  : 	}
; 112  : }

  00016	5d		 pop	 ebp
  00017	c3		 ret	 0
?SpaceSyntexCheck@@YAHPAD@Z ENDP			; SpaceSyntexCheck
_TEXT	ENDS
PUBLIC	__$ArrayPad$
PUBLIC	?StrHangulCheck@@YAHPAD@Z			; StrHangulCheck
EXTRN	_memset:PROC
; Function compile flags: /Ogtp
;	COMDAT ?StrHangulCheck@@YAHPAD@Z
_TEXT	SEGMENT
_szTemp$ = -260						; size = 256
__$ArrayPad$ = -4					; size = 4
_str$ = 8						; size = 4
?StrHangulCheck@@YAHPAD@Z PROC				; StrHangulCheck, COMDAT

; 116  : {

  00000	55		 push	 ebp
  00001	8b ec		 mov	 ebp, esp
  00003	81 ec 04 01 00
	00		 sub	 esp, 260		; 00000104H
  00009	a1 00 00 00 00	 mov	 eax, DWORD PTR ___security_cookie
  0000e	33 c5		 xor	 eax, ebp
  00010	89 45 fc	 mov	 DWORD PTR __$ArrayPad$[ebp], eax
  00013	53		 push	 ebx
  00014	8b 5d 08	 mov	 ebx, DWORD PTR _str$[ebp]
  00017	56		 push	 esi
  00018	57		 push	 edi

; 117  : 	BYTE code1;
; 118  : 	BYTE code2;
; 119  : 	BYTE code;
; 120  : 	int i = 0;
; 121  : 	int n = 0;
; 122  : 	char	szTemp[256] = "";

  00019	68 ff 00 00 00	 push	 255			; 000000ffH
  0001e	8d 85 fd fe ff
	ff		 lea	 eax, DWORD PTR _szTemp$[ebp+1]
  00024	6a 00		 push	 0
  00026	50		 push	 eax
  00027	c6 85 fc fe ff
	ff 00		 mov	 BYTE PTR _szTemp$[ebp], 0
  0002e	e8 00 00 00 00	 call	 _memset
  00033	83 c4 0c	 add	 esp, 12			; 0000000cH

; 123  : 	int result = 1;
; 124  : 	int count = 0xFF;	// -1

  00036	bf ff 00 00 00	 mov	 edi, 255		; 000000ffH

; 128  : 	{
; 129  : 	
; 130  : 		code1=str[i];

  0003b	8d 85 fc fe ff
	ff		 lea	 eax, DWORD PTR _szTemp$[ebp]

; 142  : 				n++;

  00041	8b f3		 mov	 esi, ebx
$LL9@StrHangulC:

; 125  : 
; 126  : 
; 127  : 	while ((count--) != 0)

  00043	8a 0e		 mov	 cl, BYTE PTR [esi]
  00045	4f		 dec	 edi

; 131  : 		i++;

  00046	46		 inc	 esi

; 132  : 
; 133  : 		if (code1==0)

  00047	84 c9		 test	 cl, cl
  00049	74 21		 je	 SHORT $LN16@StrHangulC

; 134  : 		{
; 135  : 			break;
; 136  : 		}
; 137  : 		else
; 138  : 		{
; 139  : 			if (code1<128)

  0004b	80 f9 80	 cmp	 cl, 128			; 00000080H
  0004e	73 05		 jae	 SHORT $LN5@StrHangulC

; 140  : 			{
; 141  : 				szTemp[n]=code1;

  00050	88 08		 mov	 BYTE PTR [eax], cl

; 142  : 				n++;

  00052	40		 inc	 eax

; 143  : 				continue;

  00053	eb 13		 jmp	 SHORT $LN1@StrHangulC
$LN5@StrHangulC:

; 144  : 			}
; 145  : 			else
; 146  : 			{
; 147  : 				code2=str[i];

  00055	8a 16		 mov	 dl, BYTE PTR [esi]

; 148  : 				i++;

  00057	46		 inc	 esi

; 149  : 				code=code2 | (code1<<8);
; 150  : 
; 151  : 				if ((code)>0)

  00058	84 d2		 test	 dl, dl
  0005a	74 10		 je	 SHORT $LN16@StrHangulC

; 152  : 				{
; 153  : 					szTemp[n]=code1;

  0005c	88 08		 mov	 BYTE PTR [eax], cl

; 154  : 					n++;
; 155  : 					szTemp[n]=code2;

  0005e	88 50 01	 mov	 BYTE PTR [eax+1], dl

; 156  : 					n++;

  00061	83 c0 02	 add	 eax, 2

; 157  : 				}
; 158  : 				else
; 159  : 				{
; 160  : 					result =0;
; 161  : 				}
; 162  : 				if(code2==0)

  00064	84 d2		 test	 dl, dl
  00066	74 04		 je	 SHORT $LN16@StrHangulC
$LN1@StrHangulC:

; 125  : 
; 126  : 
; 127  : 	while ((count--) != 0)

  00068	85 ff		 test	 edi, edi
  0006a	75 d7		 jne	 SHORT $LL9@StrHangulC
$LN16@StrHangulC:
  0006c	5f		 pop	 edi

; 163  : 				{
; 164  : 					break;
; 165  : 				}
; 166  : 			}
; 167  : 		}
; 168  : 	}
; 169  : 	
; 170  : 	
; 171  : 	strcpy(str, szTemp);

  0006d	8d 85 fc fe ff
	ff		 lea	 eax, DWORD PTR _szTemp$[ebp]
  00073	8b d3		 mov	 edx, ebx
  00075	8b c8		 mov	 ecx, eax
  00077	5e		 pop	 esi
  00078	2b d1		 sub	 edx, ecx
  0007a	5b		 pop	 ebx
  0007b	eb 03 8d 49 00	 npad	 5
$LL12@StrHangulC:
  00080	8a 08		 mov	 cl, BYTE PTR [eax]
  00082	88 0c 02	 mov	 BYTE PTR [edx+eax], cl
  00085	40		 inc	 eax
  00086	84 c9		 test	 cl, cl
  00088	75 f6		 jne	 SHORT $LL12@StrHangulC

; 172  : 	return TRUE;
; 173  : }

  0008a	8b 4d fc	 mov	 ecx, DWORD PTR __$ArrayPad$[ebp]
  0008d	33 cd		 xor	 ecx, ebp
  0008f	b8 01 00 00 00	 mov	 eax, 1
  00094	e8 00 00 00 00	 call	 @__security_check_cookie@4
  00099	8b e5		 mov	 esp, ebp
  0009b	5d		 pop	 ebp
  0009c	c3		 ret	 0
?StrHangulCheck@@YAHPAD@Z ENDP				; StrHangulCheck
_TEXT	ENDS
PUBLIC	??_C@_01EEMJAFIK@?6?$AA@			; `string'
PUBLIC	??_C@_02CPIDLAI@at?$AA@				; `string'
PUBLIC	?FileSaveString@@YAXPAD0@Z			; FileSaveString
EXTRN	_fclose:PROC
EXTRN	_fprintf:PROC
EXTRN	_fopen:PROC
;	COMDAT ??_C@_01EEMJAFIK@?6?$AA@
CONST	SEGMENT
??_C@_01EEMJAFIK@?6?$AA@ DB 0aH, 00H			; `string'
CONST	ENDS
;	COMDAT ??_C@_02CPIDLAI@at?$AA@
CONST	SEGMENT
??_C@_02CPIDLAI@at?$AA@ DB 'at', 00H			; `string'
; Function compile flags: /Ogtp
CONST	ENDS
;	COMDAT ?FileSaveString@@YAXPAD0@Z
_TEXT	SEGMENT
_filename$ = 8						; size = 4
_string$ = 12						; size = 4
?FileSaveString@@YAXPAD0@Z PROC				; FileSaveString, COMDAT

; 177  : {

  00000	55		 push	 ebp
  00001	8b ec		 mov	 ebp, esp

; 178  : 	FILE* fp;
; 179  : 	
; 180  : 	fp=fopen(filename, "at");

  00003	8b 45 08	 mov	 eax, DWORD PTR _filename$[ebp]
  00006	56		 push	 esi
  00007	68 00 00 00 00	 push	 OFFSET ??_C@_02CPIDLAI@at?$AA@
  0000c	50		 push	 eax
  0000d	e8 00 00 00 00	 call	 _fopen
  00012	8b f0		 mov	 esi, eax
  00014	83 c4 08	 add	 esp, 8

; 181  : 
; 182  : 	if (fp==0)

  00017	85 f6		 test	 esi, esi
  00019	74 1e		 je	 SHORT $LN1@FileSaveSt

; 183  : 	{
; 184  : 		return;
; 185  : 	}
; 186  : 	else
; 187  : 	{
; 188  : 		fprintf(fp, string);

  0001b	8b 4d 0c	 mov	 ecx, DWORD PTR _string$[ebp]
  0001e	51		 push	 ecx
  0001f	56		 push	 esi
  00020	e8 00 00 00 00	 call	 _fprintf

; 189  : 		fprintf(fp, "\n");

  00025	68 00 00 00 00	 push	 OFFSET ??_C@_01EEMJAFIK@?6?$AA@
  0002a	56		 push	 esi
  0002b	e8 00 00 00 00	 call	 _fprintf

; 190  : 		fclose(fp);

  00030	56		 push	 esi
  00031	e8 00 00 00 00	 call	 _fclose
  00036	83 c4 14	 add	 esp, 20			; 00000014H
$LN1@FileSaveSt:
  00039	5e		 pop	 esi

; 191  : 	}
; 192  : }

  0003a	5d		 pop	 ebp
  0003b	c3		 ret	 0
?FileSaveString@@YAXPAD0@Z ENDP				; FileSaveString
_TEXT	ENDS
PUBLIC	??_C@_02JDPG@rb?$AA@				; `string'
PUBLIC	?IsFile@@YAHPAD@Z				; IsFile
;	COMDAT ??_C@_02JDPG@rb?$AA@
CONST	SEGMENT
??_C@_02JDPG@rb?$AA@ DB 'rb', 00H			; `string'
; Function compile flags: /Ogtp
CONST	ENDS
;	COMDAT ?IsFile@@YAHPAD@Z
_TEXT	SEGMENT
_filename$ = 8						; size = 4
?IsFile@@YAHPAD@Z PROC					; IsFile, COMDAT

; 200  : {

  00000	55		 push	 ebp
  00001	8b ec		 mov	 ebp, esp

; 201  : FILE *fp;
; 202  : 	
; 203  : 	fp=fopen(filename,"rb");

  00003	8b 45 08	 mov	 eax, DWORD PTR _filename$[ebp]
  00006	68 00 00 00 00	 push	 OFFSET ??_C@_02JDPG@rb?$AA@
  0000b	50		 push	 eax
  0000c	e8 00 00 00 00	 call	 _fopen
  00011	83 c4 08	 add	 esp, 8

; 204  : 	if (fp==0)

  00014	85 c0		 test	 eax, eax
  00016	75 02		 jne	 SHORT $LN2@IsFile

; 212  : 	}
; 213  : }

  00018	5d		 pop	 ebp
  00019	c3		 ret	 0
$LN2@IsFile:

; 205  : 	{
; 206  : 		return FALSE;
; 207  : 	}
; 208  : 	else
; 209  : 	{
; 210  : 		fclose(fp);

  0001a	50		 push	 eax
  0001b	e8 00 00 00 00	 call	 _fclose
  00020	83 c4 04	 add	 esp, 4

; 211  : 		return TRUE;

  00023	b8 01 00 00 00	 mov	 eax, 1

; 212  : 	}
; 213  : }

  00028	5d		 pop	 ebp
  00029	c3		 ret	 0
?IsFile@@YAHPAD@Z ENDP					; IsFile
_TEXT	ENDS
PUBLIC	??_C@_0N@NMLPILGG@?$CF02d?$CF02d?$CF02d?$AA@	; `string'
PUBLIC	?GetTodayString@@YAXPAD@Z			; GetTodayString
EXTRN	__imp__wsprintfA:PROC
;	COMDAT ??_C@_0N@NMLPILGG@?$CF02d?$CF02d?$CF02d?$AA@
; File c:\program files (x86)\microsoft visual studio 10.0\vc\include\time.inl
CONST	SEGMENT
??_C@_0N@NMLPILGG@?$CF02d?$CF02d?$CF02d?$AA@ DB '%02d%02d%02d', 00H ; `string'
; Function compile flags: /Ogtp
; File c:\muserver_dev\development\mu-s8ep2-repack\gameserver\common\winutil.cpp
CONST	ENDS
;	COMDAT ?GetTodayString@@YAXPAD@Z
_TEXT	SEGMENT
_ltime$ = -8						; size = 8
_szDate$ = 8						; size = 4
?GetTodayString@@YAXPAD@Z PROC				; GetTodayString, COMDAT

; 217  : {

  00000	55		 push	 ebp
  00001	8b ec		 mov	 ebp, esp

; 218  : 	tm* today;
; 219  : 	time_t ltime;
; 220  : 	
; 221  : 
; 222  : 	time(&ltime);

  00003	8d 45 f8	 lea	 eax, DWORD PTR _ltime$[ebp]
  00006	83 ec 08	 sub	 esp, 8
  00009	50		 push	 eax
  0000a	e8 00 00 00 00	 call	 __time64

; 223  : 	today=localtime(&ltime);

  0000f	8d 4d f8	 lea	 ecx, DWORD PTR _ltime$[ebp]
  00012	51		 push	 ecx
  00013	e8 00 00 00 00	 call	 __localtime64

; 224  : 
; 225  : 	today->tm_year = today->tm_year +1900;

  00018	81 40 14 6c 07
	00 00		 add	 DWORD PTR [eax+20], 1900 ; 0000076cH
  0001f	8b 48 14	 mov	 ecx, DWORD PTR [eax+20]

; 226  : 
; 227  : 	wsprintf(szDate, "%02d%02d%02d", today->tm_year , today->tm_mon +1 , today->tm_mday );

  00022	8b 50 0c	 mov	 edx, DWORD PTR [eax+12]
  00025	8b 40 10	 mov	 eax, DWORD PTR [eax+16]
  00028	52		 push	 edx
  00029	40		 inc	 eax
  0002a	50		 push	 eax
  0002b	51		 push	 ecx
  0002c	8b 4d 08	 mov	 ecx, DWORD PTR _szDate$[ebp]
  0002f	68 00 00 00 00	 push	 OFFSET ??_C@_0N@NMLPILGG@?$CF02d?$CF02d?$CF02d?$AA@
  00034	51		 push	 ecx
  00035	ff 15 00 00 00
	00		 call	 DWORD PTR __imp__wsprintfA
  0003b	83 c4 1c	 add	 esp, 28			; 0000001cH

; 228  : }

  0003e	8b e5		 mov	 esp, ebp
  00040	5d		 pop	 ebp
  00041	c3		 ret	 0
?GetTodayString@@YAXPAD@Z ENDP				; GetTodayString
_TEXT	ENDS
PUBLIC	?PHeadSetB@@YAXPAEEH@Z				; PHeadSetB
; Function compile flags: /Ogtp
;	COMDAT ?PHeadSetB@@YAXPAEEH@Z
_TEXT	SEGMENT
_lpBuf$ = 8						; size = 4
_head$ = 12						; size = 1
_size$ = 16						; size = 4
?PHeadSetB@@YAXPAEEH@Z PROC				; PHeadSetB, COMDAT

; 232  : {

  00000	55		 push	 ebp
  00001	8b ec		 mov	 ebp, esp

; 233  : 	lpBuf[0] =0xC1;		// Packets

  00003	8b 45 08	 mov	 eax, DWORD PTR _lpBuf$[ebp]

; 234  : 	lpBuf[1] =size;

  00006	8a 4d 10	 mov	 cl, BYTE PTR _size$[ebp]

; 235  : 	lpBuf[2] =head;

  00009	8a 55 0c	 mov	 dl, BYTE PTR _head$[ebp]
  0000c	c6 00 c1	 mov	 BYTE PTR [eax], 193	; 000000c1H
  0000f	88 48 01	 mov	 BYTE PTR [eax+1], cl
  00012	88 50 02	 mov	 BYTE PTR [eax+2], dl

; 236  : }

  00015	5d		 pop	 ebp
  00016	c3		 ret	 0
?PHeadSetB@@YAXPAEEH@Z ENDP				; PHeadSetB
_TEXT	ENDS
PUBLIC	?PHeadSubSetB@@YAXPAEEEH@Z			; PHeadSubSetB
; Function compile flags: /Ogtp
;	COMDAT ?PHeadSubSetB@@YAXPAEEEH@Z
_TEXT	SEGMENT
_lpBuf$ = 8						; size = 4
_head$ = 12						; size = 1
_sub$ = 16						; size = 1
_size$ = 20						; size = 4
?PHeadSubSetB@@YAXPAEEEH@Z PROC				; PHeadSubSetB, COMDAT

; 240  : {

  00000	55		 push	 ebp
  00001	8b ec		 mov	 ebp, esp

; 241  : 	lpBuf[0] =0xC1;	// Packets

  00003	8b 45 08	 mov	 eax, DWORD PTR _lpBuf$[ebp]

; 242  : 	lpBuf[1] =size;

  00006	8a 4d 14	 mov	 cl, BYTE PTR _size$[ebp]

; 243  : 	lpBuf[2] =head;

  00009	8a 55 0c	 mov	 dl, BYTE PTR _head$[ebp]
  0000c	88 48 01	 mov	 BYTE PTR [eax+1], cl

; 244  : 	lpBuf[3] =sub;

  0000f	8a 4d 10	 mov	 cl, BYTE PTR _sub$[ebp]
  00012	c6 00 c1	 mov	 BYTE PTR [eax], 193	; 000000c1H
  00015	88 50 02	 mov	 BYTE PTR [eax+2], dl
  00018	88 48 03	 mov	 BYTE PTR [eax+3], cl

; 245  : }

  0001b	5d		 pop	 ebp
  0001c	c3		 ret	 0
?PHeadSubSetB@@YAXPAEEEH@Z ENDP				; PHeadSubSetB
_TEXT	ENDS
PUBLIC	?PHeadSetW@@YAXPAEEH@Z				; PHeadSetW
; Function compile flags: /Ogtp
;	COMDAT ?PHeadSetW@@YAXPAEEH@Z
_TEXT	SEGMENT
_lpBuf$ = 8						; size = 4
_head$ = 12						; size = 1
_size$ = 16						; size = 4
?PHeadSetW@@YAXPAEEH@Z PROC				; PHeadSetW, COMDAT

; 248  : {

  00000	55		 push	 ebp
  00001	8b ec		 mov	 ebp, esp

; 249  : 	lpBuf[0] = 0xC2;	// Packets Header

  00003	8b 45 08	 mov	 eax, DWORD PTR _lpBuf$[ebp]

; 250  : 	lpBuf[1]= SET_NUMBERH(size);

  00006	8b 4d 10	 mov	 ecx, DWORD PTR _size$[ebp]
  00009	8b d1		 mov	 edx, ecx

; 251  : 	lpBuf[2]= SET_NUMBERL(size);

  0000b	88 48 02	 mov	 BYTE PTR [eax+2], cl

; 252  : 	lpBuf[3]= head;

  0000e	8a 4d 0c	 mov	 cl, BYTE PTR _head$[ebp]
  00011	c1 ea 08	 shr	 edx, 8
  00014	c6 00 c2	 mov	 BYTE PTR [eax], 194	; 000000c2H
  00017	88 50 01	 mov	 BYTE PTR [eax+1], dl
  0001a	88 48 03	 mov	 BYTE PTR [eax+3], cl

; 253  : }

  0001d	5d		 pop	 ebp
  0001e	c3		 ret	 0
?PHeadSetW@@YAXPAEEH@Z ENDP				; PHeadSetW
_TEXT	ENDS
PUBLIC	?PHeadSubSetW@@YAXPAEEEH@Z			; PHeadSubSetW
; Function compile flags: /Ogtp
;	COMDAT ?PHeadSubSetW@@YAXPAEEEH@Z
_TEXT	SEGMENT
_lpBuf$ = 8						; size = 4
_head$ = 12						; size = 1
_sub$ = 16						; size = 1
_size$ = 20						; size = 4
?PHeadSubSetW@@YAXPAEEEH@Z PROC				; PHeadSubSetW, COMDAT

; 256  : {

  00000	55		 push	 ebp
  00001	8b ec		 mov	 ebp, esp

; 257  : 	lpBuf[0]=0xC2;	// packet header
; 258  : 	lpBuf[1]=SET_NUMBERH(size);

  00003	8b 4d 14	 mov	 ecx, DWORD PTR _size$[ebp]
  00006	8b 45 08	 mov	 eax, DWORD PTR _lpBuf$[ebp]
  00009	8b d1		 mov	 edx, ecx
  0000b	c1 ea 08	 shr	 edx, 8
  0000e	88 50 01	 mov	 BYTE PTR [eax+1], dl

; 259  : 	lpBuf[2]=SET_NUMBERL(size);
; 260  : 	lpBuf[3]=head;
; 261  : 	lpBuf[4]=sub;

  00011	8a 55 10	 mov	 dl, BYTE PTR _sub$[ebp]
  00014	88 48 02	 mov	 BYTE PTR [eax+2], cl
  00017	8a 4d 0c	 mov	 cl, BYTE PTR _head$[ebp]
  0001a	c6 00 c2	 mov	 BYTE PTR [eax], 194	; 000000c2H
  0001d	88 48 03	 mov	 BYTE PTR [eax+3], cl
  00020	88 50 04	 mov	 BYTE PTR [eax+4], dl

; 262  : }

  00023	5d		 pop	 ebp
  00024	c3		 ret	 0
?PHeadSubSetW@@YAXPAEEEH@Z ENDP				; PHeadSubSetW
_TEXT	ENDS
PUBLIC	?PHeadSetBE@@YAXPAEEH@Z				; PHeadSetBE
; Function compile flags: /Ogtp
;	COMDAT ?PHeadSetBE@@YAXPAEEH@Z
_TEXT	SEGMENT
_lpBuf$ = 8						; size = 4
_head$ = 12						; size = 1
_size$ = 16						; size = 4
?PHeadSetBE@@YAXPAEEH@Z PROC				; PHeadSetBE, COMDAT

; 266  : {

  00000	55		 push	 ebp
  00001	8b ec		 mov	 ebp, esp

; 267  : 	lpBuf[0] =0xC3;

  00003	8b 45 08	 mov	 eax, DWORD PTR _lpBuf$[ebp]

; 268  : 	lpBuf[1] =size;

  00006	8a 4d 10	 mov	 cl, BYTE PTR _size$[ebp]

; 269  : 	lpBuf[2] =head;

  00009	8a 55 0c	 mov	 dl, BYTE PTR _head$[ebp]
  0000c	c6 00 c3	 mov	 BYTE PTR [eax], 195	; 000000c3H
  0000f	88 48 01	 mov	 BYTE PTR [eax+1], cl
  00012	88 50 02	 mov	 BYTE PTR [eax+2], dl

; 270  : }

  00015	5d		 pop	 ebp
  00016	c3		 ret	 0
?PHeadSetBE@@YAXPAEEH@Z ENDP				; PHeadSetBE
_TEXT	ENDS
PUBLIC	?PHeadSubSetBE@@YAXPAEEEH@Z			; PHeadSubSetBE
; Function compile flags: /Ogtp
;	COMDAT ?PHeadSubSetBE@@YAXPAEEEH@Z
_TEXT	SEGMENT
_lpBuf$ = 8						; size = 4
_head$ = 12						; size = 1
_sub$ = 16						; size = 1
_size$ = 20						; size = 4
?PHeadSubSetBE@@YAXPAEEEH@Z PROC			; PHeadSubSetBE, COMDAT

; 273  : {

  00000	55		 push	 ebp
  00001	8b ec		 mov	 ebp, esp

; 274  : 	lpBuf[0] =0xC3;

  00003	8b 45 08	 mov	 eax, DWORD PTR _lpBuf$[ebp]

; 275  : 	lpBuf[1] =size;

  00006	8a 4d 14	 mov	 cl, BYTE PTR _size$[ebp]

; 276  : 	lpBuf[2] =head;

  00009	8a 55 0c	 mov	 dl, BYTE PTR _head$[ebp]
  0000c	88 48 01	 mov	 BYTE PTR [eax+1], cl

; 277  : 	lpBuf[3] =sub;

  0000f	8a 4d 10	 mov	 cl, BYTE PTR _sub$[ebp]
  00012	c6 00 c3	 mov	 BYTE PTR [eax], 195	; 000000c3H
  00015	88 50 02	 mov	 BYTE PTR [eax+2], dl
  00018	88 48 03	 mov	 BYTE PTR [eax+3], cl

; 278  : }

  0001b	5d		 pop	 ebp
  0001c	c3		 ret	 0
?PHeadSubSetBE@@YAXPAEEEH@Z ENDP			; PHeadSubSetBE
_TEXT	ENDS
PUBLIC	??_EOBJECTSTRUCT@@QAEPAXI@Z			; OBJECTSTRUCT::`vector deleting destructor'
EXTRN	??3@YAXPAX@Z:PROC				; operator delete
EXTRN	??_V@YAXPAX@Z:PROC				; operator delete[]
EXTRN	??_M@YGXPAXIHP6EX0@Z@Z:PROC			; `eh vector destructor iterator'
;	COMDAT xdata$x
xdata$x	SEGMENT
__unwindtable$??_EOBJECTSTRUCT@@QAEPAXI@Z DD 0ffffffffH
	DD	FLAT:__unwindfunclet$??_EOBJECTSTRUCT@@QAEPAXI@Z$0
__ehfuncinfo$??_EOBJECTSTRUCT@@QAEPAXI@Z DD 019930522H
	DD	01H
	DD	FLAT:__unwindtable$??_EOBJECTSTRUCT@@QAEPAXI@Z
	DD	2 DUP(00H)
	DD	2 DUP(00H)
	DD	00H
	DD	01H
; Function compile flags: /Ogtp
xdata$x	ENDS
;	COMDAT ??_EOBJECTSTRUCT@@QAEPAXI@Z
_TEXT	SEGMENT
_this$ = -16						; size = 4
__$EHRec$ = -12						; size = 12
___flags$ = 8						; size = 4
??_EOBJECTSTRUCT@@QAEPAXI@Z PROC			; OBJECTSTRUCT::`vector deleting destructor', COMDAT
; _this$ = ecx
  00000	55		 push	 ebp
  00001	8b ec		 mov	 ebp, esp
  00003	6a ff		 push	 -1
  00005	68 00 00 00 00	 push	 __ehhandler$??_EOBJECTSTRUCT@@QAEPAXI@Z
  0000a	64 a1 00 00 00
	00		 mov	 eax, DWORD PTR fs:0
  00010	50		 push	 eax
  00011	51		 push	 ecx
  00012	53		 push	 ebx
  00013	56		 push	 esi
  00014	57		 push	 edi
  00015	a1 00 00 00 00	 mov	 eax, DWORD PTR ___security_cookie
  0001a	33 c5		 xor	 eax, ebp
  0001c	50		 push	 eax
  0001d	8d 45 f4	 lea	 eax, DWORD PTR __$EHRec$[ebp]
  00020	64 a3 00 00 00
	00		 mov	 DWORD PTR fs:0, eax
  00026	8b f1		 mov	 esi, ecx
  00028	89 75 f0	 mov	 DWORD PTR _this$[ebp], esi
  0002b	8a 5d 08	 mov	 bl, BYTE PTR ___flags$[ebp]
  0002e	f6 c3 02	 test	 bl, 2
  00031	74 3b		 je	 SHORT $LN3@vector
  00033	8b 46 fc	 mov	 eax, DWORD PTR [esi-4]
  00036	68 00 00 00 00	 push	 OFFSET ??1OBJECTSTRUCT@@QAE@XZ
  0003b	8d 7e fc	 lea	 edi, DWORD PTR [esi-4]
  0003e	50		 push	 eax
  0003f	68 40 27 00 00	 push	 10048			; 00002740H
  00044	56		 push	 esi
  00045	e8 00 00 00 00	 call	 ??_M@YGXPAXIHP6EX0@Z@Z
  0004a	f6 c3 01	 test	 bl, 1
  0004d	74 09		 je	 SHORT $LN2@vector
  0004f	57		 push	 edi
  00050	e8 00 00 00 00	 call	 ??_V@YAXPAX@Z		; operator delete[]
  00055	83 c4 04	 add	 esp, 4
$LN2@vector:
  00058	8b c7		 mov	 eax, edi
  0005a	8b 4d f4	 mov	 ecx, DWORD PTR __$EHRec$[ebp]
  0005d	64 89 0d 00 00
	00 00		 mov	 DWORD PTR fs:0, ecx
  00064	59		 pop	 ecx
  00065	5f		 pop	 edi
  00066	5e		 pop	 esi
  00067	5b		 pop	 ebx
  00068	8b e5		 mov	 esp, ebp
  0006a	5d		 pop	 ebp
  0006b	c2 04 00	 ret	 4
$LN3@vector:
  0006e	8d 8e ec 20 00
	00		 lea	 ecx, DWORD PTR [esi+8428]
  00074	c7 45 fc 00 00
	00 00		 mov	 DWORD PTR __$EHRec$[ebp+8], 0
  0007b	e8 00 00 00 00	 call	 ??1TMonsterAIAgro@@UAE@XZ ; TMonsterAIAgro::~TMonsterAIAgro
  00080	8d 8e 0c 16 00
	00		 lea	 ecx, DWORD PTR [esi+5644]
  00086	c7 45 fc ff ff
	ff ff		 mov	 DWORD PTR __$EHRec$[ebp+8], -1
  0008d	e8 00 00 00 00	 call	 ??1CSkillDelay@@UAE@XZ	; CSkillDelay::~CSkillDelay
  00092	f6 c3 01	 test	 bl, 1
  00095	74 09		 je	 SHORT $LN1@vector
  00097	56		 push	 esi
  00098	e8 00 00 00 00	 call	 ??3@YAXPAX@Z		; operator delete
  0009d	83 c4 04	 add	 esp, 4
$LN1@vector:
  000a0	8b c6		 mov	 eax, esi
  000a2	8b 4d f4	 mov	 ecx, DWORD PTR __$EHRec$[ebp]
  000a5	64 89 0d 00 00
	00 00		 mov	 DWORD PTR fs:0, ecx
  000ac	59		 pop	 ecx
  000ad	5f		 pop	 edi
  000ae	5e		 pop	 esi
  000af	5b		 pop	 ebx
  000b0	8b e5		 mov	 esp, ebp
  000b2	5d		 pop	 ebp
  000b3	c2 04 00	 ret	 4
_TEXT	ENDS
;	COMDAT text$x
text$x	SEGMENT
__unwindfunclet$??_EOBJECTSTRUCT@@QAEPAXI@Z$0:
  00000	8b 4d f0	 mov	 ecx, DWORD PTR _this$[ebp]
  00003	81 c1 0c 16 00
	00		 add	 ecx, 5644		; 0000160cH
  00009	e9 00 00 00 00	 jmp	 ??1CSkillDelay@@UAE@XZ	; CSkillDelay::~CSkillDelay
__ehhandler$??_EOBJECTSTRUCT@@QAEPAXI@Z:
  0000e	8b 54 24 08	 mov	 edx, DWORD PTR [esp+8]
  00012	8d 42 0c	 lea	 eax, DWORD PTR [edx+12]
  00015	8b 4a ec	 mov	 ecx, DWORD PTR [edx-20]
  00018	33 c8		 xor	 ecx, eax
  0001a	e8 00 00 00 00	 call	 @__security_check_cookie@4
  0001f	b8 00 00 00 00	 mov	 eax, OFFSET __ehfuncinfo$??_EOBJECTSTRUCT@@QAEPAXI@Z
  00024	e9 00 00 00 00	 jmp	 ___CxxFrameHandler3
text$x	ENDS
??_EOBJECTSTRUCT@@QAEPAXI@Z ENDP			; OBJECTSTRUCT::`vector deleting destructor'
END
