; Listing generated by Microsoft (R) Optimizing Compiler Version 16.00.40219.01 

	TITLE	C:\muserver_dev\development\MU-S8EP2-Repack\GameServer\Source\wsGameServer.cpp
	.686P
	.XMM
	include listing.inc
	.model	flat

INCLUDELIB LIBCMT
INCLUDELIB OLDNAMES

PUBLIC	??_7CwsGameServer@@6B@				; CwsGameServer::`vftable'
PUBLIC	??0CwsGameServer@@QAE@XZ			; CwsGameServer::CwsGameServer
PUBLIC	??_R4CwsGameServer@@6B@				; CwsGameServer::`RTTI Complete Object Locator'
PUBLIC	??_R0?AVCwsGameServer@@@8			; CwsGameServer `RTTI Type Descriptor'
PUBLIC	??_R3CwsGameServer@@8				; CwsGameServer::`RTTI Class Hierarchy Descriptor'
PUBLIC	??_R2CwsGameServer@@8				; CwsGameServer::`RTTI Base Class Array'
PUBLIC	??_R1A@?0A@EA@CwsGameServer@@8			; CwsGameServer::`RTTI Base Class Descriptor at (0,-1,0,64)'
PUBLIC	??_R13?0A@EA@MyWinsockBase@@8			; MyWinsockBase::`RTTI Base Class Descriptor at (4,-1,0,64)'
PUBLIC	??_R0?AVMyWinsockBase@@@8			; MyWinsockBase `RTTI Type Descriptor'
PUBLIC	??_R3MyWinsockBase@@8				; MyWinsockBase::`RTTI Class Hierarchy Descriptor'
PUBLIC	??_R2MyWinsockBase@@8				; MyWinsockBase::`RTTI Base Class Array'
PUBLIC	??_R1A@?0A@EA@MyWinsockBase@@8			; MyWinsockBase::`RTTI Base Class Descriptor at (0,-1,0,64)'
EXTRN	??0MyWinsockBase@@QAE@XZ:PROC			; MyWinsockBase::MyWinsockBase
EXTRN	??_7type_info@@6B@:QWORD			; type_info::`vftable'
EXTRN	??_ECwsGameServer@@UAEPAXI@Z:PROC		; CwsGameServer::`vector deleting destructor'
;	COMDAT ??_R1A@?0A@EA@MyWinsockBase@@8
; File c:\muserver_dev\development\mu-s8ep2-repack\gameserver\source\wsgameserver.cpp
rdata$r	SEGMENT
??_R1A@?0A@EA@MyWinsockBase@@8 DD FLAT:??_R0?AVMyWinsockBase@@@8 ; MyWinsockBase::`RTTI Base Class Descriptor at (0,-1,0,64)'
	DD	00H
	DD	00H
	DD	0ffffffffH
	DD	00H
	DD	040H
	DD	FLAT:??_R3MyWinsockBase@@8
rdata$r	ENDS
;	COMDAT ??_R2MyWinsockBase@@8
rdata$r	SEGMENT
??_R2MyWinsockBase@@8 DD FLAT:??_R1A@?0A@EA@MyWinsockBase@@8 ; MyWinsockBase::`RTTI Base Class Array'
rdata$r	ENDS
;	COMDAT ??_R3MyWinsockBase@@8
rdata$r	SEGMENT
??_R3MyWinsockBase@@8 DD 00H				; MyWinsockBase::`RTTI Class Hierarchy Descriptor'
	DD	00H
	DD	01H
	DD	FLAT:??_R2MyWinsockBase@@8
rdata$r	ENDS
;	COMDAT ??_R0?AVMyWinsockBase@@@8
_DATA	SEGMENT
??_R0?AVMyWinsockBase@@@8 DD FLAT:??_7type_info@@6B@	; MyWinsockBase `RTTI Type Descriptor'
	DD	00H
	DB	'.?AVMyWinsockBase@@', 00H
_DATA	ENDS
;	COMDAT ??_R13?0A@EA@MyWinsockBase@@8
rdata$r	SEGMENT
??_R13?0A@EA@MyWinsockBase@@8 DD FLAT:??_R0?AVMyWinsockBase@@@8 ; MyWinsockBase::`RTTI Base Class Descriptor at (4,-1,0,64)'
	DD	00H
	DD	04H
	DD	0ffffffffH
	DD	00H
	DD	040H
	DD	FLAT:??_R3MyWinsockBase@@8
rdata$r	ENDS
;	COMDAT ??_R1A@?0A@EA@CwsGameServer@@8
rdata$r	SEGMENT
??_R1A@?0A@EA@CwsGameServer@@8 DD FLAT:??_R0?AVCwsGameServer@@@8 ; CwsGameServer::`RTTI Base Class Descriptor at (0,-1,0,64)'
	DD	01H
	DD	00H
	DD	0ffffffffH
	DD	00H
	DD	040H
	DD	FLAT:??_R3CwsGameServer@@8
rdata$r	ENDS
;	COMDAT ??_R2CwsGameServer@@8
rdata$r	SEGMENT
??_R2CwsGameServer@@8 DD FLAT:??_R1A@?0A@EA@CwsGameServer@@8 ; CwsGameServer::`RTTI Base Class Array'
	DD	FLAT:??_R13?0A@EA@MyWinsockBase@@8
rdata$r	ENDS
;	COMDAT ??_R3CwsGameServer@@8
rdata$r	SEGMENT
??_R3CwsGameServer@@8 DD 00H				; CwsGameServer::`RTTI Class Hierarchy Descriptor'
	DD	00H
	DD	02H
	DD	FLAT:??_R2CwsGameServer@@8
rdata$r	ENDS
;	COMDAT ??_R0?AVCwsGameServer@@@8
_DATA	SEGMENT
??_R0?AVCwsGameServer@@@8 DD FLAT:??_7type_info@@6B@	; CwsGameServer `RTTI Type Descriptor'
	DD	00H
	DB	'.?AVCwsGameServer@@', 00H
_DATA	ENDS
;	COMDAT ??_R4CwsGameServer@@6B@
rdata$r	SEGMENT
??_R4CwsGameServer@@6B@ DD 00H				; CwsGameServer::`RTTI Complete Object Locator'
	DD	00H
	DD	00H
	DD	FLAT:??_R0?AVCwsGameServer@@@8
	DD	FLAT:??_R3CwsGameServer@@8
rdata$r	ENDS
;	COMDAT ??_7CwsGameServer@@6B@
CONST	SEGMENT
??_7CwsGameServer@@6B@ DD FLAT:??_R4CwsGameServer@@6B@	; CwsGameServer::`vftable'
	DD	FLAT:??_ECwsGameServer@@UAEPAXI@Z
; Function compile flags: /Ogtp
CONST	ENDS
;	COMDAT ??0CwsGameServer@@QAE@XZ
_TEXT	SEGMENT
??0CwsGameServer@@QAE@XZ PROC				; CwsGameServer::CwsGameServer, COMDAT
; _this$ = ecx

; 17   : {

  00000	56		 push	 esi
  00001	8b f1		 mov	 esi, ecx
  00003	8d 4e 04	 lea	 ecx, DWORD PTR [esi+4]
  00006	e8 00 00 00 00	 call	 ??0MyWinsockBase@@QAE@XZ ; MyWinsockBase::MyWinsockBase

; 18   : 	this->m_SendSec=0;

  0000b	33 c0		 xor	 eax, eax
  0000d	89 46 1c	 mov	 DWORD PTR [esi+28], eax

; 19   : 	this->m_SendSecTmp=0;

  00010	89 46 20	 mov	 DWORD PTR [esi+32], eax
  00013	c7 06 00 00 00
	00		 mov	 DWORD PTR [esi], OFFSET ??_7CwsGameServer@@6B@

; 20   : }

  00019	8b c6		 mov	 eax, esi
  0001b	5e		 pop	 esi
  0001c	c3		 ret	 0
??0CwsGameServer@@QAE@XZ ENDP				; CwsGameServer::CwsGameServer
_TEXT	ENDS
PUBLIC	??1CwsGameServer@@UAE@XZ			; CwsGameServer::~CwsGameServer
EXTRN	??1MyWinsockBase@@QAE@XZ:PROC			; MyWinsockBase::~MyWinsockBase
; Function compile flags: /Ogtp
;	COMDAT ??1CwsGameServer@@UAE@XZ
_TEXT	SEGMENT
??1CwsGameServer@@UAE@XZ PROC				; CwsGameServer::~CwsGameServer, COMDAT
; _this$ = ecx

; 24   : {

  00000	c7 01 00 00 00
	00		 mov	 DWORD PTR [ecx], OFFSET ??_7CwsGameServer@@6B@

; 25   : 	// Empty
; 26   : }

  00006	83 c1 04	 add	 ecx, 4
  00009	e9 00 00 00 00	 jmp	 ??1MyWinsockBase@@QAE@XZ ; MyWinsockBase::~MyWinsockBase
??1CwsGameServer@@UAE@XZ ENDP				; CwsGameServer::~CwsGameServer
_TEXT	ENDS
PUBLIC	?SetSocketIndex@CwsGameServer@@QAEHIH@Z		; CwsGameServer::SetSocketIndex
; Function compile flags: /Ogtp
;	COMDAT ?SetSocketIndex@CwsGameServer@@QAEHIH@Z
_TEXT	SEGMENT
_socket$ = 8						; size = 4
_index$ = 12						; size = 4
?SetSocketIndex@CwsGameServer@@QAEHIH@Z PROC		; CwsGameServer::SetSocketIndex, COMDAT
; _this$ = ecx

; 30   : 	return 1;

  00000	b8 01 00 00 00	 mov	 eax, 1

; 31   : }

  00005	c2 08 00	 ret	 8
?SetSocketIndex@CwsGameServer@@QAEHIH@Z ENDP		; CwsGameServer::SetSocketIndex
_TEXT	ENDS
PUBLIC	??_C@_0BP@JMMAJAG@Server?5WSAAsyncSelect?5error?5?$CFd?$AA@ ; `string'
PUBLIC	??_C@_0BH@BLCKGNNH@Server?5listen?5error?5?$CFd?$AA@ ; `string'
PUBLIC	??_C@_0BF@OENIBBI@Server?5bind?5error?5?$CFd?$AA@ ; `string'
PUBLIC	??_C@_0BF@OCJBKION@windows?5handle?5error?$AA@	; `string'
PUBLIC	__$ArrayPad$
PUBLIC	?CreateServer@CwsGameServer@@QAEHPADGKK@Z	; CwsGameServer::CreateServer
EXTRN	__imp__WSAAsyncSelect@16:PROC
EXTRN	__imp__listen@8:PROC
EXTRN	__imp__closesocket@4:PROC
EXTRN	?LogAdd@@3P6AXPADZZA:DWORD			; LogAdd
EXTRN	__imp__WSAGetLastError@0:PROC
EXTRN	__imp__bind@12:PROC
EXTRN	__imp__htons@4:PROC
EXTRN	__imp__htonl@4:PROC
EXTRN	?MsgBox@@YAXPADZZ:PROC				; MsgBox
EXTRN	___security_cookie:DWORD
EXTRN	@__security_check_cookie@4:PROC
;	COMDAT ??_C@_0BP@JMMAJAG@Server?5WSAAsyncSelect?5error?5?$CFd?$AA@
CONST	SEGMENT
??_C@_0BP@JMMAJAG@Server?5WSAAsyncSelect?5error?5?$CFd?$AA@ DB 'Server WS'
	DB	'AAsyncSelect error %d', 00H			; `string'
CONST	ENDS
;	COMDAT ??_C@_0BH@BLCKGNNH@Server?5listen?5error?5?$CFd?$AA@
CONST	SEGMENT
??_C@_0BH@BLCKGNNH@Server?5listen?5error?5?$CFd?$AA@ DB 'Server listen er'
	DB	'ror %d', 00H				; `string'
CONST	ENDS
;	COMDAT ??_C@_0BF@OENIBBI@Server?5bind?5error?5?$CFd?$AA@
CONST	SEGMENT
??_C@_0BF@OENIBBI@Server?5bind?5error?5?$CFd?$AA@ DB 'Server bind error %'
	DB	'd', 00H					; `string'
CONST	ENDS
;	COMDAT ??_C@_0BF@OCJBKION@windows?5handle?5error?$AA@
CONST	SEGMENT
??_C@_0BF@OCJBKION@windows?5handle?5error?$AA@ DB 'windows handle error', 00H ; `string'
; Function compile flags: /Ogtp
CONST	ENDS
;	COMDAT ?CreateServer@CwsGameServer@@QAEHPADGKK@Z
_TEXT	SEGMENT
_addr$ = -20						; size = 16
__$ArrayPad$ = -4					; size = 4
_ip_addr$ = 8						; size = 4
_port$ = 12						; size = 2
_WinServerMsg$ = 16					; size = 4
_WinClientMsg$ = 20					; size = 4
?CreateServer@CwsGameServer@@QAEHPADGKK@Z PROC		; CwsGameServer::CreateServer, COMDAT
; _this$ = ecx

; 34   : {

  00000	55		 push	 ebp
  00001	8b ec		 mov	 ebp, esp
  00003	83 ec 14	 sub	 esp, 20			; 00000014H
  00006	a1 00 00 00 00	 mov	 eax, DWORD PTR ___security_cookie
  0000b	33 c5		 xor	 eax, ebp
  0000d	89 45 fc	 mov	 DWORD PTR __$ArrayPad$[ebp], eax
  00010	56		 push	 esi
  00011	8b f1		 mov	 esi, ecx

; 35   : 	sockaddr_in addr;
; 36   : 	int nResult;
; 37   : 	
; 38   : 	if (this->m_hWnd == 0 )

  00013	83 7e 08 00	 cmp	 DWORD PTR [esi+8], 0
  00017	75 20		 jne	 SHORT $LN4@CreateServ

; 39   : 	{
; 40   : 		MsgBox("windows handle error");

  00019	68 00 00 00 00	 push	 OFFSET ??_C@_0BF@OCJBKION@windows?5handle?5error?$AA@
  0001e	e8 00 00 00 00	 call	 ?MsgBox@@YAXPADZZ	; MsgBox
  00023	83 c4 04	 add	 esp, 4

; 41   : 		return 0;

  00026	33 c0		 xor	 eax, eax
  00028	5e		 pop	 esi

; 78   : 	return 1;
; 79   : }

  00029	8b 4d fc	 mov	 ecx, DWORD PTR __$ArrayPad$[ebp]
  0002c	33 cd		 xor	 ecx, ebp
  0002e	e8 00 00 00 00	 call	 @__security_check_cookie@4
  00033	8b e5		 mov	 esp, ebp
  00035	5d		 pop	 ebp
  00036	c2 10 00	 ret	 16			; 00000010H
$LN4@CreateServ:

; 42   : 	}
; 43   : 
; 44   : 	memset(&addr, 0, sizeof(addr) );

  00039	33 c0		 xor	 eax, eax
  0003b	89 45 ec	 mov	 DWORD PTR _addr$[ebp], eax
  0003e	89 45 f0	 mov	 DWORD PTR _addr$[ebp+4], eax
  00041	89 45 f4	 mov	 DWORD PTR _addr$[ebp+8], eax
  00044	89 45 f8	 mov	 DWORD PTR _addr$[ebp+12], eax

; 45   : 
; 46   : 	addr.sin_family=AF_INET; // INET

  00047	b8 02 00 00 00	 mov	 eax, 2

; 47   : 	addr.sin_addr.S_un.S_addr=htonl(0);

  0004c	6a 00		 push	 0
  0004e	66 89 45 ec	 mov	 WORD PTR _addr$[ebp], ax
  00052	ff 15 00 00 00
	00		 call	 DWORD PTR __imp__htonl@4

; 48   : 	addr.sin_port=htons(port);

  00058	8b 4d 0c	 mov	 ecx, DWORD PTR _port$[ebp]
  0005b	51		 push	 ecx
  0005c	89 45 f0	 mov	 DWORD PTR _addr$[ebp+4], eax
  0005f	ff 15 00 00 00
	00		 call	 DWORD PTR __imp__htons@4

; 49   : 
; 50   : 	nResult=bind(this->m_socket, (sockaddr*)&addr, 16);

  00065	6a 10		 push	 16			; 00000010H
  00067	8d 55 ec	 lea	 edx, DWORD PTR _addr$[ebp]
  0006a	66 89 45 ee	 mov	 WORD PTR _addr$[ebp+2], ax
  0006e	8b 46 0c	 mov	 eax, DWORD PTR [esi+12]
  00071	52		 push	 edx
  00072	50		 push	 eax
  00073	ff 15 00 00 00
	00		 call	 DWORD PTR __imp__bind@12

; 51   : 
; 52   : 	if ( nResult == -1 )

  00079	83 f8 ff	 cmp	 eax, -1
  0007c	75 32		 jne	 SHORT $LN3@CreateServ

; 53   : 	{
; 54   : 		LogAdd("Server bind error %d", WSAGetLastError() );

  0007e	ff 15 00 00 00
	00		 call	 DWORD PTR __imp__WSAGetLastError@0
  00084	50		 push	 eax
  00085	68 00 00 00 00	 push	 OFFSET ??_C@_0BF@OENIBBI@Server?5bind?5error?5?$CFd?$AA@
  0008a	ff 15 00 00 00
	00		 call	 DWORD PTR ?LogAdd@@3P6AXPADZZA ; LogAdd

; 55   : 		closesocket(this->m_socket);

  00090	8b 4e 0c	 mov	 ecx, DWORD PTR [esi+12]
  00093	83 c4 08	 add	 esp, 8
  00096	51		 push	 ecx
  00097	ff 15 00 00 00
	00		 call	 DWORD PTR __imp__closesocket@4

; 56   : 		return 0;

  0009d	33 c0		 xor	 eax, eax
  0009f	5e		 pop	 esi

; 78   : 	return 1;
; 79   : }

  000a0	8b 4d fc	 mov	 ecx, DWORD PTR __$ArrayPad$[ebp]
  000a3	33 cd		 xor	 ecx, ebp
  000a5	e8 00 00 00 00	 call	 @__security_check_cookie@4
  000aa	8b e5		 mov	 esp, ebp
  000ac	5d		 pop	 ebp
  000ad	c2 10 00	 ret	 16			; 00000010H
$LN3@CreateServ:

; 57   : 	}
; 58   : 
; 59   : 	nResult=listen(this->m_socket , 4);

  000b0	8b 56 0c	 mov	 edx, DWORD PTR [esi+12]
  000b3	6a 04		 push	 4
  000b5	52		 push	 edx
  000b6	ff 15 00 00 00
	00		 call	 DWORD PTR __imp__listen@8

; 60   : 
; 61   : 	if (nResult == -1)

  000bc	83 f8 ff	 cmp	 eax, -1

; 62   : 	{
; 63   : 		closesocket(this->m_socket );

  000bf	8b 46 0c	 mov	 eax, DWORD PTR [esi+12]
  000c2	75 2f		 jne	 SHORT $LN2@CreateServ
  000c4	50		 push	 eax
  000c5	ff 15 00 00 00
	00		 call	 DWORD PTR __imp__closesocket@4

; 64   : 		LogAdd("Server listen error %d", WSAGetLastError() );

  000cb	ff 15 00 00 00
	00		 call	 DWORD PTR __imp__WSAGetLastError@0
  000d1	50		 push	 eax
  000d2	68 00 00 00 00	 push	 OFFSET ??_C@_0BH@BLCKGNNH@Server?5listen?5error?5?$CFd?$AA@
  000d7	ff 15 00 00 00
	00		 call	 DWORD PTR ?LogAdd@@3P6AXPADZZA ; LogAdd
  000dd	83 c4 08	 add	 esp, 8

; 65   : 		return 0;

  000e0	33 c0		 xor	 eax, eax
  000e2	5e		 pop	 esi

; 78   : 	return 1;
; 79   : }

  000e3	8b 4d fc	 mov	 ecx, DWORD PTR __$ArrayPad$[ebp]
  000e6	33 cd		 xor	 ecx, ebp
  000e8	e8 00 00 00 00	 call	 @__security_check_cookie@4
  000ed	8b e5		 mov	 esp, ebp
  000ef	5d		 pop	 ebp
  000f0	c2 10 00	 ret	 16			; 00000010H
$LN2@CreateServ:

; 66   : 	}
; 67   : 
; 68   : 	nResult=WSAAsyncSelect( this->m_socket , this->m_hWnd , WinServerMsg, FD_ACCEPT);

  000f3	8b 4d 10	 mov	 ecx, DWORD PTR _WinServerMsg$[ebp]
  000f6	8b 56 08	 mov	 edx, DWORD PTR [esi+8]
  000f9	6a 08		 push	 8
  000fb	51		 push	 ecx
  000fc	52		 push	 edx
  000fd	50		 push	 eax
  000fe	ff 15 00 00 00
	00		 call	 DWORD PTR __imp__WSAAsyncSelect@16

; 69   : 
; 70   : 	if (nResult == -1)

  00104	83 f8 ff	 cmp	 eax, -1
  00107	75 32		 jne	 SHORT $LN1@CreateServ

; 71   : 	{
; 72   : 		closesocket(this->m_socket);

  00109	8b 4e 0c	 mov	 ecx, DWORD PTR [esi+12]
  0010c	51		 push	 ecx
  0010d	ff 15 00 00 00
	00		 call	 DWORD PTR __imp__closesocket@4

; 73   : 		LogAdd("Server WSAAsyncSelect error %d", WSAGetLastError());

  00113	ff 15 00 00 00
	00		 call	 DWORD PTR __imp__WSAGetLastError@0
  00119	50		 push	 eax
  0011a	68 00 00 00 00	 push	 OFFSET ??_C@_0BP@JMMAJAG@Server?5WSAAsyncSelect?5error?5?$CFd?$AA@
  0011f	ff 15 00 00 00
	00		 call	 DWORD PTR ?LogAdd@@3P6AXPADZZA ; LogAdd
  00125	83 c4 08	 add	 esp, 8

; 74   : 		return 0;

  00128	33 c0		 xor	 eax, eax
  0012a	5e		 pop	 esi

; 78   : 	return 1;
; 79   : }

  0012b	8b 4d fc	 mov	 ecx, DWORD PTR __$ArrayPad$[ebp]
  0012e	33 cd		 xor	 ecx, ebp
  00130	e8 00 00 00 00	 call	 @__security_check_cookie@4
  00135	8b e5		 mov	 esp, ebp
  00137	5d		 pop	 ebp
  00138	c2 10 00	 ret	 16			; 00000010H
$LN1@CreateServ:

; 75   : 	}
; 76   : 
; 77   : 	this->m_WinClientMsg  =WinClientMsg;

  0013b	8b 55 14	 mov	 edx, DWORD PTR _WinClientMsg$[ebp]

; 78   : 	return 1;
; 79   : }

  0013e	8b 4d fc	 mov	 ecx, DWORD PTR __$ArrayPad$[ebp]
  00141	89 56 2c	 mov	 DWORD PTR [esi+44], edx
  00144	33 cd		 xor	 ecx, ebp
  00146	b8 01 00 00 00	 mov	 eax, 1
  0014b	5e		 pop	 esi
  0014c	e8 00 00 00 00	 call	 @__security_check_cookie@4
  00151	8b e5		 mov	 esp, ebp
  00153	5d		 pop	 ebp
  00154	c2 10 00	 ret	 16			; 00000010H
?CreateServer@CwsGameServer@@QAEHPADGKK@Z ENDP		; CwsGameServer::CreateServer
_TEXT	ENDS
PUBLIC	_clientSocket$GSCopy$
PUBLIC	__$ArrayPad$
PUBLIC	?AcceptSocket@CwsGameServer@@QAEHAAIAAUin_addr@@@Z ; CwsGameServer::AcceptSocket
EXTRN	__imp__setsockopt@20:PROC
EXTRN	?AddIp@CIpCache@@QAEHPAD@Z:PROC			; CIpCache::AddIp
EXTRN	?IpCache@@3VCIpCache@@A:BYTE			; IpCache
EXTRN	__imp__inet_ntoa@4:PROC
EXTRN	__imp__accept@12:PROC
; Function compile flags: /Ogtp
;	COMDAT ?AcceptSocket@CwsGameServer@@QAEHAAIAAUin_addr@@@Z
_TEXT	SEGMENT
_clientSocket$GSCopy$ = -32				; size = 4
_Len$ = -28						; size = 4
_ling$ = -24						; size = 4
_cAddr$ = -20						; size = 16
__$ArrayPad$ = -4					; size = 4
_clientSocket$ = 8					; size = 4
_cInAddr$ = 12						; size = 4
?AcceptSocket@CwsGameServer@@QAEHAAIAAUin_addr@@@Z PROC	; CwsGameServer::AcceptSocket, COMDAT
; _this$ = ecx

; 83   : {

  00000	55		 push	 ebp
  00001	8b ec		 mov	 ebp, esp
  00003	83 ec 20	 sub	 esp, 32			; 00000020H
  00006	a1 00 00 00 00	 mov	 eax, DWORD PTR ___security_cookie
  0000b	33 c5		 xor	 eax, ebp
  0000d	89 45 fc	 mov	 DWORD PTR __$ArrayPad$[ebp], eax
  00010	8b 45 08	 mov	 eax, DWORD PTR _clientSocket$[ebp]
  00013	53		 push	 ebx
  00014	8b 5d 0c	 mov	 ebx, DWORD PTR _cInAddr$[ebp]
  00017	56		 push	 esi
  00018	57		 push	 edi
  00019	8b f9		 mov	 edi, ecx

; 84   : 	SOCKET cSocket;
; 85   : 	sockaddr_in cAddr;
; 86   : 	int Len = 16;
; 87   : 	int nResult;
; 88   : 	WORD ling[2];
; 89   : 
; 90   : 	cSocket=accept(this->m_socket , (sockaddr*)&cAddr, &Len);

  0001b	8d 4d e4	 lea	 ecx, DWORD PTR _Len$[ebp]
  0001e	51		 push	 ecx
  0001f	8d 55 ec	 lea	 edx, DWORD PTR _cAddr$[ebp]

; 91   : 	
; 92   : 	if (cSocket != INVALID_SOCKET)
; 93   : 	{
; 94   : 		memcpy(&cInAddr, &cAddr.sin_addr.S_un.S_addr , sizeof(cInAddr));

  00022	89 45 e0	 mov	 DWORD PTR _clientSocket$GSCopy$[ebp], eax
  00025	8b 47 0c	 mov	 eax, DWORD PTR [edi+12]
  00028	52		 push	 edx
  00029	50		 push	 eax
  0002a	c7 45 e4 10 00
	00 00		 mov	 DWORD PTR _Len$[ebp], 16 ; 00000010H
  00031	ff 15 00 00 00
	00		 call	 DWORD PTR __imp__accept@12
  00037	8b f0		 mov	 esi, eax
  00039	83 fe ff	 cmp	 esi, -1
  0003c	74 4d		 je	 SHORT $LN1@AcceptSock
  0003e	8b 45 f0	 mov	 eax, DWORD PTR _cAddr$[ebp+4]

; 95   : 
; 96   : 		if (IpCache.AddIp(inet_ntoa( cInAddr)) == 0)

  00041	50		 push	 eax
  00042	89 03		 mov	 DWORD PTR [ebx], eax
  00044	ff 15 00 00 00
	00		 call	 DWORD PTR __imp__inet_ntoa@4
  0004a	50		 push	 eax
  0004b	b9 00 00 00 00	 mov	 ecx, OFFSET ?IpCache@@3VCIpCache@@A ; IpCache
  00050	e8 00 00 00 00	 call	 ?AddIp@CIpCache@@QAEHPAD@Z ; CIpCache::AddIp
  00055	85 c0		 test	 eax, eax
  00057	75 1c		 jne	 SHORT $LN2@AcceptSock
$LN6@AcceptSock:

; 97   : 		{
; 98   : 			closesocket( cSocket);

  00059	56		 push	 esi
  0005a	ff 15 00 00 00
	00		 call	 DWORD PTR __imp__closesocket@4
  00060	5f		 pop	 edi
  00061	5e		 pop	 esi

; 99   : 			return 0;

  00062	33 c0		 xor	 eax, eax
  00064	5b		 pop	 ebx

; 118  : 
; 119  : 	return 1;
; 120  : }

  00065	8b 4d fc	 mov	 ecx, DWORD PTR __$ArrayPad$[ebp]
  00068	33 cd		 xor	 ecx, ebp
  0006a	e8 00 00 00 00	 call	 @__security_check_cookie@4
  0006f	8b e5		 mov	 esp, ebp
  00071	5d		 pop	 ebp
  00072	c2 08 00	 ret	 8
$LN2@AcceptSock:

; 100  : 		}
; 101  : 
; 102  : 		nResult=WSAAsyncSelect(cSocket, this->m_hWnd , this->m_WinClientMsg , FD_READ|FD_WRITE|FD_CLOSE);

  00075	8b 4f 2c	 mov	 ecx, DWORD PTR [edi+44]
  00078	8b 57 08	 mov	 edx, DWORD PTR [edi+8]
  0007b	6a 23		 push	 35			; 00000023H
  0007d	51		 push	 ecx
  0007e	52		 push	 edx
  0007f	56		 push	 esi
  00080	ff 15 00 00 00
	00		 call	 DWORD PTR __imp__WSAAsyncSelect@16

; 103  : 
; 104  : 		if ( nResult == -1 )

  00086	83 f8 ff	 cmp	 eax, -1

; 105  : 		{
; 106  : 			closesocket(cSocket);
; 107  : 			return 0;

  00089	74 ce		 je	 SHORT $LN6@AcceptSock
$LN1@AcceptSock:

; 108  : 		}
; 109  : 
; 110  : 	}
; 111  : 
; 112  : 	clientSocket=cSocket;

  0008b	8b 45 e0	 mov	 eax, DWORD PTR _clientSocket$GSCopy$[ebp]

; 113  : 
; 114  : 	ling[0]=0;
; 115  : 	ling[1]=0;
; 116  : 
; 117  : 	setsockopt( clientSocket, SOL_SOCKET, 0xFFFFFF7F, (char*)&ling, sizeof(ling));

  0008e	6a 04		 push	 4
  00090	89 30		 mov	 DWORD PTR [eax], esi
  00092	8d 45 e8	 lea	 eax, DWORD PTR _ling$[ebp]
  00095	50		 push	 eax
  00096	68 7f ff ff ff	 push	 -129			; ffffff7fH
  0009b	68 ff ff 00 00	 push	 65535			; 0000ffffH
  000a0	33 c9		 xor	 ecx, ecx
  000a2	56		 push	 esi
  000a3	89 4d e8	 mov	 DWORD PTR _ling$[ebp], ecx
  000a6	ff 15 00 00 00
	00		 call	 DWORD PTR __imp__setsockopt@20

; 118  : 
; 119  : 	return 1;
; 120  : }

  000ac	8b 4d fc	 mov	 ecx, DWORD PTR __$ArrayPad$[ebp]
  000af	5f		 pop	 edi
  000b0	5e		 pop	 esi
  000b1	33 cd		 xor	 ecx, ebp
  000b3	b8 01 00 00 00	 mov	 eax, 1
  000b8	5b		 pop	 ebx
  000b9	e8 00 00 00 00	 call	 @__security_check_cookie@4
  000be	8b e5		 mov	 esp, ebp
  000c0	5d		 pop	 ebp
  000c1	c2 08 00	 ret	 8
?AcceptSocket@CwsGameServer@@QAEHAAIAAUin_addr@@@Z ENDP	; CwsGameServer::AcceptSocket
_TEXT	ENDS
PUBLIC	?DataSendW@CwsGameServer@@QAEHHPADH@Z		; CwsGameServer::DataSendW
; Function compile flags: /Ogtp
;	COMDAT ?DataSendW@CwsGameServer@@QAEHHPADH@Z
_TEXT	SEGMENT
_uindex$ = 8						; size = 4
_buf$ = 12						; size = 4
_len$ = 16						; size = 4
?DataSendW@CwsGameServer@@QAEHHPADH@Z PROC		; CwsGameServer::DataSendW, COMDAT
; _this$ = ecx

; 124  : 	return 1;

  00000	b8 01 00 00 00	 mov	 eax, 1

; 125  : }

  00005	c2 0c 00	 ret	 12			; 0000000cH
?DataSendW@CwsGameServer@@QAEHHPADH@Z ENDP		; CwsGameServer::DataSendW
_TEXT	ENDS
PUBLIC	??_C@_0BF@GDJNGBDL@INVALID_SOCKET?5?$CFs?5?$CFd?$AA@ ; `string'
PUBLIC	??_C@_0BB@OMKOBAGC@wsGameServer?4cpp?$AA@	; `string'
PUBLIC	?DataSocketSend@CwsGameServer@@QAEHIPADH@Z	; CwsGameServer::DataSocketSend
EXTRN	__imp__send@16:PROC
;	COMDAT ??_C@_0BF@GDJNGBDL@INVALID_SOCKET?5?$CFs?5?$CFd?$AA@
CONST	SEGMENT
??_C@_0BF@GDJNGBDL@INVALID_SOCKET?5?$CFs?5?$CFd?$AA@ DB 'INVALID_SOCKET %'
	DB	's %d', 00H					; `string'
CONST	ENDS
;	COMDAT ??_C@_0BB@OMKOBAGC@wsGameServer?4cpp?$AA@
CONST	SEGMENT
??_C@_0BB@OMKOBAGC@wsGameServer?4cpp?$AA@ DB 'wsGameServer.cpp', 00H ; `string'
; Function compile flags: /Ogtp
CONST	ENDS
;	COMDAT ?DataSocketSend@CwsGameServer@@QAEHIPADH@Z
_TEXT	SEGMENT
_nLeft$ = 8						; size = 4
_socket$ = 8						; size = 4
_buf$ = 12						; size = 4
_len$ = 16						; size = 4
?DataSocketSend@CwsGameServer@@QAEHIPADH@Z PROC		; CwsGameServer::DataSocketSend, COMDAT
; _this$ = ecx

; 128  : {

  00000	55		 push	 ebp
  00001	8b ec		 mov	 ebp, esp
  00003	53		 push	 ebx

; 129  : 	int nResult, nDx, nLeft;
; 130  : 
; 131  : 	nDx=0;
; 132  : 
; 133  : 	if (socket == INVALID_SOCKET )

  00004	8b 5d 08	 mov	 ebx, DWORD PTR _socket$[ebp]
  00007	56		 push	 esi
  00008	33 f6		 xor	 esi, esi
  0000a	83 fb ff	 cmp	 ebx, -1
  0000d	75 20		 jne	 SHORT $LN7@DataSocket

; 134  : 	{
; 135  : 		LogAdd("INVALID_SOCKET %s %d", __FILE__, __LINE__);

  0000f	68 87 00 00 00	 push	 135			; 00000087H
  00014	68 00 00 00 00	 push	 OFFSET ??_C@_0BB@OMKOBAGC@wsGameServer?4cpp?$AA@
  00019	68 00 00 00 00	 push	 OFFSET ??_C@_0BF@GDJNGBDL@INVALID_SOCKET?5?$CFs?5?$CFd?$AA@
  0001e	ff 15 00 00 00
	00		 call	 DWORD PTR ?LogAdd@@3P6AXPADZZA ; LogAdd
  00024	83 c4 0c	 add	 esp, 12			; 0000000cH
  00027	5e		 pop	 esi

; 136  : 		return 0;

  00028	33 c0		 xor	 eax, eax
  0002a	5b		 pop	 ebx

; 165  : }

  0002b	5d		 pop	 ebp
  0002c	c2 0c 00	 ret	 12			; 0000000cH
$LN7@DataSocket:
  0002f	57		 push	 edi

; 137  : 	}
; 138  : 
; 139  : 	nLeft = len;

  00030	8b 7d 10	 mov	 edi, DWORD PTR _len$[ebp]
  00033	89 7d 08	 mov	 DWORD PTR _nLeft$[ebp], edi

; 140  : 
; 141  : 	while (nLeft > 0)

  00036	85 ff		 test	 edi, edi
  00038	7e 44		 jle	 SHORT $LN12@DataSocket
  0003a	8d 9b 00 00 00
	00		 npad	 6
$LL6@DataSocket:

; 142  : 	{
; 143  : 		nResult=send(socket, &buf[nDx], (len-nDx), 0);

  00040	8b 4d 0c	 mov	 ecx, DWORD PTR _buf$[ebp]
  00043	6a 00		 push	 0
  00045	8b c7		 mov	 eax, edi
  00047	2b c6		 sub	 eax, esi
  00049	50		 push	 eax
  0004a	8d 14 0e	 lea	 edx, DWORD PTR [esi+ecx]
  0004d	52		 push	 edx
  0004e	53		 push	 ebx
  0004f	ff 15 00 00 00
	00		 call	 DWORD PTR __imp__send@16

; 144  : 
; 145  : 		if (nResult == -1)

  00055	83 f8 ff	 cmp	 eax, -1
  00058	75 16		 jne	 SHORT $LN4@DataSocket

; 146  : 		{
; 147  : 			if (WSAGetLastError() != WSAEWOULDBLOCK)

  0005a	ff 15 00 00 00
	00		 call	 DWORD PTR __imp__WSAGetLastError@0
  00060	3d 33 27 00 00	 cmp	 eax, 10035		; 00002733H
  00065	74 d9		 je	 SHORT $LL6@DataSocket

; 148  : 			{
; 149  : 				return 0;

  00067	5f		 pop	 edi
  00068	5e		 pop	 esi
  00069	33 c0		 xor	 eax, eax
  0006b	5b		 pop	 ebx

; 165  : }

  0006c	5d		 pop	 ebp
  0006d	c2 0c 00	 ret	 12			; 0000000cH
$LN4@DataSocket:

; 150  : 			}
; 151  : 		}
; 152  : 		else
; 153  : 		{
; 154  : 			nDx += nResult;
; 155  : 			nLeft -=nResult;

  00070	8b 4d 08	 mov	 ecx, DWORD PTR _nLeft$[ebp]
  00073	2b c8		 sub	 ecx, eax
  00075	03 f0		 add	 esi, eax
  00077	89 4d 08	 mov	 DWORD PTR _nLeft$[ebp], ecx

; 156  : 
; 157  : 			if ( nLeft <= 0)

  0007a	85 c9		 test	 ecx, ecx
  0007c	7f c2		 jg	 SHORT $LL6@DataSocket
$LN12@DataSocket:
  0007e	5f		 pop	 edi
  0007f	5e		 pop	 esi

; 158  : 			{
; 159  : 				break;
; 160  : 			}
; 161  : 		}
; 162  : 	}
; 163  : 
; 164  : 	return 1;

  00080	b8 01 00 00 00	 mov	 eax, 1
  00085	5b		 pop	 ebx

; 165  : }

  00086	5d		 pop	 ebp
  00087	c2 0c 00	 ret	 12			; 0000000cH
?DataSocketSend@CwsGameServer@@QAEHIPADH@Z ENDP		; CwsGameServer::DataSocketSend
_TEXT	ENDS
PUBLIC	?FDWRITE_MsgDataSend@CwsGameServer@@QAEHI@Z	; CwsGameServer::FDWRITE_MsgDataSend
; Function compile flags: /Ogtp
;	COMDAT ?FDWRITE_MsgDataSend@CwsGameServer@@QAEHI@Z
_TEXT	SEGMENT
_socket$ = 8						; size = 4
?FDWRITE_MsgDataSend@CwsGameServer@@QAEHI@Z PROC	; CwsGameServer::FDWRITE_MsgDataSend, COMDAT
; _this$ = ecx

; 169  : 	return 0;

  00000	33 c0		 xor	 eax, eax

; 170  : }

  00002	c2 04 00	 ret	 4
?FDWRITE_MsgDataSend@CwsGameServer@@QAEHI@Z ENDP	; CwsGameServer::FDWRITE_MsgDataSend
_TEXT	ENDS
PUBLIC	?DataRecv@CwsGameServer@@QAEHI@Z		; CwsGameServer::DataRecv
; Function compile flags: /Ogtp
;	COMDAT ?DataRecv@CwsGameServer@@QAEHI@Z
_TEXT	SEGMENT
_socket$ = 8						; size = 4
?DataRecv@CwsGameServer@@QAEHI@Z PROC			; CwsGameServer::DataRecv, COMDAT
; _this$ = ecx

; 175  : 	return 0;

  00000	33 c0		 xor	 eax, eax

; 176  : }

  00002	c2 04 00	 ret	 4
?DataRecv@CwsGameServer@@QAEHI@Z ENDP			; CwsGameServer::DataRecv
_TEXT	ENDS
PUBLIC	?SetSocketBuffer@CwsGameServer@@QAEHHIPAD@Z	; CwsGameServer::SetSocketBuffer
; Function compile flags: /Ogtp
;	COMDAT ?SetSocketBuffer@CwsGameServer@@QAEHHIPAD@Z
_TEXT	SEGMENT
_index$ = 8						; size = 4
_socket$ = 12						; size = 4
_ip$ = 16						; size = 4
?SetSocketBuffer@CwsGameServer@@QAEHHIPAD@Z PROC	; CwsGameServer::SetSocketBuffer, COMDAT
; _this$ = ecx

; 180  : 	return 1;

  00000	b8 01 00 00 00	 mov	 eax, 1

; 181  : }

  00005	c2 0c 00	 ret	 12			; 0000000cH
?SetSocketBuffer@CwsGameServer@@QAEHHIPAD@Z ENDP	; CwsGameServer::SetSocketBuffer
_TEXT	ENDS
EXTRN	??3@YAXPAX@Z:PROC				; operator delete
; Function compile flags: /Ogtp
;	COMDAT ??_GCwsGameServer@@UAEPAXI@Z
_TEXT	SEGMENT
___flags$ = 8						; size = 4
??_GCwsGameServer@@UAEPAXI@Z PROC			; CwsGameServer::`scalar deleting destructor', COMDAT
; _this$ = ecx
  00000	55		 push	 ebp
  00001	8b ec		 mov	 ebp, esp
  00003	56		 push	 esi
  00004	8b f1		 mov	 esi, ecx
  00006	e8 00 00 00 00	 call	 ??1CwsGameServer@@UAE@XZ ; CwsGameServer::~CwsGameServer
  0000b	f6 45 08 01	 test	 BYTE PTR ___flags$[ebp], 1
  0000f	74 09		 je	 SHORT $LN4@scalar
  00011	56		 push	 esi
  00012	e8 00 00 00 00	 call	 ??3@YAXPAX@Z		; operator delete
  00017	83 c4 04	 add	 esp, 4
$LN4@scalar:
  0001a	8b c6		 mov	 eax, esi
  0001c	5e		 pop	 esi
  0001d	5d		 pop	 ebp
  0001e	c2 04 00	 ret	 4
??_GCwsGameServer@@UAEPAXI@Z ENDP			; CwsGameServer::`scalar deleting destructor'
_TEXT	ENDS
END
