; Listing generated by Microsoft (R) Optimizing Compiler Version 16.00.40219.01 

	TITLE	C:\muserver_dev\development\MU-S8EP2-Repack\GameServer\Source\wsJoinServerCli.cpp
	.686P
	.XMM
	include listing.inc
	.model	flat

INCLUDELIB LIBCMT
INCLUDELIB OLDNAMES

PUBLIC	??_7wsJoinServerCli@@6B@			; wsJoinServerCli::`vftable'
PUBLIC	??0wsJoinServerCli@@QAE@XZ			; wsJoinServerCli::wsJoinServerCli
PUBLIC	??_R4wsJoinServerCli@@6B@			; wsJoinServerCli::`RTTI Complete Object Locator'
PUBLIC	??_R0?AVwsJoinServerCli@@@8			; wsJoinServerCli `RTTI Type Descriptor'
PUBLIC	??_R3wsJoinServerCli@@8				; wsJoinServerCli::`RTTI Class Hierarchy Descriptor'
PUBLIC	??_R2wsJoinServerCli@@8				; wsJoinServerCli::`RTTI Base Class Array'
PUBLIC	??_R1A@?0A@EA@wsJoinServerCli@@8		; wsJoinServerCli::`RTTI Base Class Descriptor at (0,-1,0,64)'
PUBLIC	??_R13?0A@EA@MyWinsockBase@@8			; MyWinsockBase::`RTTI Base Class Descriptor at (4,-1,0,64)'
PUBLIC	??_R0?AVMyWinsockBase@@@8			; MyWinsockBase `RTTI Type Descriptor'
PUBLIC	??_R3MyWinsockBase@@8				; MyWinsockBase::`RTTI Class Hierarchy Descriptor'
PUBLIC	??_R2MyWinsockBase@@8				; MyWinsockBase::`RTTI Base Class Array'
PUBLIC	??_R1A@?0A@EA@MyWinsockBase@@8			; MyWinsockBase::`RTTI Base Class Descriptor at (0,-1,0,64)'
EXTRN	??0MyWinsockBase@@QAE@XZ:PROC			; MyWinsockBase::MyWinsockBase
EXTRN	??_7type_info@@6B@:QWORD			; type_info::`vftable'
EXTRN	??_EwsJoinServerCli@@UAEPAXI@Z:PROC		; wsJoinServerCli::`vector deleting destructor'
;	COMDAT ??_R1A@?0A@EA@MyWinsockBase@@8
; File c:\muserver_dev\development\mu-s8ep2-repack\gameserver\source\wsjoinservercli.cpp
rdata$r	SEGMENT
??_R1A@?0A@EA@MyWinsockBase@@8 DD FLAT:??_R0?AVMyWinsockBase@@@8 ; MyWinsockBase::`RTTI Base Class Descriptor at (0,-1,0,64)'
	DD	00H
	DD	00H
	DD	0ffffffffH
	DD	00H
	DD	040H
	DD	FLAT:??_R3MyWinsockBase@@8
rdata$r	ENDS
;	COMDAT ??_R2MyWinsockBase@@8
rdata$r	SEGMENT
??_R2MyWinsockBase@@8 DD FLAT:??_R1A@?0A@EA@MyWinsockBase@@8 ; MyWinsockBase::`RTTI Base Class Array'
rdata$r	ENDS
;	COMDAT ??_R3MyWinsockBase@@8
rdata$r	SEGMENT
??_R3MyWinsockBase@@8 DD 00H				; MyWinsockBase::`RTTI Class Hierarchy Descriptor'
	DD	00H
	DD	01H
	DD	FLAT:??_R2MyWinsockBase@@8
rdata$r	ENDS
;	COMDAT ??_R0?AVMyWinsockBase@@@8
_DATA	SEGMENT
??_R0?AVMyWinsockBase@@@8 DD FLAT:??_7type_info@@6B@	; MyWinsockBase `RTTI Type Descriptor'
	DD	00H
	DB	'.?AVMyWinsockBase@@', 00H
_DATA	ENDS
;	COMDAT ??_R13?0A@EA@MyWinsockBase@@8
rdata$r	SEGMENT
??_R13?0A@EA@MyWinsockBase@@8 DD FLAT:??_R0?AVMyWinsockBase@@@8 ; MyWinsockBase::`RTTI Base Class Descriptor at (4,-1,0,64)'
	DD	00H
	DD	04H
	DD	0ffffffffH
	DD	00H
	DD	040H
	DD	FLAT:??_R3MyWinsockBase@@8
rdata$r	ENDS
;	COMDAT ??_R1A@?0A@EA@wsJoinServerCli@@8
rdata$r	SEGMENT
??_R1A@?0A@EA@wsJoinServerCli@@8 DD FLAT:??_R0?AVwsJoinServerCli@@@8 ; wsJoinServerCli::`RTTI Base Class Descriptor at (0,-1,0,64)'
	DD	01H
	DD	00H
	DD	0ffffffffH
	DD	00H
	DD	040H
	DD	FLAT:??_R3wsJoinServerCli@@8
rdata$r	ENDS
;	COMDAT ??_R2wsJoinServerCli@@8
rdata$r	SEGMENT
??_R2wsJoinServerCli@@8 DD FLAT:??_R1A@?0A@EA@wsJoinServerCli@@8 ; wsJoinServerCli::`RTTI Base Class Array'
	DD	FLAT:??_R13?0A@EA@MyWinsockBase@@8
rdata$r	ENDS
;	COMDAT ??_R3wsJoinServerCli@@8
rdata$r	SEGMENT
??_R3wsJoinServerCli@@8 DD 00H				; wsJoinServerCli::`RTTI Class Hierarchy Descriptor'
	DD	00H
	DD	02H
	DD	FLAT:??_R2wsJoinServerCli@@8
rdata$r	ENDS
;	COMDAT ??_R0?AVwsJoinServerCli@@@8
_DATA	SEGMENT
??_R0?AVwsJoinServerCli@@@8 DD FLAT:??_7type_info@@6B@	; wsJoinServerCli `RTTI Type Descriptor'
	DD	00H
	DB	'.?AVwsJoinServerCli@@', 00H
_DATA	ENDS
;	COMDAT ??_R4wsJoinServerCli@@6B@
rdata$r	SEGMENT
??_R4wsJoinServerCli@@6B@ DD 00H			; wsJoinServerCli::`RTTI Complete Object Locator'
	DD	00H
	DD	00H
	DD	FLAT:??_R0?AVwsJoinServerCli@@@8
	DD	FLAT:??_R3wsJoinServerCli@@8
rdata$r	ENDS
;	COMDAT ??_7wsJoinServerCli@@6B@
CONST	SEGMENT
??_7wsJoinServerCli@@6B@ DD FLAT:??_R4wsJoinServerCli@@6B@ ; wsJoinServerCli::`vftable'
	DD	FLAT:??_EwsJoinServerCli@@UAEPAXI@Z
; Function compile flags: /Ogtp
CONST	ENDS
;	COMDAT ??0wsJoinServerCli@@QAE@XZ
_TEXT	SEGMENT
??0wsJoinServerCli@@QAE@XZ PROC				; wsJoinServerCli::wsJoinServerCli, COMDAT
; _this$ = ecx

; 6    : {

  00000	56		 push	 esi
  00001	8b f1		 mov	 esi, ecx
  00003	8d 4e 04	 lea	 ecx, DWORD PTR [esi+4]
  00006	e8 00 00 00 00	 call	 ??0MyWinsockBase@@QAE@XZ ; MyWinsockBase::MyWinsockBase
  0000b	c7 06 00 00 00
	00		 mov	 DWORD PTR [esi], OFFSET ??_7wsJoinServerCli@@6B@

; 7    : 	return;
; 8    : }

  00011	8b c6		 mov	 eax, esi
  00013	5e		 pop	 esi
  00014	c3		 ret	 0
??0wsJoinServerCli@@QAE@XZ ENDP				; wsJoinServerCli::wsJoinServerCli
_TEXT	ENDS
PUBLIC	??1wsJoinServerCli@@UAE@XZ			; wsJoinServerCli::~wsJoinServerCli
EXTRN	??1MyWinsockBase@@QAE@XZ:PROC			; MyWinsockBase::~MyWinsockBase
; Function compile flags: /Ogtp
;	COMDAT ??1wsJoinServerCli@@UAE@XZ
_TEXT	SEGMENT
??1wsJoinServerCli@@UAE@XZ PROC				; wsJoinServerCli::~wsJoinServerCli, COMDAT
; _this$ = ecx

; 11   : {

  00000	c7 01 00 00 00
	00		 mov	 DWORD PTR [ecx], OFFSET ??_7wsJoinServerCli@@6B@

; 12   : 	return;
; 13   : }

  00006	83 c1 04	 add	 ecx, 4
  00009	e9 00 00 00 00	 jmp	 ??1MyWinsockBase@@QAE@XZ ; MyWinsockBase::~MyWinsockBase
??1wsJoinServerCli@@UAE@XZ ENDP				; wsJoinServerCli::~wsJoinServerCli
_TEXT	ENDS
PUBLIC	?SetProtocolCore@wsJoinServerCli@@QAEHP6AXEPAEH@Z@Z ; wsJoinServerCli::SetProtocolCore
; Function compile flags: /Ogtp
;	COMDAT ?SetProtocolCore@wsJoinServerCli@@QAEHP6AXEPAEH@Z@Z
_TEXT	SEGMENT
_pc$ = 8						; size = 4
?SetProtocolCore@wsJoinServerCli@@QAEHP6AXEPAEH@Z@Z PROC ; wsJoinServerCli::SetProtocolCore, COMDAT
; _this$ = ecx

; 17   : {

  00000	55		 push	 ebp
  00001	8b ec		 mov	 ebp, esp

; 18   : 	this->wsProtocolCore = pc;

  00003	8b 45 08	 mov	 eax, DWORD PTR _pc$[ebp]
  00006	89 81 24 00 19
	00		 mov	 DWORD PTR [ecx+1638436], eax

; 19   : 	return TRUE;

  0000c	b8 01 00 00 00	 mov	 eax, 1

; 20   : }

  00011	5d		 pop	 ebp
  00012	c2 04 00	 ret	 4
?SetProtocolCore@wsJoinServerCli@@QAEHP6AXEPAEH@Z@Z ENDP ; wsJoinServerCli::SetProtocolCore
_TEXT	ENDS
PUBLIC	??_C@_0BP@DJPBKKNL@Client?5WSAAsyncSelect?5error?5?$CFd?$AA@ ; `string'
PUBLIC	??_C@_0BL@INMHEGJC@server?5name?5not?5found?5?$FL?$CFs?$FN?$AA@ ; `string'
PUBLIC	??_C@_0BF@CPKGJHBM@?5Connect?5Error?5?$CFs?5?$CFd?$AA@ ; `string'
PUBLIC	??_C@_0BE@MELEPACJ@wsJoinServerCli?4cpp?$AA@	; `string'
PUBLIC	__$ArrayPad$
PUBLIC	?Connect@wsJoinServerCli@@QAEHPADGK@Z		; wsJoinServerCli::Connect
EXTRN	?SetConnect@MyWinsockBase@@QAEXH@Z:PROC		; MyWinsockBase::SetConnect
EXTRN	__imp__closesocket@4:PROC
EXTRN	__imp__WSAAsyncSelect@16:PROC
EXTRN	?Close@MyWinsockBase@@QAEHI@Z:PROC		; MyWinsockBase::Close
EXTRN	__imp__WSAGetLastError@0:PROC
EXTRN	__imp__connect@12:PROC
EXTRN	__imp__gethostbyname@4:PROC
EXTRN	__imp__inet_addr@4:PROC
EXTRN	__imp__htons@4:PROC
EXTRN	?LogAdd@@3P6AXPADZZA:DWORD			; LogAdd
EXTRN	___security_cookie:DWORD
EXTRN	@__security_check_cookie@4:PROC
EXTRN	_memcpy:PROC
;	COMDAT ??_C@_0BP@DJPBKKNL@Client?5WSAAsyncSelect?5error?5?$CFd?$AA@
CONST	SEGMENT
??_C@_0BP@DJPBKKNL@Client?5WSAAsyncSelect?5error?5?$CFd?$AA@ DB 'Client W'
	DB	'SAAsyncSelect error %d', 00H		; `string'
CONST	ENDS
;	COMDAT ??_C@_0BL@INMHEGJC@server?5name?5not?5found?5?$FL?$CFs?$FN?$AA@
CONST	SEGMENT
??_C@_0BL@INMHEGJC@server?5name?5not?5found?5?$FL?$CFs?$FN?$AA@ DB 'serve'
	DB	'r name not found [%s]', 00H			; `string'
CONST	ENDS
;	COMDAT ??_C@_0BF@CPKGJHBM@?5Connect?5Error?5?$CFs?5?$CFd?$AA@
CONST	SEGMENT
??_C@_0BF@CPKGJHBM@?5Connect?5Error?5?$CFs?5?$CFd?$AA@ DB ' Connect Error'
	DB	' %s %d', 00H				; `string'
CONST	ENDS
;	COMDAT ??_C@_0BE@MELEPACJ@wsJoinServerCli?4cpp?$AA@
CONST	SEGMENT
??_C@_0BE@MELEPACJ@wsJoinServerCli?4cpp?$AA@ DB 'wsJoinServerCli.cpp', 00H ; `string'
; Function compile flags: /Ogtp
CONST	ENDS
;	COMDAT ?Connect@wsJoinServerCli@@QAEHPADGK@Z
_TEXT	SEGMENT
_addr$ = -20						; size = 16
__$ArrayPad$ = -4					; size = 4
_ip_addr$ = 8						; size = 4
_port$ = 12						; size = 2
_WinMsgNum$ = 16					; size = 4
?Connect@wsJoinServerCli@@QAEHPADGK@Z PROC		; wsJoinServerCli::Connect, COMDAT
; _this$ = ecx

; 23   : {

  00000	55		 push	 ebp
  00001	8b ec		 mov	 ebp, esp
  00003	83 ec 14	 sub	 esp, 20			; 00000014H
  00006	a1 00 00 00 00	 mov	 eax, DWORD PTR ___security_cookie
  0000b	33 c5		 xor	 eax, ebp
  0000d	89 45 fc	 mov	 DWORD PTR __$ArrayPad$[ebp], eax
  00010	56		 push	 esi
  00011	8b f1		 mov	 esi, ecx

; 24   : 	hostent* host;
; 25   : 	sockaddr_in addr;
; 26   : 	int nResult;
; 27   : 
; 28   : 	host = 0;
; 29   : 
; 30   : 	if ( this->m_hWnd  == 0 )

  00013	83 7e 08 00	 cmp	 DWORD PTR [esi+8], 0
  00017	57		 push	 edi
  00018	8b 7d 08	 mov	 edi, DWORD PTR _ip_addr$[ebp]
  0001b	75 29		 jne	 SHORT $LN6@Connect

; 31   : 	{
; 32   : 		LogAdd(" Connect Error %s %d", __FILE__, __LINE__);

  0001d	6a 20		 push	 32			; 00000020H
  0001f	68 00 00 00 00	 push	 OFFSET ??_C@_0BE@MELEPACJ@wsJoinServerCli?4cpp?$AA@
  00024	68 00 00 00 00	 push	 OFFSET ??_C@_0BF@CPKGJHBM@?5Connect?5Error?5?$CFs?5?$CFd?$AA@
  00029	ff 15 00 00 00
	00		 call	 DWORD PTR ?LogAdd@@3P6AXPADZZA ; LogAdd
  0002f	83 c4 0c	 add	 esp, 12			; 0000000cH
  00032	5f		 pop	 edi

; 33   : 		return FALSE;

  00033	33 c0		 xor	 eax, eax
  00035	5e		 pop	 esi

; 72   : 
; 73   : 	return TRUE;
; 74   : }

  00036	8b 4d fc	 mov	 ecx, DWORD PTR __$ArrayPad$[ebp]
  00039	33 cd		 xor	 ecx, ebp
  0003b	e8 00 00 00 00	 call	 @__security_check_cookie@4
  00040	8b e5		 mov	 esp, ebp
  00042	5d		 pop	 ebp
  00043	c2 0c 00	 ret	 12			; 0000000cH
$LN6@Connect:

; 34   : 	}
; 35   : 	addr.sin_family = AF_INET;
; 36   : 	addr.sin_port =  htons(port);

  00046	8b 4d 0c	 mov	 ecx, DWORD PTR _port$[ebp]
  00049	b8 02 00 00 00	 mov	 eax, 2
  0004e	51		 push	 ecx
  0004f	66 89 45 ec	 mov	 WORD PTR _addr$[ebp], ax
  00053	ff 15 00 00 00
	00		 call	 DWORD PTR __imp__htons@4

; 37   : 	addr.sin_addr.S_un.S_addr = inet_addr(ip_addr);

  00059	57		 push	 edi
  0005a	66 89 45 ee	 mov	 WORD PTR _addr$[ebp+2], ax
  0005e	ff 15 00 00 00
	00		 call	 DWORD PTR __imp__inet_addr@4
  00064	89 45 f0	 mov	 DWORD PTR _addr$[ebp+4], eax

; 38   : 
; 39   : 	if ( addr.sin_addr.S_un.S_addr == -1 )

  00067	83 f8 ff	 cmp	 eax, -1
  0006a	75 45		 jne	 SHORT $LN5@Connect

; 40   : 	{
; 41   : 		host = gethostbyname(ip_addr);

  0006c	57		 push	 edi
  0006d	ff 15 00 00 00
	00		 call	 DWORD PTR __imp__gethostbyname@4

; 42   : 		if ( host == 0 )

  00073	85 c0		 test	 eax, eax
  00075	75 23		 jne	 SHORT $LN4@Connect

; 43   : 		{
; 44   : 			LogAdd("server name not found [%s]", ip_addr);

  00077	57		 push	 edi
  00078	68 00 00 00 00	 push	 OFFSET ??_C@_0BL@INMHEGJC@server?5name?5not?5found?5?$FL?$CFs?$FN?$AA@
  0007d	ff 15 00 00 00
	00		 call	 DWORD PTR ?LogAdd@@3P6AXPADZZA ; LogAdd
  00083	83 c4 08	 add	 esp, 8
  00086	5f		 pop	 edi

; 45   : 			return FALSE;

  00087	33 c0		 xor	 eax, eax
  00089	5e		 pop	 esi

; 72   : 
; 73   : 	return TRUE;
; 74   : }

  0008a	8b 4d fc	 mov	 ecx, DWORD PTR __$ArrayPad$[ebp]
  0008d	33 cd		 xor	 ecx, ebp
  0008f	e8 00 00 00 00	 call	 @__security_check_cookie@4
  00094	8b e5		 mov	 esp, ebp
  00096	5d		 pop	 ebp
  00097	c2 0c 00	 ret	 12			; 0000000cH
$LN4@Connect:

; 46   : 		}
; 47   : 
; 48   : 		memcpy(&addr.sin_addr.S_un.S_addr, *host->h_addr_list  , host->h_length  );	

  0009a	0f bf 50 0a	 movsx	 edx, WORD PTR [eax+10]
  0009e	8b 40 0c	 mov	 eax, DWORD PTR [eax+12]
  000a1	8b 08		 mov	 ecx, DWORD PTR [eax]
  000a3	52		 push	 edx
  000a4	51		 push	 ecx
  000a5	8d 55 f0	 lea	 edx, DWORD PTR _addr$[ebp+4]
  000a8	52		 push	 edx
  000a9	e8 00 00 00 00	 call	 _memcpy
  000ae	83 c4 0c	 add	 esp, 12			; 0000000cH
$LN5@Connect:

; 49   : 	}
; 50   : 
; 51   : 	nResult=connect(this->m_socket, (sockaddr*)&addr, 16);

  000b1	8b 4e 0c	 mov	 ecx, DWORD PTR [esi+12]
  000b4	6a 10		 push	 16			; 00000010H
  000b6	8d 45 ec	 lea	 eax, DWORD PTR _addr$[ebp]
  000b9	50		 push	 eax
  000ba	51		 push	 ecx
  000bb	ff 15 00 00 00
	00		 call	 DWORD PTR __imp__connect@12

; 52   : 
; 53   : 	if (nResult== -1)

  000c1	8b 3d 00 00 00
	00		 mov	 edi, DWORD PTR __imp__WSAGetLastError@0
  000c7	83 f8 ff	 cmp	 eax, -1
  000ca	75 29		 jne	 SHORT $LN2@Connect

; 54   : 	{
; 55   : 		if ( WSAGetLastError() != WSAEWOULDBLOCK)

  000cc	ff d7		 call	 edi
  000ce	3d 33 27 00 00	 cmp	 eax, 10035		; 00002733H
  000d3	74 20		 je	 SHORT $LN2@Connect

; 56   : 		{
; 57   : 			this->Close(this->m_socket );

  000d5	8b 56 0c	 mov	 edx, DWORD PTR [esi+12]
  000d8	52		 push	 edx
  000d9	8d 4e 04	 lea	 ecx, DWORD PTR [esi+4]
  000dc	e8 00 00 00 00	 call	 ?Close@MyWinsockBase@@QAEHI@Z ; MyWinsockBase::Close
  000e1	5f		 pop	 edi

; 58   : 			return FALSE;

  000e2	33 c0		 xor	 eax, eax
  000e4	5e		 pop	 esi

; 72   : 
; 73   : 	return TRUE;
; 74   : }

  000e5	8b 4d fc	 mov	 ecx, DWORD PTR __$ArrayPad$[ebp]
  000e8	33 cd		 xor	 ecx, ebp
  000ea	e8 00 00 00 00	 call	 @__security_check_cookie@4
  000ef	8b e5		 mov	 esp, ebp
  000f1	5d		 pop	 ebp
  000f2	c2 0c 00	 ret	 12			; 0000000cH
$LN2@Connect:

; 59   : 		}
; 60   : 	}
; 61   : 
; 62   : 	nResult=WSAAsyncSelect(this->m_socket, this->m_hWnd , WinMsgNum, FD_READ|FD_WRITE|FD_CLOSE);

  000f5	8b 45 10	 mov	 eax, DWORD PTR _WinMsgNum$[ebp]
  000f8	8b 4e 08	 mov	 ecx, DWORD PTR [esi+8]
  000fb	8b 56 0c	 mov	 edx, DWORD PTR [esi+12]
  000fe	6a 23		 push	 35			; 00000023H
  00100	50		 push	 eax
  00101	51		 push	 ecx
  00102	52		 push	 edx
  00103	ff 15 00 00 00
	00		 call	 DWORD PTR __imp__WSAAsyncSelect@16

; 63   : 
; 64   : 	if ( nResult == -1 )

  00109	83 f8 ff	 cmp	 eax, -1
  0010c	75 2f		 jne	 SHORT $LN1@Connect

; 65   : 	{
; 66   : 		closesocket(this->m_socket );

  0010e	8b 46 0c	 mov	 eax, DWORD PTR [esi+12]
  00111	50		 push	 eax
  00112	ff 15 00 00 00
	00		 call	 DWORD PTR __imp__closesocket@4

; 67   : 		LogAdd("Client WSAAsyncSelect error %d", WSAGetLastError());

  00118	ff d7		 call	 edi
  0011a	50		 push	 eax
  0011b	68 00 00 00 00	 push	 OFFSET ??_C@_0BP@DJPBKKNL@Client?5WSAAsyncSelect?5error?5?$CFd?$AA@
  00120	ff 15 00 00 00
	00		 call	 DWORD PTR ?LogAdd@@3P6AXPADZZA ; LogAdd
  00126	83 c4 08	 add	 esp, 8
  00129	5f		 pop	 edi

; 68   : 		return FALSE;

  0012a	33 c0		 xor	 eax, eax
  0012c	5e		 pop	 esi

; 72   : 
; 73   : 	return TRUE;
; 74   : }

  0012d	8b 4d fc	 mov	 ecx, DWORD PTR __$ArrayPad$[ebp]
  00130	33 cd		 xor	 ecx, ebp
  00132	e8 00 00 00 00	 call	 @__security_check_cookie@4
  00137	8b e5		 mov	 esp, ebp
  00139	5d		 pop	 ebp
  0013a	c2 0c 00	 ret	 12			; 0000000cH
$LN1@Connect:

; 69   : 	}
; 70   : 	this->m_SendBufLen=0;
; 71   : 	this->SetConnect(TRUE);

  0013d	6a 01		 push	 1
  0013f	8d 4e 04	 lea	 ecx, DWORD PTR [esi+4]
  00142	c7 86 1c 80 0c
	00 00 00 00 00	 mov	 DWORD PTR [esi+819228], 0
  0014c	e8 00 00 00 00	 call	 ?SetConnect@MyWinsockBase@@QAEXH@Z ; MyWinsockBase::SetConnect

; 72   : 
; 73   : 	return TRUE;
; 74   : }

  00151	8b 4d fc	 mov	 ecx, DWORD PTR __$ArrayPad$[ebp]
  00154	5f		 pop	 edi
  00155	33 cd		 xor	 ecx, ebp
  00157	b8 01 00 00 00	 mov	 eax, 1
  0015c	5e		 pop	 esi
  0015d	e8 00 00 00 00	 call	 @__security_check_cookie@4
  00162	8b e5		 mov	 esp, ebp
  00164	5d		 pop	 ebp
  00165	c2 0c 00	 ret	 12			; 0000000cH
?Connect@wsJoinServerCli@@QAEHPADGK@Z ENDP		; wsJoinServerCli::Connect
_TEXT	ENDS
PUBLIC	??_C@_0CC@HECGJOBH@error?9L3?5?3?5send?$CI?$CJ?5?5result?5is?5zer@ ; `string'
PUBLIC	??_C@_0CG@DMMIJENA@error?9L3?5?3?5buffer?5error?5closed?5?$CF@ ; `string'
PUBLIC	??_C@_0BG@DJOPGDCB@error?9L3?5?3?5?$CFd?5?$CI?$CFs?5?$CFd?$CJ?$AA@ ; `string'
PUBLIC	??_C@_0CK@NAOKACP@error?9L3?5?3?5Copy1?5?3?5nLeft?3?$CFd?5len?3@ ; `string'
PUBLIC	?DataSend@wsJoinServerCli@@QAEHPADH@Z		; wsJoinServerCli::DataSend
EXTRN	?LogAddC@@3P6AXEPADZZA:DWORD			; LogAddC
EXTRN	__imp__send@16:PROC
EXTRN	?Close@MyWinsockBase@@QAEHXZ:PROC		; MyWinsockBase::Close
;	COMDAT ??_C@_0CC@HECGJOBH@error?9L3?5?3?5send?$CI?$CJ?5?5result?5is?5zer@
CONST	SEGMENT
??_C@_0CC@HECGJOBH@error?9L3?5?3?5send?$CI?$CJ?5?5result?5is?5zer@ DB 'er'
	DB	'ror-L3 : send()  result is zero', 00H	; `string'
CONST	ENDS
;	COMDAT ??_C@_0CG@DMMIJENA@error?9L3?5?3?5buffer?5error?5closed?5?$CF@
CONST	SEGMENT
??_C@_0CG@DMMIJENA@error?9L3?5?3?5buffer?5error?5closed?5?$CF@ DB 'error-'
	DB	'L3 : buffer error closed %d, %d', 00H	; `string'
CONST	ENDS
;	COMDAT ??_C@_0BG@DJOPGDCB@error?9L3?5?3?5?$CFd?5?$CI?$CFs?5?$CFd?$CJ?$AA@
CONST	SEGMENT
??_C@_0BG@DJOPGDCB@error?9L3?5?3?5?$CFd?5?$CI?$CFs?5?$CFd?$CJ?$AA@ DB 'er'
	DB	'ror-L3 : %d (%s %d)', 00H			; `string'
CONST	ENDS
;	COMDAT ??_C@_0CK@NAOKACP@error?9L3?5?3?5Copy1?5?3?5nLeft?3?$CFd?5len?3@
CONST	SEGMENT
??_C@_0CK@NAOKACP@error?9L3?5?3?5Copy1?5?3?5nLeft?3?$CFd?5len?3@ DB 'erro'
	DB	'r-L3 : Copy1 : nLeft:%d len:%d nDx:%d', 00H	; `string'
; Function compile flags: /Ogtp
CONST	ENDS
;	COMDAT ?DataSend@wsJoinServerCli@@QAEHPADH@Z
_TEXT	SEGMENT
_buf$ = 8						; size = 4
_nLeft$ = 12						; size = 4
_len$ = 12						; size = 4
?DataSend@wsJoinServerCli@@QAEHPADH@Z PROC		; wsJoinServerCli::DataSend, COMDAT
; _this$ = ecx

; 79   : {

  00000	55		 push	 ebp
  00001	8b ec		 mov	 ebp, esp
  00003	53		 push	 ebx

; 80   : 	int nResult;
; 81   : 	int nLeft;
; 82   : 	int nDx;
; 83   : 	LPBYTE sendbuf;
; 84   : 	int* sendbuflen;
; 85   : 	
; 86   : 	if ( len <= 0 )

  00004	8b 5d 0c	 mov	 ebx, DWORD PTR _len$[ebp]
  00007	56		 push	 esi
  00008	8b f1		 mov	 esi, ecx
  0000a	85 db		 test	 ebx, ebx
  0000c	7f 08		 jg	 SHORT $LN14@DataSend
$LN26@DataSend:
  0000e	5e		 pop	 esi

; 87   : 	{
; 88   : 		return 0;

  0000f	33 c0		 xor	 eax, eax
  00011	5b		 pop	 ebx

; 166  : }

  00012	5d		 pop	 ebp
  00013	c2 08 00	 ret	 8
$LN14@DataSend:

; 89   : 	}
; 90   : 
; 91   : 	if ( this->m_socket  == INVALID_SOCKET )

  00016	83 7e 0c ff	 cmp	 DWORD PTR [esi+12], -1

; 92   : 	{
; 93   : 		return 0;

  0001a	74 f2		 je	 SHORT $LN26@DataSend

; 94   : 	}
; 95   : 
; 96   : 	nDx = 0;
; 97   : 
; 98   : 	sendbuf = this->m_SendBuf;
; 99   : 	sendbuflen= &len;
; 100  : 
; 101  : 	if ( this->m_SendBufLen   > 0 )

  0001c	8b 86 1c 80 0c
	00		 mov	 eax, DWORD PTR [esi+819228]
  00022	57		 push	 edi
  00023	33 ff		 xor	 edi, edi
  00025	85 c0		 test	 eax, eax
  00027	7e 3e		 jle	 SHORT $LN12@DataSend

; 102  : 	{
; 103  : 		if ( (this->m_SendBufLen +len) < 819200 )

  00029	8d 0c 18	 lea	 ecx, DWORD PTR [eax+ebx]
  0002c	81 f9 00 80 0c
	00		 cmp	 ecx, 819200		; 000c8000H
  00032	7d 22		 jge	 SHORT $LN11@DataSend

; 104  : 		{
; 105  : 			memcpy( &this->m_SendBuf[this->m_SendBufLen]  , buf, len);	// Review this later

  00034	8b 55 08	 mov	 edx, DWORD PTR _buf$[ebp]
  00037	53		 push	 ebx
  00038	52		 push	 edx
  00039	8d 44 30 1c	 lea	 eax, DWORD PTR [eax+esi+28]
  0003d	50		 push	 eax
  0003e	e8 00 00 00 00	 call	 _memcpy
  00043	83 c4 0c	 add	 esp, 12			; 0000000cH

; 106  : 
; 107  : 			this->m_SendBufLen +=len;

  00046	01 9e 1c 80 0c
	00		 add	 DWORD PTR [esi+819228], ebx

; 161  : 		{
; 162  : 			break;
; 163  : 		}
; 164  : 	}
; 165  : 	return TRUE;

  0004c	8d 47 01	 lea	 eax, DWORD PTR [edi+1]
  0004f	5f		 pop	 edi
  00050	5e		 pop	 esi
  00051	5b		 pop	 ebx

; 166  : }

  00052	5d		 pop	 ebp
  00053	c2 08 00	 ret	 8
$LN11@DataSend:

; 108  : 			return 1;
; 109  : 		}
; 110  : 		this->Close();

  00056	8d 4e 04	 lea	 ecx, DWORD PTR [esi+4]
  00059	e8 00 00 00 00	 call	 ?Close@MyWinsockBase@@QAEHXZ ; MyWinsockBase::Close
  0005e	5f		 pop	 edi
  0005f	5e		 pop	 esi

; 111  : 		return FALSE;

  00060	33 c0		 xor	 eax, eax
  00062	5b		 pop	 ebx

; 166  : }

  00063	5d		 pop	 ebp
  00064	c2 08 00	 ret	 8
$LN12@DataSend:

; 112  : 	}
; 113  : 
; 114  : 	nLeft= *sendbuflen;

  00067	89 5d 0c	 mov	 DWORD PTR _nLeft$[ebp], ebx
  0006a	8d 9b 00 00 00
	00		 npad	 6
$LL10@DataSend:

; 115  : 
; 116  : 	while ( true )
; 117  : 	{
; 118  : 		nResult=send(this->m_socket, (char*)&buf[nDx], (*sendbuflen - nDx), 0);

  00070	8b 55 08	 mov	 edx, DWORD PTR _buf$[ebp]
  00073	6a 00		 push	 0
  00075	8b cb		 mov	 ecx, ebx
  00077	2b cf		 sub	 ecx, edi
  00079	51		 push	 ecx
  0007a	8b 4e 0c	 mov	 ecx, DWORD PTR [esi+12]
  0007d	8d 04 17	 lea	 eax, DWORD PTR [edi+edx]
  00080	50		 push	 eax
  00081	51		 push	 ecx
  00082	ff 15 00 00 00
	00		 call	 DWORD PTR __imp__send@16

; 119  : 
; 120  : 		if ( nResult == -1)

  00088	83 f8 ff	 cmp	 eax, -1
  0008b	75 67		 jne	 SHORT $LN8@DataSend

; 121  : 		{
; 122  : 			if ( WSAGetLastError() != WSAEWOULDBLOCK )

  0008d	ff 15 00 00 00
	00		 call	 DWORD PTR __imp__WSAGetLastError@0
  00093	3d 33 27 00 00	 cmp	 eax, 10035		; 00002733H
  00098	75 7d		 jne	 SHORT $LN19@DataSend

; 128  : 			}
; 129  : 
; 130  : 			if ( (*sendbuflen + nLeft) > 819200 )

  0009a	8b 45 0c	 mov	 eax, DWORD PTR _nLeft$[ebp]
  0009d	8d 14 18	 lea	 edx, DWORD PTR [eax+ebx]
  000a0	81 fa 00 80 0c
	00		 cmp	 edx, 819200		; 000c8000H
  000a6	0f 8f 9c 00 00
	00		 jg	 $LN20@DataSend

; 136  : 			}
; 137  : 
; 138  : 			if ( nDx >= 0 )

  000ac	85 ff		 test	 edi, edi
  000ae	78 51		 js	 SHORT $LN24@DataSend

; 139  : 			{
; 140  : 				memcpy( &this->m_SendBuf[this->m_SendBufLen],  &buf[nDx], nLeft);

  000b0	8b 55 08	 mov	 edx, DWORD PTR _buf$[ebp]
  000b3	8b 8e 1c 80 0c
	00		 mov	 ecx, DWORD PTR [esi+819228]
  000b9	50		 push	 eax
  000ba	8d 04 17	 lea	 eax, DWORD PTR [edi+edx]
  000bd	50		 push	 eax
  000be	8d 54 31 1c	 lea	 edx, DWORD PTR [ecx+esi+28]
  000c2	52		 push	 edx
  000c3	e8 00 00 00 00	 call	 _memcpy

; 141  : 				
; 142  : 				this->m_SendBufLen +=nLeft;

  000c8	8b 45 0c	 mov	 eax, DWORD PTR _nLeft$[ebp]
  000cb	01 86 1c 80 0c
	00		 add	 DWORD PTR [esi+819228], eax
  000d1	8b b6 1c 80 0c
	00		 mov	 esi, DWORD PTR [esi+819228]

; 143  : 
; 144  : 				LogAdd("error-L3 : Copy1 : nLeft:%d len:%d nDx:%d", nLeft, this->m_SendBufLen , nDx);

  000d7	57		 push	 edi
  000d8	56		 push	 esi
  000d9	50		 push	 eax
  000da	68 00 00 00 00	 push	 OFFSET ??_C@_0CK@NAOKACP@error?9L3?5?3?5Copy1?5?3?5nLeft?3?$CFd?5len?3@
  000df	ff 15 00 00 00
	00		 call	 DWORD PTR ?LogAdd@@3P6AXPADZZA ; LogAdd
  000e5	83 c4 1c	 add	 esp, 28			; 0000001cH
  000e8	5f		 pop	 edi
  000e9	5e		 pop	 esi

; 161  : 		{
; 162  : 			break;
; 163  : 		}
; 164  : 	}
; 165  : 	return TRUE;

  000ea	b8 01 00 00 00	 mov	 eax, 1
  000ef	5b		 pop	 ebx

; 166  : }

  000f0	5d		 pop	 ebp
  000f1	c2 08 00	 ret	 8
$LN8@DataSend:

; 145  : 				return TRUE;
; 146  : 			}
; 147  : 		}
; 148  : 		else if ( nResult == 0 )

  000f4	85 c0		 test	 eax, eax
  000f6	74 7d		 je	 SHORT $LN22@DataSend

; 151  : 			break;
; 152  : 		}
; 153  : 
; 154  : 		if ( nResult >0 )

  000f8	7e 07		 jle	 SHORT $LN24@DataSend

; 155  : 		{
; 156  : 			nDx += nResult;
; 157  : 			nLeft -= nResult;

  000fa	29 45 0c	 sub	 DWORD PTR _nLeft$[ebp], eax
  000fd	03 f8		 add	 edi, eax

; 158  : 			*sendbuflen -= nResult;

  000ff	2b d8		 sub	 ebx, eax
$LN24@DataSend:

; 159  : 		}
; 160  : 		if ( nLeft <= 0)

  00101	83 7d 0c 00	 cmp	 DWORD PTR _nLeft$[ebp], 0
  00105	0f 8f 65 ff ff
	ff		 jg	 $LL10@DataSend

; 161  : 		{
; 162  : 			break;
; 163  : 		}
; 164  : 	}
; 165  : 	return TRUE;

  0010b	5f		 pop	 edi
  0010c	5e		 pop	 esi
  0010d	b8 01 00 00 00	 mov	 eax, 1
  00112	5b		 pop	 ebx

; 166  : }

  00113	5d		 pop	 ebp
  00114	c2 08 00	 ret	 8
$LN19@DataSend:

; 123  : 			{
; 124  : 				LogAdd("error-L3 : %d (%s %d)", WSAGetLastError(), __FILE__, __LINE__);

  00117	6a 7c		 push	 124			; 0000007cH
  00119	68 00 00 00 00	 push	 OFFSET ??_C@_0BE@MELEPACJ@wsJoinServerCli?4cpp?$AA@
  0011e	ff 15 00 00 00
	00		 call	 DWORD PTR __imp__WSAGetLastError@0
  00124	50		 push	 eax
  00125	68 00 00 00 00	 push	 OFFSET ??_C@_0BG@DJOPGDCB@error?9L3?5?3?5?$CFd?5?$CI?$CFs?5?$CFd?$CJ?$AA@
  0012a	ff 15 00 00 00
	00		 call	 DWORD PTR ?LogAdd@@3P6AXPADZZA ; LogAdd

; 125  : 				*sendbuflen=0;
; 126  : 				this->Close(this->m_socket );

  00130	8b 46 0c	 mov	 eax, DWORD PTR [esi+12]
  00133	83 c4 10	 add	 esp, 16			; 00000010H
  00136	50		 push	 eax
  00137	8d 4e 04	 lea	 ecx, DWORD PTR [esi+4]
  0013a	e8 00 00 00 00	 call	 ?Close@MyWinsockBase@@QAEHI@Z ; MyWinsockBase::Close
  0013f	5f		 pop	 edi
  00140	5e		 pop	 esi

; 127  : 				return FALSE;

  00141	33 c0		 xor	 eax, eax
  00143	5b		 pop	 ebx

; 166  : }

  00144	5d		 pop	 ebp
  00145	c2 08 00	 ret	 8
$LN20@DataSend:

; 131  : 			{
; 132  : 				LogAddC(2,"error-L3 : buffer error closed %d, %d", (*sendbuflen+nLeft), 819200);

  00148	68 00 80 0c 00	 push	 819200			; 000c8000H
  0014d	03 c3		 add	 eax, ebx
  0014f	50		 push	 eax
  00150	68 00 00 00 00	 push	 OFFSET ??_C@_0CG@DMMIJENA@error?9L3?5?3?5buffer?5error?5closed?5?$CF@
  00155	6a 02		 push	 2
  00157	ff 15 00 00 00
	00		 call	 DWORD PTR ?LogAddC@@3P6AXEPADZZA ; LogAddC

; 133  : 				*sendbuflen = 0;
; 134  : 				this->Close(this->m_socket);

  0015d	8b 4e 0c	 mov	 ecx, DWORD PTR [esi+12]
  00160	83 c4 10	 add	 esp, 16			; 00000010H
  00163	51		 push	 ecx
  00164	8d 4e 04	 lea	 ecx, DWORD PTR [esi+4]
  00167	e8 00 00 00 00	 call	 ?Close@MyWinsockBase@@QAEHI@Z ; MyWinsockBase::Close
  0016c	5f		 pop	 edi
  0016d	5e		 pop	 esi

; 135  : 				return FALSE;

  0016e	33 c0		 xor	 eax, eax
  00170	5b		 pop	 ebx

; 166  : }

  00171	5d		 pop	 ebp
  00172	c2 08 00	 ret	 8
$LN22@DataSend:

; 149  : 		{
; 150  : 			LogAdd("error-L3 : send()  result is zero", WSAGetLastError());

  00175	ff 15 00 00 00
	00		 call	 DWORD PTR __imp__WSAGetLastError@0
  0017b	50		 push	 eax
  0017c	68 00 00 00 00	 push	 OFFSET ??_C@_0CC@HECGJOBH@error?9L3?5?3?5send?$CI?$CJ?5?5result?5is?5zer@
  00181	ff 15 00 00 00
	00		 call	 DWORD PTR ?LogAdd@@3P6AXPADZZA ; LogAdd
  00187	83 c4 08	 add	 esp, 8
  0018a	5f		 pop	 edi
  0018b	5e		 pop	 esi

; 161  : 		{
; 162  : 			break;
; 163  : 		}
; 164  : 	}
; 165  : 	return TRUE;

  0018c	b8 01 00 00 00	 mov	 eax, 1
  00191	5b		 pop	 ebx

; 166  : }

  00192	5d		 pop	 ebp
  00193	c2 08 00	 ret	 8
?DataSend@wsJoinServerCli@@QAEHPADH@Z ENDP		; wsJoinServerCli::DataSend
_TEXT	ENDS
PUBLIC	??_C@_0BJ@BMEBGMFO@send?$CI?$CJ?5result?5is?5zero?5?$CFd?$AA@ ; `string'
PUBLIC	??_C@_0CE@HIKCACFP@FD_WRITE?5send?$CI?$CJ?5WSAEWOULDBLOCK?5?3@ ; `string'
PUBLIC	??_C@_0BL@HNPHKEOO@FD_WRITE?5send?$CI?$CJ?5?$LP?$KB?$LH?$KP?5?$CFd?5?$CFd?$AA@ ; `string'
PUBLIC	??_C@_0CC@CMOPGBFG@error?9L3?5?3?5nDx?5?$CFd?5m_SendBufLen?5?$CF@ ; `string'
PUBLIC	?FDWRITE_MsgDataSend@wsJoinServerCli@@QAEHXZ	; wsJoinServerCli::FDWRITE_MsgDataSend
;	COMDAT ??_C@_0BJ@BMEBGMFO@send?$CI?$CJ?5result?5is?5zero?5?$CFd?$AA@
CONST	SEGMENT
??_C@_0BJ@BMEBGMFO@send?$CI?$CJ?5result?5is?5zero?5?$CFd?$AA@ DB 'send() '
	DB	'result is zero %d', 00H			; `string'
CONST	ENDS
;	COMDAT ??_C@_0CE@HIKCACFP@FD_WRITE?5send?$CI?$CJ?5WSAEWOULDBLOCK?5?3@
CONST	SEGMENT
??_C@_0CE@HIKCACFP@FD_WRITE?5send?$CI?$CJ?5WSAEWOULDBLOCK?5?3@ DB 'FD_WRI'
	DB	'TE send() WSAEWOULDBLOCK : %d', 00H		; `string'
CONST	ENDS
;	COMDAT ??_C@_0BL@HNPHKEOO@FD_WRITE?5send?$CI?$CJ?5?$LP?$KB?$LH?$KP?5?$CFd?5?$CFd?$AA@
CONST	SEGMENT
??_C@_0BL@HNPHKEOO@FD_WRITE?5send?$CI?$CJ?5?$LP?$KB?$LH?$KP?5?$CFd?5?$CFd?$AA@ DB 'F'
	DB	'D_WRITE send() ', 0bfH, 0a1H, 0b7H, 0afH, ' %d %d', 00H ; `string'
CONST	ENDS
;	COMDAT ??_C@_0CC@CMOPGBFG@error?9L3?5?3?5nDx?5?$CFd?5m_SendBufLen?5?$CF@
CONST	SEGMENT
??_C@_0CC@CMOPGBFG@error?9L3?5?3?5nDx?5?$CFd?5m_SendBufLen?5?$CF@ DB 'err'
	DB	'or-L3 : nDx %d m_SendBufLen %d', 00H	; `string'
; Function compile flags: /Ogtp
CONST	ENDS
;	COMDAT ?FDWRITE_MsgDataSend@wsJoinServerCli@@QAEHXZ
_TEXT	SEGMENT
?FDWRITE_MsgDataSend@wsJoinServerCli@@QAEHXZ PROC	; wsJoinServerCli::FDWRITE_MsgDataSend, COMDAT
; _this$ = ecx

; 172  : {

  00000	56		 push	 esi
  00001	57		 push	 edi
  00002	8b f1		 mov	 esi, ecx

; 173  : 	int nResult;
; 174  : 	int nDx;	// Degeneration X :)
; 175  : 	LPBYTE sendbuf;
; 176  : 	int* sendbuflen;
; 177  : 
; 178  : 	nDx=0;
; 179  : 	sendbuf=&this->m_SendBuf[0];
; 180  : 	sendbuflen=&this->m_SendBufLen ;
; 181  : 
; 182  : 	if (this->m_SendBufLen < 1)

  00004	b8 01 00 00 00	 mov	 eax, 1
  00009	33 ff		 xor	 edi, edi
  0000b	39 86 1c 80 0c
	00		 cmp	 DWORD PTR [esi+819228], eax

; 183  : 	{
; 184  : 		return TRUE;

  00011	0f 8c e3 00 00
	00		 jl	 $LN9@FDWRITE_Ms

; 185  : 	}
; 186  : 
; 187  : 	while (*sendbuflen>0)

  00017	53		 push	 ebx
  00018	39 be 1c 80 0c
	00		 cmp	 DWORD PTR [esi+819228], edi
  0001e	0f 8e d0 00 00
	00		 jle	 $LN6@FDWRITE_Ms
$LL7@FDWRITE_Ms:

; 188  : 	{
; 189  : 		nResult=send(this->m_socket, (PCHAR)&sendbuf[nDx], *sendbuflen-nDx, 0);

  00024	8b 86 1c 80 0c
	00		 mov	 eax, DWORD PTR [esi+819228]
  0002a	8b 56 0c	 mov	 edx, DWORD PTR [esi+12]
  0002d	6a 00		 push	 0
  0002f	2b c7		 sub	 eax, edi
  00031	50		 push	 eax
  00032	8d 4c 3e 1c	 lea	 ecx, DWORD PTR [esi+edi+28]
  00036	51		 push	 ecx
  00037	52		 push	 edx
  00038	ff 15 00 00 00
	00		 call	 DWORD PTR __imp__send@16
  0003e	8b d8		 mov	 ebx, eax

; 190  : 		if (nResult == -1)

  00040	83 fb ff	 cmp	 ebx, -1
  00043	74 4b		 je	 SHORT $LN12@FDWRITE_Ms

; 201  : 				break;
; 202  : 			}
; 203  : 		}
; 204  : 		if (nResult <= 0)

  00045	85 db		 test	 ebx, ebx
  00047	0f 8e 92 00 00
	00		 jle	 $LN13@FDWRITE_Ms

; 207  : 			break;
; 208  : 		}
; 209  : 		LogAdd("error-L3 : nDx %d m_SendBufLen %d", nDx, this->m_SendBufLen );

  0004d	8b 86 1c 80 0c
	00		 mov	 eax, DWORD PTR [esi+819228]
  00053	50		 push	 eax
  00054	57		 push	 edi
  00055	68 00 00 00 00	 push	 OFFSET ??_C@_0CC@CMOPGBFG@error?9L3?5?3?5nDx?5?$CFd?5m_SendBufLen?5?$CF@
  0005a	ff 15 00 00 00
	00		 call	 DWORD PTR ?LogAdd@@3P6AXPADZZA ; LogAdd

; 210  : 
; 211  : 		if (nResult > 0)
; 212  : 		{
; 213  : 			nDx += nResult;
; 214  : 			*sendbuflen -= nResult;

  00060	29 9e 1c 80 0c
	00		 sub	 DWORD PTR [esi+819228], ebx

; 215  : 		}
; 216  : 
; 217  : 		LogAdd("error-L3 : nDx %d m_SendBufLen %d", nDx, this->m_SendBufLen );

  00066	8b 8e 1c 80 0c
	00		 mov	 ecx, DWORD PTR [esi+819228]
  0006c	51		 push	 ecx
  0006d	03 fb		 add	 edi, ebx
  0006f	57		 push	 edi
  00070	68 00 00 00 00	 push	 OFFSET ??_C@_0CC@CMOPGBFG@error?9L3?5?3?5nDx?5?$CFd?5m_SendBufLen?5?$CF@
  00075	ff 15 00 00 00
	00		 call	 DWORD PTR ?LogAdd@@3P6AXPADZZA ; LogAdd
  0007b	83 c4 18	 add	 esp, 24			; 00000018H
  0007e	83 be 1c 80 0c
	00 00		 cmp	 DWORD PTR [esi+819228], 0
  00085	7f 9d		 jg	 SHORT $LL7@FDWRITE_Ms

; 218  : 	}
; 219  : 	return TRUE;

  00087	5b		 pop	 ebx
  00088	5f		 pop	 edi
  00089	b8 01 00 00 00	 mov	 eax, 1
  0008e	5e		 pop	 esi

; 220  : }

  0008f	c3		 ret	 0
$LN12@FDWRITE_Ms:

; 191  : 		{
; 192  : 			if ( WSAGetLastError() != WSAEWOULDBLOCK)

  00090	8b 3d 00 00 00
	00		 mov	 edi, DWORD PTR __imp__WSAGetLastError@0
  00096	ff d7		 call	 edi
  00098	3d 33 27 00 00	 cmp	 eax, 10035		; 00002733H
  0009d	74 26		 je	 SHORT $LN4@FDWRITE_Ms

; 193  : 			{
; 194  : 				LogAdd("FD_WRITE send() ¿¡·¯ %d %d", WSAGetLastError(), *sendbuflen);

  0009f	8b 96 1c 80 0c
	00		 mov	 edx, DWORD PTR [esi+819228]
  000a5	52		 push	 edx
  000a6	ff d7		 call	 edi
  000a8	50		 push	 eax
  000a9	68 00 00 00 00	 push	 OFFSET ??_C@_0BL@HNPHKEOO@FD_WRITE?5send?$CI?$CJ?5?$LP?$KB?$LH?$KP?5?$CFd?5?$CFd?$AA@
  000ae	ff 15 00 00 00
	00		 call	 DWORD PTR ?LogAdd@@3P6AXPADZZA ; LogAdd
  000b4	83 c4 0c	 add	 esp, 12			; 0000000cH

; 195  : 				this->Close();

  000b7	8d 4e 04	 lea	 ecx, DWORD PTR [esi+4]
  000ba	e8 00 00 00 00	 call	 ?Close@MyWinsockBase@@QAEHXZ ; MyWinsockBase::Close
  000bf	5b		 pop	 ebx
  000c0	5f		 pop	 edi

; 196  : 				return FALSE;

  000c1	33 c0		 xor	 eax, eax
  000c3	5e		 pop	 esi

; 220  : }

  000c4	c3		 ret	 0
$LN4@FDWRITE_Ms:

; 197  : 			}
; 198  : 			else
; 199  : 			{
; 200  : 				LogAdd("FD_WRITE send() WSAEWOULDBLOCK : %d", WSAGetLastError());

  000c5	ff d7		 call	 edi
  000c7	50		 push	 eax
  000c8	68 00 00 00 00	 push	 OFFSET ??_C@_0CE@HIKCACFP@FD_WRITE?5send?$CI?$CJ?5WSAEWOULDBLOCK?5?3@

; 205  : 		{
; 206  : 			LogAdd("send() result is zero %d", WSAGetLastError());

  000cd	ff 15 00 00 00
	00		 call	 DWORD PTR ?LogAdd@@3P6AXPADZZA ; LogAdd
  000d3	83 c4 08	 add	 esp, 8
  000d6	5b		 pop	 ebx
  000d7	5f		 pop	 edi

; 218  : 	}
; 219  : 	return TRUE;

  000d8	b8 01 00 00 00	 mov	 eax, 1
  000dd	5e		 pop	 esi

; 220  : }

  000de	c3		 ret	 0
$LN13@FDWRITE_Ms:

; 205  : 		{
; 206  : 			LogAdd("send() result is zero %d", WSAGetLastError());

  000df	ff 15 00 00 00
	00		 call	 DWORD PTR __imp__WSAGetLastError@0
  000e5	50		 push	 eax
  000e6	68 00 00 00 00	 push	 OFFSET ??_C@_0BJ@BMEBGMFO@send?$CI?$CJ?5result?5is?5zero?5?$CFd?$AA@
  000eb	ff 15 00 00 00
	00		 call	 DWORD PTR ?LogAdd@@3P6AXPADZZA ; LogAdd
  000f1	83 c4 08	 add	 esp, 8
$LN6@FDWRITE_Ms:

; 218  : 	}
; 219  : 	return TRUE;

  000f4	b8 01 00 00 00	 mov	 eax, 1
  000f9	5b		 pop	 ebx
$LN9@FDWRITE_Ms:

; 220  : }

  000fa	5f		 pop	 edi
  000fb	5e		 pop	 esi
  000fc	c3		 ret	 0
?FDWRITE_MsgDataSend@wsJoinServerCli@@QAEHXZ ENDP	; wsJoinServerCli::FDWRITE_MsgDataSend
_TEXT	ENDS
PUBLIC	??_C@_0DA@NDEDNMBA@error?9L2?5?3?5header?5error?5?$CI?$CFs?5?$CFd?$CJl@ ; `string'
PUBLIC	??_C@_0BD@JDAMFKGN@error?9L2?5?3?5size?5?$CFd?$AA@ ; `string'
PUBLIC	??_C@_0BJ@MHCMJICL@error?9L3?5?3?5recv?5error?5?$CFd?$AA@ ; `string'
PUBLIC	??_C@_0CE@LOFMLGPB@error?9L3?5?3?5closed?5?$CFd?5?9?5buff?3?$CFd?$CI?$CF@ ; `string'
PUBLIC	?DataRecv@wsJoinServerCli@@QAEHXZ		; wsJoinServerCli::DataRecv
EXTRN	__imp__recv@16:PROC
;	COMDAT ??_C@_0DA@NDEDNMBA@error?9L2?5?3?5header?5error?5?$CI?$CFs?5?$CFd?$CJl@
CONST	SEGMENT
??_C@_0DA@NDEDNMBA@error?9L2?5?3?5header?5error?5?$CI?$CFs?5?$CFd?$CJl@ DB 'e'
	DB	'rror-L2 : header error (%s %d)lOfs:%d, size:%d', 00H ; `string'
CONST	ENDS
;	COMDAT ??_C@_0BD@JDAMFKGN@error?9L2?5?3?5size?5?$CFd?$AA@
CONST	SEGMENT
??_C@_0BD@JDAMFKGN@error?9L2?5?3?5size?5?$CFd?$AA@ DB 'error-L2 : size %d'
	DB	00H						; `string'
CONST	ENDS
;	COMDAT ??_C@_0BJ@MHCMJICL@error?9L3?5?3?5recv?5error?5?$CFd?$AA@
CONST	SEGMENT
??_C@_0BJ@MHCMJICL@error?9L3?5?3?5recv?5error?5?$CFd?$AA@ DB 'error-L3 : '
	DB	'recv error %d', 00H				; `string'
CONST	ENDS
;	COMDAT ??_C@_0CE@LOFMLGPB@error?9L3?5?3?5closed?5?$CFd?5?9?5buff?3?$CFd?$CI?$CF@
CONST	SEGMENT
??_C@_0CE@LOFMLGPB@error?9L3?5?3?5closed?5?$CFd?5?9?5buff?3?$CFd?$CI?$CF@ DB 'e'
	DB	'rror-L3 : closed %d - buff:%d(%d) ', 00H	; `string'
; Function compile flags: /Ogtp
CONST	ENDS
;	COMDAT ?DataRecv@wsJoinServerCli@@QAEHXZ
_TEXT	SEGMENT
_recvbuf$ = -8						; size = 4
_headcode$ = -4						; size = 1
?DataRecv@wsJoinServerCli@@QAEHXZ PROC			; wsJoinServerCli::DataRecv, COMDAT
; _this$ = ecx

; 225  : {

  00000	55		 push	 ebp
  00001	8b ec		 mov	 ebp, esp
  00003	83 ec 08	 sub	 esp, 8
  00006	56		 push	 esi
  00007	8b f1		 mov	 esi, ecx

; 226  : 	int nResult;
; 227  : 	unsigned char* recvbuf;
; 228  : 	int* recvbuflen;
; 229  : 	int lOfs;
; 230  : 	int size;
; 231  : 	BYTE headcode;
; 232  : 
; 233  : 	recvbuf= (UCHAR*)&this->m_RecvBuf[0]   ;
; 234  : 	recvbuflen=&this->m_RecvBufLen ;
; 235  : 	nResult=recv(this->m_socket , (CHAR*)&recvbuf[*recvbuflen], (819200-*recvbuflen), 0);

  00009	8b 86 20 00 19
	00		 mov	 eax, DWORD PTR [esi+1638432]
  0000f	8b 56 0c	 mov	 edx, DWORD PTR [esi+12]
  00012	57		 push	 edi
  00013	6a 00		 push	 0
  00015	b9 00 80 0c 00	 mov	 ecx, 819200		; 000c8000H
  0001a	2b c8		 sub	 ecx, eax
  0001c	8d be 20 80 0c
	00		 lea	 edi, DWORD PTR [esi+819232]
  00022	51		 push	 ecx
  00023	03 c7		 add	 eax, edi
  00025	50		 push	 eax
  00026	52		 push	 edx
  00027	89 7d f8	 mov	 DWORD PTR _recvbuf$[ebp], edi
  0002a	ff 15 00 00 00
	00		 call	 DWORD PTR __imp__recv@16

; 236  : 
; 237  : 	if ( nResult == 0 )

  00030	85 c0		 test	 eax, eax
  00032	75 33		 jne	 SHORT $LN18@DataRecv

; 238  : 	{
; 239  : 		LogAdd("error-L3 : closed %d - buff:%d(%d) ",
; 240  : 			WSAGetLastError(), this->m_RecvBufLen, 819200 - *recvbuflen);

  00034	8b 8e 20 00 19
	00		 mov	 ecx, DWORD PTR [esi+1638432]
  0003a	b8 00 80 0c 00	 mov	 eax, 819200		; 000c8000H
  0003f	2b 86 20 00 19
	00		 sub	 eax, DWORD PTR [esi+1638432]
  00045	50		 push	 eax
  00046	51		 push	 ecx
  00047	ff 15 00 00 00
	00		 call	 DWORD PTR __imp__WSAGetLastError@0
  0004d	50		 push	 eax
  0004e	68 00 00 00 00	 push	 OFFSET ??_C@_0CE@LOFMLGPB@error?9L3?5?3?5closed?5?$CFd?5?9?5buff?3?$CFd?$CI?$CF@
  00053	ff 15 00 00 00
	00		 call	 DWORD PTR ?LogAdd@@3P6AXPADZZA ; LogAdd
  00059	83 c4 10	 add	 esp, 16			; 00000010H
$LN27@DataRecv:

; 241  : 
; 242  : 		return 1;

  0005c	5f		 pop	 edi
  0005d	b8 01 00 00 00	 mov	 eax, 1
  00062	5e		 pop	 esi

; 333  : 	return 0;
; 334  : }

  00063	8b e5		 mov	 esp, ebp
  00065	5d		 pop	 ebp
  00066	c3		 ret	 0
$LN18@DataRecv:

; 243  : 	}
; 244  : 	else if (nResult == -1 )

  00067	83 f8 ff	 cmp	 eax, -1
  0006a	75 2b		 jne	 SHORT $LN16@DataRecv

; 245  : 	{
; 246  : 		if ( WSAGetLastError() == WSAEWOULDBLOCK )

  0006c	8b 35 00 00 00
	00		 mov	 esi, DWORD PTR __imp__WSAGetLastError@0
  00072	ff d6		 call	 esi
  00074	3d 33 27 00 00	 cmp	 eax, 10035		; 00002733H

; 247  : 		{
; 248  : 			return 1;

  00079	74 e1		 je	 SHORT $LN27@DataRecv

; 249  : 		}
; 250  : 		LogAdd("error-L3 : recv error %d", WSAGetLastError() );

  0007b	ff d6		 call	 esi
  0007d	50		 push	 eax
  0007e	68 00 00 00 00	 push	 OFFSET ??_C@_0BJ@MHCMJICL@error?9L3?5?3?5recv?5error?5?$CFd?$AA@
  00083	ff 15 00 00 00
	00		 call	 DWORD PTR ?LogAdd@@3P6AXPADZZA ; LogAdd
  00089	83 c4 08	 add	 esp, 8
  0008c	5f		 pop	 edi

; 251  : 		return 1;

  0008d	b8 01 00 00 00	 mov	 eax, 1
  00092	5e		 pop	 esi

; 333  : 	return 0;
; 334  : }

  00093	8b e5		 mov	 esp, ebp
  00095	5d		 pop	 ebp
  00096	c3		 ret	 0
$LN16@DataRecv:

; 252  : 	}
; 253  : 
; 254  : 	*recvbuflen += nResult;

  00097	01 86 20 00 19
	00		 add	 DWORD PTR [esi+1638432], eax

; 255  : 
; 256  : 	if (*recvbuflen<3)

  0009d	83 be 20 00 19
	00 03		 cmp	 DWORD PTR [esi+1638432], 3
  000a4	7d 0b		 jge	 SHORT $LN14@DataRecv

; 257  : 	{
; 258  : 		return 3;

  000a6	5f		 pop	 edi
  000a7	b8 03 00 00 00	 mov	 eax, 3
  000ac	5e		 pop	 esi

; 333  : 	return 0;
; 334  : }

  000ad	8b e5		 mov	 esp, ebp
  000af	5d		 pop	 ebp
  000b0	c3		 ret	 0
$LN14@DataRecv:
  000b1	53		 push	 ebx

; 259  : 	}
; 260  : 
; 261  : 	lOfs=0;

  000b2	33 db		 xor	 ebx, ebx
$LL13@DataRecv:

; 262  : 	size=0;
; 263  : 
; 264  : 	
; 265  : //	LogAddC(2, "[DEBUG] Type: %x", recvbuf[lOfs]);
; 266  : 
; 267  : 	while ( true )
; 268  : 	{
; 269  : 		
; 270  : 		if (recvbuf[lOfs] == 0xC1 )	// Type packet handling C1 Type

  000b4	8a 0c 3b	 mov	 cl, BYTE PTR [ebx+edi]
  000b7	8d 04 3b	 lea	 eax, DWORD PTR [ebx+edi]
  000ba	80 f9 c1	 cmp	 cl, 193			; 000000c1H
  000bd	75 09		 jne	 SHORT $LN11@DataRecv

; 271  : 		{
; 272  : 			unsigned char* c1subbase = (UCHAR*)&recvbuf[lOfs];
; 273  : 			size=c1subbase[1];

  000bf	0f b6 78 01	 movzx	 edi, BYTE PTR [eax+1]

; 274  : 			headcode=c1subbase[2];

  000c3	8a 50 02	 mov	 dl, BYTE PTR [eax+2]
  000c6	eb 19		 jmp	 SHORT $LN25@DataRecv
$LN11@DataRecv:

; 275  : 		}
; 276  : 		else if ( recvbuf[lOfs] == 0xC2 ) // Type packet handling C2 Type

  000c8	80 f9 c2	 cmp	 cl, 194			; 000000c2H
  000cb	0f 85 86 00 00
	00		 jne	 $LN9@DataRecv

; 277  : 		{
; 278  : 			unsigned char* c2subbase=(UCHAR*)&recvbuf[lOfs];
; 279  : 			size = c2subbase[1] * 256;
; 280  : 			size |= c2subbase[2];

  000d1	0f b6 78 01	 movzx	 edi, BYTE PTR [eax+1]
  000d5	0f b6 48 02	 movzx	 ecx, BYTE PTR [eax+2]

; 281  : 			headcode = c2subbase[3];

  000d9	8a 50 03	 mov	 dl, BYTE PTR [eax+3]
  000dc	c1 e7 08	 shl	 edi, 8
  000df	0b f9		 or	 edi, ecx
$LN25@DataRecv:
  000e1	88 55 fc	 mov	 BYTE PTR _headcode$[ebp], dl

; 298  : 		}
; 299  : 
; 300  : 		if ( size <= 0 )

  000e4	85 ff		 test	 edi, edi
  000e6	7e 2f		 jle	 SHORT $LN22@DataRecv

; 303  : 			return 0;
; 304  : 		}
; 305  : 
; 306  : 		if ( size <= *recvbuflen )

  000e8	3b be 20 00 19
	00		 cmp	 edi, DWORD PTR [esi+1638432]
  000ee	7f 3f		 jg	 SHORT $LN6@DataRecv

; 307  : 		{
; 308  : 			this->wsProtocolCore(headcode, &recvbuf[lOfs], size);

  000f0	8b 8e 24 00 19
	00		 mov	 ecx, DWORD PTR [esi+1638436]
  000f6	57		 push	 edi
  000f7	50		 push	 eax
  000f8	8b 45 fc	 mov	 eax, DWORD PTR _headcode$[ebp]
  000fb	50		 push	 eax
  000fc	ff d1		 call	 ecx

; 309  : 			lOfs += size;
; 310  : 			*recvbuflen -= size;

  000fe	29 be 20 00 19
	00		 sub	 DWORD PTR [esi+1638432], edi
  00104	83 c4 0c	 add	 esp, 12			; 0000000cH
  00107	03 df		 add	 ebx, edi

; 311  : 
; 312  : 			if ( *recvbuflen <= 0)

  00109	83 be 20 00 19
	00 00		 cmp	 DWORD PTR [esi+1638432], 0
  00110	7e 6f		 jle	 SHORT $LN26@DataRecv

; 326  : 			break;
; 327  : 		}
; 328  : 		else
; 329  : 		{
; 330  : 			break;
; 331  : 		}
; 332  : 	}

  00112	8b 7d f8	 mov	 edi, DWORD PTR _recvbuf$[ebp]
  00115	eb 9d		 jmp	 SHORT $LL13@DataRecv
$LN22@DataRecv:

; 301  : 		{
; 302  : 			LogAdd("error-L2 : size %d", size);

  00117	57		 push	 edi
  00118	68 00 00 00 00	 push	 OFFSET ??_C@_0BD@JDAMFKGN@error?9L2?5?3?5size?5?$CFd?$AA@
  0011d	ff 15 00 00 00
	00		 call	 DWORD PTR ?LogAdd@@3P6AXPADZZA ; LogAdd
  00123	83 c4 08	 add	 esp, 8
  00126	5b		 pop	 ebx
  00127	5f		 pop	 edi
  00128	33 c0		 xor	 eax, eax
  0012a	5e		 pop	 esi

; 333  : 	return 0;
; 334  : }

  0012b	8b e5		 mov	 esp, ebp
  0012d	5d		 pop	 ebp
  0012e	c3		 ret	 0
$LN6@DataRecv:

; 313  : 			{
; 314  : 				break;
; 315  : 			}
; 316  : 		}
; 317  : 		
; 318  : 		else if ( lOfs > 0 )

  0012f	85 db		 test	 ebx, ebx
  00131	7e 4e		 jle	 SHORT $LN26@DataRecv

; 319  : 		{
; 320  : 			if ( *recvbuflen < 1 ) 

  00133	8b b6 20 00 19
	00		 mov	 esi, DWORD PTR [esi+1638432]
  00139	83 fe 01	 cmp	 esi, 1
  0013c	7c 43		 jl	 SHORT $LN26@DataRecv

; 321  : 			{
; 322  : 				break;
; 323  : 			}
; 324  : 
; 325  : 			memcpy(recvbuf, &recvbuf[lOfs], *recvbuflen);

  0013e	8b 45 f8	 mov	 eax, DWORD PTR _recvbuf$[ebp]
  00141	56		 push	 esi
  00142	03 d8		 add	 ebx, eax
  00144	53		 push	 ebx
  00145	50		 push	 eax
  00146	e8 00 00 00 00	 call	 _memcpy
  0014b	83 c4 0c	 add	 esp, 12			; 0000000cH
  0014e	5b		 pop	 ebx
  0014f	5f		 pop	 edi
  00150	33 c0		 xor	 eax, eax
  00152	5e		 pop	 esi

; 333  : 	return 0;
; 334  : }

  00153	8b e5		 mov	 esp, ebp
  00155	5d		 pop	 ebp
  00156	c3		 ret	 0
$LN9@DataRecv:

; 282  : 		}
; 283  : 		else
; 284  : 		{
; 285  : 			LogAdd("error-L2 : header error (%s %d)lOfs:%d, size:%d", __FILE__, __LINE__, lOfs, *recvbuflen);

  00157	8b 96 20 00 19
	00		 mov	 edx, DWORD PTR [esi+1638432]
  0015d	52		 push	 edx
  0015e	53		 push	 ebx
  0015f	68 1d 01 00 00	 push	 285			; 0000011dH
  00164	68 00 00 00 00	 push	 OFFSET ??_C@_0BE@MELEPACJ@wsJoinServerCli?4cpp?$AA@
  00169	68 00 00 00 00	 push	 OFFSET ??_C@_0DA@NDEDNMBA@error?9L2?5?3?5header?5error?5?$CI?$CFs?5?$CFd?$CJl@
  0016e	ff 15 00 00 00
	00		 call	 DWORD PTR ?LogAdd@@3P6AXPADZZA ; LogAdd
  00174	83 c4 14	 add	 esp, 20			; 00000014H

; 286  : /*			char DebugOut[6000] = { 0 };
; 287  : 
; 288  : 			for( int i = 0; i < 200; i++ )
; 289  : 			{
; 290  : 				char ByteFormat[100] = { 0 };
; 291  : 				sprintf(ByteFormat, "%X ", recvbuf[i]);
; 292  : 				strcat(DebugOut, ByteFormat);
; 293  : 			}
; 294  : 			
; 295  : 			LogAddC(2, DebugOut);*/
; 296  : 			*recvbuflen = 0;

  00177	c7 86 20 00 19
	00 00 00 00 00	 mov	 DWORD PTR [esi+1638432], 0
$LN26@DataRecv:

; 297  : 			return 0;

  00181	5b		 pop	 ebx
  00182	5f		 pop	 edi
  00183	33 c0		 xor	 eax, eax
  00185	5e		 pop	 esi

; 333  : 	return 0;
; 334  : }

  00186	8b e5		 mov	 esp, ebp
  00188	5d		 pop	 ebp
  00189	c3		 ret	 0
?DataRecv@wsJoinServerCli@@QAEHXZ ENDP			; wsJoinServerCli::DataRecv
_TEXT	ENDS
EXTRN	??3@YAXPAX@Z:PROC				; operator delete
; Function compile flags: /Ogtp
;	COMDAT ??_GwsJoinServerCli@@UAEPAXI@Z
_TEXT	SEGMENT
___flags$ = 8						; size = 4
??_GwsJoinServerCli@@UAEPAXI@Z PROC			; wsJoinServerCli::`scalar deleting destructor', COMDAT
; _this$ = ecx
  00000	55		 push	 ebp
  00001	8b ec		 mov	 ebp, esp
  00003	56		 push	 esi
  00004	8b f1		 mov	 esi, ecx
  00006	e8 00 00 00 00	 call	 ??1wsJoinServerCli@@UAE@XZ ; wsJoinServerCli::~wsJoinServerCli
  0000b	f6 45 08 01	 test	 BYTE PTR ___flags$[ebp], 1
  0000f	74 09		 je	 SHORT $LN4@scalar
  00011	56		 push	 esi
  00012	e8 00 00 00 00	 call	 ??3@YAXPAX@Z		; operator delete
  00017	83 c4 04	 add	 esp, 4
$LN4@scalar:
  0001a	8b c6		 mov	 eax, esi
  0001c	5e		 pop	 esi
  0001d	5d		 pop	 ebp
  0001e	c2 04 00	 ret	 4
??_GwsJoinServerCli@@UAEPAXI@Z ENDP			; wsJoinServerCli::`scalar deleting destructor'
_TEXT	ENDS
END
